 benchmarkaddon_win32

 Timestamp is 68d8758c (Sun Sep 28 02:38:52 2025)

 Preferred load address is 00400000

 Start         Length     Name                   Class
 0001:00000000 000a7c81H .text                   CODE
 0001:000a7c90 00008376H .text$yc                CODE
 0001:000b0010 000027a4H .text$yd                CODE
 0002:00000000 000002a0H .idata$5                DATA
 0002:000002a0 00000004H .CRT$XCA                DATA
 0002:000002a4 00000004H .CRT$XCAA               DATA
 0002:000002a8 00000430H .CRT$XCU                DATA
 0002:000006d8 00000004H .CRT$XCZ                DATA
 0002:000006dc 00000004H .CRT$XIA                DATA
 0002:000006e0 00000004H .CRT$XIAA               DATA
 0002:000006e4 00000004H .CRT$XIC                DATA
 0002:000006e8 00000004H .CRT$XIY                DATA
 0002:000006ec 00000004H .CRT$XIZ                DATA
 0002:000006f0 00000004H .CRT$XLA                DATA
 0002:000006f4 00000004H .CRT$XLZ                DATA
 0002:00000700 00011c80H .rdata                  DATA
 0002:00012380 00000018H .rdata$T                DATA
 0002:00012398 00000046H .rdata$debug            DATA
 0002:000123e0 00000008H .rdata$sxdata           DATA
 0002:000123e8 00000004H .rtc$IAA                DATA
 0002:000123ec 00000004H .rtc$IZZ                DATA
 0002:000123f0 00000004H .rtc$TAA                DATA
 0002:000123f4 00000004H .rtc$TZZ                DATA
 0002:000123f8 0000008cH .xdata$x                DATA
 0002:00012484 0000008cH .idata$2                DATA
 0002:00012510 00000014H .idata$3                DATA
 0002:00012524 000002a0H .idata$4                DATA
 0002:000127c4 000008f2H .idata$6                DATA
 0002:000130b6 00000000H .edata                  DATA
 0003:00000000 000000b0H .data                   DATA
 0003:000000b0 00004454H .bss                    DATA
 0004:00000000 00000001H .tls                    DATA
 0004:00000004 0000001cH .stls                   DATA
 0004:00000020 00000001H .tls$ZZZ                DATA

  Address         Publics by Value              Rva+Base       Lib:Object

 0000:00000000       __except_list              00000000     <absolute>
 0000:00000002       ___safe_se_handler_count   00000002     <absolute>
 0000:0000002c       __tls_array                0000002c     <absolute>
 0000:00009876       __fltused                  00009876     <absolute>
 0000:00009876       __ldused                   00009876     <absolute>
 0000:00000000       ___ImageBase               00400000     <linker-defined>
 0001:00000000       _IXACT3SoundBank_Destroy@4 00401000 f i stdneb.obj
 0001:00000020       _IXACT3SoundBank_GetCueIndex@8 00401020 f i stdneb.obj
 0001:00000040       _IXACT3SoundBank_GetNumCues@8 00401040 f i stdneb.obj
 0001:00000060       _IXACT3SoundBank_GetCueProperties@12 00401060 f i stdneb.obj
 0001:00000080       _IXACT3SoundBank_Prepare@20 00401080 f i stdneb.obj
 0001:000000b0       _IXACT3SoundBank_Play@20   004010b0 f i stdneb.obj
 0001:000000e0       _IXACT3SoundBank_Stop@12   004010e0 f i stdneb.obj
 0001:00000100       _IXACT3SoundBank_GetState@8 00401100 f i stdneb.obj
 0001:00000120       _IXACT3WaveBank_Destroy@4  00401120 f i stdneb.obj
 0001:00000140       _IXACT3WaveBank_GetNumWaves@8 00401140 f i stdneb.obj
 0001:00000160       _IXACT3WaveBank_GetWaveIndex@8 00401160 f i stdneb.obj
 0001:00000180       _IXACT3WaveBank_GetWaveProperties@12 00401180 f i stdneb.obj
 0001:000001a0       _IXACT3WaveBank_Prepare@24 004011a0 f i stdneb.obj
 0001:000001d0       _IXACT3WaveBank_Play@24    004011d0 f i stdneb.obj
 0001:00000200       _IXACT3WaveBank_Stop@12    00401200 f i stdneb.obj
 0001:00000220       _IXACT3WaveBank_GetState@8 00401220 f i stdneb.obj
 0001:00000240       _IXACT3Wave_Destroy@4      00401240 f i stdneb.obj
 0001:00000260       _IXACT3Wave_Play@4         00401260 f i stdneb.obj
 0001:00000280       _IXACT3Wave_Stop@8         00401280 f i stdneb.obj
 0001:000002a0       _IXACT3Wave_Pause@8        004012a0 f i stdneb.obj
 0001:000002c0       _IXACT3Wave_GetState@8     004012c0 f i stdneb.obj
 0001:000002e0       _IXACT3Wave_SetPitch@8     004012e0 f i stdneb.obj
 0001:00000300       _IXACT3Wave_SetVolume@8    00401300 f i stdneb.obj
 0001:00000320       _IXACT3Wave_SetMatrixCoefficients@16 00401320 f i stdneb.obj
 0001:00000350       _IXACT3Wave_GetProperties@8 00401350 f i stdneb.obj
 0001:00000370       _IXACT3Cue_Play@4          00401370 f i stdneb.obj
 0001:00000390       _IXACT3Cue_Stop@8          00401390 f i stdneb.obj
 0001:000003b0       _IXACT3Cue_GetState@8      004013b0 f i stdneb.obj
 0001:000003d0       _IXACT3Cue_Destroy@4       004013d0 f i stdneb.obj
 0001:000003f0       _IXACT3Cue_SetMatrixCoefficients@16 004013f0 f i stdneb.obj
 0001:00000420       _IXACT3Cue_GetVariableIndex@8 00401420 f i stdneb.obj
 0001:00000440       _IXACT3Cue_SetVariable@12  00401440 f i stdneb.obj
 0001:00000470       _IXACT3Cue_GetVariable@12  00401470 f i stdneb.obj
 0001:00000490       _IXACT3Cue_Pause@8         00401490 f i stdneb.obj
 0001:000004b0       _IXACT3Cue_GetProperties@8 004014b0 f i stdneb.obj
 0001:000004d0       _IXACT3Cue_SetOutputVoices@8 004014d0 f i stdneb.obj
 0001:000004f0       _IXACT3Cue_SetOutputVoiceMatrix@20 004014f0 f i stdneb.obj
 0001:00000520       _IXACT3Engine_AddRef@4     00401520 f i stdneb.obj
 0001:00000540       _IXACT3Engine_Release@4    00401540 f i stdneb.obj
 0001:00000560       _IXACT3Engine_GetRendererCount@8 00401560 f i stdneb.obj
 0001:00000580       _IXACT3Engine_GetRendererDetails@12 00401580 f i stdneb.obj
 0001:000005a0       _IXACT3Engine_GetFinalMixFormat@8 004015a0 f i stdneb.obj
 0001:000005c0       _IXACT3Engine_Initialize@8 004015c0 f i stdneb.obj
 0001:000005e0       _IXACT3Engine_ShutDown@4   004015e0 f i stdneb.obj
 0001:00000600       _IXACT3Engine_DoWork@4     00401600 f i stdneb.obj
 0001:00000620       _IXACT3Engine_CreateSoundBank@24 00401620 f i stdneb.obj
 0001:00000650       _IXACT3Engine_CreateInMemoryWaveBank@24 00401650 f i stdneb.obj
 0001:00000680       _IXACT3Engine_CreateStreamingWaveBank@12 00401680 f i stdneb.obj
 0001:000006a0       _IXACT3Engine_PrepareWave@32 004016a0 f i stdneb.obj
 0001:000006e0       _IXACT3Engine_PrepareInMemoryWave@52 004016e0 f i stdneb.obj
 0001:00000740       _IXACT3Engine_PrepareStreamingWave@68 00401740 f i stdneb.obj
 0001:000007c0       _IXACT3Engine_RegisterNotification@8 004017c0 f i stdneb.obj
 0001:000007e0       _IXACT3Engine_UnRegisterNotification@8 004017e0 f i stdneb.obj
 0001:00000800       _IXACT3Engine_GetCategory@8 00401800 f i stdneb.obj
 0001:00000820       _IXACT3Engine_Stop@12      00401820 f i stdneb.obj
 0001:00000840       _IXACT3Engine_SetVolume@12 00401840 f i stdneb.obj
 0001:00000870       _IXACT3Engine_Pause@12     00401870 f i stdneb.obj
 0001:00000890       _IXACT3Engine_GetGlobalVariableIndex@8 00401890 f i stdneb.obj
 0001:000008b0       _IXACT3Engine_SetGlobalVariable@12 004018b0 f i stdneb.obj
 0001:000008e0       _IXACT3Engine_GetGlobalVariable@12 004018e0 f i stdneb.obj
 0001:00000900       ?Increment@Win360Interlocked@Win360@@SAHACH@Z 00401900 f i databaseinsert.obj
 0001:00000920       ?Decrement@Win360Interlocked@Win360@@SAHACH@Z 00401920 f i databaseinsert.obj
 0001:00000940       ?__HeapUnalignPointer16@Memory@@YAPAEPAE@Z 00401940 f i databaseinsert.obj
 0001:00000960       ?__HeapFree16@Memory@@YAHPAXK0@Z 00401960 f i databaseinsert.obj
 0001:000009a0       ?Clear@Memory@@YAXPAXI@Z   004019a0 f i databaseinsert.obj
 0001:000009c0       ??2@YAPAXI@Z               004019c0 f i databaseinsert.obj
 0001:000009e0       ??_U@YAPAXI@Z              004019e0 f i databaseinsert.obj
 0001:00000a00       ??3@YAXPAX@Z               00401a00 f i databaseinsert.obj
 0001:00000a20       ??_V@YAXPAX@Z              00401a20 f i databaseinsert.obj
 0001:00000a40       ?Free@Win360Heap@Win360@@QAEXPAX@Z 00401a40 f i databaseinsert.obj
 0001:00000ac0       ??3String@Util@@SAXPAX@Z   00401ac0 f i databaseinsert.obj
 0001:00000ae0       ??0String@Util@@QAE@XZ     00401ae0 f i databaseinsert.obj
 0001:00000b20       ?Delete@String@Util@@AAEXXZ 00401b20 f i databaseinsert.obj
 0001:00000b70       ??1String@Util@@QAE@XZ     00401b70 f i databaseinsert.obj
 0001:00000bc0       ??0String@Util@@QAE@PBD@Z  00401bc0 f i databaseinsert.obj
 0001:00000c00       ?AsCharPtr@String@Util@@QBEPBDXZ 00401c00 f i databaseinsert.obj
 0001:00000c30       ??4String@Util@@QAEXABV01@@Z 00401c30 f i databaseinsert.obj
 0001:00000c70       ??4String@Util@@QAEXPBD@Z  00401c70 f i databaseinsert.obj
 0001:00000c90       ??0FourCC@Util@@QAE@I@Z    00401c90 f i databaseinsert.obj
 0001:00000cb0       ??3RefCounted@Core@@SAXPAX@Z 00401cb0 f i databaseinsert.obj
 0001:00000cd0       ??0RefCounted@Core@@QAE@XZ 00401cd0 f i databaseinsert.obj
 0001:00000d00       ??_GRefCounted@Core@@MAEPAXI@Z 00401d00 f i databaseinsert.obj
 0001:00000d00       ??_ERefCounted@Core@@MAEPAXI@Z 00401d00 f i  CIL library: CIL module
 0001:00000d30       ?AddRef@RefCounted@Core@@QAEXXZ 00401d30 f i databaseinsert.obj
 0001:00000d50       ?Release@RefCounted@Core@@QAEXXZ 00401d50 f i databaseinsert.obj
 0001:00000da0       ??3Benchmark@Benchmarking@@SAXPAX@Z 00401da0 f i databaseinsert.obj
 0001:00000dc0       ??0URI@IO@@QAE@PBD@Z       00401dc0 f i databaseinsert.obj
 0001:00000fa0       ??4URI@IO@@QAEXABV01@@Z    00401fa0 f i databaseinsert.obj
 0001:000011a0       ??0Win32Guid@Win32@@QAE@XZ 004021a0 f i databaseinsert.obj
 0001:000011c0       ??3Blob@Util@@SAXPAX@Z     004021c0 f i databaseinsert.obj
 0001:000011e0       ?IsValid@Blob@Util@@QBE_NXZ 004021e0 f i databaseinsert.obj
 0001:00001200       ?Delete@Blob@Util@@AAEXXZ  00402200 f i databaseinsert.obj
 0001:000012e0       ??1Blob@Util@@QAE@XZ       004022e0 f i databaseinsert.obj
 0001:00001300       ?GetType@Variant@Util@@QBE?AW4Type@12@XZ 00402300 f i databaseinsert.obj
 0001:00001310       ?GetValueType@AttributeDefinitionBase@Attr@@QBE?AW4ValueType@2@XZ 00402310 f i databaseinsert.obj
 0001:00001330       ??0AttrId@Attr@@QAE@XZ     00402330 f i databaseinsert.obj
 0001:00001350       ??0AttrId@Attr@@QAE@ABVAttributeDefinitionBase@1@@Z 00402350 f i databaseinsert.obj
 0001:00001370       ?IsValid@AttrId@Attr@@QBE_NXZ 00402370 f i databaseinsert.obj
 0001:00001390       ??9AttrId@Attr@@QBE_NABV01@@Z 00402390 f i databaseinsert.obj
 0001:000013f0       ?GetValueType@AttrId@Attr@@QBE?AW4ValueType@2@XZ 004023f0 f i databaseinsert.obj
 0001:00001440       ?IsRowDeleted@AttributeTable@Attr@@QBE_NH@Z 00402440 f i databaseinsert.obj
 0001:000014b0       ?GetNumColumns@AttributeTable@Attr@@QBEHXZ 004024b0 f i databaseinsert.obj
 0001:000014d0       ?GetColumnId@AttributeTable@Attr@@QBEABVAttrId@2@H@Z 004024d0 f i databaseinsert.obj
 0001:000014f0       ?GetColumnValueType@AttributeTable@Attr@@QBE?AW4ValueType@2@H@Z 004024f0 f i databaseinsert.obj
 0001:00001550       ?GetNumRows@AttributeTable@Attr@@QBEHXZ 00402550 f i databaseinsert.obj
 0001:00001570       ?GetValuePtr@AttributeTable@Attr@@ABEPAXHH@Z 00402570 f i databaseinsert.obj
 0001:000015f0       ?SetBool@AttributeTable@Attr@@QAEXHH_N@Z 004025f0 f i databaseinsert.obj
 0001:00001690       ?SetFloat@AttributeTable@Attr@@QAEXHHM@Z 00402690 f i databaseinsert.obj
 0001:00001730       ?SetInt@AttributeTable@Attr@@QAEXHHH@Z 00402730 f i databaseinsert.obj
 0001:000017d0       ?SetString@AttributeTable@Attr@@QAEXHHABVString@Util@@@Z 004027d0 f i databaseinsert.obj
 0001:00001880       ?SetGuid@AttributeTable@Attr@@QAEXHHABVWin32Guid@Win32@@@Z 00402880 f i databaseinsert.obj
 0001:00001930       ?SetURI@Database@Db@@QAEXABVURI@IO@@@Z 00402930 f i databaseinsert.obj
 0001:00001950       ?SetAccessMode@Database@Db@@QAEXW4AccessMode@12@@Z 00402950 f i databaseinsert.obj
 0001:00001970       ??2DatabaseInsert@Benchmarking@@SAPAXI@Z 00402970 f i databaseinsert.obj
 0001:00001980       ??3DatabaseInsert@Benchmarking@@SAXPAX@Z 00402980 f i databaseinsert.obj
 0001:000019a0       ?Instance@DbFactory@Db@@SAPAV12@XZ 004029a0 f i databaseinsert.obj
 0001:000019e0       ?Instance@IoServer@IO@@SAPAV12@XZ 004029e0 f i databaseinsert.obj
 0001:00001a20       ?Values@Dataset@Db@@QAEABV?$Ptr@VValueTable@Db@@@@XZ 00402a20 f i databaseinsert.obj
 0001:00001a40       ??1Rtti@Core@@QAE@XZ       00402a40 f i databaseinsert.obj
 0001:00001a90       ?GetRtti@DatabaseInsert@Benchmarking@@UBEPAVRtti@Core@@XZ 00402a90 f   databaseinsert.obj
 0001:00001aa0       ?FactoryCreator@DatabaseInsert@Benchmarking@@SAPAVRefCounted@Core@@XZ 00402aa0 f   databaseinsert.obj
 0001:00001ab0       ?Create@DatabaseInsert@Benchmarking@@SAPAV12@XZ 00402ab0 f   databaseinsert.obj
 0001:00001b10       ??0DatabaseInsert@Benchmarking@@QAE@XZ 00402b10 f i databaseinsert.obj
 0001:00001b50       ??_EDatabaseInsert@Benchmarking@@UAEPAXI@Z 00402b50 f i  CIL library: CIL module
 0001:00001b50       ??_GDatabaseInsert@Benchmarking@@UAEPAXI@Z 00402b50 f i databaseinsert.obj
 0001:00001b90       ??0Benchmark@Benchmarking@@QAE@XZ 00402b90 f i databaseinsert.obj
 0001:00001bc0       ??1Benchmark@Benchmarking@@UAE@XZ 00402bc0 f i databaseinsert.obj
 0001:00001be0       ??1DatabaseInsert@Benchmarking@@UAE@XZ 00402be0 f i databaseinsert.obj
 0001:00001c00       ??_EBenchmark@Benchmarking@@UAEPAXI@Z 00402c00 f i  CIL library: CIL module
 0001:00001c00       ??_GBenchmark@Benchmarking@@UAEPAXI@Z 00402c00 f i databaseinsert.obj
 0001:00001c30       ?RegisterWithFactory@DatabaseInsert@Benchmarking@@SA_NXZ 00402c30 f   databaseinsert.obj
 0001:00001d30       ?PopulateStringTable@DatabaseInsert@Benchmarking@@AAEXXZ 00402d30 f   databaseinsert.obj
 0001:00002160       ?Run@DatabaseInsert@Benchmarking@@UAEXAAVTimer@Timing@@@Z 00403160 f   databaseinsert.obj
 0001:00002240       ??1URI@IO@@QAE@XZ          00403240 f i databaseinsert.obj
 0001:00002440       ?CloseDatabase@DatabaseInsert@Benchmarking@@AAEXPAVDatabase@Db@@@Z 00403440 f   databaseinsert.obj
 0001:000024c0       ??0Timer@Timing@@QAE@XZ    004034c0 f i databaseinsert.obj
 0001:000024e0       ?OpenDatabase@DatabaseInsert@Benchmarking@@AAE?AV?$Ptr@VDatabase@Db@@@@ABVURI@IO@@@Z 004034e0 f   databaseinsert.obj
 0001:000026e0       ?CreateTable@DatabaseInsert@Benchmarking@@AAE?AV?$Ptr@VTable@Db@@@@PAVDatabase@Db@@@Z 004036e0 f   databaseinsert.obj
 0001:00004560       ?GetRandomInt@DatabaseInsert@Benchmarking@@ABEHXZ 00405560 f   databaseinsert.obj
 0001:00004580       ?GetRandomFloat@DatabaseInsert@Benchmarking@@ABEMXZ 00405580 f   databaseinsert.obj
 0001:000045a0       ?GetRandomString@DatabaseInsert@Benchmarking@@ABEABVString@Util@@XZ 004055a0 f   databaseinsert.obj
 0001:000045e0       ?WriteRandomValue@DatabaseInsert@Benchmarking@@AAEXPAVValueTable@Db@@HH@Z 004055e0 f   databaseinsert.obj
 0001:000046e0       ?PopulateDatabase@DatabaseInsert@Benchmarking@@AAEXPAVDatabase@Db@@PAVTable@4@@Z 004056e0 f   databaseinsert.obj
 0001:00004ab0       ??A?$Array@UColumnInfo@AttributeTable@Attr@@@Util@@QBEAAUColumnInfo@AttributeTable@Attr@@H@Z 00405ab0 f i databaseinsert.obj
 0001:00004b00       ?Size@?$Array@UColumnInfo@AttributeTable@Attr@@@Util@@QBEHXZ 00405b00 f i databaseinsert.obj
 0001:00004b20       ??0?$Ptr@VDatabase@Db@@@@QAE@ABV0@@Z 00405b20 f i databaseinsert.obj
 0001:00004b60       ??1?$Ptr@VDatabase@Db@@@@QAE@XZ 00405b60 f i databaseinsert.obj
 0001:00004b90       ??C?$Ptr@VDatabase@Db@@@@QBEPAVDatabase@Db@@XZ 00405b90 f i databaseinsert.obj
 0001:00004bd0       ??B?$Ptr@VDatabase@Db@@@@QBEPAVDatabase@Db@@XZ 00405bd0 f i databaseinsert.obj
 0001:00004c10       ??B?$Ptr@VValueTable@Db@@@@QBEPAVValueTable@Db@@XZ 00405c10 f i databaseinsert.obj
 0001:00004c50       ??0?$FixedArray@VString@Util@@@Util@@QAE@XZ 00405c50 f i databaseinsert.obj
 0001:00004c80       ??1?$FixedArray@VString@Util@@@Util@@QAE@XZ 00405c80 f i databaseinsert.obj
 0001:00004ca0       ??A?$FixedArray@VString@Util@@@Util@@QBEAAVString@1@H@Z 00405ca0 f i databaseinsert.obj
 0001:00004cf0       ?SetSize@?$FixedArray@VString@Util@@@Util@@QAEXH@Z 00405cf0 f i databaseinsert.obj
 0001:00004d20       ?Size@?$FixedArray@VString@Util@@@Util@@QBEHXZ 00405d20 f i databaseinsert.obj
 0001:00004d30       ??0?$Ptr@VTable@Db@@@@QAE@ABV0@@Z 00405d30 f i databaseinsert.obj
 0001:00004d70       ??1?$Ptr@VTable@Db@@@@QAE@XZ 00405d70 f i databaseinsert.obj
 0001:00004da0       ??C?$Ptr@VTable@Db@@@@QBEPAVTable@Db@@XZ 00405da0 f i databaseinsert.obj
 0001:00004de0       ??B?$Ptr@VTable@Db@@@@QBEPAVTable@Db@@XZ 00405de0 f i databaseinsert.obj
 0001:00004e20       ??0?$Ptr@VDbFactory@Db@@@@QAE@PAVDbFactory@Db@@@Z 00405e20 f i databaseinsert.obj
 0001:00004e60       ??1?$Ptr@VDbFactory@Db@@@@QAE@XZ 00405e60 f i databaseinsert.obj
 0001:00004e90       ??0?$Array@VAttrId@Attr@@@Util@@QAE@XZ 00405e90 f i databaseinsert.obj
 0001:00004ed0       ??1?$Array@VAttrId@Attr@@@Util@@QAE@XZ 00405ed0 f i databaseinsert.obj
 0001:00004ef0       ?Append@?$Array@VAttrId@Attr@@@Util@@QAEXABVAttrId@Attr@@@Z 00405ef0 f i databaseinsert.obj
 0001:00004f60       ??1?$Ptr@VDataset@Db@@@@QAE@XZ 00405f60 f i databaseinsert.obj
 0001:00004f90       ??C?$Ptr@VDataset@Db@@@@QBEPAVDataset@Db@@XZ 00405f90 f i databaseinsert.obj
 0001:00004fd0       ??_EString@Util@@QAEPAXI@Z 00405fd0 f i databaseinsert.obj
 0001:000050e0       ??_H@YGXPAXIHP6EPAX0@Z@Z   004060e0 f i databaseinsert.obj
 0001:00005110       ??_I@YGXPAXIHP6EX0@Z@Z     00406110 f i databaseinsert.obj
 0001:00005140       ?Delete@?$FixedArray@VString@Util@@@Util@@AAEXXZ 00406140 f i databaseinsert.obj
 0001:000051a0       ?Alloc@?$FixedArray@VString@Util@@@Util@@AAEXH@Z 004061a0 f i databaseinsert.obj
 0001:00005290       ?Delete@?$Array@VAttrId@Attr@@@Util@@AAEXXZ 00406290 f i databaseinsert.obj
 0001:000052f0       ?Grow@?$Array@VAttrId@Attr@@@Util@@AAEXXZ 004062f0 f i databaseinsert.obj
 0001:00005370       ??_EBlob@Util@@QAEPAXI@Z   00406370 f i databaseinsert.obj
 0001:00005410       ?GrowTo@?$Array@VAttrId@Attr@@@Util@@AAEXH@Z 00406410 f i databaseinsert.obj
 0001:00005500       ?__HeapAlignPointerAndWritePadding16@Memory@@YAPAEPAE@Z 00406500 f i databasequery.obj
 0001:00005530       ?__HeapAlloc16@Memory@@YAPAXPAXKK@Z 00406530 f i databasequery.obj
 0001:00005580       ?Copy@Memory@@YAXPBXPAXI@Z 00406580 f i databasequery.obj
 0001:000055f0       ?Alloc@Win360Heap@Win360@@QAEPAXI@Z 004065f0 f i databasequery.obj
 0001:00005650       ??0float4@Math@@QAE@XZ     00406650 f i databasequery.obj
 0001:00005660       ??4float4@Math@@QAEXABV01@@Z 00406660 f i databasequery.obj
 0001:00005680       ??0matrix44@Math@@QAE@XZ   00406680 f i databasequery.obj
 0001:00005720       ??4matrix44@Math@@QAEXABV01@@Z 00406720 f i databasequery.obj
 0001:00005770       ??2String@Util@@SAPAXI@Z   00406770 f i databasequery.obj
 0001:00005790       ??0String@Util@@QAE@ABV01@@Z 00406790 f i databasequery.obj
 0001:000057f0       ??2Win32Guid@Win32@@SAPAXI@Z 004067f0 f i databasequery.obj
 0001:00005810       ??3Win32Guid@Win32@@SAXPAX@Z 00406810 f i databasequery.obj
 0001:00005830       ??0Win32Guid@Win32@@QAE@ABV01@@Z 00406830 f i databasequery.obj
 0001:00005860       ??2Blob@Util@@SAPAXI@Z     00406860 f i databasequery.obj
 0001:00005880       ??0Blob@Util@@QAE@XZ       00406880 f i databasequery.obj
 0001:000058b0       ?Allocate@Blob@Util@@AAEXH@Z 004068b0 f i databasequery.obj
 0001:00005980       ?Copy@Blob@Util@@AAEXPBXH@Z 00406980 f i databasequery.obj
 0001:00005a60       ??0Blob@Util@@QAE@ABV01@@Z 00406a60 f i databasequery.obj
 0001:00005ac0       ??4Blob@Util@@QAEXABV01@@Z 00406ac0 f i databasequery.obj
 0001:00005b00       ?Delete@Variant@Util@@AAEXXZ 00406b00 f i databasequery.obj
 0001:000060c0       ??_GString@Util@@QAEPAXI@Z 004070c0 f i databasequery.obj
 0001:00006130       ??_GBlob@Util@@QAEPAXI@Z   00407130 f i databasequery.obj
 0001:00006160       ??_G?$Array@H@Util@@QAEPAXI@Z 00407160 f i databasequery.obj
 0001:00006190       ??_G?$Array@M@Util@@QAEPAXI@Z 00407190 f i databasequery.obj
 0001:000061c0       ??_G?$Array@_N@Util@@QAEPAXI@Z 004071c0 f i databasequery.obj
 0001:000061f0       ??_G?$Array@Vfloat4@Math@@@Util@@QAEPAXI@Z 004071f0 f i databasequery.obj
 0001:00006220       ??_G?$Array@Vmatrix44@Math@@@Util@@QAEPAXI@Z 00407220 f i databasequery.obj
 0001:00006250       ??_G?$Array@VString@Util@@@Util@@QAEPAXI@Z 00407250 f i databasequery.obj
 0001:00006280       ??_G?$Array@VWin32Guid@Win32@@@Util@@QAEPAXI@Z 00407280 f i databasequery.obj
 0001:000062b0       ??_G?$Array@VBlob@Util@@@Util@@QAEPAXI@Z 004072b0 f i databasequery.obj
 0001:000062e0       ?Copy@Variant@Util@@AAEXABV12@@Z 004072e0 f i databasequery.obj
 0001:000067c0       ??0Variant@Util@@QAE@ABV01@@Z 004077c0 f i databasequery.obj
 0001:000067f0       ??0Variant@Util@@QAE@ABVString@1@@Z 004077f0 f i databasequery.obj
 0001:00006890       ??1Variant@Util@@QAE@XZ    00407890 f i databasequery.obj
 0001:000068b0       ??0AttrId@Attr@@QAE@ABV01@@Z 004078b0 f i databasequery.obj
 0001:000068d0       ??0AttrId@Attr@@QAE@PBVAttributeDefinitionBase@1@@Z 004078d0 f i databasequery.obj
 0001:000068f0       ??0StringAttrId@Attr@@QAE@ABV?$AttributeDefinition@VStringTypeClass@Attr@@ABVString@Util@@@1@@Z 004078f0 f i databasequery.obj
 0001:00006910       ??1?$KeyValuePair@VAttrId@Attr@@VVariant@Util@@@Util@@QAE@XZ 00407910 f i databasequery.obj
 0001:00006930       ??0Attribute@Attr@@QAE@ABVStringAttrId@1@ABVString@Util@@@Z 00407930 f i databasequery.obj
 0001:00006970       ??2DatabaseQuery@Benchmarking@@SAPAXI@Z 00407970 f i databasequery.obj
 0001:00006980       ??3DatabaseQuery@Benchmarking@@SAXPAX@Z 00407980 f i databasequery.obj
 0001:000069a0       ??1Attribute@Attr@@QAE@XZ  004079a0 f i databasequery.obj
 0001:000069c0       ?Filter@Dataset@Db@@QAEABV?$Ptr@VFilterSet@Db@@@@XZ 004079c0 f i databasequery.obj
 0001:000069e0       ?GetRtti@DatabaseQuery@Benchmarking@@UBEPAVRtti@Core@@XZ 004079e0 f   databasequery.obj
 0001:000069f0       ?FactoryCreator@DatabaseQuery@Benchmarking@@SAPAVRefCounted@Core@@XZ 004079f0 f   databasequery.obj
 0001:00006a00       ?Create@DatabaseQuery@Benchmarking@@SAPAV12@XZ 00407a00 f   databasequery.obj
 0001:00006a60       ??0DatabaseQuery@Benchmarking@@QAE@XZ 00407a60 f i databasequery.obj
 0001:00006aa0       ??_EDatabaseQuery@Benchmarking@@UAEPAXI@Z 00407aa0 f i  CIL library: CIL module
 0001:00006aa0       ??_GDatabaseQuery@Benchmarking@@UAEPAXI@Z 00407aa0 f i databasequery.obj
 0001:00006ad0       ??1DatabaseQuery@Benchmarking@@UAE@XZ 00407ad0 f i databasequery.obj
 0001:00006af0       ?RegisterWithFactory@DatabaseQuery@Benchmarking@@SA_NXZ 00407af0 f   databasequery.obj
 0001:00006bf0       ?Run@DatabaseQuery@Benchmarking@@UAEXAAVTimer@Timing@@@Z 00407bf0 f   databasequery.obj
 0001:00006d50       ?RunIndexedQuery@DatabaseQuery@Benchmarking@@AAEXPAVDatabase@Db@@@Z 00407d50 f   databasequery.obj
 0001:00006f70       ?RunNonIndexedQuery@DatabaseQuery@Benchmarking@@AAEXPAVDatabase@Db@@@Z 00407f70 f   databasequery.obj
 0001:00007190       ??0?$Array@VString@Util@@@Util@@QAE@ABV01@@Z 00408190 f i databasequery.obj
 0001:000071e0       ??1?$Array@VString@Util@@@Util@@QAE@XZ 004081e0 f i databasequery.obj
 0001:00007200       ??0?$Array@H@Util@@QAE@ABV01@@Z 00408200 f i databasequery.obj
 0001:00007250       ??1?$Array@H@Util@@QAE@XZ  00408250 f i databasequery.obj
 0001:00007270       ??0?$Array@M@Util@@QAE@ABV01@@Z 00408270 f i databasequery.obj
 0001:000072c0       ??1?$Array@M@Util@@QAE@XZ  004082c0 f i databasequery.obj
 0001:000072e0       ??0?$Array@_N@Util@@QAE@ABV01@@Z 004082e0 f i databasequery.obj
 0001:00007330       ??1?$Array@_N@Util@@QAE@XZ 00408330 f i databasequery.obj
 0001:00007350       ??0?$Array@Vfloat4@Math@@@Util@@QAE@ABV01@@Z 00408350 f i databasequery.obj
 0001:000073a0       ??1?$Array@Vfloat4@Math@@@Util@@QAE@XZ 004083a0 f i databasequery.obj
 0001:000073c0       ??0?$Array@Vmatrix44@Math@@@Util@@QAE@ABV01@@Z 004083c0 f i databasequery.obj
 0001:00007410       ??1?$Array@Vmatrix44@Math@@@Util@@QAE@XZ 00408410 f i databasequery.obj
 0001:00007430       ??0?$Array@VWin32Guid@Win32@@@Util@@QAE@ABV01@@Z 00408430 f i databasequery.obj
 0001:00007480       ??1?$Array@VWin32Guid@Win32@@@Util@@QAE@XZ 00408480 f i databasequery.obj
 0001:000074a0       ??0?$Array@VBlob@Util@@@Util@@QAE@ABV01@@Z 004084a0 f i databasequery.obj
 0001:000074f0       ??1?$Array@VBlob@Util@@@Util@@QAE@XZ 004084f0 f i databasequery.obj
 0001:00007510       ??0?$KeyValuePair@VAttrId@Attr@@VVariant@Util@@@Util@@QAE@ABVAttrId@Attr@@ABVVariant@1@@Z 00408510 f i databasequery.obj
 0001:00007550       ??C?$Ptr@VValueTable@Db@@@@QBEPAVValueTable@Db@@XZ 00408550 f i databasequery.obj
 0001:00007590       ??0?$Ptr@VFilterSet@Db@@@@QAE@ABV0@@Z 00408590 f i databasequery.obj
 0001:000075d0       ??1?$Ptr@VFilterSet@Db@@@@QAE@XZ 004085d0 f i databasequery.obj
 0001:00007600       ??C?$Ptr@VFilterSet@Db@@@@QBEPAVFilterSet@Db@@XZ 00408600 f i databasequery.obj
 0001:00007640       ??C?$Ptr@VDbFactory@Db@@@@QBEPAVDbFactory@Db@@XZ 00408640 f i databasequery.obj
 0001:00007680       ?Copy@?$Array@VString@Util@@@Util@@AAEXABV12@@Z 00408680 f i databasequery.obj
 0001:00007800       ?Delete@?$Array@VString@Util@@@Util@@AAEXXZ 00408800 f i databasequery.obj
 0001:00007870       ?Copy@?$Array@H@Util@@AAEXABV12@@Z 00408870 f i databasequery.obj
 0001:00007940       ?Delete@?$Array@H@Util@@AAEXXZ 00408940 f i databasequery.obj
 0001:000079a0       ?Copy@?$Array@M@Util@@AAEXABV12@@Z 004089a0 f i databasequery.obj
 0001:00007a70       ?Delete@?$Array@M@Util@@AAEXXZ 00408a70 f i databasequery.obj
 0001:00007ad0       ?Copy@?$Array@_N@Util@@AAEXABV12@@Z 00408ad0 f i databasequery.obj
 0001:00007b90       ?Delete@?$Array@_N@Util@@AAEXXZ 00408b90 f i databasequery.obj
 0001:00007bf0       ?Copy@?$Array@Vfloat4@Math@@@Util@@AAEXABV12@@Z 00408bf0 f i databasequery.obj
 0001:00007d30       ?Delete@?$Array@Vfloat4@Math@@@Util@@AAEXXZ 00408d30 f i databasequery.obj
 0001:00007d90       ?Copy@?$Array@Vmatrix44@Math@@@Util@@AAEXABV12@@Z 00408d90 f i databasequery.obj
 0001:00007fe0       ?Delete@?$Array@Vmatrix44@Math@@@Util@@AAEXXZ 00408fe0 f i databasequery.obj
 0001:00008040       ?Copy@?$Array@VWin32Guid@Win32@@@Util@@AAEXABV12@@Z 00409040 f i databasequery.obj
 0001:00008160       ?Delete@?$Array@VWin32Guid@Win32@@@Util@@AAEXXZ 00409160 f i databasequery.obj
 0001:000081c0       ?Copy@?$Array@VBlob@Util@@@Util@@AAEXABV12@@Z 004091c0 f i databasequery.obj
 0001:00008330       ?Delete@?$Array@VBlob@Util@@@Util@@AAEXXZ 00409330 f i databasequery.obj
 0001:000083a0       ??4_XMMATRIX@@QAEAAU0@ABU0@@Z 004093a0 f i databasequery.obj
 0001:00008400       ??0_XMMATRIX@@QAE@XZ       00409400 f i databasequery.obj
 0001:00008410       ?XMMatrixIdentity@@YA?AU_XMMATRIX@@XZ 00409410 f i databasequery.obj
 0001:000084a0       ??BXMVECTORF32@@QBE?AT__m128@@XZ 004094a0 f i databasequery.obj
 0001:000084d0       ??1?$AttributeDefinition@VGuidTypeClass@Attr@@ABVWin32Guid@Win32@@@Attr@@QAE@XZ 004094d0 f i dbattrs.obj
 0001:000084f0       ??1?$AttributeDefinition@VStringTypeClass@Attr@@ABVString@Util@@@Attr@@QAE@XZ 004094f0 f i dbattrs.obj
 0001:00008510       ??1?$AttributeDefinition@VBoolTypeClass@Attr@@_N@Attr@@QAE@XZ 00409510 f i dbattrs.obj
 0001:00008530       ??1?$AttributeDefinition@VFloatTypeClass@Attr@@M@Attr@@QAE@XZ 00409530 f i dbattrs.obj
 0001:00008550       ??1?$AttributeDefinition@VIntTypeClass@Attr@@H@Attr@@QAE@XZ 00409550 f i dbattrs.obj
 0001:00008570       ??0?$AttributeDefinition@VBoolTypeClass@Attr@@_N@Attr@@QAE@ABVString@Util@@ABVFourCC@3@W4AccessMode@1@_N@Z 00409570 f i dbattrs.obj
 0001:000085a0       ??0?$AttributeDefinition@VFloatTypeClass@Attr@@M@Attr@@QAE@ABVString@Util@@ABVFourCC@3@W4AccessMode@1@M@Z 004095a0 f i dbattrs.obj
 0001:000085d0       ??0?$AttributeDefinition@VIntTypeClass@Attr@@H@Attr@@QAE@ABVString@Util@@ABVFourCC@3@W4AccessMode@1@H@Z 004095d0 f i dbattrs.obj
 0001:00008600       ??0?$AttributeDefinition@VStringTypeClass@Attr@@ABVString@Util@@@Attr@@QAE@ABVString@Util@@ABVFourCC@3@W4AccessMode@1@0@Z 00409600 f i dbattrs.obj
 0001:00008630       ??0?$AttributeDefinition@VGuidTypeClass@Attr@@ABVWin32Guid@Win32@@@Attr@@QAE@ABVString@Util@@ABVFourCC@3@W4AccessMode@1@ABVWin32Guid@Win32@@@Z 00409630 f i dbattrs.obj
 0001:00008660       ??0StringAtom@Util@@QAE@PBD@Z 00409660 f i main.obj
 0001:00008690       ??4StringAtom@Util@@QAEXABV01@@Z 00409690 f i main.obj
 0001:000086b0       ?SetAppName@CoreServer@Core@@QAEXABVStringAtom@Util@@@Z 004096b0 f i main.obj
 0001:000086d0       _main                      004096d0 f   main.obj
 0001:000087d0       ??0?$Ptr@VCoreServer@Core@@@@QAE@PAVCoreServer@Core@@@Z 004097d0 f i main.obj
 0001:00008810       ??1?$Ptr@VCoreServer@Core@@@@QAE@XZ 00409810 f i main.obj
 0001:00008840       ??4?$Ptr@VCoreServer@Core@@@@QAEXPAVCoreServer@Core@@@Z 00409840 f i main.obj
 0001:000088a0       ??C?$Ptr@VCoreServer@Core@@@@QBEPAVCoreServer@Core@@XZ 004098a0 f i main.obj
 0001:000088e0       ??0?$Ptr@VIoServer@IO@@@@QAE@PAVIoServer@IO@@@Z 004098e0 f i main.obj
 0001:00008920       ??1?$Ptr@VIoServer@IO@@@@QAE@XZ 00409920 f i main.obj
 0001:00008950       ??4?$Ptr@VIoServer@IO@@@@QAEXPAVIoServer@IO@@@Z 00409950 f i main.obj
 0001:000089b0       ??0?$Ptr@VBenchmarkRunner@Benchmarking@@@@QAE@PAVBenchmarkRunner@Benchmarking@@@Z 004099b0 f i main.obj
 0001:000089f0       ??1?$Ptr@VBenchmarkRunner@Benchmarking@@@@QAE@XZ 004099f0 f i main.obj
 0001:00008a20       ??4?$Ptr@VBenchmarkRunner@Benchmarking@@@@QAEXPAVBenchmarkRunner@Benchmarking@@@Z 00409a20 f i main.obj
 0001:00008a80       ??C?$Ptr@VBenchmarkRunner@Benchmarking@@@@QBEPAVBenchmarkRunner@Benchmarking@@XZ 00409a80 f i main.obj
 0001:00008ac0       ??_E?$Ptr@VConsoleHandler@IO@@@@QAEPAXI@Z 00409ac0 f i main.obj
 0001:00008b60       ??1?$Ptr@VConsoleHandler@IO@@@@QAE@XZ 00409b60 f i main.obj
 0001:00008b90       ??2Benchmark@Benchmarking@@SAPAXI@Z 00409b90 f i benchmarkbase_win32.release:benchmark.obj
 0001:00008ba0       ?GetRtti@Benchmark@Benchmarking@@UBEPAVRtti@Core@@XZ 00409ba0 f   benchmarkbase_win32.release:benchmark.obj
 0001:00008bb0       ?FactoryCreator@Benchmark@Benchmarking@@SAPAVRefCounted@Core@@XZ 00409bb0 f   benchmarkbase_win32.release:benchmark.obj
 0001:00008bc0       ?Create@Benchmark@Benchmarking@@SAPAV12@XZ 00409bc0 f   benchmarkbase_win32.release:benchmark.obj
 0001:00008c10       ?RegisterWithFactory@Benchmark@Benchmarking@@SA_NXZ 00409c10 f   benchmarkbase_win32.release:benchmark.obj
 0001:00008d10       ?Run@Benchmark@Benchmarking@@UAEXAAVTimer@Timing@@@Z 00409d10 f   benchmarkbase_win32.release:benchmark.obj
 0001:00008d30       ?GetName@Rtti@Core@@QBEABVString@Util@@XZ 00409d30 f i benchmarkbase_win32.release:benchmarkrunner.obj
 0001:00008d40       ?GetClassNameA@RefCounted@Core@@QBEABVString@Util@@XZ 00409d40 f i benchmarkbase_win32.release:benchmarkrunner.obj
 0001:00008d60       ??2BenchmarkRunner@Benchmarking@@SAPAXI@Z 00409d60 f i benchmarkbase_win32.release:benchmarkrunner.obj
 0001:00008d70       ??3BenchmarkRunner@Benchmarking@@SAXPAX@Z 00409d70 f i benchmarkbase_win32.release:benchmarkrunner.obj
 0001:00008d90       ?GetRtti@BenchmarkRunner@Benchmarking@@UBEPAVRtti@Core@@XZ 00409d90 f   benchmarkbase_win32.release:benchmarkrunner.obj
 0001:00008da0       ?FactoryCreator@BenchmarkRunner@Benchmarking@@SAPAVRefCounted@Core@@XZ 00409da0 f   benchmarkbase_win32.release:benchmarkrunner.obj
 0001:00008db0       ?Create@BenchmarkRunner@Benchmarking@@SAPAV12@XZ 00409db0 f   benchmarkbase_win32.release:benchmarkrunner.obj
 0001:00008e10       ??0BenchmarkRunner@Benchmarking@@QAE@XZ 00409e10 f i benchmarkbase_win32.release:benchmarkrunner.obj
 0001:00008e50       ??_GBenchmarkRunner@Benchmarking@@UAEPAXI@Z 00409e50 f i benchmarkbase_win32.release:benchmarkrunner.obj
 0001:00008e50       ??_EBenchmarkRunner@Benchmarking@@UAEPAXI@Z 00409e50 f i  CIL library: CIL module
 0001:00008e90       ??1BenchmarkRunner@Benchmarking@@UAE@XZ 00409e90 f i benchmarkbase_win32.release:benchmarkrunner.obj
 0001:00008eb0       ?RegisterWithFactory@BenchmarkRunner@Benchmarking@@SA_NXZ 00409eb0 f   benchmarkbase_win32.release:benchmarkrunner.obj
 0001:00008fb0       ?AttachBenchmark@BenchmarkRunner@Benchmarking@@QAEXPAVBenchmark@2@@Z 00409fb0 f   benchmarkbase_win32.release:benchmarkrunner.obj
 0001:00009000       ?Run@BenchmarkRunner@Benchmarking@@QAEXXZ 0040a000 f   benchmarkbase_win32.release:benchmarkrunner.obj
 0001:000091c0       ??A?$Array@VString@Util@@@Util@@QBEAAVString@1@H@Z 0040a1c0 f i benchmarkbase_win32.release:benchmarkrunner.obj
 0001:00009210       ?Size@?$Array@VString@Util@@@Util@@QBEHXZ 0040a210 f i benchmarkbase_win32.release:benchmarkrunner.obj
 0001:00009230       ??0?$Array@V?$Ptr@VBenchmark@Benchmarking@@@@@Util@@QAE@XZ 0040a230 f i benchmarkbase_win32.release:benchmarkrunner.obj
 0001:00009270       ??1?$Array@V?$Ptr@VBenchmark@Benchmarking@@@@@Util@@QAE@XZ 0040a270 f i benchmarkbase_win32.release:benchmarkrunner.obj
 0001:00009290       ??A?$Array@V?$Ptr@VBenchmark@Benchmarking@@@@@Util@@QBEAAV?$Ptr@VBenchmark@Benchmarking@@@@H@Z 0040a290 f i benchmarkbase_win32.release:benchmarkrunner.obj
 0001:000092e0       ?Append@?$Array@V?$Ptr@VBenchmark@Benchmarking@@@@@Util@@QAEXABV?$Ptr@VBenchmark@Benchmarking@@@@@Z 0040a2e0 f i benchmarkbase_win32.release:benchmarkrunner.obj
 0001:00009360       ?Size@?$Array@V?$Ptr@VBenchmark@Benchmarking@@@@@Util@@QBEHXZ 0040a360 f i benchmarkbase_win32.release:benchmarkrunner.obj
 0001:00009380       ??0?$Ptr@VBenchmark@Benchmarking@@@@QAE@PAVBenchmark@Benchmarking@@@Z 0040a380 f i benchmarkbase_win32.release:benchmarkrunner.obj
 0001:000093c0       ??1?$Ptr@VBenchmark@Benchmarking@@@@QAE@XZ 0040a3c0 f i benchmarkbase_win32.release:benchmarkrunner.obj
 0001:000093f0       ??B?$Ptr@VBenchmark@Benchmarking@@@@QBEPAVBenchmark@Benchmarking@@XZ 0040a3f0 f i benchmarkbase_win32.release:benchmarkrunner.obj
 0001:00009430       ?Delete@?$Array@V?$Ptr@VBenchmark@Benchmarking@@@@@Util@@AAEXXZ 0040a430 f i benchmarkbase_win32.release:benchmarkrunner.obj
 0001:000094a0       ?Grow@?$Array@V?$Ptr@VBenchmark@Benchmarking@@@@@Util@@AAEXXZ 0040a4a0 f i benchmarkbase_win32.release:benchmarkrunner.obj
 0001:00009520       ??4?$Ptr@VBenchmark@Benchmarking@@@@QAEXABV0@@Z 0040a520 f i benchmarkbase_win32.release:benchmarkrunner.obj
 0001:00009580       ??_E?$Ptr@VBenchmark@Benchmarking@@@@QAEPAXI@Z 0040a580 f i benchmarkbase_win32.release:benchmarkrunner.obj
 0001:00009620       ?GrowTo@?$Array@V?$Ptr@VBenchmark@Benchmarking@@@@@Util@@AAEXH@Z 0040a620 f i benchmarkbase_win32.release:benchmarkrunner.obj
 0001:00009740       ??0?$Ptr@VBenchmark@Benchmarking@@@@QAE@XZ 0040a740 f i benchmarkbase_win32.release:benchmarkrunner.obj
 0001:00009760       ?Instance@Console@IO@@SAPAV12@XZ 0040a760 f i foundation_win32.release:debug.obj
 0001:00009790       ?HasInstance@Console@IO@@SA_NXZ 0040a790 f i foundation_win32.release:debug.obj
 0001:000097b0       ?n_barf@@YAXPBD0H@Z        0040a7b0 f   foundation_win32.release:debug.obj
 0001:00009850       ?n_barf2@@YAXPBD00H@Z      0040a850 f   foundation_win32.release:debug.obj
 0001:000098f0       ?n_error@@YAXPBDZZ         0040a8f0 f   foundation_win32.release:debug.obj
 0001:000099b0       ?n_warning@@YAXPBDZZ       0040a9b0 f   foundation_win32.release:debug.obj
 0001:00009a70       ?n_confirm@@YAXPBDZZ       0040aa70 f   foundation_win32.release:debug.obj
 0001:00009b30       ?n_printf@@YAXPBDZZ        0040ab30 f   foundation_win32.release:debug.obj
 0001:00009b80       ?n_dbgout@@YAXPBDZZ        0040ab80 f   foundation_win32.release:debug.obj
 0001:00009bd0       ?n_sleep@@YAXN@Z           0040abd0 f   foundation_win32.release:debug.obj
 0001:00009bf0       ?__HeapReAlloc16@Memory@@YAPAXPAXK0K@Z 0040abf0 f i foundation_win32.release:win360memory.obj
 0001:00009d10       ?Alloc@Memory@@YAPAXW4HeapType@1@I@Z 0040ad10 f   foundation_win32.release:win360memory.obj
 0001:00009e00       ?Realloc@Memory@@YAPAXW4HeapType@1@PAXI@Z 0040ae00 f   foundation_win32.release:win360memory.obj
 0001:00009fb0       ?Free@Memory@@YAXW4HeapType@1@PAX@Z 0040afb0 f   foundation_win32.release:win360memory.obj
 0001:0000a040       ?DuplicateCString@Memory@@YAPADPBD@Z 0040b040 f   foundation_win32.release:win360memory.obj
 0001:0000a120       ?IsOverlapping@Memory@@YA_NPBEI0I@Z 0040b120 f   foundation_win32.release:win360memory.obj
 0001:0000a160       ?GetTotalMemoryStatus@Memory@@YA?AUTotalMemoryStatus@1@XZ 0040b160 f   foundation_win32.release:win360memory.obj
 0001:0000a1d0       ?DumpTotalMemoryStatus@Memory@@YAXXZ 0040b1d0 f   foundation_win32.release:win360memory.obj
 0001:0000a1f0       ??0float4@Math@@QAE@MMMM@Z 0040b1f0 f i foundation_win32.release:string.obj
 0001:0000a240       ??0matrix44@Math@@QAE@ABVfloat4@1@000@Z 0040b240 f i foundation_win32.release:string.obj
 0001:0000a290       ?Alloc@String@Util@@AAEXH@Z 0040b290 f i foundation_win32.release:string.obj
 0001:0000a330       ?Realloc@String@Util@@AAEXH@Z 0040b330 f i foundation_win32.release:string.obj
 0001:0000a480       ?Reserve@String@Util@@QAEXH@Z 0040b480 f i foundation_win32.release:string.obj
 0001:0000a4b0       ?Append@String@Util@@QAEXABV12@@Z 0040b4b0 f i foundation_win32.release:string.obj
 0001:0000a4f0       ??AString@Util@@QBEDH@Z    0040b4f0 f i foundation_win32.release:string.obj
 0001:0000a550       ??AString@Util@@QAEAADH@Z  0040b550 f i foundation_win32.release:string.obj
 0001:0000a5b0       ?Length@String@Util@@QBEHXZ 0040b5b0 f i foundation_win32.release:string.obj
 0001:0000a5d0       ?IsValid@String@Util@@QBE_NXZ 0040b5d0 f i foundation_win32.release:string.obj
 0001:0000a690       ?CopyToBuffer@String@Util@@QBE_NPADH@Z 0040b690 f   foundation_win32.release:string.obj
 0001:0000a740       ?Format@String@Util@@QAAXPBDZZ 0040b740 f   foundation_win32.release:string.obj
 0001:0000a7d0       ?FormatArgList@String@Util@@QAAXPBDPAD@Z 0040b7d0 f   foundation_win32.release:string.obj
 0001:0000a840       ?Set@String@Util@@QAEXPBDH@Z 0040b840 f   foundation_win32.release:string.obj
 0001:0000aab0       ?AppendRange@String@Util@@QAEXPBDH@Z 0040bab0 f   foundation_win32.release:string.obj
 0001:0000acd0       ?Tokenize@String@Util@@QBEHABV12@AAV?$Array@VString@Util@@@2@@Z 0040bcd0 f   foundation_win32.release:string.obj
 0001:0000ae00       ?Tokenize@String@Util@@QBE?AV?$Array@VString@Util@@@2@ABV12@@Z 0040be00 f   foundation_win32.release:string.obj
 0001:0000ae40       ?Tokenize@String@Util@@QBEHABV12@DAAV?$Array@VString@Util@@@2@@Z 0040be40 f   foundation_win32.release:string.obj
 0001:0000b190       ?Tokenize@String@Util@@QBE?AV?$Array@VString@Util@@@2@ABV12@D@Z 0040c190 f   foundation_win32.release:string.obj
 0001:0000b1e0       ?ExtractRange@String@Util@@QBE?AV12@HH@Z 0040c1e0 f   foundation_win32.release:string.obj
 0001:0000b2a0       ?ExtractToEnd@String@Util@@QBE?AV12@H@Z 0040c2a0 f   foundation_win32.release:string.obj
 0001:0000b2d0       ?Strip@String@Util@@QAEXABV12@@Z 0040c2d0 f   foundation_win32.release:string.obj
 0001:0000b390       ?FindStringIndex@String@Util@@QBEHABV12@H@Z 0040c390 f   foundation_win32.release:string.obj
 0001:0000b480       ?FindCharIndex@String@Util@@QBEHDH@Z 0040c480 f   foundation_win32.release:string.obj
 0001:0000b530       ?TrimLeft@String@Util@@QAEXABV12@@Z 0040c530 f   foundation_win32.release:string.obj
 0001:0000b710       ?TrimRight@String@Util@@QAEXABV12@@Z 0040c710 f   foundation_win32.release:string.obj
 0001:0000b8f0       ?Trim@String@Util@@QAEXABV12@@Z 0040c8f0 f   foundation_win32.release:string.obj
 0001:0000b920       ?SubstituteString@String@Util@@QAEXABV12@0@Z 0040c920 f   foundation_win32.release:string.obj
 0001:0000ba70       ?ExtractLastDirName@String@Util@@QBE?AV12@XZ 0040ca70 f   foundation_win32.release:string.obj
 0001:0000bba0       ?ExtractDirName@String@Util@@QBE?AV12@XZ 0040cba0 f   foundation_win32.release:string.obj
 0001:0000bc90       ?MatchPattern@String@Util@@SA_NABV12@0@Z 0040cc90 f   foundation_win32.release:string.obj
 0001:0000bfa0       ?ReplaceChars@String@Util@@QAEXABV12@D@Z 0040cfa0 f   foundation_win32.release:string.obj
 0001:0000c050       ?AsMatrix44@String@Util@@QBE?AVmatrix44@Math@@XZ 0040d050 f   foundation_win32.release:string.obj
 0001:0000c4a0       ?Concatenate@String@Util@@SA?AV12@ABV?$Array@VString@Util@@@2@ABV12@@Z 0040d4a0 f   foundation_win32.release:string.obj
 0001:0000c5a0       ?SetCharPtr@String@Util@@QAEXPBD@Z 0040d5a0 f   foundation_win32.release:string.obj
 0001:0000c600       ?Append@String@Util@@QAEXPBD@Z 0040d600 f   foundation_win32.release:string.obj
 0001:0000c670       ?TerminateAtIndex@String@Util@@QAEXH@Z 0040d670 f   foundation_win32.release:string.obj
 0001:0000c700       ?StripFileExtension@String@Util@@QAEXXZ 0040d700 f   foundation_win32.release:string.obj
 0001:0000c7a0       ??8Util@@YA_NABVString@0@0@Z 0040d7a0 f   foundation_win32.release:string.obj
 0001:0000c850       ??8Util@@YA_NABVString@0@PBD@Z 0040d850 f   foundation_win32.release:string.obj
 0001:0000c900       ??8Util@@YA_NPBDABVString@0@@Z 0040d900 f   foundation_win32.release:string.obj
 0001:0000c9b0       ??9Util@@YA_NABVString@0@0@Z 0040d9b0 f   foundation_win32.release:string.obj
 0001:0000ca60       ??MUtil@@YA_NABVString@0@0@Z 0040da60 f   foundation_win32.release:string.obj
 0001:0000cb10       ??OUtil@@YA_NABVString@0@0@Z 0040db10 f   foundation_win32.release:string.obj
 0001:0000cbc0       ??NUtil@@YA_NABVString@0@0@Z 0040dbc0 f   foundation_win32.release:string.obj
 0001:0000cc70       ??PUtil@@YA_NABVString@0@0@Z 0040dc70 f   foundation_win32.release:string.obj
 0001:0000cd20       ?ToLower@String@Util@@QAEXXZ 0040dd20 f   foundation_win32.release:string.obj
 0001:0000cd80       ?ToUpper@String@Util@@QAEXXZ 0040dd80 f   foundation_win32.release:string.obj
 0001:0000cde0       ?FirstCharToUpper@String@Util@@QAEXXZ 0040dde0 f   foundation_win32.release:string.obj
 0001:0000ce20       ?ContainsCharFromSet@String@Util@@QBE_NABV12@@Z 0040de20 f   foundation_win32.release:string.obj
 0001:0000ce90       ?GetFileExtension@String@Util@@QBE?AV12@XZ 0040de90 f   foundation_win32.release:string.obj
 0001:0000cf50       ?GetLastSlash@String@Util@@ABEPADXZ 0040df50 f   foundation_win32.release:string.obj
 0001:0000cfc0       ?IsValidBool@String@Util@@QBE_NXZ 0040dfc0 f   foundation_win32.release:string.obj
 0001:0000d030       ?AsInt@String@Util@@QBEHXZ 0040e030 f   foundation_win32.release:string.obj
 0001:0000d070       ?AsFloat@String@Util@@QBEMXZ 0040e070 f   foundation_win32.release:string.obj
 0001:0000d0b0       ?AsBool@String@Util@@QBE_NXZ 0040e0b0 f   foundation_win32.release:string.obj
 0001:0000d140       ?IsDigit@String@Util@@SA_ND@Z 0040e140 f   foundation_win32.release:string.obj
 0001:0000d160       ?IsAlpha@String@Util@@SA_ND@Z 0040e160 f   foundation_win32.release:string.obj
 0001:0000d180       ?IsAlNum@String@Util@@SA_ND@Z 0040e180 f   foundation_win32.release:string.obj
 0001:0000d1a0       ?IsLower@String@Util@@SA_ND@Z 0040e1a0 f   foundation_win32.release:string.obj
 0001:0000d1c0       ?IsUpper@String@Util@@SA_ND@Z 0040e1c0 f   foundation_win32.release:string.obj
 0001:0000d1e0       ?StrCmp@String@Util@@SAHPBD0@Z 0040e1e0 f   foundation_win32.release:string.obj
 0001:0000d270       ?StrLen@String@Util@@SAHPBD@Z 0040e270 f   foundation_win32.release:string.obj
 0001:0000d2d0       ?StrChr@String@Util@@SAPBDPBDH@Z 0040e2d0 f   foundation_win32.release:string.obj
 0001:0000d310       ?ParseKeyValuePairs@String@Util@@SA?AV?$Dictionary@VString@Util@@V12@@2@ABV12@@Z 0040e310 f   foundation_win32.release:string.obj
 0001:0000d410       ??1?$Dictionary@VString@Util@@V12@@Util@@QAE@XZ 0040e410 f i foundation_win32.release:string.obj
 0001:0000d430       ?ChangeFileExtension@String@Util@@QAEXABV12@@Z 0040e430 f   foundation_win32.release:string.obj
 0001:0000d510       ??0?$Array@VString@Util@@@Util@@QAE@HH@Z 0040e510 f i foundation_win32.release:string.obj
 0001:0000d620       ??0?$Array@VString@Util@@@Util@@QAE@XZ 0040e620 f i foundation_win32.release:string.obj
 0001:0000d660       ?Append@?$Array@VString@Util@@@Util@@QAEXABVString@2@@Z 0040e660 f i foundation_win32.release:string.obj
 0001:0000d700       ?Clear@?$Array@VString@Util@@@Util@@QAEXXZ 0040e700 f i foundation_win32.release:string.obj
 0001:0000d750       ??1?$Array@V?$KeyValuePair@VString@Util@@V12@@Util@@@Util@@QAE@XZ 0040e750 f i foundation_win32.release:string.obj
 0001:0000d770       ??0?$Dictionary@VString@Util@@V12@@Util@@QAE@ABV01@@Z 0040e770 f i foundation_win32.release:string.obj
 0001:0000d7c0       ??0?$Dictionary@VString@Util@@V12@@Util@@QAE@XZ 0040e7c0 f i foundation_win32.release:string.obj
 0001:0000d7e0       ?Add@?$Dictionary@VString@Util@@V12@@Util@@QAEXABVString@2@0@Z 0040e7e0 f i foundation_win32.release:string.obj
 0001:0000d830       ??1?$KeyValuePair@VString@Util@@V12@@Util@@QAE@XZ 0040e830 f i foundation_win32.release:string.obj
 0001:0000d8c0       ?Destroy@?$Array@VString@Util@@@Util@@AAEXPAVString@2@@Z 0040e8c0 f i foundation_win32.release:string.obj
 0001:0000d8e0       ?Grow@?$Array@VString@Util@@@Util@@AAEXXZ 0040e8e0 f i foundation_win32.release:string.obj
 0001:0000d960       ??0?$Array@V?$KeyValuePair@VString@Util@@V12@@Util@@@Util@@QAE@ABV01@@Z 0040e960 f i foundation_win32.release:string.obj
 0001:0000d9b0       ??0?$Array@V?$KeyValuePair@VString@Util@@V12@@Util@@@Util@@QAE@XZ 0040e9b0 f i foundation_win32.release:string.obj
 0001:0000d9f0       ?Append@?$Array@V?$KeyValuePair@VString@Util@@V12@@Util@@@Util@@QAEXABV?$KeyValuePair@VString@Util@@V12@@2@@Z 0040e9f0 f i foundation_win32.release:string.obj
 0001:0000da70       ?InsertSorted@?$Array@V?$KeyValuePair@VString@Util@@V12@@Util@@@Util@@QAEHABV?$KeyValuePair@VString@Util@@V12@@2@@Z 0040ea70 f i foundation_win32.release:string.obj
 0001:0000dce0       ?Delete@?$Array@V?$KeyValuePair@VString@Util@@V12@@Util@@@Util@@AAEXXZ 0040ece0 f i foundation_win32.release:string.obj
 0001:0000dd50       ??0?$KeyValuePair@VString@Util@@V12@@Util@@QAE@ABVString@1@0@Z 0040ed50 f i foundation_win32.release:string.obj
 0001:0000de10       ??_E?$KeyValuePair@VString@Util@@V12@@Util@@QAEPAXI@Z 0040ee10 f i foundation_win32.release:string.obj
 0001:0000deb0       ?GrowTo@?$Array@VString@Util@@@Util@@AAEXH@Z 0040eeb0 f i foundation_win32.release:string.obj
 0001:0000e020       ?Size@?$Array@V?$KeyValuePair@VString@Util@@V12@@Util@@@Util@@QBEHXZ 0040f020 f i foundation_win32.release:string.obj
 0001:0000e040       ?Insert@?$Array@V?$KeyValuePair@VString@Util@@V12@@Util@@@Util@@QAEXHABV?$KeyValuePair@VString@Util@@V12@@2@@Z 0040f040 f i foundation_win32.release:string.obj
 0001:0000e0b0       ?InsertAtEndOfIdenticalRange@?$Array@V?$KeyValuePair@VString@Util@@V12@@Util@@@Util@@QAEHHABV?$KeyValuePair@VString@Util@@V12@@2@@Z 0040f0b0 f i foundation_win32.release:string.obj
 0001:0000e130       ?Copy@?$Array@V?$KeyValuePair@VString@Util@@V12@@Util@@@Util@@AAEXABV12@@Z 0040f130 f i foundation_win32.release:string.obj
 0001:0000e260       ?Grow@?$Array@V?$KeyValuePair@VString@Util@@V12@@Util@@@Util@@AAEXXZ 0040f260 f i foundation_win32.release:string.obj
 0001:0000e2e0       ??4?$KeyValuePair@VString@Util@@V12@@Util@@QAEXABV01@@Z 0040f2e0 f i foundation_win32.release:string.obj
 0001:0000e370       ??O?$KeyValuePair@VString@Util@@V12@@Util@@QBE_NABV01@@Z 0040f370 f i foundation_win32.release:string.obj
 0001:0000e390       ??M?$KeyValuePair@VString@Util@@V12@@Util@@QBE_NABV01@@Z 0040f390 f i foundation_win32.release:string.obj
 0001:0000e3b0       ?GrowTo@?$Array@V?$KeyValuePair@VString@Util@@V12@@Util@@@Util@@AAEXH@Z 0040f3b0 f i foundation_win32.release:string.obj
 0001:0000e4d0       ?Move@?$Array@V?$KeyValuePair@VString@Util@@V12@@Util@@@Util@@AAEXHH@Z 0040f4d0 f i foundation_win32.release:string.obj
 0001:0000e660       ??0?$KeyValuePair@VString@Util@@V12@@Util@@QAE@XZ 0040f660 f i foundation_win32.release:string.obj
 0001:0000e6d0       ??9?$KeyValuePair@VString@Util@@V12@@Util@@QBE_NABV01@@Z 0040f6d0 f i foundation_win32.release:string.obj
 0001:0000e6f0       ?Destroy@?$Array@V?$KeyValuePair@VString@Util@@V12@@Util@@@Util@@AAEXPAV?$KeyValuePair@VString@Util@@V12@@2@@Z 0040f6f0 f i foundation_win32.release:string.obj
 0001:0000e720       ??_G?$KeyValuePair@VString@Util@@V12@@Util@@QAEPAXI@Z 0040f720 f i foundation_win32.release:string.obj
 0001:0000e750       ?strrchr@@YAPADPADH@Z      0040f750 f i foundation_win32.release:string.obj
 0001:0000e770       ?strpbrk@@YAPADPADPBD@Z    0040f770 f i foundation_win32.release:string.obj
 0001:0000e790       ?strchr@@YAPADPADH@Z       0040f790 f i foundation_win32.release:string.obj
 0001:0000e860       ?StringCchVPrintfA@@YGJPADIPBD0@Z 0040f860 f i foundation_win32.release:string.obj
 0001:0000ea80       ?StringCchCopyA@@YGJPADIPBD@Z 0040fa80 f i foundation_win32.release:string.obj
 0001:0000ead0       ?XMVectorSet@@YA?AT__m128@@MMMM@Z 0040fad0 f i foundation_win32.release:string.obj
 0001:0000eb10       ??0FourCC@Util@@QAE@XZ     0040fb10 f i foundation_win32.release:rtti.obj
 0001:0000eb30       ??8FourCC@Util@@QBE_NABV01@@Z 0040fb30 f i foundation_win32.release:rtti.obj
 0001:0000eb50       ?IsValid@FourCC@Util@@QBE_NXZ 0040fb50 f i foundation_win32.release:rtti.obj
 0001:0000eb70       ?GetParent@Rtti@Core@@QBEPBV12@XZ 0040fb70 f i foundation_win32.release:rtti.obj
 0001:0000eb90       ?Construct@Rtti@Core@@AAEXPBDVFourCC@Util@@P6APAVRefCounted@2@XZPBV12@H@Z 0040fb90 f   foundation_win32.release:rtti.obj
 0001:0000ec80       ??0Rtti@Core@@QAE@PBDVFourCC@Util@@P6APAVRefCounted@1@XZPBV01@H@Z 0040fc80 f   foundation_win32.release:rtti.obj
 0001:0000ecf0       ??0Rtti@Core@@QAE@PBDP6APAVRefCounted@1@XZPBV01@H@Z 0040fcf0 f   foundation_win32.release:rtti.obj
 0001:0000ed60       ?Create@Rtti@Core@@QBEPAVRefCounted@2@XZ 0040fd60 f   foundation_win32.release:rtti.obj
 0001:0000edc0       ?IsDerivedFrom@Rtti@Core@@QBE_NABV12@@Z 0040fdc0 f   foundation_win32.release:rtti.obj
 0001:0000ee00       ?IsDerivedFrom@Rtti@Core@@QBE_NABVString@Util@@@Z 0040fe00 f   foundation_win32.release:rtti.obj
 0001:0000ee50       ?IsDerivedFrom@Rtti@Core@@QBE_NABVFourCC@Util@@@Z 0040fe50 f   foundation_win32.release:rtti.obj
 0001:0000eea0       ?AllocInstanceMemory@Rtti@Core@@QAEPAXXZ 0040fea0 f   foundation_win32.release:rtti.obj
 0001:0000eed0       ?FreeInstanceMemory@Rtti@Core@@QAEXPAX@Z 0040fed0 f   foundation_win32.release:rtti.obj
 0001:0000eef0       ??2RefCounted@Core@@SAPAXI@Z 0040fef0 f i foundation_win32.release:refcounted.obj
 0001:0000ef00       ?GetRtti@RefCounted@Core@@UBEPAVRtti@2@XZ 0040ff00 f   foundation_win32.release:refcounted.obj
 0001:0000ef10       ?FactoryCreator@RefCounted@Core@@SAPAV12@XZ 0040ff10 f   foundation_win32.release:refcounted.obj
 0001:0000ef20       ?Create@RefCounted@Core@@SAPAV12@XZ 0040ff20 f   foundation_win32.release:refcounted.obj
 0001:0000ef70       ?RegisterWithFactory@RefCounted@Core@@SA_NXZ 0040ff70 f   foundation_win32.release:refcounted.obj
 0001:0000f070       ??1RefCounted@Core@@MAE@XZ 00410070 f   foundation_win32.release:refcounted.obj
 0001:0000f0b0       ?DumpRefCountingLeaks@RefCounted@Core@@SAXXZ 004100b0 f   foundation_win32.release:refcounted.obj
 0001:0000f0c0       ?Clear@String@Util@@QAEXXZ 004100c0 f i foundation_win32.release:uri.obj
 0001:0000f110       ?IsEmpty@URI@IO@@QBE_NXZ   00410110 f i foundation_win32.release:uri.obj
 0001:0000f120       ?Clear@URI@IO@@QAEXXZ      00410120 f i foundation_win32.release:uri.obj
 0001:0000f320       ?SetScheme@URI@IO@@QAEXABVString@Util@@@Z 00410320 f i foundation_win32.release:uri.obj
 0001:0000f370       ?SetUserInfo@URI@IO@@QAEXABVString@Util@@@Z 00410370 f i foundation_win32.release:uri.obj
 0001:0000f3c0       ?SetHost@URI@IO@@QAEXABVString@Util@@@Z 004103c0 f i foundation_win32.release:uri.obj
 0001:0000f410       ?SetPort@URI@IO@@QAEXABVString@Util@@@Z 00410410 f i foundation_win32.release:uri.obj
 0001:0000f460       ?SetLocalPath@URI@IO@@QAEXABVString@Util@@@Z 00410460 f i foundation_win32.release:uri.obj
 0001:0000f4c0       ?SetFragment@URI@IO@@QAEXABVString@Util@@@Z 004104c0 f i foundation_win32.release:uri.obj
 0001:0000f520       ?SetQuery@URI@IO@@QAEXABVString@Util@@@Z 00410520 f i foundation_win32.release:uri.obj
 0001:0000f580       ?Instance@AssignRegistry@IO@@SAPAV12@XZ 00410580 f i foundation_win32.release:uri.obj
 0001:0000f5b0       ?HasInstance@AssignRegistry@IO@@SA_NXZ 004105b0 f i foundation_win32.release:uri.obj
 0001:0000f5d0       ?Split@URI@IO@@AAE_NABVString@Util@@@Z 004105d0 f   foundation_win32.release:uri.obj
 0001:000100c0       ?Build@URI@IO@@ABE?AVString@Util@@XZ 004110c0 f   foundation_win32.release:uri.obj
 0001:000103b0       ?GetTail@URI@IO@@QBE?AVString@Util@@XZ 004113b0 f   foundation_win32.release:uri.obj
 0001:00010520       ?GetHostAndLocalPath@URI@IO@@QBE?AVString@Util@@XZ 00411520 f   foundation_win32.release:uri.obj
 0001:00010640       ?AppendLocalPath@URI@IO@@QAEXABVString@Util@@@Z 00411640 f   foundation_win32.release:uri.obj
 0001:000106d0       ?ParseQuery@URI@IO@@QBE?AV?$Dictionary@VString@Util@@V12@@Util@@XZ 004116d0 f   foundation_win32.release:uri.obj
 0001:00010840       ?BinaryCompare@Blob@Util@@ABEHABV12@@Z 00411840 f   foundation_win32.release:blob.obj
 0001:000108f0       ?WaiterPlus@Win360CriticalSection@Win360@@ABEXXZ 004118f0 f i foundation_win32.release:ioserver.obj
 0001:00010910       ?WaiterMinus@Win360CriticalSection@Win360@@ABEXXZ 00411910 f i foundation_win32.release:ioserver.obj
 0001:00010930       ?PerfLockImmediate@Win360CriticalSection@Win360@@ABE_NK@Z 00411930 f i foundation_win32.release:ioserver.obj
 0001:00010960       ?Enter@Win360CriticalSection@Win360@@QBEXXZ 00411960 f i foundation_win32.release:ioserver.obj
 0001:000109d0       ?AllocateKernelSemaphore@Win360CriticalSection@Win360@@ABEXXZ 004119d0 f i foundation_win32.release:ioserver.obj
 0001:00010a40       ?PerfLock@Win360CriticalSection@Win360@@ABE_NK@Z 00411a40 f i foundation_win32.release:ioserver.obj
 0001:00010ac0       ?PerfLockKernel@Win360CriticalSection@Win360@@ABE_NK@Z 00411ac0 f i foundation_win32.release:ioserver.obj
 0001:00010b60       ?Leave@Win360CriticalSection@Win360@@QBEXXZ 00411b60 f i foundation_win32.release:ioserver.obj
 0001:00010b90       ?PerfUnlock@Win360CriticalSection@Win360@@ABEXXZ 00411b90 f i foundation_win32.release:ioserver.obj
 0001:00010bd0       ?IsEmpty@String@Util@@QBE_NXZ 00411bd0 f i foundation_win32.release:ioserver.obj
 0001:00010bf0       ?GetRefCount@RefCounted@Core@@QBEHXZ 00411bf0 f i foundation_win32.release:ioserver.obj
 0001:00010c10       ??0URI@IO@@QAE@XZ          00411c10 f i foundation_win32.release:ioserver.obj
 0001:00010d70       ??0URI@IO@@QAE@ABVString@Util@@@Z 00411d70 f i foundation_win32.release:ioserver.obj
 0001:00010f20       ?AsString@URI@IO@@QBE?AVString@Util@@XZ 00411f20 f i foundation_win32.release:ioserver.obj
 0001:00010f40       ?Scheme@URI@IO@@QBEABVString@Util@@XZ 00411f40 f i foundation_win32.release:ioserver.obj
 0001:00010f60       ?LocalPath@URI@IO@@QBEABVString@Util@@XZ 00411f60 f i foundation_win32.release:ioserver.obj
 0001:00010f80       ?Instance@SchemeRegistry@IO@@SAPAV12@XZ 00411f80 f i foundation_win32.release:ioserver.obj
 0001:00010fb0       ?HasInstance@SchemeRegistry@IO@@SA_NXZ 00411fb0 f i foundation_win32.release:ioserver.obj
 0001:00010fd0       ??2IoServer@IO@@SAPAXI@Z   00411fd0 f i foundation_win32.release:ioserver.obj
 0001:00010fe0       ??3IoServer@IO@@SAXPAX@Z   00411fe0 f i foundation_win32.release:ioserver.obj
 0001:00011000       ?IsArchiveFileSystemEnabled@IoServer@IO@@QBE_NXZ 00412000 f i foundation_win32.release:ioserver.obj
 0001:00011020       ?GetPlatform@SystemInfoBase@Base@@QBE?AW4Platform@12@XZ 00412020 f i foundation_win32.release:ioserver.obj
 0001:00011030       ?Instance@ArchiveFileSystem@IO@@SAPAV12@XZ 00412030 f i foundation_win32.release:ioserver.obj
 0001:00011060       ?HasInstance@ArchiveFileSystem@IO@@SA_NXZ 00412060 f i foundation_win32.release:ioserver.obj
 0001:00011080       ?GetRtti@IoServer@IO@@UBEPAVRtti@Core@@XZ 00412080 f   foundation_win32.release:ioserver.obj
 0001:00011090       ?FactoryCreator@IoServer@IO@@SAPAVRefCounted@Core@@XZ 00412090 f   foundation_win32.release:ioserver.obj
 0001:000110a0       ?Create@IoServer@IO@@SAPAV12@XZ 004120a0 f   foundation_win32.release:ioserver.obj
 0001:000110e0       ?RegisterWithFactory@IoServer@IO@@SA_NXZ 004120e0 f   foundation_win32.release:ioserver.obj
 0001:000111e0       ??0CriticalSection@Threading@@QAE@XZ 004121e0 f i foundation_win32.release:ioserver.obj
 0001:00011200       ??1CriticalSection@Threading@@QAE@XZ 00412200 f i foundation_win32.release:ioserver.obj
 0001:00011220       ??0IoServer@IO@@QAE@XZ     00412220 f   foundation_win32.release:ioserver.obj
 0001:00011470       ??_GIoServer@IO@@UAEPAXI@Z 00412470 f i foundation_win32.release:ioserver.obj
 0001:00011470       ??_EIoServer@IO@@UAEPAXI@Z 00412470 f i  CIL library: CIL module
 0001:000114a0       ??1IoServer@IO@@UAE@XZ     004124a0 f   foundation_win32.release:ioserver.obj
 0001:00011570       ?CreateStream@IoServer@IO@@QBE?AV?$Ptr@VStream@IO@@@@ABVURI@2@@Z 00412570 f   foundation_win32.release:ioserver.obj
 0001:00011730       ?MountArchive@IoServer@IO@@QAE_NABVURI@2@@Z 00412730 f   foundation_win32.release:ioserver.obj
 0001:00011780       ?UnmountArchive@IoServer@IO@@QAEXABVURI@2@@Z 00412780 f   foundation_win32.release:ioserver.obj
 0001:000117b0       ?IsArchiveMounted@IoServer@IO@@QBE_NABVURI@2@@Z 004127b0 f   foundation_win32.release:ioserver.obj
 0001:000117e0       ?MountStandardArchives@IoServer@IO@@QAEXXZ 004127e0 f   foundation_win32.release:ioserver.obj
 0001:000118e0       ??0SystemInfo@System@@QAE@XZ 004128e0 f i foundation_win32.release:ioserver.obj
 0001:00011900       ?UnmountStandardArchives@IoServer@IO@@QAEXXZ 00412900 f   foundation_win32.release:ioserver.obj
 0001:00011a40       ?CreateDirectoryA@IoServer@IO@@QBE_NABVURI@2@@Z 00412a40 f   foundation_win32.release:ioserver.obj
 0001:00011cc0       ??1?$Stack@VString@Util@@@Util@@QAE@XZ 00412cc0 f i foundation_win32.release:ioserver.obj
 0001:00011ce0       ?CopyFile@IoServer@IO@@QBE_NABVURI@2@0@Z 00412ce0 f   foundation_win32.release:ioserver.obj
 0001:00012110       ?ComputeFileCrc@IoServer@IO@@QBEIABVURI@2@@Z 00413110 f   foundation_win32.release:ioserver.obj
 0001:000122a0       ?DeleteFile@IoServer@IO@@QBE_NABVURI@2@@Z 004132a0 f   foundation_win32.release:ioserver.obj
 0001:00012330       ?DeleteDirectory@IoServer@IO@@QBE_NABVURI@2@@Z 00413330 f   foundation_win32.release:ioserver.obj
 0001:000123c0       ?FileExists@IoServer@IO@@QBE_NABVURI@2@@Z 004133c0 f   foundation_win32.release:ioserver.obj
 0001:00012490       ?DirectoryExists@IoServer@IO@@QBE_NABVURI@2@@Z 00413490 f   foundation_win32.release:ioserver.obj
 0001:00012580       ?SetReadOnly@IoServer@IO@@QBEXABVURI@2@_N@Z 00413580 f   foundation_win32.release:ioserver.obj
 0001:00012610       ?IsReadOnly@IoServer@IO@@QBE_NABVURI@2@@Z 00413610 f   foundation_win32.release:ioserver.obj
 0001:000127c0       ?SetFileWriteTime@IoServer@IO@@QAEXABVURI@2@VWin360FileTime@Win360@@@Z 004137c0 f   foundation_win32.release:ioserver.obj
 0001:00012850       ?GetFileWriteTime@IoServer@IO@@QBE?AVWin360FileTime@Win360@@ABVURI@2@@Z 00413850 f   foundation_win32.release:ioserver.obj
 0001:000128e0       ?ListFiles@IoServer@IO@@QBE?AV?$Array@VString@Util@@@Util@@ABVURI@2@ABVString@4@_N@Z 004138e0 f   foundation_win32.release:ioserver.obj
 0001:00012b00       ?ListDirectories@IoServer@IO@@QBE?AV?$Array@VString@Util@@@Util@@ABVURI@2@ABVString@4@_N@Z 00413b00 f   foundation_win32.release:ioserver.obj
 0001:00012d20       ?AddPathPrefixToArray@IoServer@IO@@ABE?AV?$Array@VString@Util@@@Util@@ABVString@4@ABV34@@Z 00413d20 f   foundation_win32.release:ioserver.obj
 0001:00012e40       ??4?$Array@VString@Util@@@Util@@QAEXABV01@@Z 00413e40 f i foundation_win32.release:ioserver.obj
 0001:00012f70       ?Reserve@?$Array@VString@Util@@@Util@@QAEXH@Z 00413f70 f i foundation_win32.release:ioserver.obj
 0001:00012fc0       ?IsEmpty@?$Array@VString@Util@@@Util@@QBE_NXZ 00413fc0 f i foundation_win32.release:ioserver.obj
 0001:00012fe0       ??0?$Ptr@VArchiveFileSystem@IO@@@@QAE@XZ 00413fe0 f i foundation_win32.release:ioserver.obj
 0001:00013000       ??1?$Ptr@VArchiveFileSystem@IO@@@@QAE@XZ 00414000 f i foundation_win32.release:ioserver.obj
 0001:00013030       ??4?$Ptr@VArchiveFileSystem@IO@@@@QAEXPAVArchiveFileSystem@IO@@@Z 00414030 f i foundation_win32.release:ioserver.obj
 0001:00013090       ??C?$Ptr@VArchiveFileSystem@IO@@@@QBEPAVArchiveFileSystem@IO@@XZ 00414090 f i foundation_win32.release:ioserver.obj
 0001:000130d0       ??0?$Ptr@VAssignRegistry@IO@@@@QAE@XZ 004140d0 f i foundation_win32.release:ioserver.obj
 0001:000130f0       ??1?$Ptr@VAssignRegistry@IO@@@@QAE@XZ 004140f0 f i foundation_win32.release:ioserver.obj
 0001:00013120       ??4?$Ptr@VAssignRegistry@IO@@@@QAEXPAVAssignRegistry@IO@@@Z 00414120 f i foundation_win32.release:ioserver.obj
 0001:00013180       ??C?$Ptr@VAssignRegistry@IO@@@@QBEPAVAssignRegistry@IO@@XZ 00414180 f i foundation_win32.release:ioserver.obj
 0001:000131c0       ??0?$Ptr@VSchemeRegistry@IO@@@@QAE@XZ 004141c0 f i foundation_win32.release:ioserver.obj
 0001:000131e0       ??1?$Ptr@VSchemeRegistry@IO@@@@QAE@XZ 004141e0 f i foundation_win32.release:ioserver.obj
 0001:00013210       ??4?$Ptr@VSchemeRegistry@IO@@@@QAEXPAVSchemeRegistry@IO@@@Z 00414210 f i foundation_win32.release:ioserver.obj
 0001:00013270       ??C?$Ptr@VSchemeRegistry@IO@@@@QBEPAVSchemeRegistry@IO@@XZ 00414270 f i foundation_win32.release:ioserver.obj
 0001:000132b0       ??0?$Ptr@VStream@IO@@@@QAE@ABV0@@Z 004142b0 f i foundation_win32.release:ioserver.obj
 0001:000132f0       ??0?$Ptr@VStream@IO@@@@QAE@PAVStream@IO@@@Z 004142f0 f i foundation_win32.release:ioserver.obj
 0001:00013330       ??1?$Ptr@VStream@IO@@@@QAE@XZ 00414330 f i foundation_win32.release:ioserver.obj
 0001:00013360       ??C?$Ptr@VStream@IO@@@@QBEPAVStream@IO@@XZ 00414360 f i foundation_win32.release:ioserver.obj
 0001:000133a0       ??1?$Ptr@VArchive@IO@@@@QAE@XZ 004143a0 f i foundation_win32.release:ioserver.obj
 0001:000133d0       ??C?$Ptr@VArchive@IO@@@@QBEPAVArchive@IO@@XZ 004143d0 f i foundation_win32.release:ioserver.obj
 0001:00013410       ?isvalid@?$Ptr@VArchive@IO@@@@QBE_NXZ 00414410 f i foundation_win32.release:ioserver.obj
 0001:00013430       ??0?$Stack@VString@Util@@@Util@@QAE@XZ 00414430 f i foundation_win32.release:ioserver.obj
 0001:00013450       ?IsEmpty@?$Stack@VString@Util@@@Util@@QBE_NXZ 00414450 f i foundation_win32.release:ioserver.obj
 0001:00013470       ?Push@?$Stack@VString@Util@@@Util@@QAEXABVString@2@@Z 00414470 f i foundation_win32.release:ioserver.obj
 0001:00013490       ?Pop@?$Stack@VString@Util@@@Util@@QAE?AVString@2@XZ 00414490 f i foundation_win32.release:ioserver.obj
 0001:00013520       ?Back@?$Array@VString@Util@@@Util@@QBEAAVString@2@XZ 00414520 f i foundation_win32.release:ioserver.obj
 0001:00013570       ?EraseIndex@?$Array@VString@Util@@@Util@@QAEXH@Z 00414570 f i foundation_win32.release:ioserver.obj
 0001:000135f0       ?Move@?$Array@VString@Util@@@Util@@AAEXHH@Z 004145f0 f i foundation_win32.release:ioserver.obj
 0001:000137f0       ___InlineInterlockedCompareExchangePointer 004147f0 f i foundation_win32.release:ioserver.obj
 0001:00013810       ?Setup@Blob@Util@@SAXXZ    00414810 f i foundation_win32.release:win32sysfunc.obj
 0001:00013880       ?Shutdown@Blob@Util@@SAXXZ 00414880 f i foundation_win32.release:win32sysfunc.obj
 0001:00013900       ??_GWin360Heap@Win360@@QAEPAXI@Z 00414900 f i foundation_win32.release:win32sysfunc.obj
 0001:00013930       ?Setup@SysFunc@Win32@@SAXXZ 00414930 f   foundation_win32.release:win32sysfunc.obj
 0001:000139f0       ?Exit@SysFunc@Win32@@SAXH@Z 004149f0 f   foundation_win32.release:win32sysfunc.obj
 0001:00013ad0       ??_GGlobalStringAtomTable@Util@@QAEPAXI@Z 00414ad0 f i foundation_win32.release:win32sysfunc.obj
 0001:00013b00       ??_GLocalStringAtomTable@Util@@QAEPAXI@Z 00414b00 f i foundation_win32.release:win32sysfunc.obj
 0001:00013b30       ?Error@SysFunc@Win32@@SAXPBD@Z 00414b30 f   foundation_win32.release:win32sysfunc.obj
 0001:00013b60       ?MessageBoxA@SysFunc@Win32@@SAXPBD@Z 00414b60 f   foundation_win32.release:win32sysfunc.obj
 0001:00013ba0       ?Sleep@SysFunc@Win32@@SAXN@Z 00414ba0 f   foundation_win32.release:win32sysfunc.obj
 0001:00013bd0       ?DebugOut@SysFunc@Win32@@SAXPBD@Z 00414bd0 f   foundation_win32.release:win32sysfunc.obj
 0001:00013be0       ?RegisterExitHandler@SysFunc@Win32@@CAPBVExitHandler@Core@@PBV34@@Z 00414be0 f   foundation_win32.release:win32sysfunc.obj
 0001:00013c00       ?GetSystemInfo@SysFunc@Win32@@SAPBVSystemInfo@System@@XZ 00414c00 f   foundation_win32.release:win32sysfunc.obj
 0001:00013c10       ?XMVerifyCPUSupport@@YAHXZ 00414c10 f i foundation_win32.release:win32sysfunc.obj
 0001:00013c50       ?HashCode@String@Util@@QBEHXZ 00414c50 f i foundation_win32.release:factory.obj
 0001:00013d00       ??9FourCC@Util@@QBE_NABV01@@Z 00414d00 f i foundation_win32.release:factory.obj
 0001:00013d20       ??OFourCC@Util@@QBE_NABV01@@Z 00414d20 f i foundation_win32.release:factory.obj
 0001:00013d40       ??MFourCC@Util@@QBE_NABV01@@Z 00414d40 f i foundation_win32.release:factory.obj
 0001:00013d60       ?AsString@FourCC@Util@@QBE?AVString@2@XZ 00414d60 f i foundation_win32.release:factory.obj
 0001:00013d90       ?ToString@FourCC@Util@@SA?AVString@2@ABV12@@Z 00414d90 f i foundation_win32.release:factory.obj
 0001:00013f20       ?Instance@Factory@Core@@SAPAV12@XZ 00414f20 f   foundation_win32.release:factory.obj
 0001:00013f90       ?Destroy@Factory@Core@@SAXXZ 00414f90 f   foundation_win32.release:factory.obj
 0001:00013ff0       ??_GFactory@Core@@AAEPAXI@Z 00414ff0 f i foundation_win32.release:factory.obj
 0001:00014020       ??0Factory@Core@@AAE@XZ    00415020 f   foundation_win32.release:factory.obj
 0001:00014050       ??1?$HashTable@VString@Util@@PBVRtti@Core@@@Util@@QAE@XZ 00415050 f i foundation_win32.release:factory.obj
 0001:00014070       ??1?$Dictionary@VFourCC@Util@@PBVRtti@Core@@@Util@@QAE@XZ 00415070 f i foundation_win32.release:factory.obj
 0001:00014090       ??1Factory@Core@@AAE@XZ    00415090 f   foundation_win32.release:factory.obj
 0001:000140d0       ?Register@Factory@Core@@QAEXPBVRtti@2@ABVString@Util@@ABVFourCC@5@@Z 004150d0 f   foundation_win32.release:factory.obj
 0001:000142c0       ?Register@Factory@Core@@QAEXPBVRtti@2@ABVString@Util@@@Z 004152c0 f   foundation_win32.release:factory.obj
 0001:00014390       ?ClassExists@Factory@Core@@QBE_NABVString@Util@@@Z 00415390 f   foundation_win32.release:factory.obj
 0001:000143e0       ?ClassExists@Factory@Core@@QBE_NVFourCC@Util@@@Z 004153e0 f   foundation_win32.release:factory.obj
 0001:00014430       ?GetClassRtti@Factory@Core@@QBEPBVRtti@2@ABVString@Util@@@Z 00415430 f   foundation_win32.release:factory.obj
 0001:000144a0       ?GetClassRtti@Factory@Core@@QBEPBVRtti@2@ABVFourCC@Util@@@Z 004154a0 f   foundation_win32.release:factory.obj
 0001:00014520       ?Create@Factory@Core@@QBEPAVRefCounted@2@ABVString@Util@@@Z 00415520 f   foundation_win32.release:factory.obj
 0001:00014630       ?Create@Factory@Core@@QBEPAVRefCounted@2@VFourCC@Util@@@Z 00415630 f   foundation_win32.release:factory.obj
 0001:00014780       ??1?$FixedArray@V?$Array@V?$KeyValuePair@VString@Util@@PBVRtti@Core@@@Util@@@Util@@@Util@@QAE@XZ 00415780 f i foundation_win32.release:factory.obj
 0001:000147a0       ??0?$HashTable@VString@Util@@PBVRtti@Core@@@Util@@QAE@H@Z 004157a0 f i foundation_win32.release:factory.obj
 0001:000147d0       ??A?$HashTable@VString@Util@@PBVRtti@Core@@@Util@@QBEAAPBVRtti@Core@@ABVString@1@@Z 004157d0 f i foundation_win32.release:factory.obj
 0001:000148d0       ?Clear@?$HashTable@VString@Util@@PBVRtti@Core@@@Util@@QAEXXZ 004158d0 f i foundation_win32.release:factory.obj
 0001:00014930       ?Add@?$HashTable@VString@Util@@PBVRtti@Core@@@Util@@QAEXABVString@2@ABQBVRtti@Core@@@Z 00415930 f i foundation_win32.release:factory.obj
 0001:00014970       ?Contains@?$HashTable@VString@Util@@PBVRtti@Core@@@Util@@QBE_NABVString@2@@Z 00415970 f i foundation_win32.release:factory.obj
 0001:00014a10       ??1?$Array@V?$KeyValuePair@VFourCC@Util@@PBVRtti@Core@@@Util@@@Util@@QAE@XZ 00415a10 f i foundation_win32.release:factory.obj
 0001:00014a30       ??0?$Dictionary@VFourCC@Util@@PBVRtti@Core@@@Util@@QAE@XZ 00415a30 f i foundation_win32.release:factory.obj
 0001:00014a50       ??A?$Dictionary@VFourCC@Util@@PBVRtti@Core@@@Util@@QBEABQBVRtti@Core@@ABVFourCC@1@@Z 00415a50 f i foundation_win32.release:factory.obj
 0001:00014aa0       ?Clear@?$Dictionary@VFourCC@Util@@PBVRtti@Core@@@Util@@QAEXXZ 00415aa0 f i foundation_win32.release:factory.obj
 0001:00014ae0       ?Add@?$Dictionary@VFourCC@Util@@PBVRtti@Core@@@Util@@QAEXABVFourCC@2@ABQBVRtti@Core@@@Z 00415ae0 f i foundation_win32.release:factory.obj
 0001:00014b30       ?Contains@?$Dictionary@VFourCC@Util@@PBVRtti@Core@@@Util@@QBE_NABVFourCC@2@@Z 00415b30 f i foundation_win32.release:factory.obj
 0001:00014b90       ??1?$KeyValuePair@VString@Util@@PBVRtti@Core@@@Util@@QAE@XZ 00415b90 f i foundation_win32.release:factory.obj
 0001:00014be0       ??0?$FixedArray@V?$Array@V?$KeyValuePair@VString@Util@@PBVRtti@Core@@@Util@@@Util@@@Util@@QAE@H@Z 00415be0 f i foundation_win32.release:factory.obj
 0001:00014c10       ??A?$FixedArray@V?$Array@V?$KeyValuePair@VString@Util@@PBVRtti@Core@@@Util@@@Util@@@Util@@QBEAAV?$Array@V?$KeyValuePair@VString@Util@@PBVRtti@Core@@@Util@@@1@H@Z 00415c10 f i foundation_win32.release:factory.obj
 0001:00014c60       ?Size@?$FixedArray@V?$Array@V?$KeyValuePair@VString@Util@@PBVRtti@Core@@@Util@@@Util@@@Util@@QBEHXZ 00415c60 f i foundation_win32.release:factory.obj
 0001:00014c70       ?Delete@?$FixedArray@V?$Array@V?$KeyValuePair@VString@Util@@PBVRtti@Core@@@Util@@@Util@@@Util@@AAEXXZ 00415c70 f i foundation_win32.release:factory.obj
 0001:00014cd0       ?Add@?$HashTable@VString@Util@@PBVRtti@Core@@@Util@@QAEXABV?$KeyValuePair@VString@Util@@PBVRtti@Core@@@2@@Z 00415cd0 f i foundation_win32.release:factory.obj
 0001:00014d60       ??A?$Array@V?$KeyValuePair@VString@Util@@PBVRtti@Core@@@Util@@@Util@@QBEAAV?$KeyValuePair@VString@Util@@PBVRtti@Core@@@1@H@Z 00415d60 f i foundation_win32.release:factory.obj
 0001:00014db0       ?Size@?$Array@V?$KeyValuePair@VString@Util@@PBVRtti@Core@@@Util@@@Util@@QBEHXZ 00415db0 f i foundation_win32.release:factory.obj
 0001:00014dd0       ?Clear@?$Array@V?$KeyValuePair@VString@Util@@PBVRtti@Core@@@Util@@@Util@@QAEXXZ 00415dd0 f i foundation_win32.release:factory.obj
 0001:00014e20       ?BinarySearchIndex@?$Array@V?$KeyValuePair@VString@Util@@PBVRtti@Core@@@Util@@@Util@@QBEHABV?$KeyValuePair@VString@Util@@PBVRtti@Core@@@2@@Z 00415e20 f i foundation_win32.release:factory.obj
 0001:00014f50       ??0?$KeyValuePair@VString@Util@@PBVRtti@Core@@@Util@@QAE@ABVString@1@@Z 00415f50 f i foundation_win32.release:factory.obj
 0001:00014fb0       ??0?$KeyValuePair@VString@Util@@PBVRtti@Core@@@Util@@QAE@ABVString@1@ABQBVRtti@Core@@@Z 00415fb0 f i foundation_win32.release:factory.obj
 0001:00015020       ?Value@?$KeyValuePair@VString@Util@@PBVRtti@Core@@@Util@@QAEAAPBVRtti@Core@@XZ 00416020 f i foundation_win32.release:factory.obj
 0001:00015040       ??0?$Array@V?$KeyValuePair@VFourCC@Util@@PBVRtti@Core@@@Util@@@Util@@QAE@XZ 00416040 f i foundation_win32.release:factory.obj
 0001:00015080       ??A?$Array@V?$KeyValuePair@VFourCC@Util@@PBVRtti@Core@@@Util@@@Util@@QBEAAV?$KeyValuePair@VFourCC@Util@@PBVRtti@Core@@@1@H@Z 00416080 f i foundation_win32.release:factory.obj
 0001:000150d0       ?Append@?$Array@V?$KeyValuePair@VFourCC@Util@@PBVRtti@Core@@@Util@@@Util@@QAEXABV?$KeyValuePair@VFourCC@Util@@PBVRtti@Core@@@2@@Z 004160d0 f i foundation_win32.release:factory.obj
 0001:00015150       ?InsertSorted@?$Array@V?$KeyValuePair@VFourCC@Util@@PBVRtti@Core@@@Util@@@Util@@QAEHABV?$KeyValuePair@VFourCC@Util@@PBVRtti@Core@@@2@@Z 00416150 f i foundation_win32.release:factory.obj
 0001:000153c0       ?Clear@?$Array@V?$KeyValuePair@VFourCC@Util@@PBVRtti@Core@@@Util@@@Util@@QAEXXZ 004163c0 f i foundation_win32.release:factory.obj
 0001:00015410       ?BinarySearchIndex@?$Array@V?$KeyValuePair@VFourCC@Util@@PBVRtti@Core@@@Util@@@Util@@QBEHABV?$KeyValuePair@VFourCC@Util@@PBVRtti@Core@@@2@@Z 00416410 f i foundation_win32.release:factory.obj
 0001:00015540       ?Delete@?$Array@V?$KeyValuePair@VFourCC@Util@@PBVRtti@Core@@@Util@@@Util@@AAEXXZ 00416540 f i foundation_win32.release:factory.obj
 0001:000155a0       ?FindIndex@?$Dictionary@VFourCC@Util@@PBVRtti@Core@@@Util@@QBEHABVFourCC@2@@Z 004165a0 f i foundation_win32.release:factory.obj
 0001:000155f0       ??0?$KeyValuePair@VFourCC@Util@@PBVRtti@Core@@@Util@@QAE@ABVFourCC@1@@Z 004165f0 f i foundation_win32.release:factory.obj
 0001:00015610       ??0?$KeyValuePair@VFourCC@Util@@PBVRtti@Core@@@Util@@QAE@ABVFourCC@1@ABQBVRtti@Core@@@Z 00416610 f i foundation_win32.release:factory.obj
 0001:00015640       ?Value@?$KeyValuePair@VFourCC@Util@@PBVRtti@Core@@@Util@@QAEAAPBVRtti@Core@@XZ 00416640 f i foundation_win32.release:factory.obj
 0001:00015660       ??_E?$Array@V?$KeyValuePair@VString@Util@@PBVRtti@Core@@@Util@@@Util@@QAEPAXI@Z 00416660 f i foundation_win32.release:factory.obj
 0001:00015700       ?Alloc@?$FixedArray@V?$Array@V?$KeyValuePair@VString@Util@@PBVRtti@Core@@@Util@@@Util@@@Util@@AAEXH@Z 00416700 f i foundation_win32.release:factory.obj
 0001:000157d0       ??1?$Array@V?$KeyValuePair@VString@Util@@PBVRtti@Core@@@Util@@@Util@@QAE@XZ 004167d0 f i foundation_win32.release:factory.obj
 0001:000157f0       ?InsertSorted@?$Array@V?$KeyValuePair@VString@Util@@PBVRtti@Core@@@Util@@@Util@@QAEHABV?$KeyValuePair@VString@Util@@PBVRtti@Core@@@2@@Z 004167f0 f i foundation_win32.release:factory.obj
 0001:00015a60       ?Destroy@?$Array@V?$KeyValuePair@VString@Util@@PBVRtti@Core@@@Util@@@Util@@AAEXPAV?$KeyValuePair@VString@Util@@PBVRtti@Core@@@2@@Z 00416a60 f i foundation_win32.release:factory.obj
 0001:00015a80       ??9?$KeyValuePair@VString@Util@@PBVRtti@Core@@@Util@@QBE_NABV01@@Z 00416a80 f i foundation_win32.release:factory.obj
 0001:00015aa0       ??O?$KeyValuePair@VString@Util@@PBVRtti@Core@@@Util@@QBE_NABV01@@Z 00416aa0 f i foundation_win32.release:factory.obj
 0001:00015ac0       ??M?$KeyValuePair@VString@Util@@PBVRtti@Core@@@Util@@QBE_NABV01@@Z 00416ac0 f i foundation_win32.release:factory.obj
 0001:00015ae0       ?Key@?$KeyValuePair@VString@Util@@PBVRtti@Core@@@Util@@QBEABVString@2@XZ 00416ae0 f i foundation_win32.release:factory.obj
 0001:00015af0       ?Size@?$Array@V?$KeyValuePair@VFourCC@Util@@PBVRtti@Core@@@Util@@@Util@@QBEHXZ 00416af0 f i foundation_win32.release:factory.obj
 0001:00015b10       ?Insert@?$Array@V?$KeyValuePair@VFourCC@Util@@PBVRtti@Core@@@Util@@@Util@@QAEXHABV?$KeyValuePair@VFourCC@Util@@PBVRtti@Core@@@2@@Z 00416b10 f i foundation_win32.release:factory.obj
 0001:00015b80       ?InsertAtEndOfIdenticalRange@?$Array@V?$KeyValuePair@VFourCC@Util@@PBVRtti@Core@@@Util@@@Util@@QAEHHABV?$KeyValuePair@VFourCC@Util@@PBVRtti@Core@@@2@@Z 00416b80 f i foundation_win32.release:factory.obj
 0001:00015c00       ?Destroy@?$Array@V?$KeyValuePair@VFourCC@Util@@PBVRtti@Core@@@Util@@@Util@@AAEXPAV?$KeyValuePair@VFourCC@Util@@PBVRtti@Core@@@2@@Z 00416c00 f i foundation_win32.release:factory.obj
 0001:00015c10       ?Grow@?$Array@V?$KeyValuePair@VFourCC@Util@@PBVRtti@Core@@@Util@@@Util@@AAEXXZ 00416c10 f i foundation_win32.release:factory.obj
 0001:00015c90       ??4?$KeyValuePair@VFourCC@Util@@PBVRtti@Core@@@Util@@QAEXABV01@@Z 00416c90 f i foundation_win32.release:factory.obj
 0001:00015cc0       ??9?$KeyValuePair@VFourCC@Util@@PBVRtti@Core@@@Util@@QBE_NABV01@@Z 00416cc0 f i foundation_win32.release:factory.obj
 0001:00015ce0       ??O?$KeyValuePair@VFourCC@Util@@PBVRtti@Core@@@Util@@QBE_NABV01@@Z 00416ce0 f i foundation_win32.release:factory.obj
 0001:00015d00       ??M?$KeyValuePair@VFourCC@Util@@PBVRtti@Core@@@Util@@QBE_NABV01@@Z 00416d00 f i foundation_win32.release:factory.obj
 0001:00015d20       ??_G?$KeyValuePair@VString@Util@@PBVRtti@Core@@@Util@@QAEPAXI@Z 00416d20 f i foundation_win32.release:factory.obj
 0001:00015d90       ??0?$Array@V?$KeyValuePair@VString@Util@@PBVRtti@Core@@@Util@@@Util@@QAE@XZ 00416d90 f i foundation_win32.release:factory.obj
 0001:00015dd0       ?Append@?$Array@V?$KeyValuePair@VString@Util@@PBVRtti@Core@@@Util@@@Util@@QAEXABV?$KeyValuePair@VString@Util@@PBVRtti@Core@@@2@@Z 00416dd0 f i foundation_win32.release:factory.obj
 0001:00015e50       ?Insert@?$Array@V?$KeyValuePair@VString@Util@@PBVRtti@Core@@@Util@@@Util@@QAEXHABV?$KeyValuePair@VString@Util@@PBVRtti@Core@@@2@@Z 00416e50 f i foundation_win32.release:factory.obj
 0001:00015ec0       ?InsertAtEndOfIdenticalRange@?$Array@V?$KeyValuePair@VString@Util@@PBVRtti@Core@@@Util@@@Util@@QAEHHABV?$KeyValuePair@VString@Util@@PBVRtti@Core@@@2@@Z 00416ec0 f i foundation_win32.release:factory.obj
 0001:00015f40       ?Delete@?$Array@V?$KeyValuePair@VString@Util@@PBVRtti@Core@@@Util@@@Util@@AAEXXZ 00416f40 f i foundation_win32.release:factory.obj
 0001:00015fb0       ?GrowTo@?$Array@V?$KeyValuePair@VFourCC@Util@@PBVRtti@Core@@@Util@@@Util@@AAEXH@Z 00416fb0 f i foundation_win32.release:factory.obj
 0001:000160a0       ?Move@?$Array@V?$KeyValuePair@VFourCC@Util@@PBVRtti@Core@@@Util@@@Util@@AAEXHH@Z 004170a0 f i foundation_win32.release:factory.obj
 0001:00016230       ??_E?$KeyValuePair@VString@Util@@PBVRtti@Core@@@Util@@QAEPAXI@Z 00417230 f i foundation_win32.release:factory.obj
 0001:00016340       ?Grow@?$Array@V?$KeyValuePair@VString@Util@@PBVRtti@Core@@@Util@@@Util@@AAEXXZ 00417340 f i foundation_win32.release:factory.obj
 0001:000163c0       ?Move@?$Array@V?$KeyValuePair@VString@Util@@PBVRtti@Core@@@Util@@@Util@@AAEXHH@Z 004173c0 f i foundation_win32.release:factory.obj
 0001:00016550       ??4?$KeyValuePair@VString@Util@@PBVRtti@Core@@@Util@@QAEXABV01@@Z 00417550 f i foundation_win32.release:factory.obj
 0001:000165a0       ??0?$KeyValuePair@VFourCC@Util@@PBVRtti@Core@@@Util@@QAE@XZ 004175a0 f i foundation_win32.release:factory.obj
 0001:000165c0       ?GrowTo@?$Array@V?$KeyValuePair@VString@Util@@PBVRtti@Core@@@Util@@@Util@@AAEXH@Z 004175c0 f i foundation_win32.release:factory.obj
 0001:000166e0       ??0?$KeyValuePair@VString@Util@@PBVRtti@Core@@@Util@@QAE@XZ 004176e0 f i foundation_win32.release:factory.obj
 0001:00016720       ??0Win360Timer@Win360@@QAE@XZ 00417720 f   foundation_win32.release:win360timer.obj
 0001:00016760       ?Start@Win360Timer@Win360@@QAEXXZ 00417760 f   foundation_win32.release:win360timer.obj
 0001:000167d0       ?Stop@Win360Timer@Win360@@QAEXXZ 004177d0 f   foundation_win32.release:win360timer.obj
 0001:00016810       ?Reset@Win360Timer@Win360@@QAEXXZ 00417810 f   foundation_win32.release:win360timer.obj
 0001:00016870       ?Running@Win360Timer@Win360@@QBE_NXZ 00417870 f   foundation_win32.release:win360timer.obj
 0001:00016880       ?InternalTime@Win360Timer@Win360@@ABE_JXZ 00417880 f   foundation_win32.release:win360timer.obj
 0001:000168d0       ?GetTime@Win360Timer@Win360@@QBENXZ 004178d0 f   foundation_win32.release:win360timer.obj
 0001:00016900       ?GetTicks@Win360Timer@Win360@@QBEHXZ 00417900 f   foundation_win32.release:win360timer.obj
 0001:00016960       ??4Win32Guid@Win32@@QAEXABV01@@Z 00417960 f   foundation_win32.release:win32guid.obj
 0001:000169a0       ??4Win32Guid@Win32@@QAEXABVString@Util@@@Z 004179a0 f   foundation_win32.release:win32guid.obj
 0001:00016a30       ??8Win32Guid@Win32@@QBE_NABV01@@Z 00417a30 f   foundation_win32.release:win32guid.obj
 0001:00016a60       ??9Win32Guid@Win32@@QBE_NABV01@@Z 00417a60 f   foundation_win32.release:win32guid.obj
 0001:00016a90       ??MWin32Guid@Win32@@QBE_NABV01@@Z 00417a90 f   foundation_win32.release:win32guid.obj
 0001:00016ac0       ??NWin32Guid@Win32@@QBE_NABV01@@Z 00417ac0 f   foundation_win32.release:win32guid.obj
 0001:00016b10       ??OWin32Guid@Win32@@QBE_NABV01@@Z 00417b10 f   foundation_win32.release:win32guid.obj
 0001:00016b40       ??PWin32Guid@Win32@@QBE_NABV01@@Z 00417b40 f   foundation_win32.release:win32guid.obj
 0001:00016b90       ?IsValid@Win32Guid@Win32@@QBE_NXZ 00417b90 f   foundation_win32.release:win32guid.obj
 0001:00016bc0       ?Generate@Win32Guid@Win32@@QAEXXZ 00417bc0 f   foundation_win32.release:win32guid.obj
 0001:00016be0       ?AsString@Win32Guid@Win32@@QBE?AVString@Util@@XZ 00417be0 f   foundation_win32.release:win32guid.obj
 0001:00016c50       ?AsBinary@Win32Guid@Win32@@QBEHAAPBE@Z 00417c50 f   foundation_win32.release:win32guid.obj
 0001:00016c70       ?FromString@Win32Guid@Win32@@SA?AV12@ABVString@Util@@@Z 00417c70 f   foundation_win32.release:win32guid.obj
 0001:00016cf0       ?FromBinary@Win32Guid@Win32@@SA?AV12@PBEH@Z 00417cf0 f   foundation_win32.release:win32guid.obj
 0001:00016dc0       ?HashCode@Win32Guid@Win32@@QBEHXZ 00417dc0 f   foundation_win32.release:win32guid.obj
 0001:00016df0       ?Instance@LocalStringAtomTable@Util@@SAPAV12@XZ 00417df0 f i foundation_win32.release:stringatom.obj
 0001:00016e30       ?Instance@GlobalStringAtomTable@Util@@SAPAV12@XZ 00417e30 f i foundation_win32.release:stringatom.obj
 0001:00016e60       ?Setup@StringAtom@Util@@AAEXPBD@Z 00417e60 f   foundation_win32.release:stringatom.obj
 0001:00016f30       ??8StringAtom@Util@@QBE_NPBD@Z 00417f30 f   foundation_win32.release:stringatom.obj
 0001:00016fb0       ??9StringAtom@Util@@QBE_NPBD@Z 00417fb0 f   foundation_win32.release:stringatom.obj
 0001:00017030       ??2CoreServer@Core@@SAPAXI@Z 00418030 f i foundation_win32.release:coreserver.obj
 0001:00017040       ??3CoreServer@Core@@SAXPAX@Z 00418040 f i foundation_win32.release:coreserver.obj
 0001:00017060       ?IsOpen@CoreServer@Core@@QBE_NXZ 00418060 f i foundation_win32.release:coreserver.obj
 0001:00017080       ?GetRtti@CoreServer@Core@@UBEPAVRtti@2@XZ 00418080 f   foundation_win32.release:coreserver.obj
 0001:00017090       ?FactoryCreator@CoreServer@Core@@SAPAVRefCounted@2@XZ 00418090 f   foundation_win32.release:coreserver.obj
 0001:000170a0       ?Create@CoreServer@Core@@SAPAV12@XZ 004180a0 f   foundation_win32.release:coreserver.obj
 0001:000170e0       ?RegisterWithFactory@CoreServer@Core@@SA_NXZ 004180e0 f   foundation_win32.release:coreserver.obj
 0001:000171e0       ??0CoreServer@Core@@QAE@XZ 004181e0 f   foundation_win32.release:coreserver.obj
 0001:000172d0       ??_ECoreServer@Core@@UAEPAXI@Z 004182d0 f i  CIL library: CIL module
 0001:000172d0       ??_GCoreServer@Core@@UAEPAXI@Z 004182d0 f i foundation_win32.release:coreserver.obj
 0001:00017300       ??1CoreServer@Core@@UAE@XZ 00418300 f   foundation_win32.release:coreserver.obj
 0001:00017380       ?Open@CoreServer@Core@@QAEXXZ 00418380 f   foundation_win32.release:coreserver.obj
 0001:000173e0       ?Close@CoreServer@Core@@QAEXXZ 004183e0 f   foundation_win32.release:coreserver.obj
 0001:00017430       ?Trigger@CoreServer@Core@@QAEXXZ 00418430 f   foundation_win32.release:coreserver.obj
 0001:00017450       ??0?$Ptr@VConsole@IO@@@@QAE@XZ 00418450 f i foundation_win32.release:coreserver.obj
 0001:00017470       ??1?$Ptr@VConsole@IO@@@@QAE@XZ 00418470 f i foundation_win32.release:coreserver.obj
 0001:000174a0       ??4?$Ptr@VConsole@IO@@@@QAEXPAVConsole@IO@@@Z 004184a0 f i foundation_win32.release:coreserver.obj
 0001:00017500       ??C?$Ptr@VConsole@IO@@@@QBEPAVConsole@IO@@XZ 00418500 f i foundation_win32.release:coreserver.obj
 0001:00017540       ??2Console@IO@@SAPAXI@Z    00418540 f i foundation_win32.release:console.obj
 0001:00017550       ??3Console@IO@@SAXPAX@Z    00418550 f i foundation_win32.release:console.obj
 0001:00017570       ?IsOpen@Console@IO@@QBE_NXZ 00418570 f i foundation_win32.release:console.obj
 0001:00017590       ?GetRtti@Console@IO@@UBEPAVRtti@Core@@XZ 00418590 f   foundation_win32.release:console.obj
 0001:000175a0       ?FactoryCreator@Console@IO@@SAPAVRefCounted@Core@@XZ 004185a0 f   foundation_win32.release:console.obj
 0001:000175b0       ?Create@Console@IO@@SAPAV12@XZ 004185b0 f   foundation_win32.release:console.obj
 0001:000175f0       ?RegisterWithFactory@Console@IO@@SA_NXZ 004185f0 f   foundation_win32.release:console.obj
 0001:000176f0       ??0Console@IO@@QAE@XZ      004186f0 f   foundation_win32.release:console.obj
 0001:00017770       ??_EConsole@IO@@UAEPAXI@Z  00418770 f i  CIL library: CIL module
 0001:00017770       ??_GConsole@IO@@UAEPAXI@Z  00418770 f i foundation_win32.release:console.obj
 0001:000177a0       ??1Console@IO@@UAE@XZ      004187a0 f   foundation_win32.release:console.obj
 0001:00017850       ?Open@Console@IO@@QAEXXZ   00418850 f   foundation_win32.release:console.obj
 0001:000178e0       ?Close@Console@IO@@QAEXXZ  004188e0 f   foundation_win32.release:console.obj
 0001:00017980       ?Update@Console@IO@@QAEXXZ 00418980 f   foundation_win32.release:console.obj
 0001:00017a30       ?AttachHandler@Console@IO@@QAEXABV?$Ptr@VConsoleHandler@IO@@@@@Z 00418a30 f   foundation_win32.release:console.obj
 0001:00017ac0       ?RemoveHandler@Console@IO@@QAEXABV?$Ptr@VConsoleHandler@IO@@@@@Z 00418ac0 f   foundation_win32.release:console.obj
 0001:00017b90       ?HasInput@Console@IO@@QBE_NXZ 00418b90 f   foundation_win32.release:console.obj
 0001:00017c60       ?GetInput@Console@IO@@QBE?AVString@Util@@XZ 00418c60 f   foundation_win32.release:console.obj
 0001:00017df0       ?Print@Console@IO@@QAAXPBDZZ 00418df0 f   foundation_win32.release:console.obj
 0001:00017e50       ?Print@Console@IO@@QAAXPBDPAD@Z 00418e50 f   foundation_win32.release:console.obj
 0001:00017f40       ?Print@Console@IO@@QAEXABVString@Util@@@Z 00418f40 f   foundation_win32.release:console.obj
 0001:00018000       ?Error@Console@IO@@QAAXPBDZZ 00419000 f   foundation_win32.release:console.obj
 0001:00018060       ?Error@Console@IO@@QAAXPBDPAD@Z 00419060 f   foundation_win32.release:console.obj
 0001:00018150       ?DebugOut@Console@IO@@QAAXPBDZZ 00419150 f   foundation_win32.release:console.obj
 0001:000181b0       ?DebugOut@Console@IO@@QAAXPBDPAD@Z 004191b0 f   foundation_win32.release:console.obj
 0001:000182a0       ?Warning@Console@IO@@QAAXPBDZZ 004192a0 f   foundation_win32.release:console.obj
 0001:00018300       ?Warning@Console@IO@@QAAXPBDPAD@Z 00419300 f   foundation_win32.release:console.obj
 0001:000183f0       ?Confirm@Console@IO@@QAAXPBDZZ 004193f0 f   foundation_win32.release:console.obj
 0001:00018450       ?Confirm@Console@IO@@QAAXPBDPAD@Z 00419450 f   foundation_win32.release:console.obj
 0001:00018540       ??0?$Array@V?$Ptr@VConsoleHandler@IO@@@@@Util@@QAE@XZ 00419540 f i foundation_win32.release:console.obj
 0001:00018580       ??1?$Array@V?$Ptr@VConsoleHandler@IO@@@@@Util@@QAE@XZ 00419580 f i foundation_win32.release:console.obj
 0001:000185a0       ??A?$Array@V?$Ptr@VConsoleHandler@IO@@@@@Util@@QBEAAV?$Ptr@VConsoleHandler@IO@@@@H@Z 004195a0 f i foundation_win32.release:console.obj
 0001:000185f0       ?Size@?$Array@V?$Ptr@VConsoleHandler@IO@@@@@Util@@QBEHXZ 004195f0 f i foundation_win32.release:console.obj
 0001:00018610       ?EraseIndex@?$Array@V?$Ptr@VConsoleHandler@IO@@@@@Util@@QAEXH@Z 00419610 f i foundation_win32.release:console.obj
 0001:00018690       ?Insert@?$Array@V?$Ptr@VConsoleHandler@IO@@@@@Util@@QAEXHABV?$Ptr@VConsoleHandler@IO@@@@@Z 00419690 f i foundation_win32.release:console.obj
 0001:00018700       ?FindIndex@?$Array@V?$Ptr@VConsoleHandler@IO@@@@@Util@@QBEHABV?$Ptr@VConsoleHandler@IO@@@@@Z 00419700 f i foundation_win32.release:console.obj
 0001:00018760       ??0?$Ptr@VConsoleHandler@IO@@@@QAE@PAVConsoleHandler@IO@@@Z 00419760 f i foundation_win32.release:console.obj
 0001:000187a0       ??C?$Ptr@VConsoleHandler@IO@@@@QBEPAVConsoleHandler@IO@@XZ 004197a0 f i foundation_win32.release:console.obj
 0001:000187e0       ?isvalid@?$Ptr@VConsoleHandler@IO@@@@QBE_NXZ 004197e0 f i foundation_win32.release:console.obj
 0001:00018800       ?Append@?$Array@V?$Ptr@VConsoleHandler@IO@@@@@Util@@QAEXABV?$Ptr@VConsoleHandler@IO@@@@@Z 00419800 f i foundation_win32.release:console.obj
 0001:00018880       ?Destroy@?$Array@V?$Ptr@VConsoleHandler@IO@@@@@Util@@AAEXPAV?$Ptr@VConsoleHandler@IO@@@@@Z 00419880 f i foundation_win32.release:console.obj
 0001:000188b0       ?Delete@?$Array@V?$Ptr@VConsoleHandler@IO@@@@@Util@@AAEXXZ 004198b0 f i foundation_win32.release:console.obj
 0001:00018920       ?Move@?$Array@V?$Ptr@VConsoleHandler@IO@@@@@Util@@AAEXHH@Z 00419920 f i foundation_win32.release:console.obj
 0001:00018ab0       ??4?$Ptr@VConsoleHandler@IO@@@@QAEXABV0@@Z 00419ab0 f i foundation_win32.release:console.obj
 0001:00018b10       ??8?$Ptr@VConsoleHandler@IO@@@@QBE_NABV0@@Z 00419b10 f i foundation_win32.release:console.obj
 0001:00018b30       ??_G?$Ptr@VConsoleHandler@IO@@@@QAEPAXI@Z 00419b30 f i foundation_win32.release:console.obj
 0001:00018b60       ?Grow@?$Array@V?$Ptr@VConsoleHandler@IO@@@@@Util@@AAEXXZ 00419b60 f i foundation_win32.release:console.obj
 0001:00018be0       ??0?$Ptr@VConsoleHandler@IO@@@@QAE@XZ 00419be0 f i foundation_win32.release:console.obj
 0001:00018c00       ?GrowTo@?$Array@V?$Ptr@VConsoleHandler@IO@@@@@Util@@AAEXH@Z 00419c00 f i foundation_win32.release:console.obj
 0001:00018d20       ?SetupHeaps@Memory@@YAXXZ  00419d20 f   foundation_win32.release:win360memoryconfig.obj
 0001:00018e80       ?GetHeapTypeName@Memory@@YAPBDW4HeapType@1@@Z 00419e80 f   foundation_win32.release:win360memoryconfig.obj
 0001:00018f40       ?SubstituteChar@String@Util@@QAEXDD@Z 00419f40 f i foundation_win32.release:assignregistry.obj
 0001:00018fb0       ?ConvertBackslashes@String@Util@@QAEXXZ 00419fb0 f i foundation_win32.release:assignregistry.obj
 0001:00019010       ??0Assign@IO@@QAE@XZ       0041a010 f i foundation_win32.release:assignregistry.obj
 0001:00019030       ??0Assign@IO@@QAE@ABVString@Util@@0@Z 0041a030 f i foundation_win32.release:assignregistry.obj
 0001:000190a0       ?GetName@Assign@IO@@QBEABVString@Util@@XZ 0041a0a0 f i foundation_win32.release:assignregistry.obj
 0001:000190e0       ??0URI@IO@@QAE@ABV01@@Z    0041a0e0 f i foundation_win32.release:assignregistry.obj
 0001:000193b0       ??2AssignRegistry@IO@@SAPAXI@Z 0041a3b0 f i foundation_win32.release:assignregistry.obj
 0001:000193c0       ??3AssignRegistry@IO@@SAXPAX@Z 0041a3c0 f i foundation_win32.release:assignregistry.obj
 0001:000193e0       ?AsString@StringAtom@Util@@QBE?AVString@2@XZ 0041a3e0 f i foundation_win32.release:assignregistry.obj
 0001:00019430       ?Instance@CoreServer@Core@@SAPAV12@XZ 0041a430 f i foundation_win32.release:assignregistry.obj
 0001:00019470       ?GetRootDirectory@CoreServer@Core@@QBEABVStringAtom@Util@@XZ 0041a470 f i foundation_win32.release:assignregistry.obj
 0001:00019490       ?GetRtti@AssignRegistry@IO@@UBEPAVRtti@Core@@XZ 0041a490 f   foundation_win32.release:assignregistry.obj
 0001:000194a0       ?FactoryCreator@AssignRegistry@IO@@SAPAVRefCounted@Core@@XZ 0041a4a0 f   foundation_win32.release:assignregistry.obj
 0001:000194b0       ?Create@AssignRegistry@IO@@SAPAV12@XZ 0041a4b0 f   foundation_win32.release:assignregistry.obj
 0001:000194f0       ?RegisterWithFactory@AssignRegistry@IO@@SA_NXZ 0041a4f0 f   foundation_win32.release:assignregistry.obj
 0001:000195f0       ??0AssignRegistry@IO@@QAE@XZ 0041a5f0 f   foundation_win32.release:assignregistry.obj
 0001:00019670       ??_EAssignRegistry@IO@@UAEPAXI@Z 0041a670 f i  CIL library: CIL module
 0001:00019670       ??_GAssignRegistry@IO@@UAEPAXI@Z 0041a670 f i foundation_win32.release:assignregistry.obj
 0001:000196a0       ??1?$HashTable@VString@Util@@V12@@Util@@QAE@XZ 0041a6a0 f i foundation_win32.release:assignregistry.obj
 0001:000196c0       ??1AssignRegistry@IO@@UAE@XZ 0041a6c0 f   foundation_win32.release:assignregistry.obj
 0001:00019730       ?Setup@AssignRegistry@IO@@QAEXXZ 0041a730 f   foundation_win32.release:assignregistry.obj
 0001:000197b0       ?Discard@AssignRegistry@IO@@QAEXXZ 0041a7b0 f   foundation_win32.release:assignregistry.obj
 0001:00019830       ?IsValid@AssignRegistry@IO@@QBE_NXZ 0041a830 f   foundation_win32.release:assignregistry.obj
 0001:00019850       ?SetupSystemAssigns@AssignRegistry@IO@@AAEXXZ 0041a850 f   foundation_win32.release:assignregistry.obj
 0001:00019ca0       ??1Assign@IO@@QAE@XZ       0041aca0 f i foundation_win32.release:assignregistry.obj
 0001:00019cd0       ?SetupProjectAssigns@AssignRegistry@IO@@AAEXXZ 0041acd0 f   foundation_win32.release:assignregistry.obj
 0001:0001ab10       ?SetAssign@AssignRegistry@IO@@QAEXABVAssign@2@@Z 0041bb10 f   foundation_win32.release:assignregistry.obj
 0001:0001ac00       ?HasAssign@AssignRegistry@IO@@QBE_NABVString@Util@@@Z 0041bc00 f   foundation_win32.release:assignregistry.obj
 0001:0001ac90       ?GetAssign@AssignRegistry@IO@@QBE?AVString@Util@@ABV34@@Z 0041bc90 f   foundation_win32.release:assignregistry.obj
 0001:0001ada0       ?ClearAssign@AssignRegistry@IO@@QAEXABVString@Util@@@Z 0041bda0 f   foundation_win32.release:assignregistry.obj
 0001:0001ae50       ?GetAllAssigns@AssignRegistry@IO@@QBE?AV?$Array@VAssign@IO@@@Util@@XZ 0041be50 f   foundation_win32.release:assignregistry.obj
 0001:0001af40       ?ResolveAssigns@AssignRegistry@IO@@QBE?AVURI@2@ABV32@@Z 0041bf40 f   foundation_win32.release:assignregistry.obj
 0001:0001b070       ?ResolveAssignsInString@AssignRegistry@IO@@QBE?AVString@Util@@ABV34@@Z 0041c070 f   foundation_win32.release:assignregistry.obj
 0001:0001b430       ?Value@?$KeyValuePair@VString@Util@@V12@@Util@@QAEAAVString@2@XZ 0041c430 f i foundation_win32.release:assignregistry.obj
 0001:0001b450       ?Key@?$KeyValuePair@VString@Util@@V12@@Util@@QBEABVString@2@XZ 0041c450 f i foundation_win32.release:assignregistry.obj
 0001:0001b460       ??1?$FixedArray@V?$Array@V?$KeyValuePair@VString@Util@@V12@@Util@@@Util@@@Util@@QAE@XZ 0041c460 f i foundation_win32.release:assignregistry.obj
 0001:0001b480       ??0?$HashTable@VString@Util@@V12@@Util@@QAE@XZ 0041c480 f i foundation_win32.release:assignregistry.obj
 0001:0001b4b0       ??A?$HashTable@VString@Util@@V12@@Util@@QBEAAVString@1@ABV21@@Z 0041c4b0 f i foundation_win32.release:assignregistry.obj
 0001:0001b590       ?Clear@?$HashTable@VString@Util@@V12@@Util@@QAEXXZ 0041c590 f i foundation_win32.release:assignregistry.obj
 0001:0001b5f0       ?Add@?$HashTable@VString@Util@@V12@@Util@@QAEXABV?$KeyValuePair@VString@Util@@V12@@2@@Z 0041c5f0 f i foundation_win32.release:assignregistry.obj
 0001:0001b680       ?Erase@?$HashTable@VString@Util@@V12@@Util@@QAEXABVString@2@@Z 0041c680 f i foundation_win32.release:assignregistry.obj
 0001:0001b740       ?Contains@?$HashTable@VString@Util@@V12@@Util@@QBE_NABVString@2@@Z 0041c740 f i foundation_win32.release:assignregistry.obj
 0001:0001b7c0       ?Content@?$HashTable@VString@Util@@V12@@Util@@QBE?AV?$Array@V?$KeyValuePair@VString@Util@@V12@@Util@@@2@XZ 0041c7c0 f i foundation_win32.release:assignregistry.obj
 0001:0001b850       ??0?$Array@VAssign@IO@@@Util@@QAE@ABV01@@Z 0041c850 f i foundation_win32.release:assignregistry.obj
 0001:0001b8a0       ??0?$Array@VAssign@IO@@@Util@@QAE@HH@Z 0041c8a0 f i foundation_win32.release:assignregistry.obj
 0001:0001b990       ??1?$Array@VAssign@IO@@@Util@@QAE@XZ 0041c990 f i foundation_win32.release:assignregistry.obj
 0001:0001b9b0       ?Append@?$Array@VAssign@IO@@@Util@@QAEXABVAssign@IO@@@Z 0041c9b0 f i foundation_win32.release:assignregistry.obj
 0001:0001ba30       ??A?$Array@V?$KeyValuePair@VString@Util@@V12@@Util@@@Util@@QBEAAV?$KeyValuePair@VString@Util@@V12@@1@H@Z 0041ca30 f i foundation_win32.release:assignregistry.obj
 0001:0001ba80       ??_EAssign@IO@@QAEPAXI@Z   0041ca80 f i foundation_win32.release:assignregistry.obj
 0001:0001bb20       ??4Assign@IO@@QAEAAV01@ABV01@@Z 0041cb20 f i foundation_win32.release:assignregistry.obj
 0001:0001bb40       ??0?$KeyValuePair@VString@Util@@V12@@Util@@QAE@ABVString@1@@Z 0041cb40 f i foundation_win32.release:assignregistry.obj
 0001:0001bbd0       ??0?$FixedArray@V?$Array@V?$KeyValuePair@VString@Util@@V12@@Util@@@Util@@@Util@@QAE@H@Z 0041cbd0 f i foundation_win32.release:assignregistry.obj
 0001:0001bc00       ??A?$FixedArray@V?$Array@V?$KeyValuePair@VString@Util@@V12@@Util@@@Util@@@Util@@QBEAAV?$Array@V?$KeyValuePair@VString@Util@@V12@@Util@@@1@H@Z 0041cc00 f i foundation_win32.release:assignregistry.obj
 0001:0001bc50       ?Size@?$FixedArray@V?$Array@V?$KeyValuePair@VString@Util@@V12@@Util@@@Util@@@Util@@QBEHXZ 0041cc50 f i foundation_win32.release:assignregistry.obj
 0001:0001bc60       ?Delete@?$FixedArray@V?$Array@V?$KeyValuePair@VString@Util@@V12@@Util@@@Util@@@Util@@AAEXXZ 0041cc60 f i foundation_win32.release:assignregistry.obj
 0001:0001bcc0       ?AppendArray@?$Array@V?$KeyValuePair@VString@Util@@V12@@Util@@@Util@@QAEXABV12@@Z 0041ccc0 f i foundation_win32.release:assignregistry.obj
 0001:0001bd10       ?EraseIndex@?$Array@V?$KeyValuePair@VString@Util@@V12@@Util@@@Util@@QAEXH@Z 0041cd10 f i foundation_win32.release:assignregistry.obj
 0001:0001bd90       ?Clear@?$Array@V?$KeyValuePair@VString@Util@@V12@@Util@@@Util@@QAEXXZ 0041cd90 f i foundation_win32.release:assignregistry.obj
 0001:0001bde0       ?BinarySearchIndex@?$Array@V?$KeyValuePair@VString@Util@@V12@@Util@@@Util@@QBEHABV?$KeyValuePair@VString@Util@@V12@@2@@Z 0041cde0 f i foundation_win32.release:assignregistry.obj
 0001:0001bf10       ?Copy@?$Array@VAssign@IO@@@Util@@AAEXABV12@@Z 0041cf10 f i foundation_win32.release:assignregistry.obj
 0001:0001c050       ?Delete@?$Array@VAssign@IO@@@Util@@AAEXXZ 0041d050 f i foundation_win32.release:assignregistry.obj
 0001:0001c0c0       ?Grow@?$Array@VAssign@IO@@@Util@@AAEXXZ 0041d0c0 f i foundation_win32.release:assignregistry.obj
 0001:0001c140       ??_E?$Array@V?$KeyValuePair@VString@Util@@V12@@Util@@@Util@@QAEPAXI@Z 0041d140 f i foundation_win32.release:assignregistry.obj
 0001:0001c1e0       ?Alloc@?$FixedArray@V?$Array@V?$KeyValuePair@VString@Util@@V12@@Util@@@Util@@@Util@@AAEXH@Z 0041d1e0 f i foundation_win32.release:assignregistry.obj
 0001:0001c2b0       ?GrowTo@?$Array@VAssign@IO@@@Util@@AAEXH@Z 0041d2b0 f i foundation_win32.release:assignregistry.obj
 0001:0001c480       ??0Win360FileTime@Win360@@QAE@XZ 0041d480 f i foundation_win32.release:win360fswrapper.obj
 0001:0001c4b0       ?OpenFile@Win360FSWrapper@Win360@@SAPAXABVString@Util@@W4AccessMode@Stream@IO@@W4AccessPattern@67@K@Z 0041d4b0 f   foundation_win32.release:win360fswrapper.obj
 0001:0001c610       ?CloseFile@Win360FSWrapper@Win360@@SAXPAX@Z 0041d610 f   foundation_win32.release:win360fswrapper.obj
 0001:0001c640       ?Write@Win360FSWrapper@Win360@@SAXPAXPBXH@Z 0041d640 f   foundation_win32.release:win360fswrapper.obj
 0001:0001c6d0       ?Read@Win360FSWrapper@Win360@@SAHPAX0H@Z 0041d6d0 f   foundation_win32.release:win360fswrapper.obj
 0001:0001c770       ?Seek@Win360FSWrapper@Win360@@SAXPAXHW4SeekOrigin@Stream@IO@@@Z 0041d770 f   foundation_win32.release:win360fswrapper.obj
 0001:0001c7f0       ?Tell@Win360FSWrapper@Win360@@SAHPAX@Z 0041d7f0 f   foundation_win32.release:win360fswrapper.obj
 0001:0001c830       ?Flush@Win360FSWrapper@Win360@@SAXPAX@Z 0041d830 f   foundation_win32.release:win360fswrapper.obj
 0001:0001c860       ?Eof@Win360FSWrapper@Win360@@SA_NPAX@Z 0041d860 f   foundation_win32.release:win360fswrapper.obj
 0001:0001c8c0       ?GetFileSize@Win360FSWrapper@Win360@@SAHPAX@Z 0041d8c0 f   foundation_win32.release:win360fswrapper.obj
 0001:0001c8f0       ?SetReadOnly@Win360FSWrapper@Win360@@SAXABVString@Util@@_N@Z 0041d8f0 f   foundation_win32.release:win360fswrapper.obj
 0001:0001c9c0       ?IsReadOnly@Win360FSWrapper@Win360@@SA_NABVString@Util@@@Z 0041d9c0 f   foundation_win32.release:win360fswrapper.obj
 0001:0001ca30       ?DeleteFile@Win360FSWrapper@Win360@@SA_NABVString@Util@@@Z 0041da30 f   foundation_win32.release:win360fswrapper.obj
 0001:0001caa0       ?DeleteDirectory@Win360FSWrapper@Win360@@SA_NABVString@Util@@@Z 0041daa0 f   foundation_win32.release:win360fswrapper.obj
 0001:0001cb10       ?FileExists@Win360FSWrapper@Win360@@SA_NABVString@Util@@@Z 0041db10 f   foundation_win32.release:win360fswrapper.obj
 0001:0001cb90       ?DirectoryExists@Win360FSWrapper@Win360@@SA_NABVString@Util@@@Z 0041db90 f   foundation_win32.release:win360fswrapper.obj
 0001:0001cc10       ?SetFileWriteTime@Win360FSWrapper@Win360@@SAXABVString@Util@@VWin360FileTime@2@@Z 0041dc10 f   foundation_win32.release:win360fswrapper.obj
 0001:0001ccb0       ?GetFileWriteTime@Win360FSWrapper@Win360@@SA?AVWin360FileTime@2@ABVString@Util@@@Z 0041dcb0 f   foundation_win32.release:win360fswrapper.obj
 0001:0001cd40       ?CreateDirectoryA@Win360FSWrapper@Win360@@SA_NABVString@Util@@@Z 0041dd40 f   foundation_win32.release:win360fswrapper.obj
 0001:0001cdb0       ?ListFiles@Win360FSWrapper@Win360@@SA?AV?$Array@VString@Util@@@Util@@ABVString@4@0@Z 0041ddb0 f   foundation_win32.release:win360fswrapper.obj
 0001:0001d000       ?ListDirectories@Win360FSWrapper@Win360@@SA?AV?$Array@VString@Util@@@Util@@ABVString@4@0@Z 0041e000 f   foundation_win32.release:win360fswrapper.obj
 0001:0001d3b0       ?GetUserDirectory@Win360FSWrapper@Win360@@SA?AVString@Util@@XZ 0041e3b0 f   foundation_win32.release:win360fswrapper.obj
 0001:0001d4e0       ?GetAppDataDirectory@Win360FSWrapper@Win360@@SA?AVString@Util@@XZ 0041e4e0 f   foundation_win32.release:win360fswrapper.obj
 0001:0001d610       ?GetProgramsDirectory@Win360FSWrapper@Win360@@SA?AVString@Util@@XZ 0041e610 f   foundation_win32.release:win360fswrapper.obj
 0001:0001d740       ?GetTempDirectory@Win360FSWrapper@Win360@@SA?AVString@Util@@XZ 0041e740 f   foundation_win32.release:win360fswrapper.obj
 0001:0001d8d0       ?GetBinDirectory@Win360FSWrapper@Win360@@SA?AVString@Util@@XZ 0041e8d0 f   foundation_win32.release:win360fswrapper.obj
 0001:0001db00       ?GetHomeDirectory@Win360FSWrapper@Win360@@SA?AVString@Util@@XZ 0041eb00 f   foundation_win32.release:win360fswrapper.obj
 0001:0001de70       ?IsDeviceName@Win360FSWrapper@Win360@@SA_NABVString@Util@@@Z 0041ee70 f   foundation_win32.release:win360fswrapper.obj
 0001:0001df00       ??2SchemeRegistry@IO@@SAPAXI@Z 0041ef00 f i foundation_win32.release:schemeregistry.obj
 0001:0001df10       ??3SchemeRegistry@IO@@SAXPAX@Z 0041ef10 f i foundation_win32.release:schemeregistry.obj
 0001:0001df30       ?GetRtti@SchemeRegistry@IO@@UBEPAVRtti@Core@@XZ 0041ef30 f   foundation_win32.release:schemeregistry.obj
 0001:0001df40       ?FactoryCreator@SchemeRegistry@IO@@SAPAVRefCounted@Core@@XZ 0041ef40 f   foundation_win32.release:schemeregistry.obj
 0001:0001df50       ?Create@SchemeRegistry@IO@@SAPAV12@XZ 0041ef50 f   foundation_win32.release:schemeregistry.obj
 0001:0001df90       ?RegisterWithFactory@SchemeRegistry@IO@@SA_NXZ 0041ef90 f   foundation_win32.release:schemeregistry.obj
 0001:0001e090       ??0SchemeRegistry@IO@@QAE@XZ 0041f090 f   foundation_win32.release:schemeregistry.obj
 0001:0001e110       ??_ESchemeRegistry@IO@@UAEPAXI@Z 0041f110 f i  CIL library: CIL module
 0001:0001e110       ??_GSchemeRegistry@IO@@UAEPAXI@Z 0041f110 f i foundation_win32.release:schemeregistry.obj
 0001:0001e140       ??1?$Dictionary@VString@Util@@PBVRtti@Core@@@Util@@QAE@XZ 0041f140 f i foundation_win32.release:schemeregistry.obj
 0001:0001e160       ??1SchemeRegistry@IO@@UAE@XZ 0041f160 f   foundation_win32.release:schemeregistry.obj
 0001:0001e1d0       ?Setup@SchemeRegistry@IO@@QAEXXZ 0041f1d0 f   foundation_win32.release:schemeregistry.obj
 0001:0001e250       ?Discard@SchemeRegistry@IO@@QAEXXZ 0041f250 f   foundation_win32.release:schemeregistry.obj
 0001:0001e2d0       ?IsValid@SchemeRegistry@IO@@QBE_NXZ 0041f2d0 f   foundation_win32.release:schemeregistry.obj
 0001:0001e2f0       ?RegisterUriScheme@SchemeRegistry@IO@@QAEXABVString@Util@@ABVRtti@Core@@@Z 0041f2f0 f   foundation_win32.release:schemeregistry.obj
 0001:0001e3c0       ?UnregisterUriScheme@SchemeRegistry@IO@@QAEXABVString@Util@@@Z 0041f3c0 f   foundation_win32.release:schemeregistry.obj
 0001:0001e470       ?IsUriSchemeRegistered@SchemeRegistry@IO@@QBE_NABVString@Util@@@Z 0041f470 f   foundation_win32.release:schemeregistry.obj
 0001:0001e4f0       ?GetStreamClassByUriScheme@SchemeRegistry@IO@@QBEABVRtti@Core@@ABVString@Util@@@Z 0041f4f0 f   foundation_win32.release:schemeregistry.obj
 0001:0001e580       ?GetAllRegisteredUriSchemes@SchemeRegistry@IO@@QBE?AV?$Array@VString@Util@@@Util@@XZ 0041f580 f   foundation_win32.release:schemeregistry.obj
 0001:0001e5f0       ?SetupStandardSchemes@SchemeRegistry@IO@@AAEXXZ 0041f5f0 f   foundation_win32.release:schemeregistry.obj
 0001:0001e730       ??0?$Dictionary@VString@Util@@PBVRtti@Core@@@Util@@QAE@XZ 0041f730 f i foundation_win32.release:schemeregistry.obj
 0001:0001e750       ??A?$Dictionary@VString@Util@@PBVRtti@Core@@@Util@@QBEABQBVRtti@Core@@ABVString@1@@Z 0041f750 f i foundation_win32.release:schemeregistry.obj
 0001:0001e7a0       ?Clear@?$Dictionary@VString@Util@@PBVRtti@Core@@@Util@@QAEXXZ 0041f7a0 f i foundation_win32.release:schemeregistry.obj
 0001:0001e7e0       ?Add@?$Dictionary@VString@Util@@PBVRtti@Core@@@Util@@QAEXABVString@2@ABQBVRtti@Core@@@Z 0041f7e0 f i foundation_win32.release:schemeregistry.obj
 0001:0001e830       ?Erase@?$Dictionary@VString@Util@@PBVRtti@Core@@@Util@@QAEXABVString@2@@Z 0041f830 f i foundation_win32.release:schemeregistry.obj
 0001:0001e8e0       ?Contains@?$Dictionary@VString@Util@@PBVRtti@Core@@@Util@@QBE_NABVString@2@@Z 0041f8e0 f i foundation_win32.release:schemeregistry.obj
 0001:0001e970       ?KeysAsArray@?$Dictionary@VString@Util@@PBVRtti@Core@@@Util@@QBE?AV?$Array@VString@Util@@@2@XZ 0041f970 f i foundation_win32.release:schemeregistry.obj
 0001:0001e990       ?EraseIndex@?$Array@V?$KeyValuePair@VString@Util@@PBVRtti@Core@@@Util@@@Util@@QAEXH@Z 0041f990 f i foundation_win32.release:schemeregistry.obj
 0001:0001ea10       ?FindIndex@?$Dictionary@VString@Util@@PBVRtti@Core@@@Util@@QBEHABVString@2@@Z 0041fa10 f i foundation_win32.release:schemeregistry.obj
 0001:0001ea90       ??$KeysAs@V?$Array@VString@Util@@@Util@@@?$Dictionary@VString@Util@@PBVRtti@Core@@@Util@@QBE?AV?$Array@VString@Util@@@1@XZ 0041fa90 f i foundation_win32.release:schemeregistry.obj
 0001:0001eb30       ?Size@?$Dictionary@VString@Util@@PBVRtti@Core@@@Util@@QBEHXZ 0041fb30 f i foundation_win32.release:schemeregistry.obj
 0001:0001eb50       ??2ArchiveFileSystem@IO@@SAPAXI@Z 0041fb50 f i foundation_win32.release:archivefilesystem.obj
 0001:0001eb60       ??3ArchiveFileSystem@IO@@SAXPAX@Z 0041fb60 f i foundation_win32.release:archivefilesystem.obj
 0001:0001eb80       ?GetRtti@ArchiveFileSystem@IO@@UBEPAVRtti@Core@@XZ 0041fb80 f   foundation_win32.release:archivefilesystem.obj
 0001:0001eb90       ?FactoryCreator@ArchiveFileSystem@IO@@SAPAVRefCounted@Core@@XZ 0041fb90 f   foundation_win32.release:archivefilesystem.obj
 0001:0001eba0       ?Create@ArchiveFileSystem@IO@@SAPAV12@XZ 0041fba0 f   foundation_win32.release:archivefilesystem.obj
 0001:0001ebe0       ?RegisterWithFactory@ArchiveFileSystem@IO@@SA_NXZ 0041fbe0 f   foundation_win32.release:archivefilesystem.obj
 0001:0001ece0       ??0ArchiveFileSystem@IO@@QAE@XZ 0041fce0 f   foundation_win32.release:archivefilesystem.obj
 0001:0001ed30       ??_GArchiveFileSystem@IO@@UAEPAXI@Z 0041fd30 f i foundation_win32.release:archivefilesystem.obj
 0001:0001ed30       ??_EArchiveFileSystem@IO@@UAEPAXI@Z 0041fd30 f i  CIL library: CIL module
 0001:0001ed60       ??1ArchiveFileSystem@IO@@UAE@XZ 0041fd60 f   foundation_win32.release:archivefilesystem.obj
 0001:0001edb0       ?GetNumCpuCores@SystemInfoBase@Base@@QBEHXZ 0041fdb0 f i foundation_win32.release:win360criticalsection.obj
 0001:0001edd0       ??0Win360CriticalSection@Win360@@QAE@XZ 0041fdd0 f   foundation_win32.release:win360criticalsection.obj
 0001:0001ee40       ??1Win360CriticalSection@Win360@@QAE@XZ 0041fe40 f   foundation_win32.release:win360criticalsection.obj
 0001:0001ee70       ?IsValid@ArchiveFileSystemBase@IO@@QBE_NXZ 0041fe70 f i foundation_win32.release:zipfilesystem.obj
 0001:0001ee90       ??2ZipFileSystem@IO@@SAPAXI@Z 0041fe90 f i foundation_win32.release:zipfilesystem.obj
 0001:0001eea0       ??3ZipFileSystem@IO@@SAXPAX@Z 0041fea0 f i foundation_win32.release:zipfilesystem.obj
 0001:0001eec0       ?GetRtti@ZipFileSystem@IO@@UBEPAVRtti@Core@@XZ 0041fec0 f   foundation_win32.release:zipfilesystem.obj
 0001:0001eed0       ?FactoryCreator@ZipFileSystem@IO@@SAPAVRefCounted@Core@@XZ 0041fed0 f   foundation_win32.release:zipfilesystem.obj
 0001:0001eee0       ?Create@ZipFileSystem@IO@@SAPAV12@XZ 0041fee0 f   foundation_win32.release:zipfilesystem.obj
 0001:0001ef20       ?RegisterWithFactory@ZipFileSystem@IO@@SA_NXZ 0041ff20 f   foundation_win32.release:zipfilesystem.obj
 0001:0001f020       ??0ZipFileSystem@IO@@QAE@XZ 00420020 f   foundation_win32.release:zipfilesystem.obj
 0001:0001f070       ??_EZipFileSystem@IO@@UAEPAXI@Z 00420070 f i  CIL library: CIL module
 0001:0001f070       ??_GZipFileSystem@IO@@UAEPAXI@Z 00420070 f i foundation_win32.release:zipfilesystem.obj
 0001:0001f0a0       ??1ZipFileSystem@IO@@UAE@XZ 004200a0 f   foundation_win32.release:zipfilesystem.obj
 0001:0001f100       ?Setup@ZipFileSystem@IO@@QAEXXZ 00420100 f   foundation_win32.release:zipfilesystem.obj
 0001:0001f1c0       ?Discard@ZipFileSystem@IO@@QAEXXZ 004201c0 f   foundation_win32.release:zipfilesystem.obj
 0001:0001f280       ?FindArchiveWithFile@ZipFileSystem@IO@@UBE?AV?$Ptr@VArchive@IO@@@@ABVURI@2@@Z 00420280 f   foundation_win32.release:zipfilesystem.obj
 0001:0001f4a0       ?FindArchiveWithDir@ZipFileSystem@IO@@UBE?AV?$Ptr@VArchive@IO@@@@ABVURI@2@@Z 004204a0 f   foundation_win32.release:zipfilesystem.obj
 0001:0001f6c0       ?Size@?$Dictionary@VString@Util@@V?$Ptr@VArchive@IO@@@@@Util@@QBEHXZ 004206c0 f i foundation_win32.release:zipfilesystem.obj
 0001:0001f6e0       ?ValueAtIndex@?$Dictionary@VString@Util@@V?$Ptr@VArchive@IO@@@@@Util@@QBEABV?$Ptr@VArchive@IO@@@@H@Z 004206e0 f i foundation_win32.release:zipfilesystem.obj
 0001:0001f730       ??0?$Ptr@VArchive@IO@@@@QAE@ABV0@@Z 00420730 f i foundation_win32.release:zipfilesystem.obj
 0001:0001f770       ??0?$Ptr@VZipArchive@IO@@@@QAE@XZ 00420770 f i foundation_win32.release:zipfilesystem.obj
 0001:0001f790       ??1?$Ptr@VZipArchive@IO@@@@QAE@XZ 00420790 f i foundation_win32.release:zipfilesystem.obj
 0001:0001f7c0       ??4?$Ptr@VZipArchive@IO@@@@QAEXABV0@@Z 004207c0 f i foundation_win32.release:zipfilesystem.obj
 0001:0001f820       ??C?$Ptr@VZipArchive@IO@@@@QBEPAVZipArchive@IO@@XZ 00420820 f i foundation_win32.release:zipfilesystem.obj
 0001:0001f860       ?isvalid@?$Ptr@VZipArchive@IO@@@@QBE_NXZ 00420860 f i foundation_win32.release:zipfilesystem.obj
 0001:0001f880       ??$cast@VZipArchive@IO@@@?$Ptr@VArchive@IO@@@@QBEABV?$Ptr@VZipArchive@IO@@@@XZ 00420880 f i foundation_win32.release:zipfilesystem.obj
 0001:0001f890       ??$cast@VArchive@IO@@@?$Ptr@VZipArchive@IO@@@@QBEABV?$Ptr@VArchive@IO@@@@XZ 00420890 f i foundation_win32.release:zipfilesystem.obj
 0001:0001f8a0       ??A?$Array@V?$KeyValuePair@VString@Util@@V?$Ptr@VArchive@IO@@@@@Util@@@Util@@QBEAAV?$KeyValuePair@VString@Util@@V?$Ptr@VArchive@IO@@@@@1@H@Z 004208a0 f i foundation_win32.release:zipfilesystem.obj
 0001:0001f8f0       ?Size@?$Array@V?$KeyValuePair@VString@Util@@V?$Ptr@VArchive@IO@@@@@Util@@@Util@@QBEHXZ 004208f0 f i foundation_win32.release:zipfilesystem.obj
 0001:0001f910       ?Value@?$KeyValuePair@VString@Util@@V?$Ptr@VArchive@IO@@@@@Util@@QAEAAV?$Ptr@VArchive@IO@@@@XZ 00420910 f i foundation_win32.release:zipfilesystem.obj
 0001:0001f930       ??2ArchiveFileSystemBase@IO@@SAPAXI@Z 00420930 f i foundation_win32.release:archivefilesystembase.obj
 0001:0001f940       ??3ArchiveFileSystemBase@IO@@SAXPAX@Z 00420940 f i foundation_win32.release:archivefilesystembase.obj
 0001:0001f960       ?GetURI@ArchiveBase@IO@@QBEABVURI@2@XZ 00420960 f i foundation_win32.release:archivefilesystembase.obj
 0001:0001f980       ?GetRtti@ArchiveFileSystemBase@IO@@UBEPAVRtti@Core@@XZ 00420980 f   foundation_win32.release:archivefilesystembase.obj
 0001:0001f990       ?FactoryCreator@ArchiveFileSystemBase@IO@@SAPAVRefCounted@Core@@XZ 00420990 f   foundation_win32.release:archivefilesystembase.obj
 0001:0001f9a0       ?Create@ArchiveFileSystemBase@IO@@SAPAV12@XZ 004209a0 f   foundation_win32.release:archivefilesystembase.obj
 0001:0001f9e0       ?RegisterWithFactory@ArchiveFileSystemBase@IO@@SA_NXZ 004209e0 f   foundation_win32.release:archivefilesystembase.obj
 0001:0001fae0       ??0ArchiveFileSystemBase@IO@@QAE@XZ 00420ae0 f   foundation_win32.release:archivefilesystembase.obj
 0001:0001fb60       ??_EArchiveFileSystemBase@IO@@UAEPAXI@Z 00420b60 f i  CIL library: CIL module
 0001:0001fb60       ??_GArchiveFileSystemBase@IO@@UAEPAXI@Z 00420b60 f i foundation_win32.release:archivefilesystembase.obj
 0001:0001fb90       ??1?$Dictionary@VString@Util@@V?$Ptr@VArchive@IO@@@@@Util@@QAE@XZ 00420b90 f i foundation_win32.release:archivefilesystembase.obj
 0001:0001fbb0       ??1ArchiveFileSystemBase@IO@@UAE@XZ 00420bb0 f   foundation_win32.release:archivefilesystembase.obj
 0001:0001fc30       ?Setup@ArchiveFileSystemBase@IO@@QAEXXZ 00420c30 f   foundation_win32.release:archivefilesystembase.obj
 0001:0001fc70       ?Discard@ArchiveFileSystemBase@IO@@QAEXXZ 00420c70 f   foundation_win32.release:archivefilesystembase.obj
 0001:0001fce0       ?Mount@ArchiveFileSystemBase@IO@@UAE?AV?$Ptr@VArchive@IO@@@@ABVURI@2@@Z 00420ce0 f   foundation_win32.release:archivefilesystembase.obj
 0001:0001fe90       ?Unmount@ArchiveFileSystemBase@IO@@UAEXABV?$Ptr@VArchive@IO@@@@@Z 00420e90 f   foundation_win32.release:archivefilesystembase.obj
 0001:00020020       ?Unmount@ArchiveFileSystemBase@IO@@UAEXABVURI@2@@Z 00421020 f   foundation_win32.release:archivefilesystembase.obj
 0001:000201b0       ?GetMountedArchives@ArchiveFileSystemBase@IO@@QBE?AV?$Array@V?$Ptr@VArchive@IO@@@@@Util@@XZ 004211b0 f   foundation_win32.release:archivefilesystembase.obj
 0001:00020220       ?FindArchive@ArchiveFileSystemBase@IO@@QBE?AV?$Ptr@VArchive@IO@@@@ABVURI@2@@Z 00421220 f   foundation_win32.release:archivefilesystembase.obj
 0001:00020390       ?IsMounted@ArchiveFileSystemBase@IO@@QBE_NABVURI@2@@Z 00421390 f   foundation_win32.release:archivefilesystembase.obj
 0001:000204d0       ?FindArchiveWithFile@ArchiveFileSystemBase@IO@@UBE?AV?$Ptr@VArchive@IO@@@@ABVURI@2@@Z 004214d0 f   foundation_win32.release:archivefilesystembase.obj
 0001:000204f0       ?FindArchiveWithDir@ArchiveFileSystemBase@IO@@UBE?AV?$Ptr@VArchive@IO@@@@ABVURI@2@@Z 004214f0 f   foundation_win32.release:archivefilesystembase.obj
 0001:00020510       ?ConvertFileToArchiveURIIfExists@ArchiveFileSystemBase@IO@@QBE?AVURI@2@ABV32@@Z 00421510 f   foundation_win32.release:archivefilesystembase.obj
 0001:000205a0       ?ConvertDirToArchiveURIIfExists@ArchiveFileSystemBase@IO@@QBE?AVURI@2@ABV32@@Z 004215a0 f   foundation_win32.release:archivefilesystembase.obj
 0001:00020630       ??1?$Array@V?$KeyValuePair@VString@Util@@V?$Ptr@VArchive@IO@@@@@Util@@@Util@@QAE@XZ 00421630 f i foundation_win32.release:archivefilesystembase.obj
 0001:00020650       ??0?$Dictionary@VString@Util@@V?$Ptr@VArchive@IO@@@@@Util@@QAE@XZ 00421650 f i foundation_win32.release:archivefilesystembase.obj
 0001:00020670       ??A?$Dictionary@VString@Util@@V?$Ptr@VArchive@IO@@@@@Util@@QAEAAV?$Ptr@VArchive@IO@@@@ABVString@1@@Z 00421670 f i foundation_win32.release:archivefilesystembase.obj
 0001:000206c0       ?IsEmpty@?$Dictionary@VString@Util@@V?$Ptr@VArchive@IO@@@@@Util@@QBE_NXZ 004216c0 f i foundation_win32.release:archivefilesystembase.obj
 0001:000206e0       ?Add@?$Dictionary@VString@Util@@V?$Ptr@VArchive@IO@@@@@Util@@QAEXABVString@2@ABV?$Ptr@VArchive@IO@@@@@Z 004216e0 f i foundation_win32.release:archivefilesystembase.obj
 0001:00020740       ?Erase@?$Dictionary@VString@Util@@V?$Ptr@VArchive@IO@@@@@Util@@QAEXABVString@2@@Z 00421740 f i foundation_win32.release:archivefilesystembase.obj
 0001:000207c0       ?FindIndex@?$Dictionary@VString@Util@@V?$Ptr@VArchive@IO@@@@@Util@@QBEHABVString@2@@Z 004217c0 f i foundation_win32.release:archivefilesystembase.obj
 0001:00020820       ?Contains@?$Dictionary@VString@Util@@V?$Ptr@VArchive@IO@@@@@Util@@QBE_NABVString@2@@Z 00421820 f i foundation_win32.release:archivefilesystembase.obj
 0001:00020880       ?ValueAtIndex@?$Dictionary@VString@Util@@V?$Ptr@VArchive@IO@@@@@Util@@QAEAAV?$Ptr@VArchive@IO@@@@H@Z 00421880 f i foundation_win32.release:archivefilesystembase.obj
 0001:000208d0       ?ValuesAsArray@?$Dictionary@VString@Util@@V?$Ptr@VArchive@IO@@@@@Util@@QBE?AV?$Array@V?$Ptr@VArchive@IO@@@@@2@XZ 004218d0 f i foundation_win32.release:archivefilesystembase.obj
 0001:000208f0       ??0?$Ptr@VArchive@IO@@@@QAE@PAVArchive@IO@@@Z 004218f0 f i foundation_win32.release:archivefilesystembase.obj
 0001:00020930       ??0?$Ptr@VArchive@IO@@@@QAE@XZ 00421930 f i foundation_win32.release:archivefilesystembase.obj
 0001:00020950       ??4?$Ptr@VArchive@IO@@@@QAEXPAVArchive@IO@@@Z 00421950 f i foundation_win32.release:archivefilesystembase.obj
 0001:000209b0       ??4?$Ptr@VArchive@IO@@@@QAEXABV0@@Z 004219b0 f i foundation_win32.release:archivefilesystembase.obj
 0001:00020a10       ??0?$Array@V?$Ptr@VArchive@IO@@@@@Util@@QAE@ABV01@@Z 00421a10 f i foundation_win32.release:archivefilesystembase.obj
 0001:00020a60       ??1?$Array@V?$Ptr@VArchive@IO@@@@@Util@@QAE@XZ 00421a60 f i foundation_win32.release:archivefilesystembase.obj
 0001:00020a80       ??1?$KeyValuePair@VString@Util@@V?$Ptr@VArchive@IO@@@@@Util@@QAE@XZ 00421a80 f i foundation_win32.release:archivefilesystembase.obj
 0001:00020ae0       ??0?$Array@V?$KeyValuePair@VString@Util@@V?$Ptr@VArchive@IO@@@@@Util@@@Util@@QAE@XZ 00421ae0 f i foundation_win32.release:archivefilesystembase.obj
 0001:00020b20       ?Append@?$Array@V?$KeyValuePair@VString@Util@@V?$Ptr@VArchive@IO@@@@@Util@@@Util@@QAEXABV?$KeyValuePair@VString@Util@@V?$Ptr@VArchive@IO@@@@@2@@Z 00421b20 f i foundation_win32.release:archivefilesystembase.obj
 0001:00020ba0       ?EraseIndex@?$Array@V?$KeyValuePair@VString@Util@@V?$Ptr@VArchive@IO@@@@@Util@@@Util@@QAEXH@Z 00421ba0 f i foundation_win32.release:archivefilesystembase.obj
 0001:00020c20       ?InsertSorted@?$Array@V?$KeyValuePair@VString@Util@@V?$Ptr@VArchive@IO@@@@@Util@@@Util@@QAEHABV?$KeyValuePair@VString@Util@@V?$Ptr@VArchive@IO@@@@@2@@Z 00421c20 f i foundation_win32.release:archivefilesystembase.obj
 0001:00020e90       ?BinarySearchIndex@?$Array@V?$KeyValuePair@VString@Util@@V?$Ptr@VArchive@IO@@@@@Util@@@Util@@QBEHABV?$KeyValuePair@VString@Util@@V?$Ptr@VArchive@IO@@@@@2@@Z 00421e90 f i foundation_win32.release:archivefilesystembase.obj
 0001:00020fc0       ?Delete@?$Array@V?$KeyValuePair@VString@Util@@V?$Ptr@VArchive@IO@@@@@Util@@@Util@@AAEXXZ 00421fc0 f i foundation_win32.release:archivefilesystembase.obj
 0001:00021030       ??0?$KeyValuePair@VString@Util@@V?$Ptr@VArchive@IO@@@@@Util@@QAE@ABVString@1@@Z 00422030 f i foundation_win32.release:archivefilesystembase.obj
 0001:000210a0       ??0?$KeyValuePair@VString@Util@@V?$Ptr@VArchive@IO@@@@@Util@@QAE@ABVString@1@ABV?$Ptr@VArchive@IO@@@@@Z 004220a0 f i foundation_win32.release:archivefilesystembase.obj
 0001:00021110       ??$ValuesAs@V?$Array@V?$Ptr@VArchive@IO@@@@@Util@@@?$Dictionary@VString@Util@@V?$Ptr@VArchive@IO@@@@@Util@@QBE?AV?$Array@V?$Ptr@VArchive@IO@@@@@1@XZ 00422110 f i foundation_win32.release:archivefilesystembase.obj
 0001:000211b0       ?Copy@?$Array@V?$Ptr@VArchive@IO@@@@@Util@@AAEXABV12@@Z 004221b0 f i foundation_win32.release:archivefilesystembase.obj
 0001:000212e0       ?Delete@?$Array@V?$Ptr@VArchive@IO@@@@@Util@@AAEXXZ 004222e0 f i foundation_win32.release:archivefilesystembase.obj
 0001:00021350       ??_E?$KeyValuePair@VString@Util@@V?$Ptr@VArchive@IO@@@@@Util@@QAEPAXI@Z 00422350 f i foundation_win32.release:archivefilesystembase.obj
 0001:000213f0       ??_E?$Ptr@VArchive@IO@@@@QAEPAXI@Z 004223f0 f i foundation_win32.release:archivefilesystembase.obj
 0001:00021490       ?Insert@?$Array@V?$KeyValuePair@VString@Util@@V?$Ptr@VArchive@IO@@@@@Util@@@Util@@QAEXHABV?$KeyValuePair@VString@Util@@V?$Ptr@VArchive@IO@@@@@2@@Z 00422490 f i foundation_win32.release:archivefilesystembase.obj
 0001:00021500       ?InsertAtEndOfIdenticalRange@?$Array@V?$KeyValuePair@VString@Util@@V?$Ptr@VArchive@IO@@@@@Util@@@Util@@QAEHHABV?$KeyValuePair@VString@Util@@V?$Ptr@VArchive@IO@@@@@2@@Z 00422500 f i foundation_win32.release:archivefilesystembase.obj
 0001:00021580       ?Destroy@?$Array@V?$KeyValuePair@VString@Util@@V?$Ptr@VArchive@IO@@@@@Util@@@Util@@AAEXPAV?$KeyValuePair@VString@Util@@V?$Ptr@VArchive@IO@@@@@2@@Z 00422580 f i foundation_win32.release:archivefilesystembase.obj
 0001:000215b0       ?Grow@?$Array@V?$KeyValuePair@VString@Util@@V?$Ptr@VArchive@IO@@@@@Util@@@Util@@AAEXXZ 004225b0 f i foundation_win32.release:archivefilesystembase.obj
 0001:00021630       ?Move@?$Array@V?$KeyValuePair@VString@Util@@V?$Ptr@VArchive@IO@@@@@Util@@@Util@@AAEXHH@Z 00422630 f i foundation_win32.release:archivefilesystembase.obj
 0001:000217c0       ??4?$KeyValuePair@VString@Util@@V?$Ptr@VArchive@IO@@@@@Util@@QAEXABV01@@Z 004227c0 f i foundation_win32.release:archivefilesystembase.obj
 0001:00021820       ??9?$KeyValuePair@VString@Util@@V?$Ptr@VArchive@IO@@@@@Util@@QBE_NABV01@@Z 00422820 f i foundation_win32.release:archivefilesystembase.obj
 0001:00021840       ??O?$KeyValuePair@VString@Util@@V?$Ptr@VArchive@IO@@@@@Util@@QBE_NABV01@@Z 00422840 f i foundation_win32.release:archivefilesystembase.obj
 0001:00021860       ??M?$KeyValuePair@VString@Util@@V?$Ptr@VArchive@IO@@@@@Util@@QBE_NABV01@@Z 00422860 f i foundation_win32.release:archivefilesystembase.obj
 0001:00021880       ??0?$Array@V?$Ptr@VArchive@IO@@@@@Util@@QAE@HH@Z 00422880 f i foundation_win32.release:archivefilesystembase.obj
 0001:00021970       ?Append@?$Array@V?$Ptr@VArchive@IO@@@@@Util@@QAEXABV?$Ptr@VArchive@IO@@@@@Z 00422970 f i foundation_win32.release:archivefilesystembase.obj
 0001:000219f0       ??_G?$KeyValuePair@VString@Util@@V?$Ptr@VArchive@IO@@@@@Util@@QAEPAXI@Z 004229f0 f i foundation_win32.release:archivefilesystembase.obj
 0001:00021a20       ?GrowTo@?$Array@V?$KeyValuePair@VString@Util@@V?$Ptr@VArchive@IO@@@@@Util@@@Util@@AAEXH@Z 00422a20 f i foundation_win32.release:archivefilesystembase.obj
 0001:00021b40       ?Grow@?$Array@V?$Ptr@VArchive@IO@@@@@Util@@AAEXXZ 00422b40 f i foundation_win32.release:archivefilesystembase.obj
 0001:00021bc0       ??0?$KeyValuePair@VString@Util@@V?$Ptr@VArchive@IO@@@@@Util@@QAE@XZ 00422bc0 f i foundation_win32.release:archivefilesystembase.obj
 0001:00021c00       ?GrowTo@?$Array@V?$Ptr@VArchive@IO@@@@@Util@@AAEXH@Z 00422c00 f i foundation_win32.release:archivefilesystembase.obj
 0001:00021d20       ??0MediaType@IO@@QAE@XZ    00422d20 f i foundation_win32.release:stream.obj
 0001:00021d90       ??4MediaType@IO@@QAEXABV01@@Z 00422d90 f i foundation_win32.release:stream.obj
 0001:00021e20       ??2Stream@IO@@SAPAXI@Z     00422e20 f i foundation_win32.release:stream.obj
 0001:00021e30       ??3Stream@IO@@SAXPAX@Z     00422e30 f i foundation_win32.release:stream.obj
 0001:00021e50       ?GetRtti@Stream@IO@@UBEPAVRtti@Core@@XZ 00422e50 f   foundation_win32.release:stream.obj
 0001:00021e60       ?FactoryCreator@Stream@IO@@SAPAVRefCounted@Core@@XZ 00422e60 f   foundation_win32.release:stream.obj
 0001:00021e70       ?Create@Stream@IO@@SAPAV12@XZ 00422e70 f   foundation_win32.release:stream.obj
 0001:00021eb0       ?RegisterWithFactory@Stream@IO@@SA_NXZ 00422eb0 f   foundation_win32.release:stream.obj
 0001:00021fb0       ??0Stream@IO@@QAE@XZ       00422fb0 f   foundation_win32.release:stream.obj
 0001:00022030       ??_GStream@IO@@UAEPAXI@Z   00423030 f i foundation_win32.release:stream.obj
 0001:00022030       ??_EStream@IO@@UAEPAXI@Z   00423030 f i  CIL library: CIL module
 0001:00022060       ??1MediaType@IO@@QAE@XZ    00423060 f i foundation_win32.release:stream.obj
 0001:000220f0       ??1Stream@IO@@UAE@XZ       004230f0 f   foundation_win32.release:stream.obj
 0001:00022170       ?SetURI@Stream@IO@@QAEXABVURI@2@@Z 00423170 f   foundation_win32.release:stream.obj
 0001:000221c0       ?GetURI@Stream@IO@@QBEABVURI@2@XZ 004231c0 f   foundation_win32.release:stream.obj
 0001:000221e0       ?CanRead@Stream@IO@@UBE_NXZ 004231e0 f   foundation_win32.release:stream.obj
 0001:000221f0       ?CanWrite@Stream@IO@@UBE_NXZ 004231f0 f   foundation_win32.release:stream.obj
 0001:00022200       ?CanSeek@Stream@IO@@UBE_NXZ 00423200 f   foundation_win32.release:stream.obj
 0001:00022210       ?CanBeMapped@Stream@IO@@UBE_NXZ 00423210 f   foundation_win32.release:stream.obj
 0001:00022220       ?SetSize@Stream@IO@@UAEXH@Z 00423220 f   foundation_win32.release:stream.obj
 0001:00022250       ?GetSize@Stream@IO@@UBEHXZ 00423250 f   foundation_win32.release:stream.obj
 0001:00022260       ?GetPosition@Stream@IO@@UBEHXZ 00423260 f   foundation_win32.release:stream.obj
 0001:00022270       ?SetAccessMode@Stream@IO@@QAEXW4AccessMode@12@@Z 00423270 f   foundation_win32.release:stream.obj
 0001:000222b0       ?GetAccessMode@Stream@IO@@QBE?AW4AccessMode@12@XZ 004232b0 f   foundation_win32.release:stream.obj
 0001:000222d0       ?SetAccessPattern@Stream@IO@@QAEXW4AccessPattern@12@@Z 004232d0 f   foundation_win32.release:stream.obj
 0001:00022310       ?GetAccessPattern@Stream@IO@@QBE?AW4AccessPattern@12@XZ 00423310 f   foundation_win32.release:stream.obj
 0001:00022330       ?SetMediaType@Stream@IO@@QAEXABVMediaType@2@@Z 00423330 f   foundation_win32.release:stream.obj
 0001:00022360       ?GetMediaType@Stream@IO@@QBEABVMediaType@2@XZ 00423360 f   foundation_win32.release:stream.obj
 0001:00022380       ?Open@Stream@IO@@UAE_NXZ   00423380 f   foundation_win32.release:stream.obj
 0001:000223c0       ?Close@Stream@IO@@UAEXXZ   004233c0 f   foundation_win32.release:stream.obj
 0001:00022400       ?IsOpen@Stream@IO@@QBE_NXZ 00423400 f   foundation_win32.release:stream.obj
 0001:00022420       ?Write@Stream@IO@@UAEXPBXH@Z 00423420 f   foundation_win32.release:stream.obj
 0001:00022480       ?Read@Stream@IO@@UAEHPAXH@Z 00423480 f   foundation_win32.release:stream.obj
 0001:000224e0       ?Seek@Stream@IO@@UAEXHW4SeekOrigin@12@@Z 004234e0 f   foundation_win32.release:stream.obj
 0001:00022540       ?Flush@Stream@IO@@UAEXXZ   00423540 f   foundation_win32.release:stream.obj
 0001:000225a0       ?Eof@Stream@IO@@UBE_NXZ    004235a0 f   foundation_win32.release:stream.obj
 0001:00022600       ?Map@Stream@IO@@UAEPAXXZ   00423600 f   foundation_win32.release:stream.obj
 0001:00022690       ?Unmap@Stream@IO@@UAEXXZ   00423690 f   foundation_win32.release:stream.obj
 0001:00022720       ?IsMapped@Stream@IO@@QBE_NXZ 00423720 f   foundation_win32.release:stream.obj
 0001:00022740       ??0SystemInfoBase@Base@@QAE@XZ 00423740 f   foundation_win32.release:systeminfobase.obj
 0001:00022780       ?PlatformAsString@SystemInfoBase@Base@@SA?AVString@Util@@W4Platform@12@@Z 00423780 f   foundation_win32.release:systeminfobase.obj
 0001:000228d0       ?CpuTypeAsString@SystemInfoBase@Base@@SA?AVString@Util@@W4CpuType@12@@Z 004238d0 f   foundation_win32.release:systeminfobase.obj
 0001:00022a60       ??0Win32SystemInfo@Win32@@QAE@XZ 00423a60 f   foundation_win32.release:win32systeminfo.obj
 0001:00022ae0       ??0Crc@Util@@QAE@XZ        00423ae0 f   foundation_win32.release:crc.obj
 0001:00022ba0       ?Begin@Crc@Util@@QAEXXZ    00423ba0 f   foundation_win32.release:crc.obj
 0001:00022be0       ?Compute@Crc@Util@@QAEXPAEI@Z 00423be0 f   foundation_win32.release:crc.obj
 0001:00022c60       ?End@Crc@Util@@QAEXXZ      00423c60 f   foundation_win32.release:crc.obj
 0001:00022ca0       ?GetResult@Crc@Util@@QBEIXZ 00423ca0 f   foundation_win32.release:crc.obj
 0001:00022cf0       ?IsValid@ArchiveBase@IO@@QBE_NXZ 00423cf0 f i foundation_win32.release:ziparchive.obj
 0001:00022d10       ??0StringAtom@Util@@QAE@ABVString@1@@Z 00423d10 f i foundation_win32.release:ziparchive.obj
 0001:00022d50       ?Value@StringAtom@Util@@QBEPBDXZ 00423d50 f i foundation_win32.release:ziparchive.obj
 0001:00022d60       ?GetName@ZipFileEntry@IO@@QBEABVStringAtom@Util@@XZ 00423d60 f i foundation_win32.release:ziparchive.obj
 0001:00022d80       ?GetName@ZipDirEntry@IO@@QBEABVStringAtom@Util@@XZ 00423d80 f i foundation_win32.release:ziparchive.obj
 0001:00022d90       ?GetDirEntries@ZipDirEntry@IO@@QBEABV?$Array@VZipDirEntry@IO@@@Util@@XZ 00423d90 f i foundation_win32.release:ziparchive.obj
 0001:00022db0       ?GetFileEntries@ZipDirEntry@IO@@QBEABV?$Array@VZipFileEntry@IO@@@Util@@XZ 00423db0 f i foundation_win32.release:ziparchive.obj
 0001:00022dd0       ??2ZipArchive@IO@@SAPAXI@Z 00423dd0 f i foundation_win32.release:ziparchive.obj
 0001:00022de0       ??3ZipArchive@IO@@SAXPAX@Z 00423de0 f i foundation_win32.release:ziparchive.obj
 0001:00022e00       ?GetRtti@ZipArchive@IO@@UBEPAVRtti@Core@@XZ 00423e00 f   foundation_win32.release:ziparchive.obj
 0001:00022e10       ?FactoryCreator@ZipArchive@IO@@SAPAVRefCounted@Core@@XZ 00423e10 f   foundation_win32.release:ziparchive.obj
 0001:00022e20       ?Create@ZipArchive@IO@@SAPAV12@XZ 00423e20 f   foundation_win32.release:ziparchive.obj
 0001:00022e60       ?RegisterWithFactory@ZipArchive@IO@@SA_NXZ 00423e60 f   foundation_win32.release:ziparchive.obj
 0001:00022f60       ??0ZipArchive@IO@@QAE@XZ   00423f60 f   foundation_win32.release:ziparchive.obj
 0001:00022fe0       ??_EZipArchive@IO@@UAEPAXI@Z 00423fe0 f i  CIL library: CIL module
 0001:00022fe0       ??_GZipArchive@IO@@UAEPAXI@Z 00423fe0 f i foundation_win32.release:ziparchive.obj
 0001:00023010       ??1ZipDirEntry@IO@@QAE@XZ  00424010 f i foundation_win32.release:ziparchive.obj
 0001:00023050       ??1?$Dictionary@VStringAtom@Util@@H@Util@@QAE@XZ 00424050 f i foundation_win32.release:ziparchive.obj
 0001:00023070       ??1ZipArchive@IO@@UAE@XZ   00424070 f   foundation_win32.release:ziparchive.obj
 0001:00023110       ?Setup@ZipArchive@IO@@QAE_NABVURI@2@@Z 00424110 f   foundation_win32.release:ziparchive.obj
 0001:00023390       ?Discard@ZipArchive@IO@@QAEXXZ 00424390 f   foundation_win32.release:ziparchive.obj
 0001:000233f0       ?ParseTableOfContents@ZipArchive@IO@@AAEXXZ 004243f0 f   foundation_win32.release:ziparchive.obj
 0001:000235f0       ?AddEntry@ZipArchive@IO@@AAEXABVString@Util@@@Z 004245f0 f   foundation_win32.release:ziparchive.obj
 0001:00023830       ?ConvertToPathInArchive@ZipArchive@IO@@QBE?AVString@Util@@ABV34@@Z 00424830 f   foundation_win32.release:ziparchive.obj
 0001:00023960       ?FindFileEntry@ZipArchive@IO@@ABEPBVZipFileEntry@2@ABVString@Util@@@Z 00424960 f   foundation_win32.release:ziparchive.obj
 0001:00023b10       ?FindFileEntry@ZipArchive@IO@@AAEPAVZipFileEntry@2@ABVString@Util@@@Z 00424b10 f   foundation_win32.release:ziparchive.obj
 0001:00023b40       ?FindDirEntry@ZipArchive@IO@@ABEPBVZipDirEntry@2@ABVString@Util@@@Z 00424b40 f   foundation_win32.release:ziparchive.obj
 0001:00023c90       ?ListFiles@ZipArchive@IO@@QBE?AV?$Array@VString@Util@@@Util@@ABVString@4@0@Z 00424c90 f   foundation_win32.release:ziparchive.obj
 0001:00023d70       ?ListDirectories@ZipArchive@IO@@QBE?AV?$Array@VString@Util@@@Util@@ABVString@4@0@Z 00424d70 f   foundation_win32.release:ziparchive.obj
 0001:00023e50       ?ConvertToArchiveURI@ZipArchive@IO@@QBE?AVURI@2@ABV32@@Z 00424e50 f   foundation_win32.release:ziparchive.obj
 0001:00024180       ??1?$Array@VZipFileEntry@IO@@@Util@@QAE@XZ 00425180 f i foundation_win32.release:ziparchive.obj
 0001:000241a0       ??A?$Array@VZipFileEntry@IO@@@Util@@QBEAAVZipFileEntry@IO@@H@Z 004251a0 f i foundation_win32.release:ziparchive.obj
 0001:000241f0       ?Size@?$Array@VZipFileEntry@IO@@@Util@@QBEHXZ 004251f0 f i foundation_win32.release:ziparchive.obj
 0001:00024210       ??1?$Array@VZipDirEntry@IO@@@Util@@QAE@XZ 00425210 f i foundation_win32.release:ziparchive.obj
 0001:00024230       ??A?$Array@VZipDirEntry@IO@@@Util@@QBEAAVZipDirEntry@IO@@H@Z 00425230 f i foundation_win32.release:ziparchive.obj
 0001:00024280       ?Size@?$Array@VZipDirEntry@IO@@@Util@@QBEHXZ 00425280 f i foundation_win32.release:ziparchive.obj
 0001:000242a0       ??1?$Array@V?$KeyValuePair@VStringAtom@Util@@H@Util@@@Util@@QAE@XZ 004252a0 f i foundation_win32.release:ziparchive.obj
 0001:000242c0       ?Delete@?$Array@VZipFileEntry@IO@@@Util@@AAEXXZ 004252c0 f i foundation_win32.release:ziparchive.obj
 0001:00024330       ?Delete@?$Array@VZipDirEntry@IO@@@Util@@AAEXXZ 00425330 f i foundation_win32.release:ziparchive.obj
 0001:000243a0       ?Delete@?$Array@V?$KeyValuePair@VStringAtom@Util@@H@Util@@@Util@@AAEXXZ 004253a0 f i foundation_win32.release:ziparchive.obj
 0001:00024400       ??_EZipFileEntry@IO@@QAEPAXI@Z 00425400 f i foundation_win32.release:ziparchive.obj
 0001:000244a0       ??_EZipDirEntry@IO@@QAEPAXI@Z 004254a0 f i foundation_win32.release:ziparchive.obj
 0001:00024540       ?Setup@Win360Heap@Win360@@SAXXZ 00425540 f   foundation_win32.release:win360heap.obj
 0001:00024550       ??0Win360Heap@Win360@@QAE@PBDII@Z 00425550 f   foundation_win32.release:win360heap.obj
 0001:000245e0       ??1Win360Heap@Win360@@QAE@XZ 004255e0 f   foundation_win32.release:win360heap.obj
 0001:00024620       ??0Win360Event@Win360@@QAE@_N@Z 00425620 f i foundation_win32.release:win360thread.obj
 0001:00024670       ??1Win360Event@Win360@@QAE@XZ 00425670 f i foundation_win32.release:win360thread.obj
 0001:00024690       ?Signal@Win360Event@Win360@@QAEXXZ 00425690 f i foundation_win32.release:win360thread.obj
 0001:000246b0       ?Wait@Win360Event@Win360@@QBEXXZ 004256b0 f i foundation_win32.release:win360thread.obj
 0001:000246d0       ??2Win360Thread@Win360@@SAPAXI@Z 004256d0 f i foundation_win32.release:win360thread.obj
 0001:000246e0       ??3Win360Thread@Win360@@SAXPAX@Z 004256e0 f i foundation_win32.release:win360thread.obj
 0001:00024700       ?GetName@Win360Thread@Win360@@QBEABVString@Util@@XZ 00425700 f i foundation_win32.release:win360thread.obj
 0001:00024720       ?GetRtti@Win360Thread@Win360@@UBEPAVRtti@Core@@XZ 00425720 f   foundation_win32.release:win360thread.obj
 0001:00024730       ?FactoryCreator@Win360Thread@Win360@@SAPAVRefCounted@Core@@XZ 00425730 f   foundation_win32.release:win360thread.obj
 0001:00024740       ?Create@Win360Thread@Win360@@SAPAV12@XZ 00425740 f   foundation_win32.release:win360thread.obj
 0001:00024780       ?RegisterWithFactory@Win360Thread@Win360@@SA_NXZ 00425780 f   foundation_win32.release:win360thread.obj
 0001:00024880       ??0Win360Thread@Win360@@QAE@XZ 00425880 f   foundation_win32.release:win360thread.obj
 0001:00024980       ??_GWin360Thread@Win360@@UAEPAXI@Z 00425980 f i foundation_win32.release:win360thread.obj
 0001:00024980       ??_EWin360Thread@Win360@@UAEPAXI@Z 00425980 f i  CIL library: CIL module
 0001:000249b0       ??1Win360Thread@Win360@@UAE@XZ 004259b0 f   foundation_win32.release:win360thread.obj
 0001:00024a70       ?Start@Win360Thread@Win360@@QAEXXZ 00425a70 f   foundation_win32.release:win360thread.obj
 0001:00024b70       ?EmitWakeupSignal@Win360Thread@Win360@@MAEXXZ 00425b70 f   foundation_win32.release:win360thread.obj
 0001:00024b80       ?Stop@Win360Thread@Win360@@QAEXXZ 00425b80 f   foundation_win32.release:win360thread.obj
 0001:00024c20       ?IsRunning@Win360Thread@Win360@@QBE_NXZ 00425c20 f   foundation_win32.release:win360thread.obj
 0001:00024c70       ?DoWork@Win360Thread@Win360@@MAEXXZ 00425c70 f   foundation_win32.release:win360thread.obj
 0001:00024c80       ?ThreadProc@Win360Thread@Win360@@CGKPAX@Z 00425c80 f   foundation_win32.release:win360thread.obj
 0001:00024d20       ?SetMyThreadName@Win360Thread@Win360@@SAXPBD@Z 00425d20 f   foundation_win32.release:win360thread.obj
 0001:00024dc0       ?GetMyThreadName@Win360Thread@Win360@@SAPBDXZ 00425dc0 f   foundation_win32.release:win360thread.obj
 0001:00024dd0       ?GetMyThreadId@Win360Thread@Win360@@SAKXZ 00425dd0 f   foundation_win32.release:win360thread.obj
 0001:00024de0       ?YieldThread@Win360Thread@Win360@@SAXXZ 00425de0 f   foundation_win32.release:win360thread.obj
 0001:00024df0       ??2Win360Socket@Win360@@SAPAXI@Z 00425df0 f i foundation_win32.release:win360socket.obj
 0001:00024e00       ??3Win360Socket@Win360@@SAXPAX@Z 00425e00 f i foundation_win32.release:win360socket.obj
 0001:00024e20       ?IsOpen@Win360Socket@Win360@@QBE_NXZ 00425e20 f i foundation_win32.release:win360socket.obj
 0001:00024e40       ?IsBound@Win360Socket@Win360@@QBE_NXZ 00425e40 f i foundation_win32.release:win360socket.obj
 0001:00024e60       ?SetAddress@Win360Socket@Win360@@QAEXABVWin360IpAddress@2@@Z 00425e60 f i foundation_win32.release:win360socket.obj
 0001:00024e80       ??4Win360IpAddress@Win360@@QAEAAV01@ABV01@@Z 00425e80 f i foundation_win32.release:win360socket.obj
 0001:00024f30       ?GetBlocking@Win360Socket@Win360@@QBE_NXZ 00425f30 f i foundation_win32.release:win360socket.obj
 0001:00024f50       ?GetRtti@Win360Socket@Win360@@UBEPAVRtti@Core@@XZ 00425f50 f   foundation_win32.release:win360socket.obj
 0001:00024f60       ?FactoryCreator@Win360Socket@Win360@@SAPAVRefCounted@Core@@XZ 00425f60 f   foundation_win32.release:win360socket.obj
 0001:00024f70       ?Create@Win360Socket@Win360@@SAPAV12@XZ 00425f70 f   foundation_win32.release:win360socket.obj
 0001:00024fb0       ?RegisterWithFactory@Win360Socket@Win360@@SA_NXZ 00425fb0 f   foundation_win32.release:win360socket.obj
 0001:000250b0       ??0Win360Socket@Win360@@QAE@XZ 004260b0 f   foundation_win32.release:win360socket.obj
 0001:00025130       ??_EWin360Socket@Win360@@UAEPAXI@Z 00426130 f i  CIL library: CIL module
 0001:00025130       ??_GWin360Socket@Win360@@UAEPAXI@Z 00426130 f i foundation_win32.release:win360socket.obj
 0001:00025160       ??1Win360IpAddress@Win360@@QAE@XZ 00426160 f i foundation_win32.release:win360socket.obj
 0001:000251f0       ??1Win360Socket@Win360@@UAE@XZ 004261f0 f   foundation_win32.release:win360socket.obj
 0001:00025240       ?InitNetwork@Win360Socket@Win360@@SAXXZ 00426240 f   foundation_win32.release:win360socket.obj
 0001:00025340       ?Open@Win360Socket@Win360@@QAE_NW4Protocol@12@@Z 00426340 f   foundation_win32.release:win360socket.obj
 0001:00025410       ?OpenWithExistingSocket@Win360Socket@Win360@@AAEXI@Z 00426410 f   foundation_win32.release:win360socket.obj
 0001:00025470       ?Close@Win360Socket@Win360@@QAEXXZ 00426470 f   foundation_win32.release:win360socket.obj
 0001:000255f0       ?SetBoolOption@Win360Socket@Win360@@AAEXH_N@Z 004265f0 f   foundation_win32.release:win360socket.obj
 0001:000256f0       ?GetBoolOption@Win360Socket@Win360@@AAE_NH@Z 004266f0 f   foundation_win32.release:win360socket.obj
 0001:00025820       ?SetIntOption@Win360Socket@Win360@@AAEXHH@Z 00426820 f   foundation_win32.release:win360socket.obj
 0001:00025900       ?GetIntOption@Win360Socket@Win360@@AAEHH@Z 00426900 f   foundation_win32.release:win360socket.obj
 0001:00025a10       ?SetBlocking@Win360Socket@Win360@@QAEX_N@Z 00426a10 f   foundation_win32.release:win360socket.obj
 0001:00025b00       ?Bind@Win360Socket@Win360@@QAE_NXZ 00426b00 f   foundation_win32.release:win360socket.obj
 0001:00025c10       ?Listen@Win360Socket@Win360@@QAE_NXZ 00426c10 f   foundation_win32.release:win360socket.obj
 0001:00025d10       ?Accept@Win360Socket@Win360@@QAE_NAAV?$Ptr@VSocket@Net@@@@@Z 00426d10 f   foundation_win32.release:win360socket.obj
 0001:00025ee0       ?Connect@Win360Socket@Win360@@QAE?AW4Result@12@XZ 00426ee0 f   foundation_win32.release:win360socket.obj
 0001:00026050       ?IsConnected@Win360Socket@Win360@@QAE_NXZ 00427050 f   foundation_win32.release:win360socket.obj
 0001:000261b0       ?Send@Win360Socket@Win360@@QAE?AW4Result@12@PBXHAAH@Z 004271b0 f   foundation_win32.release:win360socket.obj
 0001:000262e0       ?HasRecvData@Win360Socket@Win360@@QAE_NXZ 004272e0 f   foundation_win32.release:win360socket.obj
 0001:00026440       ?Recv@Win360Socket@Win360@@QAE?AW4Result@12@PAXHAAH@Z 00427440 f   foundation_win32.release:win360socket.obj
 0001:000265b0       ?SendTo@Win360Socket@Win360@@QAE?AW4Result@12@PBXHIGAAH@Z 004275b0 f   foundation_win32.release:win360socket.obj
 0001:000265d0       ?RecvFrom@Win360Socket@Win360@@QAE?AW4Result@12@PAXHIGAAH@Z 004275d0 f   foundation_win32.release:win360socket.obj
 0001:000265f0       ?ClearError@Win360Socket@Win360@@AAEXXZ 004275f0 f   foundation_win32.release:win360socket.obj
 0001:00026610       ?SetToLastWSAError@Win360Socket@Win360@@AAEXXZ 00427610 f   foundation_win32.release:win360socket.obj
 0001:00026630       ?SetWSAError@Win360Socket@Win360@@AAEXH@Z 00427630 f   foundation_win32.release:win360socket.obj
 0001:00026650       ?WSAErrorToErrorCode@Win360Socket@Win360@@CA?AW4ErrorCode@12@H@Z 00427650 f   foundation_win32.release:win360socket.obj
 0001:00026a10       ?ErrorAsString@Win360Socket@Win360@@CA?AVString@Util@@W4ErrorCode@12@@Z 00427a10 f   foundation_win32.release:win360socket.obj
 0001:00027470       ?WSAErrorToString@Win360Socket@Win360@@CA?AVString@Util@@H@Z 00428470 f   foundation_win32.release:win360socket.obj
 0001:000274a0       ?GetErrorString@Win360Socket@Win360@@QBE?AVString@Util@@XZ 004284a0 f   foundation_win32.release:win360socket.obj
 0001:000274d0       ?IsNetworkInitialized@Win360Socket@Win360@@SA_NXZ 004284d0 f   foundation_win32.release:win360socket.obj
 0001:000274e0       ??4?$Ptr@VSocket@Net@@@@QAEXPAVSocket@Net@@@Z 004284e0 f i foundation_win32.release:win360socket.obj
 0001:00027540       ??C?$Ptr@VSocket@Net@@@@QBEPAVSocket@Net@@XZ 00428540 f i foundation_win32.release:win360socket.obj
 0001:00027580       ?ExtractFileName@String@Util@@QBE?AV12@XZ 00428580 f i foundation_win32.release:win32minidump.obj
 0001:00027620       ?ExtractToLastSlash@String@Util@@QBE?AV12@XZ 00428620 f i foundation_win32.release:win32minidump.obj
 0001:000276b0       ?Setup@Win32MiniDump@Win32@@SAXXZ 004286b0 f   foundation_win32.release:win32minidump.obj
 0001:000276c0       ?WriteMiniDump@Win32MiniDump@Win32@@SA_NXZ 004286c0 f   foundation_win32.release:win32minidump.obj
 0001:000276d0       ?WriteMiniDumpInternal@Win32MiniDump@Win32@@CA_NPAU_EXCEPTION_POINTERS@@@Z 004286d0 f   foundation_win32.release:win32minidump.obj
 0001:000277f0       ?BuildMiniDumpFilename@Win32MiniDump@Win32@@CA?AVString@Util@@XZ 004287f0 f   foundation_win32.release:win32minidump.obj
 0001:00027a90       ?ExceptionCallback@Win32MiniDump@Win32@@CGJPAU_EXCEPTION_POINTERS@@@Z 00428a90 f   foundation_win32.release:win32minidump.obj
 0001:00027ab0       ?GetNumChunks@StringBuffer@Util@@QBEHXZ 00428ab0 f i foundation_win32.release:globalstringatomtable.obj
 0001:00027ad0       ??0GlobalStringAtomTable@Util@@QAE@XZ 00428ad0 f   foundation_win32.release:globalstringatomtable.obj
 0001:00027b40       ??1GlobalStringAtomTable@Util@@QAE@XZ 00428b40 f   foundation_win32.release:globalstringatomtable.obj
 0001:00027be0       ?Lock@GlobalStringAtomTable@Util@@AAEXXZ 00428be0 f   foundation_win32.release:globalstringatomtable.obj
 0001:00027c00       ?Unlock@GlobalStringAtomTable@Util@@AAEXXZ 00428c00 f   foundation_win32.release:globalstringatomtable.obj
 0001:00027c40       ?Add@GlobalStringAtomTable@Util@@AAEPBDPBD@Z 00428c40 f   foundation_win32.release:globalstringatomtable.obj
 0001:00027c70       ?GetDebugInfo@GlobalStringAtomTable@Util@@QBE?AUDebugInfo@12@XZ 00428c70 f   foundation_win32.release:globalstringatomtable.obj
 0001:00027d90       ??0DebugInfo@GlobalStringAtomTable@Util@@QAE@XZ 00428d90 f i foundation_win32.release:globalstringatomtable.obj
 0001:00027db0       ??1DebugInfo@GlobalStringAtomTable@Util@@QAE@XZ 00428db0 f i foundation_win32.release:globalstringatomtable.obj
 0001:00027dd0       ??0DebugInfo@GlobalStringAtomTable@Util@@QAE@ABU012@@Z 00428dd0 f i foundation_win32.release:globalstringatomtable.obj
 0001:00027e30       ??A?$Array@UStaticString@StringAtomTableBase@Util@@@Util@@QBEAAUStaticString@StringAtomTableBase@1@H@Z 00428e30 f i foundation_win32.release:globalstringatomtable.obj
 0001:00027e80       ?Size@?$Array@UStaticString@StringAtomTableBase@Util@@@Util@@QBEHXZ 00428e80 f i foundation_win32.release:globalstringatomtable.obj
 0001:00027ea0       ?InsertSorted@?$Array@UStaticString@StringAtomTableBase@Util@@@Util@@QAEHABUStaticString@StringAtomTableBase@2@@Z 00428ea0 f i foundation_win32.release:globalstringatomtable.obj
 0001:00028110       ?Size@?$Array@PAD@Util@@QBEHXZ 00429110 f i foundation_win32.release:globalstringatomtable.obj
 0001:00028130       ??0?$Array@PBD@Util@@QAE@ABV01@@Z 00429130 f i foundation_win32.release:globalstringatomtable.obj
 0001:00028180       ??0?$Array@PBD@Util@@QAE@XZ 00429180 f i foundation_win32.release:globalstringatomtable.obj
 0001:000281c0       ??1?$Array@PBD@Util@@QAE@XZ 004291c0 f i foundation_win32.release:globalstringatomtable.obj
 0001:000281e0       ?Append@?$Array@PBD@Util@@QAEXABQBD@Z 004291e0 f i foundation_win32.release:globalstringatomtable.obj
 0001:00028250       ?Reserve@?$Array@PBD@Util@@QAEXH@Z 00429250 f i foundation_win32.release:globalstringatomtable.obj
 0001:000282a0       ?Append@?$Array@UStaticString@StringAtomTableBase@Util@@@Util@@QAEXABUStaticString@StringAtomTableBase@2@@Z 004292a0 f i foundation_win32.release:globalstringatomtable.obj
 0001:00028310       ?Insert@?$Array@UStaticString@StringAtomTableBase@Util@@@Util@@QAEXHABUStaticString@StringAtomTableBase@2@@Z 00429310 f i foundation_win32.release:globalstringatomtable.obj
 0001:00028380       ?InsertAtEndOfIdenticalRange@?$Array@UStaticString@StringAtomTableBase@Util@@@Util@@QAEHHABUStaticString@StringAtomTableBase@2@@Z 00429380 f i foundation_win32.release:globalstringatomtable.obj
 0001:00028400       ?Copy@?$Array@PBD@Util@@AAEXABV12@@Z 00429400 f i foundation_win32.release:globalstringatomtable.obj
 0001:000284d0       ?Delete@?$Array@PBD@Util@@AAEXXZ 004294d0 f i foundation_win32.release:globalstringatomtable.obj
 0001:00028530       ?Grow@?$Array@PBD@Util@@AAEXXZ 00429530 f i foundation_win32.release:globalstringatomtable.obj
 0001:000285b0       ?GrowTo@?$Array@PBD@Util@@AAEXH@Z 004295b0 f i foundation_win32.release:globalstringatomtable.obj
 0001:00028660       ?Grow@?$Array@UStaticString@StringAtomTableBase@Util@@@Util@@AAEXXZ 00429660 f i foundation_win32.release:globalstringatomtable.obj
 0001:000286e0       ?Move@?$Array@UStaticString@StringAtomTableBase@Util@@@Util@@AAEXHH@Z 004296e0 f i foundation_win32.release:globalstringatomtable.obj
 0001:00028860       ?Destroy@?$Array@UStaticString@StringAtomTableBase@Util@@@Util@@AAEXPAUStaticString@StringAtomTableBase@2@@Z 00429860 f i foundation_win32.release:globalstringatomtable.obj
 0001:00028870       ?GrowTo@?$Array@UStaticString@StringAtomTableBase@Util@@@Util@@AAEXH@Z 00429870 f i foundation_win32.release:globalstringatomtable.obj
 0001:00028920       ??0LocalStringAtomTable@Util@@QAE@XZ 00429920 f   foundation_win32.release:localstringatomtable.obj
 0001:00028970       ??1LocalStringAtomTable@Util@@QAE@XZ 00429970 f   foundation_win32.release:localstringatomtable.obj
 0001:000289c0       ?Add@LocalStringAtomTable@Util@@AAEXPBD@Z 004299c0 f   foundation_win32.release:localstringatomtable.obj
 0001:000289f0       ??0ExitHandler@Core@@QAE@XZ 004299f0 f   foundation_win32.release:exithandler.obj
 0001:00028a20       ??_GExitHandler@Core@@UAEPAXI@Z 00429a20 f i foundation_win32.release:exithandler.obj
 0001:00028a20       ??_EExitHandler@Core@@UAEPAXI@Z 00429a20 f i  CIL library: CIL module
 0001:00028a50       ??1ExitHandler@Core@@UAE@XZ 00429a50 f   foundation_win32.release:exithandler.obj
 0001:00028a70       ?Next@ExitHandler@Core@@QBEPBV12@XZ 00429a70 f   foundation_win32.release:exithandler.obj
 0001:00028a90       ?OnExit@ExitHandler@Core@@UBEXXZ 00429a90 f   foundation_win32.release:exithandler.obj
 0001:00028aa0       ??0StringAtomTableBase@Util@@QAE@XZ 00429aa0 f   foundation_win32.release:stringatomtablebase.obj
 0001:00028ac0       ??1StringAtomTableBase@Util@@QAE@XZ 00429ac0 f   foundation_win32.release:stringatomtablebase.obj
 0001:00028ae0       ?Find@StringAtomTableBase@Util@@IBEPBDPBD@Z 00429ae0 f   foundation_win32.release:stringatomtablebase.obj
 0001:00028b20       ??8StaticString@StringAtomTableBase@Util@@QBE_NABU012@@Z 00429b20 f   foundation_win32.release:stringatomtablebase.obj
 0001:00028ba0       ??9StaticString@StringAtomTableBase@Util@@QBE_NABU012@@Z 00429ba0 f   foundation_win32.release:stringatomtablebase.obj
 0001:00028c20       ??MStaticString@StringAtomTableBase@Util@@QBE_NABU012@@Z 00429c20 f   foundation_win32.release:stringatomtablebase.obj
 0001:00028ca0       ??OStaticString@StringAtomTableBase@Util@@QBE_NABU012@@Z 00429ca0 f   foundation_win32.release:stringatomtablebase.obj
 0001:00028d20       ??0?$Array@UStaticString@StringAtomTableBase@Util@@@Util@@QAE@XZ 00429d20 f i foundation_win32.release:stringatomtablebase.obj
 0001:00028d60       ??1?$Array@UStaticString@StringAtomTableBase@Util@@@Util@@QAE@XZ 00429d60 f i foundation_win32.release:stringatomtablebase.obj
 0001:00028d80       ?BinarySearchIndex@?$Array@UStaticString@StringAtomTableBase@Util@@@Util@@QBEHABUStaticString@StringAtomTableBase@2@@Z 00429d80 f i foundation_win32.release:stringatomtablebase.obj
 0001:00028eb0       ?Delete@?$Array@UStaticString@StringAtomTableBase@Util@@@Util@@AAEXXZ 00429eb0 f i foundation_win32.release:stringatomtablebase.obj
 0001:00028f10       ??2Win32ConsoleHandler@Win32@@SAPAXI@Z 00429f10 f i foundation_win32.release:win32consolehandler.obj
 0001:00028f20       ??3Win32ConsoleHandler@Win32@@SAXPAX@Z 00429f20 f i foundation_win32.release:win32consolehandler.obj
 0001:00028f40       ?HasInstance@CoreServer@Core@@SA_NXZ 00429f40 f i foundation_win32.release:win32consolehandler.obj
 0001:00028f60       ?GetAppName@CoreServer@Core@@QBEABVStringAtom@Util@@XZ 00429f60 f i foundation_win32.release:win32consolehandler.obj
 0001:00028f80       ?GetRtti@Win32ConsoleHandler@Win32@@UBEPAVRtti@Core@@XZ 00429f80 f   foundation_win32.release:win32consolehandler.obj
 0001:00028f90       ?FactoryCreator@Win32ConsoleHandler@Win32@@SAPAVRefCounted@Core@@XZ 00429f90 f   foundation_win32.release:win32consolehandler.obj
 0001:00028fa0       ?Create@Win32ConsoleHandler@Win32@@SAPAV12@XZ 00429fa0 f   foundation_win32.release:win32consolehandler.obj
 0001:00028fe0       ?RegisterWithFactory@Win32ConsoleHandler@Win32@@SA_NXZ 00429fe0 f   foundation_win32.release:win32consolehandler.obj
 0001:000290e0       ??0Win32ConsoleHandler@Win32@@QAE@XZ 0042a0e0 f   foundation_win32.release:win32consolehandler.obj
 0001:00029180       ??_EWin32ConsoleHandler@Win32@@UAEPAXI@Z 0042a180 f i  CIL library: CIL module
 0001:00029180       ??_GWin32ConsoleHandler@Win32@@UAEPAXI@Z 0042a180 f i foundation_win32.release:win32consolehandler.obj
 0001:000291b0       ??1Win32ConsoleHandler@Win32@@UAE@XZ 0042a1b0 f i foundation_win32.release:win32consolehandler.obj
 0001:000291d0       ?Print@Win32ConsoleHandler@Win32@@UAEXABVString@Util@@@Z 0042a1d0 f   foundation_win32.release:win32consolehandler.obj
 0001:000292a0       ?DebugOut@Win32ConsoleHandler@Win32@@UAEXABVString@Util@@@Z 0042a2a0 f   foundation_win32.release:win32consolehandler.obj
 0001:000292e0       ?Error@Win32ConsoleHandler@Win32@@UAEXABVString@Util@@@Z 0042a2e0 f   foundation_win32.release:win32consolehandler.obj
 0001:00029420       ?Warning@Win32ConsoleHandler@Win32@@UAEXABVString@Util@@@Z 0042a420 f   foundation_win32.release:win32consolehandler.obj
 0001:00029470       ?Confirm@Win32ConsoleHandler@Win32@@UAEXABVString@Util@@@Z 0042a470 f   foundation_win32.release:win32consolehandler.obj
 0001:000294f0       ?HasInput@Win32ConsoleHandler@Win32@@UAE_NXZ 0042a4f0 f   foundation_win32.release:win32consolehandler.obj
 0001:000295a0       ?GetInput@Win32ConsoleHandler@Win32@@UAE?AVString@Util@@XZ 0042a5a0 f   foundation_win32.release:win32consolehandler.obj
 0001:000296e0       ?UTF8ToWide@Win32StringConverter@Win32@@SAHABVString@Util@@PAGH@Z 0042a6e0 f   foundation_win32.release:win32stringconverter.obj
 0001:00029720       ?UTF8ToWide@Win32StringConverter@Win32@@SAHPBDPAGH@Z 0042a720 f   foundation_win32.release:win32stringconverter.obj
 0001:00029890       ?WideToUTF8@Win32StringConverter@Win32@@SA?AVString@Util@@PAG@Z 0042a890 f   foundation_win32.release:win32stringconverter.obj
 0001:000299c0       ??2FileStream@IO@@SAPAXI@Z 0042a9c0 f i foundation_win32.release:filestream.obj
 0001:000299d0       ??3FileStream@IO@@SAXPAX@Z 0042a9d0 f i foundation_win32.release:filestream.obj
 0001:000299f0       ?GetRtti@FileStream@IO@@UBEPAVRtti@Core@@XZ 0042a9f0 f   foundation_win32.release:filestream.obj
 0001:00029a00       ?FactoryCreator@FileStream@IO@@SAPAVRefCounted@Core@@XZ 0042aa00 f   foundation_win32.release:filestream.obj
 0001:00029a10       ?Create@FileStream@IO@@SAPAV12@XZ 0042aa10 f   foundation_win32.release:filestream.obj
 0001:00029a50       ?RegisterWithFactory@FileStream@IO@@SA_NXZ 0042aa50 f   foundation_win32.release:filestream.obj
 0001:00029b50       ??0FileStream@IO@@QAE@XZ   0042ab50 f   foundation_win32.release:filestream.obj
 0001:00029b90       ??_EFileStream@IO@@UAEPAXI@Z 0042ab90 f i  CIL library: CIL module
 0001:00029b90       ??_GFileStream@IO@@UAEPAXI@Z 0042ab90 f i foundation_win32.release:filestream.obj
 0001:00029bc0       ??1FileStream@IO@@UAE@XZ   0042abc0 f   foundation_win32.release:filestream.obj
 0001:00029c00       ?CanRead@FileStream@IO@@UBE_NXZ 0042ac00 f   foundation_win32.release:filestream.obj
 0001:00029c10       ?CanWrite@FileStream@IO@@UBE_NXZ 0042ac10 f   foundation_win32.release:filestream.obj
 0001:00029c20       ?CanSeek@FileStream@IO@@UBE_NXZ 0042ac20 f   foundation_win32.release:filestream.obj
 0001:00029c30       ?CanBeMapped@FileStream@IO@@UBE_NXZ 0042ac30 f   foundation_win32.release:filestream.obj
 0001:00029c40       ?GetSize@FileStream@IO@@UBEHXZ 0042ac40 f   foundation_win32.release:filestream.obj
 0001:00029c80       ?GetPosition@FileStream@IO@@UBEHXZ 0042ac80 f   foundation_win32.release:filestream.obj
 0001:00029cc0       ?Open@FileStream@IO@@UAE_NXZ 0042acc0 f   foundation_win32.release:filestream.obj
 0001:00029e00       ?Close@FileStream@IO@@UAEXXZ 0042ae00 f   foundation_win32.release:filestream.obj
 0001:00029ea0       ?Write@FileStream@IO@@UAEXPBXH@Z 0042aea0 f   foundation_win32.release:filestream.obj
 0001:00029f70       ?Read@FileStream@IO@@UAEHPAXH@Z 0042af70 f   foundation_win32.release:filestream.obj
 0001:0002a040       ?Seek@FileStream@IO@@UAEXHW4SeekOrigin@Stream@2@@Z 0042b040 f   foundation_win32.release:filestream.obj
 0001:0002a0e0       ?Flush@FileStream@IO@@UAEXXZ 0042b0e0 f   foundation_win32.release:filestream.obj
 0001:0002a170       ?Eof@FileStream@IO@@UBE_NXZ 0042b170 f   foundation_win32.release:filestream.obj
 0001:0002a200       ?Map@FileStream@IO@@UAEPAXXZ 0042b200 f   foundation_win32.release:filestream.obj
 0001:0002a2e0       ?Unmap@FileStream@IO@@UAEXXZ 0042b2e0 f   foundation_win32.release:filestream.obj
 0001:0002a340       ??2HttpStream@Http@@SAPAXI@Z 0042b340 f i foundation_win32.release:httpstream.obj
 0001:0002a350       ??3HttpStream@Http@@SAXPAX@Z 0042b350 f i foundation_win32.release:httpstream.obj
 0001:0002a370       ?Instance@HttpClientRegistry@Http@@SAPAV12@XZ 0042b370 f i foundation_win32.release:httpstream.obj
 0001:0002a3b0       ?GetRtti@HttpStream@Http@@UBEPAVRtti@Core@@XZ 0042b3b0 f   foundation_win32.release:httpstream.obj
 0001:0002a3c0       ?FactoryCreator@HttpStream@Http@@SAPAVRefCounted@Core@@XZ 0042b3c0 f   foundation_win32.release:httpstream.obj
 0001:0002a3d0       ?Create@HttpStream@Http@@SAPAV12@XZ 0042b3d0 f   foundation_win32.release:httpstream.obj
 0001:0002a410       ?RegisterWithFactory@HttpStream@Http@@SA_NXZ 0042b410 f   foundation_win32.release:httpstream.obj
 0001:0002a510       ??0HttpStream@Http@@QAE@XZ 0042b510 f   foundation_win32.release:httpstream.obj
 0001:0002a530       ??_EHttpStream@Http@@UAEPAXI@Z 0042b530 f i  CIL library: CIL module
 0001:0002a530       ??_GHttpStream@Http@@UAEPAXI@Z 0042b530 f i foundation_win32.release:httpstream.obj
 0001:0002a560       ??1HttpStream@Http@@UAE@XZ 0042b560 f   foundation_win32.release:httpstream.obj
 0001:0002a5a0       ?Open@HttpStream@Http@@UAE_NXZ 0042b5a0 f   foundation_win32.release:httpstream.obj
 0001:0002a790       ??1?$Ptr@VHttpClient@Http@@@@QAE@XZ 0042b790 f i foundation_win32.release:httpstream.obj
 0001:0002a7c0       ??C?$Ptr@VHttpClient@Http@@@@QBEPAVHttpClient@Http@@XZ 0042b7c0 f i foundation_win32.release:httpstream.obj
 0001:0002a800       ??2HttpNzStream@Http@@SAPAXI@Z 0042b800 f i foundation_win32.release:httpnzstream.obj
 0001:0002a810       ??3HttpNzStream@Http@@SAXPAX@Z 0042b810 f i foundation_win32.release:httpnzstream.obj
 0001:0002a830       ?GetRtti@HttpNzStream@Http@@UBEPAVRtti@Core@@XZ 0042b830 f   foundation_win32.release:httpnzstream.obj
 0001:0002a840       ?FactoryCreator@HttpNzStream@Http@@SAPAVRefCounted@Core@@XZ 0042b840 f   foundation_win32.release:httpnzstream.obj
 0001:0002a850       ?Create@HttpNzStream@Http@@SAPAV12@XZ 0042b850 f   foundation_win32.release:httpnzstream.obj
 0001:0002a890       ?RegisterWithFactory@HttpNzStream@Http@@SA_NXZ 0042b890 f   foundation_win32.release:httpnzstream.obj
 0001:0002a990       ??0HttpNzStream@Http@@QAE@XZ 0042b990 f   foundation_win32.release:httpnzstream.obj
 0001:0002a9b0       ??_EHttpNzStream@Http@@UAEPAXI@Z 0042b9b0 f i  CIL library: CIL module
 0001:0002a9b0       ??_GHttpNzStream@Http@@UAEPAXI@Z 0042b9b0 f i foundation_win32.release:httpnzstream.obj
 0001:0002a9e0       ??1HttpNzStream@Http@@UAE@XZ 0042b9e0 f   foundation_win32.release:httpnzstream.obj
 0001:0002aa20       ?Open@HttpNzStream@Http@@UAE_NXZ 0042ba20 f   foundation_win32.release:httpnzstream.obj
 0001:0002aec0       ??0?$Ptr@VMemoryStream@IO@@@@QAE@PAVMemoryStream@IO@@@Z 0042bec0 f i foundation_win32.release:httpnzstream.obj
 0001:0002af00       ??1?$Ptr@VMemoryStream@IO@@@@QAE@XZ 0042bf00 f i foundation_win32.release:httpnzstream.obj
 0001:0002af30       ??4?$Ptr@VMemoryStream@IO@@@@QAEXPAVMemoryStream@IO@@@Z 0042bf30 f i foundation_win32.release:httpnzstream.obj
 0001:0002af90       ??C?$Ptr@VMemoryStream@IO@@@@QBEPAVMemoryStream@IO@@XZ 0042bf90 f i foundation_win32.release:httpnzstream.obj
 0001:0002afd0       ??$upcast@VStream@IO@@@?$Ptr@VMemoryStream@IO@@@@QBEABV?$Ptr@VStream@IO@@@@XZ 0042bfd0 f i foundation_win32.release:httpnzstream.obj
 0001:0002afe0       ?n_min@Math@@YAHHH@Z       0042bfe0 f i foundation_win32.release:zipfilestream.obj
 0001:0002b010       ?n_iclamp@Math@@YAHHHH@Z   0042c010 f i foundation_win32.release:zipfilestream.obj
 0001:0002b040       ??2ZipFileStream@IO@@SAPAXI@Z 0042c040 f i foundation_win32.release:zipfilestream.obj
 0001:0002b050       ??3ZipFileStream@IO@@SAXPAX@Z 0042c050 f i foundation_win32.release:zipfilestream.obj
 0001:0002b070       ?Instance@ZipFileSystem@IO@@SAPAV12@XZ 0042c070 f i foundation_win32.release:zipfilestream.obj
 0001:0002b0a0       ?GetFileSize@ZipFileEntry@IO@@QBEHXZ 0042c0a0 f i foundation_win32.release:zipfilestream.obj
 0001:0002b0c0       ?GetRtti@ZipFileStream@IO@@UBEPAVRtti@Core@@XZ 0042c0c0 f   foundation_win32.release:zipfilestream.obj
 0001:0002b0d0       ?FactoryCreator@ZipFileStream@IO@@SAPAVRefCounted@Core@@XZ 0042c0d0 f   foundation_win32.release:zipfilestream.obj
 0001:0002b0e0       ?Create@ZipFileStream@IO@@SAPAV12@XZ 0042c0e0 f   foundation_win32.release:zipfilestream.obj
 0001:0002b120       ?RegisterWithFactory@ZipFileStream@IO@@SA_NXZ 0042c120 f   foundation_win32.release:zipfilestream.obj
 0001:0002b220       ??0ZipFileStream@IO@@QAE@XZ 0042c220 f   foundation_win32.release:zipfilestream.obj
 0001:0002b270       ??_GZipFileStream@IO@@UAEPAXI@Z 0042c270 f i foundation_win32.release:zipfilestream.obj
 0001:0002b270       ??_EZipFileStream@IO@@UAEPAXI@Z 0042c270 f i  CIL library: CIL module
 0001:0002b2a0       ??1ZipFileStream@IO@@UAE@XZ 0042c2a0 f   foundation_win32.release:zipfilestream.obj
 0001:0002b300       ?CanRead@ZipFileStream@IO@@UBE_NXZ 0042c300 f   foundation_win32.release:zipfilestream.obj
 0001:0002b310       ?CanWrite@ZipFileStream@IO@@UBE_NXZ 0042c310 f   foundation_win32.release:zipfilestream.obj
 0001:0002b320       ?CanSeek@ZipFileStream@IO@@UBE_NXZ 0042c320 f   foundation_win32.release:zipfilestream.obj
 0001:0002b330       ?CanBeMapped@ZipFileStream@IO@@UBE_NXZ 0042c330 f   foundation_win32.release:zipfilestream.obj
 0001:0002b340       ?GetSize@ZipFileStream@IO@@UBEHXZ 0042c340 f   foundation_win32.release:zipfilestream.obj
 0001:0002b360       ?GetPosition@ZipFileStream@IO@@UBEHXZ 0042c360 f   foundation_win32.release:zipfilestream.obj
 0001:0002b380       ?Open@ZipFileStream@IO@@UAE_NXZ 0042c380 f   foundation_win32.release:zipfilestream.obj
 0001:0002b7d0       ?Close@ZipFileStream@IO@@UAEXXZ 0042c7d0 f   foundation_win32.release:zipfilestream.obj
 0001:0002b870       ?Read@ZipFileStream@IO@@UAEHPAXH@Z 0042c870 f   foundation_win32.release:zipfilestream.obj
 0001:0002ba10       ?Seek@ZipFileStream@IO@@UAEXHW4SeekOrigin@Stream@2@@Z 0042ca10 f   foundation_win32.release:zipfilestream.obj
 0001:0002bc30       ?Eof@ZipFileStream@IO@@UBE_NXZ 0042cc30 f   foundation_win32.release:zipfilestream.obj
 0001:0002bce0       ?Map@ZipFileStream@IO@@UAEPAXXZ 0042cce0 f   foundation_win32.release:zipfilestream.obj
 0001:0002be20       ?Unmap@ZipFileStream@IO@@UAEXXZ 0042ce20 f   foundation_win32.release:zipfilestream.obj
 0001:0002bea0       ??0?$Ptr@VZipArchive@IO@@@@QAE@ABV0@@Z 0042cea0 f i foundation_win32.release:zipfilestream.obj
 0001:0002bee0       ??A?$Dictionary@VString@Util@@V12@@Util@@QAEAAVString@1@ABV21@@Z 0042cee0 f i foundation_win32.release:zipfilestream.obj
 0001:0002bf30       ?Contains@?$Dictionary@VString@Util@@V12@@Util@@QBE_NABVString@2@@Z 0042cf30 f i foundation_win32.release:zipfilestream.obj
 0001:0002bf90       ?FindIndex@?$Dictionary@VString@Util@@V12@@Util@@QBEHABVString@2@@Z 0042cf90 f i foundation_win32.release:zipfilestream.obj
 0001:0002bff0       ??2Archive@IO@@SAPAXI@Z    0042cff0 f i foundation_win32.release:archive.obj
 0001:0002c000       ??3Archive@IO@@SAXPAX@Z    0042d000 f i foundation_win32.release:archive.obj
 0001:0002c020       ?GetRtti@Archive@IO@@UBEPAVRtti@Core@@XZ 0042d020 f   foundation_win32.release:archive.obj
 0001:0002c030       ?FactoryCreator@Archive@IO@@SAPAVRefCounted@Core@@XZ 0042d030 f   foundation_win32.release:archive.obj
 0001:0002c040       ?Create@Archive@IO@@SAPAV12@XZ 0042d040 f   foundation_win32.release:archive.obj
 0001:0002c080       ??0Archive@IO@@QAE@XZ      0042d080 f i foundation_win32.release:archive.obj
 0001:0002c0a0       ??_EArchive@IO@@UAEPAXI@Z  0042d0a0 f i  CIL library: CIL module
 0001:0002c0a0       ??_GArchive@IO@@UAEPAXI@Z  0042d0a0 f i foundation_win32.release:archive.obj
 0001:0002c0d0       ??1Archive@IO@@UAE@XZ      0042d0d0 f i foundation_win32.release:archive.obj
 0001:0002c0f0       ?RegisterWithFactory@Archive@IO@@SA_NXZ 0042d0f0 f   foundation_win32.release:archive.obj
 0001:0002c1f0       ??2ArchiveBase@IO@@SAPAXI@Z 0042d1f0 f i foundation_win32.release:archivebase.obj
 0001:0002c200       ??3ArchiveBase@IO@@SAXPAX@Z 0042d200 f i foundation_win32.release:archivebase.obj
 0001:0002c220       ?GetRtti@ArchiveBase@IO@@UBEPAVRtti@Core@@XZ 0042d220 f   foundation_win32.release:archivebase.obj
 0001:0002c230       ?FactoryCreator@ArchiveBase@IO@@SAPAVRefCounted@Core@@XZ 0042d230 f   foundation_win32.release:archivebase.obj
 0001:0002c240       ?Create@ArchiveBase@IO@@SAPAV12@XZ 0042d240 f   foundation_win32.release:archivebase.obj
 0001:0002c280       ?RegisterWithFactory@ArchiveBase@IO@@SA_NXZ 0042d280 f   foundation_win32.release:archivebase.obj
 0001:0002c380       ??0ArchiveBase@IO@@QAE@XZ  0042d380 f   foundation_win32.release:archivebase.obj
 0001:0002c3c0       ??_EArchiveBase@IO@@UAEPAXI@Z 0042d3c0 f i  CIL library: CIL module
 0001:0002c3c0       ??_GArchiveBase@IO@@UAEPAXI@Z 0042d3c0 f i foundation_win32.release:archivebase.obj
 0001:0002c3f0       ??1ArchiveBase@IO@@UAE@XZ  0042d3f0 f   foundation_win32.release:archivebase.obj
 0001:0002c440       ?Setup@ArchiveBase@IO@@QAE_NABVURI@2@@Z 0042d440 f   foundation_win32.release:archivebase.obj
 0001:0002c490       ?Discard@ArchiveBase@IO@@QAEXXZ 0042d490 f   foundation_win32.release:archivebase.obj
 0001:0002c4d0       ?ListFiles@ArchiveBase@IO@@QBE?AV?$Array@VString@Util@@@Util@@ABVString@4@0@Z 0042d4d0 f   foundation_win32.release:archivebase.obj
 0001:0002c500       ?ListDirectories@ArchiveBase@IO@@QBE?AV?$Array@VString@Util@@@Util@@ABVString@4@0@Z 0042d500 f   foundation_win32.release:archivebase.obj
 0001:0002c530       ?ConvertToArchiveURI@ArchiveBase@IO@@QBE?AVURI@2@ABV32@@Z 0042d530 f   foundation_win32.release:archivebase.obj
 0001:0002c550       ?ConvertToPathInArchive@ArchiveBase@IO@@QBE?AVString@Util@@ABV34@@Z 0042d550 f   foundation_win32.release:archivebase.obj
 0001:0002c5b0       ??0StringAtom@Util@@QAE@XZ 0042d5b0 f i foundation_win32.release:zipdirentry.obj
 0001:0002c5d0       ??0StringAtom@Util@@QAE@ABV01@@Z 0042d5d0 f i foundation_win32.release:zipdirentry.obj
 0001:0002c5f0       ??9StringAtom@Util@@QBE_NABV01@@Z 0042d5f0 f i foundation_win32.release:zipdirentry.obj
 0001:0002c610       ??OStringAtom@Util@@QBE_NABV01@@Z 0042d610 f i foundation_win32.release:zipdirentry.obj
 0001:0002c630       ??MStringAtom@Util@@QBE_NABV01@@Z 0042d630 f i foundation_win32.release:zipdirentry.obj
 0001:0002c650       ?IsValid@StringAtom@Util@@QBE_NXZ 0042d650 f i foundation_win32.release:zipdirentry.obj
 0001:0002c690       ?SetName@ZipDirEntry@IO@@AAEXABVStringAtom@Util@@@Z 0042d690 f i foundation_win32.release:zipdirentry.obj
 0001:0002c6b0       ??0ZipDirEntry@IO@@QAE@XZ  0042d6b0 f   foundation_win32.release:zipdirentry.obj
 0001:0002c700       ?AddFileEntry@ZipDirEntry@IO@@AAEPAVZipFileEntry@2@ABVStringAtom@Util@@@Z 0042d700 f   foundation_win32.release:zipdirentry.obj
 0001:0002c770       ?AddDirEntry@ZipDirEntry@IO@@AAEPAV12@ABVStringAtom@Util@@@Z 0042d770 f   foundation_win32.release:zipdirentry.obj
 0001:0002c7f0       ?FindFileEntry@ZipDirEntry@IO@@QBEPAVZipFileEntry@2@ABVStringAtom@Util@@@Z 0042d7f0 f   foundation_win32.release:zipdirentry.obj
 0001:0002c880       ?FindDirEntry@ZipDirEntry@IO@@QBEPAV12@ABVStringAtom@Util@@@Z 0042d880 f   foundation_win32.release:zipdirentry.obj
 0001:0002c910       ??0?$Array@VZipFileEntry@IO@@@Util@@QAE@XZ 0042d910 f i foundation_win32.release:zipdirentry.obj
 0001:0002c950       ?Append@?$Array@VZipFileEntry@IO@@@Util@@QAEXABVZipFileEntry@IO@@@Z 0042d950 f i foundation_win32.release:zipdirentry.obj
 0001:0002ca00       ?Back@?$Array@VZipFileEntry@IO@@@Util@@QBEAAVZipFileEntry@IO@@XZ 0042da00 f i foundation_win32.release:zipdirentry.obj
 0001:0002ca50       ??0?$Array@VZipDirEntry@IO@@@Util@@QAE@XZ 0042da50 f i foundation_win32.release:zipdirentry.obj
 0001:0002ca90       ?Append@?$Array@VZipDirEntry@IO@@@Util@@QAEXABVZipDirEntry@IO@@@Z 0042da90 f i foundation_win32.release:zipdirentry.obj
 0001:0002cb10       ?Back@?$Array@VZipDirEntry@IO@@@Util@@QBEAAVZipDirEntry@IO@@XZ 0042db10 f i foundation_win32.release:zipdirentry.obj
 0001:0002cb60       ??0?$Dictionary@VStringAtom@Util@@H@Util@@QAE@XZ 0042db60 f i foundation_win32.release:zipdirentry.obj
 0001:0002cb80       ?Add@?$Dictionary@VStringAtom@Util@@H@Util@@QAEXABVStringAtom@2@ABH@Z 0042db80 f i foundation_win32.release:zipdirentry.obj
 0001:0002cbd0       ?FindIndex@?$Dictionary@VStringAtom@Util@@H@Util@@QBEHABVStringAtom@2@@Z 0042dbd0 f i foundation_win32.release:zipdirentry.obj
 0001:0002cc20       ?ValueAtIndex@?$Dictionary@VStringAtom@Util@@H@Util@@QBEABHH@Z 0042dc20 f i foundation_win32.release:zipdirentry.obj
 0001:0002cc70       ??4ZipFileEntry@IO@@QAEAAV01@ABV01@@Z 0042dc70 f i foundation_win32.release:zipdirentry.obj
 0001:0002ccc0       ??4ZipDirEntry@IO@@QAEAAV01@ABV01@@Z 0042dcc0 f i foundation_win32.release:zipdirentry.obj
 0001:0002cd30       ??4?$Array@VZipFileEntry@IO@@@Util@@QAEXABV01@@Z 0042dd30 f i foundation_win32.release:zipdirentry.obj
 0001:0002ce60       ?Grow@?$Array@VZipFileEntry@IO@@@Util@@AAEXXZ 0042de60 f i foundation_win32.release:zipdirentry.obj
 0001:0002cee0       ??4?$Array@VZipDirEntry@IO@@@Util@@QAEXABV01@@Z 0042dee0 f i foundation_win32.release:zipdirentry.obj
 0001:0002cfd0       ?Grow@?$Array@VZipDirEntry@IO@@@Util@@AAEXXZ 0042dfd0 f i foundation_win32.release:zipdirentry.obj
 0001:0002d050       ??0?$Array@V?$KeyValuePair@VStringAtom@Util@@H@Util@@@Util@@QAE@XZ 0042e050 f i foundation_win32.release:zipdirentry.obj
 0001:0002d090       ??A?$Array@V?$KeyValuePair@VStringAtom@Util@@H@Util@@@Util@@QBEAAV?$KeyValuePair@VStringAtom@Util@@H@1@H@Z 0042e090 f i foundation_win32.release:zipdirentry.obj
 0001:0002d0e0       ?Append@?$Array@V?$KeyValuePair@VStringAtom@Util@@H@Util@@@Util@@QAEXABV?$KeyValuePair@VStringAtom@Util@@H@2@@Z 0042e0e0 f i foundation_win32.release:zipdirentry.obj
 0001:0002d160       ?InsertSorted@?$Array@V?$KeyValuePair@VStringAtom@Util@@H@Util@@@Util@@QAEHABV?$KeyValuePair@VStringAtom@Util@@H@2@@Z 0042e160 f i foundation_win32.release:zipdirentry.obj
 0001:0002d3d0       ?BinarySearchIndex@?$Array@V?$KeyValuePair@VStringAtom@Util@@H@Util@@@Util@@QBEHABV?$KeyValuePair@VStringAtom@Util@@H@2@@Z 0042e3d0 f i foundation_win32.release:zipdirentry.obj
 0001:0002d500       ??4?$Dictionary@VStringAtom@Util@@H@Util@@QAEXABV01@@Z 0042e500 f i foundation_win32.release:zipdirentry.obj
 0001:0002d560       ??0?$KeyValuePair@VStringAtom@Util@@H@Util@@QAE@ABVStringAtom@1@@Z 0042e560 f i foundation_win32.release:zipdirentry.obj
 0001:0002d580       ??0?$KeyValuePair@VStringAtom@Util@@H@Util@@QAE@ABVStringAtom@1@ABH@Z 0042e580 f i foundation_win32.release:zipdirentry.obj
 0001:0002d5b0       ?Value@?$KeyValuePair@VStringAtom@Util@@H@Util@@QAEAAHXZ 0042e5b0 f i foundation_win32.release:zipdirentry.obj
 0001:0002d5d0       ?Destroy@?$Array@VZipFileEntry@IO@@@Util@@AAEXPAVZipFileEntry@IO@@@Z 0042e5d0 f i foundation_win32.release:zipdirentry.obj
 0001:0002d600       ?Copy@?$Array@VZipFileEntry@IO@@@Util@@AAEXABV12@@Z 0042e600 f i foundation_win32.release:zipdirentry.obj
 0001:0002d770       ?GrowTo@?$Array@VZipFileEntry@IO@@@Util@@AAEXH@Z 0042e770 f i foundation_win32.release:zipdirentry.obj
 0001:0002d8d0       ?Destroy@?$Array@VZipDirEntry@IO@@@Util@@AAEXPAVZipDirEntry@IO@@@Z 0042e8d0 f i foundation_win32.release:zipdirentry.obj
 0001:0002d900       ?Copy@?$Array@VZipDirEntry@IO@@@Util@@AAEXABV12@@Z 0042e900 f i foundation_win32.release:zipdirentry.obj
 0001:0002da30       ?GrowTo@?$Array@VZipDirEntry@IO@@@Util@@AAEXH@Z 0042ea30 f i foundation_win32.release:zipdirentry.obj
 0001:0002db50       ??4?$Array@V?$KeyValuePair@VStringAtom@Util@@H@Util@@@Util@@QAEXABV01@@Z 0042eb50 f i foundation_win32.release:zipdirentry.obj
 0001:0002dc40       ?Size@?$Array@V?$KeyValuePair@VStringAtom@Util@@H@Util@@@Util@@QBEHXZ 0042ec40 f i foundation_win32.release:zipdirentry.obj
 0001:0002dc60       ?Insert@?$Array@V?$KeyValuePair@VStringAtom@Util@@H@Util@@@Util@@QAEXHABV?$KeyValuePair@VStringAtom@Util@@H@2@@Z 0042ec60 f i foundation_win32.release:zipdirentry.obj
 0001:0002dcd0       ?InsertAtEndOfIdenticalRange@?$Array@V?$KeyValuePair@VStringAtom@Util@@H@Util@@@Util@@QAEHHABV?$KeyValuePair@VStringAtom@Util@@H@2@@Z 0042ecd0 f i foundation_win32.release:zipdirentry.obj
 0001:0002dd50       ?Grow@?$Array@V?$KeyValuePair@VStringAtom@Util@@H@Util@@@Util@@AAEXXZ 0042ed50 f i foundation_win32.release:zipdirentry.obj
 0001:0002ddd0       ??4?$KeyValuePair@VStringAtom@Util@@H@Util@@QAEXABV01@@Z 0042edd0 f i foundation_win32.release:zipdirentry.obj
 0001:0002de00       ??9?$KeyValuePair@VStringAtom@Util@@H@Util@@QBE_NABV01@@Z 0042ee00 f i foundation_win32.release:zipdirentry.obj
 0001:0002de20       ??O?$KeyValuePair@VStringAtom@Util@@H@Util@@QBE_NABV01@@Z 0042ee20 f i foundation_win32.release:zipdirentry.obj
 0001:0002de40       ??M?$KeyValuePair@VStringAtom@Util@@H@Util@@QBE_NABV01@@Z 0042ee40 f i foundation_win32.release:zipdirentry.obj
 0001:0002de60       ??_GZipFileEntry@IO@@QAEPAXI@Z 0042ee60 f i foundation_win32.release:zipdirentry.obj
 0001:0002de90       ??_GZipDirEntry@IO@@QAEPAXI@Z 0042ee90 f i foundation_win32.release:zipdirentry.obj
 0001:0002dec0       ?Destroy@?$Array@V?$KeyValuePair@VStringAtom@Util@@H@Util@@@Util@@AAEXPAV?$KeyValuePair@VStringAtom@Util@@H@2@@Z 0042eec0 f i foundation_win32.release:zipdirentry.obj
 0001:0002ded0       ?Copy@?$Array@V?$KeyValuePair@VStringAtom@Util@@H@Util@@@Util@@AAEXABV12@@Z 0042eed0 f i foundation_win32.release:zipdirentry.obj
 0001:0002dff0       ?GrowTo@?$Array@V?$KeyValuePair@VStringAtom@Util@@H@Util@@@Util@@AAEXH@Z 0042eff0 f i foundation_win32.release:zipdirentry.obj
 0001:0002e0e0       ?Move@?$Array@V?$KeyValuePair@VStringAtom@Util@@H@Util@@@Util@@AAEXHH@Z 0042f0e0 f i foundation_win32.release:zipdirentry.obj
 0001:0002e270       ??0?$KeyValuePair@VStringAtom@Util@@H@Util@@QAE@XZ 0042f270 f i foundation_win32.release:zipdirentry.obj
 0001:0002e290       ??0ZipFileEntry@IO@@QAE@XZ 0042f290 f   foundation_win32.release:zipfileentry.obj
 0001:0002e2e0       ??1ZipFileEntry@IO@@QAE@XZ 0042f2e0 f   foundation_win32.release:zipfileentry.obj
 0001:0002e300       ?Setup@ZipFileEntry@IO@@AAEXABVStringAtom@Util@@PAXPAVCriticalSection@Threading@@@Z 0042f300 f   foundation_win32.release:zipfileentry.obj
 0001:0002e400       ?Open@ZipFileEntry@IO@@QAE_NABVString@Util@@@Z 0042f400 f   foundation_win32.release:zipfileentry.obj
 0001:0002e500       ?Close@ZipFileEntry@IO@@QAEXXZ 0042f500 f   foundation_win32.release:zipfileentry.obj
 0001:0002e570       ?Read@ZipFileEntry@IO@@QBE_NPAXH@Z 0042f570 f   foundation_win32.release:zipfileentry.obj
 0001:0002e600       ?CheckValidCharSet@String@Util@@QBE_NABV12@@Z 0042f600 f i foundation_win32.release:win360ipaddress.obj
 0001:0002e6a0       ?Host@URI@IO@@QBEABVString@Util@@XZ 0042f6a0 f i foundation_win32.release:win360ipaddress.obj
 0001:0002e6c0       ?Port@URI@IO@@QBEABVString@Util@@XZ 0042f6c0 f i foundation_win32.release:win360ipaddress.obj
 0001:0002e6e0       ??0Win360IpAddress@Win360@@QAE@XZ 0042f6e0 f   foundation_win32.release:win360ipaddress.obj
 0001:0002e770       ??0Win360IpAddress@Win360@@QAE@ABV01@@Z 0042f770 f   foundation_win32.release:win360ipaddress.obj
 0001:0002e850       ??0Win360IpAddress@Win360@@QAE@ABVString@Util@@G@Z 0042f850 f   foundation_win32.release:win360ipaddress.obj
 0001:0002e8f0       ??0Win360IpAddress@Win360@@QAE@ABVURI@IO@@@Z 0042f8f0 f   foundation_win32.release:win360ipaddress.obj
 0001:0002e980       ??0Win360IpAddress@Win360@@AAE@ABUsockaddr_in@@@Z 0042f980 f   foundation_win32.release:win360ipaddress.obj
 0001:0002ea10       ?SetSockAddr@Win360IpAddress@Win360@@AAEXABUsockaddr_in@@@Z 0042fa10 f   foundation_win32.release:win360ipaddress.obj
 0001:0002eab0       ?GetSockAddr@Win360IpAddress@Win360@@ABEABUsockaddr_in@@XZ 0042fab0 f   foundation_win32.release:win360ipaddress.obj
 0001:0002ead0       ?ExtractFromUri@Win360IpAddress@Win360@@QAEXABVURI@IO@@@Z 0042fad0 f   foundation_win32.release:win360ipaddress.obj
 0001:0002eb90       ?SetPort@Win360IpAddress@Win360@@QAEXG@Z 0042fb90 f   foundation_win32.release:win360ipaddress.obj
 0001:0002ebb0       ?GetPort@Win360IpAddress@Win360@@QBEGXZ 0042fbb0 f   foundation_win32.release:win360ipaddress.obj
 0001:0002ebd0       ?SetHostName@Win360IpAddress@Win360@@QAEXABVString@Util@@@Z 0042fbd0 f   foundation_win32.release:win360ipaddress.obj
 0001:0002ec90       ?GetHostName@Win360IpAddress@Win360@@QBEABVString@Util@@XZ 0042fc90 f   foundation_win32.release:win360ipaddress.obj
 0001:0002eca0       ?GetHostAddr@Win360IpAddress@Win360@@QBEABVString@Util@@XZ 0042fca0 f   foundation_win32.release:win360ipaddress.obj
 0001:0002ecc0       ?GetHostByName@Win360IpAddress@Win360@@CA_NABVString@Util@@AAUin_addr@@@Z 0042fcc0 f   foundation_win32.release:win360ipaddress.obj
 0001:0002efb0       ?IsInetAddr@Win360IpAddress@Win360@@CA_NPBUin_addr@@@Z 0042ffb0 f   foundation_win32.release:win360ipaddress.obj
 0001:0002f1b0       ??2Socket@Net@@SAPAXI@Z    004301b0 f i foundation_win32.release:socket.obj
 0001:0002f1c0       ??3Socket@Net@@SAXPAX@Z    004301c0 f i foundation_win32.release:socket.obj
 0001:0002f1e0       ?GetRtti@Socket@Net@@UBEPAVRtti@Core@@XZ 004301e0 f   foundation_win32.release:socket.obj
 0001:0002f1f0       ?FactoryCreator@Socket@Net@@SAPAVRefCounted@Core@@XZ 004301f0 f   foundation_win32.release:socket.obj
 0001:0002f200       ?Create@Socket@Net@@SAPAV12@XZ 00430200 f   foundation_win32.release:socket.obj
 0001:0002f240       ??0Socket@Net@@QAE@XZ      00430240 f i foundation_win32.release:socket.obj
 0001:0002f260       ??_GSocket@Net@@UAEPAXI@Z  00430260 f i foundation_win32.release:socket.obj
 0001:0002f260       ??_ESocket@Net@@UAEPAXI@Z  00430260 f i  CIL library: CIL module
 0001:0002f290       ??1Socket@Net@@UAE@XZ      00430290 f i foundation_win32.release:socket.obj
 0001:0002f2b0       ?RegisterWithFactory@Socket@Net@@SA_NXZ 004302b0 f   foundation_win32.release:socket.obj
 0001:0002f3b0       ?IsValid@StringBuffer@Util@@QBE_NXZ 004303b0 f i foundation_win32.release:stringbuffer.obj
 0001:0002f3d0       ??0StringBuffer@Util@@QAE@XZ 004303d0 f   foundation_win32.release:stringbuffer.obj
 0001:0002f400       ??1StringBuffer@Util@@QAE@XZ 00430400 f   foundation_win32.release:stringbuffer.obj
 0001:0002f430       ?Setup@StringBuffer@Util@@QAEXH@Z 00430430 f   foundation_win32.release:stringbuffer.obj
 0001:0002f490       ?Discard@StringBuffer@Util@@QAEXXZ 00430490 f   foundation_win32.release:stringbuffer.obj
 0001:0002f530       ?AllocNewChunk@StringBuffer@Util@@AAEXXZ 00430530 f   foundation_win32.release:stringbuffer.obj
 0001:0002f570       ?AddString@StringBuffer@Util@@QAEPBDPBD@Z 00430570 f   foundation_win32.release:stringbuffer.obj
 0001:0002f690       ??0?$Array@PAD@Util@@QAE@XZ 00430690 f i foundation_win32.release:stringbuffer.obj
 0001:0002f6d0       ??1?$Array@PAD@Util@@QAE@XZ 004306d0 f i foundation_win32.release:stringbuffer.obj
 0001:0002f6f0       ??A?$Array@PAD@Util@@QBEAAPADH@Z 004306f0 f i foundation_win32.release:stringbuffer.obj
 0001:0002f740       ?Append@?$Array@PAD@Util@@QAEXABQAD@Z 00430740 f i foundation_win32.release:stringbuffer.obj
 0001:0002f7b0       ?Back@?$Array@PAD@Util@@QBEAAPADXZ 004307b0 f i foundation_win32.release:stringbuffer.obj
 0001:0002f800       ?Clear@?$Array@PAD@Util@@QAEXXZ 00430800 f i foundation_win32.release:stringbuffer.obj
 0001:0002f850       ?Destroy@?$Array@PAD@Util@@AAEXPAPAD@Z 00430850 f i foundation_win32.release:stringbuffer.obj
 0001:0002f860       ?Delete@?$Array@PAD@Util@@AAEXXZ 00430860 f i foundation_win32.release:stringbuffer.obj
 0001:0002f8c0       ?Grow@?$Array@PAD@Util@@AAEXXZ 004308c0 f i foundation_win32.release:stringbuffer.obj
 0001:0002f940       ?GrowTo@?$Array@PAD@Util@@AAEXH@Z 00430940 f i foundation_win32.release:stringbuffer.obj
 0001:0002f9f0       ??2ConsoleHandler@IO@@SAPAXI@Z 004309f0 f i foundation_win32.release:consolehandler.obj
 0001:0002fa00       ??3ConsoleHandler@IO@@SAXPAX@Z 00430a00 f i foundation_win32.release:consolehandler.obj
 0001:0002fa20       ?IsOpen@ConsoleHandler@IO@@QBE_NXZ 00430a20 f i foundation_win32.release:consolehandler.obj
 0001:0002fa40       ?GetRtti@ConsoleHandler@IO@@UBEPAVRtti@Core@@XZ 00430a40 f   foundation_win32.release:consolehandler.obj
 0001:0002fa50       ?FactoryCreator@ConsoleHandler@IO@@SAPAVRefCounted@Core@@XZ 00430a50 f   foundation_win32.release:consolehandler.obj
 0001:0002fa60       ?Create@ConsoleHandler@IO@@SAPAV12@XZ 00430a60 f   foundation_win32.release:consolehandler.obj
 0001:0002faa0       ?RegisterWithFactory@ConsoleHandler@IO@@SA_NXZ 00430aa0 f   foundation_win32.release:consolehandler.obj
 0001:0002fba0       ??0ConsoleHandler@IO@@QAE@XZ 00430ba0 f   foundation_win32.release:consolehandler.obj
 0001:0002fbe0       ??_GConsoleHandler@IO@@UAEPAXI@Z 00430be0 f i foundation_win32.release:consolehandler.obj
 0001:0002fbe0       ??_EConsoleHandler@IO@@UAEPAXI@Z 00430be0 f i  CIL library: CIL module
 0001:0002fc10       ??1ConsoleHandler@IO@@UAE@XZ 00430c10 f   foundation_win32.release:consolehandler.obj
 0001:0002fc50       ?Open@ConsoleHandler@IO@@UAEXXZ 00430c50 f   foundation_win32.release:consolehandler.obj
 0001:0002fc90       ?Close@ConsoleHandler@IO@@UAEXXZ 00430c90 f   foundation_win32.release:consolehandler.obj
 0001:0002fcd0       ?Update@ConsoleHandler@IO@@UAEXXZ 00430cd0 f   foundation_win32.release:consolehandler.obj
 0001:0002fd10       ?Print@ConsoleHandler@IO@@UAEXABVString@Util@@@Z 00430d10 f   foundation_win32.release:consolehandler.obj
 0001:0002fd20       ?Error@ConsoleHandler@IO@@UAEXABVString@Util@@@Z 00430d20 f   foundation_win32.release:consolehandler.obj
 0001:0002fd30       ?Warning@ConsoleHandler@IO@@UAEXABVString@Util@@@Z 00430d30 f   foundation_win32.release:consolehandler.obj
 0001:0002fd40       ?Confirm@ConsoleHandler@IO@@UAEXABVString@Util@@@Z 00430d40 f   foundation_win32.release:consolehandler.obj
 0001:0002fd50       ?DebugOut@ConsoleHandler@IO@@UAEXABVString@Util@@@Z 00430d50 f   foundation_win32.release:consolehandler.obj
 0001:0002fd60       ?HasInput@ConsoleHandler@IO@@UAE_NXZ 00430d60 f   foundation_win32.release:consolehandler.obj
 0001:0002fd70       ?GetInput@ConsoleHandler@IO@@UAE?AVString@Util@@XZ 00430d70 f   foundation_win32.release:consolehandler.obj
 0001:0002fdc0       ??2MemoryStream@IO@@SAPAXI@Z 00430dc0 f i foundation_win32.release:memorystream.obj
 0001:0002fdd0       ??3MemoryStream@IO@@SAXPAX@Z 00430dd0 f i foundation_win32.release:memorystream.obj
 0001:0002fdf0       ?GetRtti@MemoryStream@IO@@UBEPAVRtti@Core@@XZ 00430df0 f   foundation_win32.release:memorystream.obj
 0001:0002fe00       ?FactoryCreator@MemoryStream@IO@@SAPAVRefCounted@Core@@XZ 00430e00 f   foundation_win32.release:memorystream.obj
 0001:0002fe10       ?Create@MemoryStream@IO@@SAPAV12@XZ 00430e10 f   foundation_win32.release:memorystream.obj
 0001:0002fe50       ?RegisterWithFactory@MemoryStream@IO@@SA_NXZ 00430e50 f   foundation_win32.release:memorystream.obj
 0001:0002ff50       ??0MemoryStream@IO@@QAE@XZ 00430f50 f   foundation_win32.release:memorystream.obj
 0001:0002ffb0       ??_GMemoryStream@IO@@UAEPAXI@Z 00430fb0 f i foundation_win32.release:memorystream.obj
 0001:0002ffb0       ??_EMemoryStream@IO@@UAEPAXI@Z 00430fb0 f i  CIL library: CIL module
 0001:0002ffe0       ??1MemoryStream@IO@@UAE@XZ 00430fe0 f   foundation_win32.release:memorystream.obj
 0001:00030040       ?CanRead@MemoryStream@IO@@UBE_NXZ 00431040 f   foundation_win32.release:memorystream.obj
 0001:00030050       ?CanWrite@MemoryStream@IO@@UBE_NXZ 00431050 f   foundation_win32.release:memorystream.obj
 0001:00030060       ?CanSeek@MemoryStream@IO@@UBE_NXZ 00431060 f   foundation_win32.release:memorystream.obj
 0001:00030070       ?CanBeMapped@MemoryStream@IO@@UBE_NXZ 00431070 f   foundation_win32.release:memorystream.obj
 0001:00030080       ?SetSize@MemoryStream@IO@@UAEXH@Z 00431080 f   foundation_win32.release:memorystream.obj
 0001:000300c0       ?GetSize@MemoryStream@IO@@UBEHXZ 004310c0 f   foundation_win32.release:memorystream.obj
 0001:000300e0       ?GetPosition@MemoryStream@IO@@UBEHXZ 004310e0 f   foundation_win32.release:memorystream.obj
 0001:00030100       ?Open@MemoryStream@IO@@UAE_NXZ 00431100 f   foundation_win32.release:memorystream.obj
 0001:000301a0       ?Close@MemoryStream@IO@@UAEXXZ 004311a0 f   foundation_win32.release:memorystream.obj
 0001:00030200       ?Write@MemoryStream@IO@@UAEXPBXH@Z 00431200 f   foundation_win32.release:memorystream.obj
 0001:000303e0       ?Read@MemoryStream@IO@@UAEHPAXH@Z 004313e0 f   foundation_win32.release:memorystream.obj
 0001:000305b0       ?Seek@MemoryStream@IO@@UAEXHW4SeekOrigin@Stream@2@@Z 004315b0 f   foundation_win32.release:memorystream.obj
 0001:000306f0       ?Eof@MemoryStream@IO@@UBE_NXZ 004316f0 f   foundation_win32.release:memorystream.obj
 0001:000307a0       ?HasRoom@MemoryStream@IO@@ABE_NH@Z 004317a0 f   foundation_win32.release:memorystream.obj
 0001:000307d0       ?Realloc@MemoryStream@IO@@AAEXH@Z 004317d0 f   foundation_win32.release:memorystream.obj
 0001:00030950       ?MakeRoom@MemoryStream@IO@@AAEXH@Z 00431950 f   foundation_win32.release:memorystream.obj
 0001:00030a20       ?Map@MemoryStream@IO@@UAEPAXXZ 00431a20 f   foundation_win32.release:memorystream.obj
 0001:00030a90       ?Unmap@MemoryStream@IO@@UAEXXZ 00431a90 f   foundation_win32.release:memorystream.obj
 0001:00030ad0       ?GetRawPointer@MemoryStream@IO@@QBEPAXXZ 00431ad0 f   foundation_win32.release:memorystream.obj
 0001:00030b10       ??2HttpClientRegistry@Http@@SAPAXI@Z 00431b10 f i foundation_win32.release:httpclientregistry.obj
 0001:00030b20       ??3HttpClientRegistry@Http@@SAXPAX@Z 00431b20 f i foundation_win32.release:httpclientregistry.obj
 0001:00030b40       ?IsValid@HttpClientRegistry@Http@@QBE_NXZ 00431b40 f i foundation_win32.release:httpclientregistry.obj
 0001:00030b60       ?GetRtti@HttpClientRegistry@Http@@UBEPAVRtti@Core@@XZ 00431b60 f   foundation_win32.release:httpclientregistry.obj
 0001:00030b70       ?FactoryCreator@HttpClientRegistry@Http@@SAPAVRefCounted@Core@@XZ 00431b70 f   foundation_win32.release:httpclientregistry.obj
 0001:00030b80       ?Create@HttpClientRegistry@Http@@SAPAV12@XZ 00431b80 f   foundation_win32.release:httpclientregistry.obj
 0001:00030bc0       ?RegisterWithFactory@HttpClientRegistry@Http@@SA_NXZ 00431bc0 f   foundation_win32.release:httpclientregistry.obj
 0001:00030cc0       ??0HttpClientRegistry@Http@@QAE@XZ 00431cc0 f   foundation_win32.release:httpclientregistry.obj
 0001:00030d30       ??_GHttpClientRegistry@Http@@UAEPAXI@Z 00431d30 f i foundation_win32.release:httpclientregistry.obj
 0001:00030d30       ??_EHttpClientRegistry@Http@@UAEPAXI@Z 00431d30 f i  CIL library: CIL module
 0001:00030d60       ??1?$Dictionary@VStringAtom@Util@@UConnection@HttpClientRegistry@Http@@@Util@@QAE@XZ 00431d60 f i foundation_win32.release:httpclientregistry.obj
 0001:00030d80       ??1HttpClientRegistry@Http@@UAE@XZ 00431d80 f   foundation_win32.release:httpclientregistry.obj
 0001:00030e00       ?Setup@HttpClientRegistry@Http@@QAEXXZ 00431e00 f   foundation_win32.release:httpclientregistry.obj
 0001:00030e40       ?Discard@HttpClientRegistry@Http@@QAEXXZ 00431e40 f   foundation_win32.release:httpclientregistry.obj
 0001:00030ed0       ?DisconnectIdle@HttpClientRegistry@Http@@QAEXXZ 00431ed0 f   foundation_win32.release:httpclientregistry.obj
 0001:00030f50       ?ObtainConnection@HttpClientRegistry@Http@@QAE?AV?$Ptr@VHttpClient@Http@@@@ABVURI@IO@@@Z 00431f50 f   foundation_win32.release:httpclientregistry.obj
 0001:00031060       ??0Connection@HttpClientRegistry@Http@@QAE@XZ 00432060 f i foundation_win32.release:httpclientregistry.obj
 0001:00031080       ??1Connection@HttpClientRegistry@Http@@QAE@XZ 00432080 f i foundation_win32.release:httpclientregistry.obj
 0001:000310a0       ?ReleaseConnection@HttpClientRegistry@Http@@QAEXABVURI@IO@@@Z 004320a0 f   foundation_win32.release:httpclientregistry.obj
 0001:00031140       ?IsConnected@HttpClientRegistry@Http@@QBE_NABVURI@IO@@@Z 00432140 f   foundation_win32.release:httpclientregistry.obj
 0001:000311c0       ??0?$Ptr@VHttpClient@Http@@@@QAE@ABV0@@Z 004321c0 f i foundation_win32.release:httpclientregistry.obj
 0001:00031200       ??0?$Ptr@VHttpClient@Http@@@@QAE@XZ 00432200 f i foundation_win32.release:httpclientregistry.obj
 0001:00031220       ??4?$Ptr@VHttpClient@Http@@@@QAEXPAVHttpClient@Http@@@Z 00432220 f i foundation_win32.release:httpclientregistry.obj
 0001:00031280       ??1?$Array@V?$KeyValuePair@VStringAtom@Util@@UConnection@HttpClientRegistry@Http@@@Util@@@Util@@QAE@XZ 00432280 f i foundation_win32.release:httpclientregistry.obj
 0001:000312a0       ??0?$Dictionary@VStringAtom@Util@@UConnection@HttpClientRegistry@Http@@@Util@@QAE@XZ 004322a0 f i foundation_win32.release:httpclientregistry.obj
 0001:000312c0       ??A?$Dictionary@VStringAtom@Util@@UConnection@HttpClientRegistry@Http@@@Util@@QBEABUConnection@HttpClientRegistry@Http@@ABVStringAtom@1@@Z 004322c0 f i foundation_win32.release:httpclientregistry.obj
 0001:00031310       ??A?$Dictionary@VStringAtom@Util@@UConnection@HttpClientRegistry@Http@@@Util@@QAEAAUConnection@HttpClientRegistry@Http@@ABVStringAtom@1@@Z 00432310 f i foundation_win32.release:httpclientregistry.obj
 0001:00031360       ?Size@?$Dictionary@VStringAtom@Util@@UConnection@HttpClientRegistry@Http@@@Util@@QBEHXZ 00432360 f i foundation_win32.release:httpclientregistry.obj
 0001:00031380       ?Clear@?$Dictionary@VStringAtom@Util@@UConnection@HttpClientRegistry@Http@@@Util@@QAEXXZ 00432380 f i foundation_win32.release:httpclientregistry.obj
 0001:000313c0       ?Add@?$Dictionary@VStringAtom@Util@@UConnection@HttpClientRegistry@Http@@@Util@@QAEXABVStringAtom@2@ABUConnection@HttpClientRegistry@Http@@@Z 004323c0 f i foundation_win32.release:httpclientregistry.obj
 0001:00031410       ?EraseAtIndex@?$Dictionary@VStringAtom@Util@@UConnection@HttpClientRegistry@Http@@@Util@@QAEXH@Z 00432410 f i foundation_win32.release:httpclientregistry.obj
 0001:00031450       ?FindIndex@?$Dictionary@VStringAtom@Util@@UConnection@HttpClientRegistry@Http@@@Util@@QBEHABVStringAtom@2@@Z 00432450 f i foundation_win32.release:httpclientregistry.obj
 0001:000314b0       ?Contains@?$Dictionary@VStringAtom@Util@@UConnection@HttpClientRegistry@Http@@@Util@@QBE_NABVStringAtom@2@@Z 004324b0 f i foundation_win32.release:httpclientregistry.obj
 0001:00031510       ?ValueAtIndex@?$Dictionary@VStringAtom@Util@@UConnection@HttpClientRegistry@Http@@@Util@@QAEAAUConnection@HttpClientRegistry@Http@@H@Z 00432510 f i foundation_win32.release:httpclientregistry.obj
 0001:00031560       ??1?$KeyValuePair@VStringAtom@Util@@UConnection@HttpClientRegistry@Http@@@Util@@QAE@XZ 00432560 f i foundation_win32.release:httpclientregistry.obj
 0001:00031580       ??0?$Array@V?$KeyValuePair@VStringAtom@Util@@UConnection@HttpClientRegistry@Http@@@Util@@@Util@@QAE@XZ 00432580 f i foundation_win32.release:httpclientregistry.obj
 0001:000315c0       ??A?$Array@V?$KeyValuePair@VStringAtom@Util@@UConnection@HttpClientRegistry@Http@@@Util@@@Util@@QBEAAV?$KeyValuePair@VStringAtom@Util@@UConnection@HttpClientRegistry@Http@@@1@H@Z 004325c0 f i foundation_win32.release:httpclientregistry.obj
 0001:00031610       ?Append@?$Array@V?$KeyValuePair@VStringAtom@Util@@UConnection@HttpClientRegistry@Http@@@Util@@@Util@@QAEXABV?$KeyValuePair@VStringAtom@Util@@UConnection@HttpClientRegistry@Http@@@2@@Z 00432610 f i foundation_win32.release:httpclientregistry.obj
 0001:00031690       ?Size@?$Array@V?$KeyValuePair@VStringAtom@Util@@UConnection@HttpClientRegistry@Http@@@Util@@@Util@@QBEHXZ 00432690 f i foundation_win32.release:httpclientregistry.obj
 0001:000316b0       ?EraseIndex@?$Array@V?$KeyValuePair@VStringAtom@Util@@UConnection@HttpClientRegistry@Http@@@Util@@@Util@@QAEXH@Z 004326b0 f i foundation_win32.release:httpclientregistry.obj
 0001:00031730       ?InsertSorted@?$Array@V?$KeyValuePair@VStringAtom@Util@@UConnection@HttpClientRegistry@Http@@@Util@@@Util@@QAEHABV?$KeyValuePair@VStringAtom@Util@@UConnection@HttpClientRegistry@Http@@@2@@Z 00432730 f i foundation_win32.release:httpclientregistry.obj
 0001:000319a0       ?Clear@?$Array@V?$KeyValuePair@VStringAtom@Util@@UConnection@HttpClientRegistry@Http@@@Util@@@Util@@QAEXXZ 004329a0 f i foundation_win32.release:httpclientregistry.obj
 0001:000319f0       ?BinarySearchIndex@?$Array@V?$KeyValuePair@VStringAtom@Util@@UConnection@HttpClientRegistry@Http@@@Util@@@Util@@QBEHABV?$KeyValuePair@VStringAtom@Util@@UConnection@HttpClientRegistry@Http@@@2@@Z 004329f0 f i foundation_win32.release:httpclientregistry.obj
 0001:00031b20       ?Delete@?$Array@V?$KeyValuePair@VStringAtom@Util@@UConnection@HttpClientRegistry@Http@@@Util@@@Util@@AAEXXZ 00432b20 f i foundation_win32.release:httpclientregistry.obj
 0001:00031b90       ??0?$KeyValuePair@VStringAtom@Util@@UConnection@HttpClientRegistry@Http@@@Util@@QAE@ABVStringAtom@1@@Z 00432b90 f i foundation_win32.release:httpclientregistry.obj
 0001:00031bc0       ??0?$KeyValuePair@VStringAtom@Util@@UConnection@HttpClientRegistry@Http@@@Util@@QAE@ABVStringAtom@1@ABUConnection@HttpClientRegistry@Http@@@Z 00432bc0 f i foundation_win32.release:httpclientregistry.obj
 0001:00031c00       ?Value@?$KeyValuePair@VStringAtom@Util@@UConnection@HttpClientRegistry@Http@@@Util@@QAEAAUConnection@HttpClientRegistry@Http@@XZ 00432c00 f i foundation_win32.release:httpclientregistry.obj
 0001:00031c20       ??_E?$KeyValuePair@VStringAtom@Util@@UConnection@HttpClientRegistry@Http@@@Util@@QAEPAXI@Z 00432c20 f i foundation_win32.release:httpclientregistry.obj
 0001:00031cc0       ??0Connection@HttpClientRegistry@Http@@QAE@ABU012@@Z 00432cc0 f i foundation_win32.release:httpclientregistry.obj
 0001:00031cf0       ?Insert@?$Array@V?$KeyValuePair@VStringAtom@Util@@UConnection@HttpClientRegistry@Http@@@Util@@@Util@@QAEXHABV?$KeyValuePair@VStringAtom@Util@@UConnection@HttpClientRegistry@Http@@@2@@Z 00432cf0 f i foundation_win32.release:httpclientregistry.obj
 0001:00031d60       ?InsertAtEndOfIdenticalRange@?$Array@V?$KeyValuePair@VStringAtom@Util@@UConnection@HttpClientRegistry@Http@@@Util@@@Util@@QAEHHABV?$KeyValuePair@VStringAtom@Util@@UConnection@HttpClientRegistry@Http@@@2@@Z 00432d60 f i foundation_win32.release:httpclientregistry.obj
 0001:00031de0       ?Destroy@?$Array@V?$KeyValuePair@VStringAtom@Util@@UConnection@HttpClientRegistry@Http@@@Util@@@Util@@AAEXPAV?$KeyValuePair@VStringAtom@Util@@UConnection@HttpClientRegistry@Http@@@2@@Z 00432de0 f i foundation_win32.release:httpclientregistry.obj
 0001:00031e10       ?Grow@?$Array@V?$KeyValuePair@VStringAtom@Util@@UConnection@HttpClientRegistry@Http@@@Util@@@Util@@AAEXXZ 00432e10 f i foundation_win32.release:httpclientregistry.obj
 0001:00031e90       ?Move@?$Array@V?$KeyValuePair@VStringAtom@Util@@UConnection@HttpClientRegistry@Http@@@Util@@@Util@@AAEXHH@Z 00432e90 f i foundation_win32.release:httpclientregistry.obj
 0001:00032020       ??4?$KeyValuePair@VStringAtom@Util@@UConnection@HttpClientRegistry@Http@@@Util@@QAEXABV01@@Z 00433020 f i foundation_win32.release:httpclientregistry.obj
 0001:00032070       ??9?$KeyValuePair@VStringAtom@Util@@UConnection@HttpClientRegistry@Http@@@Util@@QBE_NABV01@@Z 00433070 f i foundation_win32.release:httpclientregistry.obj
 0001:00032090       ??O?$KeyValuePair@VStringAtom@Util@@UConnection@HttpClientRegistry@Http@@@Util@@QBE_NABV01@@Z 00433090 f i foundation_win32.release:httpclientregistry.obj
 0001:000320b0       ??M?$KeyValuePair@VStringAtom@Util@@UConnection@HttpClientRegistry@Http@@@Util@@QBE_NABV01@@Z 004330b0 f i foundation_win32.release:httpclientregistry.obj
 0001:000320d0       ??_G?$KeyValuePair@VStringAtom@Util@@UConnection@HttpClientRegistry@Http@@@Util@@QAEPAXI@Z 004330d0 f i foundation_win32.release:httpclientregistry.obj
 0001:00032110       ??4Connection@HttpClientRegistry@Http@@QAEAAU012@ABU012@@Z 00433110 f i foundation_win32.release:httpclientregistry.obj
 0001:00032140       ?GrowTo@?$Array@V?$KeyValuePair@VStringAtom@Util@@UConnection@HttpClientRegistry@Http@@@Util@@@Util@@AAEXH@Z 00433140 f i foundation_win32.release:httpclientregistry.obj
 0001:00032260       ??4?$Ptr@VHttpClient@Http@@@@QAEXABV0@@Z 00433260 f i foundation_win32.release:httpclientregistry.obj
 0001:000322c0       ??0?$KeyValuePair@VStringAtom@Util@@UConnection@HttpClientRegistry@Http@@@Util@@QAE@XZ 004332c0 f i foundation_win32.release:httpclientregistry.obj
 0001:000322f0       ?SetBlocking@StdTcpClient@Net@@QAEX_N@Z 004332f0 f i foundation_win32.release:httpclient.obj
 0001:00032330       ?IsBlocking@StdTcpClient@Net@@QBE_NXZ 00433330 f i foundation_win32.release:httpclient.obj
 0001:00032350       ?SetServerAddress@StdTcpClient@Net@@QAEXABVWin360IpAddress@Win360@@@Z 00433350 f i foundation_win32.release:httpclient.obj
 0001:00032370       ??2HttpClient@Http@@SAPAXI@Z 00433370 f i foundation_win32.release:httpclient.obj
 0001:00032380       ??3HttpClient@Http@@SAXPAX@Z 00433380 f i foundation_win32.release:httpclient.obj
 0001:000323a0       ?SetMethod@HttpRequestWriter@Http@@QAEXW4Code@HttpMethod@2@@Z 004333a0 f i foundation_win32.release:httpclient.obj
 0001:000323c0       ?SetURI@HttpRequestWriter@Http@@QAEXABVURI@IO@@@Z 004333c0 f i foundation_win32.release:httpclient.obj
 0001:000323e0       ?SetUserAgent@HttpRequestWriter@Http@@QAEXABVString@Util@@@Z 004333e0 f i foundation_win32.release:httpclient.obj
 0001:00032430       ?IsValidHttpResponse@HttpResponseReader@Http@@QBE_NXZ 00433430 f i foundation_win32.release:httpclient.obj
 0001:00032450       ?GetStatusCode@HttpResponseReader@Http@@QBE?AW4Code@HttpStatus@2@XZ 00433450 f i foundation_win32.release:httpclient.obj
 0001:00032470       ?GetContentLength@HttpResponseReader@Http@@QBEHXZ 00433470 f i foundation_win32.release:httpclient.obj
 0001:00032490       ?GetRtti@HttpClient@Http@@UBEPAVRtti@Core@@XZ 00433490 f   foundation_win32.release:httpclient.obj
 0001:000324a0       ?FactoryCreator@HttpClient@Http@@SAPAVRefCounted@Core@@XZ 004334a0 f   foundation_win32.release:httpclient.obj
 0001:000324b0       ?Create@HttpClient@Http@@SAPAV12@XZ 004334b0 f   foundation_win32.release:httpclient.obj
 0001:000324f0       ?RegisterWithFactory@HttpClient@Http@@SA_NXZ 004334f0 f   foundation_win32.release:httpclient.obj
 0001:000325f0       ??0HttpClient@Http@@QAE@XZ 004335f0 f   foundation_win32.release:httpclient.obj
 0001:00032690       ??_EHttpClient@Http@@UAEPAXI@Z 00433690 f i  CIL library: CIL module
 0001:00032690       ??_GHttpClient@Http@@UAEPAXI@Z 00433690 f i foundation_win32.release:httpclient.obj
 0001:000326c0       ??1HttpClient@Http@@UAE@XZ 004336c0 f   foundation_win32.release:httpclient.obj
 0001:00032760       ?Connect@HttpClient@Http@@QAE_NABVURI@IO@@@Z 00433760 f   foundation_win32.release:httpclient.obj
 0001:00032850       ?Disconnect@HttpClient@Http@@QAEXXZ 00433850 f   foundation_win32.release:httpclient.obj
 0001:00032880       ?IsConnected@HttpClient@Http@@QBE_NXZ 00433880 f   foundation_win32.release:httpclient.obj
 0001:000328a0       ?SendRequest@HttpClient@Http@@QAE?AW4Code@HttpStatus@2@W43HttpMethod@2@ABVURI@IO@@ABV?$Ptr@VStream@IO@@@@@Z 004338a0 f   foundation_win32.release:httpclient.obj
 0001:00032e40       ?isvalid@?$Ptr@VSocket@Net@@@@QBE_NXZ 00433e40 f i foundation_win32.release:httpclient.obj
 0001:00032e60       ??0?$Ptr@VTcpClient@Net@@@@QAE@XZ 00433e60 f i foundation_win32.release:httpclient.obj
 0001:00032e80       ??1?$Ptr@VTcpClient@Net@@@@QAE@XZ 00433e80 f i foundation_win32.release:httpclient.obj
 0001:00032eb0       ??4?$Ptr@VTcpClient@Net@@@@QAEXPAVTcpClient@Net@@@Z 00433eb0 f i foundation_win32.release:httpclient.obj
 0001:00032f10       ??C?$Ptr@VTcpClient@Net@@@@QBEPAVTcpClient@Net@@XZ 00433f10 f i foundation_win32.release:httpclient.obj
 0001:00032f50       ??0?$Ptr@VHttpRequestWriter@Http@@@@QAE@PAVHttpRequestWriter@Http@@@Z 00433f50 f i foundation_win32.release:httpclient.obj
 0001:00032f90       ??1?$Ptr@VHttpRequestWriter@Http@@@@QAE@XZ 00433f90 f i foundation_win32.release:httpclient.obj
 0001:00032fc0       ??C?$Ptr@VHttpRequestWriter@Http@@@@QBEPAVHttpRequestWriter@Http@@XZ 00433fc0 f i foundation_win32.release:httpclient.obj
 0001:00033000       ??0?$Ptr@VHttpResponseReader@Http@@@@QAE@PAVHttpResponseReader@Http@@@Z 00434000 f i foundation_win32.release:httpclient.obj
 0001:00033040       ??1?$Ptr@VHttpResponseReader@Http@@@@QAE@XZ 00434040 f i foundation_win32.release:httpclient.obj
 0001:00033070       ??C?$Ptr@VHttpResponseReader@Http@@@@QBEPAVHttpResponseReader@Http@@XZ 00434070 f i foundation_win32.release:httpclient.obj
 0001:000330b0       ??2TcpClient@Net@@SAPAXI@Z 004340b0 f i foundation_win32.release:tcpclient.obj
 0001:000330c0       ??3TcpClient@Net@@SAXPAX@Z 004340c0 f i foundation_win32.release:tcpclient.obj
 0001:000330e0       ?GetRtti@TcpClient@Net@@UBEPAVRtti@Core@@XZ 004340e0 f   foundation_win32.release:tcpclient.obj
 0001:000330f0       ?FactoryCreator@TcpClient@Net@@SAPAVRefCounted@Core@@XZ 004340f0 f   foundation_win32.release:tcpclient.obj
 0001:00033100       ?Create@TcpClient@Net@@SAPAV12@XZ 00434100 f   foundation_win32.release:tcpclient.obj
 0001:00033140       ??0TcpClient@Net@@QAE@XZ   00434140 f i foundation_win32.release:tcpclient.obj
 0001:00033160       ??_ETcpClient@Net@@UAEPAXI@Z 00434160 f i  CIL library: CIL module
 0001:00033160       ??_GTcpClient@Net@@UAEPAXI@Z 00434160 f i foundation_win32.release:tcpclient.obj
 0001:00033190       ??1TcpClient@Net@@UAE@XZ   00434190 f i foundation_win32.release:tcpclient.obj
 0001:000331b0       ?RegisterWithFactory@TcpClient@Net@@SA_NXZ 004341b0 f   foundation_win32.release:tcpclient.obj
 0001:000332b0       ?SetReUseAddr@Win360Socket@Win360@@QAEX_N@Z 004342b0 f i foundation_win32.release:stdtcpclient.obj
 0001:000332d0       ?SetNoDelay@Win360Socket@Win360@@QAEX_N@Z 004342d0 f i foundation_win32.release:stdtcpclient.obj
 0001:000332f0       ?GetMaxMsgSize@Win360Socket@Win360@@QAEHXZ 004342f0 f i foundation_win32.release:stdtcpclient.obj
 0001:00033300       ??2StdTcpClient@Net@@SAPAXI@Z 00434300 f i foundation_win32.release:stdtcpclient.obj
 0001:00033310       ??3StdTcpClient@Net@@SAXPAX@Z 00434310 f i foundation_win32.release:stdtcpclient.obj
 0001:00033330       ?GetRtti@StdTcpClient@Net@@UBEPAVRtti@Core@@XZ 00434330 f   foundation_win32.release:stdtcpclient.obj
 0001:00033340       ?FactoryCreator@StdTcpClient@Net@@SAPAVRefCounted@Core@@XZ 00434340 f   foundation_win32.release:stdtcpclient.obj
 0001:00033350       ?Create@StdTcpClient@Net@@SAPAV12@XZ 00434350 f   foundation_win32.release:stdtcpclient.obj
 0001:00033390       ?RegisterWithFactory@StdTcpClient@Net@@SA_NXZ 00434390 f   foundation_win32.release:stdtcpclient.obj
 0001:00033490       ??0StdTcpClient@Net@@QAE@XZ 00434490 f   foundation_win32.release:stdtcpclient.obj
 0001:00033520       ??_GStdTcpClient@Net@@UAEPAXI@Z 00434520 f i foundation_win32.release:stdtcpclient.obj
 0001:00033520       ??_EStdTcpClient@Net@@UAEPAXI@Z 00434520 f i  CIL library: CIL module
 0001:00033550       ??1StdTcpClient@Net@@UAE@XZ 00434550 f   foundation_win32.release:stdtcpclient.obj
 0001:000335d0       ?Connect@StdTcpClient@Net@@QAE?AW4Result@12@XZ 004345d0 f   foundation_win32.release:stdtcpclient.obj
 0001:000337e0       ?IsConnected@StdTcpClient@Net@@QAE_NXZ 004347e0 f   foundation_win32.release:stdtcpclient.obj
 0001:00033830       ?Disconnect@StdTcpClient@Net@@QAEXXZ 00434830 f   foundation_win32.release:stdtcpclient.obj
 0001:000338a0       ?Send@StdTcpClient@Net@@QAE_NXZ 004348a0 f   foundation_win32.release:stdtcpclient.obj
 0001:00033b50       ?Recv@StdTcpClient@Net@@QAE_NXZ 00434b50 f   foundation_win32.release:stdtcpclient.obj
 0001:00033d20       ?GetSendStream@StdTcpClient@Net@@QAEABV?$Ptr@VStream@IO@@@@XZ 00434d20 f   foundation_win32.release:stdtcpclient.obj
 0001:00033d40       ?GetRecvStream@StdTcpClient@Net@@QAEABV?$Ptr@VStream@IO@@@@XZ 00434d40 f   foundation_win32.release:stdtcpclient.obj
 0001:00033d60       ??0?$Ptr@VSocket@Net@@@@QAE@XZ 00434d60 f i foundation_win32.release:stdtcpclient.obj
 0001:00033d80       ??1?$Ptr@VSocket@Net@@@@QAE@XZ 00434d80 f i foundation_win32.release:stdtcpclient.obj
 0001:00033db0       ??0?$Ptr@VStream@IO@@@@QAE@XZ 00434db0 f i foundation_win32.release:stdtcpclient.obj
 0001:00033dd0       ??4?$Ptr@VStream@IO@@@@QAEXPAVStream@IO@@@Z 00434dd0 f i foundation_win32.release:stdtcpclient.obj
 0001:00033e30       ?isvalid@?$Ptr@VStream@IO@@@@QBE_NXZ 00434e30 f i foundation_win32.release:stdtcpclient.obj
 0001:00033e50       ?IsValid@URI@IO@@QBE_NXZ   00434e50 f i foundation_win32.release:httprequestwriter.obj
 0001:00033e70       ?IsOpen@StreamWriter@IO@@QBE_NXZ 00434e70 f i foundation_win32.release:httprequestwriter.obj
 0001:00033e90       ?ToString@HttpMethod@Http@@SA?AVString@Util@@W4Code@12@@Z 00434e90 f i foundation_win32.release:httprequestwriter.obj
 0001:000340d0       ??2HttpRequestWriter@Http@@SAPAXI@Z 004350d0 f i foundation_win32.release:httprequestwriter.obj
 0001:000340e0       ??3HttpRequestWriter@Http@@SAXPAX@Z 004350e0 f i foundation_win32.release:httprequestwriter.obj
 0001:00034100       ?GetRtti@HttpRequestWriter@Http@@UBEPAVRtti@Core@@XZ 00435100 f   foundation_win32.release:httprequestwriter.obj
 0001:00034110       ?FactoryCreator@HttpRequestWriter@Http@@SAPAVRefCounted@Core@@XZ 00435110 f   foundation_win32.release:httprequestwriter.obj
 0001:00034120       ?Create@HttpRequestWriter@Http@@SAPAV12@XZ 00435120 f   foundation_win32.release:httprequestwriter.obj
 0001:00034160       ?RegisterWithFactory@HttpRequestWriter@Http@@SA_NXZ 00435160 f   foundation_win32.release:httprequestwriter.obj
 0001:00034260       ??0HttpRequestWriter@Http@@QAE@XZ 00435260 f   foundation_win32.release:httprequestwriter.obj
 0001:000342e0       ??_EHttpRequestWriter@Http@@UAEPAXI@Z 004352e0 f i  CIL library: CIL module
 0001:000342e0       ??_GHttpRequestWriter@Http@@UAEPAXI@Z 004352e0 f i foundation_win32.release:httprequestwriter.obj
 0001:00034310       ??1HttpRequestWriter@Http@@UAE@XZ 00435310 f i foundation_win32.release:httprequestwriter.obj
 0001:00034380       ?WriteRequestHeader@HttpRequestWriter@Http@@QAE_NXZ 00435380 f   foundation_win32.release:httprequestwriter.obj
 0001:00034760       ??0?$Ptr@VTextWriter@IO@@@@QAE@PAVTextWriter@IO@@@Z 00435760 f i foundation_win32.release:httprequestwriter.obj
 0001:000347a0       ??1?$Ptr@VTextWriter@IO@@@@QAE@XZ 004357a0 f i foundation_win32.release:httprequestwriter.obj
 0001:000347d0       ??C?$Ptr@VTextWriter@IO@@@@QBEPAVTextWriter@IO@@XZ 004357d0 f i foundation_win32.release:httprequestwriter.obj
 0001:00034810       ??2StreamWriter@IO@@SAPAXI@Z 00435810 f i foundation_win32.release:streamwriter.obj
 0001:00034820       ??3StreamWriter@IO@@SAXPAX@Z 00435820 f i foundation_win32.release:streamwriter.obj
 0001:00034840       ?GetRtti@StreamWriter@IO@@UBEPAVRtti@Core@@XZ 00435840 f   foundation_win32.release:streamwriter.obj
 0001:00034850       ?FactoryCreator@StreamWriter@IO@@SAPAVRefCounted@Core@@XZ 00435850 f   foundation_win32.release:streamwriter.obj
 0001:00034860       ?Create@StreamWriter@IO@@SAPAV12@XZ 00435860 f   foundation_win32.release:streamwriter.obj
 0001:000348a0       ?RegisterWithFactory@StreamWriter@IO@@SA_NXZ 004358a0 f   foundation_win32.release:streamwriter.obj
 0001:000349a0       ??0StreamWriter@IO@@QAE@XZ 004359a0 f   foundation_win32.release:streamwriter.obj
 0001:000349f0       ??_EStreamWriter@IO@@UAEPAXI@Z 004359f0 f i  CIL library: CIL module
 0001:000349f0       ??_GStreamWriter@IO@@UAEPAXI@Z 004359f0 f i foundation_win32.release:streamwriter.obj
 0001:00034a20       ??1StreamWriter@IO@@UAE@XZ 00435a20 f   foundation_win32.release:streamwriter.obj
 0001:00034a70       ?SetStream@StreamWriter@IO@@QAEXABV?$Ptr@VStream@IO@@@@@Z 00435a70 f   foundation_win32.release:streamwriter.obj
 0001:00034a90       ?GetStream@StreamWriter@IO@@QBEABV?$Ptr@VStream@IO@@@@XZ 00435a90 f   foundation_win32.release:streamwriter.obj
 0001:00034ab0       ?HasStream@StreamWriter@IO@@QBE_NXZ 00435ab0 f   foundation_win32.release:streamwriter.obj
 0001:00034ad0       ?Open@StreamWriter@IO@@UAE_NXZ 00435ad0 f   foundation_win32.release:streamwriter.obj
 0001:00034c20       ?Close@StreamWriter@IO@@UAEXXZ 00435c20 f   foundation_win32.release:streamwriter.obj
 0001:00034ca0       ??4?$Ptr@VStream@IO@@@@QAEXABV0@@Z 00435ca0 f i foundation_win32.release:streamwriter.obj
 0001:00034d00       ?Set@MediaType@IO@@QAEXABVString@Util@@@Z 00435d00 f i foundation_win32.release:httpresponsereader.obj
 0001:00034e50       ?Clear@MediaType@IO@@QAEXXZ 00435e50 f i foundation_win32.release:httpresponsereader.obj
 0001:00034ee0       ??2HttpResponseReader@Http@@SAPAXI@Z 00435ee0 f i foundation_win32.release:httpresponsereader.obj
 0001:00034ef0       ??3HttpResponseReader@Http@@SAXPAX@Z 00435ef0 f i foundation_win32.release:httpresponsereader.obj
 0001:00034f10       ?GetRtti@HttpResponseReader@Http@@UBEPAVRtti@Core@@XZ 00435f10 f   foundation_win32.release:httpresponsereader.obj
 0001:00034f20       ?FactoryCreator@HttpResponseReader@Http@@SAPAVRefCounted@Core@@XZ 00435f20 f   foundation_win32.release:httpresponsereader.obj
 0001:00034f30       ?Create@HttpResponseReader@Http@@SAPAV12@XZ 00435f30 f   foundation_win32.release:httpresponsereader.obj
 0001:00034f70       ?RegisterWithFactory@HttpResponseReader@Http@@SA_NXZ 00435f70 f   foundation_win32.release:httpresponsereader.obj
 0001:00035070       ??0HttpResponseReader@Http@@QAE@XZ 00436070 f   foundation_win32.release:httpresponsereader.obj
 0001:000350c0       ??_GHttpResponseReader@Http@@UAEPAXI@Z 004360c0 f i foundation_win32.release:httpresponsereader.obj
 0001:000350c0       ??_EHttpResponseReader@Http@@UAEPAXI@Z 004360c0 f i  CIL library: CIL module
 0001:00035100       ??1HttpResponseReader@Http@@UAE@XZ 00436100 f i foundation_win32.release:httpresponsereader.obj
 0001:00035120       ?ReadResponse@HttpResponseReader@Http@@QAE_NXZ 00436120 f   foundation_win32.release:httpresponsereader.obj
 0001:000357c0       ??0?$Ptr@VTextReader@IO@@@@QAE@PAVTextReader@IO@@@Z 004367c0 f i foundation_win32.release:httpresponsereader.obj
 0001:00035800       ??1?$Ptr@VTextReader@IO@@@@QAE@XZ 00436800 f i foundation_win32.release:httpresponsereader.obj
 0001:00035830       ??C?$Ptr@VTextReader@IO@@@@QBEPAVTextReader@IO@@XZ 00436830 f i foundation_win32.release:httpresponsereader.obj
 0001:00035870       ??2StreamReader@IO@@SAPAXI@Z 00436870 f i foundation_win32.release:streamreader.obj
 0001:00035880       ??3StreamReader@IO@@SAXPAX@Z 00436880 f i foundation_win32.release:streamreader.obj
 0001:000358a0       ?IsOpen@StreamReader@IO@@QBE_NXZ 004368a0 f i foundation_win32.release:streamreader.obj
 0001:000358c0       ?GetRtti@StreamReader@IO@@UBEPAVRtti@Core@@XZ 004368c0 f   foundation_win32.release:streamreader.obj
 0001:000358d0       ?FactoryCreator@StreamReader@IO@@SAPAVRefCounted@Core@@XZ 004368d0 f   foundation_win32.release:streamreader.obj
 0001:000358e0       ?Create@StreamReader@IO@@SAPAV12@XZ 004368e0 f   foundation_win32.release:streamreader.obj
 0001:00035920       ?RegisterWithFactory@StreamReader@IO@@SA_NXZ 00436920 f   foundation_win32.release:streamreader.obj
 0001:00035a20       ??0StreamReader@IO@@QAE@XZ 00436a20 f   foundation_win32.release:streamreader.obj
 0001:00035a70       ??_GStreamReader@IO@@UAEPAXI@Z 00436a70 f i foundation_win32.release:streamreader.obj
 0001:00035a70       ??_EStreamReader@IO@@UAEPAXI@Z 00436a70 f i  CIL library: CIL module
 0001:00035aa0       ??1StreamReader@IO@@UAE@XZ 00436aa0 f   foundation_win32.release:streamreader.obj
 0001:00035af0       ?SetStream@StreamReader@IO@@QAEXABV?$Ptr@VStream@IO@@@@@Z 00436af0 f   foundation_win32.release:streamreader.obj
 0001:00035b10       ?GetStream@StreamReader@IO@@QBEABV?$Ptr@VStream@IO@@@@XZ 00436b10 f   foundation_win32.release:streamreader.obj
 0001:00035b30       ?HasStream@StreamReader@IO@@QBE_NXZ 00436b30 f   foundation_win32.release:streamreader.obj
 0001:00035b50       ?Eof@StreamReader@IO@@QBE_NXZ 00436b50 f   foundation_win32.release:streamreader.obj
 0001:00035ba0       ?Open@StreamReader@IO@@UAE_NXZ 00436ba0 f   foundation_win32.release:streamreader.obj
 0001:00035ce0       ?Close@StreamReader@IO@@UAEXXZ 00436ce0 f   foundation_win32.release:streamreader.obj
 0001:00035d60       ??2TextWriter@IO@@SAPAXI@Z 00436d60 f i foundation_win32.release:textwriter.obj
 0001:00035d70       ??3TextWriter@IO@@SAXPAX@Z 00436d70 f i foundation_win32.release:textwriter.obj
 0001:00035d90       ?GetRtti@TextWriter@IO@@UBEPAVRtti@Core@@XZ 00436d90 f   foundation_win32.release:textwriter.obj
 0001:00035da0       ?FactoryCreator@TextWriter@IO@@SAPAVRefCounted@Core@@XZ 00436da0 f   foundation_win32.release:textwriter.obj
 0001:00035db0       ?Create@TextWriter@IO@@SAPAV12@XZ 00436db0 f   foundation_win32.release:textwriter.obj
 0001:00035df0       ?RegisterWithFactory@TextWriter@IO@@SA_NXZ 00436df0 f   foundation_win32.release:textwriter.obj
 0001:00035ef0       ??0TextWriter@IO@@QAE@XZ   00436ef0 f   foundation_win32.release:textwriter.obj
 0001:00035f10       ??_ETextWriter@IO@@UAEPAXI@Z 00436f10 f i  CIL library: CIL module
 0001:00035f10       ??_GTextWriter@IO@@UAEPAXI@Z 00436f10 f i foundation_win32.release:textwriter.obj
 0001:00035f40       ??1TextWriter@IO@@UAE@XZ   00436f40 f   foundation_win32.release:textwriter.obj
 0001:00035f80       ?WriteChar@TextWriter@IO@@QAEXE@Z 00436f80 f   foundation_win32.release:textwriter.obj
 0001:00035fb0       ?WriteString@TextWriter@IO@@QAEXABVString@Util@@@Z 00436fb0 f   foundation_win32.release:textwriter.obj
 0001:00036010       ?WriteFormatted@TextWriter@IO@@QAAXPBDZZ 00437010 f   foundation_win32.release:textwriter.obj
 0001:000360a0       ?WriteLine@TextWriter@IO@@QAEXABVString@Util@@@Z 004370a0 f   foundation_win32.release:textwriter.obj
 0001:000360d0       ?WriteLines@TextWriter@IO@@QAEXABV?$Array@VString@Util@@@Util@@@Z 004370d0 f   foundation_win32.release:textwriter.obj
 0001:00036120       ??2TextReader@IO@@SAPAXI@Z 00437120 f i foundation_win32.release:textreader.obj
 0001:00036130       ??3TextReader@IO@@SAXPAX@Z 00437130 f i foundation_win32.release:textreader.obj
 0001:00036150       ?GetRtti@TextReader@IO@@UBEPAVRtti@Core@@XZ 00437150 f   foundation_win32.release:textreader.obj
 0001:00036160       ?FactoryCreator@TextReader@IO@@SAPAVRefCounted@Core@@XZ 00437160 f   foundation_win32.release:textreader.obj
 0001:00036170       ?Create@TextReader@IO@@SAPAV12@XZ 00437170 f   foundation_win32.release:textreader.obj
 0001:000361b0       ?RegisterWithFactory@TextReader@IO@@SA_NXZ 004371b0 f   foundation_win32.release:textreader.obj
 0001:000362b0       ??0TextReader@IO@@QAE@XZ   004372b0 f   foundation_win32.release:textreader.obj
 0001:000362d0       ??_GTextReader@IO@@UAEPAXI@Z 004372d0 f i foundation_win32.release:textreader.obj
 0001:000362d0       ??_ETextReader@IO@@UAEPAXI@Z 004372d0 f i  CIL library: CIL module
 0001:00036300       ??1TextReader@IO@@UAE@XZ   00437300 f   foundation_win32.release:textreader.obj
 0001:00036340       ?ReadChar@TextReader@IO@@QAEEXZ 00437340 f   foundation_win32.release:textreader.obj
 0001:00036380       ?ReadLine@TextReader@IO@@QAE?AVString@Util@@XZ 00437380 f   foundation_win32.release:textreader.obj
 0001:000364a0       ?ReadAll@TextReader@IO@@QAE?AVString@Util@@XZ 004374a0 f   foundation_win32.release:textreader.obj
 0001:000365a0       ?ReadAllLines@TextReader@IO@@QAE?AV?$Array@VString@Util@@@Util@@XZ 004375a0 f   foundation_win32.release:textreader.obj
 0001:00036640       ?FromString@HttpStatus@Http@@SA?AW4Code@12@ABVString@Util@@@Z 00437640 f   foundation_win32.release:httpstatus.obj
 0001:000367a0       ?ToString@HttpStatus@Http@@SA?AVString@Util@@W4Code@12@@Z 004377a0 f   foundation_win32.release:httpstatus.obj
 0001:00036a30       ?ToHumanReadableString@HttpStatus@Http@@SA?AVString@Util@@W4Code@12@@Z 00437a30 f   foundation_win32.release:httpstatus.obj
 0001:00037020       _unzStringFileNameCompare  00438020 f   zlib_win32.release:unzip.obj
 0001:00037270       _unzOpen2                  00438270 f   zlib_win32.release:unzip.obj
 0001:00037540       _unzOpen                   00438540 f   zlib_win32.release:unzip.obj
 0001:00037560       _unzClose                  00438560 f   zlib_win32.release:unzip.obj
 0001:000375d0       _unzGetGlobalInfo          004385d0 f   zlib_win32.release:unzip.obj
 0001:00037b50       _unzGetCurrentFileInfo     00438b50 f   zlib_win32.release:unzip.obj
 0001:00037b80       _unzGoToFirstFile          00438b80 f   zlib_win32.release:unzip.obj
 0001:00037c00       _unzGoToNextFile           00438c00 f   zlib_win32.release:unzip.obj
 0001:00037cd0       _unzLocateFile             00438cd0 f   zlib_win32.release:unzip.obj
 0001:00037e40       _unzGetFilePos             00438e40 f   zlib_win32.release:unzip.obj
 0001:00037e90       _unzGoToFilePos            00438e90 f   zlib_win32.release:unzip.obj
 0001:000381e0       _unzOpenCurrentFile3       004391e0 f   zlib_win32.release:unzip.obj
 0001:000385d0       _unzOpenCurrentFile        004395d0 f   zlib_win32.release:unzip.obj
 0001:000385f0       _unzOpenCurrentFilePassword 004395f0 f   zlib_win32.release:unzip.obj
 0001:00038610       _unzOpenCurrentFile2       00439610 f   zlib_win32.release:unzip.obj
 0001:00038630       _unzReadCurrentFile        00439630 f   zlib_win32.release:unzip.obj
 0001:00038a60       _unztell                   00439a60 f   zlib_win32.release:unzip.obj
 0001:00038aa0       _unzeof                    00439aa0 f   zlib_win32.release:unzip.obj
 0001:00038af0       _unzGetLocalExtrafield     00439af0 f   zlib_win32.release:unzip.obj
 0001:00038bd0       _unzCloseCurrentFile       00439bd0 f   zlib_win32.release:unzip.obj
 0001:00038cb0       _unzGetGlobalComment       00439cb0 f   zlib_win32.release:unzip.obj
 0001:00038d80       _unzGetOffset              00439d80 f   zlib_win32.release:unzip.obj
 0001:00038de0       _unzSetOffset              00439de0 f   zlib_win32.release:unzip.obj
 0001:00038e50       _uncompress                00439e50 f   zlib_win32.release:uncompr.obj
 0001:00038f30       _get_crc_table             00439f30 f   zlib_win32.release:crc32.obj
 0001:00038f40       _crc32                     00439f40 f   zlib_win32.release:crc32.obj
 0001:00039a30       _crc32_combine             0043aa30 f   zlib_win32.release:crc32.obj
 0001:00039b50       _inflateReset              0043ab50 f   zlib_win32.release:inflate.obj
 0001:00039c40       _inflatePrime              0043ac40 f   zlib_win32.release:inflate.obj
 0001:00039cc0       _inflateInit2_             0043acc0 f   zlib_win32.release:inflate.obj
 0001:00039e00       _inflateInit_              0043ae00 f   zlib_win32.release:inflate.obj
 0001:0003a000       _inflate                   0043b000 f   zlib_win32.release:inflate.obj
 0001:0003bf10       _inflateEnd                0043cf10 f   zlib_win32.release:inflate.obj
 0001:0003bf90       _inflateSetDictionary      0043cf90 f   zlib_win32.release:inflate.obj
 0001:0003c0c0       _inflateGetHeader          0043d0c0 f   zlib_win32.release:inflate.obj
 0001:0003c1a0       _inflateSync               0043d1a0 f   zlib_win32.release:inflate.obj
 0001:0003c330       _inflateSyncPoint          0043d330 f   zlib_win32.release:inflate.obj
 0001:0003c380       _inflateCopy               0043d380 f   zlib_win32.release:inflate.obj
 0001:0003c540       ?nebula3_open_file_func@@YAPAXPAXPBDH@Z 0043d540 f   zlib_win32.release:ionebula3.obj
 0001:0003c640       ?nebula3_read_file_func@@YAKPAX00K@Z 0043d640 f   zlib_win32.release:ionebula3.obj
 0001:0003c680       ?nebula3_write_file_func@@YAKPAX0PBXK@Z 0043d680 f   zlib_win32.release:ionebula3.obj
 0001:0003c6a0       ?nebula3_tell_file_func@@YAJPAX0@Z 0043d6a0 f   zlib_win32.release:ionebula3.obj
 0001:0003c6d0       ?nebula3_seek_file_func@@YAJPAX0KH@Z 0043d6d0 f   zlib_win32.release:ionebula3.obj
 0001:0003c750       ?nebula3_close_file_func@@YAHPAX0@Z 0043d750 f   zlib_win32.release:ionebula3.obj
 0001:0003c7a0       ?nebula3_error_file_func@@YAHPAX0@Z 0043d7a0 f   zlib_win32.release:ionebula3.obj
 0001:0003c7b0       _fill_nebula3_filefunc     0043d7b0 f   zlib_win32.release:ionebula3.obj
 0001:0003c810       ??0?$Ptr@VFileStream@IO@@@@QAE@PAVFileStream@IO@@@Z 0043d810 f i zlib_win32.release:ionebula3.obj
 0001:0003c850       ??1?$Ptr@VFileStream@IO@@@@QAE@XZ 0043d850 f i zlib_win32.release:ionebula3.obj
 0001:0003c880       ??C?$Ptr@VFileStream@IO@@@@QBEPAVFileStream@IO@@XZ 0043d880 f i zlib_win32.release:ionebula3.obj
 0001:0003c8c0       ?get@?$Ptr@VFileStream@IO@@@@QBEPAVFileStream@IO@@XZ 0043d8c0 f i zlib_win32.release:ionebula3.obj
 0001:0003c900       _adler32                   0043d900 f   zlib_win32.release:adler32.obj
 0001:0003cd90       _adler32_combine           0043dd90 f   zlib_win32.release:adler32.obj
 0001:0003ce70       _inflate_fast              0043de70 f   zlib_win32.release:inffast.obj
 0001:0003d5d0       _zlibVersion               0043e5d0 f   zlib_win32.release:zutil.obj
 0001:0003d5e0       _zlibCompileFlags          0043e5e0 f   zlib_win32.release:zutil.obj
 0001:0003d6f0       _zError                    0043e6f0 f   zlib_win32.release:zutil.obj
 0001:0003d710       _zcalloc                   0043e710 f   zlib_win32.release:zutil.obj
 0001:0003d740       _zcfree                    0043e740 f   zlib_win32.release:zutil.obj
 0001:0003d760       _inflate_table             0043e760 f   zlib_win32.release:inftrees.obj
 0001:0003ddb0       ??2DbFactory@Db@@SAPAXI@Z  0043edb0 f i db_win32.release:dbfactory.obj
 0001:0003ddc0       ??3DbFactory@Db@@SAXPAX@Z  0043edc0 f i db_win32.release:dbfactory.obj
 0001:0003dde0       ?GetRtti@DbFactory@Db@@UBEPAVRtti@Core@@XZ 0043ede0 f   db_win32.release:dbfactory.obj
 0001:0003ddf0       ?FactoryCreator@DbFactory@Db@@SAPAVRefCounted@Core@@XZ 0043edf0 f   db_win32.release:dbfactory.obj
 0001:0003de00       ?Create@DbFactory@Db@@SAPAV12@XZ 0043ee00 f   db_win32.release:dbfactory.obj
 0001:0003de40       ?RegisterWithFactory@DbFactory@Db@@SA_NXZ 0043ee40 f   db_win32.release:dbfactory.obj
 0001:0003df40       ??0DbFactory@Db@@QAE@XZ    0043ef40 f   db_win32.release:dbfactory.obj
 0001:0003dfa0       ??_EDbFactory@Db@@UAEPAXI@Z 0043efa0 f i  CIL library: CIL module
 0001:0003dfa0       ??_GDbFactory@Db@@UAEPAXI@Z 0043efa0 f i db_win32.release:dbfactory.obj
 0001:0003dfd0       ??1DbFactory@Db@@UAE@XZ    0043efd0 f   db_win32.release:dbfactory.obj
 0001:0003e020       ?CreateDatabase@DbFactory@Db@@UBE?AV?$Ptr@VDatabase@Db@@@@XZ 0043f020 f   db_win32.release:dbfactory.obj
 0001:0003e050       ?CreateCommand@DbFactory@Db@@UBE?AV?$Ptr@VCommand@Db@@@@XZ 0043f050 f   db_win32.release:dbfactory.obj
 0001:0003e080       ?CreateTable@DbFactory@Db@@UBE?AV?$Ptr@VTable@Db@@@@XZ 0043f080 f   db_win32.release:dbfactory.obj
 0001:0003e0b0       ?CreateDataset@DbFactory@Db@@MBE?AV?$Ptr@VDataset@Db@@@@XZ 0043f0b0 f   db_win32.release:dbfactory.obj
 0001:0003e0e0       ?CreateFilterSet@DbFactory@Db@@MBE?AV?$Ptr@VFilterSet@Db@@@@XZ 0043f0e0 f   db_win32.release:dbfactory.obj
 0001:0003e110       ?CreateRelation@DbFactory@Db@@UBE?AV?$Ptr@VRelation@Db@@@@XZ 0043f110 f   db_win32.release:dbfactory.obj
 0001:0003e130       ?CreateValueTable@DbFactory@Db@@MBE?AV?$Ptr@VValueTable@Db@@@@XZ 0043f130 f   db_win32.release:dbfactory.obj
 0001:0003e150       ?CreateReader@DbFactory@Db@@UBE?AV?$Ptr@VReader@Db@@@@XZ 0043f150 f   db_win32.release:dbfactory.obj
 0001:0003e170       ?CreateWriter@DbFactory@Db@@UBE?AV?$Ptr@VWriter@Db@@@@XZ 0043f170 f   db_win32.release:dbfactory.obj
 0001:0003e190       ??0?$Ptr@VDatabase@Db@@@@QAE@PAVDatabase@Db@@@Z 0043f190 f i db_win32.release:dbfactory.obj
 0001:0003e1d0       ??0?$Ptr@VValueTable@Db@@@@QAE@PAVValueTable@Db@@@Z 0043f1d0 f i db_win32.release:dbfactory.obj
 0001:0003e210       ??1?$Ptr@VValueTable@Db@@@@QAE@XZ 0043f210 f i db_win32.release:dbfactory.obj
 0001:0003e240       ??0?$Ptr@VTable@Db@@@@QAE@PAVTable@Db@@@Z 0043f240 f i db_win32.release:dbfactory.obj
 0001:0003e280       ??0?$Ptr@VFilterSet@Db@@@@QAE@PAVFilterSet@Db@@@Z 0043f280 f i db_win32.release:dbfactory.obj
 0001:0003e2c0       ??0?$Ptr@VDataset@Db@@@@QAE@PAVDataset@Db@@@Z 0043f2c0 f i db_win32.release:dbfactory.obj
 0001:0003e300       ??0?$Ptr@VCommand@Db@@@@QAE@PAVCommand@Db@@@Z 0043f300 f i db_win32.release:dbfactory.obj
 0001:0003e340       ??1?$Ptr@VCommand@Db@@@@QAE@XZ 0043f340 f i db_win32.release:dbfactory.obj
 0001:0003e370       ??0?$Ptr@VRelation@Db@@@@QAE@PAVRelation@Db@@@Z 0043f370 f i db_win32.release:dbfactory.obj
 0001:0003e3b0       ??1?$Ptr@VRelation@Db@@@@QAE@XZ 0043f3b0 f i db_win32.release:dbfactory.obj
 0001:0003e3e0       ??0?$Ptr@VReader@Db@@@@QAE@PAVReader@Db@@@Z 0043f3e0 f i db_win32.release:dbfactory.obj
 0001:0003e420       ??1?$Ptr@VReader@Db@@@@QAE@XZ 0043f420 f i db_win32.release:dbfactory.obj
 0001:0003e450       ??0?$Ptr@VWriter@Db@@@@QAE@PAVWriter@Db@@@Z 0043f450 f i db_win32.release:dbfactory.obj
 0001:0003e490       ??1?$Ptr@VWriter@Db@@@@QAE@XZ 0043f490 f i db_win32.release:dbfactory.obj
 0001:0003e4c0       ??_EAttribute@Attr@@QAEPAXI@Z 0043f4c0 f i db_win32.release:dbfactory.obj
 0001:0003e560       ??2Sqlite3Factory@Db@@SAPAXI@Z 0043f560 f i db_win32.release:sqlite3factory.obj
 0001:0003e570       ??3Sqlite3Factory@Db@@SAXPAX@Z 0043f570 f i db_win32.release:sqlite3factory.obj
 0001:0003e590       ?GetRtti@Sqlite3Factory@Db@@UBEPAVRtti@Core@@XZ 0043f590 f   db_win32.release:sqlite3factory.obj
 0001:0003e5a0       ?FactoryCreator@Sqlite3Factory@Db@@SAPAVRefCounted@Core@@XZ 0043f5a0 f   db_win32.release:sqlite3factory.obj
 0001:0003e5b0       ?Create@Sqlite3Factory@Db@@SAPAV12@XZ 0043f5b0 f   db_win32.release:sqlite3factory.obj
 0001:0003e5f0       ?RegisterWithFactory@Sqlite3Factory@Db@@SA_NXZ 0043f5f0 f   db_win32.release:sqlite3factory.obj
 0001:0003e6f0       ??0Sqlite3Factory@Db@@QAE@XZ 0043f6f0 f   db_win32.release:sqlite3factory.obj
 0001:0003e740       ??_ESqlite3Factory@Db@@UAEPAXI@Z 0043f740 f i  CIL library: CIL module
 0001:0003e740       ??_GSqlite3Factory@Db@@UAEPAXI@Z 0043f740 f i db_win32.release:sqlite3factory.obj
 0001:0003e770       ??1Sqlite3Factory@Db@@UAE@XZ 0043f770 f   db_win32.release:sqlite3factory.obj
 0001:0003e7c0       ?CreateDatabase@Sqlite3Factory@Db@@UBE?AV?$Ptr@VDatabase@Db@@@@XZ 0043f7c0 f   db_win32.release:sqlite3factory.obj
 0001:0003e7e0       ?CreateCommand@Sqlite3Factory@Db@@UBE?AV?$Ptr@VCommand@Db@@@@XZ 0043f7e0 f   db_win32.release:sqlite3factory.obj
 0001:0003e800       ?CreateTable@Sqlite3Factory@Db@@UBE?AV?$Ptr@VTable@Db@@@@XZ 0043f800 f   db_win32.release:sqlite3factory.obj
 0001:0003e820       ?CreateDataset@Sqlite3Factory@Db@@MBE?AV?$Ptr@VDataset@Db@@@@XZ 0043f820 f i db_win32.release:sqlite3factory.obj
 0001:0003e840       ?CreateFilterSet@Sqlite3Factory@Db@@MBE?AV?$Ptr@VFilterSet@Db@@@@XZ 0043f840 f i db_win32.release:sqlite3factory.obj
 0001:0003e860       ?GetName@AttributeDefinitionBase@Attr@@QBEABVString@Util@@XZ 0043f860 f i db_win32.release:table.obj
 0001:0003e880       ?GetFourCC@AttributeDefinitionBase@Attr@@QBEABVFourCC@Util@@XZ 0043f880 f i db_win32.release:table.obj
 0001:0003e8a0       ??OAttrId@Attr@@QBE_NABV01@@Z 0043f8a0 f i db_win32.release:table.obj
 0001:0003e900       ??MAttrId@Attr@@QBE_NABV01@@Z 0043f900 f i db_win32.release:table.obj
 0001:0003e960       ?GetName@AttrId@Attr@@QBEABVString@Util@@XZ 0043f960 f i db_win32.release:table.obj
 0001:0003e9a0       ?GetFourCC@AttrId@Attr@@QBEABVFourCC@Util@@XZ 0043f9a0 f i db_win32.release:table.obj
 0001:0003e9e0       ?GetAttrId@Column@Db@@QBEABVAttrId@Attr@@XZ 0043f9e0 f i db_win32.release:table.obj
 0001:0003e9f0       ?GetName@Column@Db@@QBEABVString@Util@@XZ 0043f9f0 f i db_win32.release:table.obj
 0001:0003ea30       ?GetFourCC@Column@Db@@QBEABVFourCC@Util@@XZ 0043fa30 f i db_win32.release:table.obj
 0001:0003ea70       ?GetType@Column@Db@@QBE?AW4Type@12@XZ 0043fa70 f i db_win32.release:table.obj
 0001:0003ea90       ?IsCommitted@Column@Db@@QBE_NXZ 0043fa90 f i db_win32.release:table.obj
 0001:0003eab0       ??2Table@Db@@SAPAXI@Z      0043fab0 f i db_win32.release:table.obj
 0001:0003eac0       ??3Table@Db@@SAXPAX@Z      0043fac0 f i db_win32.release:table.obj
 0001:0003eae0       ?IsConnected@Table@Db@@QBE_NXZ 0043fae0 f i db_win32.release:table.obj
 0001:0003eb00       ?SetTable@Dataset@Db@@IAEXABV?$Ptr@VTable@Db@@@@@Z 0043fb00 f i db_win32.release:table.obj
 0001:0003eb40       ?GetRtti@Table@Db@@UBEPAVRtti@Core@@XZ 0043fb40 f   db_win32.release:table.obj
 0001:0003eb50       ?FactoryCreator@Table@Db@@SAPAVRefCounted@Core@@XZ 0043fb50 f   db_win32.release:table.obj
 0001:0003eb60       ?Create@Table@Db@@SAPAV12@XZ 0043fb60 f   db_win32.release:table.obj
 0001:0003eba0       ?RegisterWithFactory@Table@Db@@SA_NXZ 0043fba0 f   db_win32.release:table.obj
 0001:0003eca0       ??0Table@Db@@QAE@XZ        0043fca0 f   db_win32.release:table.obj
 0001:0003ed50       ??_GTable@Db@@UAEPAXI@Z    0043fd50 f i db_win32.release:table.obj
 0001:0003ed50       ??_ETable@Db@@UAEPAXI@Z    0043fd50 f i  CIL library: CIL module
 0001:0003ed80       ??1?$HashTable@VString@Util@@H@Util@@QAE@XZ 0043fd80 f i db_win32.release:table.obj
 0001:0003eda0       ??1?$Dictionary@VFourCC@Util@@H@Util@@QAE@XZ 0043fda0 f i db_win32.release:table.obj
 0001:0003edc0       ??1?$Dictionary@VAttrId@Attr@@H@Util@@QAE@XZ 0043fdc0 f i db_win32.release:table.obj
 0001:0003ede0       ??1Table@Db@@UAE@XZ        0043fde0 f   db_win32.release:table.obj
 0001:0003eea0       ?CreateDataset@Table@Db@@UAE?AV?$Ptr@VDataset@Db@@@@XZ 0043fea0 f   db_win32.release:table.obj
 0001:0003ef60       ?AddColumn@Table@Db@@QAEXABVColumn@2@@Z 0043ff60 f   db_win32.release:table.obj
 0001:0003f070       ?SetName@Table@Db@@UAEXABVString@Util@@@Z 00440070 f   db_win32.release:table.obj
 0001:0003f0c0       ?Connect@Table@Db@@MAEXABV?$Ptr@VDatabase@Db@@@@W4ConnectMode@12@_N@Z 004400c0 f   db_win32.release:table.obj
 0001:0003f130       ?Disconnect@Table@Db@@MAEX_N@Z 00440130 f   db_win32.release:table.obj
 0001:0003f170       ?CreateMultiColumnIndex@Table@Db@@UAEXABV?$Array@VAttrId@Attr@@@Util@@@Z 00440170 f   db_win32.release:table.obj
 0001:0003f180       ?CommitChanges@Table@Db@@UAEX_N0@Z 00440180 f   db_win32.release:table.obj
 0001:0003f1a0       ?BindValueTable@Table@Db@@MAEXABV?$Ptr@VValueTable@Db@@@@@Z 004401a0 f   db_win32.release:table.obj
 0001:0003f210       ?UnbindValueTable@Table@Db@@MAEXXZ 00440210 f   db_win32.release:table.obj
 0001:0003f260       ?HasUncommittedColumns@Table@Db@@QBE_NXZ 00440260 f   db_win32.release:table.obj
 0001:0003f2b0       ?CommitUncommittedColumns@Table@Db@@UAEXXZ 004402b0 f   db_win32.release:table.obj
 0001:0003f2d0       ?CommitDeletedRows@Table@Db@@UAEXXZ 004402d0 f   db_win32.release:table.obj
 0001:0003f2f0       ??1?$Array@V?$KeyValuePair@VAttrId@Attr@@H@Util@@@Util@@QAE@XZ 004402f0 f i db_win32.release:table.obj
 0001:0003f310       ??0?$Dictionary@VAttrId@Attr@@H@Util@@QAE@XZ 00440310 f i db_win32.release:table.obj
 0001:0003f330       ?Add@?$Dictionary@VAttrId@Attr@@H@Util@@QAEXABVAttrId@Attr@@ABH@Z 00440330 f i db_win32.release:table.obj
 0001:0003f380       ??0?$Ptr@VDatabase@Db@@@@QAE@XZ 00440380 f i db_win32.release:table.obj
 0001:0003f3a0       ??4?$Ptr@VDatabase@Db@@@@QAEXPAVDatabase@Db@@@Z 004403a0 f i db_win32.release:table.obj
 0001:0003f400       ??4?$Ptr@VDatabase@Db@@@@QAEXABV0@@Z 00440400 f i db_win32.release:table.obj
 0001:0003f460       ??0?$Ptr@VValueTable@Db@@@@QAE@XZ 00440460 f i db_win32.release:table.obj
 0001:0003f480       ??4?$Ptr@VValueTable@Db@@@@QAEXPAVValueTable@Db@@@Z 00440480 f i db_win32.release:table.obj
 0001:0003f4e0       ??4?$Ptr@VValueTable@Db@@@@QAEXABV0@@Z 004404e0 f i db_win32.release:table.obj
 0001:0003f540       ?isvalid@?$Ptr@VValueTable@Db@@@@QBE_NXZ 00440540 f i db_win32.release:table.obj
 0001:0003f560       ??0?$Array@VColumn@Db@@@Util@@QAE@XZ 00440560 f i db_win32.release:table.obj
 0001:0003f5a0       ??1?$Array@VColumn@Db@@@Util@@QAE@XZ 004405a0 f i db_win32.release:table.obj
 0001:0003f5c0       ?Append@?$Array@VColumn@Db@@@Util@@QAEXABVColumn@Db@@@Z 004405c0 f i db_win32.release:table.obj
 0001:0003f640       ?Size@?$Array@VColumn@Db@@@Util@@QBEHXZ 00440640 f i db_win32.release:table.obj
 0001:0003f660       ?Back@?$Array@VColumn@Db@@@Util@@QBEAAVColumn@Db@@XZ 00440660 f i db_win32.release:table.obj
 0001:0003f6b0       ??1?$FixedArray@V?$Array@V?$KeyValuePair@VString@Util@@H@Util@@@Util@@@Util@@QAE@XZ 004406b0 f i db_win32.release:table.obj
 0001:0003f6d0       ??0?$HashTable@VString@Util@@H@Util@@QAE@XZ 004406d0 f i db_win32.release:table.obj
 0001:0003f700       ?Add@?$HashTable@VString@Util@@H@Util@@QAEXABVString@2@ABH@Z 00440700 f i db_win32.release:table.obj
 0001:0003f740       ?Contains@?$HashTable@VString@Util@@H@Util@@QBE_NABVString@2@@Z 00440740 f i db_win32.release:table.obj
 0001:0003f7e0       ??1?$Array@V?$KeyValuePair@VFourCC@Util@@H@Util@@@Util@@QAE@XZ 004407e0 f i db_win32.release:table.obj
 0001:0003f800       ??0?$Dictionary@VFourCC@Util@@H@Util@@QAE@XZ 00440800 f i db_win32.release:table.obj
 0001:0003f820       ?Add@?$Dictionary@VFourCC@Util@@H@Util@@QAEXABVFourCC@2@ABH@Z 00440820 f i db_win32.release:table.obj
 0001:0003f870       ??4?$Ptr@VTable@Db@@@@QAEXABV0@@Z 00440870 f i db_win32.release:table.obj
 0001:0003f8d0       ??0?$Ptr@VDataset@Db@@@@QAE@ABV0@@Z 004408d0 f i db_win32.release:table.obj
 0001:0003f910       ??1?$KeyValuePair@VString@Util@@H@Util@@QAE@XZ 00440910 f i db_win32.release:table.obj
 0001:0003f960       ??0?$Array@V?$KeyValuePair@VAttrId@Attr@@H@Util@@@Util@@QAE@XZ 00440960 f i db_win32.release:table.obj
 0001:0003f9a0       ?Append@?$Array@V?$KeyValuePair@VAttrId@Attr@@H@Util@@@Util@@QAEXABV?$KeyValuePair@VAttrId@Attr@@H@2@@Z 004409a0 f i db_win32.release:table.obj
 0001:0003fa20       ?InsertSorted@?$Array@V?$KeyValuePair@VAttrId@Attr@@H@Util@@@Util@@QAEHABV?$KeyValuePair@VAttrId@Attr@@H@2@@Z 00440a20 f i db_win32.release:table.obj
 0001:0003fc90       ?Delete@?$Array@V?$KeyValuePair@VAttrId@Attr@@H@Util@@@Util@@AAEXXZ 00440c90 f i db_win32.release:table.obj
 0001:0003fcf0       ??0?$KeyValuePair@VAttrId@Attr@@H@Util@@QAE@ABVAttrId@Attr@@ABH@Z 00440cf0 f i db_win32.release:table.obj
 0001:0003fd20       ?Delete@?$Array@VColumn@Db@@@Util@@AAEXXZ 00440d20 f i db_win32.release:table.obj
 0001:0003fd80       ?Grow@?$Array@VColumn@Db@@@Util@@AAEXXZ 00440d80 f i db_win32.release:table.obj
 0001:0003fe00       ??0?$FixedArray@V?$Array@V?$KeyValuePair@VString@Util@@H@Util@@@Util@@@Util@@QAE@H@Z 00440e00 f i db_win32.release:table.obj
 0001:0003fe30       ??A?$FixedArray@V?$Array@V?$KeyValuePair@VString@Util@@H@Util@@@Util@@@Util@@QBEAAV?$Array@V?$KeyValuePair@VString@Util@@H@Util@@@1@H@Z 00440e30 f i db_win32.release:table.obj
 0001:0003fe80       ?Size@?$FixedArray@V?$Array@V?$KeyValuePair@VString@Util@@H@Util@@@Util@@@Util@@QBEHXZ 00440e80 f i db_win32.release:table.obj
 0001:0003fe90       ?Delete@?$FixedArray@V?$Array@V?$KeyValuePair@VString@Util@@H@Util@@@Util@@@Util@@AAEXXZ 00440e90 f i db_win32.release:table.obj
 0001:0003fef0       ?Add@?$HashTable@VString@Util@@H@Util@@QAEXABV?$KeyValuePair@VString@Util@@H@2@@Z 00440ef0 f i db_win32.release:table.obj
 0001:0003ff80       ?Size@?$Array@V?$KeyValuePair@VString@Util@@H@Util@@@Util@@QBEHXZ 00440f80 f i db_win32.release:table.obj
 0001:0003ffa0       ?BinarySearchIndex@?$Array@V?$KeyValuePair@VString@Util@@H@Util@@@Util@@QBEHABV?$KeyValuePair@VString@Util@@H@2@@Z 00440fa0 f i db_win32.release:table.obj
 0001:000400d0       ??0?$KeyValuePair@VString@Util@@H@Util@@QAE@ABVString@1@@Z 004410d0 f i db_win32.release:table.obj
 0001:00040130       ??0?$KeyValuePair@VString@Util@@H@Util@@QAE@ABVString@1@ABH@Z 00441130 f i db_win32.release:table.obj
 0001:000401a0       ??0?$Array@V?$KeyValuePair@VFourCC@Util@@H@Util@@@Util@@QAE@XZ 004411a0 f i db_win32.release:table.obj
 0001:000401e0       ?Append@?$Array@V?$KeyValuePair@VFourCC@Util@@H@Util@@@Util@@QAEXABV?$KeyValuePair@VFourCC@Util@@H@2@@Z 004411e0 f i db_win32.release:table.obj
 0001:00040260       ?InsertSorted@?$Array@V?$KeyValuePair@VFourCC@Util@@H@Util@@@Util@@QAEHABV?$KeyValuePair@VFourCC@Util@@H@2@@Z 00441260 f i db_win32.release:table.obj
 0001:000404d0       ?Delete@?$Array@V?$KeyValuePair@VFourCC@Util@@H@Util@@@Util@@AAEXXZ 004414d0 f i db_win32.release:table.obj
 0001:00040530       ??0?$KeyValuePair@VFourCC@Util@@H@Util@@QAE@ABVFourCC@1@ABH@Z 00441530 f i db_win32.release:table.obj
 0001:00040560       ??_E?$Array@V?$KeyValuePair@VString@Util@@H@Util@@@Util@@QAEPAXI@Z 00441560 f i db_win32.release:table.obj
 0001:00040600       ?Size@?$Array@V?$KeyValuePair@VAttrId@Attr@@H@Util@@@Util@@QBEHXZ 00441600 f i db_win32.release:table.obj
 0001:00040620       ?Insert@?$Array@V?$KeyValuePair@VAttrId@Attr@@H@Util@@@Util@@QAEXHABV?$KeyValuePair@VAttrId@Attr@@H@2@@Z 00441620 f i db_win32.release:table.obj
 0001:00040690       ?InsertAtEndOfIdenticalRange@?$Array@V?$KeyValuePair@VAttrId@Attr@@H@Util@@@Util@@QAEHHABV?$KeyValuePair@VAttrId@Attr@@H@2@@Z 00441690 f i db_win32.release:table.obj
 0001:00040710       ?Grow@?$Array@V?$KeyValuePair@VAttrId@Attr@@H@Util@@@Util@@AAEXXZ 00441710 f i db_win32.release:table.obj
 0001:00040790       ??4?$KeyValuePair@VAttrId@Attr@@H@Util@@QAEXABV01@@Z 00441790 f i db_win32.release:table.obj
 0001:000407c0       ??9?$KeyValuePair@VAttrId@Attr@@H@Util@@QBE_NABV01@@Z 004417c0 f i db_win32.release:table.obj
 0001:00040820       ??O?$KeyValuePair@VAttrId@Attr@@H@Util@@QBE_NABV01@@Z 00441820 f i db_win32.release:table.obj
 0001:00040880       ??M?$KeyValuePair@VAttrId@Attr@@H@Util@@QBE_NABV01@@Z 00441880 f i db_win32.release:table.obj
 0001:000408e0       ?GrowTo@?$Array@VColumn@Db@@@Util@@AAEXH@Z 004418e0 f i db_win32.release:table.obj
 0001:000409e0       ?Alloc@?$FixedArray@V?$Array@V?$KeyValuePair@VString@Util@@H@Util@@@Util@@@Util@@AAEXH@Z 004419e0 f i db_win32.release:table.obj
 0001:00040ab0       ??1?$Array@V?$KeyValuePair@VString@Util@@H@Util@@@Util@@QAE@XZ 00441ab0 f i db_win32.release:table.obj
 0001:00040ad0       ?InsertSorted@?$Array@V?$KeyValuePair@VString@Util@@H@Util@@@Util@@QAEHABV?$KeyValuePair@VString@Util@@H@2@@Z 00441ad0 f i db_win32.release:table.obj
 0001:00040d40       ??9?$KeyValuePair@VString@Util@@H@Util@@QBE_NABV01@@Z 00441d40 f i db_win32.release:table.obj
 0001:00040d60       ??O?$KeyValuePair@VString@Util@@H@Util@@QBE_NABV01@@Z 00441d60 f i db_win32.release:table.obj
 0001:00040d80       ??M?$KeyValuePair@VString@Util@@H@Util@@QBE_NABV01@@Z 00441d80 f i db_win32.release:table.obj
 0001:00040da0       ?Key@?$KeyValuePair@VString@Util@@H@Util@@QBEABVString@2@XZ 00441da0 f i db_win32.release:table.obj
 0001:00040db0       ?Size@?$Array@V?$KeyValuePair@VFourCC@Util@@H@Util@@@Util@@QBEHXZ 00441db0 f i db_win32.release:table.obj
 0001:00040dd0       ?Insert@?$Array@V?$KeyValuePair@VFourCC@Util@@H@Util@@@Util@@QAEXHABV?$KeyValuePair@VFourCC@Util@@H@2@@Z 00441dd0 f i db_win32.release:table.obj
 0001:00040e40       ?InsertAtEndOfIdenticalRange@?$Array@V?$KeyValuePair@VFourCC@Util@@H@Util@@@Util@@QAEHHABV?$KeyValuePair@VFourCC@Util@@H@2@@Z 00441e40 f i db_win32.release:table.obj
 0001:00040ec0       ?Grow@?$Array@V?$KeyValuePair@VFourCC@Util@@H@Util@@@Util@@AAEXXZ 00441ec0 f i db_win32.release:table.obj
 0001:00040f40       ??4?$KeyValuePair@VFourCC@Util@@H@Util@@QAEXABV01@@Z 00441f40 f i db_win32.release:table.obj
 0001:00040f70       ??9?$KeyValuePair@VFourCC@Util@@H@Util@@QBE_NABV01@@Z 00441f70 f i db_win32.release:table.obj
 0001:00040f90       ??O?$KeyValuePair@VFourCC@Util@@H@Util@@QBE_NABV01@@Z 00441f90 f i db_win32.release:table.obj
 0001:00040fb0       ??M?$KeyValuePair@VFourCC@Util@@H@Util@@QBE_NABV01@@Z 00441fb0 f i db_win32.release:table.obj
 0001:00040fd0       ?GrowTo@?$Array@V?$KeyValuePair@VAttrId@Attr@@H@Util@@@Util@@AAEXH@Z 00441fd0 f i db_win32.release:table.obj
 0001:000410c0       ?Move@?$Array@V?$KeyValuePair@VAttrId@Attr@@H@Util@@@Util@@AAEXHH@Z 004420c0 f i db_win32.release:table.obj
 0001:00041250       ??0?$Array@V?$KeyValuePair@VString@Util@@H@Util@@@Util@@QAE@XZ 00442250 f i db_win32.release:table.obj
 0001:00041290       ?Append@?$Array@V?$KeyValuePair@VString@Util@@H@Util@@@Util@@QAEXABV?$KeyValuePair@VString@Util@@H@2@@Z 00442290 f i db_win32.release:table.obj
 0001:00041310       ?Insert@?$Array@V?$KeyValuePair@VString@Util@@H@Util@@@Util@@QAEXHABV?$KeyValuePair@VString@Util@@H@2@@Z 00442310 f i db_win32.release:table.obj
 0001:00041380       ?InsertAtEndOfIdenticalRange@?$Array@V?$KeyValuePair@VString@Util@@H@Util@@@Util@@QAEHHABV?$KeyValuePair@VString@Util@@H@2@@Z 00442380 f i db_win32.release:table.obj
 0001:00041400       ?Delete@?$Array@V?$KeyValuePair@VString@Util@@H@Util@@@Util@@AAEXXZ 00442400 f i db_win32.release:table.obj
 0001:00041470       ?GrowTo@?$Array@V?$KeyValuePair@VFourCC@Util@@H@Util@@@Util@@AAEXH@Z 00442470 f i db_win32.release:table.obj
 0001:00041560       ?Move@?$Array@V?$KeyValuePair@VFourCC@Util@@H@Util@@@Util@@AAEXHH@Z 00442560 f i db_win32.release:table.obj
 0001:000416f0       ??_E?$KeyValuePair@VString@Util@@H@Util@@QAEPAXI@Z 004426f0 f i db_win32.release:table.obj
 0001:00041800       ?Destroy@?$Array@V?$KeyValuePair@VAttrId@Attr@@H@Util@@@Util@@AAEXPAV?$KeyValuePair@VAttrId@Attr@@H@2@@Z 00442800 f i db_win32.release:table.obj
 0001:00041810       ??0?$KeyValuePair@VAttrId@Attr@@H@Util@@QAE@XZ 00442810 f i db_win32.release:table.obj
 0001:00041830       ?Grow@?$Array@V?$KeyValuePair@VString@Util@@H@Util@@@Util@@AAEXXZ 00442830 f i db_win32.release:table.obj
 0001:000418b0       ?Move@?$Array@V?$KeyValuePair@VString@Util@@H@Util@@@Util@@AAEXHH@Z 004428b0 f i db_win32.release:table.obj
 0001:00041a40       ??4?$KeyValuePair@VString@Util@@H@Util@@QAEXABV01@@Z 00442a40 f i db_win32.release:table.obj
 0001:00041a90       ?Destroy@?$Array@V?$KeyValuePair@VFourCC@Util@@H@Util@@@Util@@AAEXPAV?$KeyValuePair@VFourCC@Util@@H@2@@Z 00442a90 f i db_win32.release:table.obj
 0001:00041aa0       ??0?$KeyValuePair@VFourCC@Util@@H@Util@@QAE@XZ 00442aa0 f i db_win32.release:table.obj
 0001:00041ac0       ?Destroy@?$Array@V?$KeyValuePair@VString@Util@@H@Util@@@Util@@AAEXPAV?$KeyValuePair@VString@Util@@H@2@@Z 00442ac0 f i db_win32.release:table.obj
 0001:00041ae0       ?GrowTo@?$Array@V?$KeyValuePair@VString@Util@@H@Util@@@Util@@AAEXH@Z 00442ae0 f i db_win32.release:table.obj
 0001:00041c00       ??_G?$KeyValuePair@VString@Util@@H@Util@@QAEPAXI@Z 00442c00 f i db_win32.release:table.obj
 0001:00041c70       ??0?$KeyValuePair@VString@Util@@H@Util@@QAE@XZ 00442c70 f i db_win32.release:table.obj
 0001:00041cb0       ??0Column@Db@@QAE@XZ       00442cb0 f   db_win32.release:column.obj
 0001:00041ce0       ??0Column@Db@@QAE@ABVAttrId@Attr@@W4Type@01@@Z 00442ce0 f   db_win32.release:column.obj
 0001:00041d10       ?HasColumn@AttributeTable@Attr@@QBE_NABVAttrId@2@@Z 00442d10 f i db_win32.release:dataset.obj
 0001:00041d30       ?GetNumColumns@Table@Db@@QBEHXZ 00442d30 f i db_win32.release:dataset.obj
 0001:00041d50       ?GetColumn@Table@Db@@QBEABVColumn@2@H@Z 00442d50 f i db_win32.release:dataset.obj
 0001:00041d70       ??2Dataset@Db@@SAPAXI@Z    00442d70 f i db_win32.release:dataset.obj
 0001:00041d80       ??3Dataset@Db@@SAXPAX@Z    00442d80 f i db_win32.release:dataset.obj
 0001:00041da0       ?IsConnected@Dataset@Db@@IBE_NXZ 00442da0 f i db_win32.release:dataset.obj
 0001:00041dc0       ?GetRtti@Dataset@Db@@UBEPAVRtti@Core@@XZ 00442dc0 f   db_win32.release:dataset.obj
 0001:00041dd0       ?FactoryCreator@Dataset@Db@@SAPAVRefCounted@Core@@XZ 00442dd0 f   db_win32.release:dataset.obj
 0001:00041de0       ?Create@Dataset@Db@@SAPAV12@XZ 00442de0 f   db_win32.release:dataset.obj
 0001:00041e20       ?RegisterWithFactory@Dataset@Db@@SA_NXZ 00442e20 f   db_win32.release:dataset.obj
 0001:00041f20       ??0Dataset@Db@@QAE@XZ      00442f20 f   db_win32.release:dataset.obj
 0001:00042030       ??_EDataset@Db@@UAEPAXI@Z  00443030 f i  CIL library: CIL module
 0001:00042030       ??_GDataset@Db@@UAEPAXI@Z  00443030 f i db_win32.release:dataset.obj
 0001:00042060       ??1Dataset@Db@@UAE@XZ      00443060 f   db_win32.release:dataset.obj
 0001:000420d0       ?AddColumn@Dataset@Db@@QAEXABVAttrId@Attr@@@Z 004430d0 f   db_win32.release:dataset.obj
 0001:00042120       ?AddAllTableColumns@Dataset@Db@@QAEXXZ 00443120 f   db_win32.release:dataset.obj
 0001:000421f0       ?Connect@Dataset@Db@@MAE_NXZ 004431f0 f   db_win32.release:dataset.obj
 0001:00042280       ?Disconnect@Dataset@Db@@MAEXXZ 00443280 f   db_win32.release:dataset.obj
 0001:000422e0       ?PerformQuery@Dataset@Db@@UAEX_N@Z 004432e0 f   db_win32.release:dataset.obj
 0001:00042300       ?CommitChanges@Dataset@Db@@UAEX_N@Z 00443300 f   db_win32.release:dataset.obj
 0001:00042320       ?CommitDeletedRows@Dataset@Db@@UAEXXZ 00443320 f   db_win32.release:dataset.obj
 0001:00042340       ?Contains@?$Dictionary@VAttrId@Attr@@H@Util@@QBE_NABVAttrId@Attr@@@Z 00443340 f i db_win32.release:dataset.obj
 0001:000423a0       ??A?$Array@VColumn@Db@@@Util@@QBEAAVColumn@Db@@H@Z 004433a0 f i db_win32.release:dataset.obj
 0001:000423f0       ??0?$Ptr@VTable@Db@@@@QAE@XZ 004433f0 f i db_win32.release:dataset.obj
 0001:00042410       ?isvalid@?$Ptr@VTable@Db@@@@QBE_NXZ 00443410 f i db_win32.release:dataset.obj
 0001:00042430       ??0?$Ptr@VFilterSet@Db@@@@QAE@XZ 00443430 f i db_win32.release:dataset.obj
 0001:00042450       ??4?$Ptr@VFilterSet@Db@@@@QAEXABV0@@Z 00443450 f i db_win32.release:dataset.obj
 0001:000424b0       ??0?$KeyValuePair@VAttrId@Attr@@H@Util@@QAE@ABVAttrId@Attr@@@Z 004434b0 f i db_win32.release:dataset.obj
 0001:000424d0       ?BinarySearchIndex@?$Array@V?$KeyValuePair@VAttrId@Attr@@H@Util@@@Util@@QBEHABV?$KeyValuePair@VAttrId@Attr@@H@2@@Z 004434d0 f i db_win32.release:dataset.obj
 0001:00042600       ?GetName@Table@Db@@QBEABVString@Util@@XZ 00443600 f i db_win32.release:database.obj
 0001:00042620       ??2Database@Db@@SAPAXI@Z   00443620 f i db_win32.release:database.obj
 0001:00042630       ??3Database@Db@@SAXPAX@Z   00443630 f i db_win32.release:database.obj
 0001:00042650       ?IsOpen@Database@Db@@QBE_NXZ 00443650 f i db_win32.release:database.obj
 0001:00042670       ?GetRtti@Database@Db@@UBEPAVRtti@Core@@XZ 00443670 f   db_win32.release:database.obj
 0001:00042680       ?FactoryCreator@Database@Db@@SAPAVRefCounted@Core@@XZ 00443680 f   db_win32.release:database.obj
 0001:00042690       ?Create@Database@Db@@SAPAV12@XZ 00443690 f   db_win32.release:database.obj
 0001:000426d0       ?RegisterWithFactory@Database@Db@@SA_NXZ 004436d0 f   db_win32.release:database.obj
 0001:000427d0       ??0Database@Db@@QAE@XZ     004437d0 f   db_win32.release:database.obj
 0001:00042880       ??_EDatabase@Db@@UAEPAXI@Z 00443880 f i  CIL library: CIL module
 0001:00042880       ??_GDatabase@Db@@UAEPAXI@Z 00443880 f i db_win32.release:database.obj
 0001:000428b0       ??1Database@Db@@UAE@XZ     004438b0 f   db_win32.release:database.obj
 0001:00042960       ?Open@Database@Db@@UAE_NXZ 00443960 f   db_win32.release:database.obj
 0001:000429a0       ?Close@Database@Db@@UAEXXZ 004439a0 f   db_win32.release:database.obj
 0001:00042a40       ?BeginTransaction@Database@Db@@UAEXXZ 00443a40 f   db_win32.release:database.obj
 0001:00042a60       ?EndTransaction@Database@Db@@UAEXXZ 00443a60 f   db_win32.release:database.obj
 0001:00042a80       ?AddTable@Database@Db@@UAEXABV?$Ptr@VTable@Db@@@@@Z 00443a80 f   db_win32.release:database.obj
 0001:00042b50       ?DeleteTable@Database@Db@@UAEXABVString@Util@@@Z 00443b50 f   db_win32.release:database.obj
 0001:00042bd0       ?FindTableIndex@Database@Db@@IBEHABVString@Util@@@Z 00443bd0 f   db_win32.release:database.obj
 0001:00042ca0       ?HasTable@Database@Db@@QBE_NABVString@Util@@@Z 00443ca0 f   db_win32.release:database.obj
 0001:00042cd0       ?GetNumTables@Database@Db@@QBEHXZ 00443cd0 f   db_win32.release:database.obj
 0001:00042d20       ?GetTableByIndex@Database@Db@@QBEABV?$Ptr@VTable@Db@@@@H@Z 00443d20 f   db_win32.release:database.obj
 0001:00042d70       ?GetTableByName@Database@Db@@QBEABV?$Ptr@VTable@Db@@@@ABVString@Util@@@Z 00443d70 f   db_win32.release:database.obj
 0001:00042da0       ?AttachDatabase@Database@Db@@UAE_NABVURI@IO@@ABVString@Util@@@Z 00443da0 f   db_win32.release:database.obj
 0001:00042dc0       ?DetachDatabase@Database@Db@@UAEXABVString@Util@@@Z 00443dc0 f   db_win32.release:database.obj
 0001:00042de0       ?CopyInMemoryDatabaseToFile@Database@Db@@UAEXABVURI@IO@@@Z 00443de0 f   db_win32.release:database.obj
 0001:00042e00       ??0?$Array@V?$Ptr@VTable@Db@@@@@Util@@QAE@XZ 00443e00 f i db_win32.release:database.obj
 0001:00042e40       ??1?$Array@V?$Ptr@VTable@Db@@@@@Util@@QAE@XZ 00443e40 f i db_win32.release:database.obj
 0001:00042e60       ??A?$Array@V?$Ptr@VTable@Db@@@@@Util@@QBEAAV?$Ptr@VTable@Db@@@@H@Z 00443e60 f i db_win32.release:database.obj
 0001:00042eb0       ?Append@?$Array@V?$Ptr@VTable@Db@@@@@Util@@QAEXABV?$Ptr@VTable@Db@@@@@Z 00443eb0 f i db_win32.release:database.obj
 0001:00042f30       ?Size@?$Array@V?$Ptr@VTable@Db@@@@@Util@@QBEHXZ 00443f30 f i db_win32.release:database.obj
 0001:00042f50       ?EraseIndex@?$Array@V?$Ptr@VTable@Db@@@@@Util@@QAEXH@Z 00443f50 f i db_win32.release:database.obj
 0001:00042fd0       ?Clear@?$Array@V?$Ptr@VTable@Db@@@@@Util@@QAEXXZ 00443fd0 f i db_win32.release:database.obj
 0001:00043020       ?Destroy@?$Array@V?$Ptr@VTable@Db@@@@@Util@@AAEXPAV?$Ptr@VTable@Db@@@@@Z 00444020 f i db_win32.release:database.obj
 0001:00043050       ?Delete@?$Array@V?$Ptr@VTable@Db@@@@@Util@@AAEXXZ 00444050 f i db_win32.release:database.obj
 0001:000430c0       ?Grow@?$Array@V?$Ptr@VTable@Db@@@@@Util@@AAEXXZ 004440c0 f i db_win32.release:database.obj
 0001:00043140       ?Move@?$Array@V?$Ptr@VTable@Db@@@@@Util@@AAEXHH@Z 00444140 f i db_win32.release:database.obj
 0001:000432d0       ??_G?$Ptr@VTable@Db@@@@QAEPAXI@Z 004442d0 f i db_win32.release:database.obj
 0001:00043300       ??_E?$Ptr@VTable@Db@@@@QAEPAXI@Z 00444300 f i db_win32.release:database.obj
 0001:000433a0       ?GrowTo@?$Array@V?$Ptr@VTable@Db@@@@@Util@@AAEXH@Z 004443a0 f i db_win32.release:database.obj
 0001:000434c0       ??0Variant@Util@@QAE@XZ    004444c0 f i db_win32.release:filterset.obj
 0001:000434f0       ??4Variant@Util@@QAEXABV01@@Z 004444f0 f i db_win32.release:filterset.obj
 0001:00043520       ??0Attribute@Attr@@QAE@XZ  00444520 f i db_win32.release:filterset.obj
 0001:00043540       ??0Attribute@Attr@@QAE@ABV01@@Z 00444540 f i db_win32.release:filterset.obj
 0001:00043570       ??4Attribute@Attr@@QAEXABV01@@Z 00444570 f i db_win32.release:filterset.obj
 0001:000435b0       ??2FilterSet@Db@@SAPAXI@Z  004445b0 f i db_win32.release:filterset.obj
 0001:000435c0       ??3FilterSet@Db@@SAXPAX@Z  004445c0 f i db_win32.release:filterset.obj
 0001:000435e0       ??0Token@FilterSet@Db@@QAE@XZ 004445e0 f i db_win32.release:filterset.obj
 0001:00043610       ??0Token@FilterSet@Db@@QAE@W4Type@012@@Z 00444610 f i db_win32.release:filterset.obj
 0001:00043640       ??0Token@FilterSet@Db@@QAE@W4Type@012@ABVAttribute@Attr@@@Z 00444640 f i db_win32.release:filterset.obj
 0001:00043680       ?GetType@Token@FilterSet@Db@@QBE?AW4Type@123@XZ 00444680 f i db_win32.release:filterset.obj
 0001:00043690       ?GetRtti@FilterSet@Db@@UBEPAVRtti@Core@@XZ 00444690 f   db_win32.release:filterset.obj
 0001:000436a0       ?FactoryCreator@FilterSet@Db@@SAPAVRefCounted@Core@@XZ 004446a0 f   db_win32.release:filterset.obj
 0001:000436b0       ?Create@FilterSet@Db@@SAPAV12@XZ 004446b0 f   db_win32.release:filterset.obj
 0001:000436f0       ?RegisterWithFactory@FilterSet@Db@@SA_NXZ 004446f0 f   db_win32.release:filterset.obj
 0001:000437f0       ??0FilterSet@Db@@QAE@XZ    004447f0 f   db_win32.release:filterset.obj
 0001:00043860       ??_GFilterSet@Db@@UAEPAXI@Z 00444860 f i db_win32.release:filterset.obj
 0001:00043860       ??_EFilterSet@Db@@UAEPAXI@Z 00444860 f i  CIL library: CIL module
 0001:00043890       ??1?$SimpleTree@VToken@FilterSet@Db@@@Util@@QAE@XZ 00444890 f i db_win32.release:filterset.obj
 0001:000438b0       ??1FilterSet@Db@@UAE@XZ    004448b0 f   db_win32.release:filterset.obj
 0001:000438f0       ?Clear@FilterSet@Db@@QAEXXZ 004448f0 f   db_win32.release:filterset.obj
 0001:00043930       ?BeginBlock@FilterSet@Db@@QAEXXZ 00444930 f   db_win32.release:filterset.obj
 0001:000439a0       ??1Token@FilterSet@Db@@QAE@XZ 004449a0 f i db_win32.release:filterset.obj
 0001:000439c0       ?EndBlock@FilterSet@Db@@QAEXXZ 004449c0 f   db_win32.release:filterset.obj
 0001:00043b70       ?AddEqualCheck@FilterSet@Db@@QAEXABVAttribute@Attr@@@Z 00444b70 f   db_win32.release:filterset.obj
 0001:00043bf0       ?AddGreaterThenCheck@FilterSet@Db@@QAEXABVAttribute@Attr@@@Z 00444bf0 f   db_win32.release:filterset.obj
 0001:00043c70       ?AddLessThenCheck@FilterSet@Db@@QAEXABVAttribute@Attr@@@Z 00444c70 f   db_win32.release:filterset.obj
 0001:00043cf0       ?AddGreaterOrEqualCheck@FilterSet@Db@@QAEXABVAttribute@Attr@@@Z 00444cf0 f   db_win32.release:filterset.obj
 0001:00043d70       ?AddLessOrEqualCheck@FilterSet@Db@@QAEXABVAttribute@Attr@@@Z 00444d70 f   db_win32.release:filterset.obj
 0001:00043df0       ?AddAnd@FilterSet@Db@@QAEXXZ 00444df0 f   db_win32.release:filterset.obj
 0001:00043e50       ?AddOr@FilterSet@Db@@QAEXXZ 00444e50 f   db_win32.release:filterset.obj
 0001:00043eb0       ?AddNot@FilterSet@Db@@QAEXXZ 00444eb0 f   db_win32.release:filterset.obj
 0001:00043f10       ?AsSqlWhere@FilterSet@Db@@UBE?AVString@Util@@XZ 00444f10 f   db_win32.release:filterset.obj
 0001:00043f60       ?BindValuesToCommand@FilterSet@Db@@UAEXABV?$Ptr@VCommand@Db@@@@H@Z 00444f60 f   db_win32.release:filterset.obj
 0001:00043f80       ??0?$KeyValuePair@VAttrId@Attr@@VVariant@Util@@@Util@@QAE@XZ 00444f80 f i db_win32.release:filterset.obj
 0001:00043fc0       ??1Node@?$SimpleTree@VToken@FilterSet@Db@@@Util@@QAE@XZ 00444fc0 f i db_win32.release:filterset.obj
 0001:00044000       ?HasParent@Node@?$SimpleTree@VToken@FilterSet@Db@@@Util@@QBE_NXZ 00445000 f i db_win32.release:filterset.obj
 0001:00044020       ?Parent@Node@?$SimpleTree@VToken@FilterSet@Db@@@Util@@QAEAAV123@XZ 00445020 f i db_win32.release:filterset.obj
 0001:00044060       ?Clear@Node@?$SimpleTree@VToken@FilterSet@Db@@@Util@@QAEXXZ 00445060 f i db_win32.release:filterset.obj
 0001:00044080       ?Front@Node@?$SimpleTree@VToken@FilterSet@Db@@@Util@@QBEAAV123@XZ 00445080 f i db_win32.release:filterset.obj
 0001:000440a0       ?Back@Node@?$SimpleTree@VToken@FilterSet@Db@@@Util@@QBEAAV123@XZ 004450a0 f i db_win32.release:filterset.obj
 0001:000440c0       ?Append@Node@?$SimpleTree@VToken@FilterSet@Db@@@Util@@QAEXABVToken@FilterSet@Db@@@Z 004450c0 f i db_win32.release:filterset.obj
 0001:00044130       ?Value@Node@?$SimpleTree@VToken@FilterSet@Db@@@Util@@QAEAAVToken@FilterSet@Db@@XZ 00445130 f i db_win32.release:filterset.obj
 0001:00044150       ??0?$SimpleTree@VToken@FilterSet@Db@@@Util@@QAE@XZ 00445150 f i db_win32.release:filterset.obj
 0001:00044170       ?Root@?$SimpleTree@VToken@FilterSet@Db@@@Util@@QAEAAVNode@12@XZ 00445170 f i db_win32.release:filterset.obj
 0001:00044180       ??0?$Array@VAttribute@Attr@@@Util@@QAE@XZ 00445180 f i db_win32.release:filterset.obj
 0001:000441c0       ??1?$Array@VAttribute@Attr@@@Util@@QAE@XZ 004451c0 f i db_win32.release:filterset.obj
 0001:000441e0       ?Append@?$Array@VAttribute@Attr@@@Util@@QAEXABVAttribute@Attr@@@Z 004451e0 f i db_win32.release:filterset.obj
 0001:00044270       ?Clear@?$Array@VAttribute@Attr@@@Util@@QAEXXZ 00445270 f i db_win32.release:filterset.obj
 0001:000442c0       ??1?$Array@V?$Ptr@VNode@?$SimpleTree@VToken@FilterSet@Db@@@Util@@@@@Util@@QAE@XZ 004452c0 f i db_win32.release:filterset.obj
 0001:000442e0       ?Append@?$Array@V?$Ptr@VNode@?$SimpleTree@VToken@FilterSet@Db@@@Util@@@@@Util@@QAEXABV?$Ptr@VNode@?$SimpleTree@VToken@FilterSet@Db@@@Util@@@@@Z 004452e0 f i db_win32.release:filterset.obj
 0001:00044360       ?Front@?$Array@V?$Ptr@VNode@?$SimpleTree@VToken@FilterSet@Db@@@Util@@@@@Util@@QBEAAV?$Ptr@VNode@?$SimpleTree@VToken@FilterSet@Db@@@Util@@@@XZ 00445360 f i db_win32.release:filterset.obj
 0001:000443a0       ?Back@?$Array@V?$Ptr@VNode@?$SimpleTree@VToken@FilterSet@Db@@@Util@@@@@Util@@QBEAAV?$Ptr@VNode@?$SimpleTree@VToken@FilterSet@Db@@@Util@@@@XZ 004453a0 f i db_win32.release:filterset.obj
 0001:000443f0       ?Clear@?$Array@V?$Ptr@VNode@?$SimpleTree@VToken@FilterSet@Db@@@Util@@@@@Util@@QAEXXZ 004453f0 f i db_win32.release:filterset.obj
 0001:00044440       ??0?$Ptr@VNode@?$SimpleTree@VToken@FilterSet@Db@@@Util@@@@QAE@PAVNode@?$SimpleTree@VToken@FilterSet@Db@@@Util@@@Z 00445440 f i db_win32.release:filterset.obj
 0001:00044470       ??1?$Ptr@VNode@?$SimpleTree@VToken@FilterSet@Db@@@Util@@@@QAE@XZ 00445470 f i db_win32.release:filterset.obj
 0001:000444a0       ??D?$Ptr@VNode@?$SimpleTree@VToken@FilterSet@Db@@@Util@@@@QBEAAVNode@?$SimpleTree@VToken@FilterSet@Db@@@Util@@XZ 004454a0 f i db_win32.release:filterset.obj
 0001:000444e0       ?Destroy@?$Array@VAttribute@Attr@@@Util@@AAEXPAVAttribute@Attr@@@Z 004454e0 f i db_win32.release:filterset.obj
 0001:00044510       ?Delete@?$Array@VAttribute@Attr@@@Util@@AAEXXZ 00445510 f i db_win32.release:filterset.obj
 0001:00044580       ?Grow@?$Array@VAttribute@Attr@@@Util@@AAEXXZ 00445580 f i db_win32.release:filterset.obj
 0001:00044600       ??0Node@?$SimpleTree@VToken@FilterSet@Db@@@Util@@QAE@ABV012@ABVToken@FilterSet@Db@@@Z 00445600 f i db_win32.release:filterset.obj
 0001:00044690       ??0Node@?$SimpleTree@VToken@FilterSet@Db@@@Util@@QAE@XZ 00445690 f i db_win32.release:filterset.obj
 0001:000446f0       ??_GAttribute@Attr@@QAEPAXI@Z 004456f0 f i db_win32.release:filterset.obj
 0001:00044730       ??0Token@FilterSet@Db@@QAE@ABV012@@Z 00445730 f i db_win32.release:filterset.obj
 0001:00044780       ??0?$Array@V?$Ptr@VNode@?$SimpleTree@VToken@FilterSet@Db@@@Util@@@@@Util@@QAE@XZ 00445780 f i db_win32.release:filterset.obj
 0001:000447c0       ?Destroy@?$Array@V?$Ptr@VNode@?$SimpleTree@VToken@FilterSet@Db@@@Util@@@@@Util@@AAEXPAV?$Ptr@VNode@?$SimpleTree@VToken@FilterSet@Db@@@Util@@@@@Z 004457c0 f i db_win32.release:filterset.obj
 0001:000447f0       ?Delete@?$Array@V?$Ptr@VNode@?$SimpleTree@VToken@FilterSet@Db@@@Util@@@@@Util@@AAEXXZ 004457f0 f i db_win32.release:filterset.obj
 0001:00044860       ?Grow@?$Array@V?$Ptr@VNode@?$SimpleTree@VToken@FilterSet@Db@@@Util@@@@@Util@@AAEXXZ 00445860 f i db_win32.release:filterset.obj
 0001:000448e0       ??4?$Ptr@VNode@?$SimpleTree@VToken@FilterSet@Db@@@Util@@@@QAEXABV0@@Z 004458e0 f i db_win32.release:filterset.obj
 0001:00044930       ?GrowTo@?$Array@VAttribute@Attr@@@Util@@AAEXH@Z 00445930 f i db_win32.release:filterset.obj
 0001:00044a80       ?AddRef@Node@?$SimpleTree@VToken@FilterSet@Db@@@Util@@QAEXXZ 00445a80 f i db_win32.release:filterset.obj
 0001:00044aa0       ?Release@Node@?$SimpleTree@VToken@FilterSet@Db@@@Util@@QAEXXZ 00445aa0 f i db_win32.release:filterset.obj
 0001:00044b30       ??_G?$Ptr@VNode@?$SimpleTree@VToken@FilterSet@Db@@@Util@@@@QAEPAXI@Z 00445b30 f i db_win32.release:filterset.obj
 0001:00044b60       ??_E?$Ptr@VNode@?$SimpleTree@VToken@FilterSet@Db@@@Util@@@@QAEPAXI@Z 00445b60 f i db_win32.release:filterset.obj
 0001:00044c00       ??_GNode@?$SimpleTree@VToken@FilterSet@Db@@@Util@@QAEPAXI@Z 00445c00 f i db_win32.release:filterset.obj
 0001:00044c30       ?GrowTo@?$Array@V?$Ptr@VNode@?$SimpleTree@VToken@FilterSet@Db@@@Util@@@@@Util@@AAEXH@Z 00445c30 f i db_win32.release:filterset.obj
 0001:00044d50       ??0?$Ptr@VNode@?$SimpleTree@VToken@FilterSet@Db@@@Util@@@@QAE@XZ 00445d50 f i db_win32.release:filterset.obj
 0001:00044d70       ??2Relation@Db@@SAPAXI@Z   00445d70 f i db_win32.release:relation.obj
 0001:00044d80       ??3Relation@Db@@SAXPAX@Z   00445d80 f i db_win32.release:relation.obj
 0001:00044da0       ?GetRtti@Relation@Db@@UBEPAVRtti@Core@@XZ 00445da0 f   db_win32.release:relation.obj
 0001:00044db0       ?FactoryCreator@Relation@Db@@SAPAVRefCounted@Core@@XZ 00445db0 f   db_win32.release:relation.obj
 0001:00044dc0       ?Create@Relation@Db@@SAPAV12@XZ 00445dc0 f   db_win32.release:relation.obj
 0001:00044e00       ?RegisterWithFactory@Relation@Db@@SA_NXZ 00445e00 f   db_win32.release:relation.obj
 0001:00044f00       ??0Relation@Db@@QAE@XZ     00445f00 f   db_win32.release:relation.obj
 0001:00044f70       ??_GRelation@Db@@UAEPAXI@Z 00445f70 f i db_win32.release:relation.obj
 0001:00044f70       ??_ERelation@Db@@UAEPAXI@Z 00445f70 f i  CIL library: CIL module
 0001:00044fa0       ??1Relation@Db@@UAE@XZ     00445fa0 f   db_win32.release:relation.obj
 0001:00044fe0       ??2ValueTable@Db@@SAPAXI@Z 00445fe0 f i db_win32.release:valuetable.obj
 0001:00044ff0       ??3ValueTable@Db@@SAXPAX@Z 00445ff0 f i db_win32.release:valuetable.obj
 0001:00045010       ?GetRtti@ValueTable@Db@@UBEPAVRtti@Core@@XZ 00446010 f   db_win32.release:valuetable.obj
 0001:00045020       ?FactoryCreator@ValueTable@Db@@SAPAVRefCounted@Core@@XZ 00446020 f   db_win32.release:valuetable.obj
 0001:00045030       ?Create@ValueTable@Db@@SAPAV12@XZ 00446030 f   db_win32.release:valuetable.obj
 0001:00045070       ?RegisterWithFactory@ValueTable@Db@@SA_NXZ 00446070 f   db_win32.release:valuetable.obj
 0001:00045170       ??0ValueTable@Db@@QAE@XZ   00446170 f   db_win32.release:valuetable.obj
 0001:00045190       ??_EValueTable@Db@@UAEPAXI@Z 00446190 f i  CIL library: CIL module
 0001:00045190       ??_GValueTable@Db@@UAEPAXI@Z 00446190 f i db_win32.release:valuetable.obj
 0001:000451c0       ??1ValueTable@Db@@UAE@XZ   004461c0 f   db_win32.release:valuetable.obj
 0001:000451e0       ?loadu@float4@Math@@QAEXPBM@Z 004461e0 f i db_win32.release:reader.obj
 0001:00045220       ?loadu@matrix44@Math@@QAEXPBM@Z 00446220 f i db_win32.release:reader.obj
 0001:000452e0       ?GetBool@AttributeTable@Attr@@QBE_NHH@Z 004462e0 f i db_win32.release:reader.obj
 0001:00045340       ?GetFloat@AttributeTable@Attr@@QBEMHH@Z 00446340 f i db_win32.release:reader.obj
 0001:00045390       ?GetInt@AttributeTable@Attr@@QBEHHH@Z 00446390 f i db_win32.release:reader.obj
 0001:000453e0       ?GetFloat4@AttributeTable@Attr@@QBE?AVfloat4@Math@@HH@Z 004463e0 f i db_win32.release:reader.obj
 0001:00045470       ?GetMatrix44@AttributeTable@Attr@@QBE?AVmatrix44@Math@@HH@Z 00446470 f i db_win32.release:reader.obj
 0001:00045620       ?GetString@AttributeTable@Attr@@QBEABVString@Util@@HH@Z 00446620 f i db_win32.release:reader.obj
 0001:00045670       ?GetGuid@AttributeTable@Attr@@QBEABVWin32Guid@Win32@@HH@Z 00446670 f i db_win32.release:reader.obj
 0001:000456c0       ?GetBlob@AttributeTable@Attr@@QBEABVBlob@Util@@HH@Z 004466c0 f i db_win32.release:reader.obj
 0001:00045710       ?GetBool@AttributeTable@Attr@@QBE_NABVBoolAttrId@2@H@Z 00446710 f i db_win32.release:reader.obj
 0001:00045780       ?GetFloat@AttributeTable@Attr@@QBEMABVFloatAttrId@2@H@Z 00446780 f i db_win32.release:reader.obj
 0001:000457f0       ?GetInt@AttributeTable@Attr@@QBEHABVIntAttrId@2@H@Z 004467f0 f i db_win32.release:reader.obj
 0001:00045860       ?GetFloat4@AttributeTable@Attr@@QBE?AVfloat4@Math@@ABVFloat4AttrId@2@H@Z 00446860 f i db_win32.release:reader.obj
 0001:000458a0       ?GetMatrix44@AttributeTable@Attr@@QBE?AVmatrix44@Math@@ABVMatrix44AttrId@2@H@Z 004468a0 f i db_win32.release:reader.obj
 0001:000458e0       ?GetString@AttributeTable@Attr@@QBEABVString@Util@@ABVStringAttrId@2@H@Z 004468e0 f i db_win32.release:reader.obj
 0001:00045950       ?GetGuid@AttributeTable@Attr@@QBEABVWin32Guid@Win32@@ABVGuidAttrId@2@H@Z 00446950 f i db_win32.release:reader.obj
 0001:000459c0       ?GetBlob@AttributeTable@Attr@@QBEABVBlob@Util@@ABVBlobAttrId@2@H@Z 004469c0 f i db_win32.release:reader.obj
 0001:00045a30       ?GetURI@Database@Db@@QBEABVURI@IO@@XZ 00446a30 f i db_win32.release:reader.obj
 0001:00045a50       ??2Reader@Db@@SAPAXI@Z     00446a50 f i db_win32.release:reader.obj
 0001:00045a60       ??3Reader@Db@@SAXPAX@Z     00446a60 f i db_win32.release:reader.obj
 0001:00045a80       ?GetRtti@Reader@Db@@UBEPAVRtti@Core@@XZ 00446a80 f   db_win32.release:reader.obj
 0001:00045a90       ?FactoryCreator@Reader@Db@@SAPAVRefCounted@Core@@XZ 00446a90 f   db_win32.release:reader.obj
 0001:00045aa0       ?Create@Reader@Db@@SAPAV12@XZ 00446aa0 f   db_win32.release:reader.obj
 0001:00045ae0       ?RegisterWithFactory@Reader@Db@@SA_NXZ 00446ae0 f   db_win32.release:reader.obj
 0001:00045be0       ??0Reader@Db@@QAE@XZ       00446be0 f   db_win32.release:reader.obj
 0001:00045c80       ??_GReader@Db@@UAEPAXI@Z   00446c80 f i db_win32.release:reader.obj
 0001:00045c80       ??_EReader@Db@@UAEPAXI@Z   00446c80 f i  CIL library: CIL module
 0001:00045cb0       ??1Reader@Db@@UAE@XZ       00446cb0 f   db_win32.release:reader.obj
 0001:00045d60       ?Open@Reader@Db@@QAE_NXZ   00446d60 f   db_win32.release:reader.obj
 0001:00045fc0       ?Close@Reader@Db@@QAEXXZ   00446fc0 f   db_win32.release:reader.obj
 0001:00046020       ?HasAttr@Reader@Db@@QBE_NVAttrId@Attr@@@Z 00447020 f   db_win32.release:reader.obj
 0001:00046070       ?GetBool@Reader@Db@@QBE_NVBoolAttrId@Attr@@@Z 00447070 f   db_win32.release:reader.obj
 0001:000460c0       ?GetInt@Reader@Db@@QBEHVIntAttrId@Attr@@@Z 004470c0 f   db_win32.release:reader.obj
 0001:00046110       ?GetFloat@Reader@Db@@QBEMVFloatAttrId@Attr@@@Z 00447110 f   db_win32.release:reader.obj
 0001:00046160       ?GetString@Reader@Db@@QBEABVString@Util@@VStringAttrId@Attr@@@Z 00447160 f   db_win32.release:reader.obj
 0001:000461b0       ?GetFloat4@Reader@Db@@QBE?BVfloat4@Math@@VFloat4AttrId@Attr@@@Z 004471b0 f   db_win32.release:reader.obj
 0001:00046220       ?GetMatrix44@Reader@Db@@QBE?BVmatrix44@Math@@VMatrix44AttrId@Attr@@@Z 00447220 f   db_win32.release:reader.obj
 0001:000462b0       ?GetGuid@Reader@Db@@QBEABVWin32Guid@Win32@@VGuidAttrId@Attr@@@Z 004472b0 f   db_win32.release:reader.obj
 0001:00046300       ?GetBlob@Reader@Db@@QBEABVBlob@Util@@VBlobAttrId@Attr@@@Z 00447300 f   db_win32.release:reader.obj
 0001:00046350       ??A?$Array@VAttribute@Attr@@@Util@@QBEAAVAttribute@Attr@@H@Z 00447350 f i db_win32.release:reader.obj
 0001:000463a0       ?Size@?$Array@VAttribute@Attr@@@Util@@QBEHXZ 004473a0 f i db_win32.release:reader.obj
 0001:000463c0       ??A?$Dictionary@VAttrId@Attr@@H@Util@@QBEABHABVAttrId@Attr@@@Z 004473c0 f i db_win32.release:reader.obj
 0001:00046410       ?isvalid@?$Ptr@VDatabase@Db@@@@QBE_NXZ 00447410 f i db_win32.release:reader.obj
 0001:00046430       ??0?$Ptr@VDataset@Db@@@@QAE@XZ 00447430 f i db_win32.release:reader.obj
 0001:00046450       ??4?$Ptr@VDataset@Db@@@@QAEXPAVDataset@Db@@@Z 00447450 f i db_win32.release:reader.obj
 0001:000464b0       ??4?$Ptr@VDataset@Db@@@@QAEXABV0@@Z 004474b0 f i db_win32.release:reader.obj
 0001:00046510       ?FindIndex@?$Dictionary@VAttrId@Attr@@H@Util@@QBEHABVAttrId@Attr@@@Z 00447510 f i db_win32.release:reader.obj
 0001:00046560       ?Value@?$KeyValuePair@VAttrId@Attr@@H@Util@@QAEAAHXZ 00447560 f i db_win32.release:reader.obj
 0001:00046580       ??A?$Array@V?$KeyValuePair@VAttrId@Attr@@H@Util@@@Util@@QBEAAV?$KeyValuePair@VAttrId@Attr@@H@1@H@Z 00447580 f i db_win32.release:reader.obj
 0001:000465d0       ?XMLoadFloat4@@YA?AT__m128@@PBU_XMFLOAT4@@@Z 004475d0 f i db_win32.release:reader.obj
 0001:000465f0       ?HasColumn@Table@Db@@QBE_NABVAttrId@Attr@@@Z 004475f0 f i db_win32.release:writer.obj
 0001:00046610       ??2Writer@Db@@SAPAXI@Z     00447610 f i db_win32.release:writer.obj
 0001:00046620       ??3Writer@Db@@SAXPAX@Z     00447620 f i db_win32.release:writer.obj
 0001:00046640       ?AddColumn@Writer@Db@@QAEXABVColumn@2@@Z 00447640 f i db_win32.release:writer.obj
 0001:000466b0       ?IsOpen@Writer@Db@@QBE_NXZ 004476b0 f i db_win32.release:writer.obj
 0001:000466d0       ?GetRtti@Writer@Db@@UBEPAVRtti@Core@@XZ 004476d0 f   db_win32.release:writer.obj
 0001:000466e0       ?FactoryCreator@Writer@Db@@SAPAVRefCounted@Core@@XZ 004476e0 f   db_win32.release:writer.obj
 0001:000466f0       ?Create@Writer@Db@@SAPAV12@XZ 004476f0 f   db_win32.release:writer.obj
 0001:00046730       ?RegisterWithFactory@Writer@Db@@SA_NXZ 00447730 f   db_win32.release:writer.obj
 0001:00046830       ??0Writer@Db@@QAE@XZ       00447830 f   db_win32.release:writer.obj
 0001:000468e0       ??_EWriter@Db@@UAEPAXI@Z   004478e0 f i  CIL library: CIL module
 0001:000468e0       ??_GWriter@Db@@UAEPAXI@Z   004478e0 f i db_win32.release:writer.obj
 0001:00046910       ??1Writer@Db@@UAE@XZ       00447910 f   db_win32.release:writer.obj
 0001:000469c0       ?Open@Writer@Db@@QAE_NXZ   004479c0 f   db_win32.release:writer.obj
 0001:00046ac0       ?OpenFromValueTable@Writer@Db@@QAE_NABV?$Ptr@VValueTable@Db@@@@@Z 00447ac0 f   db_win32.release:writer.obj
 0001:00046cc0       ?Close@Writer@Db@@QAEXXZ   00447cc0 f   db_win32.release:writer.obj
 0001:00046fd0       ?BeginRow@Writer@Db@@QAEXXZ 00447fd0 f   db_win32.release:writer.obj
 0001:00047070       ?EndRow@Writer@Db@@QAEXXZ  00448070 f   db_win32.release:writer.obj
 0001:000470d0       ?StringToType@Variant@Util@@SA?AW4Type@12@ABVString@2@@Z 004480d0 f i db_win32.release:sqlite3database.obj
 0001:000473e0       ?FindByName@AttributeDefinitionBase@Attr@@SAPBV12@ABVString@Util@@@Z 004483e0 f i db_win32.release:sqlite3database.obj
 0001:00047430       ?IsValidName@AttrId@Attr@@SA_NABVString@Util@@@Z 00448430 f i db_win32.release:sqlite3database.obj
 0001:00047450       ??0BoolAttrId@Attr@@QAE@ABV?$AttributeDefinition@VBoolTypeClass@Attr@@_N@1@@Z 00448450 f i db_win32.release:sqlite3database.obj
 0001:00047470       ?StringToValueType@Attribute@Attr@@SA?AW4ValueType@2@ABVString@Util@@@Z 00448470 f i db_win32.release:sqlite3database.obj
 0001:00047490       ?GetError@Command@Db@@QBEABVString@Util@@XZ 00448490 f i db_win32.release:sqlite3database.obj
 0001:000474b0       ?SetError@Database@Db@@IAEXABVString@Util@@@Z 004484b0 f i db_win32.release:sqlite3database.obj
 0001:00047500       ??2Sqlite3Database@Db@@SAPAXI@Z 00448500 f i db_win32.release:sqlite3database.obj
 0001:00047510       ??3Sqlite3Database@Db@@SAXPAX@Z 00448510 f i db_win32.release:sqlite3database.obj
 0001:00047530       ?Instance@Sqlite3Factory@Db@@SAPAV12@XZ 00448530 f i db_win32.release:sqlite3database.obj
 0001:00047570       ??1?$AttributeDefinition@VBlobTypeClass@Attr@@ABVBlob@Util@@@Attr@@QAE@XZ 00448570 f i db_win32.release:sqlite3database.obj
 0001:00047590       ?GetRtti@Sqlite3Database@Db@@UBEPAVRtti@Core@@XZ 00448590 f   db_win32.release:sqlite3database.obj
 0001:000475a0       ?FactoryCreator@Sqlite3Database@Db@@SAPAVRefCounted@Core@@XZ 004485a0 f   db_win32.release:sqlite3database.obj
 0001:000475b0       ?Create@Sqlite3Database@Db@@SAPAV12@XZ 004485b0 f   db_win32.release:sqlite3database.obj
 0001:000475f0       ?RegisterWithFactory@Sqlite3Database@Db@@SA_NXZ 004485f0 f   db_win32.release:sqlite3database.obj
 0001:000476f0       ??0Sqlite3Database@Db@@QAE@XZ 004486f0 f   db_win32.release:sqlite3database.obj
 0001:00047770       ??_GSqlite3Database@Db@@UAEPAXI@Z 00448770 f i db_win32.release:sqlite3database.obj
 0001:00047770       ??_ESqlite3Database@Db@@UAEPAXI@Z 00448770 f i  CIL library: CIL module
 0001:000477a0       ??1Sqlite3Database@Db@@UAE@XZ 004487a0 f   db_win32.release:sqlite3database.obj
 0001:00047800       ?Open@Sqlite3Database@Db@@UAE_NXZ 00448800 f   db_win32.release:sqlite3database.obj
 0001:000489e0       ?Close@Sqlite3Database@Db@@UAEXXZ 004499e0 f   db_win32.release:sqlite3database.obj
 0001:00048bc0       ?BeginTransaction@Sqlite3Database@Db@@UAEXXZ 00449bc0 f   db_win32.release:sqlite3database.obj
 0001:00048cd0       ?EndTransaction@Sqlite3Database@Db@@UAEXXZ 00449cd0 f   db_win32.release:sqlite3database.obj
 0001:00048de0       ?RegisterAttributes@Sqlite3Database@Db@@AAEXAAV?$Ptr@VTable@Db@@@@@Z 00449de0 f   db_win32.release:sqlite3database.obj
 0001:00049040       ?ReadTableLayouts@Sqlite3Database@Db@@AAEXXZ 0044a040 f   db_win32.release:sqlite3database.obj
 0001:00049580       ?AttachDatabase@Sqlite3Database@Db@@UAE_NABVURI@IO@@ABVString@Util@@@Z 0044a580 f   db_win32.release:sqlite3database.obj
 0001:00049910       ?DetachDatabase@Sqlite3Database@Db@@UAEXABVString@Util@@@Z 0044a910 f   db_win32.release:sqlite3database.obj
 0001:00049b10       ?CopyInMemoryDatabaseToFile@Sqlite3Database@Db@@UAEXABVURI@IO@@@Z 0044ab10 f   db_win32.release:sqlite3database.obj
 0001:00049f10       ??A?$Array@H@Util@@QBEAAHH@Z 0044af10 f i db_win32.release:sqlite3database.obj
 0001:00049f60       ?IsEmpty@?$Array@H@Util@@QBE_NXZ 0044af60 f i db_win32.release:sqlite3database.obj
 0001:00049f80       ??A?$HashTable@VString@Util@@PBVAttributeDefinitionBase@Attr@@@Util@@QBEAAPBVAttributeDefinitionBase@Attr@@ABVString@1@@Z 0044af80 f i db_win32.release:sqlite3database.obj
 0001:0004a080       ?Contains@?$HashTable@VString@Util@@PBVAttributeDefinitionBase@Attr@@@Util@@QBE_NABVString@2@@Z 0044b080 f i db_win32.release:sqlite3database.obj
 0001:0004a120       ??0?$AttributeDefinition@VBlobTypeClass@Attr@@ABVBlob@Util@@@Attr@@QAE@ABVString@Util@@ABVFourCC@3@W4AccessMode@1@ABVBlob@3@@Z 0044b120 f i db_win32.release:sqlite3database.obj
 0001:0004a150       ??0?$Ptr@VValueTable@Db@@@@QAE@ABV0@@Z 0044b150 f i db_win32.release:sqlite3database.obj
 0001:0004a190       ??0?$Ptr@VCommand@Db@@@@QAE@XZ 0044b190 f i db_win32.release:sqlite3database.obj
 0001:0004a1b0       ??4?$Ptr@VCommand@Db@@@@QAEXPAVCommand@Db@@@Z 0044b1b0 f i db_win32.release:sqlite3database.obj
 0001:0004a210       ??4?$Ptr@VCommand@Db@@@@QAEXABV0@@Z 0044b210 f i db_win32.release:sqlite3database.obj
 0001:0004a270       ??C?$Ptr@VCommand@Db@@@@QBEPAVCommand@Db@@XZ 0044b270 f i db_win32.release:sqlite3database.obj
 0001:0004a2b0       ??0?$Ptr@VSqlite3Table@Db@@@@QAE@ABV0@@Z 0044b2b0 f i db_win32.release:sqlite3database.obj
 0001:0004a2f0       ??1?$Ptr@VSqlite3Table@Db@@@@QAE@XZ 0044b2f0 f i db_win32.release:sqlite3database.obj
 0001:0004a320       ??C?$Ptr@VSqlite3Table@Db@@@@QBEPAVSqlite3Table@Db@@XZ 0044b320 f i db_win32.release:sqlite3database.obj
 0001:0004a360       ??$cast@VSqlite3Table@Db@@@?$Ptr@VTable@Db@@@@QBEABV?$Ptr@VSqlite3Table@Db@@@@XZ 0044b360 f i db_win32.release:sqlite3database.obj
 0001:0004a370       ??$cast@VTable@Db@@@?$Ptr@VSqlite3Table@Db@@@@QBEABV?$Ptr@VTable@Db@@@@XZ 0044b370 f i db_win32.release:sqlite3database.obj
 0001:0004a380       ??1?$KeyValuePair@VString@Util@@PBVAttributeDefinitionBase@Attr@@@Util@@QAE@XZ 0044b380 f i db_win32.release:sqlite3database.obj
 0001:0004a3d0       ??A?$FixedArray@V?$Array@V?$KeyValuePair@VString@Util@@PBVAttributeDefinitionBase@Attr@@@Util@@@Util@@@Util@@QBEAAV?$Array@V?$KeyValuePair@VString@Util@@PBVAttributeDefinitionBase@Attr@@@Util@@@1@H@Z 0044b3d0 f i db_win32.release:sqlite3database.obj
 0001:0004a420       ?Size@?$FixedArray@V?$Array@V?$KeyValuePair@VString@Util@@PBVAttributeDefinitionBase@Attr@@@Util@@@Util@@@Util@@QBEHXZ 0044b420 f i db_win32.release:sqlite3database.obj
 0001:0004a430       ??A?$Array@V?$KeyValuePair@VString@Util@@PBVAttributeDefinitionBase@Attr@@@Util@@@Util@@QBEAAV?$KeyValuePair@VString@Util@@PBVAttributeDefinitionBase@Attr@@@1@H@Z 0044b430 f i db_win32.release:sqlite3database.obj
 0001:0004a480       ?Size@?$Array@V?$KeyValuePair@VString@Util@@PBVAttributeDefinitionBase@Attr@@@Util@@@Util@@QBEHXZ 0044b480 f i db_win32.release:sqlite3database.obj
 0001:0004a4a0       ?BinarySearchIndex@?$Array@V?$KeyValuePair@VString@Util@@PBVAttributeDefinitionBase@Attr@@@Util@@@Util@@QBEHABV?$KeyValuePair@VString@Util@@PBVAttributeDefinitionBase@Attr@@@2@@Z 0044b4a0 f i db_win32.release:sqlite3database.obj
 0001:0004a5d0       ??0?$KeyValuePair@VString@Util@@PBVAttributeDefinitionBase@Attr@@@Util@@QAE@ABVString@1@@Z 0044b5d0 f i db_win32.release:sqlite3database.obj
 0001:0004a630       ?Value@?$KeyValuePair@VString@Util@@PBVAttributeDefinitionBase@Attr@@@Util@@QAEAAPBVAttributeDefinitionBase@Attr@@XZ 0044b630 f i db_win32.release:sqlite3database.obj
 0001:0004a650       ??9?$KeyValuePair@VString@Util@@PBVAttributeDefinitionBase@Attr@@@Util@@QBE_NABV01@@Z 0044b650 f i db_win32.release:sqlite3database.obj
 0001:0004a670       ??O?$KeyValuePair@VString@Util@@PBVAttributeDefinitionBase@Attr@@@Util@@QBE_NABV01@@Z 0044b670 f i db_win32.release:sqlite3database.obj
 0001:0004a690       ??M?$KeyValuePair@VString@Util@@PBVAttributeDefinitionBase@Attr@@@Util@@QBE_NABV01@@Z 0044b690 f i db_win32.release:sqlite3database.obj
 0001:0004a6b0       ?storeu@float4@Math@@QBEXPAM@Z 0044b6b0 f i db_win32.release:sqlite3command.obj
 0001:0004a6e0       ?set@float4@Math@@QAEXMMMM@Z 0044b6e0 f i db_win32.release:sqlite3command.obj
 0001:0004a730       ?x@float4@Math@@QAEAAMXZ   0044b730 f i db_win32.release:sqlite3command.obj
 0001:0004a740       ?y@float4@Math@@QAEAAMXZ   0044b740 f i db_win32.release:sqlite3command.obj
 0001:0004a760       ?z@float4@Math@@QAEAAMXZ   0044b760 f i db_win32.release:sqlite3command.obj
 0001:0004a780       ?w@float4@Math@@QAEAAMXZ   0044b780 f i db_win32.release:sqlite3command.obj
 0001:0004a7a0       ?storeu@matrix44@Math@@QBEXPAM@Z 0044b7a0 f i db_win32.release:sqlite3command.obj
 0001:0004a820       ?setrow0@matrix44@Math@@QAEXABVfloat4@2@@Z 0044b820 f i db_win32.release:sqlite3command.obj
 0001:0004a840       ?getrow0@matrix44@Math@@QBEABVfloat4@2@XZ 0044b840 f i db_win32.release:sqlite3command.obj
 0001:0004a850       ?setrow1@matrix44@Math@@QAEXABVfloat4@2@@Z 0044b850 f i db_win32.release:sqlite3command.obj
 0001:0004a880       ?getrow1@matrix44@Math@@QBEABVfloat4@2@XZ 0044b880 f i db_win32.release:sqlite3command.obj
 0001:0004a8a0       ?setrow2@matrix44@Math@@QAEXABVfloat4@2@@Z 0044b8a0 f i db_win32.release:sqlite3command.obj
 0001:0004a8d0       ?getrow2@matrix44@Math@@QBEABVfloat4@2@XZ 0044b8d0 f i db_win32.release:sqlite3command.obj
 0001:0004a8f0       ?setrow3@matrix44@Math@@QAEXABVfloat4@2@@Z 0044b8f0 f i db_win32.release:sqlite3command.obj
 0001:0004a920       ?getrow3@matrix44@Math@@QBEABVfloat4@2@XZ 0044b920 f i db_win32.release:sqlite3command.obj
 0001:0004a940       ?IsA@RefCounted@Core@@QBE_NABVRtti@2@@Z 0044b940 f i db_win32.release:sqlite3command.obj
 0001:0004a970       ??0Win32Guid@Win32@@QAE@PBEH@Z 0044b970 f i db_win32.release:sqlite3command.obj
 0001:0004aa20       ??0Blob@Util@@QAE@PBXH@Z   0044ba20 f i db_win32.release:sqlite3command.obj
 0001:0004aa60       ?GetPtr@Blob@Util@@QBEPAXXZ 0044ba60 f i db_win32.release:sqlite3command.obj
 0001:0004aaa0       ?Size@Blob@Util@@QBEHXZ    0044baa0 f i db_win32.release:sqlite3command.obj
 0001:0004aae0       ??0AttrId@Attr@@QAE@ABVString@Util@@@Z 0044bae0 f i db_win32.release:sqlite3command.obj
 0001:0004ab40       ?SetModifiedTracking@AttributeTable@Attr@@QAEX_N@Z 0044bb40 f i db_win32.release:sqlite3command.obj
 0001:0004ab60       ?GetColumnIndex@AttributeTable@Attr@@QBEHABVAttrId@2@@Z 0044bb60 f i db_win32.release:sqlite3command.obj
 0001:0004ab80       ?SetFloat4@AttributeTable@Attr@@QAEXHHABVfloat4@Math@@@Z 0044bb80 f i db_win32.release:sqlite3command.obj
 0001:0004ac50       ?SetMatrix44@AttributeTable@Attr@@QAEXHHABVmatrix44@Math@@@Z 0044bc50 f i db_win32.release:sqlite3command.obj
 0001:0004ad70       ?SetBlob@AttributeTable@Attr@@QAEXHHABVBlob@Util@@@Z 0044bd70 f i db_win32.release:sqlite3command.obj
 0001:0004ae20       ?SetError@Command@Db@@IAEXABVString@Util@@@Z 0044be20 f i db_win32.release:sqlite3command.obj
 0001:0004ae70       ??2Sqlite3Command@Db@@SAPAXI@Z 0044be70 f i db_win32.release:sqlite3command.obj
 0001:0004ae80       ??3Sqlite3Command@Db@@SAXPAX@Z 0044be80 f i db_win32.release:sqlite3command.obj
 0001:0004aea0       ?GetSqliteHandle@Sqlite3Database@Db@@QBEPAUsqlite3@@XZ 0044bea0 f i db_win32.release:sqlite3command.obj
 0001:0004aee0       ??0ByteOrder@System@@QAE@W4Type@01@0@Z 0044bee0 f i db_win32.release:sqlite3command.obj
 0001:0004af10       ??$ConvertInPlace@M@ByteOrder@System@@QBEXAAM@Z 0044bf10 f i db_win32.release:sqlite3command.obj
 0001:0004af50       ??$ConvertInPlace@Vfloat4@Math@@@ByteOrder@System@@QBEXAAVfloat4@Math@@@Z 0044bf50 f i db_win32.release:sqlite3command.obj
 0001:0004b020       ??$ConvertInPlace@Vmatrix44@Math@@@ByteOrder@System@@QBEXAAVmatrix44@Math@@@Z 0044c020 f i db_win32.release:sqlite3command.obj
 0001:0004b540       ?GetRtti@Sqlite3Command@Db@@UBEPAVRtti@Core@@XZ 0044c540 f   db_win32.release:sqlite3command.obj
 0001:0004b550       ?FactoryCreator@Sqlite3Command@Db@@SAPAVRefCounted@Core@@XZ 0044c550 f   db_win32.release:sqlite3command.obj
 0001:0004b560       ?Create@Sqlite3Command@Db@@SAPAV12@XZ 0044c560 f   db_win32.release:sqlite3command.obj
 0001:0004b5a0       ?RegisterWithFactory@Sqlite3Command@Db@@SA_NXZ 0044c5a0 f   db_win32.release:sqlite3command.obj
 0001:0004b6a0       ??0Sqlite3Command@Db@@QAE@XZ 0044c6a0 f   db_win32.release:sqlite3command.obj
 0001:0004b6e0       ??_GSqlite3Command@Db@@UAEPAXI@Z 0044c6e0 f i db_win32.release:sqlite3command.obj
 0001:0004b6e0       ??_ESqlite3Command@Db@@UAEPAXI@Z 0044c6e0 f i  CIL library: CIL module
 0001:0004b710       ??1Sqlite3Command@Db@@UAE@XZ 0044c710 f   db_win32.release:sqlite3command.obj
 0001:0004b740       ?Clear@Sqlite3Command@Db@@UAEXXZ 0044c740 f   db_win32.release:sqlite3command.obj
 0001:0004b790       ?SetSqliteError@Sqlite3Command@Db@@AAEXXZ 0044c790 f   db_win32.release:sqlite3command.obj
 0001:0004b8d0       ?Compile@Sqlite3Command@Db@@UAE_NABV?$Ptr@VDatabase@Db@@@@ABVString@Util@@PAVValueTable@2@@Z 0044c8d0 f   db_win32.release:sqlite3command.obj
 0001:0004bdd0       ?IsValid@Sqlite3Command@Db@@UBE_NXZ 0044cdd0 f   db_win32.release:sqlite3command.obj
 0001:0004be00       ?Execute@Sqlite3Command@Db@@UAE_NXZ 0044ce00 f   db_win32.release:sqlite3command.obj
 0001:0004bf70       ?ReadRow@Sqlite3Command@Db@@AAEXXZ 0044cf70 f   db_win32.release:sqlite3command.obj
 0001:0004cfc0       ?IndexOf@Sqlite3Command@Db@@UBEHABVString@Util@@@Z 0044dfc0 f   db_win32.release:sqlite3command.obj
 0001:0004d0b0       ?IndexOf@Sqlite3Command@Db@@UBEHABVAttrId@Attr@@@Z 0044e0b0 f   db_win32.release:sqlite3command.obj
 0001:0004d1d0       ?BindInt@Sqlite3Command@Db@@UAEXHH@Z 0044e1d0 f   db_win32.release:sqlite3command.obj
 0001:0004d240       ?BindFloat@Sqlite3Command@Db@@UAEXHM@Z 0044e240 f   db_win32.release:sqlite3command.obj
 0001:0004d2b0       ?BindBool@Sqlite3Command@Db@@UAEXH_N@Z 0044e2b0 f   db_win32.release:sqlite3command.obj
 0001:0004d330       ?BindFloat4@Sqlite3Command@Db@@UAEXHABVfloat4@Math@@@Z 0044e330 f   db_win32.release:sqlite3command.obj
 0001:0004d4a0       ?BindMatrix44@Sqlite3Command@Db@@UAEXHABVmatrix44@Math@@@Z 0044e4a0 f   db_win32.release:sqlite3command.obj
 0001:0004da20       ?BindString@Sqlite3Command@Db@@UAEXHABVString@Util@@@Z 0044ea20 f   db_win32.release:sqlite3command.obj
 0001:0004dab0       ?BindBlob@Sqlite3Command@Db@@UAEXHABVBlob@Util@@@Z 0044eab0 f   db_win32.release:sqlite3command.obj
 0001:0004dba0       ?BindGuid@Sqlite3Command@Db@@UAEXHABVWin32Guid@Win32@@@Z 0044eba0 f   db_win32.release:sqlite3command.obj
 0001:0004dc30       ?BindInt@Sqlite3Command@Db@@UAEXABVString@Util@@H@Z 0044ec30 f   db_win32.release:sqlite3command.obj
 0001:0004dc60       ?BindFloat@Sqlite3Command@Db@@UAEXABVString@Util@@M@Z 0044ec60 f   db_win32.release:sqlite3command.obj
 0001:0004dc90       ?BindBool@Sqlite3Command@Db@@UAEXABVString@Util@@_N@Z 0044ec90 f   db_win32.release:sqlite3command.obj
 0001:0004dcc0       ?BindFloat4@Sqlite3Command@Db@@UAEXABVString@Util@@ABVfloat4@Math@@@Z 0044ecc0 f   db_win32.release:sqlite3command.obj
 0001:0004dcf0       ?BindMatrix44@Sqlite3Command@Db@@UAEXABVString@Util@@ABVmatrix44@Math@@@Z 0044ecf0 f   db_win32.release:sqlite3command.obj
 0001:0004dd20       ?BindString@Sqlite3Command@Db@@UAEXABVString@Util@@0@Z 0044ed20 f   db_win32.release:sqlite3command.obj
 0001:0004dd50       ?BindBlob@Sqlite3Command@Db@@UAEXABVString@Util@@ABVBlob@4@@Z 0044ed50 f   db_win32.release:sqlite3command.obj
 0001:0004dd80       ?BindGuid@Sqlite3Command@Db@@UAEXABVString@Util@@ABVWin32Guid@Win32@@@Z 0044ed80 f   db_win32.release:sqlite3command.obj
 0001:0004ddb0       ?BindInt@Sqlite3Command@Db@@UAEXABVAttrId@Attr@@H@Z 0044edb0 f   db_win32.release:sqlite3command.obj
 0001:0004dde0       ?BindFloat@Sqlite3Command@Db@@UAEXABVAttrId@Attr@@M@Z 0044ede0 f   db_win32.release:sqlite3command.obj
 0001:0004de10       ?BindBool@Sqlite3Command@Db@@UAEXABVAttrId@Attr@@_N@Z 0044ee10 f   db_win32.release:sqlite3command.obj
 0001:0004de40       ?BindFloat4@Sqlite3Command@Db@@UAEXABVAttrId@Attr@@ABVfloat4@Math@@@Z 0044ee40 f   db_win32.release:sqlite3command.obj
 0001:0004de70       ?BindMatrix44@Sqlite3Command@Db@@UAEXABVAttrId@Attr@@ABVmatrix44@Math@@@Z 0044ee70 f   db_win32.release:sqlite3command.obj
 0001:0004dea0       ?BindString@Sqlite3Command@Db@@UAEXABVAttrId@Attr@@ABVString@Util@@@Z 0044eea0 f   db_win32.release:sqlite3command.obj
 0001:0004ded0       ?BindBlob@Sqlite3Command@Db@@UAEXABVAttrId@Attr@@ABVBlob@Util@@@Z 0044eed0 f   db_win32.release:sqlite3command.obj
 0001:0004df00       ?BindGuid@Sqlite3Command@Db@@UAEXABVAttrId@Attr@@ABVWin32Guid@Win32@@@Z 0044ef00 f   db_win32.release:sqlite3command.obj
 0001:0004df30       ??0?$Array@H@Util@@QAE@XZ  0044ef30 f i db_win32.release:sqlite3command.obj
 0001:0004df70       ?Append@?$Array@H@Util@@QAEXABH@Z 0044ef70 f i db_win32.release:sqlite3command.obj
 0001:0004dfe0       ?Size@?$Array@H@Util@@QBEHXZ 0044efe0 f i db_win32.release:sqlite3command.obj
 0001:0004e000       ?Clear@?$Array@H@Util@@QAEXXZ 0044f000 f i db_win32.release:sqlite3command.obj
 0001:0004e050       ??0?$Ptr@VSqlite3Database@Db@@@@QAE@ABV0@@Z 0044f050 f i db_win32.release:sqlite3command.obj
 0001:0004e090       ??1?$Ptr@VSqlite3Database@Db@@@@QAE@XZ 0044f090 f i db_win32.release:sqlite3command.obj
 0001:0004e0c0       ??C?$Ptr@VSqlite3Database@Db@@@@QBEPAVSqlite3Database@Db@@XZ 0044f0c0 f i db_win32.release:sqlite3command.obj
 0001:0004e100       ??$downcast@VSqlite3Database@Db@@@?$Ptr@VDatabase@Db@@@@QBEABV?$Ptr@VSqlite3Database@Db@@@@XZ 0044f100 f i db_win32.release:sqlite3command.obj
 0001:0004e110       ?Destroy@?$Array@H@Util@@AAEXPAH@Z 0044f110 f i db_win32.release:sqlite3command.obj
 0001:0004e120       ?Grow@?$Array@H@Util@@AAEXXZ 0044f120 f i db_win32.release:sqlite3command.obj
 0001:0004e1a0       ?GrowTo@?$Array@H@Util@@AAEXH@Z 0044f1a0 f i db_win32.release:sqlite3command.obj
 0001:0004e250       ?XMStoreFloat4@@YAXPAU_XMFLOAT4@@T__m128@@@Z 0044f250 f i db_win32.release:sqlite3command.obj
 0001:0004e270       ?SetAttrId@Column@Db@@QAEXABVAttrId@Attr@@@Z 0044f270 f i db_win32.release:sqlite3table.obj
 0001:0004e290       ?GetValueType@Column@Db@@QBE?AW4ValueType@Attr@@XZ 0044f290 f i db_win32.release:sqlite3table.obj
 0001:0004e2e0       ?SetType@Column@Db@@QAEXW4Type@12@@Z 0044f2e0 f i db_win32.release:sqlite3table.obj
 0001:0004e300       ?SetCommitted@Column@Db@@QAEX_N@Z 0044f300 f i db_win32.release:sqlite3table.obj
 0001:0004e320       ?HasNewRows@AttributeTable@Attr@@QBE_NXZ 0044f320 f i db_win32.release:sqlite3table.obj
 0001:0004e340       ?HasDeletedRows@AttributeTable@Attr@@QBE_NXZ 0044f340 f i db_win32.release:sqlite3table.obj
 0001:0004e360       ?HasModifiedRows@AttributeTable@Attr@@QBE_NXZ 0044f360 f i db_win32.release:sqlite3table.obj
 0001:0004e380       ?IsModified@AttributeTable@Attr@@QBE_NXZ 0044f380 f i db_win32.release:sqlite3table.obj
 0001:0004e3a0       ?GetNewRowIndices@AttributeTable@Attr@@QBEABV?$Array@H@Util@@XZ 0044f3a0 f i db_win32.release:sqlite3table.obj
 0001:0004e3c0       ?GetDeletedRowIndices@AttributeTable@Attr@@QBEABV?$Array@H@Util@@XZ 0044f3c0 f i db_win32.release:sqlite3table.obj
 0001:0004e3e0       ?GetColumnName@AttributeTable@Attr@@QBEABVString@Util@@H@Z 0044f3e0 f i db_win32.release:sqlite3table.obj
 0001:0004e440       ?HasPrimaryColumn@Table@Db@@QBE_NXZ 0044f440 f i db_win32.release:sqlite3table.obj
 0001:0004e460       ?GetPrimaryColumn@Table@Db@@QBEABVColumn@2@XZ 0044f460 f i db_win32.release:sqlite3table.obj
 0001:0004e4a0       ?GetColumn@Table@Db@@QBEABVColumn@2@ABVAttrId@Attr@@@Z 0044f4a0 f i db_win32.release:sqlite3table.obj
 0001:0004e500       ??2Sqlite3Table@Db@@SAPAXI@Z 0044f500 f i db_win32.release:sqlite3table.obj
 0001:0004e510       ??3Sqlite3Table@Db@@SAXPAX@Z 0044f510 f i db_win32.release:sqlite3table.obj
 0001:0004e530       ?GetSqlCommand@Command@Db@@QBEABVString@Util@@XZ 0044f530 f i db_win32.release:sqlite3table.obj
 0001:0004e550       ?GetRtti@Sqlite3Table@Db@@UBEPAVRtti@Core@@XZ 0044f550 f   db_win32.release:sqlite3table.obj
 0001:0004e560       ?FactoryCreator@Sqlite3Table@Db@@SAPAVRefCounted@Core@@XZ 0044f560 f   db_win32.release:sqlite3table.obj
 0001:0004e570       ?Create@Sqlite3Table@Db@@SAPAV12@XZ 0044f570 f   db_win32.release:sqlite3table.obj
 0001:0004e5b0       ?RegisterWithFactory@Sqlite3Table@Db@@SA_NXZ 0044f5b0 f   db_win32.release:sqlite3table.obj
 0001:0004e6b0       ??0Sqlite3Table@Db@@QAE@XZ 0044f6b0 f   db_win32.release:sqlite3table.obj
 0001:0004e700       ??_ESqlite3Table@Db@@UAEPAXI@Z 0044f700 f i  CIL library: CIL module
 0001:0004e700       ??_GSqlite3Table@Db@@UAEPAXI@Z 0044f700 f i db_win32.release:sqlite3table.obj
 0001:0004e730       ??1Sqlite3Table@Db@@UAE@XZ 0044f730 f   db_win32.release:sqlite3table.obj
 0001:0004e790       ?SetName@Sqlite3Table@Db@@UAEXABVString@Util@@@Z 0044f790 f   db_win32.release:sqlite3table.obj
 0001:0004e8b0       ?TableExists@Sqlite3Table@Db@@AAE_NXZ 0044f8b0 f   db_win32.release:sqlite3table.obj
 0001:0004ea50       ?DropTable@Sqlite3Table@Db@@AAEXXZ 0044fa50 f   db_win32.release:sqlite3table.obj
 0001:0004eb80       ?BuildColumnDef@Sqlite3Table@Db@@AAE?AVString@Util@@ABVColumn@2@@Z 0044fb80 f   db_win32.release:sqlite3table.obj
 0001:0004ede0       ?CreateTable@Sqlite3Table@Db@@AAEXXZ 0044fde0 f   db_win32.release:sqlite3table.obj
 0001:0004f1f0       ?ReadTableLayout@Sqlite3Table@Db@@AAEX_N@Z 004501f0 f   db_win32.release:sqlite3table.obj
 0001:0004fa30       ?Connect@Sqlite3Table@Db@@UAEXABV?$Ptr@VDatabase@Db@@@@W4ConnectMode@Table@2@_N@Z 00450a30 f   db_win32.release:sqlite3table.obj
 0001:0004fc40       ?Disconnect@Sqlite3Table@Db@@UAEX_N@Z 00450c40 f   db_win32.release:sqlite3table.obj
 0001:0004fca0       ?BindValueTable@Sqlite3Table@Db@@UAEXABV?$Ptr@VValueTable@Db@@@@@Z 00450ca0 f   db_win32.release:sqlite3table.obj
 0001:0004fd30       ?UnbindValueTable@Sqlite3Table@Db@@UAEXXZ 00450d30 f   db_win32.release:sqlite3table.obj
 0001:0004fdb0       ?CommitChanges@Sqlite3Table@Db@@UAEX_N0@Z 00450db0 f   db_win32.release:sqlite3table.obj
 0001:000500a0       ?CommitUncommittedColumns@Sqlite3Table@Db@@UAEXXZ 004510a0 f   db_win32.release:sqlite3table.obj
 0001:00050470       ?CommitDeletedRows@Sqlite3Table@Db@@UAEXXZ 00451470 f   db_win32.release:sqlite3table.obj
 0001:000505b0       ?CompileInsertCommand@Sqlite3Table@Db@@AAEXXZ 004515b0 f   db_win32.release:sqlite3table.obj
 0001:00050a30       ?CompileUpdateCommand@Sqlite3Table@Db@@AAEXXZ 00451a30 f   db_win32.release:sqlite3table.obj
 0001:00051130       ?CompileDeleteCommand@Sqlite3Table@Db@@AAEXXZ 00452130 f   db_win32.release:sqlite3table.obj
 0001:00051430       ?BindValueToCommand@Sqlite3Table@Db@@AAEXABV?$Ptr@VCommand@Db@@@@HHH@Z 00452430 f   db_win32.release:sqlite3table.obj
 0001:000518c0       ?ExecuteInsertCommand@Sqlite3Table@Db@@AAEXXZ 004528c0 f   db_win32.release:sqlite3table.obj
 0001:00051ad0       ?ExecuteUpdateCommand@Sqlite3Table@Db@@AAEXXZ 00452ad0 f   db_win32.release:sqlite3table.obj
 0001:00051da0       ?ExecuteDeleteCommand@Sqlite3Table@Db@@AAEXXZ 00452da0 f   db_win32.release:sqlite3table.obj
 0001:00051ff0       ?CreateMultiColumnIndex@Sqlite3Table@Db@@UAEXABV?$Array@VAttrId@Attr@@@Util@@@Z 00452ff0 f   db_win32.release:sqlite3table.obj
 0001:00052350       ?isvalid@?$Ptr@VCommand@Db@@@@QBE_NXZ 00453350 f i db_win32.release:sqlite3table.obj
 0001:00052370       ??A?$Array@VAttrId@Attr@@@Util@@QBEAAVAttrId@Attr@@H@Z 00453370 f i db_win32.release:sqlite3table.obj
 0001:000523c0       ?Size@?$Array@VAttrId@Attr@@@Util@@QBEHXZ 004533c0 f i db_win32.release:sqlite3table.obj
 0001:000523e0       ?ClearDirtyFlag@FilterSet@Db@@QAEXXZ 004533e0 f i db_win32.release:sqlite3dataset.obj
 0001:00052400       ?IsDirty@FilterSet@Db@@QBE_NXZ 00453400 f i db_win32.release:sqlite3dataset.obj
 0001:00052420       ?IsEmpty@FilterSet@Db@@QBE_NXZ 00453420 f i db_win32.release:sqlite3dataset.obj
 0001:00052450       ?GetNewColumnIndices@AttributeTable@Attr@@QBEABV?$Array@H@Util@@XZ 00453450 f i db_win32.release:sqlite3dataset.obj
 0001:00052470       ?GetDatabase@Table@Db@@QBEABV?$Ptr@VDatabase@Db@@@@XZ 00453470 f i db_win32.release:sqlite3dataset.obj
 0001:00052490       ??2Sqlite3Dataset@Db@@SAPAXI@Z 00453490 f i db_win32.release:sqlite3dataset.obj
 0001:000524a0       ??3Sqlite3Dataset@Db@@SAXPAX@Z 004534a0 f i db_win32.release:sqlite3dataset.obj
 0001:000524c0       ?GetRtti@Sqlite3Dataset@Db@@UBEPAVRtti@Core@@XZ 004534c0 f   db_win32.release:sqlite3dataset.obj
 0001:000524d0       ?FactoryCreator@Sqlite3Dataset@Db@@SAPAVRefCounted@Core@@XZ 004534d0 f   db_win32.release:sqlite3dataset.obj
 0001:000524e0       ?Create@Sqlite3Dataset@Db@@SAPAV12@XZ 004534e0 f   db_win32.release:sqlite3dataset.obj
 0001:00052520       ?RegisterWithFactory@Sqlite3Dataset@Db@@SA_NXZ 00453520 f   db_win32.release:sqlite3dataset.obj
 0001:00052620       ??0Sqlite3Dataset@Db@@QAE@XZ 00453620 f   db_win32.release:sqlite3dataset.obj
 0001:00052650       ??_GSqlite3Dataset@Db@@UAEPAXI@Z 00453650 f i db_win32.release:sqlite3dataset.obj
 0001:00052650       ??_ESqlite3Dataset@Db@@UAEPAXI@Z 00453650 f i  CIL library: CIL module
 0001:00052680       ??1Sqlite3Dataset@Db@@UAE@XZ 00453680 f   db_win32.release:sqlite3dataset.obj
 0001:000526d0       ?Connect@Sqlite3Dataset@Db@@EAE_NXZ 004536d0 f   db_win32.release:sqlite3dataset.obj
 0001:000527d0       ?Disconnect@Sqlite3Dataset@Db@@EAEXXZ 004537d0 f   db_win32.release:sqlite3dataset.obj
 0001:000527f0       ?PerformQuery@Sqlite3Dataset@Db@@UAEX_N@Z 004537f0 f   db_win32.release:sqlite3dataset.obj
 0001:00052f20       ?CommitChanges@Sqlite3Dataset@Db@@UAEX_N@Z 00453f20 f   db_win32.release:sqlite3dataset.obj
 0001:00052fa0       ?CommitDeletedRows@Sqlite3Dataset@Db@@UAEXXZ 00453fa0 f   db_win32.release:sqlite3dataset.obj
 0001:00053010       ?GetSqlSelectColumns@Sqlite3Dataset@Db@@ABE?AVString@Util@@XZ 00454010 f   db_win32.release:sqlite3dataset.obj
 0001:00053240       ?Size@Node@?$SimpleTree@VToken@FilterSet@Db@@@Util@@QBEHXZ 00454240 f i db_win32.release:sqlite3dataset.obj
 0001:00053260       ?Root@?$SimpleTree@VToken@FilterSet@Db@@@Util@@QBEABVNode@12@XZ 00454260 f i db_win32.release:sqlite3dataset.obj
 0001:00053270       ?isvalid@?$Ptr@VFilterSet@Db@@@@QBE_NXZ 00454270 f i db_win32.release:sqlite3dataset.obj
 0001:00053290       ?Size@?$Array@V?$Ptr@VNode@?$SimpleTree@VToken@FilterSet@Db@@@Util@@@@@Util@@QBEHXZ 00454290 f i db_win32.release:sqlite3dataset.obj
 0001:000532b0       ?GetInt@Variant@Util@@QBEHXZ 004542b0 f i db_win32.release:sqlite3filterset.obj
 0001:000532e0       ?GetFloat@Variant@Util@@QBEMXZ 004542e0 f i db_win32.release:sqlite3filterset.obj
 0001:00053310       ?GetBool@Variant@Util@@QBE_NXZ 00454310 f i db_win32.release:sqlite3filterset.obj
 0001:00053340       ?GetString@Variant@Util@@QBEABVString@2@XZ 00454340 f i db_win32.release:sqlite3filterset.obj
 0001:00053370       ?GetFloat4@Variant@Util@@QBE?AVfloat4@Math@@XZ 00454370 f i db_win32.release:sqlite3filterset.obj
 0001:00053420       ?GetMatrix44@Variant@Util@@QBEABVmatrix44@Math@@XZ 00454420 f i db_win32.release:sqlite3filterset.obj
 0001:00053450       ?GetGuid@Variant@Util@@QBEABVWin32Guid@Win32@@XZ 00454450 f i db_win32.release:sqlite3filterset.obj
 0001:00053480       ?GetBlob@Variant@Util@@QBEABVBlob@2@XZ 00454480 f i db_win32.release:sqlite3filterset.obj
 0001:000534b0       ?GetName@Attribute@Attr@@QBEABVString@Util@@XZ 004544b0 f i db_win32.release:sqlite3filterset.obj
 0001:000534f0       ?GetValueType@Attribute@Attr@@QBE?AW4ValueType@2@XZ 004544f0 f i db_win32.release:sqlite3filterset.obj
 0001:00053540       ?GetBool@Attribute@Attr@@QBE_NXZ 00454540 f i db_win32.release:sqlite3filterset.obj
 0001:000535e0       ?GetInt@Attribute@Attr@@QBEHXZ 004545e0 f i db_win32.release:sqlite3filterset.obj
 0001:00053680       ?GetFloat@Attribute@Attr@@QBEMXZ 00454680 f i db_win32.release:sqlite3filterset.obj
 0001:00053720       ?GetString@Attribute@Attr@@QBEABVString@Util@@XZ 00454720 f i db_win32.release:sqlite3filterset.obj
 0001:000537c0       ?GetMatrix44@Attribute@Attr@@QBEABVmatrix44@Math@@XZ 004547c0 f i db_win32.release:sqlite3filterset.obj
 0001:00053860       ?GetFloat4@Attribute@Attr@@QBE?AVfloat4@Math@@XZ 00454860 f i db_win32.release:sqlite3filterset.obj
 0001:000538e0       ?GetGuid@Attribute@Attr@@QBEABVWin32Guid@Win32@@XZ 004548e0 f i db_win32.release:sqlite3filterset.obj
 0001:00053980       ?GetBlob@Attribute@Attr@@QBEABVBlob@Util@@XZ 00454980 f i db_win32.release:sqlite3filterset.obj
 0001:00053a20       ?GetAttr@Token@FilterSet@Db@@QBEABVAttribute@Attr@@XZ 00454a20 f i db_win32.release:sqlite3filterset.obj
 0001:00053a40       ??2Sqlite3FilterSet@Db@@SAPAXI@Z 00454a40 f i db_win32.release:sqlite3filterset.obj
 0001:00053a50       ??3Sqlite3FilterSet@Db@@SAXPAX@Z 00454a50 f i db_win32.release:sqlite3filterset.obj
 0001:00053a70       ?GetRtti@Sqlite3FilterSet@Db@@UBEPAVRtti@Core@@XZ 00454a70 f   db_win32.release:sqlite3filterset.obj
 0001:00053a80       ?FactoryCreator@Sqlite3FilterSet@Db@@SAPAVRefCounted@Core@@XZ 00454a80 f   db_win32.release:sqlite3filterset.obj
 0001:00053a90       ?Create@Sqlite3FilterSet@Db@@SAPAV12@XZ 00454a90 f   db_win32.release:sqlite3filterset.obj
 0001:00053ad0       ??0Sqlite3FilterSet@Db@@QAE@XZ 00454ad0 f i db_win32.release:sqlite3filterset.obj
 0001:00053af0       ??_GSqlite3FilterSet@Db@@UAEPAXI@Z 00454af0 f i db_win32.release:sqlite3filterset.obj
 0001:00053af0       ??_ESqlite3FilterSet@Db@@UAEPAXI@Z 00454af0 f i  CIL library: CIL module
 0001:00053b20       ??1Sqlite3FilterSet@Db@@UAE@XZ 00454b20 f i db_win32.release:sqlite3filterset.obj
 0001:00053b40       ?RegisterWithFactory@Sqlite3FilterSet@Db@@SA_NXZ 00454b40 f   db_win32.release:sqlite3filterset.obj
 0001:00053c40       ?AsSqlWhere@Sqlite3FilterSet@Db@@UBE?AVString@Util@@XZ 00454c40 f   db_win32.release:sqlite3filterset.obj
 0001:00053cf0       ?RecurseBuildWhere@Sqlite3FilterSet@Db@@ABEXPBVNode@?$SimpleTree@VToken@FilterSet@Db@@@Util@@AAVString@5@@Z 00454cf0 f   db_win32.release:sqlite3filterset.obj
 0001:000540d0       ?BindValuesToCommand@Sqlite3FilterSet@Db@@UAEXABV?$Ptr@VCommand@Db@@@@H@Z 004550d0 f   db_win32.release:sqlite3filterset.obj
 0001:00054370       ?Child@Node@?$SimpleTree@VToken@FilterSet@Db@@@Util@@QBEABV123@H@Z 00455370 f i db_win32.release:sqlite3filterset.obj
 0001:000543a0       ?Value@Node@?$SimpleTree@VToken@FilterSet@Db@@@Util@@QBEABVToken@FilterSet@Db@@XZ 004553a0 f i db_win32.release:sqlite3filterset.obj
 0001:000543c0       ??B?$Ptr@VCommand@Db@@@@QBEPAVCommand@Db@@XZ 004553c0 f i db_win32.release:sqlite3filterset.obj
 0001:00054400       ??A?$Array@V?$Ptr@VNode@?$SimpleTree@VToken@FilterSet@Db@@@Util@@@@@Util@@QBEAAV?$Ptr@VNode@?$SimpleTree@VToken@FilterSet@Db@@@Util@@@@H@Z 00455400 f i db_win32.release:sqlite3filterset.obj
 0001:00054450       ?SetSqlCommand@Command@Db@@IAEXABVString@Util@@@Z 00455450 f i db_win32.release:command.obj
 0001:000544d0       ??0Command@Db@@QAE@XZ      004554d0 f   db_win32.release:command.obj
 0001:00054570       ??_ECommand@Db@@UAEPAXI@Z  00455570 f i  CIL library: CIL module
 0001:00054570       ??_GCommand@Db@@UAEPAXI@Z  00455570 f i db_win32.release:command.obj
 0001:000545a0       ??1Command@Db@@UAE@XZ      004555a0 f   db_win32.release:command.obj
 0001:00054660       ?Compile@Command@Db@@UAE_NABV?$Ptr@VDatabase@Db@@@@ABVString@Util@@PAVValueTable@2@@Z 00455660 f   db_win32.release:command.obj
 0001:000546c0       ?CompileAndExecute@Command@Db@@QAE_NABV?$Ptr@VDatabase@Db@@@@ABVString@Util@@PAVValueTable@2@@Z 004556c0 f   db_win32.release:command.obj
 0001:00054700       _sqlite3_libversion        00455700 f   sqlite_win32.release:sqlite_main.obj
 0001:00054710       _sqlite3_libversion_number 00455710 f   sqlite_win32.release:sqlite_main.obj
 0001:000547e0       _sqlite3_last_insert_rowid 004557e0 f   sqlite_win32.release:sqlite_main.obj
 0001:000547f0       _sqlite3_changes           004557f0 f   sqlite_win32.release:sqlite_main.obj
 0001:00054800       _sqlite3_total_changes     00455800 f   sqlite_win32.release:sqlite_main.obj
 0001:00054810       _sqlite3_close             00455810 f   sqlite_win32.release:sqlite_main.obj
 0001:00054a70       _sqlite3RollbackAll        00455a70 f   sqlite_win32.release:sqlite_main.obj
 0001:00054b60       _sqlite3ErrStr             00455b60 f   sqlite_win32.release:sqlite_main.obj
 0001:00054da0       _sqlite3InvokeBusyHandler  00455da0 f   sqlite_win32.release:sqlite_main.obj
 0001:00054e10       _sqlite3_busy_handler      00455e10 f   sqlite_win32.release:sqlite_main.obj
 0001:00054e60       _sqlite3_progress_handler  00455e60 f   sqlite_win32.release:sqlite_main.obj
 0001:00054ed0       _sqlite3_busy_timeout      00455ed0 f   sqlite_win32.release:sqlite_main.obj
 0001:00054f30       _sqlite3_interrupt         00455f30 f   sqlite_win32.release:sqlite_main.obj
 0001:00054f60       _sqlite3_free              00455f60 f   sqlite_win32.release:sqlite_main.obj
 0001:00054f80       _sqlite3_malloc            00455f80 f   sqlite_win32.release:sqlite_main.obj
 0001:00054fb0       _sqlite3_realloc           00455fb0 f   sqlite_win32.release:sqlite_main.obj
 0001:00055000       _sqlite3CreateFunc         00456000 f   sqlite_win32.release:sqlite_main.obj
 0001:00055230       _sqlite3_create_function   00456230 f   sqlite_win32.release:sqlite_main.obj
 0001:00055280       _sqlite3_create_function16 00456280 f   sqlite_win32.release:sqlite_main.obj
 0001:000552f0       _sqlite3_overload_function 004562f0 f   sqlite_win32.release:sqlite_main.obj
 0001:00055380       _sqlite3_trace             00456380 f   sqlite_win32.release:sqlite_main.obj
 0001:000553b0       _sqlite3_profile           004563b0 f   sqlite_win32.release:sqlite_main.obj
 0001:000553e0       _sqlite3_commit_hook       004563e0 f   sqlite_win32.release:sqlite_main.obj
 0001:00055410       _sqlite3_update_hook       00456410 f   sqlite_win32.release:sqlite_main.obj
 0001:00055440       _sqlite3_rollback_hook     00456440 f   sqlite_win32.release:sqlite_main.obj
 0001:00055470       _sqlite3BtreeFactory       00456470 f   sqlite_win32.release:sqlite_main.obj
 0001:00055510       _sqlite3_errmsg            00456510 f   sqlite_win32.release:sqlite_main.obj
 0001:00055590       _sqlite3_errmsg16          00456590 f   sqlite_win32.release:sqlite_main.obj
 0001:00055670       _sqlite3_errcode           00456670 f   sqlite_win32.release:sqlite_main.obj
 0001:00055af0       _sqlite3_open              00456af0 f   sqlite_win32.release:sqlite_main.obj
 0001:00055b10       _sqlite3_open16            00456b10 f   sqlite_win32.release:sqlite_main.obj
 0001:00055be0       _sqlite3_finalize          00456be0 f   sqlite_win32.release:sqlite_main.obj
 0001:00055c10       _sqlite3_reset             00456c10 f   sqlite_win32.release:sqlite_main.obj
 0001:00055c50       _sqlite3_create_collation  00456c50 f   sqlite_win32.release:sqlite_main.obj
 0001:00055c90       _sqlite3_create_collation16 00456c90 f   sqlite_win32.release:sqlite_main.obj
 0001:00055d00       _sqlite3_collation_needed  00456d00 f   sqlite_win32.release:sqlite_main.obj
 0001:00055d50       _sqlite3_collation_needed16 00456d50 f   sqlite_win32.release:sqlite_main.obj
 0001:00055da0       _sqlite3_global_recover    00456da0 f   sqlite_win32.release:sqlite_main.obj
 0001:00055db0       _sqlite3_get_autocommit    00456db0 f   sqlite_win32.release:sqlite_main.obj
 0001:00055dc0       _sqlite3_enable_shared_cache 00456dc0 f   sqlite_win32.release:sqlite_main.obj
 0001:00055e10       _sqlite3_thread_cleanup    00456e10 f   sqlite_win32.release:sqlite_main.obj
 0001:00055e50       _sqlite3_clear_bindings    00456e50 f   sqlite_win32.release:sqlite_main.obj
 0001:00055eb0       _sqlite3_sleep             00456eb0 f   sqlite_win32.release:sqlite_main.obj
 0001:00055ed0       _sqlite3_extended_result_codes 00456ed0 f   sqlite_win32.release:sqlite_main.obj
 0001:00055ef0       _sqlite3_exec              00456ef0 f   sqlite_win32.release:sqlite_legacy.obj
 0001:000562d0       _sqlite3InitCallback       004572d0 f   sqlite_win32.release:sqlite_prepare.obj
 0001:00056920       _sqlite3Init               00457920 f   sqlite_win32.release:sqlite_prepare.obj
 0001:00056a40       _sqlite3ReadSchema         00457a40 f   sqlite_win32.release:sqlite_prepare.obj
 0001:00056b70       _sqlite3SchemaToIndex      00457b70 f   sqlite_win32.release:sqlite_prepare.obj
 0001:00056bc0       _sqlite3Prepare            00457bc0 f   sqlite_win32.release:sqlite_prepare.obj
 0001:00056fa0       _sqlite3Reprepare          00457fa0 f   sqlite_win32.release:sqlite_prepare.obj
 0001:00057040       _sqlite3_prepare           00458040 f   sqlite_win32.release:sqlite_prepare.obj
 0001:00057070       _sqlite3_prepare_v2        00458070 f   sqlite_win32.release:sqlite_prepare.obj
 0001:00057170       _sqlite3_prepare16         00458170 f   sqlite_win32.release:sqlite_prepare.obj
 0001:000571a0       _sqlite3_prepare16_v2      004581a0 f   sqlite_win32.release:sqlite_prepare.obj
 0001:000571d0       _sqlite3_expired           004581d0 f   sqlite_win32.release:sqlite_vdbeapi.obj
 0001:00057210       _sqlite3_value_blob        00458210 f   sqlite_win32.release:sqlite_vdbeapi.obj
 0001:00057240       _sqlite3_value_bytes       00458240 f   sqlite_win32.release:sqlite_vdbeapi.obj
 0001:00057260       _sqlite3_value_bytes16     00458260 f   sqlite_win32.release:sqlite_vdbeapi.obj
 0001:00057280       _sqlite3_value_double      00458280 f   sqlite_win32.release:sqlite_vdbeapi.obj
 0001:000572a0       _sqlite3_value_int         004582a0 f   sqlite_win32.release:sqlite_vdbeapi.obj
 0001:000572c0       _sqlite3_value_int64       004582c0 f   sqlite_win32.release:sqlite_vdbeapi.obj
 0001:000572e0       _sqlite3_value_text        004582e0 f   sqlite_win32.release:sqlite_vdbeapi.obj
 0001:00057300       _sqlite3_value_text16      00458300 f   sqlite_win32.release:sqlite_vdbeapi.obj
 0001:00057320       _sqlite3_value_text16be    00458320 f   sqlite_win32.release:sqlite_vdbeapi.obj
 0001:00057340       _sqlite3_value_text16le    00458340 f   sqlite_win32.release:sqlite_vdbeapi.obj
 0001:00057360       _sqlite3_value_type        00458360 f   sqlite_win32.release:sqlite_vdbeapi.obj
 0001:00057370       _sqlite3_result_blob       00458370 f   sqlite_win32.release:sqlite_vdbeapi.obj
 0001:000573a0       _sqlite3_result_double     004583a0 f   sqlite_win32.release:sqlite_vdbeapi.obj
 0001:000573c0       _sqlite3_result_error      004583c0 f   sqlite_win32.release:sqlite_vdbeapi.obj
 0001:000573f0       _sqlite3_result_error16    004583f0 f   sqlite_win32.release:sqlite_vdbeapi.obj
 0001:00057430       _sqlite3_result_int        00458430 f   sqlite_win32.release:sqlite_vdbeapi.obj
 0001:00057450       _sqlite3_result_int64      00458450 f   sqlite_win32.release:sqlite_vdbeapi.obj
 0001:00057470       _sqlite3_result_null       00458470 f   sqlite_win32.release:sqlite_vdbeapi.obj
 0001:00057490       _sqlite3_result_text       00458490 f   sqlite_win32.release:sqlite_vdbeapi.obj
 0001:000574c0       _sqlite3_result_text16     004584c0 f   sqlite_win32.release:sqlite_vdbeapi.obj
 0001:000574f0       _sqlite3_result_text16be   004584f0 f   sqlite_win32.release:sqlite_vdbeapi.obj
 0001:00057520       _sqlite3_result_text16le   00458520 f   sqlite_win32.release:sqlite_vdbeapi.obj
 0001:00057550       _sqlite3_result_value      00458550 f   sqlite_win32.release:sqlite_vdbeapi.obj
 0001:00057860       _sqlite3_step              00458860 f   sqlite_win32.release:sqlite_vdbeapi.obj
 0001:000578d0       _sqlite3_user_data         004588d0 f   sqlite_win32.release:sqlite_vdbeapi.obj
 0001:000578e0       _sqlite3InvalidFunction    004588e0 f   sqlite_win32.release:sqlite_vdbeapi.obj
 0001:00057930       _sqlite3_aggregate_context 00458930 f   sqlite_win32.release:sqlite_vdbeapi.obj
 0001:000579d0       _sqlite3_get_auxdata       004589d0 f   sqlite_win32.release:sqlite_vdbeapi.obj
 0001:00057a10       _sqlite3_set_auxdata       00458a10 f   sqlite_win32.release:sqlite_vdbeapi.obj
 0001:00057b00       _sqlite3_aggregate_count   00458b00 f   sqlite_win32.release:sqlite_vdbeapi.obj
 0001:00057b10       _sqlite3_column_count      00458b10 f   sqlite_win32.release:sqlite_vdbeapi.obj
 0001:00057b40       _sqlite3_data_count        00458b40 f   sqlite_win32.release:sqlite_vdbeapi.obj
 0001:00057c00       _sqlite3_column_blob       00458c00 f   sqlite_win32.release:sqlite_vdbeapi.obj
 0001:00057c30       _sqlite3_column_bytes      00458c30 f   sqlite_win32.release:sqlite_vdbeapi.obj
 0001:00057c70       _sqlite3_column_bytes16    00458c70 f   sqlite_win32.release:sqlite_vdbeapi.obj
 0001:00057cb0       _sqlite3_column_double     00458cb0 f   sqlite_win32.release:sqlite_vdbeapi.obj
 0001:00057cf0       _sqlite3_column_int        00458cf0 f   sqlite_win32.release:sqlite_vdbeapi.obj
 0001:00057d30       _sqlite3_column_int64      00458d30 f   sqlite_win32.release:sqlite_vdbeapi.obj
 0001:00057d70       _sqlite3_column_text       00458d70 f   sqlite_win32.release:sqlite_vdbeapi.obj
 0001:00057db0       _sqlite3_column_value      00458db0 f   sqlite_win32.release:sqlite_vdbeapi.obj
 0001:00057dd0       _sqlite3_column_text16     00458dd0 f   sqlite_win32.release:sqlite_vdbeapi.obj
 0001:00057e10       _sqlite3_column_type       00458e10 f   sqlite_win32.release:sqlite_vdbeapi.obj
 0001:00057ea0       _sqlite3_column_name       00458ea0 f   sqlite_win32.release:sqlite_vdbeapi.obj
 0001:00057ec0       _sqlite3_column_name16     00458ec0 f   sqlite_win32.release:sqlite_vdbeapi.obj
 0001:00057ee0       _sqlite3_column_decltype   00458ee0 f   sqlite_win32.release:sqlite_vdbeapi.obj
 0001:00057f00       _sqlite3_column_decltype16 00458f00 f   sqlite_win32.release:sqlite_vdbeapi.obj
 0001:00058090       _sqlite3_bind_blob         00459090 f   sqlite_win32.release:sqlite_vdbeapi.obj
 0001:000580c0       _sqlite3_bind_double       004590c0 f   sqlite_win32.release:sqlite_vdbeapi.obj
 0001:00058110       _sqlite3_bind_int          00459110 f   sqlite_win32.release:sqlite_vdbeapi.obj
 0001:00058130       _sqlite3_bind_int64        00459130 f   sqlite_win32.release:sqlite_vdbeapi.obj
 0001:00058180       _sqlite3_bind_null         00459180 f   sqlite_win32.release:sqlite_vdbeapi.obj
 0001:000581a0       _sqlite3_bind_text         004591a0 f   sqlite_win32.release:sqlite_vdbeapi.obj
 0001:000581d0       _sqlite3_bind_text16       004591d0 f   sqlite_win32.release:sqlite_vdbeapi.obj
 0001:00058200       _sqlite3_bind_value        00459200 f   sqlite_win32.release:sqlite_vdbeapi.obj
 0001:00058250       _sqlite3_bind_parameter_count 00459250 f   sqlite_win32.release:sqlite_vdbeapi.obj
 0001:000582f0       _sqlite3_bind_parameter_name 004592f0 f   sqlite_win32.release:sqlite_vdbeapi.obj
 0001:00058340       _sqlite3_bind_parameter_index 00459340 f   sqlite_win32.release:sqlite_vdbeapi.obj
 0001:00058420       _sqlite3_transfer_bindings 00459420 f   sqlite_win32.release:sqlite_vdbeapi.obj
 0001:000584e0       _sqlite3_db_handle         004594e0 f   sqlite_win32.release:sqlite_vdbeapi.obj
 0001:000586f0       _sqlite3GetCollSeq         004596f0 f   sqlite_win32.release:sqlite_callback.obj
 0001:000587b0       _sqlite3CheckCollSeq       004597b0 f   sqlite_win32.release:sqlite_callback.obj
 0001:00058950       _sqlite3FindCollSeq        00459950 f   sqlite_win32.release:sqlite_callback.obj
 0001:000589a0       _sqlite3FindFunction       004599a0 f   sqlite_win32.release:sqlite_callback.obj
 0001:00058b70       _sqlite3SchemaFree         00459b70 f   sqlite_win32.release:sqlite_callback.obj
 0001:00058c80       _sqlite3SchemaGet          00459c80 f   sqlite_win32.release:sqlite_callback.obj
 0001:00058d30       _sqlite3GenericMalloc      00459d30 f   sqlite_win32.release:sqlite_os_other.obj
 0001:00058d50       _sqlite3GenericRealloc     00459d50 f   sqlite_win32.release:sqlite_os_other.obj
 0001:00058d70       _sqlite3GenericFree        00459d70 f   sqlite_win32.release:sqlite_os_other.obj
 0001:00058d90       _sqlite3GenericAllocationSize 00459d90 f   sqlite_win32.release:sqlite_os_other.obj
 0001:00058f30       _sqlite3Nebula3Delete      00459f30 f   sqlite_win32.release:sqlite_os_other.obj
 0001:00059020       _sqlite3Nebula3FileExists  0045a020 f   sqlite_win32.release:sqlite_os_other.obj
 0001:000590d0       _sqlite3Nebula3OpenReadWrite 0045a0d0 f   sqlite_win32.release:sqlite_os_other.obj
 0001:000592b0       _sqlite3Nebula3OpenExclusive 0045a2b0 f   sqlite_win32.release:sqlite_os_other.obj
 0001:00059460       _sqlite3Nebula3OpenReadOnly 0045a460 f   sqlite_win32.release:sqlite_os_other.obj
 0001:000595f0       _sqlite3Nebula3TempFileName 0045a5f0 f   sqlite_win32.release:sqlite_os_other.obj
 0001:00059990       _sqlite3Nebula3SyncDirectory 0045a990 f   sqlite_win32.release:sqlite_os_other.obj
 0001:00059a30       _sqlite3Nebula3IsDirWritable 0045aa30 f   sqlite_win32.release:sqlite_os_other.obj
 0001:00059b30       _sqlite3Nebula3FullPathname 0045ab30 f   sqlite_win32.release:sqlite_os_other.obj
 0001:00059c70       _sqlite3Nebula3RandomSeed  0045ac70 f   sqlite_win32.release:sqlite_os_other.obj
 0001:00059ca0       _sqlite3Nebula3Sleep       0045aca0 f   sqlite_win32.release:sqlite_os_other.obj
 0001:00059cd0       _sqlite3Nebula3EnterMutex  0045acd0 f   sqlite_win32.release:sqlite_os_other.obj
 0001:00059d00       _sqlite3Nebula3LeaveMutex  0045ad00 f   sqlite_win32.release:sqlite_os_other.obj
 0001:00059d30       _sqlite3Nebula3InMutex     0045ad30 f   sqlite_win32.release:sqlite_os_other.obj
 0001:00059d50       _sqlite3Nebula3CurrentTime 0045ad50 f   sqlite_win32.release:sqlite_os_other.obj
 0001:00059db0       _sqlite3Nebula3ThreadSpecificData 0045adb0 f   sqlite_win32.release:sqlite_os_other.obj
 0001:00059eb0       _sqlite3Nebula3Dlopen      0045aeb0 f   sqlite_win32.release:sqlite_os_other.obj
 0001:00059ec0       _sqlite3Nebula3Dlsym       0045aec0 f   sqlite_win32.release:sqlite_os_other.obj
 0001:00059ed0       _sqlite3Nebula3Dlclose     0045aed0 f   sqlite_win32.release:sqlite_os_other.obj
 0001:00059ee0       ??0?$Ptr@VFileStream@IO@@@@QAE@ABV0@@Z 0045aee0 f i sqlite_win32.release:sqlite_os_other.obj
 0001:00059f20       ??0?$Ptr@VFileStream@IO@@@@QAE@XZ 0045af20 f i sqlite_win32.release:sqlite_os_other.obj
 0001:00059f40       ??4?$Ptr@VFileStream@IO@@@@QAEXPAVFileStream@IO@@@Z 0045af40 f i sqlite_win32.release:sqlite_os_other.obj
 0001:00059fa0       ??B?$Ptr@VFileStream@IO@@@@QBEPAVFileStream@IO@@XZ 0045afa0 f i sqlite_win32.release:sqlite_os_other.obj
 0001:00059fe0       ??$downcast@VFileStream@IO@@@?$Ptr@VStream@IO@@@@QBEABV?$Ptr@VFileStream@IO@@@@XZ 0045afe0 f i sqlite_win32.release:sqlite_os_other.obj
 0001:00059ff0       _sqlite3MallocRaw          0045aff0 f   sqlite_win32.release:sqlite_util.obj
 0001:0005a050       _sqlite3Realloc            0045b050 f   sqlite_win32.release:sqlite_util.obj
 0001:0005a0c0       _sqlite3FreeX              0045b0c0 f   sqlite_win32.release:sqlite_util.obj
 0001:0005a0e0       _sqlite3MallocX            0045b0e0 f   sqlite_win32.release:sqlite_util.obj
 0001:0005a100       _sqlite3Malloc             0045b100 f   sqlite_win32.release:sqlite_util.obj
 0001:0005a140       _sqlite3ReallocOrFree      0045b140 f   sqlite_win32.release:sqlite_util.obj
 0001:0005a180       _sqlite3StrDup             0045b180 f   sqlite_win32.release:sqlite_util.obj
 0001:0005a220       _sqlite3StrNDup            0045b220 f   sqlite_win32.release:sqlite_util.obj
 0001:0005a270       _sqlite3SetString          0045b270 f   sqlite_win32.release:sqlite_util.obj
 0001:0005a3c0       _sqlite3Error              0045b3c0 f   sqlite_win32.release:sqlite_util.obj
 0001:0005a470       _sqlite3ErrorMsg           0045b470 f   sqlite_win32.release:sqlite_util.obj
 0001:0005a4c0       _sqlite3ErrorClear         0045b4c0 f   sqlite_win32.release:sqlite_util.obj
 0001:0005a4f0       _sqlite3Dequote            0045b4f0 f   sqlite_win32.release:sqlite_util.obj
 0001:0005a640       _sqlite3StrICmp            0045b640 f   sqlite_win32.release:sqlite_util.obj
 0001:0005a6b0       _sqlite3StrNICmp           0045b6b0 f   sqlite_win32.release:sqlite_util.obj
 0001:0005a750       _sqlite3IsNumber           0045b750 f   sqlite_win32.release:sqlite_util.obj
 0001:0005a8e0       _sqlite3AtoF               0045b8e0 f   sqlite_win32.release:sqlite_util.obj
 0001:0005ab40       _sqlite3atoi64             0045bb40 f   sqlite_win32.release:sqlite_util.obj
 0001:0005ad50       _sqlite3GetInt32           0045bd50 f   sqlite_win32.release:sqlite_util.obj
 0001:0005ad80       _sqlite3FitsIn64Bits       0045bd80 f   sqlite_win32.release:sqlite_util.obj
 0001:0005ae30       _sqlite3SafetyOn           0045be30 f   sqlite_win32.release:sqlite_util.obj
 0001:0005ae80       _sqlite3SafetyOff          0045be80 f   sqlite_win32.release:sqlite_util.obj
 0001:0005aed0       _sqlite3SafetyCheck        0045bed0 f   sqlite_win32.release:sqlite_util.obj
 0001:0005af20       _sqlite3PutVarint          0045bf20 f   sqlite_win32.release:sqlite_util.obj
 0001:0005b040       _sqlite3GetVarint          0045c040 f   sqlite_win32.release:sqlite_util.obj
 0001:0005b1e0       _sqlite3GetVarint32        0045c1e0 f   sqlite_win32.release:sqlite_util.obj
 0001:0005b2a0       _sqlite3VarintLen          0045c2a0 f   sqlite_win32.release:sqlite_util.obj
 0001:0005b320       _sqlite3HexToBlob          0045c320 f   sqlite_win32.release:sqlite_util.obj
 0001:0005b3f0       _sqlite3ThreadData         0045c3f0 f   sqlite_win32.release:sqlite_util.obj
 0001:0005b420       _sqlite3ThreadDataReadOnly 0045c420 f   sqlite_win32.release:sqlite_util.obj
 0001:0005b450       _sqlite3ReleaseThreadData  0045c450 f   sqlite_win32.release:sqlite_util.obj
 0001:0005b460       _sqlite3ApiExit            0045c460 f   sqlite_win32.release:sqlite_util.obj
 0001:0005b4c0       _sqlite3MallocFailed       0045c4c0 f   sqlite_win32.release:sqlite_util.obj
 0001:0005b500       _sqlite3FailedMalloc       0045c500 f   sqlite_win32.release:sqlite_util.obj
 0001:0005ca50       _sqlite3BtreeOpen          0045da50 f   sqlite_win32.release:sqlite_btree.obj
 0001:0005cee0       _sqlite3BtreeClose         0045dee0 f   sqlite_win32.release:sqlite_btree.obj
 0001:0005d010       _sqlite3BtreeSetBusyHandler 0045e010 f   sqlite_win32.release:sqlite_btree.obj
 0001:0005d040       _sqlite3BtreeSetCacheSize  0045e040 f   sqlite_win32.release:sqlite_btree.obj
 0001:0005d070       _sqlite3BtreeSetSafetyLevel 0045e070 f   sqlite_win32.release:sqlite_btree.obj
 0001:0005d0a0       _sqlite3BtreeSyncDisabled  0045e0a0 f   sqlite_win32.release:sqlite_btree.obj
 0001:0005d0c0       _sqlite3BtreeSetPageSize   0045e0c0 f   sqlite_win32.release:sqlite_btree.obj
 0001:0005d150       _sqlite3BtreeGetPageSize   0045e150 f   sqlite_win32.release:sqlite_btree.obj
 0001:0005d160       _sqlite3BtreeGetReserve    0045e160 f   sqlite_win32.release:sqlite_btree.obj
 0001:0005d180       _sqlite3BtreeSetAutoVacuum 0045e180 f   sqlite_win32.release:sqlite_btree.obj
 0001:0005d1c0       _sqlite3BtreeGetAutoVacuum 0045e1c0 f   sqlite_win32.release:sqlite_btree.obj
 0001:0005d5f0       _sqlite3BtreeBeginTrans    0045e5f0 f   sqlite_win32.release:sqlite_btree.obj
 0001:0005deb0       _sqlite3BtreeCommit        0045eeb0 f   sqlite_win32.release:sqlite_btree.obj
 0001:0005df50       _sqlite3BtreeRollback      0045ef50 f   sqlite_win32.release:sqlite_btree.obj
 0001:0005e050       _sqlite3BtreeBeginStmt     0045f050 f   sqlite_win32.release:sqlite_btree.obj
 0001:0005e0d0       _sqlite3BtreeCommitStmt    0045f0d0 f   sqlite_win32.release:sqlite_btree.obj
 0001:0005e120       _sqlite3BtreeRollbackStmt  0045f120 f   sqlite_win32.release:sqlite_btree.obj
 0001:0005e1d0       _sqlite3BtreeCursor        0045f1d0 f   sqlite_win32.release:sqlite_btree.obj
 0001:0005e370       _sqlite3BtreeCloseCursor   0045f370 f   sqlite_win32.release:sqlite_btree.obj
 0001:0005e4c0       _sqlite3BtreeKeySize       0045f4c0 f   sqlite_win32.release:sqlite_btree.obj
 0001:0005e540       _sqlite3BtreeDataSize      0045f540 f   sqlite_win32.release:sqlite_btree.obj
 0001:0005e7b0       _sqlite3BtreeKey           0045f7b0 f   sqlite_win32.release:sqlite_btree.obj
 0001:0005e830       _sqlite3BtreeData          0045f830 f   sqlite_win32.release:sqlite_btree.obj
 0001:0005e930       _sqlite3BtreeKeyFetch      0045f930 f   sqlite_win32.release:sqlite_btree.obj
 0001:0005e960       _sqlite3BtreeDataFetch     0045f960 f   sqlite_win32.release:sqlite_btree.obj
 0001:0005ed10       _sqlite3BtreeFirst         0045fd10 f   sqlite_win32.release:sqlite_btree.obj
 0001:0005ed70       _sqlite3BtreeLast          0045fd70 f   sqlite_win32.release:sqlite_btree.obj
 0001:0005edd0       _sqlite3BtreeMoveto        0045fdd0 f   sqlite_win32.release:sqlite_btree.obj
 0001:0005f150       _sqlite3BtreeEof           00460150 f   sqlite_win32.release:sqlite_btree.obj
 0001:0005f170       _sqlite3BtreeNext          00460170 f   sqlite_win32.release:sqlite_btree.obj
 0001:0005f340       _sqlite3BtreePrevious      00460340 f   sqlite_win32.release:sqlite_btree.obj
 0001:00061ef0       _sqlite3BtreeInsert        00462ef0 f   sqlite_win32.release:sqlite_btree.obj
 0001:00062180       _sqlite3BtreeDelete        00463180 f   sqlite_win32.release:sqlite_btree.obj
 0001:000624c0       _sqlite3BtreeCreateTable   004634c0 f   sqlite_win32.release:sqlite_btree.obj
 0001:00062920       _sqlite3BtreeClearTable    00463920 f   sqlite_win32.release:sqlite_btree.obj
 0001:000629b0       _sqlite3BtreeDropTable     004639b0 f   sqlite_win32.release:sqlite_btree.obj
 0001:00062c30       _sqlite3BtreeGetMeta       00463c30 f   sqlite_win32.release:sqlite_btree.obj
 0001:00062cc0       _sqlite3BtreeUpdateMeta    00463cc0 f   sqlite_win32.release:sqlite_btree.obj
 0001:00062d40       _sqlite3BtreeFlags         00463d40 f   sqlite_win32.release:sqlite_btree.obj
 0001:00062d80       _sqlite3BtreePager         00463d80 f   sqlite_win32.release:sqlite_btree.obj
 0001:000638c0       _sqlite3BtreeIntegrityCheck 004648c0 f   sqlite_win32.release:sqlite_btree.obj
 0001:00063bd0       _sqlite3BtreeGetFilename   00464bd0 f   sqlite_win32.release:sqlite_btree.obj
 0001:00063bf0       _sqlite3BtreeGetDirname    00464bf0 f   sqlite_win32.release:sqlite_btree.obj
 0001:00063c10       _sqlite3BtreeGetJournalname 00464c10 f   sqlite_win32.release:sqlite_btree.obj
 0001:00063c30       _sqlite3BtreeCopyFile      00464c30 f   sqlite_win32.release:sqlite_btree.obj
 0001:00063df0       _sqlite3BtreeIsInTrans     00464df0 f   sqlite_win32.release:sqlite_btree.obj
 0001:00063e20       _sqlite3BtreeIsInStmt      00464e20 f   sqlite_win32.release:sqlite_btree.obj
 0001:00063e60       _sqlite3BtreeIsInReadTrans 00464e60 f   sqlite_win32.release:sqlite_btree.obj
 0001:00063e90       _sqlite3BtreeSync          00464e90 f   sqlite_win32.release:sqlite_btree.obj
 0001:00063f10       _sqlite3BtreeSchema        00464f10 f   sqlite_win32.release:sqlite_btree.obj
 0001:00063f50       _sqlite3BtreeSchemaLocked  00464f50 f   sqlite_win32.release:sqlite_btree.obj
 0001:00063f70       _sqlite3BtreeLockTable     00464f70 f   sqlite_win32.release:sqlite_btree.obj
 0001:00063fd0       _sqlite3_create_module     00464fd0 f   sqlite_win32.release:sqlite_vtab.obj
 0001:000640d0       _sqlite3VtabLock           004650d0 f   sqlite_win32.release:sqlite_vtab.obj
 0001:000640f0       _sqlite3VtabUnlock         004650f0 f   sqlite_win32.release:sqlite_vtab.obj
 0001:00064120       _sqlite3VtabClear          00465120 f   sqlite_win32.release:sqlite_vtab.obj
 0001:00064270       _sqlite3VtabBeginParse     00465270 f   sqlite_win32.release:sqlite_vtab.obj
 0001:00064420       _sqlite3VtabFinishParse    00465420 f   sqlite_win32.release:sqlite_vtab.obj
 0001:000646f0       _sqlite3VtabArgInit        004656f0 f   sqlite_win32.release:sqlite_vtab.obj
 0001:00064730       _sqlite3VtabArgExtend      00465730 f   sqlite_win32.release:sqlite_vtab.obj
 0001:00064910       _sqlite3VtabCallConnect    00465910 f   sqlite_win32.release:sqlite_vtab.obj
 0001:00064ab0       _sqlite3VtabCallCreate     00465ab0 f   sqlite_win32.release:sqlite_vtab.obj
 0001:00064b70       _sqlite3_declare_vtab      00465b70 f   sqlite_win32.release:sqlite_vtab.obj
 0001:00064cb0       _sqlite3VtabCallDestroy    00465cb0 f   sqlite_win32.release:sqlite_vtab.obj
 0001:00064df0       _sqlite3VtabSync           00465df0 f   sqlite_win32.release:sqlite_vtab.obj
 0001:00064ec0       _sqlite3VtabRollback       00465ec0 f   sqlite_win32.release:sqlite_vtab.obj
 0001:00064ee0       _sqlite3VtabCommit         00465ee0 f   sqlite_win32.release:sqlite_vtab.obj
 0001:00064f00       _sqlite3VtabBegin          00465f00 f   sqlite_win32.release:sqlite_vtab.obj
 0001:00064fd0       _sqlite3VtabOverloadFunction 00465fd0 f   sqlite_win32.release:sqlite_vtab.obj
 0001:00066a20       _sqlite3RegisterBuiltinFunctions 00467a20 f   sqlite_win32.release:sqlite_func.obj
 0001:00066d50       _sqlite3RegisterLikeFunctions 00467d50 f   sqlite_win32.release:sqlite_func.obj
 0001:00066e10       _sqlite3IsLikeFunction     00467e10 f   sqlite_win32.release:sqlite_func.obj
 0001:00066eb0       _sqlite3_load_extension    00467eb0 f   sqlite_win32.release:sqlite_loadext.obj
 0001:00067070       _sqlite3CloseExtensions    00468070 f   sqlite_win32.release:sqlite_loadext.obj
 0001:000670c0       _sqlite3_enable_load_extension 004680c0 f   sqlite_win32.release:sqlite_loadext.obj
 0001:00067100       _sqlite3_auto_extension    00468100 f   sqlite_win32.release:sqlite_loadext.obj
 0001:000671c0       _sqlite3_reset_auto_extension 004681c0 f   sqlite_win32.release:sqlite_loadext.obj
 0001:00067200       _sqlite3AutoLoadExtensions 00468200 f   sqlite_win32.release:sqlite_loadext.obj
 0001:000672d0       _sqlite3HashInit           004682d0 f   sqlite_win32.release:sqlite_hash.obj
 0001:00067330       _sqlite3HashClear          00468330 f   sqlite_win32.release:sqlite_hash.obj
 0001:00067850       _sqlite3HashFind           00468850 f   sqlite_win32.release:sqlite_hash.obj
 0001:000678d0       _sqlite3HashInsert         004688d0 f   sqlite_win32.release:sqlite_hash.obj
 0001:00067ab0       _sqlite3VdbeChangeEncoding 00468ab0 f   sqlite_win32.release:sqlite_vdbemem.obj
 0001:00067af0       _sqlite3VdbeMemDynamicify  00468af0 f   sqlite_win32.release:sqlite_vdbemem.obj
 0001:00067ba0       _sqlite3VdbeMemMakeWriteable 00468ba0 f   sqlite_win32.release:sqlite_vdbemem.obj
 0001:00067c80       _sqlite3VdbeMemNulTerminate 00468c80 f   sqlite_win32.release:sqlite_vdbemem.obj
 0001:00067d80       _sqlite3VdbeMemStringify   00468d80 f   sqlite_win32.release:sqlite_vdbemem.obj
 0001:00067e60       _sqlite3VdbeMemFinalize    00468e60 f   sqlite_win32.release:sqlite_vdbemem.obj
 0001:00067f20       _sqlite3VdbeMemRelease     00468f20 f   sqlite_win32.release:sqlite_vdbemem.obj
 0001:00067fb0       _sqlite3VdbeIntValue       00468fb0 f   sqlite_win32.release:sqlite_vdbemem.obj
 0001:00068040       _sqlite3VdbeRealValue      00469040 f   sqlite_win32.release:sqlite_vdbemem.obj
 0001:000680d0       _sqlite3VdbeIntegerAffinity 004690d0 f   sqlite_win32.release:sqlite_vdbemem.obj
 0001:00068110       _sqlite3VdbeMemIntegerify  00469110 f   sqlite_win32.release:sqlite_vdbemem.obj
 0001:00068150       _sqlite3VdbeMemRealify     00469150 f   sqlite_win32.release:sqlite_vdbemem.obj
 0001:00068190       _sqlite3VdbeMemNumerify    00469190 f   sqlite_win32.release:sqlite_vdbemem.obj
 0001:000681b0       _sqlite3VdbeMemSetNull     004691b0 f   sqlite_win32.release:sqlite_vdbemem.obj
 0001:000681e0       _sqlite3VdbeMemSetInt64    004691e0 f   sqlite_win32.release:sqlite_vdbemem.obj
 0001:00068220       _sqlite3VdbeMemSetDouble   00469220 f   sqlite_win32.release:sqlite_vdbemem.obj
 0001:00068250       _sqlite3VdbeMemShallowCopy 00469250 f   sqlite_win32.release:sqlite_vdbemem.obj
 0001:000682b0       _sqlite3VdbeMemCopy        004692b0 f   sqlite_win32.release:sqlite_vdbemem.obj
 0001:00068310       _sqlite3VdbeMemMove        00469310 f   sqlite_win32.release:sqlite_vdbemem.obj
 0001:000683a0       _sqlite3VdbeMemSetStr      004693a0 f   sqlite_win32.release:sqlite_vdbemem.obj
 0001:00068560       _sqlite3MemCompare         00469560 f   sqlite_win32.release:sqlite_vdbemem.obj
 0001:00068860       _sqlite3VdbeMemFromBtree   00469860 f   sqlite_win32.release:sqlite_vdbemem.obj
 0001:000689b0       _sqlite3ValueText          004699b0 f   sqlite_win32.release:sqlite_vdbemem.obj
 0001:00068a80       _sqlite3ValueNew           00469a80 f   sqlite_win32.release:sqlite_vdbemem.obj
 0001:00068ac0       _sqlite3ValueFromExpr      00469ac0 f   sqlite_win32.release:sqlite_vdbemem.obj
 0001:00068d00       _sqlite3ValueSetStr        00469d00 f   sqlite_win32.release:sqlite_vdbemem.obj
 0001:00068d30       _sqlite3ValueFree          00469d30 f   sqlite_win32.release:sqlite_vdbemem.obj
 0001:00068d60       _sqlite3ValueBytes         00469d60 f   sqlite_win32.release:sqlite_vdbemem.obj
 0001:00068da0       _sqlite3VdbeCreate         00469da0 f   sqlite_win32.release:sqlite_vdbeaux.obj
 0001:00068e10       _sqlite3VdbeSetSql         00469e10 f   sqlite_win32.release:sqlite_vdbeaux.obj
 0001:00068e40       _sqlite3VdbeGetSql         00469e40 f   sqlite_win32.release:sqlite_vdbeaux.obj
 0001:00068e50       _sqlite3VdbeSwap           00469e50 f   sqlite_win32.release:sqlite_vdbeaux.obj
 0001:00068f20       _sqlite3VdbeTrace          00469f20 f   sqlite_win32.release:sqlite_vdbeaux.obj
 0001:00068fe0       _sqlite3VdbeAddOp          00469fe0 f   sqlite_win32.release:sqlite_vdbeaux.obj
 0001:00069080       _sqlite3VdbeOp3            0046a080 f   sqlite_win32.release:sqlite_vdbeaux.obj
 0001:000690c0       _sqlite3VdbeMakeLabel      0046a0c0 f   sqlite_win32.release:sqlite_vdbeaux.obj
 0001:00069140       _sqlite3VdbeResolveLabel   0046a140 f   sqlite_win32.release:sqlite_vdbeaux.obj
 0001:00069350       _sqlite3VdbeCurrentAddr    0046a350 f   sqlite_win32.release:sqlite_vdbeaux.obj
 0001:00069360       _sqlite3VdbeAddOpList      0046a360 f   sqlite_win32.release:sqlite_vdbeaux.obj
 0001:00069460       _sqlite3VdbeChangeP1       0046a460 f   sqlite_win32.release:sqlite_vdbeaux.obj
 0001:000694a0       _sqlite3VdbeChangeP2       0046a4a0 f   sqlite_win32.release:sqlite_vdbeaux.obj
 0001:000694e0       _sqlite3VdbeJumpHere       0046a4e0 f   sqlite_win32.release:sqlite_vdbeaux.obj
 0001:00069600       _sqlite3VdbeChangeToNoop   0046a600 f   sqlite_win32.release:sqlite_vdbeaux.obj
 0001:00069670       _sqlite3VdbeChangeP3       0046a670 f   sqlite_win32.release:sqlite_vdbeaux.obj
 0001:00069850       _sqlite3VdbeGetOp          0046a850 f   sqlite_win32.release:sqlite_vdbeaux.obj
 0001:00069b80       _sqlite3VdbeList           0046ab80 f   sqlite_win32.release:sqlite_vdbeaux.obj
 0001:00069e50       _sqlite3VdbePrintSql       0046ae50 f   sqlite_win32.release:sqlite_vdbeaux.obj
 0001:00069e60       _sqlite3VdbeMakeReady      0046ae60 f   sqlite_win32.release:sqlite_vdbeaux.obj
 0001:0006a080       _sqlite3VdbeFreeCursor     0046b080 f   sqlite_win32.release:sqlite_vdbeaux.obj
 0001:0006a2e0       _sqlite3VdbeSetNumCols     0046b2e0 f   sqlite_win32.release:sqlite_vdbeaux.obj
 0001:0006a380       _sqlite3VdbeSetColName     0046b380 f   sqlite_win32.release:sqlite_vdbeaux.obj
 0001:0006a960       _sqlite3AbortOtherActiveVdbes 0046b960 f   sqlite_win32.release:sqlite_vdbeaux.obj
 0001:0006a9c0       _sqlite3VdbeHalt           0046b9c0 f   sqlite_win32.release:sqlite_vdbeaux.obj
 0001:0006ad40       _sqlite3VdbeResetStepResult 0046bd40 f   sqlite_win32.release:sqlite_vdbeaux.obj
 0001:0006ad60       _sqlite3VdbeReset          0046bd60 f   sqlite_win32.release:sqlite_vdbeaux.obj
 0001:0006aee0       _sqlite3VdbeFinalize       0046bee0 f   sqlite_win32.release:sqlite_vdbeaux.obj
 0001:0006af40       _sqlite3VdbeDeleteAuxData  0046bf40 f   sqlite_win32.release:sqlite_vdbeaux.obj
 0001:0006afc0       _sqlite3VdbeDelete         0046bfc0 f   sqlite_win32.release:sqlite_vdbeaux.obj
 0001:0006b110       _sqlite3VdbeCursorMoveto   0046c110 f   sqlite_win32.release:sqlite_vdbeaux.obj
 0001:0006b1f0       _sqlite3VdbeSerialType     0046c1f0 f   sqlite_win32.release:sqlite_vdbeaux.obj
 0001:0006b370       _sqlite3VdbeSerialTypeLen  0046c370 f   sqlite_win32.release:sqlite_vdbeaux.obj
 0001:0006b3a0       _sqlite3VdbeSerialPut      0046c3a0 f   sqlite_win32.release:sqlite_vdbeaux.obj
 0001:0006b480       _sqlite3VdbeSerialGet      0046c480 f   sqlite_win32.release:sqlite_vdbeaux.obj
 0001:0006b780       _sqlite3VdbeRecordCompare  0046c780 f   sqlite_win32.release:sqlite_vdbeaux.obj
 0001:0006ba90       _sqlite3VdbeIdxRowidLen    0046ca90 f   sqlite_win32.release:sqlite_vdbeaux.obj
 0001:0006bad0       _sqlite3VdbeIdxRowid       0046cad0 f   sqlite_win32.release:sqlite_vdbeaux.obj
 0001:0006bbb0       _sqlite3VdbeIdxKeyCompare  0046cbb0 f   sqlite_win32.release:sqlite_vdbeaux.obj
 0001:0006bc60       _sqlite3VdbeSetChanges     0046cc60 f   sqlite_win32.release:sqlite_vdbeaux.obj
 0001:0006bc80       _sqlite3VdbeCountChanges   0046cc80 f   sqlite_win32.release:sqlite_vdbeaux.obj
 0001:0006bc90       _sqlite3ExpirePreparedStatements 0046cc90 f   sqlite_win32.release:sqlite_vdbeaux.obj
 0001:0006bcc0       _sqlite3VdbeDb             0046ccc0 f   sqlite_win32.release:sqlite_vdbeaux.obj
 0001:0006bcd0       _sqlite3BeginParse         0046ccd0 f   sqlite_win32.release:sqlite_build.obj
 0001:0006bcf0       _sqlite3TableLock          0046ccf0 f   sqlite_win32.release:sqlite_build.obj
 0001:0006be90       _sqlite3FinishCoding       0046ce90 f   sqlite_win32.release:sqlite_build.obj
 0001:0006c130       _sqlite3NestedParse        0046d130 f   sqlite_win32.release:sqlite_build.obj
 0001:0006c1f0       _sqlite3FindTable          0046d1f0 f   sqlite_win32.release:sqlite_build.obj
 0001:0006c2d0       _sqlite3LocateTable        0046d2d0 f   sqlite_win32.release:sqlite_build.obj
 0001:0006c350       _sqlite3FindIndex          0046d350 f   sqlite_win32.release:sqlite_build.obj
 0001:0006c4d0       _sqlite3UnlinkAndDeleteIndex 0046d4d0 f   sqlite_win32.release:sqlite_build.obj
 0001:0006c5d0       _sqlite3ResetInternalSchema 0046d5d0 f   sqlite_win32.release:sqlite_build.obj
 0001:0006c7d0       _sqlite3RollbackInternalChanges 0046d7d0 f   sqlite_win32.release:sqlite_build.obj
 0001:0006c7f0       _sqlite3CommitInternalChanges 0046d7f0 f   sqlite_win32.release:sqlite_build.obj
 0001:0006c8b0       _sqlite3DeleteTable        0046d8b0 f   sqlite_win32.release:sqlite_build.obj
 0001:0006c9b0       _sqlite3UnlinkAndDeleteTable 0046d9b0 f   sqlite_win32.release:sqlite_build.obj
 0001:0006cb20       _sqlite3NameFromToken      0046db20 f   sqlite_win32.release:sqlite_build.obj
 0001:0006cb70       _sqlite3OpenMasterTable    0046db70 f   sqlite_win32.release:sqlite_build.obj
 0001:0006cc00       _sqlite3FindDb             0046dc00 f   sqlite_win32.release:sqlite_build.obj
 0001:0006cd00       _sqlite3TwoPartName        0046dd00 f   sqlite_win32.release:sqlite_build.obj
 0001:0006cd90       _sqlite3CheckObjectName    0046dd90 f   sqlite_win32.release:sqlite_build.obj
 0001:0006ce00       _sqlite3StartTable         0046de00 f   sqlite_win32.release:sqlite_build.obj
 0001:0006d330       _sqlite3AddColumn          0046e330 f   sqlite_win32.release:sqlite_build.obj
 0001:0006d490       _sqlite3AddNotNull         0046e490 f   sqlite_win32.release:sqlite_build.obj
 0001:0006d4d0       _sqlite3AffinityType       0046e4d0 f   sqlite_win32.release:sqlite_build.obj
 0001:0006d5f0       _sqlite3AddColumnType      0046e5f0 f   sqlite_win32.release:sqlite_build.obj
 0001:0006d660       _sqlite3AddDefaultValue    0046e660 f   sqlite_win32.release:sqlite_build.obj
 0001:0006d710       _sqlite3AddPrimaryKey      0046e710 f   sqlite_win32.release:sqlite_build.obj
 0001:0006d8f0       _sqlite3AddCheckConstraint 0046e8f0 f   sqlite_win32.release:sqlite_build.obj
 0001:0006d950       _sqlite3AddCollateType     0046e950 f   sqlite_win32.release:sqlite_build.obj
 0001:0006da00       _sqlite3LocateCollSeq      0046ea00 f   sqlite_win32.release:sqlite_build.obj
 0001:0006dae0       _sqlite3ChangeCookie       0046eae0 f   sqlite_win32.release:sqlite_build.obj
 0001:0006e080       _sqlite3EndTable           0046f080 f   sqlite_win32.release:sqlite_build.obj
 0001:0006e620       _sqlite3CreateView         0046f620 f   sqlite_win32.release:sqlite_build.obj
 0001:0006e820       _sqlite3ViewGetColumnNames 0046f820 f   sqlite_win32.release:sqlite_build.obj
 0001:0006ea30       _sqlite3RootPageMoved      0046fa30 f   sqlite_win32.release:sqlite_build.obj
 0001:0006ec20       _sqlite3DropTable          0046fc20 f   sqlite_win32.release:sqlite_build.obj
 0001:0006eff0       _sqlite3CreateForeignKey   0046fff0 f   sqlite_win32.release:sqlite_build.obj
 0001:0006f3e0       _sqlite3DeferForeignKey    004703e0 f   sqlite_win32.release:sqlite_build.obj
 0001:0006f690       _sqlite3CreateIndex        00470690 f   sqlite_win32.release:sqlite_build.obj
 0001:000704e0       _sqlite3MinimumFileFormat  004714e0 f   sqlite_win32.release:sqlite_build.obj
 0001:00070570       _sqlite3DefaultRowEst      00471570 f   sqlite_win32.release:sqlite_build.obj
 0001:00070600       _sqlite3DropIndex          00471600 f   sqlite_win32.release:sqlite_build.obj
 0001:00070820       _sqlite3ArrayAllocate      00471820 f   sqlite_win32.release:sqlite_build.obj
 0001:000708c0       _sqlite3IdListAppend       004718c0 f   sqlite_win32.release:sqlite_build.obj
 0001:00070940       _sqlite3IdListDelete       00471940 f   sqlite_win32.release:sqlite_build.obj
 0001:000709a0       _sqlite3IdListIndex        004719a0 f   sqlite_win32.release:sqlite_build.obj
 0001:00070a00       _sqlite3SrcListAppend      00471a00 f   sqlite_win32.release:sqlite_build.obj
 0001:00070b40       _sqlite3SrcListAssignCursors 00471b40 f   sqlite_win32.release:sqlite_build.obj
 0001:00070bd0       _sqlite3SrcListDelete      00471bd0 f   sqlite_win32.release:sqlite_build.obj
 0001:00070c90       _sqlite3SrcListAppendFromTerm 00471c90 f   sqlite_win32.release:sqlite_build.obj
 0001:00070d50       _sqlite3SrcListShiftJoinType 00471d50 f   sqlite_win32.release:sqlite_build.obj
 0001:00070db0       _sqlite3BeginTransaction   00471db0 f   sqlite_win32.release:sqlite_build.obj
 0001:00070e80       _sqlite3CommitTransaction  00471e80 f   sqlite_win32.release:sqlite_build.obj
 0001:00070f10       _sqlite3RollbackTransaction 00471f10 f   sqlite_win32.release:sqlite_build.obj
 0001:00070fa0       _sqlite3OpenTempDatabase   00471fa0 f   sqlite_win32.release:sqlite_build.obj
 0001:00071080       _sqlite3CodeVerifySchema   00472080 f   sqlite_win32.release:sqlite_build.obj
 0001:00071140       _sqlite3BeginWriteOperation 00472140 f   sqlite_win32.release:sqlite_build.obj
 0001:00071350       _sqlite3Reindex            00472350 f   sqlite_win32.release:sqlite_build.obj
 0001:00071520       _sqlite3IndexKeyinfo       00472520 f   sqlite_win32.release:sqlite_build.obj
 0001:000715f0       _sqlite3ReadUtf8           004725f0 f   sqlite_win32.release:sqlite_utf.obj
 0001:000716f0       _sqlite3VdbeMemTranslate   004726f0 f   sqlite_win32.release:sqlite_utf.obj
 0001:00072040       _sqlite3VdbeMemHandleBom   00473040 f   sqlite_win32.release:sqlite_utf.obj
 0001:00072160       _sqlite3utf8CharLen        00473160 f   sqlite_win32.release:sqlite_utf.obj
 0001:000721c0       _sqlite3utf16to8           004731c0 f   sqlite_win32.release:sqlite_utf.obj
 0001:00072230       _sqlite3utf16ByteLen       00473230 f   sqlite_win32.release:sqlite_utf.obj
 0001:00072410       _sqlite3utf16Substr        00473410 f   sqlite_win32.release:sqlite_utf.obj
 0001:00072f60       _sqlite3Analyze            00473f60 f   sqlite_win32.release:sqlite_analyze.obj
 0001:000731c0       _sqlite3AnalysisLoad       004741c0 f   sqlite_win32.release:sqlite_analyze.obj
 0001:00073350       _sqlite3KeywordCode        00474350 f   sqlite_win32.release:sqlite_tokenize.obj
 0001:00073cb0       _sqlite3GetToken           00474cb0 f   sqlite_win32.release:sqlite_tokenize.obj
 0001:00073cd0       _sqlite3RunParser          00474cd0 f   sqlite_win32.release:sqlite_tokenize.obj
 0001:000758f0       _sqlite3VMPrintf           004768f0 f   sqlite_win32.release:sqlite_printf.obj
 0001:00075920       _sqlite3MPrintf            00476920 f   sqlite_win32.release:sqlite_printf.obj
 0001:00075970       _sqlite3_vmprintf          00476970 f   sqlite_win32.release:sqlite_printf.obj
 0001:000759a0       _sqlite3_mprintf           004769a0 f   sqlite_win32.release:sqlite_printf.obj
 0001:000759f0       _sqlite3_snprintf          004769f0 f   sqlite_win32.release:sqlite_printf.obj
 0001:00075c80       _sqlite3_value_numeric_type 00476c80 f   sqlite_win32.release:sqlite_vdbe.obj
 0001:00075cb0       _sqlite3ValueApplyAffinity 00476cb0 f   sqlite_win32.release:sqlite_vdbe.obj
 0001:00075cd0       _sqlite3VdbeExec           00476cd0 f   sqlite_win32.release:sqlite_vdbe.obj
 0001:0007c230       _sqlite3DeleteTriggerStep  0047d230 f   sqlite_win32.release:sqlite_trigger.obj
 0001:0007c2c0       _sqlite3BeginTrigger       0047d2c0 f   sqlite_win32.release:sqlite_trigger.obj
 0001:0007c750       _sqlite3FinishTrigger      0047d750 f   sqlite_win32.release:sqlite_trigger.obj
 0001:0007cb40       _sqlite3TriggerSelectStep  0047db40 f   sqlite_win32.release:sqlite_trigger.obj
 0001:0007cba0       _sqlite3TriggerInsertStep  0047dba0 f   sqlite_win32.release:sqlite_trigger.obj
 0001:0007cc30       _sqlite3TriggerUpdateStep  0047dc30 f   sqlite_win32.release:sqlite_trigger.obj
 0001:0007cca0       _sqlite3TriggerDeleteStep  0047dca0 f   sqlite_win32.release:sqlite_trigger.obj
 0001:0007cd00       _sqlite3DeleteTrigger      0047dd00 f   sqlite_win32.release:sqlite_trigger.obj
 0001:0007cd80       _sqlite3DropTrigger        0047dd80 f   sqlite_win32.release:sqlite_trigger.obj
 0001:0007cf40       _sqlite3DropTriggerPtr     0047df40 f   sqlite_win32.release:sqlite_trigger.obj
 0001:0007d0c0       _sqlite3UnlinkAndDeleteTrigger 0047e0c0 f   sqlite_win32.release:sqlite_trigger.obj
 0001:0007d220       _sqlite3TriggersExist      0047e220 f   sqlite_win32.release:sqlite_trigger.obj
 0001:0007d5d0       _sqlite3CodeRowTrigger     0047e5d0 f   sqlite_win32.release:sqlite_trigger.obj
 0001:0007d940       _sqlite3Randomness         0047e940 f   sqlite_win32.release:sqlite_random.obj
 0001:0007f1f0       _sqlite3pager_set_cachesize 004801f0 f   sqlite_win32.release:sqlite_pager.obj
 0001:0007f210       _sqlite3pager_set_safety_level 00480210 f   sqlite_win32.release:sqlite_pager.obj
 0001:0007f2e0       _sqlite3pager_open         004802e0 f   sqlite_win32.release:sqlite_pager.obj
 0001:0007f8c0       _sqlite3pager_set_busyhandler 004808c0 f   sqlite_win32.release:sqlite_pager.obj
 0001:0007f8d0       _sqlite3pager_set_destructor 004808d0 f   sqlite_win32.release:sqlite_pager.obj
 0001:0007f8f0       _sqlite3pager_set_reiniter 004808f0 f   sqlite_win32.release:sqlite_pager.obj
 0001:0007f910       _sqlite3pager_set_pagesize 00480910 f   sqlite_win32.release:sqlite_pager.obj
 0001:0007f930       _sqlite3pager_read_fileheader 00480930 f   sqlite_win32.release:sqlite_pager.obj
 0001:0007f9a0       _sqlite3pager_pagecount    004809a0 f   sqlite_win32.release:sqlite_pager.obj
 0001:0007fd80       _sqlite3pager_truncate     00480d80 f   sqlite_win32.release:sqlite_pager.obj
 0001:0007fe40       _sqlite3pager_close        00480e40 f   sqlite_win32.release:sqlite_pager.obj
 0001:0007fed0       _sqlite3pager_pagenumber   00480ed0 f   sqlite_win32.release:sqlite_pager.obj
 0001:0007ffc0       _sqlite3pager_ref          00480fc0 f   sqlite_win32.release:sqlite_pager.obj
 0001:00080560       _sqlite3pager_get          00481560 f   sqlite_win32.release:sqlite_pager.obj
 0001:00080b20       _sqlite3pager_lookup       00481b20 f   sqlite_win32.release:sqlite_pager.obj
 0001:00080b90       _sqlite3pager_unref        00481b90 f   sqlite_win32.release:sqlite_pager.obj
 0001:00080e60       _sqlite3pager_begin        00481e60 f   sqlite_win32.release:sqlite_pager.obj
 0001:00081000       _sqlite3pager_write        00482000 f   sqlite_win32.release:sqlite_pager.obj
 0001:000814a0       _sqlite3pager_overwrite    004824a0 f   sqlite_win32.release:sqlite_pager.obj
 0001:00081510       _sqlite3pager_dont_write   00482510 f   sqlite_win32.release:sqlite_pager.obj
 0001:00081580       _sqlite3pager_dont_rollback 00482580 f   sqlite_win32.release:sqlite_pager.obj
 0001:000816f0       _sqlite3pager_commit       004826f0 f   sqlite_win32.release:sqlite_pager.obj
 0001:00081810       _sqlite3pager_rollback     00482810 f   sqlite_win32.release:sqlite_pager.obj
 0001:00081a00       _sqlite3pager_isreadonly   00482a00 f   sqlite_win32.release:sqlite_pager.obj
 0001:00081a10       _sqlite3pager_refcount     00482a10 f   sqlite_win32.release:sqlite_pager.obj
 0001:00081a20       _sqlite3pager_stmt_begin   00482a20 f   sqlite_win32.release:sqlite_pager.obj
 0001:00081b70       _sqlite3pager_stmt_commit  00482b70 f   sqlite_win32.release:sqlite_pager.obj
 0001:00081c60       _sqlite3pager_stmt_rollback 00482c60 f   sqlite_win32.release:sqlite_pager.obj
 0001:00081d50       _sqlite3pager_filename     00482d50 f   sqlite_win32.release:sqlite_pager.obj
 0001:00081d60       _sqlite3pager_dirname      00482d60 f   sqlite_win32.release:sqlite_pager.obj
 0001:00081d70       _sqlite3pager_journalname  00482d70 f   sqlite_win32.release:sqlite_pager.obj
 0001:00081d80       _sqlite3pager_nosync       00482d80 f   sqlite_win32.release:sqlite_pager.obj
 0001:00081d90       _sqlite3pager_set_codec    00482d90 f   sqlite_win32.release:sqlite_pager.obj
 0001:00081e40       _sqlite3pager_sync         00482e40 f   sqlite_win32.release:sqlite_pager.obj
 0001:00082030       _sqlite3pager_movepage     00483030 f   sqlite_win32.release:sqlite_pager.obj
 0001:00082230       _sqlite3SelectNew          00483230 f   sqlite_win32.release:sqlite_select.obj
 0001:00082340       _sqlite3SelectDelete       00483340 f   sqlite_win32.release:sqlite_select.obj
 0001:00082370       _sqlite3JoinType           00483370 f   sqlite_win32.release:sqlite_select.obj
 0001:000825c0       _sqlite3CreateIdExpr       004835c0 f   sqlite_win32.release:sqlite_select.obj
 0001:00083b60       _sqlite3ResultSetOfSelect  00484b60 f   sqlite_win32.release:sqlite_select.obj
 0001:000847e0       _sqlite3GetVdbe            004857e0 f   sqlite_win32.release:sqlite_select.obj
 0001:000863e0       _sqlite3SelectResolve      004873e0 f   sqlite_win32.release:sqlite_select.obj
 0001:000869f0       _sqlite3Select             004879f0 f   sqlite_win32.release:sqlite_select.obj
 0001:00087820       _sqlite3_set_authorizer    00488820 f   sqlite_win32.release:sqlite_auth.obj
 0001:00087880       _sqlite3AuthRead           00488880 f   sqlite_win32.release:sqlite_auth.obj
 0001:00087a80       _sqlite3AuthCheck          00488a80 f   sqlite_win32.release:sqlite_auth.obj
 0001:00087b40       _sqlite3AuthContextPush    00488b40 f   sqlite_win32.release:sqlite_auth.obj
 0001:00087b70       _sqlite3AuthContextPop     00488b70 f   sqlite_win32.release:sqlite_auth.obj
 0001:00088370       _sqlite3Detach             00489370 f   sqlite_win32.release:sqlite_attach.obj
 0001:000883a0       _sqlite3Attach             004893a0 f   sqlite_win32.release:sqlite_attach.obj
 0001:000883d0       _sqlite3AttachFunctions    004893d0 f   sqlite_win32.release:sqlite_attach.obj
 0001:00088430       _sqlite3FixInit            00489430 f   sqlite_win32.release:sqlite_attach.obj
 0001:00088490       _sqlite3FixSrcList         00489490 f   sqlite_win32.release:sqlite_attach.obj
 0001:00088590       _sqlite3FixSelect          00489590 f   sqlite_win32.release:sqlite_attach.obj
 0001:00088630       _sqlite3FixExpr            00489630 f   sqlite_win32.release:sqlite_attach.obj
 0001:000886b0       _sqlite3FixExprList        004896b0 f   sqlite_win32.release:sqlite_attach.obj
 0001:00088720       _sqlite3FixTriggerStep     00489720 f   sqlite_win32.release:sqlite_attach.obj
 0001:0008ab30       _sqlite3RegisterDateTimeFunctions 0048bb30 f   sqlite_win32.release:sqlite_date.obj
 0001:0008ad70       _sqlite3AlterFunctions     0048bd70 f   sqlite_win32.release:sqlite_alter.obj
 0001:0008af90       _sqlite3AlterRenameTable   0048bf90 f   sqlite_win32.release:sqlite_alter.obj
 0001:0008b2a0       _sqlite3AlterFinishAddColumn 0048c2a0 f   sqlite_win32.release:sqlite_alter.obj
 0001:0008b530       _sqlite3AlterBeginAddColumn 0048c530 f   sqlite_win32.release:sqlite_alter.obj
 0001:0008b760       _sqlite3_complete          0048c760 f   sqlite_win32.release:sqlite_complete.obj
 0001:0008bb90       _sqlite3_complete16        0048cb90 f   sqlite_win32.release:sqlite_complete.obj
 0001:0008be60       _sqlite3_get_table         0048ce60 f   sqlite_win32.release:sqlite_table.obj
 0001:0008c050       _sqlite3_free_table        0048d050 f   sqlite_win32.release:sqlite_table.obj
 0001:0008c0c0       _sqlite3OsClose            0048d0c0 f   sqlite_win32.release:sqlite_os.obj
 0001:0008c100       _sqlite3OsOpenDirectory    0048d100 f   sqlite_win32.release:sqlite_os.obj
 0001:0008c120       _sqlite3OsRead             0048d120 f   sqlite_win32.release:sqlite_os.obj
 0001:0008c140       _sqlite3OsWrite            0048d140 f   sqlite_win32.release:sqlite_os.obj
 0001:0008c160       _sqlite3OsSeek             0048d160 f   sqlite_win32.release:sqlite_os.obj
 0001:0008c180       _sqlite3OsTruncate         0048d180 f   sqlite_win32.release:sqlite_os.obj
 0001:0008c1a0       _sqlite3OsSync             0048d1a0 f   sqlite_win32.release:sqlite_os.obj
 0001:0008c1c0       _sqlite3OsSetFullSync      0048d1c0 f   sqlite_win32.release:sqlite_os.obj
 0001:0008c1e0       _sqlite3OsFileSize         0048d1e0 f   sqlite_win32.release:sqlite_os.obj
 0001:0008c200       _sqlite3OsLock             0048d200 f   sqlite_win32.release:sqlite_os.obj
 0001:0008c220       _sqlite3OsUnlock           0048d220 f   sqlite_win32.release:sqlite_os.obj
 0001:0008c240       _sqlite3OsLockState        0048d240 f   sqlite_win32.release:sqlite_os.obj
 0001:0008c260       _sqlite3OsCheckReservedLock 0048d260 f   sqlite_win32.release:sqlite_os.obj
 0001:0008c2e0       _sqlite3VdbeFifoInit       0048d2e0 f   sqlite_win32.release:sqlite_vdbefifo.obj
 0001:0008c300       _sqlite3VdbeFifoPush       0048d300 f   sqlite_win32.release:sqlite_vdbefifo.obj
 0001:0008c3d0       _sqlite3VdbeFifoPop        0048d3d0 f   sqlite_win32.release:sqlite_vdbefifo.obj
 0001:0008c470       _sqlite3VdbeFifoClear      0048d470 f   sqlite_win32.release:sqlite_vdbefifo.obj
 0001:0008c4c0       _sqlite3ExprAffinity       0048d4c0 f   sqlite_win32.release:sqlite_expr.obj
 0001:0008c530       _sqlite3ExprSetColl        0048d530 f   sqlite_win32.release:sqlite_expr.obj
 0001:0008c590       _sqlite3ExprCollSeq        0048d590 f   sqlite_win32.release:sqlite_expr.obj
 0001:0008c600       _sqlite3CompareAffinity    0048d600 f   sqlite_win32.release:sqlite_expr.obj
 0001:0008c6f0       _sqlite3IndexAffinityOk    0048d6f0 f   sqlite_win32.release:sqlite_expr.obj
 0001:0008c850       _sqlite3Expr               0048d850 f   sqlite_win32.release:sqlite_expr.obj
 0001:0008c980       _sqlite3ExprOrFree         0048d980 f   sqlite_win32.release:sqlite_expr.obj
 0001:0008c9d0       _sqlite3RegisterExpr       0048d9d0 f   sqlite_win32.release:sqlite_expr.obj
 0001:0008caa0       _sqlite3ExprAnd            0048daa0 f   sqlite_win32.release:sqlite_expr.obj
 0001:0008cae0       _sqlite3ExprSpan           0048dae0 f   sqlite_win32.release:sqlite_expr.obj
 0001:0008cb60       _sqlite3ExprFunction       0048db60 f   sqlite_win32.release:sqlite_expr.obj
 0001:0008cbd0       _sqlite3ExprAssignVarNumber 0048dbd0 f   sqlite_win32.release:sqlite_expr.obj
 0001:0008cda0       _sqlite3ExprDelete         0048dda0 f   sqlite_win32.release:sqlite_expr.obj
 0001:0008ce30       _sqlite3DequoteExpr        0048de30 f   sqlite_win32.release:sqlite_expr.obj
 0001:0008ce90       _sqlite3ExprDup            0048de90 f   sqlite_win32.release:sqlite_expr.obj
 0001:0008cf80       _sqlite3TokenCopy          0048df80 f   sqlite_win32.release:sqlite_expr.obj
 0001:0008d010       _sqlite3ExprListDup        0048e010 f   sqlite_win32.release:sqlite_expr.obj
 0001:0008d150       _sqlite3SrcListDup         0048e150 f   sqlite_win32.release:sqlite_expr.obj
 0001:0008d2f0       _sqlite3IdListDup          0048e2f0 f   sqlite_win32.release:sqlite_expr.obj
 0001:0008d3d0       _sqlite3SelectDup          0048e3d0 f   sqlite_win32.release:sqlite_expr.obj
 0001:0008d540       _sqlite3ExprListAppend     0048e540 f   sqlite_win32.release:sqlite_expr.obj
 0001:0008d630       _sqlite3ExprListDelete     0048e630 f   sqlite_win32.release:sqlite_expr.obj
 0001:0008d950       _sqlite3ExprIsConstant     0048e950 f   sqlite_win32.release:sqlite_expr.obj
 0001:0008d980       _sqlite3ExprIsConstantOrFunction 0048e980 f   sqlite_win32.release:sqlite_expr.obj
 0001:0008d9b0       _sqlite3ExprIsInteger      0048e9b0 f   sqlite_win32.release:sqlite_expr.obj
 0001:0008da40       _sqlite3IsRowid            0048ea40 f   sqlite_win32.release:sqlite_expr.obj
 0001:0008e740       _sqlite3ExprResolveNames   0048f740 f   sqlite_win32.release:sqlite_expr.obj
 0001:0008e7d0       _sqlite3CodeSubselect      0048f7d0 f   sqlite_win32.release:sqlite_expr.obj
 0001:0008ebc0       _sqlite3ExprCode           0048fbc0 f   sqlite_win32.release:sqlite_expr.obj
 0001:0008f940       _sqlite3ExprCodeAndCache   00490940 f   sqlite_win32.release:sqlite_expr.obj
 0001:0008f9f0       _sqlite3ExprCodeExprList   004909f0 f   sqlite_win32.release:sqlite_expr.obj
 0001:0008fa50       _sqlite3ExprIfTrue         00490a50 f   sqlite_win32.release:sqlite_expr.obj
 0001:0008fd60       _sqlite3ExprIfFalse        00490d60 f   sqlite_win32.release:sqlite_expr.obj
 0001:00090080       _sqlite3ExprCompare        00491080 f   sqlite_win32.release:sqlite_expr.obj
 0001:000906b0       _sqlite3ExprAnalyzeAggregates 004916b0 f   sqlite_win32.release:sqlite_expr.obj
 0001:000906f0       _sqlite3ExprAnalyzeAggList 004916f0 f   sqlite_win32.release:sqlite_expr.obj
 0001:00090760       _sqlite3SrcListLookup      00491760 f   sqlite_win32.release:sqlite_delete.obj
 0001:00090800       _sqlite3IsReadOnly         00491800 f   sqlite_win32.release:sqlite_delete.obj
 0001:00090890       _sqlite3OpenTable          00491890 f   sqlite_win32.release:sqlite_delete.obj
 0001:00090930       _sqlite3DeleteFrom         00491930 f   sqlite_win32.release:sqlite_delete.obj
 0001:00091140       _sqlite3GenerateRowDelete  00492140 f   sqlite_win32.release:sqlite_delete.obj
 0001:000911c0       _sqlite3GenerateRowIndexDelete 004921c0 f   sqlite_win32.release:sqlite_delete.obj
 0001:00091240       _sqlite3GenerateIndexKey   00492240 f   sqlite_win32.release:sqlite_delete.obj
 0001:00091310       _sqlite3ParserTokenName    00492310 f   sqlite_win32.release:sqlite_parse.obj
 0001:00091320       _sqlite3ParserAlloc        00492320 f   sqlite_win32.release:sqlite_parse.obj
 0001:00091510       _sqlite3ParserFree         00492510 f   sqlite_win32.release:sqlite_parse.obj
 0001:00093b40       _sqlite3Parser             00494b40 f   sqlite_win32.release:sqlite_parse.obj
 0001:00093e80       _sqlite3Vacuum             00494e80 f   sqlite_win32.release:sqlite_vacuum.obj
 0001:00093eb0       _sqlite3RunVacuum          00494eb0 f   sqlite_win32.release:sqlite_vacuum.obj
 0001:000942d0       _sqlite3ColumnDefault      004952d0 f   sqlite_win32.release:sqlite_update.obj
 0001:00094350       _sqlite3Update             00495350 f   sqlite_win32.release:sqlite_update.obj
 0001:00095440       _sqlite3IndexAffinityStr   00496440 f   sqlite_win32.release:sqlite_insert.obj
 0001:00095500       _sqlite3TableAffinityStr   00496500 f   sqlite_win32.release:sqlite_insert.obj
 0001:00095650       _sqlite3Insert             00496650 f   sqlite_win32.release:sqlite_insert.obj
 0001:00096780       _sqlite3GenerateConstraintChecks 00497780 f   sqlite_win32.release:sqlite_insert.obj
 0001:00097240       _sqlite3CompleteInsertion  00498240 f   sqlite_win32.release:sqlite_insert.obj
 0001:000973c0       _sqlite3OpenTableAndIndices 004983c0 f   sqlite_win32.release:sqlite_insert.obj
 0001:00099ac0       _sqlite3WhereBegin         0049aac0 f   sqlite_win32.release:sqlite_where.obj
 0001:0009b690       _sqlite3WhereEnd           0049c690 f   sqlite_win32.release:sqlite_where.obj
 0001:0009bd90       _sqlite3Pragma             0049cd90 f   sqlite_win32.release:sqlite_pragma.obj
 0001:0009d700       ??8float4@Math@@QBE_NABV01@@Z 0049e700 f i attr_win32.release:attributetable.obj
 0001:0009d770       ??9float4@Math@@QBE_NABV01@@Z 0049e770 f i attr_win32.release:attributetable.obj
 0001:0009d7d0       ?x@float4@Math@@QBEMXZ     0049e7d0 f i attr_win32.release:attributetable.obj
 0001:0009d800       ?y@float4@Math@@QBEMXZ     0049e800 f i attr_win32.release:attributetable.obj
 0001:0009d850       ?z@float4@Math@@QBEMXZ     0049e850 f i attr_win32.release:attributetable.obj
 0001:0009d8a0       ?w@float4@Math@@QBEMXZ     0049e8a0 f i attr_win32.release:attributetable.obj
 0001:0009d8f0       ?unpack_x@float4@Math@@SAMT__m128@@@Z 0049e8f0 f i attr_win32.release:attributetable.obj
 0001:0009d920       ?unpack_y@float4@Math@@SAMT__m128@@@Z 0049e920 f i attr_win32.release:attributetable.obj
 0001:0009d960       ?unpack_z@float4@Math@@SAMT__m128@@@Z 0049e960 f i attr_win32.release:attributetable.obj
 0001:0009d9a0       ?unpack_w@float4@Math@@SAMT__m128@@@Z 0049e9a0 f i attr_win32.release:attributetable.obj
 0001:0009d9e0       ?SetInt@String@Util@@QAEXH@Z 0049e9e0 f i attr_win32.release:attributetable.obj
 0001:0009da10       ?SetFloat@String@Util@@QAEXM@Z 0049ea10 f i attr_win32.release:attributetable.obj
 0001:0009da40       ?SetBool@String@Util@@QAEX_N@Z 0049ea40 f i attr_win32.release:attributetable.obj
 0001:0009da80       ?SetFloat4@String@Util@@QAEXABVfloat4@Math@@@Z 0049ea80 f i attr_win32.release:attributetable.obj
 0001:0009dbd0       ?SetMatrix44@String@Util@@QAEXABVmatrix44@Math@@@Z 0049ebd0 f i attr_win32.release:attributetable.obj
 0001:0009e180       ?FromInt@String@Util@@SA?AV12@H@Z 0049f180 f i attr_win32.release:attributetable.obj
 0001:0009e1d0       ?FromFloat@String@Util@@SA?AV12@M@Z 0049f1d0 f i attr_win32.release:attributetable.obj
 0001:0009e230       ?FromBool@String@Util@@SA?AV12@_N@Z 0049f230 f i attr_win32.release:attributetable.obj
 0001:0009e290       ?FromFloat4@String@Util@@SA?AV12@ABVfloat4@Math@@@Z 0049f290 f i attr_win32.release:attributetable.obj
 0001:0009e2e0       ?FromMatrix44@String@Util@@SA?AV12@ABVmatrix44@Math@@@Z 0049f2e0 f i attr_win32.release:attributetable.obj
 0001:0009e330       ??8Blob@Util@@QBE_NABV01@@Z 0049f330 f i attr_win32.release:attributetable.obj
 0001:0009e350       ??9Blob@Util@@QBE_NABV01@@Z 0049f350 f i attr_win32.release:attributetable.obj
 0001:0009e370       ?TypeToString@Variant@Util@@SA?AVString@2@W4Type@12@@Z 0049f370 f i attr_win32.release:attributetable.obj
 0001:0009e820       ?GetDefaultValue@AttributeDefinitionBase@Attr@@QBEABVVariant@Util@@XZ 0049f820 f i attr_win32.release:attributetable.obj
 0001:0009e840       ?GetAccessMode@AttributeDefinitionBase@Attr@@QBE?AW4AccessMode@2@XZ 0049f840 f i attr_win32.release:attributetable.obj
 0001:0009e860       ?GetAccessMode@AttrId@Attr@@QBE?AW4AccessMode@2@XZ 0049f860 f i attr_win32.release:attributetable.obj
 0001:0009e8b0       ?GetBoolDefValue@AttrId@Attr@@QBE_NXZ 0049f8b0 f i attr_win32.release:attributetable.obj
 0001:0009e920       ?GetIntDefValue@AttrId@Attr@@QBEHXZ 0049f920 f i attr_win32.release:attributetable.obj
 0001:0009e990       ?GetFloatDefValue@AttrId@Attr@@QBEMXZ 0049f990 f i attr_win32.release:attributetable.obj
 0001:0009ea00       ?GetStringDefValue@AttrId@Attr@@QBEABVString@Util@@XZ 0049fa00 f i attr_win32.release:attributetable.obj
 0001:0009ea70       ?GetFloat4DefValue@AttrId@Attr@@QBE?AVfloat4@Math@@XZ 0049fa70 f i attr_win32.release:attributetable.obj
 0001:0009eac0       ?GetMatrix44DefValue@AttrId@Attr@@QBEABVmatrix44@Math@@XZ 0049fac0 f i attr_win32.release:attributetable.obj
 0001:0009eb30       ?GetBlobDefValue@AttrId@Attr@@QBEABVBlob@Util@@XZ 0049fb30 f i attr_win32.release:attributetable.obj
 0001:0009eba0       ?GetGuidDefValue@AttrId@Attr@@QBEABVWin32Guid@Win32@@XZ 0049fba0 f i attr_win32.release:attributetable.obj
 0001:0009ec10       ??0BoolAttrId@Attr@@QAE@ABVAttrId@1@@Z 0049fc10 f i attr_win32.release:attributetable.obj
 0001:0009ec30       ??0FloatAttrId@Attr@@QAE@ABVAttrId@1@@Z 0049fc30 f i attr_win32.release:attributetable.obj
 0001:0009ec50       ??0IntAttrId@Attr@@QAE@ABVAttrId@1@@Z 0049fc50 f i attr_win32.release:attributetable.obj
 0001:0009ec70       ??0Matrix44AttrId@Attr@@QAE@ABVAttrId@1@@Z 0049fc70 f i attr_win32.release:attributetable.obj
 0001:0009ec90       ??0Float4AttrId@Attr@@QAE@ABVAttrId@1@@Z 0049fc90 f i attr_win32.release:attributetable.obj
 0001:0009ecb0       ??0StringAttrId@Attr@@QAE@ABVAttrId@1@@Z 0049fcb0 f i attr_win32.release:attributetable.obj
 0001:0009ecd0       ??0GuidAttrId@Attr@@QAE@ABVAttrId@1@@Z 0049fcd0 f i attr_win32.release:attributetable.obj
 0001:0009ecf0       ??0BlobAttrId@Attr@@QAE@ABVAttrId@1@@Z 0049fcf0 f i attr_win32.release:attributetable.obj
 0001:0009ed10       ?GetAttrId@Attribute@Attr@@QBEABVAttrId@2@XZ 0049fd10 f i attr_win32.release:attributetable.obj
 0001:0009ed20       ?ValueTypeToString@Attribute@Attr@@SA?AVString@Util@@W4ValueType@2@@Z 0049fd20 f i attr_win32.release:attributetable.obj
 0001:0009ed40       ??2AttributeTable@Attr@@SAPAXI@Z 0049fd40 f i attr_win32.release:attributetable.obj
 0001:0009ed50       ??3AttributeTable@Attr@@SAXPAX@Z 0049fd50 f i attr_win32.release:attributetable.obj
 0001:0009ed70       ?GetColumnAccessMode@AttributeTable@Attr@@QBE?AW4AccessMode@2@H@Z 0049fd70 f i attr_win32.release:attributetable.obj
 0001:0009edd0       ?SetBool@AttributeTable@Attr@@QAEXABVBoolAttrId@2@H_N@Z 0049fdd0 f i attr_win32.release:attributetable.obj
 0001:0009ee10       ?SetFloat@AttributeTable@Attr@@QAEXABVFloatAttrId@2@HM@Z 0049fe10 f i attr_win32.release:attributetable.obj
 0001:0009ee50       ?SetInt@AttributeTable@Attr@@QAEXABVIntAttrId@2@HH@Z 0049fe50 f i attr_win32.release:attributetable.obj
 0001:0009ee90       ?SetFloat4@AttributeTable@Attr@@QAEXABVFloat4AttrId@2@HABVfloat4@Math@@@Z 0049fe90 f i attr_win32.release:attributetable.obj
 0001:0009eed0       ?SetMatrix44@AttributeTable@Attr@@QAEXABVMatrix44AttrId@2@HABVmatrix44@Math@@@Z 0049fed0 f i attr_win32.release:attributetable.obj
 0001:0009ef10       ?SetString@AttributeTable@Attr@@QAEXABVStringAttrId@2@HABVString@Util@@@Z 0049ff10 f i attr_win32.release:attributetable.obj
 0001:0009ef50       ?SetGuid@AttributeTable@Attr@@QAEXABVGuidAttrId@2@HABVWin32Guid@Win32@@@Z 0049ff50 f i attr_win32.release:attributetable.obj
 0001:0009ef90       ?SetBlob@AttributeTable@Attr@@QAEXABVBlobAttrId@2@HABVBlob@Util@@@Z 0049ff90 f i attr_win32.release:attributetable.obj
 0001:0009efd0       ?GetRtti@AttributeTable@Attr@@UBEPAVRtti@Core@@XZ 0049ffd0 f   attr_win32.release:attributetable.obj
 0001:0009efe0       ?FactoryCreator@AttributeTable@Attr@@SAPAVRefCounted@Core@@XZ 0049ffe0 f   attr_win32.release:attributetable.obj
 0001:0009eff0       ?Create@AttributeTable@Attr@@SAPAV12@XZ 0049fff0 f   attr_win32.release:attributetable.obj
 0001:0009f030       ?RegisterWithFactory@AttributeTable@Attr@@SA_NXZ 004a0030 f   attr_win32.release:attributetable.obj
 0001:0009f130       ??0AttributeTable@Attr@@QAE@XZ 004a0130 f   attr_win32.release:attributetable.obj
 0001:0009f280       ??_EAttributeTable@Attr@@UAEPAXI@Z 004a0280 f i  CIL library: CIL module
 0001:0009f280       ??_GAttributeTable@Attr@@UAEPAXI@Z 004a0280 f i attr_win32.release:attributetable.obj
 0001:0009f2b0       ??1AttributeTable@Attr@@UAE@XZ 004a02b0 f   attr_win32.release:attributetable.obj
 0001:0009f330       ?ResetModifiedState@AttributeTable@Attr@@QAEXXZ 004a0330 f   attr_win32.release:attributetable.obj
 0001:0009f420       ?CopyString@AttributeTable@Attr@@AAEXHHABVString@Util@@@Z 004a0420 f   attr_win32.release:attributetable.obj
 0001:0009f530       ?DeleteString@AttributeTable@Attr@@AAEXHH@Z 004a0530 f   attr_win32.release:attributetable.obj
 0001:0009f5c0       ?CopyGuid@AttributeTable@Attr@@AAEXHHABVWin32Guid@Win32@@@Z 004a05c0 f   attr_win32.release:attributetable.obj
 0001:0009f670       ?DeleteGuid@AttributeTable@Attr@@AAEXHH@Z 004a0670 f   attr_win32.release:attributetable.obj
 0001:0009f6f0       ?CopyBlob@AttributeTable@Attr@@AAEXHHABVBlob@Util@@@Z 004a06f0 f   attr_win32.release:attributetable.obj
 0001:0009f7f0       ?DeleteBlob@AttributeTable@Attr@@AAEXHH@Z 004a07f0 f   attr_win32.release:attributetable.obj
 0001:0009f890       ?Delete@AttributeTable@Attr@@AAEXXZ 004a0890 f   attr_win32.release:attributetable.obj
 0001:0009fa80       ?Clear@AttributeTable@Attr@@QAEXXZ 004a0a80 f   attr_win32.release:attributetable.obj
 0001:0009faa0       ?Realloc@AttributeTable@Attr@@AAEXHH@Z 004a0aa0 f   attr_win32.release:attributetable.obj
 0001:0009ff70       ?GetValueTypeSize@AttributeTable@Attr@@ABEHW4ValueType@2@@Z 004a0f70 f   attr_win32.release:attributetable.obj
 0001:000a0010       ?UpdateColumnOffsets@AttributeTable@Attr@@AAEHXZ 004a1010 f   attr_win32.release:attributetable.obj
 0001:000a00d0       ?BeginAddColumns@AttributeTable@Attr@@QAEX_N@Z 004a10d0 f   attr_win32.release:attributetable.obj
 0001:000a0130       ?InternalAddColumnHelper@AttributeTable@Attr@@AAEXABVAttrId@2@_N@Z 004a1130 f   attr_win32.release:attributetable.obj
 0001:000a0250       ??0ColumnInfo@AttributeTable@Attr@@QAE@XZ 004a1250 f i attr_win32.release:attributetable.obj
 0001:000a0270       ?EndAddColumns@AttributeTable@Attr@@QAEXXZ 004a1270 f   attr_win32.release:attributetable.obj
 0001:000a0330       ?AddColumn@AttributeTable@Attr@@QAEXABVAttrId@2@_N@Z 004a1330 f   attr_win32.release:attributetable.obj
 0001:000a03c0       ?DeleteRow@AttributeTable@Attr@@QAEXH@Z 004a13c0 f   attr_win32.release:attributetable.obj
 0001:000a04a0       ?DeleteAllRows@AttributeTable@Attr@@QAEXXZ 004a14a0 f   attr_win32.release:attributetable.obj
 0001:000a04f0       ?CopyRow@AttributeTable@Attr@@QAEHH@Z 004a14f0 f   attr_win32.release:attributetable.obj
 0001:000a0730       ?CopyExtRow@AttributeTable@Attr@@QAEHPAV12@H_N@Z 004a1730 f   attr_win32.release:attributetable.obj
 0001:000a0bf0       ?ReserveRows@AttributeTable@Attr@@QAEXH@Z 004a1bf0 f   attr_win32.release:attributetable.obj
 0001:000a0c40       ?AddRow@AttributeTable@Attr@@QAEHXZ 004a1c40 f   attr_win32.release:attributetable.obj
 0001:000a0d20       ?ClearNewRowFlags@AttributeTable@Attr@@QAEXXZ 004a1d20 f   attr_win32.release:attributetable.obj
 0001:000a0d70       ?ClearDeletedRowsFlags@AttributeTable@Attr@@QAEXXZ 004a1d70 f   attr_win32.release:attributetable.obj
 0001:000a0d90       ?InternalFindRowIndicesByAttrs@AttributeTable@Attr@@ABE?AV?$Array@H@Util@@ABV?$Array@VAttribute@Attr@@@4@_N@Z 004a1d90 f   attr_win32.release:attributetable.obj
 0001:000a12f0       ?InternalFindRowIndicesByAttr@AttributeTable@Attr@@ABE?AV?$Array@H@Util@@ABVAttribute@2@_N@Z 004a22f0 f   attr_win32.release:attributetable.obj
 0001:000a1b10       ?FindRowIndicesByAttr@AttributeTable@Attr@@QBE?AV?$Array@H@Util@@ABVAttribute@2@_N@Z 004a2b10 f   attr_win32.release:attributetable.obj
 0001:000a1b40       ?FindRowIndicesByAttrs@AttributeTable@Attr@@QBE?AV?$Array@H@Util@@ABV?$Array@VAttribute@Attr@@@4@_N@Z 004a2b40 f   attr_win32.release:attributetable.obj
 0001:000a1b70       ?FindRowIndexByAttr@AttributeTable@Attr@@QBEHABVAttribute@2@@Z 004a2b70 f   attr_win32.release:attributetable.obj
 0001:000a1be0       ?FindRowIndexByAttrs@AttributeTable@Attr@@QBEHABV?$Array@VAttribute@Attr@@@Util@@@Z 004a2be0 f   attr_win32.release:attributetable.obj
 0001:000a1c50       ?SetRowUserData@AttributeTable@Attr@@QAEXHPAX@Z 004a2c50 f   attr_win32.release:attributetable.obj
 0001:000a1c80       ?GetRowUserData@AttributeTable@Attr@@QBEPAXH@Z 004a2c80 f   attr_win32.release:attributetable.obj
 0001:000a1ca0       ?SetRowToDefaultValues@AttributeTable@Attr@@AAEXH@Z 004a2ca0 f   attr_win32.release:attributetable.obj
 0001:000a1f20       ?SetColumnToDefaultValues@AttributeTable@Attr@@AAEXH@Z 004a2f20 f   attr_win32.release:attributetable.obj
 0001:000a23c0       ?SetAttr@AttributeTable@Attr@@QAEXABVAttribute@2@H@Z 004a33c0 f   attr_win32.release:attributetable.obj
 0001:000a25a0       ?GetModifiedRowsExcludeNewAndDeletedRows@AttributeTable@Attr@@QBE?AV?$Array@H@Util@@XZ 004a35a0 f   attr_win32.release:attributetable.obj
 0001:000a2640       ?PrintDebug@AttributeTable@Attr@@QAEXXZ 004a3640 f   attr_win32.release:attributetable.obj
 0001:000a2cc0       ?SetVariant@AttributeTable@Attr@@QAEXABVAttrId@2@HABVVariant@Util@@@Z 004a3cc0 f   attr_win32.release:attributetable.obj
 0001:000a2cf0       ?SetVariant@AttributeTable@Attr@@QAEXHHABVVariant@Util@@@Z 004a3cf0 f   attr_win32.release:attributetable.obj
 0001:000a30b0       ?DeleteRowData@AttributeTable@Attr@@AAEXH@Z 004a40b0 f   attr_win32.release:attributetable.obj
 0001:000a31c0       ??0?$Array@H@Util@@QAE@HH@Z 004a41c0 f i attr_win32.release:attributetable.obj
 0001:000a3250       ??0?$Array@UColumnInfo@AttributeTable@Attr@@@Util@@QAE@HH@Z 004a4250 f i attr_win32.release:attributetable.obj
 0001:000a3320       ??1?$Array@UColumnInfo@AttributeTable@Attr@@@Util@@QAE@XZ 004a4320 f i attr_win32.release:attributetable.obj
 0001:000a3340       ?Append@?$Array@UColumnInfo@AttributeTable@Attr@@@Util@@QAEXABUColumnInfo@AttributeTable@Attr@@@Z 004a4340 f i attr_win32.release:attributetable.obj
 0001:000a33b0       ??A?$Dictionary@VAttrId@Attr@@H@Util@@QAEAAHABVAttrId@Attr@@@Z 004a43b0 f i attr_win32.release:attributetable.obj
 0001:000a3400       ??0?$Array@PAX@Util@@QAE@HH@Z 004a4400 f i attr_win32.release:attributetable.obj
 0001:000a3490       ??1?$Array@PAX@Util@@QAE@XZ 004a4490 f i attr_win32.release:attributetable.obj
 0001:000a34b0       ??A?$Array@PAX@Util@@QBEAAPAXH@Z 004a44b0 f i attr_win32.release:attributetable.obj
 0001:000a3500       ?Append@?$Array@PAX@Util@@QAEXABQAX@Z 004a4500 f i attr_win32.release:attributetable.obj
 0001:000a3570       ?Clear@?$Array@PAX@Util@@QAEXXZ 004a4570 f i attr_win32.release:attributetable.obj
 0001:000a35c0       ??0?$FixedArray@H@Util@@QAE@H@Z 004a45c0 f i attr_win32.release:attributetable.obj
 0001:000a35f0       ??1?$FixedArray@H@Util@@QAE@XZ 004a45f0 f i attr_win32.release:attributetable.obj
 0001:000a3610       ??A?$FixedArray@H@Util@@QBEAAHH@Z 004a4610 f i attr_win32.release:attributetable.obj
 0001:000a3660       ?Delete@?$Array@UColumnInfo@AttributeTable@Attr@@@Util@@AAEXXZ 004a4660 f i attr_win32.release:attributetable.obj
 0001:000a36c0       ?Grow@?$Array@UColumnInfo@AttributeTable@Attr@@@Util@@AAEXXZ 004a46c0 f i attr_win32.release:attributetable.obj
 0001:000a3740       ?Destroy@?$Array@PAX@Util@@AAEXPAPAX@Z 004a4740 f i attr_win32.release:attributetable.obj
 0001:000a3750       ?Delete@?$Array@PAX@Util@@AAEXXZ 004a4750 f i attr_win32.release:attributetable.obj
 0001:000a37b0       ?Grow@?$Array@PAX@Util@@AAEXXZ 004a47b0 f i attr_win32.release:attributetable.obj
 0001:000a3830       ?Delete@?$FixedArray@H@Util@@AAEXXZ 004a4830 f i attr_win32.release:attributetable.obj
 0001:000a3870       ?Alloc@?$FixedArray@H@Util@@AAEXH@Z 004a4870 f i attr_win32.release:attributetable.obj
 0001:000a38e0       ?GrowTo@?$Array@UColumnInfo@AttributeTable@Attr@@@Util@@AAEXH@Z 004a48e0 f i attr_win32.release:attributetable.obj
 0001:000a39e0       ?GrowTo@?$Array@PAX@Util@@AAEXH@Z 004a49e0 f i attr_win32.release:attributetable.obj
 0001:000a3a90       ?XMVectorGetWPtr@@YAXPAMT__m128@@@Z 004a4a90 f i attr_win32.release:attributetable.obj
 0001:000a3ad0       ?XMVectorGetZPtr@@YAXPAMT__m128@@@Z 004a4ad0 f i attr_win32.release:attributetable.obj
 0001:000a3b10       ?XMVectorGetYPtr@@YAXPAMT__m128@@@Z 004a4b10 f i attr_win32.release:attributetable.obj
 0001:000a3b50       ?XMVectorGetXPtr@@YAXPAMT__m128@@@Z 004a4b50 f i attr_win32.release:attributetable.obj
 0001:000a3b70       ?XMVector4NotEqual@@YAHT__m128@@0@Z 004a4b70 f i attr_win32.release:attributetable.obj
 0001:000a3bb0       ?XMVector4Equal@@YAHT__m128@@0@Z 004a4bb0 f i attr_win32.release:attributetable.obj
 0001:000a3c00       ??0Variant@Util@@QAE@H@Z   004a4c00 f i attr_win32.release:attributedefinitionbase.obj
 0001:000a3c30       ??0Variant@Util@@QAE@M@Z   004a4c30 f i attr_win32.release:attributedefinitionbase.obj
 0001:000a3c60       ??0Variant@Util@@QAE@_N@Z  004a4c60 f i attr_win32.release:attributedefinitionbase.obj
 0001:000a3c90       ??0Variant@Util@@QAE@ABVfloat4@Math@@@Z 004a4c90 f i attr_win32.release:attributedefinitionbase.obj
 0001:000a3cd0       ??0Variant@Util@@QAE@ABVmatrix44@Math@@@Z 004a4cd0 f i attr_win32.release:attributedefinitionbase.obj
 0001:000a3d30       ??0Variant@Util@@QAE@ABVBlob@1@@Z 004a4d30 f i attr_win32.release:attributedefinitionbase.obj
 0001:000a3dc0       ??0Variant@Util@@QAE@ABVWin32Guid@Win32@@@Z 004a4dc0 f i attr_win32.release:attributedefinitionbase.obj
 0001:000a3e30       ?IsDynamic@AttributeDefinitionBase@Attr@@QBE_NXZ 004a4e30 f i attr_win32.release:attributedefinitionbase.obj
 0001:000a3e40       ??0AttrExitHandler@Attr@@QAE@XZ 004a4e40 f i attr_win32.release:attributedefinitionbase.obj
 0001:000a3e60       ??1AttrExitHandler@Attr@@UAE@XZ 004a4e60 f i attr_win32.release:attributedefinitionbase.obj
 0001:000a3e80       ??_EAttrExitHandler@Attr@@UAEPAXI@Z 004a4e80 f i  CIL library: CIL module
 0001:000a3e80       ??_GAttrExitHandler@Attr@@UAEPAXI@Z 004a4e80 f i attr_win32.release:attributedefinitionbase.obj
 0001:000a3eb0       ??0AttributeDefinitionBase@Attr@@AAE@XZ 004a4eb0 f   attr_win32.release:attributedefinitionbase.obj
 0001:000a3f30       ??0AttributeDefinitionBase@Attr@@QAE@ABVString@Util@@ABVFourCC@3@W4AccessMode@1@_N@Z 004a4f30 f   attr_win32.release:attributedefinitionbase.obj
 0001:000a3fe0       ??0AttributeDefinitionBase@Attr@@QAE@ABVString@Util@@ABVFourCC@3@W4AccessMode@1@_N3@Z 004a4fe0 f   attr_win32.release:attributedefinitionbase.obj
 0001:000a4090       ??0AttributeDefinitionBase@Attr@@QAE@ABVString@Util@@ABVFourCC@3@W4AccessMode@1@H_N@Z 004a5090 f   attr_win32.release:attributedefinitionbase.obj
 0001:000a4140       ??0AttributeDefinitionBase@Attr@@QAE@ABVString@Util@@ABVFourCC@3@W4AccessMode@1@M_N@Z 004a5140 f   attr_win32.release:attributedefinitionbase.obj
 0001:000a41f0       ??0AttributeDefinitionBase@Attr@@QAE@ABVString@Util@@ABVFourCC@3@W4AccessMode@1@0_N@Z 004a51f0 f   attr_win32.release:attributedefinitionbase.obj
 0001:000a4290       ??0AttributeDefinitionBase@Attr@@QAE@ABVString@Util@@ABVFourCC@3@W4AccessMode@1@ABVfloat4@Math@@_N@Z 004a5290 f   attr_win32.release:attributedefinitionbase.obj
 0001:000a4360       ??0AttributeDefinitionBase@Attr@@QAE@ABVString@Util@@ABVFourCC@3@W4AccessMode@1@ABVmatrix44@Math@@_N@Z 004a5360 f   attr_win32.release:attributedefinitionbase.obj
 0001:000a4440       ??0AttributeDefinitionBase@Attr@@QAE@ABVString@Util@@ABVFourCC@3@W4AccessMode@1@ABVBlob@3@_N@Z 004a5440 f   attr_win32.release:attributedefinitionbase.obj
 0001:000a44e0       ??0AttributeDefinitionBase@Attr@@QAE@ABVString@Util@@ABVFourCC@3@W4AccessMode@1@ABVWin32Guid@Win32@@_N@Z 004a54e0 f   attr_win32.release:attributedefinitionbase.obj
 0001:000a45d0       ??1AttributeDefinitionBase@Attr@@QAE@XZ 004a55d0 f   attr_win32.release:attributedefinitionbase.obj
 0001:000a4630       ?CheckCreateNameRegistry@AttributeDefinitionBase@Attr@@CAXXZ 004a5630 f   attr_win32.release:attributedefinitionbase.obj
 0001:000a4680       ?CheckCreateFourCCRegistry@AttributeDefinitionBase@Attr@@CAXXZ 004a5680 f   attr_win32.release:attributedefinitionbase.obj
 0001:000a46d0       ?CheckCreateDynamicAttributesArray@AttributeDefinitionBase@Attr@@CAXXZ 004a56d0 f   attr_win32.release:attributedefinitionbase.obj
 0001:000a4720       ?Register@AttributeDefinitionBase@Attr@@IAEXXZ 004a5720 f   attr_win32.release:attributedefinitionbase.obj
 0001:000a4840       ?Destroy@AttributeDefinitionBase@Attr@@SAXXZ 004a5840 f   attr_win32.release:attributedefinitionbase.obj
 0001:000a4910       ??_G?$HashTable@VString@Util@@PBVAttributeDefinitionBase@Attr@@@Util@@QAEPAXI@Z 004a5910 f i attr_win32.release:attributedefinitionbase.obj
 0001:000a4940       ??_G?$Dictionary@VFourCC@Util@@PBVAttributeDefinitionBase@Attr@@@Util@@QAEPAXI@Z 004a5940 f i attr_win32.release:attributedefinitionbase.obj
 0001:000a4970       ??1?$HashTable@VString@Util@@PBVAttributeDefinitionBase@Attr@@@Util@@QAE@XZ 004a5970 f i attr_win32.release:attributedefinitionbase.obj
 0001:000a4990       ??1?$Dictionary@VFourCC@Util@@PBVAttributeDefinitionBase@Attr@@@Util@@QAE@XZ 004a5990 f i attr_win32.release:attributedefinitionbase.obj
 0001:000a49b0       ?RegisterDynamicAttribute@AttributeDefinitionBase@Attr@@SAXABVString@Util@@ABVFourCC@4@W4ValueType@2@W4AccessMode@2@@Z 004a59b0 f   attr_win32.release:attributedefinitionbase.obj
 0001:000a4f10       ?ClearDynamicAttributes@AttributeDefinitionBase@Attr@@SAXXZ 004a5f10 f   attr_win32.release:attributedefinitionbase.obj
 0001:000a5060       ??_GAttributeDefinitionBase@Attr@@QAEPAXI@Z 004a6060 f i attr_win32.release:attributedefinitionbase.obj
 0001:000a5090       ??_G?$Array@PBVAttributeDefinitionBase@Attr@@@Util@@QAEPAXI@Z 004a6090 f i attr_win32.release:attributedefinitionbase.obj
 0001:000a50c0       ??1?$FixedArray@V?$Array@V?$KeyValuePair@VString@Util@@PBVAttributeDefinitionBase@Attr@@@Util@@@Util@@@Util@@QAE@XZ 004a60c0 f i attr_win32.release:attributedefinitionbase.obj
 0001:000a50e0       ??0?$HashTable@VString@Util@@PBVAttributeDefinitionBase@Attr@@@Util@@QAE@H@Z 004a60e0 f i attr_win32.release:attributedefinitionbase.obj
 0001:000a5110       ?Add@?$HashTable@VString@Util@@PBVAttributeDefinitionBase@Attr@@@Util@@QAEXABVString@2@ABQBVAttributeDefinitionBase@Attr@@@Z 004a6110 f i attr_win32.release:attributedefinitionbase.obj
 0001:000a5150       ?Erase@?$HashTable@VString@Util@@PBVAttributeDefinitionBase@Attr@@@Util@@QAEXABVString@2@@Z 004a6150 f i attr_win32.release:attributedefinitionbase.obj
 0001:000a5230       ??1?$Array@V?$KeyValuePair@VFourCC@Util@@PBVAttributeDefinitionBase@Attr@@@Util@@@Util@@QAE@XZ 004a6230 f i attr_win32.release:attributedefinitionbase.obj
 0001:000a5250       ??0?$Dictionary@VFourCC@Util@@PBVAttributeDefinitionBase@Attr@@@Util@@QAE@XZ 004a6250 f i attr_win32.release:attributedefinitionbase.obj
 0001:000a5270       ?Add@?$Dictionary@VFourCC@Util@@PBVAttributeDefinitionBase@Attr@@@Util@@QAEXABVFourCC@2@ABQBVAttributeDefinitionBase@Attr@@@Z 004a6270 f i attr_win32.release:attributedefinitionbase.obj
 0001:000a52c0       ??0?$Array@PBVAttributeDefinitionBase@Attr@@@Util@@QAE@XZ 004a62c0 f i attr_win32.release:attributedefinitionbase.obj
 0001:000a5300       ??1?$Array@PBVAttributeDefinitionBase@Attr@@@Util@@QAE@XZ 004a6300 f i attr_win32.release:attributedefinitionbase.obj
 0001:000a5320       ??A?$Array@PBVAttributeDefinitionBase@Attr@@@Util@@QBEAAPBVAttributeDefinitionBase@Attr@@H@Z 004a6320 f i attr_win32.release:attributedefinitionbase.obj
 0001:000a5370       ?Append@?$Array@PBVAttributeDefinitionBase@Attr@@@Util@@QAEXABQBVAttributeDefinitionBase@Attr@@@Z 004a6370 f i attr_win32.release:attributedefinitionbase.obj
 0001:000a53e0       ?Size@?$Array@PBVAttributeDefinitionBase@Attr@@@Util@@QBEHXZ 004a63e0 f i attr_win32.release:attributedefinitionbase.obj
 0001:000a5400       ??0?$FixedArray@V?$Array@V?$KeyValuePair@VString@Util@@PBVAttributeDefinitionBase@Attr@@@Util@@@Util@@@Util@@QAE@H@Z 004a6400 f i attr_win32.release:attributedefinitionbase.obj
 0001:000a5430       ?Delete@?$FixedArray@V?$Array@V?$KeyValuePair@VString@Util@@PBVAttributeDefinitionBase@Attr@@@Util@@@Util@@@Util@@AAEXXZ 004a6430 f i attr_win32.release:attributedefinitionbase.obj
 0001:000a5490       ?Add@?$HashTable@VString@Util@@PBVAttributeDefinitionBase@Attr@@@Util@@QAEXABV?$KeyValuePair@VString@Util@@PBVAttributeDefinitionBase@Attr@@@2@@Z 004a6490 f i attr_win32.release:attributedefinitionbase.obj
 0001:000a5520       ?EraseIndex@?$Array@V?$KeyValuePair@VString@Util@@PBVAttributeDefinitionBase@Attr@@@Util@@@Util@@QAEXH@Z 004a6520 f i attr_win32.release:attributedefinitionbase.obj
 0001:000a55a0       ??0?$KeyValuePair@VString@Util@@PBVAttributeDefinitionBase@Attr@@@Util@@QAE@ABVString@1@ABQBVAttributeDefinitionBase@Attr@@@Z 004a65a0 f i attr_win32.release:attributedefinitionbase.obj
 0001:000a5610       ??0?$Array@V?$KeyValuePair@VFourCC@Util@@PBVAttributeDefinitionBase@Attr@@@Util@@@Util@@QAE@XZ 004a6610 f i attr_win32.release:attributedefinitionbase.obj
 0001:000a5650       ?Append@?$Array@V?$KeyValuePair@VFourCC@Util@@PBVAttributeDefinitionBase@Attr@@@Util@@@Util@@QAEXABV?$KeyValuePair@VFourCC@Util@@PBVAttributeDefinitionBase@Attr@@@2@@Z 004a6650 f i attr_win32.release:attributedefinitionbase.obj
 0001:000a56d0       ?InsertSorted@?$Array@V?$KeyValuePair@VFourCC@Util@@PBVAttributeDefinitionBase@Attr@@@Util@@@Util@@QAEHABV?$KeyValuePair@VFourCC@Util@@PBVAttributeDefinitionBase@Attr@@@2@@Z 004a66d0 f i attr_win32.release:attributedefinitionbase.obj
 0001:000a5940       ?Delete@?$Array@V?$KeyValuePair@VFourCC@Util@@PBVAttributeDefinitionBase@Attr@@@Util@@@Util@@AAEXXZ 004a6940 f i attr_win32.release:attributedefinitionbase.obj
 0001:000a59a0       ??0?$KeyValuePair@VFourCC@Util@@PBVAttributeDefinitionBase@Attr@@@Util@@QAE@ABVFourCC@1@ABQBVAttributeDefinitionBase@Attr@@@Z 004a69a0 f i attr_win32.release:attributedefinitionbase.obj
 0001:000a59d0       ?Delete@?$Array@PBVAttributeDefinitionBase@Attr@@@Util@@AAEXXZ 004a69d0 f i attr_win32.release:attributedefinitionbase.obj
 0001:000a5a30       ?Grow@?$Array@PBVAttributeDefinitionBase@Attr@@@Util@@AAEXXZ 004a6a30 f i attr_win32.release:attributedefinitionbase.obj
 0001:000a5ab0       ??_E?$Array@V?$KeyValuePair@VString@Util@@PBVAttributeDefinitionBase@Attr@@@Util@@@Util@@QAEPAXI@Z 004a6ab0 f i attr_win32.release:attributedefinitionbase.obj
 0001:000a5b50       ?Alloc@?$FixedArray@V?$Array@V?$KeyValuePair@VString@Util@@PBVAttributeDefinitionBase@Attr@@@Util@@@Util@@@Util@@AAEXH@Z 004a6b50 f i attr_win32.release:attributedefinitionbase.obj
 0001:000a5c20       ??1?$Array@V?$KeyValuePair@VString@Util@@PBVAttributeDefinitionBase@Attr@@@Util@@@Util@@QAE@XZ 004a6c20 f i attr_win32.release:attributedefinitionbase.obj
 0001:000a5c40       ?InsertSorted@?$Array@V?$KeyValuePair@VString@Util@@PBVAttributeDefinitionBase@Attr@@@Util@@@Util@@QAEHABV?$KeyValuePair@VString@Util@@PBVAttributeDefinitionBase@Attr@@@2@@Z 004a6c40 f i attr_win32.release:attributedefinitionbase.obj
 0001:000a5eb0       ?Destroy@?$Array@V?$KeyValuePair@VString@Util@@PBVAttributeDefinitionBase@Attr@@@Util@@@Util@@AAEXPAV?$KeyValuePair@VString@Util@@PBVAttributeDefinitionBase@Attr@@@2@@Z 004a6eb0 f i attr_win32.release:attributedefinitionbase.obj
 0001:000a5ed0       ?Move@?$Array@V?$KeyValuePair@VString@Util@@PBVAttributeDefinitionBase@Attr@@@Util@@@Util@@AAEXHH@Z 004a6ed0 f i attr_win32.release:attributedefinitionbase.obj
 0001:000a6060       ?Key@?$KeyValuePair@VString@Util@@PBVAttributeDefinitionBase@Attr@@@Util@@QBEABVString@2@XZ 004a7060 f i attr_win32.release:attributedefinitionbase.obj
 0001:000a6070       ?Size@?$Array@V?$KeyValuePair@VFourCC@Util@@PBVAttributeDefinitionBase@Attr@@@Util@@@Util@@QBEHXZ 004a7070 f i attr_win32.release:attributedefinitionbase.obj
 0001:000a6090       ?Insert@?$Array@V?$KeyValuePair@VFourCC@Util@@PBVAttributeDefinitionBase@Attr@@@Util@@@Util@@QAEXHABV?$KeyValuePair@VFourCC@Util@@PBVAttributeDefinitionBase@Attr@@@2@@Z 004a7090 f i attr_win32.release:attributedefinitionbase.obj
 0001:000a6100       ?InsertAtEndOfIdenticalRange@?$Array@V?$KeyValuePair@VFourCC@Util@@PBVAttributeDefinitionBase@Attr@@@Util@@@Util@@QAEHHABV?$KeyValuePair@VFourCC@Util@@PBVAttributeDefinitionBase@Attr@@@2@@Z 004a7100 f i attr_win32.release:attributedefinitionbase.obj
 0001:000a6180       ?Grow@?$Array@V?$KeyValuePair@VFourCC@Util@@PBVAttributeDefinitionBase@Attr@@@Util@@@Util@@AAEXXZ 004a7180 f i attr_win32.release:attributedefinitionbase.obj
 0001:000a6200       ??4?$KeyValuePair@VFourCC@Util@@PBVAttributeDefinitionBase@Attr@@@Util@@QAEXABV01@@Z 004a7200 f i attr_win32.release:attributedefinitionbase.obj
 0001:000a6230       ??9?$KeyValuePair@VFourCC@Util@@PBVAttributeDefinitionBase@Attr@@@Util@@QBE_NABV01@@Z 004a7230 f i attr_win32.release:attributedefinitionbase.obj
 0001:000a6250       ??O?$KeyValuePair@VFourCC@Util@@PBVAttributeDefinitionBase@Attr@@@Util@@QBE_NABV01@@Z 004a7250 f i attr_win32.release:attributedefinitionbase.obj
 0001:000a6270       ??M?$KeyValuePair@VFourCC@Util@@PBVAttributeDefinitionBase@Attr@@@Util@@QBE_NABV01@@Z 004a7270 f i attr_win32.release:attributedefinitionbase.obj
 0001:000a6290       ?GrowTo@?$Array@PBVAttributeDefinitionBase@Attr@@@Util@@AAEXH@Z 004a7290 f i attr_win32.release:attributedefinitionbase.obj
 0001:000a6340       ??_G?$KeyValuePair@VString@Util@@PBVAttributeDefinitionBase@Attr@@@Util@@QAEPAXI@Z 004a7340 f i attr_win32.release:attributedefinitionbase.obj
 0001:000a63b0       ??0?$Array@V?$KeyValuePair@VString@Util@@PBVAttributeDefinitionBase@Attr@@@Util@@@Util@@QAE@XZ 004a73b0 f i attr_win32.release:attributedefinitionbase.obj
 0001:000a63f0       ?Append@?$Array@V?$KeyValuePair@VString@Util@@PBVAttributeDefinitionBase@Attr@@@Util@@@Util@@QAEXABV?$KeyValuePair@VString@Util@@PBVAttributeDefinitionBase@Attr@@@2@@Z 004a73f0 f i attr_win32.release:attributedefinitionbase.obj
 0001:000a6470       ?Insert@?$Array@V?$KeyValuePair@VString@Util@@PBVAttributeDefinitionBase@Attr@@@Util@@@Util@@QAEXHABV?$KeyValuePair@VString@Util@@PBVAttributeDefinitionBase@Attr@@@2@@Z 004a7470 f i attr_win32.release:attributedefinitionbase.obj
 0001:000a64e0       ?InsertAtEndOfIdenticalRange@?$Array@V?$KeyValuePair@VString@Util@@PBVAttributeDefinitionBase@Attr@@@Util@@@Util@@QAEHHABV?$KeyValuePair@VString@Util@@PBVAttributeDefinitionBase@Attr@@@2@@Z 004a74e0 f i attr_win32.release:attributedefinitionbase.obj
 0001:000a6560       ?Delete@?$Array@V?$KeyValuePair@VString@Util@@PBVAttributeDefinitionBase@Attr@@@Util@@@Util@@AAEXXZ 004a7560 f i attr_win32.release:attributedefinitionbase.obj
 0001:000a65d0       ?Grow@?$Array@V?$KeyValuePair@VString@Util@@PBVAttributeDefinitionBase@Attr@@@Util@@@Util@@AAEXXZ 004a75d0 f i attr_win32.release:attributedefinitionbase.obj
 0001:000a6650       ??4?$KeyValuePair@VString@Util@@PBVAttributeDefinitionBase@Attr@@@Util@@QAEXABV01@@Z 004a7650 f i attr_win32.release:attributedefinitionbase.obj
 0001:000a66a0       ?GrowTo@?$Array@V?$KeyValuePair@VFourCC@Util@@PBVAttributeDefinitionBase@Attr@@@Util@@@Util@@AAEXH@Z 004a76a0 f i attr_win32.release:attributedefinitionbase.obj
 0001:000a6790       ?Move@?$Array@V?$KeyValuePair@VFourCC@Util@@PBVAttributeDefinitionBase@Attr@@@Util@@@Util@@AAEXHH@Z 004a7790 f i attr_win32.release:attributedefinitionbase.obj
 0001:000a6920       ??_E?$KeyValuePair@VString@Util@@PBVAttributeDefinitionBase@Attr@@@Util@@QAEPAXI@Z 004a7920 f i attr_win32.release:attributedefinitionbase.obj
 0001:000a6a30       ?GrowTo@?$Array@V?$KeyValuePair@VString@Util@@PBVAttributeDefinitionBase@Attr@@@Util@@@Util@@AAEXH@Z 004a7a30 f i attr_win32.release:attributedefinitionbase.obj
 0001:000a6b50       ?Destroy@?$Array@V?$KeyValuePair@VFourCC@Util@@PBVAttributeDefinitionBase@Attr@@@Util@@@Util@@AAEXPAV?$KeyValuePair@VFourCC@Util@@PBVAttributeDefinitionBase@Attr@@@2@@Z 004a7b50 f i attr_win32.release:attributedefinitionbase.obj
 0001:000a6b60       ??0?$KeyValuePair@VFourCC@Util@@PBVAttributeDefinitionBase@Attr@@@Util@@QAE@XZ 004a7b60 f i attr_win32.release:attributedefinitionbase.obj
 0001:000a6b80       ??0?$KeyValuePair@VString@Util@@PBVAttributeDefinitionBase@Attr@@@Util@@QAE@XZ 004a7b80 f i attr_win32.release:attributedefinitionbase.obj
 0001:000a6bc0       ?OnExit@AttrExitHandler@Attr@@UBEXXZ 004a7bc0 f   attr_win32.release:attrexithandler.obj
 0001:000a6bd0       _HeapFree@12               004a7bd0 f   kernel32:KERNEL32.dll
 0001:000a6bd6       _HeapAlloc@12              004a7bd6 f   kernel32:KERNEL32.dll
 0001:000a6bdc       _HeapReAlloc@16            004a7bdc f   kernel32:KERNEL32.dll
 0001:000a6be2       _HeapSize@12               004a7be2 f   kernel32:KERNEL32.dll
 0001:000a6be8       _GlobalMemoryStatus@4      004a7be8 f   kernel32:KERNEL32.dll
 0001:000a6bee       _InterlockedCompareExchange@12 004a7bee f   kernel32:KERNEL32.dll
 0001:000a6bf4       _GetCurrentThreadId@0      004a7bf4 f   kernel32:KERNEL32.dll
 0001:000a6bfa       _CreateSemaphoreA@16       004a7bfa f   kernel32:KERNEL32.dll
 0001:000a6c00       _CloseHandle@4             004a7c00 f   kernel32:KERNEL32.dll
 0001:000a6c06       _WaitForSingleObject@8     004a7c06 f   kernel32:KERNEL32.dll
 0001:000a6c0c       _ReleaseSemaphore@12       004a7c0c f   kernel32:KERNEL32.dll
 0001:000a6c12       _IsProcessorFeaturePresent@4 004a7c12 f   kernel32:KERNEL32.dll
 0001:000a6c18       _ExitProcess@4             004a7c18 f   kernel32:KERNEL32.dll
 0001:000a6c1e       _Sleep@4                   004a7c1e f   kernel32:KERNEL32.dll
 0001:000a6c24       _OutputDebugStringA@4      004a7c24 f   kernel32:KERNEL32.dll
 0001:000a6c2a       _QueryPerformanceCounter@4 004a7c2a f   kernel32:KERNEL32.dll
 0001:000a6c30       _QueryPerformanceFrequency@4 004a7c30 f   kernel32:KERNEL32.dll
 0001:000a6c36       _HeapCreate@12             004a7c36 f   kernel32:KERNEL32.dll
 0001:000a6c3c       _HeapSetInformation@16     004a7c3c f   kernel32:KERNEL32.dll
 0001:000a6c42       _CreateFileW@28            004a7c42 f   kernel32:KERNEL32.dll
 0001:000a6c48       _SetFilePointer@16         004a7c48 f   kernel32:KERNEL32.dll
 0001:000a6c4e       _WriteFile@20              004a7c4e f   kernel32:KERNEL32.dll
 0001:000a6c54       _ReadFile@20               004a7c54 f   kernel32:KERNEL32.dll
 0001:000a6c5a       _FlushFileBuffers@4        004a7c5a f   kernel32:KERNEL32.dll
 0001:000a6c60       _GetFileSize@8             004a7c60 f   kernel32:KERNEL32.dll
 0001:000a6c66       _GetFileAttributesW@4      004a7c66 f   kernel32:KERNEL32.dll
 0001:000a6c6c       _SetFileAttributesA@8      004a7c6c f   kernel32:KERNEL32.dll
 0001:000a6c72       _DeleteFileW@4             004a7c72 f   kernel32:KERNEL32.dll
 0001:000a6c78       _RemoveDirectoryW@4        004a7c78 f   kernel32:KERNEL32.dll
 0001:000a6c7e       _SetFileTime@16            004a7c7e f   kernel32:KERNEL32.dll
 0001:000a6c84       _GetFileTime@16            004a7c84 f   kernel32:KERNEL32.dll
 0001:000a6c8a       _CreateDirectoryW@8        004a7c8a f   kernel32:KERNEL32.dll
 0001:000a6c90       _FindFirstFileW@8          004a7c90 f   kernel32:KERNEL32.dll
 0001:000a6c96       _FindNextFileW@8           004a7c96 f   kernel32:KERNEL32.dll
 0001:000a6c9c       _FindClose@4               004a7c9c f   kernel32:KERNEL32.dll
 0001:000a6ca2       _GetTempPathW@8            004a7ca2 f   kernel32:KERNEL32.dll
 0001:000a6ca8       _GetModuleFileNameW@12     004a7ca8 f   kernel32:KERNEL32.dll
 0001:000a6cae       _GetSystemInfo@4           004a7cae f   kernel32:KERNEL32.dll
 0001:000a6cb4       _HeapDestroy@4             004a7cb4 f   kernel32:KERNEL32.dll
 0001:000a6cba       _CreateEventA@16           004a7cba f   kernel32:KERNEL32.dll
 0001:000a6cc0       _SetEvent@4                004a7cc0 f   kernel32:KERNEL32.dll
 0001:000a6cc6       _CreateThread@24           004a7cc6 f   kernel32:KERNEL32.dll
 0001:000a6ccc       _SetThreadPriority@8       004a7ccc f   kernel32:KERNEL32.dll
 0001:000a6cd2       _ResumeThread@4            004a7cd2 f   kernel32:KERNEL32.dll
 0001:000a6cd8       _GetExitCodeThread@8       004a7cd8 f   kernel32:KERNEL32.dll
 0001:000a6cde       _RaiseException@16         004a7cde f   kernel32:KERNEL32.dll
 0001:000a6ce4       _SetUnhandledExceptionFilter@4 004a7ce4 f   kernel32:KERNEL32.dll
 0001:000a6cea       _CreateFileA@28            004a7cea f   kernel32:KERNEL32.dll
 0001:000a6cf0       _GetCurrentProcess@0       004a7cf0 f   kernel32:KERNEL32.dll
 0001:000a6cf6       _GetCurrentProcessId@0     004a7cf6 f   kernel32:KERNEL32.dll
 0001:000a6cfc       _GetModuleFileNameA@12     004a7cfc f   kernel32:KERNEL32.dll
 0001:000a6d02       _GetLocalTime@4            004a7d02 f   kernel32:KERNEL32.dll
 0001:000a6d08       _GetStdHandle@4            004a7d08 f   kernel32:KERNEL32.dll
 0001:000a6d0e       _GetConsoleMode@8          004a7d0e f   kernel32:KERNEL32.dll
 0001:000a6d14       _WriteConsoleA@20          004a7d14 f   kernel32:KERNEL32.dll
 0001:000a6d1a       _PeekConsoleInputA@16      004a7d1a f   kernel32:KERNEL32.dll
 0001:000a6d20       _FlushConsoleInputBuffer@4 004a7d20 f   kernel32:KERNEL32.dll
 0001:000a6d26       _ReadConsoleA@20           004a7d26 f   kernel32:KERNEL32.dll
 0001:000a6d2c       _MultiByteToWideChar@24    004a7d2c f   kernel32:KERNEL32.dll
 0001:000a6d32       _GetLastError@0            004a7d32 f   kernel32:KERNEL32.dll
 0001:000a6d38       _WideCharToMultiByte@32    004a7d38 f   kernel32:KERNEL32.dll
 0001:000a6d3e       _TlsGetValue@4             004a7d3e f   kernel32:KERNEL32.dll
 0001:000a6d44       _GetSystemTimeAsFileTime@4 004a7d44 f   kernel32:KERNEL32.dll
 0001:000a6d4a       _TlsSetValue@8             004a7d4a f   kernel32:KERNEL32.dll
 0001:000a6d50       _TlsAlloc@0                004a7d50 f   kernel32:KERNEL32.dll
 0001:000a6d56       _GetSystemTime@4           004a7d56 f   kernel32:KERNEL32.dll
 0001:000a6d5c       _MessageBoxA@16            004a7d5c f   user32:USER32.dll
 0001:000a6d62       _FindWindowA@8             004a7d62 f   user32:USER32.dll
 0001:000a6d68       _ShowWindow@8              004a7d68 f   user32:USER32.dll
 0001:000a6d6e       _SHGetFolderPathW@20       004a7d6e f   shell32:SHELL32.dll
 0001:000a6d74       _rand                      004a7d74 f   MSVCRT:MSVCR90.dll
 0001:000a6d7a       __onexit                   004a7d7a f   MSVCRT:atonexit.obj
 0001:000a6e1f       _atexit                    004a7e1f f   MSVCRT:atonexit.obj
 0001:000a6e36       _NtCurrentTeb              004a7e36 f i MSVCRT:crtexe.obj
 0001:000a713e       _mainCRTStartup            004a813e f   MSVCRT:crtexe.obj
 0001:000a7148       __vsnprintf                004a8148 f   MSVCRT:MSVCR90.dll
 0001:000a714e       _strtok                    004a814e f   MSVCRT:MSVCR90.dll
 0001:000a7154       _strchr                    004a8154 f   MSVCRT:MSVCR90.dll
 0001:000a715a       _strpbrk                   004a815a f   MSVCRT:MSVCR90.dll
 0001:000a7160       _strncmp                   004a8160 f   MSVCRT:MSVCR90.dll
 0001:000a7166       _strstr                    004a8166 f   MSVCRT:MSVCR90.dll
 0001:000a716c       _strrchr                   004a816c f   MSVCRT:MSVCR90.dll
 0001:000a7172       _tolower                   004a8172 f   MSVCRT:MSVCR90.dll
 0001:000a7178       _toupper                   004a8178 f   MSVCRT:MSVCR90.dll
 0001:000a717e       _atoi                      004a817e f   MSVCRT:MSVCR90.dll
 0001:000a7184       _atof                      004a8184 f   MSVCRT:MSVCR90.dll
 0001:000a718a       _isdigit                   004a818a f   MSVCRT:MSVCR90.dll
 0001:000a7190       _isalpha                   004a8190 f   MSVCRT:MSVCR90.dll
 0001:000a7196       _isalnum                   004a8196 f   MSVCRT:MSVCR90.dll
 0001:000a719c       _islower                   004a819c f   MSVCRT:MSVCR90.dll
 0001:000a71a2       _isupper                   004a81a2 f   MSVCRT:MSVCR90.dll
 0001:000a71a8       __cexit                    004a81a8 f   MSVCRT:MSVCR90.dll
 0001:000a71ae       _abort                     004a81ae f   MSVCRT:MSVCR90.dll
 0001:000a71b4       _free                      004a81b4 f   MSVCRT:MSVCR90.dll
 0001:000a71ba       _malloc                    004a81ba f   MSVCRT:MSVCR90.dll
 0001:000a71c0       __purecall                 004a81c0 f   MSVCRT:MSVCR90.dll
 0001:000a71c6       _isspace                   004a81c6 f   MSVCRT:MSVCR90.dll
 0001:000a71cc       _sprintf                   004a81cc f   MSVCRT:MSVCR90.dll
 0001:000a71d2       _strncpy                   004a81d2 f   MSVCRT:MSVCR90.dll
 0001:000a71d8       ___iob_func                004a81d8 f   MSVCRT:MSVCR90.dll
 0001:000a71de       _isxdigit                  004a81de f   MSVCRT:MSVCR90.dll
 0001:000a71e4       __localtime64              004a81e4 f   MSVCRT:MSVCR90.dll
 0001:000a71ea       __unlock                   004a81ea f   MSVCRT:MSVCR90.dll
 0001:000a71f0       ___dllonexit               004a81f0 f   MSVCRT:MSVCR90.dll
 0001:000a71f6       __encode_pointer           004a81f6 f   MSVCRT:MSVCR90.dll
 0001:000a71fc       __lock                     004a81fc f   MSVCRT:MSVCR90.dll
 0001:000a7202       __decode_pointer           004a8202 f   MSVCRT:MSVCR90.dll
 0001:000a7208       __SEH_prolog4              004a8208 f   MSVCRT:sehprolg4.obj
 0001:000a724d       __SEH_epilog4              004a824d f   MSVCRT:sehprolg4.obj
 0001:000a7261       __except_handler4          004a8261 f   MSVCRT:chandler4gs.obj
 0001:000a7286       ?__CxxUnhandledExceptionFilter@@YGJPAU_EXCEPTION_POINTERS@@@Z 004a8286 f   MSVCRT:unhandld.obj
 0001:000a72c8       ___CxxSetUnhandledExceptionFilter 004a82c8 f   MSVCRT:unhandld.obj
 0001:000a72d6       __amsg_exit                004a82d6 f   MSVCRT:MSVCR90.dll
 0001:000a72dc       ___getmainargs             004a82dc f   MSVCRT:MSVCR90.dll
 0001:000a72e2       __RTC_Initialize           004a82e2 f   MSVCRT:_initsect_.obj
 0001:000a7308       __RTC_Terminate            004a8308 f   MSVCRT:_initsect_.obj
 0001:000a732e       __exit                     004a832e f   MSVCRT:MSVCR90.dll
 0001:000a7334       __XcptFilter               004a8334 f   MSVCRT:MSVCR90.dll
 0001:000a733a       _exit                      004a833a f   MSVCRT:MSVCR90.dll
 0001:000a7340       __ValidateImageBase        004a8340 f   MSVCRT:pesect.obj
 0001:000a7380       __FindPESection            004a8380 f   MSVCRT:pesect.obj
 0001:000a73d0       __IsNonwritableInCurrentImage 004a83d0 f   MSVCRT:pesect.obj
 0001:000a748e       __initterm                 004a848e f   MSVCRT:MSVCR90.dll
 0001:000a7494       __initterm_e               004a8494 f   MSVCRT:MSVCR90.dll
 0001:000a749a       __configthreadlocale       004a849a f   MSVCRT:MSVCR90.dll
 0001:000a74a0       __invoke_watson_if_error   004a84a0 f i MSVCRT:fp8.obj
 0001:000a74c4       __setdefaultprecision      004a84c4 f   MSVCRT:fp8.obj
 0001:000a74f0       ___setusermatherr          004a84f0 f   MSVCRT:MSVCR90.dll
 0001:000a74f6       __matherr                  004a84f6 f   MSVCRT:merr.obj
 0001:000a74f9       __setargv                  004a84f9 f   MSVCRT:dllargv.obj
 0001:000a74fc       ___p__commode              004a84fc f   MSVCRT:MSVCR90.dll
 0001:000a7502       ___p__fmode                004a8502 f   MSVCRT:MSVCR90.dll
 0001:000a7508       ___set_app_type            004a8508 f   MSVCRT:MSVCR90.dll
 0001:000a750e       ___security_init_cookie    004a850e f   MSVCRT:gs_support.obj
 0001:000a75a4       @__security_check_cookie@4 004a85a4 f   MSVCRT:secchk.obj
 0001:000a75b4       __except_handler4_common   004a85b4 f   MSVCRT:MSVCR90.dll
 0001:000a75ba       ?terminate@@YAXXZ          004a85ba f   MSVCRT:MSVCR90.dll
 0001:000a75c0       __invoke_watson            004a85c0 f   MSVCRT:MSVCR90.dll
 0001:000a75c6       __controlfp_s              004a85c6 f   MSVCRT:MSVCR90.dll
 0001:000a75cc       ___report_gsfailure        004a85cc f   MSVCRT:gs_report.obj
 0001:000a76d2       __crt_debugger_hook        004a86d2 f   MSVCRT:MSVCR90.dll
 0001:000a76d8       _MiniDumpWriteDump@28      004a86d8 f   dbghelp:dbghelp.dll
 0001:000a76de       _WSAStartup@8              004a86de f   wsock32:WSOCK32.dll
 0001:000a76e4       _socket@12                 004a86e4 f   wsock32:WSOCK32.dll
 0001:000a76ea       _shutdown@8                004a86ea f   wsock32:WSOCK32.dll
 0001:000a76f0       _closesocket@4             004a86f0 f   wsock32:WSOCK32.dll
 0001:000a76f6       _setsockopt@20             004a86f6 f   wsock32:WSOCK32.dll
 0001:000a76fc       _getsockopt@20             004a86fc f   wsock32:WSOCK32.dll
 0001:000a7702       _ioctlsocket@12            004a8702 f   wsock32:WSOCK32.dll
 0001:000a7708       _bind@12                   004a8708 f   wsock32:WSOCK32.dll
 0001:000a770e       _listen@8                  004a870e f   wsock32:WSOCK32.dll
 0001:000a7714       _accept@12                 004a8714 f   wsock32:WSOCK32.dll
 0001:000a771a       _connect@12                004a871a f   wsock32:WSOCK32.dll
 0001:000a7720       _WSAGetLastError@0         004a8720 f   wsock32:WSOCK32.dll
 0001:000a7726       _select@20                 004a8726 f   wsock32:WSOCK32.dll
 0001:000a772c       _send@16                   004a872c f   wsock32:WSOCK32.dll
 0001:000a7732       _recv@16                   004a8732 f   wsock32:WSOCK32.dll
 0001:000a7738       _htons@4                   004a8738 f   wsock32:WSOCK32.dll
 0001:000a773e       _ntohs@4                   004a873e f   wsock32:WSOCK32.dll
 0001:000a7744       _htonl@4                   004a8744 f   wsock32:WSOCK32.dll
 0001:000a774a       _gethostname@8             004a874a f   wsock32:WSOCK32.dll
 0001:000a7750       _gethostbyname@4           004a8750 f   wsock32:WSOCK32.dll
 0001:000a7756       _inet_addr@4               004a8756 f   wsock32:WSOCK32.dll
 0001:000a775c       _UuidFromStringA@8         004a875c f   rpcrt4:RPCRT4.dll
 0001:000a7762       _UuidCompare@12            004a8762 f   rpcrt4:RPCRT4.dll
 0001:000a7768       _UuidIsNil@8               004a8768 f   rpcrt4:RPCRT4.dll
 0001:000a776e       _UuidCreate@4              004a876e f   rpcrt4:RPCRT4.dll
 0001:000a7774       _UuidToStringA@8           004a8774 f   rpcrt4:RPCRT4.dll
 0001:000a777a       _RpcStringFreeA@4          004a877a f   rpcrt4:RPCRT4.dll
 0001:000a7780       _UuidHash@8                004a8780 f   rpcrt4:RPCRT4.dll
 0001:000a7786       _InterlockedExchange@8     004a8786 f   kernel32:KERNEL32.dll
 0001:000a778c       _GetTickCount@0            004a878c f   kernel32:KERNEL32.dll
 0001:000a7792       _TerminateProcess@8        004a8792 f   kernel32:KERNEL32.dll
 0001:000a7798       _UnhandledExceptionFilter@4 004a8798 f   kernel32:KERNEL32.dll
 0001:000a779e       _IsDebuggerPresent@0       004a879e f   kernel32:KERNEL32.dll
 0001:000a77a4       __stricmp                  004a87a4 f   MSVCRT:MSVCR90.dll
 0001:000a77b0       __allshl                   004a87b0 f   MSVCRT:llshl.obj
 0001:000a77d0       __ftol2_sse                004a87d0 f   MSVCRT:ftol2.obj
 0001:000a77d9       __ftol2_pentium4           004a87d9 f   MSVCRT:ftol2.obj
 0001:000a77ec       __ftol2_sse_excpt          004a87ec f   MSVCRT:ftol2.obj
 0001:000a7806       __ftol2                    004a8806 f   MSVCRT:ftol2.obj
 0001:000a787c       _memset                    004a887c f   MSVCRT:MSVCR90.dll
 0001:000a7890       __allmul                   004a8890 f   MSVCRT:llmul.obj
 0001:000a78d0       __chkstk                   004a88d0 f   MSVCRT:chkstk.obj
 0001:000a78d0       __alloca_probe             004a88d0     MSVCRT:chkstk.obj
 0001:000a78fc       _memcpy                    004a88fc f   MSVCRT:MSVCR90.dll
 0001:000a7910       __alldiv                   004a8910 f   MSVCRT:lldiv.obj
 0001:000a79c0       __aullshr                  004a89c0 f   MSVCRT:ullshr.obj
 0001:000a79e0       __except_handler3          004a89e0 f   MSVCRT:MSVCR90.dll
 0001:000a79f0       __aulldiv                  004a89f0 f   MSVCRT:ulldiv.obj
 0001:000a7a60       __aullrem                  004a8a60 f   MSVCRT:ullrem.obj
 0001:000a7ae0       __allshr                   004a8ae0 f   MSVCRT:llshr.obj
 0001:000a7b10       __allrem                   004a8b10 f   MSVCRT:llrem.obj
 0001:000a7c12       __get_sse2_info            004a8c12 f   MSVCRT:cpu_disp.obj
 0001:000a7c74       ___sse2_available_init     004a8c74 f   MSVCRT:cpu_disp.obj
 0002:00000000       __imp__HeapFree@12         004b4000     kernel32:KERNEL32.dll
 0002:00000004       __imp__HeapAlloc@12        004b4004     kernel32:KERNEL32.dll
 0002:00000008       __imp__HeapReAlloc@16      004b4008     kernel32:KERNEL32.dll
 0002:0000000c       __imp__HeapSize@12         004b400c     kernel32:KERNEL32.dll
 0002:00000010       __imp__GlobalMemoryStatus@4 004b4010     kernel32:KERNEL32.dll
 0002:00000014       __imp__InterlockedCompareExchange@12 004b4014     kernel32:KERNEL32.dll
 0002:00000018       __imp__GetCurrentThreadId@0 004b4018     kernel32:KERNEL32.dll
 0002:0000001c       __imp__CreateSemaphoreA@16 004b401c     kernel32:KERNEL32.dll
 0002:00000020       __imp__CloseHandle@4       004b4020     kernel32:KERNEL32.dll
 0002:00000024       __imp__WaitForSingleObject@8 004b4024     kernel32:KERNEL32.dll
 0002:00000028       __imp__ReleaseSemaphore@12 004b4028     kernel32:KERNEL32.dll
 0002:0000002c       __imp__IsProcessorFeaturePresent@4 004b402c     kernel32:KERNEL32.dll
 0002:00000030       __imp__ExitProcess@4       004b4030     kernel32:KERNEL32.dll
 0002:00000034       __imp__Sleep@4             004b4034     kernel32:KERNEL32.dll
 0002:00000038       __imp__OutputDebugStringA@4 004b4038     kernel32:KERNEL32.dll
 0002:0000003c       __imp__QueryPerformanceCounter@4 004b403c     kernel32:KERNEL32.dll
 0002:00000040       __imp__QueryPerformanceFrequency@4 004b4040     kernel32:KERNEL32.dll
 0002:00000044       __imp__HeapCreate@12       004b4044     kernel32:KERNEL32.dll
 0002:00000048       __imp__HeapSetInformation@16 004b4048     kernel32:KERNEL32.dll
 0002:0000004c       __imp__CreateFileW@28      004b404c     kernel32:KERNEL32.dll
 0002:00000050       __imp__SetFilePointer@16   004b4050     kernel32:KERNEL32.dll
 0002:00000054       __imp__WriteFile@20        004b4054     kernel32:KERNEL32.dll
 0002:00000058       __imp__ReadFile@20         004b4058     kernel32:KERNEL32.dll
 0002:0000005c       __imp__FlushFileBuffers@4  004b405c     kernel32:KERNEL32.dll
 0002:00000060       __imp__GetFileSize@8       004b4060     kernel32:KERNEL32.dll
 0002:00000064       __imp__GetFileAttributesW@4 004b4064     kernel32:KERNEL32.dll
 0002:00000068       __imp__SetFileAttributesA@8 004b4068     kernel32:KERNEL32.dll
 0002:0000006c       __imp__DeleteFileW@4       004b406c     kernel32:KERNEL32.dll
 0002:00000070       __imp__RemoveDirectoryW@4  004b4070     kernel32:KERNEL32.dll
 0002:00000074       __imp__SetFileTime@16      004b4074     kernel32:KERNEL32.dll
 0002:00000078       __imp__GetFileTime@16      004b4078     kernel32:KERNEL32.dll
 0002:0000007c       __imp__CreateDirectoryW@8  004b407c     kernel32:KERNEL32.dll
 0002:00000080       __imp__FindFirstFileW@8    004b4080     kernel32:KERNEL32.dll
 0002:00000084       __imp__FindNextFileW@8     004b4084     kernel32:KERNEL32.dll
 0002:00000088       __imp__FindClose@4         004b4088     kernel32:KERNEL32.dll
 0002:0000008c       __imp__GetTempPathW@8      004b408c     kernel32:KERNEL32.dll
 0002:00000090       __imp__GetModuleFileNameW@12 004b4090     kernel32:KERNEL32.dll
 0002:00000094       __imp__GetSystemInfo@4     004b4094     kernel32:KERNEL32.dll
 0002:00000098       __imp__HeapDestroy@4       004b4098     kernel32:KERNEL32.dll
 0002:0000009c       __imp__CreateEventA@16     004b409c     kernel32:KERNEL32.dll
 0002:000000a0       __imp__SetEvent@4          004b40a0     kernel32:KERNEL32.dll
 0002:000000a4       __imp__CreateThread@24     004b40a4     kernel32:KERNEL32.dll
 0002:000000a8       __imp__SetThreadPriority@8 004b40a8     kernel32:KERNEL32.dll
 0002:000000ac       __imp__ResumeThread@4      004b40ac     kernel32:KERNEL32.dll
 0002:000000b0       __imp__GetExitCodeThread@8 004b40b0     kernel32:KERNEL32.dll
 0002:000000b4       __imp__RaiseException@16   004b40b4     kernel32:KERNEL32.dll
 0002:000000b8       __imp__SetUnhandledExceptionFilter@4 004b40b8     kernel32:KERNEL32.dll
 0002:000000bc       __imp__CreateFileA@28      004b40bc     kernel32:KERNEL32.dll
 0002:000000c0       __imp__GetCurrentProcess@0 004b40c0     kernel32:KERNEL32.dll
 0002:000000c4       __imp__GetCurrentProcessId@0 004b40c4     kernel32:KERNEL32.dll
 0002:000000c8       __imp__GetModuleFileNameA@12 004b40c8     kernel32:KERNEL32.dll
 0002:000000cc       __imp__GetLocalTime@4      004b40cc     kernel32:KERNEL32.dll
 0002:000000d0       __imp__GetStdHandle@4      004b40d0     kernel32:KERNEL32.dll
 0002:000000d4       __imp__GetConsoleMode@8    004b40d4     kernel32:KERNEL32.dll
 0002:000000d8       __imp__WriteConsoleA@20    004b40d8     kernel32:KERNEL32.dll
 0002:000000dc       __imp__PeekConsoleInputA@16 004b40dc     kernel32:KERNEL32.dll
 0002:000000e0       __imp__FlushConsoleInputBuffer@4 004b40e0     kernel32:KERNEL32.dll
 0002:000000e4       __imp__ReadConsoleA@20     004b40e4     kernel32:KERNEL32.dll
 0002:000000e8       __imp__MultiByteToWideChar@24 004b40e8     kernel32:KERNEL32.dll
 0002:000000ec       __imp__GetLastError@0      004b40ec     kernel32:KERNEL32.dll
 0002:000000f0       __imp__WideCharToMultiByte@32 004b40f0     kernel32:KERNEL32.dll
 0002:000000f4       __imp__TlsGetValue@4       004b40f4     kernel32:KERNEL32.dll
 0002:000000f8       __imp__GetSystemTimeAsFileTime@4 004b40f8     kernel32:KERNEL32.dll
 0002:000000fc       __imp__TlsSetValue@8       004b40fc     kernel32:KERNEL32.dll
 0002:00000100       __imp__TlsAlloc@0          004b4100     kernel32:KERNEL32.dll
 0002:00000104       __imp__GetSystemTime@4     004b4104     kernel32:KERNEL32.dll
 0002:00000108       __imp__GetTickCount@0      004b4108     kernel32:KERNEL32.dll
 0002:0000010c       __imp__TerminateProcess@8  004b410c     kernel32:KERNEL32.dll
 0002:00000110       __imp__UnhandledExceptionFilter@4 004b4110     kernel32:KERNEL32.dll
 0002:00000114       __imp__IsDebuggerPresent@0 004b4114     kernel32:KERNEL32.dll
 0002:00000118       __imp__InterlockedExchange@8 004b4118     kernel32:KERNEL32.dll
 0002:0000011c       \177KERNEL32_NULL_THUNK_DATA 004b411c     kernel32:KERNEL32.dll
 0002:00000120       __imp__memset              004b4120     MSVCRT:MSVCR90.dll
 0002:00000124       __imp__rand                004b4124     MSVCRT:MSVCR90.dll
 0002:00000128       __imp___vsnprintf          004b4128     MSVCRT:MSVCR90.dll
 0002:0000012c       __imp__strtok              004b412c     MSVCRT:MSVCR90.dll
 0002:00000130       __imp__strchr              004b4130     MSVCRT:MSVCR90.dll
 0002:00000134       __imp__strpbrk             004b4134     MSVCRT:MSVCR90.dll
 0002:00000138       __imp__strncmp             004b4138     MSVCRT:MSVCR90.dll
 0002:0000013c       __imp__strstr              004b413c     MSVCRT:MSVCR90.dll
 0002:00000140       __imp__strrchr             004b4140     MSVCRT:MSVCR90.dll
 0002:00000144       __imp__tolower             004b4144     MSVCRT:MSVCR90.dll
 0002:00000148       __imp__toupper             004b4148     MSVCRT:MSVCR90.dll
 0002:0000014c       __imp__atoi                004b414c     MSVCRT:MSVCR90.dll
 0002:00000150       __imp__atof                004b4150     MSVCRT:MSVCR90.dll
 0002:00000154       __imp__isdigit             004b4154     MSVCRT:MSVCR90.dll
 0002:00000158       __imp__isalpha             004b4158     MSVCRT:MSVCR90.dll
 0002:0000015c       __imp__isalnum             004b415c     MSVCRT:MSVCR90.dll
 0002:00000160       __imp__islower             004b4160     MSVCRT:MSVCR90.dll
 0002:00000164       __imp__isupper             004b4164     MSVCRT:MSVCR90.dll
 0002:00000168       __imp___cexit              004b4168     MSVCRT:MSVCR90.dll
 0002:0000016c       __imp__abort               004b416c     MSVCRT:MSVCR90.dll
 0002:00000170       __imp__free                004b4170     MSVCRT:MSVCR90.dll
 0002:00000174       __imp__malloc              004b4174     MSVCRT:MSVCR90.dll
 0002:00000178       __imp___purecall           004b4178     MSVCRT:MSVCR90.dll
 0002:0000017c       __imp__isspace             004b417c     MSVCRT:MSVCR90.dll
 0002:00000180       __imp__sprintf             004b4180     MSVCRT:MSVCR90.dll
 0002:00000184       __imp__strncpy             004b4184     MSVCRT:MSVCR90.dll
 0002:00000188       __imp____iob_func          004b4188     MSVCRT:MSVCR90.dll
 0002:0000018c       __imp__isxdigit            004b418c     MSVCRT:MSVCR90.dll
 0002:00000190       __imp___localtime64        004b4190     MSVCRT:MSVCR90.dll
 0002:00000194       __imp___unlock             004b4194     MSVCRT:MSVCR90.dll
 0002:00000198       __imp____dllonexit         004b4198     MSVCRT:MSVCR90.dll
 0002:0000019c       __imp___encode_pointer     004b419c     MSVCRT:MSVCR90.dll
 0002:000001a0       __imp___lock               004b41a0     MSVCRT:MSVCR90.dll
 0002:000001a4       __imp___onexit             004b41a4     MSVCRT:MSVCR90.dll
 0002:000001a8       __imp___decode_pointer     004b41a8     MSVCRT:MSVCR90.dll
 0002:000001ac       __imp___amsg_exit          004b41ac     MSVCRT:MSVCR90.dll
 0002:000001b0       __imp____getmainargs       004b41b0     MSVCRT:MSVCR90.dll
 0002:000001b4       __imp___exit               004b41b4     MSVCRT:MSVCR90.dll
 0002:000001b8       __imp___XcptFilter         004b41b8     MSVCRT:MSVCR90.dll
 0002:000001bc       __imp__exit                004b41bc     MSVCRT:MSVCR90.dll
 0002:000001c0       __imp____initenv           004b41c0     MSVCRT:MSVCR90.dll
 0002:000001c4       __imp___initterm           004b41c4     MSVCRT:MSVCR90.dll
 0002:000001c8       __imp___initterm_e         004b41c8     MSVCRT:MSVCR90.dll
 0002:000001cc       __imp___configthreadlocale 004b41cc     MSVCRT:MSVCR90.dll
 0002:000001d0       __imp____setusermatherr    004b41d0     MSVCRT:MSVCR90.dll
 0002:000001d4       __imp___adjust_fdiv        004b41d4     MSVCRT:MSVCR90.dll
 0002:000001d8       __imp____p__commode        004b41d8     MSVCRT:MSVCR90.dll
 0002:000001dc       __imp____p__fmode          004b41dc     MSVCRT:MSVCR90.dll
 0002:000001e0       __imp____set_app_type      004b41e0     MSVCRT:MSVCR90.dll
 0002:000001e4       __imp___except_handler4_common 004b41e4     MSVCRT:MSVCR90.dll
 0002:000001e8       __imp_?terminate@@YAXXZ    004b41e8     MSVCRT:MSVCR90.dll
 0002:000001ec       __imp___invoke_watson      004b41ec     MSVCRT:MSVCR90.dll
 0002:000001f0       __imp___controlfp_s        004b41f0     MSVCRT:MSVCR90.dll
 0002:000001f4       __imp___crt_debugger_hook  004b41f4     MSVCRT:MSVCR90.dll
 0002:000001f8       __imp__memcpy              004b41f8     MSVCRT:MSVCR90.dll
 0002:000001fc       __imp__stricmp             004b41fc     MSVCRT:MSVCR90.dll
 0002:000001fc       __imp___stricmp            004b41fc     MSVCRT:MSVCR90.dll
 0002:00000200       __imp___except_handler3    004b4200     MSVCRT:MSVCR90.dll
 0002:00000204       \177MSVCR90_NULL_THUNK_DATA 004b4204     MSVCRT:MSVCR90.dll
 0002:00000208       __imp__UuidCompare@12      004b4208     rpcrt4:RPCRT4.dll
 0002:0000020c       __imp__UuidIsNil@8         004b420c     rpcrt4:RPCRT4.dll
 0002:00000210       __imp__UuidCreate@4        004b4210     rpcrt4:RPCRT4.dll
 0002:00000214       __imp__UuidToStringA@8     004b4214     rpcrt4:RPCRT4.dll
 0002:00000218       __imp__RpcStringFreeA@4    004b4218     rpcrt4:RPCRT4.dll
 0002:0000021c       __imp__UuidHash@8          004b421c     rpcrt4:RPCRT4.dll
 0002:00000220       __imp__UuidFromStringA@8   004b4220     rpcrt4:RPCRT4.dll
 0002:00000224       \177RPCRT4_NULL_THUNK_DATA 004b4224     rpcrt4:RPCRT4.dll
 0002:00000228       __imp__SHGetFolderPathW@20 004b4228     shell32:SHELL32.dll
 0002:0000022c       \177SHELL32_NULL_THUNK_DATA 004b422c     shell32:SHELL32.dll
 0002:00000230       __imp__FindWindowA@8       004b4230     user32:USER32.dll
 0002:00000234       __imp__MessageBoxA@16      004b4234     user32:USER32.dll
 0002:00000238       __imp__ShowWindow@8        004b4238     user32:USER32.dll
 0002:0000023c       \177USER32_NULL_THUNK_DATA 004b423c     user32:USER32.dll
 0002:00000240       __imp__htons@4             004b4240     wsock32:WSOCK32.dll
 0002:00000244       __imp__ntohs@4             004b4244     wsock32:WSOCK32.dll
 0002:00000248       __imp__htonl@4             004b4248     wsock32:WSOCK32.dll
 0002:0000024c       __imp__recv@16             004b424c     wsock32:WSOCK32.dll
 0002:00000250       __imp__gethostbyname@4     004b4250     wsock32:WSOCK32.dll
 0002:00000254       __imp__inet_addr@4         004b4254     wsock32:WSOCK32.dll
 0002:00000258       __imp__send@16             004b4258     wsock32:WSOCK32.dll
 0002:0000025c       __imp__select@20           004b425c     wsock32:WSOCK32.dll
 0002:00000260       __imp__WSAGetLastError@0   004b4260     wsock32:WSOCK32.dll
 0002:00000264       __imp__connect@12          004b4264     wsock32:WSOCK32.dll
 0002:00000268       __imp__accept@12           004b4268     wsock32:WSOCK32.dll
 0002:0000026c       __imp__listen@8            004b426c     wsock32:WSOCK32.dll
 0002:00000270       __imp__bind@12             004b4270     wsock32:WSOCK32.dll
 0002:00000274       __imp__ioctlsocket@12      004b4274     wsock32:WSOCK32.dll
 0002:00000278       __imp__getsockopt@20       004b4278     wsock32:WSOCK32.dll
 0002:0000027c       __imp__setsockopt@20       004b427c     wsock32:WSOCK32.dll
 0002:00000280       __imp__closesocket@4       004b4280     wsock32:WSOCK32.dll
 0002:00000284       __imp__shutdown@8          004b4284     wsock32:WSOCK32.dll
 0002:00000288       __imp__socket@12           004b4288     wsock32:WSOCK32.dll
 0002:0000028c       __imp__gethostname@8       004b428c     wsock32:WSOCK32.dll
 0002:00000290       __imp__WSAStartup@8        004b4290     wsock32:WSOCK32.dll
 0002:00000294       \177WSOCK32_NULL_THUNK_DATA 004b4294     wsock32:WSOCK32.dll
 0002:00000298       __imp__MiniDumpWriteDump@28 004b4298     dbghelp:dbghelp.dll
 0002:0000029c       \177dbghelp_NULL_THUNK_DATA 004b429c     dbghelp:dbghelp.dll
 0002:000002a0       ___xc_a                    004b42a0     MSVCRT:cinitexe.obj
 0002:000006d8       ___xc_z                    004b46d8     MSVCRT:cinitexe.obj
 0002:000006dc       ___xi_a                    004b46dc     MSVCRT:cinitexe.obj
 0002:000006ec       ___xi_z                    004b46ec     MSVCRT:cinitexe.obj
 0002:000006f0       ___xl_a                    004b46f0     MSVCRT:tlssup.obj
 0002:000006f4       ___xl_z                    004b46f4     MSVCRT:tlssup.obj
 0002:0000071c       ?ProcessDetach@NativeDll@<CrtImplementationDetails>@@0IB 004b471c     MSVCRT:unhandld.obj
 0002:00000720       ?ProcessAttach@NativeDll@<CrtImplementationDetails>@@0IB 004b4720     MSVCRT:unhandld.obj
 0002:00000724       ?ThreadAttach@NativeDll@<CrtImplementationDetails>@@0IB 004b4724     MSVCRT:unhandld.obj
 0002:00000728       ?ThreadDetach@NativeDll@<CrtImplementationDetails>@@0IB 004b4728     MSVCRT:unhandld.obj
 0002:0000072c       ?ProcessVerifier@NativeDll@<CrtImplementationDetails>@@0IB 004b472c     MSVCRT:unhandld.obj
 0002:00000738       ??_C@_0P@GHFPNOJB@bad?5allocation?$AA@ 004b4738     stdneb.obj
 0002:00000750       ?g_XMSinCoefficients0@@3UXMVECTORF32@@B 004b4750     stdneb.obj
 0002:00000760       ?g_XMSinCoefficients1@@3UXMVECTORF32@@B 004b4760     stdneb.obj
 0002:00000770       ?g_XMSinCoefficients2@@3UXMVECTORF32@@B 004b4770     stdneb.obj
 0002:00000780       ?g_XMCosCoefficients0@@3UXMVECTORF32@@B 004b4780     stdneb.obj
 0002:00000790       ?g_XMCosCoefficients1@@3UXMVECTORF32@@B 004b4790     stdneb.obj
 0002:000007a0       ?g_XMCosCoefficients2@@3UXMVECTORF32@@B 004b47a0     stdneb.obj
 0002:000007b0       ?g_XMTanCoefficients0@@3UXMVECTORF32@@B 004b47b0     stdneb.obj
 0002:000007c0       ?g_XMTanCoefficients1@@3UXMVECTORF32@@B 004b47c0     stdneb.obj
 0002:000007d0       ?g_XMTanCoefficients2@@3UXMVECTORF32@@B 004b47d0     stdneb.obj
 0002:000007e0       ?g_XMASinCoefficients0@@3UXMVECTORF32@@B 004b47e0     stdneb.obj
 0002:000007f0       ?g_XMASinCoefficients1@@3UXMVECTORF32@@B 004b47f0     stdneb.obj
 0002:00000800       ?g_XMASinCoefficients2@@3UXMVECTORF32@@B 004b4800     stdneb.obj
 0002:00000810       ?g_XMATanCoefficients0@@3UXMVECTORF32@@B 004b4810     stdneb.obj
 0002:00000820       ?g_XMATanCoefficients1@@3UXMVECTORF32@@B 004b4820     stdneb.obj
 0002:00000830       ?g_XMATanCoefficients2@@3UXMVECTORF32@@B 004b4830     stdneb.obj
 0002:00000840       ?g_XMSinEstCoefficients@@3UXMVECTORF32@@B 004b4840     stdneb.obj
 0002:00000850       ?g_XMCosEstCoefficients@@3UXMVECTORF32@@B 004b4850     stdneb.obj
 0002:00000860       ?g_XMTanEstCoefficients@@3UXMVECTORF32@@B 004b4860     stdneb.obj
 0002:00000870       ?g_XMATanEstCoefficients@@3UXMVECTORF32@@B 004b4870     stdneb.obj
 0002:00000880       ?g_XMASinEstCoefficients@@3UXMVECTORF32@@B 004b4880     stdneb.obj
 0002:00000890       ?g_XMASinEstConstants@@3UXMVECTORF32@@B 004b4890     stdneb.obj
 0002:000008a0       ?g_XMPiConstants0@@3UXMVECTORF32@@B 004b48a0     stdneb.obj
 0002:000008b0       ?g_XMIdentityR0@@3UXMVECTORF32@@B 004b48b0     stdneb.obj
 0002:000008c0       ?g_XMIdentityR1@@3UXMVECTORF32@@B 004b48c0     stdneb.obj
 0002:000008d0       ?g_XMIdentityR2@@3UXMVECTORF32@@B 004b48d0     stdneb.obj
 0002:000008e0       ?g_XMIdentityR3@@3UXMVECTORF32@@B 004b48e0     stdneb.obj
 0002:000008f0       ?g_XMNegIdentityR0@@3UXMVECTORF32@@B 004b48f0     stdneb.obj
 0002:00000900       ?g_XMNegIdentityR1@@3UXMVECTORF32@@B 004b4900     stdneb.obj
 0002:00000910       ?g_XMNegIdentityR2@@3UXMVECTORF32@@B 004b4910     stdneb.obj
 0002:00000920       ?g_XMNegIdentityR3@@3UXMVECTORF32@@B 004b4920     stdneb.obj
 0002:00000930       ?g_XMNegativeZero@@3UXMVECTORI32@@B 004b4930     stdneb.obj
 0002:00000940       ?g_XMNegate3@@3UXMVECTORI32@@B 004b4940     stdneb.obj
 0002:00000950       ?g_XMMask3@@3UXMVECTORI32@@B 004b4950     stdneb.obj
 0002:00000960       ?g_XMMaskX@@3UXMVECTORI32@@B 004b4960     stdneb.obj
 0002:00000970       ?g_XMMaskY@@3UXMVECTORI32@@B 004b4970     stdneb.obj
 0002:00000980       ?g_XMMaskZ@@3UXMVECTORI32@@B 004b4980     stdneb.obj
 0002:00000990       ?g_XMMaskW@@3UXMVECTORI32@@B 004b4990     stdneb.obj
 0002:000009a0       ?g_XMOne@@3UXMVECTORF32@@B 004b49a0     stdneb.obj
 0002:000009b0       ?g_XMOne3@@3UXMVECTORF32@@B 004b49b0     stdneb.obj
 0002:000009c0       ?g_XMZero@@3UXMVECTORF32@@B 004b49c0     stdneb.obj
 0002:000009d0       ?g_XMNegativeOne@@3UXMVECTORF32@@B 004b49d0     stdneb.obj
 0002:000009e0       ?g_XMOneHalf@@3UXMVECTORF32@@B 004b49e0     stdneb.obj
 0002:000009f0       ?g_XMNegativeOneHalf@@3UXMVECTORF32@@B 004b49f0     stdneb.obj
 0002:00000a00       ?g_XMNegativeTwoPi@@3UXMVECTORF32@@B 004b4a00     stdneb.obj
 0002:00000a10       ?g_XMNegativePi@@3UXMVECTORF32@@B 004b4a10     stdneb.obj
 0002:00000a20       ?g_XMHalfPi@@3UXMVECTORF32@@B 004b4a20     stdneb.obj
 0002:00000a30       ?g_XMPi@@3UXMVECTORF32@@B  004b4a30     stdneb.obj
 0002:00000a40       ?g_XMReciprocalPi@@3UXMVECTORF32@@B 004b4a40     stdneb.obj
 0002:00000a50       ?g_XMTwoPi@@3UXMVECTORF32@@B 004b4a50     stdneb.obj
 0002:00000a60       ?g_XMReciprocalTwoPi@@3UXMVECTORF32@@B 004b4a60     stdneb.obj
 0002:00000a70       ?g_XMEpsilon@@3UXMVECTORF32@@B 004b4a70     stdneb.obj
 0002:00000a80       ?g_XMInfinity@@3UXMVECTORI32@@B 004b4a80     stdneb.obj
 0002:00000a90       ?g_XMQNaN@@3UXMVECTORI32@@B 004b4a90     stdneb.obj
 0002:00000aa0       ?g_XMQNaNTest@@3UXMVECTORI32@@B 004b4aa0     stdneb.obj
 0002:00000ab0       ?g_XMAbsMask@@3UXMVECTORI32@@B 004b4ab0     stdneb.obj
 0002:00000ac0       ?g_XMFltMin@@3UXMVECTORI32@@B 004b4ac0     stdneb.obj
 0002:00000ad0       ?g_XMFltMax@@3UXMVECTORI32@@B 004b4ad0     stdneb.obj
 0002:00000ae0       ?g_XMNegOneMask@@3UXMVECTORI32@@B 004b4ae0     stdneb.obj
 0002:00000af0       ?g_XMMaskA8R8G8B8@@3UXMVECTORI32@@B 004b4af0     stdneb.obj
 0002:00000b00       ?g_XMFlipA8R8G8B8@@3UXMVECTORI32@@B 004b4b00     stdneb.obj
 0002:00000b10       ?g_XMFixAA8R8G8B8@@3UXMVECTORF32@@B 004b4b10     stdneb.obj
 0002:00000b20       ?g_XMNormalizeA8R8G8B8@@3UXMVECTORF32@@B 004b4b20     stdneb.obj
 0002:00000b30       ?g_XMMaskA2B10G10R10@@3UXMVECTORI32@@B 004b4b30     stdneb.obj
 0002:00000b40       ?g_XMFlipA2B10G10R10@@3UXMVECTORI32@@B 004b4b40     stdneb.obj
 0002:00000b50       ?g_XMFixAA2B10G10R10@@3UXMVECTORF32@@B 004b4b50     stdneb.obj
 0002:00000b60       ?g_XMNormalizeA2B10G10R10@@3UXMVECTORF32@@B 004b4b60     stdneb.obj
 0002:00000b70       ?g_XMMaskX16Y16@@3UXMVECTORI32@@B 004b4b70     stdneb.obj
 0002:00000b80       ?g_XMFlipX16Y16@@3UXMVECTORI32@@B 004b4b80     stdneb.obj
 0002:00000b90       ?g_XMFixX16Y16@@3UXMVECTORF32@@B 004b4b90     stdneb.obj
 0002:00000ba0       ?g_XMNormalizeX16Y16@@3UXMVECTORF32@@B 004b4ba0     stdneb.obj
 0002:00000bb0       ?g_XMMaskX16Y16Z16W16@@3UXMVECTORI32@@B 004b4bb0     stdneb.obj
 0002:00000bc0       ?g_XMFlipX16Y16Z16W16@@3UXMVECTORI32@@B 004b4bc0     stdneb.obj
 0002:00000bd0       ?g_XMFixX16Y16Z16W16@@3UXMVECTORF32@@B 004b4bd0     stdneb.obj
 0002:00000be0       ?g_XMNormalizeX16Y16Z16W16@@3UXMVECTORF32@@B 004b4be0     stdneb.obj
 0002:00000bf0       ?g_XMNoFraction@@3UXMVECTORF32@@B 004b4bf0     stdneb.obj
 0002:00000c00       ?g_XMMaskByte@@3UXMVECTORI32@@B 004b4c00     stdneb.obj
 0002:00000c10       ?g_XMNegateX@@3UXMVECTORF32@@B 004b4c10     stdneb.obj
 0002:00000c20       ?g_XMNegateY@@3UXMVECTORF32@@B 004b4c20     stdneb.obj
 0002:00000c30       ?g_XMNegateZ@@3UXMVECTORF32@@B 004b4c30     stdneb.obj
 0002:00000c40       ?g_XMNegateW@@3UXMVECTORF32@@B 004b4c40     stdneb.obj
 0002:00000c50       ?g_XMSelect0101@@3UXMVECTORI32@@B 004b4c50     stdneb.obj
 0002:00000c60       ?g_XMSelect1010@@3UXMVECTORI32@@B 004b4c60     stdneb.obj
 0002:00000c70       ?g_XMOneHalfMinusEpsilon@@3UXMVECTORI32@@B 004b4c70     stdneb.obj
 0002:00000c80       ?g_XMSelect1000@@3UXMVECTORI32@@B 004b4c80     stdneb.obj
 0002:00000c90       ?g_XMSelect1100@@3UXMVECTORI32@@B 004b4c90     stdneb.obj
 0002:00000ca0       ?g_XMSelect1110@@3UXMVECTORI32@@B 004b4ca0     stdneb.obj
 0002:00000cb0       ?g_XMSwizzleXYXY@@3UXMVECTORI32@@B 004b4cb0     stdneb.obj
 0002:00000cc0       ?g_XMSwizzleXYZX@@3UXMVECTORI32@@B 004b4cc0     stdneb.obj
 0002:00000cd0       ?g_XMSwizzleYXZW@@3UXMVECTORI32@@B 004b4cd0     stdneb.obj
 0002:00000ce0       ?g_XMSwizzleYZXW@@3UXMVECTORI32@@B 004b4ce0     stdneb.obj
 0002:00000cf0       ?g_XMSwizzleZXYW@@3UXMVECTORI32@@B 004b4cf0     stdneb.obj
 0002:00000d00       ?g_XMPermute0X0Y1X1Y@@3UXMVECTORI32@@B 004b4d00     stdneb.obj
 0002:00000d10       ?g_XMPermute0Z0W1Z1W@@3UXMVECTORI32@@B 004b4d10     stdneb.obj
 0002:00000d20       ?g_XMFixupY16@@3UXMVECTORF32@@B 004b4d20     stdneb.obj
 0002:00000d30       ?g_XMFixupY16W16@@3UXMVECTORF32@@B 004b4d30     stdneb.obj
 0002:00000d40       ?g_XMFlipY@@3UXMVECTORI32@@B 004b4d40     stdneb.obj
 0002:00000d50       ?g_XMFlipZ@@3UXMVECTORI32@@B 004b4d50     stdneb.obj
 0002:00000d60       ?g_XMFlipW@@3UXMVECTORI32@@B 004b4d60     stdneb.obj
 0002:00000d70       ?g_XMFlipYZ@@3UXMVECTORI32@@B 004b4d70     stdneb.obj
 0002:00000d80       ?g_XMFlipZW@@3UXMVECTORI32@@B 004b4d80     stdneb.obj
 0002:00000d90       ?g_XMFlipYW@@3UXMVECTORI32@@B 004b4d90     stdneb.obj
 0002:00000da0       ?g_XMMaskHenD3@@3UXMVECTORI32@@B 004b4da0     stdneb.obj
 0002:00000db0       ?g_XMMaskDHen3@@3UXMVECTORI32@@B 004b4db0     stdneb.obj
 0002:00000dc0       ?g_XMAddUHenD3@@3UXMVECTORF32@@B 004b4dc0     stdneb.obj
 0002:00000dd0       ?g_XMAddHenD3@@3UXMVECTORF32@@B 004b4dd0     stdneb.obj
 0002:00000de0       ?g_XMAddDHen3@@3UXMVECTORF32@@B 004b4de0     stdneb.obj
 0002:00000df0       ?g_XMMulHenD3@@3UXMVECTORF32@@B 004b4df0     stdneb.obj
 0002:00000e00       ?g_XMMulDHen3@@3UXMVECTORF32@@B 004b4e00     stdneb.obj
 0002:00000e10       ?g_XMXorHenD3@@3UXMVECTORI32@@B 004b4e10     stdneb.obj
 0002:00000e20       ?g_XMXorDHen3@@3UXMVECTORI32@@B 004b4e20     stdneb.obj
 0002:00000e30       ?g_XMMaskIco4@@3UXMVECTORI32@@B 004b4e30     stdneb.obj
 0002:00000e40       ?g_XMXorXIco4@@3UXMVECTORI32@@B 004b4e40     stdneb.obj
 0002:00000e50       ?g_XMXorIco4@@3UXMVECTORI32@@B 004b4e50     stdneb.obj
 0002:00000e60       ?g_XMAddXIco4@@3UXMVECTORF32@@B 004b4e60     stdneb.obj
 0002:00000e70       ?g_XMAddUIco4@@3UXMVECTORF32@@B 004b4e70     stdneb.obj
 0002:00000e80       ?g_XMAddIco4@@3UXMVECTORF32@@B 004b4e80     stdneb.obj
 0002:00000e90       ?g_XMMulIco4@@3UXMVECTORF32@@B 004b4e90     stdneb.obj
 0002:00000ea0       ?g_XMMaskDec4@@3UXMVECTORI32@@B 004b4ea0     stdneb.obj
 0002:00000eb0       ?g_XMXorDec4@@3UXMVECTORI32@@B 004b4eb0     stdneb.obj
 0002:00000ec0       ?g_XMAddUDec4@@3UXMVECTORF32@@B 004b4ec0     stdneb.obj
 0002:00000ed0       ?g_XMAddDec4@@3UXMVECTORF32@@B 004b4ed0     stdneb.obj
 0002:00000ee0       ?g_XMMulDec4@@3UXMVECTORF32@@B 004b4ee0     stdneb.obj
 0002:00000ef0       ?g_XMMaskByte4@@3UXMVECTORI32@@B 004b4ef0     stdneb.obj
 0002:00000f00       ?g_XMXorByte4@@3UXMVECTORI32@@B 004b4f00     stdneb.obj
 0002:00000f10       ?g_XMAddByte4@@3UXMVECTORF32@@B 004b4f10     stdneb.obj
 0002:00002ee8       _sqlite3OpcodeNames        004b6ee8     sqlite_win32.release:sqlite_opcodes.obj
 0002:000038c0       _sqlite3IsIdChar           004b78c0     sqlite_win32.release:sqlite_tokenize.obj
 0002:00003a60       _sqlite3_apis              004b7a60     sqlite_win32.release:sqlite_loadext.obj
 0002:00003e28       _sqlite3UpperToLower       004b7e28     sqlite_win32.release:sqlite_util.obj
 0002:00004164       _sqlite3one                004b8164     sqlite_win32.release:sqlite_main.obj
 0002:00004168       _sqlite3_version           004b8168     sqlite_win32.release:sqlite_main.obj
 0002:00004304       _inflate_copyright         004b8304     zlib_win32.release:inftrees.obj
 0002:00004438       _z_errmsg                  004b8438     zlib_win32.release:zutil.obj
 0002:00006df0       _unz_copyright             004badf0     zlib_win32.release:unzip.obj
 0002:000071c4       ??_C@_0DG@BHCBMOED@c?3?2nebula3?2code?2foundation?2memor@ 004bb1c4     databaseinsert.obj
 0002:000071fc       ??_C@_08PLJADLOO@0?5?$CB?$DN?5ptr?$AA@ 004bb1fc     databaseinsert.obj
 0002:00007208       ??_C@_0N@CFANLGAN@0?5?$CB?$DN?5success?$AA@ 004bb208     databaseinsert.obj
 0002:00007218       ?FreeBlockPattern@Win360MemoryPool@Win360@@0IB 004bb218     databaseinsert.obj
 0002:0000721c       ?NewBlockPattern@Win360MemoryPool@Win360@@0IB 004bb21c     databaseinsert.obj
 0002:00007220       ?BlockAlign@Win360MemoryPool@Win360@@0HB 004bb220     databaseinsert.obj
 0002:00007224       ?NumPools@PoolArrayAllocator@Memory@@2HB 004bb224     databaseinsert.obj
 0002:00007228       ?MinGrowSize@?$Array@VString@Util@@@Util@@0HB 004bb228     databaseinsert.obj
 0002:0000722c       ?MaxGrowSize@?$Array@VString@Util@@@Util@@0HB 004bb22c     databaseinsert.obj
 0002:00007230       ?MinGrowSize@?$Array@V?$KeyValuePair@VFourCC@Util@@PBVRtti@Core@@@Util@@@Util@@0HB 004bb230     databaseinsert.obj
 0002:00007234       ?MaxGrowSize@?$Array@V?$KeyValuePair@VFourCC@Util@@PBVRtti@Core@@@Util@@@Util@@0HB 004bb234     databaseinsert.obj
 0002:00007238       ??_C@_0CE@KMAJEGHH@c?3?2nebula3?2code?2foundation?2io?1ur@ 004bb238     databaseinsert.obj
 0002:0000725c       ??_C@_08JGMIMLOF@validUri?$AA@ 004bb25c     databaseinsert.obj
 0002:00007268       ??_C@_0CH@KLAPDODG@c?3?2nebula3?2code?2foundation?2util?1@ 004bb268     databaseinsert.obj
 0002:00007290       ??_C@_0O@FPDKANJE@0?5?$CB?$DN?5DataHeap?$AA@ 004bb290     databaseinsert.obj
 0002:000072a0       ??_C@_0BA@HENCEEOP@this?9?$DOIsValid?$CI?$CJ?$AA@ 004bb2a0     databaseinsert.obj
 0002:000072b0       ?MinGrowSize@?$Array@H@Util@@0HB 004bb2b0     databaseinsert.obj
 0002:000072b4       ?MaxGrowSize@?$Array@H@Util@@0HB 004bb2b4     databaseinsert.obj
 0002:000072b8       ?MinGrowSize@?$Array@M@Util@@0HB 004bb2b8     databaseinsert.obj
 0002:000072bc       ?MaxGrowSize@?$Array@M@Util@@0HB 004bb2bc     databaseinsert.obj
 0002:000072c0       ?MinGrowSize@?$Array@_N@Util@@0HB 004bb2c0     databaseinsert.obj
 0002:000072c4       ?MaxGrowSize@?$Array@_N@Util@@0HB 004bb2c4     databaseinsert.obj
 0002:000072c8       ?MinGrowSize@?$Array@Vfloat4@Math@@@Util@@0HB 004bb2c8     databaseinsert.obj
 0002:000072cc       ?MaxGrowSize@?$Array@Vfloat4@Math@@@Util@@0HB 004bb2cc     databaseinsert.obj
 0002:000072d0       ?MinGrowSize@?$Array@Vmatrix44@Math@@@Util@@0HB 004bb2d0     databaseinsert.obj
 0002:000072d4       ?MaxGrowSize@?$Array@Vmatrix44@Math@@@Util@@0HB 004bb2d4     databaseinsert.obj
 0002:000072d8       ?MinGrowSize@?$Array@VWin32Guid@Win32@@@Util@@0HB 004bb2d8     databaseinsert.obj
 0002:000072dc       ?MaxGrowSize@?$Array@VWin32Guid@Win32@@@Util@@0HB 004bb2dc     databaseinsert.obj
 0002:000072e0       ?MinGrowSize@?$Array@VBlob@Util@@@Util@@0HB 004bb2e0     databaseinsert.obj
 0002:000072e4       ?MaxGrowSize@?$Array@VBlob@Util@@@Util@@0HB 004bb2e4     databaseinsert.obj
 0002:000072e8       ?MinGrowSize@?$Array@V?$KeyValuePair@VFourCC@Util@@PBVAttributeDefinitionBase@Attr@@@Util@@@Util@@0HB 004bb2e8     databaseinsert.obj
 0002:000072ec       ?MaxGrowSize@?$Array@V?$KeyValuePair@VFourCC@Util@@PBVAttributeDefinitionBase@Attr@@@Util@@@Util@@0HB 004bb2ec     databaseinsert.obj
 0002:000072f0       ??_C@_0CF@CANIINCB@c?3?2nebula3?2code?2addons?2attr?1attr@ 004bb2f0     databaseinsert.obj
 0002:00007318       ??_C@_0CB@JGMLEIFD@this?9?$DOIsValid?$CI?$CJ?5?$CG?$CG?5rhs?4IsValid?$CI?$CJ@ 004bb318     databaseinsert.obj
 0002:0000733c       ?MinGrowSize@?$Array@UColumnInfo@AttributeTable@Attr@@@Util@@0HB 004bb33c     databaseinsert.obj
 0002:00007340       ?MaxGrowSize@?$Array@UColumnInfo@AttributeTable@Attr@@@Util@@0HB 004bb340     databaseinsert.obj
 0002:00007344       ?MinGrowSize@?$Array@V?$KeyValuePair@VAttrId@Attr@@H@Util@@@Util@@0HB 004bb344     databaseinsert.obj
 0002:00007348       ?MaxGrowSize@?$Array@V?$KeyValuePair@VAttrId@Attr@@H@Util@@@Util@@0HB 004bb348     databaseinsert.obj
 0002:0000734c       ?MinGrowSize@?$Array@PAX@Util@@0HB 004bb34c     databaseinsert.obj
 0002:00007350       ?MaxGrowSize@?$Array@PAX@Util@@0HB 004bb350     databaseinsert.obj
 0002:00007354       ??_C@_0CN@PDFPGDOD@c?3?2nebula3?2code?2addons?2attr?1attr@ 004bb354     databaseinsert.obj
 0002:00007384       ??_C@_0BJ@MCMJDCME@rowIndex?5?$DM?5this?9?$DOnumRows?$AA@ 004bb384     databaseinsert.obj
 0002:000073a0       ??_C@_0BM@GOMIMBKG@0?5?$CB?$DN?5this?9?$DOrowDeletedBuffer?$AA@ 004bb3a0     databaseinsert.obj
 0002:000073c0       ??_C@_0EA@GDDOLFCP@?$CIcolIndex?5?$DM?5this?9?$DOcolumns?4Size?$CI?$CJ@ 004bb3c0     databaseinsert.obj
 0002:00007400       ??_C@_0CP@DIDGFKD@this?9?$DOGetColumnValueType?$CIcolInde@ 004bb400     databaseinsert.obj
 0002:00007430       ??_C@_0BO@JHCPEIOC@?$CBthis?9?$DOIsRowDeleted?$CIrowIndex?$CJ?$AA@ 004bb430     databaseinsert.obj
 0002:00007450       ??_C@_0DA@FPPPNDDI@this?9?$DOGetColumnValueType?$CIcolInde@ 004bb450     databaseinsert.obj
 0002:00007480       ??_C@_0CO@GBDOIGNA@this?9?$DOGetColumnValueType?$CIcolInde@ 004bb480     databaseinsert.obj
 0002:000074b0       ??_C@_0DB@EKJBLMIO@this?9?$DOGetColumnValueType?$CIcolInde@ 004bb4b0     databaseinsert.obj
 0002:000074e4       ??_C@_0CP@CLOMLKFI@this?9?$DOGetColumnValueType?$CIcolInde@ 004bb4e4     databaseinsert.obj
 0002:00007514       ?MinGrowSize@?$Array@VColumn@Db@@@Util@@0HB 004bb514     databaseinsert.obj
 0002:00007518       ?MaxGrowSize@?$Array@VColumn@Db@@@Util@@0HB 004bb518     databaseinsert.obj
 0002:0000751c       ?MinGrowSize@?$Array@V?$KeyValuePair@VFourCC@Util@@H@Util@@@Util@@0HB 004bb51c     databaseinsert.obj
 0002:00007520       ?MaxGrowSize@?$Array@V?$KeyValuePair@VFourCC@Util@@H@Util@@@Util@@0HB 004bb520     databaseinsert.obj
 0002:00007524       ?MinGrowSize@?$Array@V?$Ptr@VTable@Db@@@@@Util@@0HB 004bb524     databaseinsert.obj
 0002:00007528       ?MaxGrowSize@?$Array@V?$Ptr@VTable@Db@@@@@Util@@0HB 004bb528     databaseinsert.obj
 0002:0000752c       ??_C@_0CG@KAJPCFPJ@c?3?2nebula3?2code?2addons?1db?1dbfact@ 004bb52c     databaseinsert.obj
 0002:00007554       ??_C@_0P@BAMCAPOJ@0?5?$CB?$DN?5Singleton?$AA@ 004bb554     databaseinsert.obj
 0002:00007564       ?MinGrowSize@?$Array@V?$KeyValuePair@VString@Util@@PBVRtti@Core@@@Util@@@Util@@0HB 004bb564     databaseinsert.obj
 0002:00007568       ?MaxGrowSize@?$Array@V?$KeyValuePair@VString@Util@@PBVRtti@Core@@@Util@@@Util@@0HB 004bb568     databaseinsert.obj
 0002:0000756c       ??_C@_0CJ@NCINIOGH@c?3?2nebula3?2code?2foundation?2io?1io@ 004bb56c     databaseinsert.obj
 0002:00007598       ?MinGrowSize@?$Array@V?$Ptr@VNode@?$SimpleTree@VToken@FilterSet@Db@@@Util@@@@@Util@@0HB 004bb598     databaseinsert.obj
 0002:0000759c       ?MaxGrowSize@?$Array@V?$Ptr@VNode@?$SimpleTree@VToken@FilterSet@Db@@@Util@@@@@Util@@0HB 004bb59c     databaseinsert.obj
 0002:000075a0       ?MinGrowSize@?$Array@VAttribute@Attr@@@Util@@0HB 004bb5a0     databaseinsert.obj
 0002:000075a4       ?MaxGrowSize@?$Array@VAttribute@Attr@@@Util@@0HB 004bb5a4     databaseinsert.obj
 0002:000075a8       ??_C@_0BN@PCPCPAIB@Benchmarking?3?3DatabaseInsert?$AA@ 004bb5a8     databaseinsert.obj
 0002:000075c8       ??_C@_05KHJIADDN@Radon?$AA@ 004bb5c8     databaseinsert.obj
 0002:000075d0       ??_C@_04GIAFBILH@Labs?$AA@ 004bb5d0     databaseinsert.obj
 0002:000075d8       ??_C@_04IBBNLEM@Game?$AA@  004bb5d8     databaseinsert.obj
 0002:000075e0       ??_C@_0M@OOLHNEHN@Development?$AA@ 004bb5e0     databaseinsert.obj
 0002:000075ec       ??_C@_06MAAIBEFA@Studio?$AA@ 004bb5ec     databaseinsert.obj
 0002:000075f4       ??_C@_07OBIFBKME@located?$AA@ 004bb5f4     databaseinsert.obj
 0002:000075fc       ??_C@_06KHKEJHKK@Berlin?$AA@ 004bb5fc     databaseinsert.obj
 0002:00007604       ??_C@_07HIGNCDOF@Germany?$AA@ 004bb604     databaseinsert.obj
 0002:0000760c       ??_C@_0M@KHODMADA@Association?$AA@ 004bb60c     databaseinsert.obj
 0002:00007618       ??_C@_0L@ELPAJKPG@developers?$AA@ 004bb618     databaseinsert.obj
 0002:00007624       ??_C@_08NJNCOAEC@released?$AA@ 004bb624     databaseinsert.obj
 0002:00007630       ??_C@_0L@CFGEEOAN@technology?$AA@ 004bb630     databaseinsert.obj
 0002:0000763c       ??_C@_06EOMAMIIF@public?$AA@ 004bb63c     databaseinsert.obj
 0002:00007644       ??_C@_0L@BMOFMNGO@commercial?$AA@ 004bb644     databaseinsert.obj
 0002:00007650       ??_C@_08FIMAFILO@research?$AA@ 004bb650     databaseinsert.obj
 0002:0000765c       ??_C@_0O@MOFJIHFN@visualisation?$AA@ 004bb65c     databaseinsert.obj
 0002:0000766c       ??_C@_07GKGAGMNN@project?$AA@ 004bb66c     databaseinsert.obj
 0002:00007674       ??_C@_09JCDGBBCE@community?$AA@ 004bb674     databaseinsert.obj
 0002:00007680       ??_C@_0L@KIGHEILG@seamlessly?$AA@ 004bb680     databaseinsert.obj
 0002:0000768c       ??_C@_0L@EHHBHKAC@integrates?$AA@ 004bb68c     databaseinsert.obj
 0002:00007698       ??_C@_09ONEINPNJ@Animation?$AA@ 004bb698     databaseinsert.obj
 0002:000076a4       ??_C@_0M@EJDGLFFN@Blendshapes?$AA@ 004bb6a4     databaseinsert.obj
 0002:000076b0       ??_C@_07BIMMKOLL@Dynamic?$AA@ 004bb6b0     databaseinsert.obj
 0002:000076b8       ??_C@_08JNFHJNBJ@Realtime?$AA@ 004bb6b8     databaseinsert.obj
 0002:000076c4       ??_C@_0BA@PDHAHJAK@Particle?5System?$AA@ 004bb6c4     databaseinsert.obj
 0002:000076d4       ??_C@_0BH@NIADFGJH@Hierarchical?5Animation?$AA@ 004bb6d4     databaseinsert.obj
 0002:000076ec       ??_C@_0BB@INOIDACH@DirectX?59?5Shader?$AA@ 004bb6ec     databaseinsert.obj
 0002:00007700       ??_C@_0BH@PKOLCABH@One?9Click?9Lightmapping?$AA@ 004bb700     databaseinsert.obj
 0002:00007718       ??_C@_0L@LOKHGLEE@turnaround?$AA@ 004bb718     databaseinsert.obj
 0002:00007724       ??_C@_09LJHOLNMH@extremely?$AA@ 004bb724     databaseinsert.obj
 0002:00007730       ??_C@_07KHIPGKKF@growing?$AA@ 004bb730     databaseinsert.obj
 0002:00007738       ??_C@_0BL@NKCCNBNI@temp?3dbinsertbenchmark?4db3?$AA@ 004bb738     databaseinsert.obj
 0002:00007754       ??_C@_0CP@JLFMEHFC@?4?4?2benchmarks?2benchmarkaddon?2dat@ 004bb754     databaseinsert.obj
 0002:00007784       ??_C@_07PNMLCFDE@0?5?$CB?$DN?5db?$AA@ 004bb784     databaseinsert.obj
 0002:0000778c       ??_C@_0DM@IEKHCLHA@?$CK?$CK?$CK?$CK?5DatabaseInsert?3?3CloseDataba@ 004bb78c     databaseinsert.obj
 0002:000077c8       ??_C@_0CL@EIJBAOKN@?$CBIO?3?3IoServer?3?3Instance?$CI?$CJ?9?$DOFileE@ 004bb7c8     databaseinsert.obj
 0002:000077f4       ??_C@_0DL@HPKHJEN@?$CK?$CK?$CK?$CK?5DatabaseInsert?3?3OpenDatabas@ 004bb7f4     databaseinsert.obj
 0002:00007830       ??_C@_09NDCBIEGE@MainTable?$AA@ 004bb830     databaseinsert.obj
 0002:0000783c       ?MinGrowSize@?$Array@VAttrId@Attr@@@Util@@0HB 004bb83c     databaseinsert.obj
 0002:00007840       ?MaxGrowSize@?$Array@VAttrId@Attr@@@Util@@0HB 004bb840     databaseinsert.obj
 0002:00007844       ??_C@_0DK@CNHDHHAG@?$CK?$CK?$CK?$CK?5DatabaseInsert?3?3CreateTable@ 004bb844     databaseinsert.obj
 0002:00007880       ??_C@_0DL@MBNOFDMK@DatabaseInsert?3?3PopulateDatabase@ 004bb880     databaseinsert.obj
 0002:000078c0       ??_C@_0FJ@HKBOAGJA@?$CK?$CK?$CK?$CK?5DatabaseInsert?5?$CI?$CFd?5rows?5x?5?$CF@ 004bb8c0     databaseinsert.obj
 0002:00007920       ??_C@_0FL@MDAPDPBL@?$CK?$CK?$CK?$CK?5DatabaseInsert?5?$CI?$CFd?5rows?5x?5?$CF@ 004bb920     databaseinsert.obj
 0002:00007980       ??_C@_0EC@MHONNNIL@?$CK?$CK?$CK?$CK?5DatabaseInsert?3?5empty?5Commi@ 004bb980     databaseinsert.obj
 0002:000079c4       ??_C@_0DN@CEALIAOO@?$CK?$CK?$CK?$CK?5DatabaseInsert?3?5update?5?$CI?$CFd?5@ 004bb9c4     databaseinsert.obj
 0002:00007a04       ??_C@_0DL@EIIJGJON@?$CK?$CK?$CK?$CK?5DatabaseInsert?3?5close?5data?5@ 004bba04     databaseinsert.obj
 0002:00007a40       ??_C@_0CI@BHODGIE@c?3?2nebula3?2code?2foundation?2util?1@ 004bba40     databaseinsert.obj
 0002:00007a68       ??_C@_0CH@BDOPOIPB@this?9?$DOelements?5?$CG?$CG?5?$CIindex?5?$DM?5this?9@ 004bba68     databaseinsert.obj
 0002:00007a90       ?MaxGrowSize@?$Array@V?$KeyValuePair@VString@Util@@PBVAttributeDefinitionBase@Attr@@@Util@@@Util@@0HB 004bba90     databaseinsert.obj
 0002:00007a94       ?MinGrowSize@?$Array@V?$KeyValuePair@VString@Util@@PBVAttributeDefinitionBase@Attr@@@Util@@@Util@@0HB 004bba94     databaseinsert.obj
 0002:00007a98       ??_C@_0CG@FGODFJOD@c?3?2nebula3?2code?2foundation?2core?1@ 004bba98     databaseinsert.obj
 0002:00007ac0       ??_C@_0CK@GLFJIEFE@NULL?5pointer?5access?5in?5Ptr?3?3oper@ 004bbac0     databaseinsert.obj
 0002:00007aec       ??_C@_09JGKFILJK@this?9?$DOptr?$AA@ 004bbaec     databaseinsert.obj
 0002:00007af8       ??_C@_0CO@PAGCGEKM@NULL?5pointer?5access?5in?5Ptr?3?3oper@ 004bbaf8     databaseinsert.obj
 0002:00007b28       ?MaxGrowSize@?$Array@V?$KeyValuePair@VString@Util@@H@Util@@@Util@@0HB 004bbb28     databaseinsert.obj
 0002:00007b2c       ?MinGrowSize@?$Array@V?$KeyValuePair@VString@Util@@H@Util@@@Util@@0HB 004bbb2c     databaseinsert.obj
 0002:00007b30       ??_C@_0CN@DIALFDOD@c?3?2nebula3?2code?2foundation?2util?1@ 004bbb30     databaseinsert.obj
 0002:00007b60       ??_C@_0P@NLJNLNEM@this?9?$DOelements?$AA@ 004bbb60     databaseinsert.obj
 0002:00007b70       ??_C@_0BE@GDBIPADH@0?5?$DN?$DN?5this?9?$DOelements?$AA@ 004bbb70     databaseinsert.obj
 0002:00007b84       ??_C@_0P@HBJIIKFB@this?9?$DOgrow?5?$DO?50?$AA@ 004bbb84     databaseinsert.obj
 0002:00007b94       ??_7RefCounted@Core@@6B@   004bbb94     databaseinsert.obj
 0002:00007b9c       ??_7Benchmark@Benchmarking@@6B@ 004bbb9c     databaseinsert.obj
 0002:00007ba8       ??_7DatabaseInsert@Benchmarking@@6B@ 004bbba8     databaseinsert.obj
 0002:00007bb4       ??_C@_0DG@OFBDDPFF@c?3?2nebula3?2code?2foundation?2memor@ 004bbbb4     databasequery.obj
 0002:00007bec       ??_C@_09EJCPEHHD@0?5?$CB?$DN?5from?$AA@ 004bbbec     databasequery.obj
 0002:00007bf8       ??_C@_07FEEDPIAJ@0?5?$CB?$DN?5to?$AA@ 004bbbf8     databasequery.obj
 0002:00007c00       ??_C@_0L@FNMCDHDA@from?5?$CB?$DN?5to?$AA@ 004bbc00     databasequery.obj
 0002:00007c0c       ??_C@_0BB@PIIDAHLO@?$CBthis?9?$DOIsValid?$CI?$CJ?$AA@ 004bbc0c     databasequery.obj
 0002:00007c20       ??_C@_0CB@BMEGHLMK@?$CI0?5?$CB?$DN?5fromPtr?$CJ?5?$CG?$CG?5?$CIfromSize?5?$DO?50?$CJ@ 004bbc20     databasequery.obj
 0002:00007c44       ??_C@_0CK@MBMLNJDH@c?3?2nebula3?2code?2foundation?2util?1@ 004bbc44     databasequery.obj
 0002:00007c70       ??_C@_0N@JBHMJCAJ@this?9?$DOstring?$AA@ 004bbc70     databasequery.obj
 0002:00007c80       ??_C@_07DHOJNDGA@this?9?$DOm?$AA@ 004bbc80     databasequery.obj
 0002:00007c88       ??_C@_0L@GLNCBBBE@this?9?$DOguid?$AA@ 004bbc88     databasequery.obj
 0002:00007c94       ??_C@_0L@NMPEFNEF@this?9?$DOblob?$AA@ 004bbc94     databasequery.obj
 0002:00007ca0       ??_C@_0P@OGEGDBLG@this?9?$DOintArray?$AA@ 004bbca0     databasequery.obj
 0002:00007cb0       ??_C@_0BB@FDIDMIB@this?9?$DOfloatArray?$AA@ 004bbcb0     databasequery.obj
 0002:00007cc4       ??_C@_0BA@GOEOHHBI@this?9?$DOboolArray?$AA@ 004bbcc4     databasequery.obj
 0002:00007cd4       ??_C@_0BC@IGAMJAD@this?9?$DOfloat4Array?$AA@ 004bbcd4     databasequery.obj
 0002:00007ce8       ??_C@_0BE@GHMFMIBI@this?9?$DOmatrix44Array?$AA@ 004bbce8     databasequery.obj
 0002:00007cfc       ??_C@_0BC@BOCAAAOI@this?9?$DOstringArray?$AA@ 004bbcfc     databasequery.obj
 0002:00007d10       ??_C@_0BA@EEAJDDFD@this?9?$DOguidArray?$AA@ 004bbd10     databasequery.obj
 0002:00007d20       ??_C@_0BA@HPMDAIA@this?9?$DOblobArray?$AA@ 004bbd20     databasequery.obj
 0002:00007d30       ??_C@_0BD@FMKLGMMB@Void?5?$DN?$DN?5this?9?$DOtype?$AA@ 004bbd30     databasequery.obj
 0002:00007d44       ??_C@_0BP@GCABJGLF@Variant?3?3Copy?$CI?$CJ?3?5invalid?5type?$CB?$AA@ 004bbd44     databasequery.obj
 0002:00007d64       ??_C@_0BM@LAMCDIGO@Benchmarking?3?3DatabaseQuery?$AA@ 004bbd64     databasequery.obj
 0002:00007d80       ??_C@_0CO@GLAIEEKF@?4?4?2benchmarks?2benchmarkaddon?2dat@ 004bbd80     databasequery.obj
 0002:00007db0       ??_C@_08PGHAELAL@dbOpened?$AA@ 004bbdb0     databasequery.obj
 0002:00007dc0       ??_C@_0EP@CNKDHAIN@?$CK?$CK?$CK?$CK?5DatabaseQuery?3?3RunIndexedQu@ 004bbdc0     databasequery.obj
 0002:00007e10       ??_C@_0FC@PFJBGPHO@?$CK?$CK?$CK?$CK?5DatabaseQuery?3?3RunNonIndexe@ 004bbe10     databasequery.obj
 0002:00007e64       ??_7DatabaseQuery@Benchmarking@@6B@ 004bbe64     databasequery.obj
 0002:00007e70       ??_C@_04MJHIICBJ@Guid?$AA@ 004bbe70     dbattrs.obj
 0002:00007e78       ??_C@_05KOHFLOFG@Level?$AA@ 004bbe78     dbattrs.obj
 0002:00007e80       ??_C@_02HOGEDOAB@Id?$AA@   004bbe80     dbattrs.obj
 0002:00007e84       ??_C@_08MKHMICKL@Graphics?$AA@ 004bbe84     dbattrs.obj
 0002:00007e90       ??_C@_06JOIADOIA@Rot180?$AA@ 004bbe90     dbattrs.obj
 0002:00007e98       ??_C@_0N@LHPDLMAH@CharacterSet?$AA@ 004bbe98     dbattrs.obj
 0002:00007ea8       ??_C@_07DGMNCNEG@AnimSet?$AA@ 004bbea8     dbattrs.obj
 0002:00007eb0       ??_C@_08GHAJHBKL@SoundSet?$AA@ 004bbeb0     dbattrs.obj
 0002:00007ebc       ??_C@_0M@NLDHEMDJ@Placeholder?$AA@ 004bbebc     dbattrs.obj
 0002:00007ec8       ??_C@_04FABLJDN@Name?$AA@  004bbec8     dbattrs.obj
 0002:00007ed0       ??_C@_0M@PPMPOBKC@EntityGroup?$AA@ 004bbed0     dbattrs.obj
 0002:00007edc       ??_C@_07CEAHOFOL@Faction?$AA@ 004bbedc     dbattrs.obj
 0002:00007ee4       ??_C@_09NLCONFNK@Behaviour?$AA@ 004bbee4     dbattrs.obj
 0002:00007ef0       ??_C@_0M@EHGMLJAA@MaxVelocity?$AA@ 004bbef0     dbattrs.obj
 0002:00007efc       ??_C@_0L@LDFILPI@LookatText?$AA@ 004bbefc     dbattrs.obj
 0002:00007f08       ??_C@_07LIAIHBJN@NewHero?$AA@ 004bbf08     dbattrs.obj
 0002:00007f10       ??_C@_0M@LJPAMKBC@AggroRadius?$AA@ 004bbf10     dbattrs.obj
 0002:00007f1c       ??_C@_0N@DFLEIJLO@SetupStorage?$AA@ 004bbf1c     dbattrs.obj
 0002:00007f2c       ??_C@_0P@INIHEPHG@SetupEquipment?$AA@ 004bbf2c     dbattrs.obj
 0002:00007f3c       ??_C@_0O@HEOFLOKA@InventoryType?$AA@ 004bbf3c     dbattrs.obj
 0002:00007f4c       ??_C@_02LPDAJBGP@MU?$AA@   004bbf4c     dbattrs.obj
 0002:00007f50       ??_C@_02CALNEEMF@KL?$AA@   004bbf50     dbattrs.obj
 0002:00007f54       ??_C@_02BBAPPCCJ@IN?$AA@   004bbf54     dbattrs.obj
 0002:00007f58       ??_C@_02EKMCNAHJ@CH?$AA@   004bbf58     dbattrs.obj
 0002:00007f5c       ??_C@_02NCIKDPBM@FF?$AA@   004bbf5c     dbattrs.obj
 0002:00007f60       ??_C@_02PIGFAGOI@GE?$AA@   004bbf60     dbattrs.obj
 0002:00007f64       ??_C@_02LJABHAG@KO?$AA@    004bbf64     dbattrs.obj
 0002:00007f68       ??_C@_02GPPMNCAC@KK?$AA@   004bbf68     dbattrs.obj
 0002:00007f6c       ??_C@_0L@CIOMAENM@TaArmbrust?$AA@ 004bbf6c     dbattrs.obj
 0002:00007f78       ??_C@_0N@GHKAKPMH@TaATArmbrust?$AA@ 004bbf78     dbattrs.obj
 0002:00007f88       ??_C@_0N@MJFPPOGA@TaPAArmbrust?$AA@ 004bbf88     dbattrs.obj
 0002:00007f98       ??_C@_08EIPAHADA@TaDolche?$AA@ 004bbf98     dbattrs.obj
 0002:00007fa4       ??_C@_0L@BIEGEOLN@TaATDolche?$AA@ 004bbfa4     dbattrs.obj
 0002:00007fb0       ??_C@_0L@JHKGCHMA@TaPADolche?$AA@ 004bbfb0     dbattrs.obj
 0002:00007fbc       ??_C@_0O@JPBALNCA@TaFechtwaffen?$AA@ 004bbfbc     dbattrs.obj
 0002:00007fcc       ??_C@_0BA@LNPKJJGH@TaATFechtwaffen?$AA@ 004bbfcc     dbattrs.obj
 0002:00007fdc       ??_C@_0BA@OPGPFBLE@TaPAFechtwaffen?$AA@ 004bbfdc     dbattrs.obj
 0002:00007fec       ??_C@_0N@BIDGCHEK@TaHiebwaffen?$AA@ 004bbfec     dbattrs.obj
 0002:00007ffc       ??_C@_0P@PAAENJPM@TaATHiebwaffen?$AA@ 004bbffc     dbattrs.obj
 0002:0000800c       ??_C@_0P@NCODMEP@TaPAHiebwaffen?$AA@ 004bc00c     dbattrs.obj
 0002:0000801c       ??_C@_0BD@PBPODKLK@TaInfanteriewaffen?$AA@ 004bc01c     dbattrs.obj
 0002:00008030       ??_C@_0BF@DHLKJFNM@TaATInfanteriewaffen?$AA@ 004bc030     dbattrs.obj
 0002:00008048       ??_C@_0BF@DJEDBDHB@TaPAInfanteriewaffen?$AA@ 004bc048     dbattrs.obj
 0002:00008060       ??_C@_0P@OCFIADHN@TaKettenwaffen?$AA@ 004bc060     dbattrs.obj
 0002:00008070       ??_C@_0BB@KMCDNGK@TaATKettenwaffen?$AA@ 004bc070     dbattrs.obj
 0002:00008084       ??_C@_0BB@BFEKCLMM@TaPAKettenwaffen?$AA@ 004bc084     dbattrs.obj
 0002:00008098       ??_C@_08LMDFJOAO@TaSaebel?$AA@ 004bc098     dbattrs.obj
 0002:000080a4       ??_C@_0L@OMIDKAID@TaATSaebel?$AA@ 004bc0a4     dbattrs.obj
 0002:000080b0       ??_C@_0L@GDGDMJPO@TaPASaebel?$AA@ 004bc0b0     dbattrs.obj
 0002:000080bc       ??_C@_0M@FLGCMMKI@TaSchwerter?$AA@ 004bc0bc     dbattrs.obj
 0002:000080c8       ??_C@_0O@NBEIEJOP@TaATSchwerter?$AA@ 004bc0c8     dbattrs.obj
 0002:000080d8       ??_C@_0O@JJFEIAPF@TaPASchwerter?$AA@ 004bc0d8     dbattrs.obj
 0002:000080e8       ??_C@_08CBMDHJDF@TaSpeere?$AA@ 004bc0e8     dbattrs.obj
 0002:000080f4       ??_C@_0L@HBHFEHLI@TaATSpeere?$AA@ 004bc0f4     dbattrs.obj
 0002:00008100       ??_C@_0L@POJFCOMF@TaPASpeere?$AA@ 004bc100     dbattrs.obj
 0002:0000810c       ??_C@_08FDPEDOJD@TaStaebe?$AA@ 004bc10c     dbattrs.obj
 0002:00008118       ??_C@_0L@DECAABO@TaATStaebe?$AA@ 004bc118     dbattrs.obj
 0002:00008124       ??_C@_0L@IMKCGJGD@TaPAStaebe?$AA@ 004bc124     dbattrs.obj
 0002:00008130       ??_C@_0P@MMGFMJIN@TaZwHiebwaffen?$AA@ 004bc130     dbattrs.obj
 0002:00008140       ??_C@_0BB@CEPPPHJK@TaATZwHiebwaffen?$AA@ 004bc140     dbattrs.obj
 0002:00008154       ??_C@_0BB@DLHHOBDM@TaPAZwHiebwaffen?$AA@ 004bc154     dbattrs.obj
 0002:00008168       ??_C@_0O@LDLMOJML@TaZwSchwerter?$AA@ 004bc168     dbattrs.obj
 0002:00008178       ??_C@_0BA@JBFGMNIM@TaATZwSchwerter?$AA@ 004bc178     dbattrs.obj
 0002:00008188       ??_C@_0BA@MDMDAFFP@TaPAZwSchwerter?$AA@ 004bc188     dbattrs.obj
 0002:00008198       ??_C@_08MHPGPHON@TaRaufen?$AA@ 004bc198     dbattrs.obj
 0002:000081a4       ??_C@_0L@JHEAMJGA@TaATRaufen?$AA@ 004bc1a4     dbattrs.obj
 0002:000081b0       ??_C@_0L@BIKAKABN@TaPARaufen?$AA@ 004bc1b0     dbattrs.obj
 0002:000081bc       ??_C@_07CMBBFBFI@TaBogen?$AA@ 004bc1bc     dbattrs.obj
 0002:000081c4       ??_C@_0M@MGGFKGMB@TaWurfbeile?$AA@ 004bc1c4     dbattrs.obj
 0002:000081d0       ??_C@_0N@CFMODEPH@TaWurfmesser?$AA@ 004bc1d0     dbattrs.obj
 0002:000081e0       ??_C@_0M@OGGLGPKM@TaWurfspeer?$AA@ 004bc1e0     dbattrs.obj
 0002:000081ec       ??_C@_0N@HIIKDOJN@TaGaukeleien?$AA@ 004bc1ec     dbattrs.obj
 0002:000081fc       ??_C@_0BG@FANCNBPI@TaKoerperbeherrschung?$AA@ 004bc1fc     dbattrs.obj
 0002:00008214       ??_C@_0N@FCCLPGKA@TaSchleichen?$AA@ 004bc214     dbattrs.obj
 0002:00008224       ??_C@_0BF@OGKGDIFF@TaSelbstbeherrschung?$AA@ 004bc224     dbattrs.obj
 0002:0000823c       ??_C@_0BB@NGBNGOBO@TaSinnenschaerfe?$AA@ 004bc23c     dbattrs.obj
 0002:00008250       ??_C@_08KJNJIMGD@TaTanzen?$AA@ 004bc250     dbattrs.obj
 0002:0000825c       ??_C@_0BD@BEFIJHFA@TaTaschendiebstahl?$AA@ 004bc25c     dbattrs.obj
 0002:00008270       ??_C@_08GAPHOOIN@TaZechen?$AA@ 004bc270     dbattrs.obj
 0002:0000827c       ??_C@_0BA@LAJPMABN@TaFallenstellen?$AA@ 004bc27c     dbattrs.obj
 0002:0000828c       ??_C@_09OJKAEPM@TaFischen?$AA@ 004bc28c     dbattrs.obj
 0002:00008298       ??_C@_0P@DOGKIFKC@TaOrientierung?$AA@ 004bc298     dbattrs.obj
 0002:000082a8       ??_C@_0P@PCPHLIDF@TaWildnisleben?$AA@ 004bc2a8     dbattrs.obj
 0002:000082b8       ??_C@_0N@FIDCCHOM@TaMagiekunde?$AA@ 004bc2b8     dbattrs.obj
 0002:000082c8       ??_C@_0BA@PHHLAAMK@TaPflanzenkunde?$AA@ 004bc2c8     dbattrs.obj
 0002:000082d8       ??_C@_0M@FGGCIDAD@TaTierkunde?$AA@ 004bc2d8     dbattrs.obj
 0002:000082e4       ??_C@_0M@NGIELKJC@TaSchaetzen?$AA@ 004bc2e4     dbattrs.obj
 0002:000082f0       ??_C@_0O@PGHEJCPK@TaSprachkunde?$AA@ 004bc2f0     dbattrs.obj
 0002:00008300       ??_C@_0L@HAIMKDKL@TaAlchimie?$AA@ 004bc300     dbattrs.obj
 0002:0000830c       ??_C@_0L@CBMNCAOP@TaBogenbau?$AA@ 004bc30c     dbattrs.obj
 0002:00008318       ??_C@_0O@GHGNGDNG@TaGrobschmied?$AA@ 004bc318     dbattrs.obj
 0002:00008328       ??_C@_0BC@HDJBAHEC@TaHeilkundeWunden?$AA@ 004bc328     dbattrs.obj
 0002:0000833c       ??_C@_0N@IABGHDNE@TaSchloesser?$AA@ 004bc33c     dbattrs.obj
 0002:0000834c       ??_C@_0N@MDBMJEHG@TaMusizieren?$AA@ 004bc34c     dbattrs.obj
 0002:0000835c       ??_C@_0O@NMFECOPA@TaFalschspiel?$AA@ 004bc35c     dbattrs.obj
 0002:0000836c       ??_C@_0BA@FAHCDEEB@TaLederarbeiten?$AA@ 004bc36c     dbattrs.obj
 0002:0000837c       ??_C@_0L@MOFGJMNK@TaBetoeren?$AA@ 004bc37c     dbattrs.obj
 0002:00008388       ??_C@_0N@DDBPMHBB@TaUeberreden?$AA@ 004bc388     dbattrs.obj
 0002:00008398       ??_C@_0BD@OHNAJJNA@TaMenschenkenntnis?$AA@ 004bc398     dbattrs.obj
 0002:000083ac       ??_C@_0M@GEKEIFL@ZaAdlerauge?$AA@ 004bc3ac     dbattrs.obj
 0002:000083b8       ??_C@_08LINJPPNH@ZaAnalys?$AA@ 004bc3b8     dbattrs.obj
 0002:000083c4       ??_C@_0L@HOOIHNA@ZaExposami?$AA@ 004bc3c4     dbattrs.obj
 0002:000083d0       ??_C@_0O@NNGHOPAA@ZaOdemArcanum?$AA@ 004bc3d0     dbattrs.obj
 0002:000083e0       ??_C@_0N@PHNGAHKH@ZaDuplicatus?$AA@ 004bc3e0     dbattrs.obj
 0002:000083f0       ??_C@_07KNKOFAJL@ZaBlitz?$AA@ 004bc3f0     dbattrs.obj
 0002:000083f8       ??_C@_0O@GJPAJCCL@ZaFulminictus?$AA@ 004bc3f8     dbattrs.obj
 0002:00008408       ??_C@_0N@EHPICHKB@ZaIgnifaxius?$AA@ 004bc408     dbattrs.obj
 0002:00008418       ??_C@_0O@NEHMMAPG@ZaIgnisphaero?$AA@ 004bc418     dbattrs.obj
 0002:00008428       ??_C@_0N@KNKFFGAN@ZaKulminatio?$AA@ 004bc428     dbattrs.obj
 0002:00008438       ??_C@_0BA@DJCICHBM@ZaPlumbumbaraum?$AA@ 004bc438     dbattrs.obj
 0002:00008448       ??_C@_0M@GNJDPPNP@ZaAttributo?$AA@ 004bc448     dbattrs.obj
 0002:00008454       ??_C@_0BG@NKFGNJCE@ZaBeherrschungBrechen?$AA@ 004bc454     dbattrs.obj
 0002:0000846c       ??_C@_0BB@MIHFAGAM@ZaEinflussBannen?$AA@ 004bc46c     dbattrs.obj
 0002:00008480       ??_C@_0BF@DCPIOLDK@ZaVerwandlungBeenden?$AA@ 004bc480     dbattrs.obj
 0002:00008498       ??_C@_0M@LHPHIKCO@ZaGardianum?$AA@ 004bc498     dbattrs.obj
 0002:000084a4       ??_C@_0P@NNNNAMID@ZaTempusStatis?$AA@ 004bc4a4     dbattrs.obj
 0002:000084b4       ??_C@_0O@HCMHDNBO@ZaBannbaladin?$AA@ 004bc4b4     dbattrs.obj
 0002:000084c4       ??_C@_0BA@FCJJPEHB@ZaHalluzination?$AA@ 004bc4c4     dbattrs.obj
 0002:000084d4       ??_C@_0O@MKLJDAPF@ZaHorriphobus?$AA@ 004bc4d4     dbattrs.obj
 0002:000084e4       ??_C@_0L@LOIBNNAM@ZaSanftmut?$AA@ 004bc4e4     dbattrs.obj
 0002:000084f0       ??_C@_0O@FOCBLFAH@ZaSomnigravis?$AA@ 004bc4f0     dbattrs.obj
 0002:00008500       ??_C@_0BE@INAMDKIN@ZaElementarerDiener?$AA@ 004bc500     dbattrs.obj
 0002:00008514       ??_C@_0BA@JEKKFCCH@ZaTatzeSchwinge?$AA@ 004bc514     dbattrs.obj
 0002:00008524       ??_C@_0O@BKFHEOIP@ZaAxxeleratus?$AA@ 004bc524     dbattrs.obj
 0002:00008534       ??_C@_09PFMBHBIC@ZaForamen?$AA@ 004bc534     dbattrs.obj
 0002:00008540       ??_C@_0BA@OHAKBAFD@ZaTransversalis?$AA@ 004bc540     dbattrs.obj
 0002:00008550       ??_C@_0M@NDDFMCJD@ZaMotoricus?$AA@ 004bc550     dbattrs.obj
 0002:0000855c       ??_C@_08EOPJBJPA@ZaBalsam?$AA@ 004bc55c     dbattrs.obj
 0002:00008568       ??_C@_0O@GJOEFDHK@ZaRuheKoerper?$AA@ 004bc568     dbattrs.obj
 0002:00008578       ??_C@_0BA@BLANAAAI@ZaAdlerschwinge?$AA@ 004bc578     dbattrs.obj
 0002:00008588       ??_C@_0M@MDFGEKNF@ZaArmatrutz?$AA@ 004bc588     dbattrs.obj
 0002:00008594       ??_C@_0M@EDOOJIGB@ZaParalysis?$AA@ 004bc594     dbattrs.obj
 0002:000085a0       ??_C@_0BF@IJPIPHHN@ZaUnsichtbarerJaeger?$AA@ 004bc5a0     dbattrs.obj
 0002:000085b8       ??_C@_0N@EPOBJHLI@ZaVisibility?$AA@ 004bc5b8     dbattrs.obj
 0002:000085c8       ??_C@_0BI@IMBEEEJM@ZaStandfestKatzengleich?$AA@ 004bc5c8     dbattrs.obj
 0002:000085e0       ??_C@_0N@GAKIGAKB@ZaApplicatus?$AA@ 004bc5e0     dbattrs.obj
 0002:000085f0       ??_C@_0M@GOLHLEMJ@ZaClaudibus?$AA@ 004bc5f0     dbattrs.obj
 0002:000085fc       ??_C@_0L@IPMBCPJJ@ZaFlimFlam?$AA@ 004bc5fc     dbattrs.obj
 0002:00008608       ??_C@_0L@FMNOKFGE@ZaFortifex?$AA@ 004bc608     dbattrs.obj
 0002:00008614       ??_C@_0M@MFPODBPK@ZaSilentium?$AA@ 004bc614     dbattrs.obj
 0002:00008620       ??_C@_0M@HPHDJMAE@ZaEisenrost?$AA@ 004bc620     dbattrs.obj
 0002:0000862c       ??_C@_05MBALDOEF@LEmax?$AA@ 004bc62c     dbattrs.obj
 0002:00008634       ??_C@_05BNHFLKBJ@AUmax?$AA@ 004bc634     dbattrs.obj
 0002:0000863c       ??_C@_05HNJFCNJL@AEmax?$AA@ 004bc63c     dbattrs.obj
 0002:00008644       ??_C@_07HDIAAKAF@ATbasis?$AA@ 004bc644     dbattrs.obj
 0002:0000864c       ??_C@_07PGHHIINJ@PAbasis?$AA@ 004bc64c     dbattrs.obj
 0002:00008654       ??_C@_07OINDOPDL@FKbasis?$AA@ 004bc654     dbattrs.obj
 0002:0000865c       ??_C@_02PAHBAHKI@MR?$AA@   004bc65c     dbattrs.obj
 0002:00008660       ??_C@_02PEDAOJAJ@LE?$AA@   004bc660     dbattrs.obj
 0002:00008664       ??_C@_02LGCKGIAL@AU?$AA@   004bc664     dbattrs.obj
 0002:00008668       ??_C@_02PMOIHKFK@AE?$AA@   004bc668     dbattrs.obj
 0002:0000866c       ??_C@_02KPDBFJEK@AT?$AA@   004bc66c     dbattrs.obj
 0002:00008670       ??_C@_02IFGAHGBJ@PA?$AA@   004bc670     dbattrs.obj
 0002:00008674       ??_C@_02POKOMEAD@BE?$AA@   004bc674     dbattrs.obj
 0002:00008678       ??_C@_0M@NHKMKMJE@SetupGroups?$AA@ 004bc678     dbattrs.obj
 0002:00008684       ??_C@_0L@FHANJOGJ@TargetSize?$AA@ 004bc684     dbattrs.obj
 0002:00008690       ??_C@_0BC@MPAFPEHA@MapMarkerResource?$AA@ 004bc690     dbattrs.obj
 0002:000086a4       ??_C@_0P@OHGNOKJP@VisibilityType?$AA@ 004bc6a4     dbattrs.obj
 0002:000086b4       ??_C@_0N@CKMDAG@ScriptPreset?$AA@ 004bc6b4     dbattrs.obj
 0002:000086c4       ??_C@_0P@EPLPFMJH@ScriptOverride?$AA@ 004bc6c4     dbattrs.obj
 0002:000086d3       ??_C@_00CNPNBAHC@?$AA@     004bc6d3     dbattrs.obj
 0002:000086d4       ?MinGrowSize@?$Array@V?$Ptr@VConsoleHandler@IO@@@@@Util@@0HB 004bc6d4     main.obj
 0002:000086d8       ?MaxGrowSize@?$Array@V?$Ptr@VConsoleHandler@IO@@@@@Util@@0HB 004bc6d8     main.obj
 0002:000086dc       ?MinGrowSize@?$Array@V?$Ptr@VBenchmark@Benchmarking@@@@@Util@@0HB 004bc6dc     main.obj
 0002:000086e0       ?MaxGrowSize@?$Array@V?$Ptr@VBenchmark@Benchmarking@@@@@Util@@0HB 004bc6e0     main.obj
 0002:000086e4       ??_C@_0BJ@DHBGBFPN@Nebula3?5Benchmark?5Runner?$AA@ 004bc6e4     main.obj
 0002:00008700       ??_C@_0BI@ILEIBOPB@Benchmarking?3?3Benchmark?$AA@ 004bc700     benchmarkbase_win32.release:benchmark.obj
 0002:00008718       ??_C@_0BO@PDJFFIKD@Benchmarking?3?3BenchmarkRunner?$AA@ 004bc718     benchmarkbase_win32.release:benchmarkrunner.obj
 0002:00008738       ??_C@_0CP@JKPAJJAC@?4?4?2benchmarks?2benchmarkbase?2benc@ 004bc738     benchmarkbase_win32.release:benchmarkrunner.obj
 0002:00008768       ??_C@_06FMDKOJOI@0?5?$CB?$DN?5b?$AA@ 004bc768     benchmarkbase_win32.release:benchmarkrunner.obj
 0002:00008770       ??_C@_0EB@FIJHBPFG@?9?9?9?9?9?9?9?9?9?9?9?9?9?9?9?9?9?9?9?9?9?9?9?9?9?9?9?9?9?9?9?9@ 004bc770     benchmarkbase_win32.release:benchmarkrunner.obj
 0002:000087b4       ??_C@_01JLIPDDHJ@?3?$AA@   004bc7b4     benchmarkbase_win32.release:benchmarkrunner.obj
 0002:000087b8       ??_C@_0BM@DHEILAPC@?$DO?5?$CFs?3?5?$CFd?5ticks?0?5?$CFf?5seconds?6?$AA@ 004bc7b8     benchmarkbase_win32.release:benchmarkrunner.obj
 0002:000087d4       ??_C@_0CB@LOBBCEOM@?$CK?5OVERALL?3?5?$CFd?5ticks?0?5?$CFf?5seconds?6@ 004bc7d4     benchmarkbase_win32.release:benchmarkrunner.obj
 0002:000087f8       ??_7BenchmarkRunner@Benchmarking@@6B@ 004bc7f8     benchmarkbase_win32.release:benchmarkrunner.obj
 0002:00008800       ??_C@_0CI@GBGNMPLK@c?3?2nebula3?2code?2foundation?2io?1co@ 004bc800     foundation_win32.release:debug.obj
 0002:00008828       ??_C@_0DL@PJMICFCM@?$CK?$CK?$CK?5NEBULA?5ASSERTION?5?$CK?$CK?$CK?6express@ 004bc828     foundation_win32.release:debug.obj
 0002:00008868       ??_C@_0EP@ECJDIGOP@?$CK?$CK?$CK?5NEBULA?5ASSERTION?5?$CK?$CK?$CK?6program@ 004bc868     foundation_win32.release:debug.obj
 0002:000088b8       ??_C@_0CM@ODKKPOME@?4?4?2foundation?2memory?2win360?2win3@ 004bc8b8     foundation_win32.release:win360memory.obj
 0002:000088e4       ??_C@_0BI@NOOHAMNH@heapType?5?$DM?5NumHeapTypes?$AA@ 004bc8e4     foundation_win32.release:win360memory.obj
 0002:000088fc       ??_C@_0BF@MFBPIJCM@0?5?$CB?$DN?5Heaps?$FLheapType?$FN?$AA@ 004bc8fc     foundation_win32.release:win360memory.obj
 0002:00008914       ??_C@_0BL@KDHBNLEK@?$CI?$CIuint?$CJallocPtr?5?$CG?515?$CJ?5?$DN?$DN?50?$AA@ 004bc914     foundation_win32.release:win360memory.obj
 0002:00008930       ??_C@_0EF@JMMPNDAL@Alloc?3?5Out?5of?5memory?0?5allocating@ 004bc930     foundation_win32.release:win360memory.obj
 0002:00008978       ??_C@_0EE@LFKDAEPB@?$CIheapType?5?$CB?$DN?5Xbox360GraphicsHeap@ 004bc978     foundation_win32.release:win360memory.obj
 0002:000089bc       ??_C@_0DE@KJDCBOMA@?$CIheapType?5?$DM?5NumHeapTypes?$CJ?5?$CG?$CG?5?$CI0?5@ 004bc9bc     foundation_win32.release:win360memory.obj
 0002:000089f0       ??_C@_0EH@FIPHFLEB@Realloc?3?5Out?5of?5memory?0?5allocati@ 004bc9f0     foundation_win32.release:win360memory.obj
 0002:00008a38       ??_C@_0DE@NFMLABPA@DumpTotalMemoryStatus?$CI?$CJ?5not?5impl@ 004bca38     foundation_win32.release:win360memory.obj
 0002:00008a6c       ??_C@_02LIELOMNJ@on?$AA@   004bca6c     foundation_win32.release:string.obj
 0002:00008a70       ??_C@_03MCADLMAF@off?$AA@  004bca70     foundation_win32.release:string.obj
 0002:00008a74       ??_C@_03ICICOMAL@yes?$AA@  004bca74     foundation_win32.release:string.obj
 0002:00008a78       ??_C@_02KAJCLHKP@no?$AA@   004bca78     foundation_win32.release:string.obj
 0002:00008a7c       ??_C@_0CJ@KPDBJEOK@c?3?2nebula3?2code?2foundation?2util?1@ 004bca7c     foundation_win32.release:string.obj
 0002:00008aa8       ??_C@_0BN@POFINLGO@newSize?5?$DO?5?$CIthis?9?$DOstrLen?5?$CL?51?$CJ?$AA@ 004bcaa8     foundation_win32.release:string.obj
 0002:00008ac8       ??_C@_0BP@EEBDEGPD@newSize?5?$DO?5this?9?$DOheapBufferSize?$AA@ 004bcac8     foundation_win32.release:string.obj
 0002:00008ae8       ??_C@_04LOAJBDKD@true?$AA@ 004bcae8     foundation_win32.release:string.obj
 0002:00008af0       ??_C@_05LAPONLG@false?$AA@ 004bcaf0     foundation_win32.release:string.obj
 0002:00008af8       ??_C@_0BC@CJPEMPAL@i?5?$DM?$DN?5this?9?$DOstrLen?$AA@ 004bcaf8     foundation_win32.release:string.obj
 0002:00008b0c       ??_C@_03NNNAMNMM@?0?5?7?$AA@ 004bcb0c     foundation_win32.release:string.obj
 0002:00008b10       ??_C@_0BN@NDBMPMCD@?4?4?2foundation?2util?2string?4cc?$AA@ 004bcb10     foundation_win32.release:string.obj
 0002:00008b30       ??_C@_08COOMBJJI@0?5?$CB?$DN?5buf?$AA@ 004bcb30     foundation_win32.release:string.obj
 0002:00008b3c       ??_C@_0M@KILAHHOK@bufSize?5?$DO?51?$AA@ 004bcb3c     foundation_win32.release:string.obj
 0002:00008b48       ??_C@_06PCICMFGG@append?$AA@ 004bcb48     foundation_win32.release:string.obj
 0002:00008b50       ??_C@_0BF@LMEIFOGC@from?5?$DM?$DN?5this?9?$DOstrLen?$AA@ 004bcb50     foundation_win32.release:string.obj
 0002:00008b68       ??_C@_0CC@ICCFPDP@?$CIfrom?5?$CL?5numChars?$CJ?5?$DM?$DN?5this?9?$DOstrLe@ 004bcb68     foundation_win32.release:string.obj
 0002:00008b8c       ??_C@_0BK@ONBCDJGI@startIndex?5?$DM?5this?9?$DOstrLen?$AA@ 004bcb8c     foundation_win32.release:string.obj
 0002:00008ba8       ??_C@_0M@DLFFJCNF@s?4IsValid?$CI?$CJ?$AA@ 004bcba8     foundation_win32.release:string.obj
 0002:00008bb4       ??_C@_0BC@LKPOIPPK@charSet?4IsValid?$CI?$CJ?$AA@ 004bcbb4     foundation_win32.release:string.obj
 0002:00008bc8       ??_C@_0BD@POLGAEPB@matchStr?4IsValid?$CI?$CJ?$AA@ 004bcbc8     foundation_win32.release:string.obj
 0002:00008bdc       ??_C@_0BE@BLNLEPGL@tokens?4Size?$CI?$CJ?5?$DN?$DN?516?$AA@ 004bcbdc     foundation_win32.release:string.obj
 0002:00008bf0       ??_C@_08OJCFJEAA@0?5?$CB?$DN?5str?$AA@ 004bcbf0     foundation_win32.release:string.obj
 0002:00008bfc       ??_C@_0BF@CKPCPHAL@index?5?$DM?5this?9?$DOstrLen?$AA@ 004bcbfc     foundation_win32.release:string.obj
 0002:00008c14       ??_C@_09EEGIECFH@0?5?$CB?$DN?5cStr?$AA@ 004bcc14     foundation_win32.release:string.obj
 0002:00008c20       ??_C@_0BP@MKHLMGDH@Invalid?5string?5value?5for?5bool?$CB?$AA@ 004bcc20     foundation_win32.release:string.obj
 0002:00008c40       ??_C@_0N@MDGKIMAM@str0?5?$CG?$CG?5str1?$AA@ 004bcc40     foundation_win32.release:string.obj
 0002:00008c50       ??_C@_03OJMAPEGJ@str?$AA@  004bcc50     foundation_win32.release:string.obj
 0002:00008c54       ?MinGrowSize@?$Array@V?$KeyValuePair@VString@Util@@V12@@Util@@@Util@@0HB 004bcc54     foundation_win32.release:string.obj
 0002:00008c58       ?MaxGrowSize@?$Array@V?$KeyValuePair@VString@Util@@V12@@Util@@@Util@@0HB 004bcc58     foundation_win32.release:string.obj
 0002:00008c5c       ??_C@_04OCGLKFAE@?5?7?6?$DN?$AA@ 004bcc5c     foundation_win32.release:string.obj
 0002:00008c64       ??_C@_0BJ@EBIIIFLN@0?5?$DN?$DN?5?$CItokens?4Size?$CI?$CJ?5?$CG?51?$CJ?$AA@ 004bcc64     foundation_win32.release:string.obj
 0002:00008c80       ??_C@_01LFCBOECM@?4?$AA@   004bcc80     foundation_win32.release:string.obj
 0002:00008c84       ??_C@_0CN@PLFFNBEJ@c?3?2nebula3?2code?2foundation?2util?1@ 004bcc84     foundation_win32.release:string.obj
 0002:00008cb4       ??_C@_0BC@GNKCGDPP@?$CBrhs?4inBulkInsert?$AA@ 004bccb4     foundation_win32.release:string.obj
 0002:00008cc8       ??_C@_07DCGCMICB@0?5?$DN?$DN?5lo?$AA@ 004bccc8     foundation_win32.release:string.obj
 0002:00008cd0       ??_C@_0CD@BKAJLKAE@Array?3?3InsertSorted?3?5Can?8t?5happe@ 004bccd0     foundation_win32.release:string.obj
 0002:00008cf4       ??_C@_0BE@DJMCGKBH@index?5?$DM?$DN?5this?9?$DOsize?$AA@ 004bccf4     foundation_win32.release:string.obj
 0002:00008d08       ??_C@_0BH@MMMAFPLC@fromIndex?5?$DM?5this?9?$DOsize?$AA@ 004bcd08     foundation_win32.release:string.obj
 0002:00008d20       ??_C@_0BL@LNDCKHOK@?4?4?2foundation?2core?2rtti?4cc?$AA@ 004bcd20     foundation_win32.release:rtti.obj
 0002:00008d3c       ??_C@_0P@LLDBGGLM@0?5?$CB?$DN?5className?$AA@ 004bcd3c     foundation_win32.release:rtti.obj
 0002:00008d4c       ??_C@_0BE@PFKLFMLD@parentClass?5?$CB?$DN?5this?$AA@ 004bcd4c     foundation_win32.release:rtti.obj
 0002:00008d60       ??_C@_0EC@GFCMFCKH@Rtti?3?3Create?$CI?$CJ?3?5Trying?5to?5create@ 004bcd60     foundation_win32.release:rtti.obj
 0002:00008da4       ??_C@_0BB@NOEPGKJK@Core?3?3RefCounted?$AA@ 004bcda4     foundation_win32.release:refcounted.obj
 0002:00008db8       ??_C@_0CB@NEMGBOEL@?4?4?2foundation?2core?2refcounted?4cc@ 004bcdb8     foundation_win32.release:refcounted.obj
 0002:00008ddc       ??_C@_0BE@CLOAMCCB@0?5?$DN?$DN?5this?9?$DOrefCount?$AA@ 004bcddc     foundation_win32.release:refcounted.obj
 0002:00008df0       ??_C@_0CP@BPAAKOAB@c?3?2nebula3?2code?2foundation?2io?1as@ 004bcdf0     foundation_win32.release:uri.obj
 0002:00008e20       ??_C@_01KMDKNFGN@?1?$AA@   004bce20     foundation_win32.release:uri.obj
 0002:00008e24       ??_C@_0BI@PAIGFHEM@?4?4?2foundation?2io?2uri?4cc?$AA@ 004bce24     foundation_win32.release:uri.obj
 0002:00008e3c       ??_C@_04DAMGJPCA@file?$AA@ 004bce3c     foundation_win32.release:uri.obj
 0002:00008e44       ??_C@_0BE@FBICPNAD@portIndex?5?$DO?5atIndex?$AA@ 004bce44     foundation_win32.release:uri.obj
 0002:00008e58       ??_C@_0BL@IABNPJLE@queryIndex?5?$DO?5fragmentIndex?$AA@ 004bce58     foundation_win32.release:uri.obj
 0002:00008e74       ??_C@_0BB@IDAAEFJD@?$CBthis?9?$DOIsEmpty?$CI?$CJ?$AA@ 004bce74     foundation_win32.release:uri.obj
 0002:00008e88       ??_C@_03GACAABJG@?3?1?1?$AA@ 004bce88     foundation_win32.release:uri.obj
 0002:00008e8c       ??_C@_01EOFPKCAF@?$EA?$AA@ 004bce8c     foundation_win32.release:uri.obj
 0002:00008e90       ??_C@_01IPJKGB@?$CD?$AA@   004bce90     foundation_win32.release:uri.obj
 0002:00008e94       ??_C@_01OGPIMHDM@?$DP?$AA@ 004bce94     foundation_win32.release:uri.obj
 0002:00008e98       ??_C@_02CBLDBPFN@?1?1?$AA@ 004bce98     foundation_win32.release:uri.obj
 0002:00008e9c       ??_C@_0BI@HLKDFCOG@pathComponent?4IsValid?$CI?$CJ?$AA@ 004bce9c     foundation_win32.release:uri.obj
 0002:00008eb4       ??_C@_01HNPIGOCE@?$CG?$AA@ 004bceb4     foundation_win32.release:uri.obj
 0002:00008eb8       ??_C@_01NEMOKFLO@?$DN?$AA@ 004bceb8     foundation_win32.release:uri.obj
 0002:00008ebc       ??_C@_0BL@JDNDNPJB@?4?4?2foundation?2util?2blob?4cc?$AA@ 004bcebc     foundation_win32.release:blob.obj
 0002:00008ed8       ??_C@_0P@MBMNBDEP@0?5?$CB?$DN?5this?9?$DOptr?$AA@ 004bced8     foundation_win32.release:blob.obj
 0002:00008ee8       ??_C@_0N@DHIIFFJH@0?5?$CB?$DN?5rhs?4ptr?$AA@ 004bcee8     foundation_win32.release:blob.obj
 0002:00008ef8       ??_C@_0EE@FMNLPNPG@c?3?2nebula3?2code?2foundation?2threa@ 004bcef8     foundation_win32.release:ioserver.obj
 0002:00008f3c       ??_C@_0P@OKJJAII@NULL?5?$CB?$DN?5handle?$AA@ 004bcf3c     foundation_win32.release:ioserver.obj
 0002:00008f4c       ??_C@_0BA@KPOMOFPA@this?9?$DOsemaphore?$AA@ 004bcf4c     foundation_win32.release:ioserver.obj
 0002:00008f5c       ??_C@_0P@IHBKLMEO@path?4IsValid?$CI?$CJ?$AA@ 004bcf5c     foundation_win32.release:ioserver.obj
 0002:00008f6c       ??_C@_0CP@MBOEPDJB@c?3?2nebula3?2code?2foundation?2io?1sc@ 004bcf6c     foundation_win32.release:ioserver.obj
 0002:00008f9c       ?Key@Crc@Util@@0IB         004bcf9c     foundation_win32.release:ioserver.obj
 0002:00008fa0       ?NumByteValues@Crc@Util@@0IB 004bcfa0     foundation_win32.release:ioserver.obj
 0002:00008fa4       ?MinGrowSize@?$Array@VZipFileEntry@IO@@@Util@@0HB 004bcfa4     foundation_win32.release:ioserver.obj
 0002:00008fa8       ?MaxGrowSize@?$Array@VZipFileEntry@IO@@@Util@@0HB 004bcfa8     foundation_win32.release:ioserver.obj
 0002:00008fac       ?MinGrowSize@?$Array@VZipDirEntry@IO@@@Util@@0HB 004bcfac     foundation_win32.release:ioserver.obj
 0002:00008fb0       ?MaxGrowSize@?$Array@VZipDirEntry@IO@@@Util@@0HB 004bcfb0     foundation_win32.release:ioserver.obj
 0002:00008fb4       ?MinGrowSize@?$Array@V?$KeyValuePair@VStringAtom@Util@@H@Util@@@Util@@0HB 004bcfb4     foundation_win32.release:ioserver.obj
 0002:00008fb8       ?MaxGrowSize@?$Array@V?$KeyValuePair@VStringAtom@Util@@H@Util@@@Util@@0HB 004bcfb8     foundation_win32.release:ioserver.obj
 0002:00008fbc       ?MinGrowSize@?$Array@V?$KeyValuePair@VString@Util@@V?$Ptr@VArchive@IO@@@@@Util@@@Util@@0HB 004bcfbc     foundation_win32.release:ioserver.obj
 0002:00008fc0       ?MaxGrowSize@?$Array@V?$KeyValuePair@VString@Util@@V?$Ptr@VArchive@IO@@@@@Util@@@Util@@0HB 004bcfc0     foundation_win32.release:ioserver.obj
 0002:00008fc4       ??_C@_0DJ@GAOKFDEI@c?3?2nebula3?2code?2foundation?2io?1ar@ 004bcfc4     foundation_win32.release:ioserver.obj
 0002:00009000       ??_C@_0N@JCNNDPAO@IO?3?3IoServer?$AA@ 004bd000     foundation_win32.release:ioserver.obj
 0002:00009010       ??_C@_0BN@CAJGJLBM@?4?4?2foundation?2io?2ioserver?4cc?$AA@ 004bd010     foundation_win32.release:ioserver.obj
 0002:00009030       ??_C@_0P@DOHPBAMI@0?5?$DN?$DN?5Singleton?$AA@ 004bd030     foundation_win32.release:ioserver.obj
 0002:00009040       ??_C@_0BJ@DOKDHBFF@?$CBStandardArchivesMounted?$AA@ 004bd040     foundation_win32.release:ioserver.obj
 0002:0000905c       ??_C@_09EHKKJHDM@Singleton?$AA@ 004bd05c     foundation_win32.release:ioserver.obj
 0002:00009068       ??_C@_0P@IPKFOBHM@?$CBuri?4IsEmpty?$CI?$CJ?$AA@ 004bd068     foundation_win32.release:ioserver.obj
 0002:00009078       ??_C@_0EA@FEMGEELB@SchemeRegistry?3?3Instance?$CI?$CJ?9?$DOIsUr@ 004bd078     foundation_win32.release:ioserver.obj
 0002:000090b8       ??_C@_0P@NGOMFCOI@root?3export_?$CFs?$AA@ 004bd0b8     foundation_win32.release:ioserver.obj
 0002:000090c8       ??_C@_0BI@GBAIGLCI@StandardArchivesMounted?$AA@ 004bd0c8     foundation_win32.release:ioserver.obj
 0002:000090e0       ??_C@_0BH@EECDHOIA@uri?4Scheme?$CI?$CJ?5?$DN?$DN?5?$CCfile?$CC?$AA@ 004bd0e0     foundation_win32.release:ioserver.obj
 0002:000090f8       ??_C@_03GGOFJGCG@?1?2?3?$AA@ 004bd0f8     foundation_win32.release:ioserver.obj
 0002:000090fc       ??_C@_0DK@BNFLEOAO@IO?3?3IoServer?3?3CopyFile?$CI?$CJ?3?5could?5@ 004bd0fc     foundation_win32.release:ioserver.obj
 0002:00009138       ??_C@_0DK@FDADOHLL@IO?3?3IoServer?3?3CopyFile?$CI?$CJ?3?5could?5@ 004bd138     foundation_win32.release:ioserver.obj
 0002:00009174       ??_C@_0DK@PLKFPCKG@IO?3?3IoServer?3?3ComputeFileCrc?$CI?$CJ?3?5@ 004bd174     foundation_win32.release:ioserver.obj
 0002:000091b0       ??_C@_0BC@NNKGBHDK@pattern?4IsValid?$CI?$CJ?$AA@ 004bd1b0     foundation_win32.release:ioserver.obj
 0002:000091c4       ??_C@_0BE@FBECNFCF@0?5?$CB?$DN?5this?9?$DOelements?$AA@ 004bd1c4     foundation_win32.release:ioserver.obj
 0002:000091d8       ??_C@_07GDLIKBJC@num?5?$DO?50?$AA@ 004bd1d8     foundation_win32.release:ioserver.obj
 0002:000091e0       ??_C@_0CD@OACPADOP@this?9?$DOelements?5?$CG?$CG?5?$CIthis?9?$DOsize?5?$DO?5@ 004bd1e0     foundation_win32.release:ioserver.obj
 0002:00009204       ??_7IoServer@IO@@6B@       004bd204     foundation_win32.release:ioserver.obj
 0002:0000920c       ??_C@_0O@FGCIKNOJ@0?5?$DN?$DN?5DataHeap?$AA@ 004bd20c     foundation_win32.release:win32sysfunc.obj
 0002:0000921c       ??_C@_0BD@BPOECNJK@Util?4Blob?4DataHeap?$AA@ 004bd21c     foundation_win32.release:win32sysfunc.obj
 0002:00009230       ?InvalidCoreId@Win32Cpu@Win32@@2KB 004bd230     foundation_win32.release:win32sysfunc.obj
 0002:00009234       ?MainThreadCore@Win32Cpu@Win32@@2KB 004bd234     foundation_win32.release:win32sysfunc.obj
 0002:00009238       ?IoThreadCore@Win32Cpu@Win32@@2KB 004bd238     foundation_win32.release:win32sysfunc.obj
 0002:0000923c       ?RenderThreadCore@Win32Cpu@Win32@@2KB 004bd23c     foundation_win32.release:win32sysfunc.obj
 0002:00009240       ?AudioThreadCore@Win32Cpu@Win32@@2KB 004bd240     foundation_win32.release:win32sysfunc.obj
 0002:00009244       ?MiscThreadCore@Win32Cpu@Win32@@2KB 004bd244     foundation_win32.release:win32sysfunc.obj
 0002:00009248       ?NetworkThreadCore@Win32Cpu@Win32@@2KB 004bd248     foundation_win32.release:win32sysfunc.obj
 0002:0000924c       ?JobThreadFirstCore@Win32Cpu@Win32@@2KB 004bd24c     foundation_win32.release:win32sysfunc.obj
 0002:00009250       ?MinGrowSize@?$Array@UStaticString@StringAtomTableBase@Util@@@Util@@0HB 004bd250     foundation_win32.release:win32sysfunc.obj
 0002:00009254       ?MaxGrowSize@?$Array@UStaticString@StringAtomTableBase@Util@@@Util@@0HB 004bd254     foundation_win32.release:win32sysfunc.obj
 0002:00009258       ?MinGrowSize@?$Array@PAD@Util@@0HB 004bd258     foundation_win32.release:win32sysfunc.obj
 0002:0000925c       ?MaxGrowSize@?$Array@PAD@Util@@0HB 004bd25c     foundation_win32.release:win32sysfunc.obj
 0002:00009260       ?MinGrowSize@?$Array@PBD@Util@@0HB 004bd260     foundation_win32.release:win32sysfunc.obj
 0002:00009264       ?MaxGrowSize@?$Array@PBD@Util@@0HB 004bd264     foundation_win32.release:win32sysfunc.obj
 0002:00009268       ??_C@_0L@HGHDALHK@MainThread?$AA@ 004bd268     foundation_win32.release:win32sysfunc.obj
 0002:00009278       ??_C@_0EO@EGNOHIDC@no?5SSE?1SSE2?5support?5on?5this?5CPU?4@ 004bd278     foundation_win32.release:win32sysfunc.obj
 0002:000092c8       ??_C@_0BF@LECBEOGP@NEBULA3?5SYSTEM?5ERROR?$AA@ 004bd2c8     foundation_win32.release:win32sysfunc.obj
 0002:000092e0       ??_C@_0BE@OEGCBAMB@Nebula3?3?3MainWindow?$AA@ 004bd2e0     foundation_win32.release:win32sysfunc.obj
 0002:000092f4       ??_C@_0BA@PJFNBMAI@NEBULA3?5MESSAGE?$AA@ 004bd2f4     foundation_win32.release:win32sysfunc.obj
 0002:00009304       ??_C@_0CJ@LDPDCBJJ@c?3?2nebula3?2code?2foundation?2util?1@ 004bd304     foundation_win32.release:factory.obj
 0002:00009330       ??_C@_0M@KPOOAIDJ@f?4IsValid?$CI?$CJ?$AA@ 004bd330     foundation_win32.release:factory.obj
 0002:0000933c       ??_C@_04MPKDFPPK@xzyw?$AA@ 004bd33c     foundation_win32.release:factory.obj
 0002:00009344       ??_C@_0BO@DJFJGNAC@?4?4?2foundation?2core?2factory?4cc?$AA@ 004bd344     foundation_win32.release:factory.obj
 0002:00009364       ??_C@_09INDLKAHI@0?5?$CB?$DN?5rtti?$AA@ 004bd364     foundation_win32.release:factory.obj
 0002:00009370       ??_C@_0CN@FJFLAEHH@Class?5name?5?8?$CFs?8?5has?5already?5been@ 004bd370     foundation_win32.release:factory.obj
 0002:000093a0       ??_C@_0DK@DFNCFKJA@Class?5fourcc?5?8?$CFs?8?5?$CIname?3?5?$CFs?$CJ?5has@ 004bd3a0     foundation_win32.release:factory.obj
 0002:000093dc       ??_C@_0BE@BBAEOLHN@className?4IsValid?$CI?$CJ?$AA@ 004bd3dc     foundation_win32.release:factory.obj
 0002:000093f0       ??_C@_0BB@MAKBHHBC@fourCC?4IsValid?$CI?$CJ?$AA@ 004bd3f0     foundation_win32.release:factory.obj
 0002:00009404       ??_C@_0BN@OBELMPBF@this?9?$DOClassExists?$CIclassName?$CJ?$AA@ 004bd404     foundation_win32.release:factory.obj
 0002:00009424       ??_C@_0BG@BCFKNJPL@classFourCC?4IsValid?$CI?$CJ?$AA@ 004bd424     foundation_win32.release:factory.obj
 0002:0000943c       ??_C@_0BP@OAPAMIOH@this?9?$DOClassExists?$CIclassFourCC?$CJ?$AA@ 004bd43c     foundation_win32.release:factory.obj
 0002:0000945c       ??_C@_0CL@BNBMBDPD@Factory?3?3Create?$CI?8?$CFs?8?$CJ?3?5unknown?5c@ 004bd45c     foundation_win32.release:factory.obj
 0002:00009488       ??_C@_0DC@PPEDOFIN@Factory?3?3Create?$CI?8?$CFs?8?$CJ?3?5unknown?5c@ 004bd488     foundation_win32.release:factory.obj
 0002:000094bc       ??_C@_0CM@CKKKLNIB@c?3?2nebula3?2code?2foundation?2util?1@ 004bd4bc     foundation_win32.release:factory.obj
 0002:000094e8       ??_C@_0BF@GCHCFOFO@0?5?$CB?$DN?5numHashElements?$AA@ 004bd4e8     foundation_win32.release:factory.obj
 0002:00009500       ??_C@_0CB@JHMLCKOJ@InvalidIndex?5?$CB?$DN?5hashElementIndex@ 004bd500     foundation_win32.release:factory.obj
 0002:00009524       ??_C@_0CC@PALPEJMB@InvalidIndex?5?$CB?$DN?5keyValuePairInde@ 004bd524     foundation_win32.release:factory.obj
 0002:00009548       ??_C@_0BE@LCKAMAEE@?$CBthis?9?$DOinBulkInsert?$AA@ 004bd548     foundation_win32.release:factory.obj
 0002:0000955c       ??_C@_0BL@JLGDMHKO@?$CBthis?9?$DOContains?$CIkvp?4Key?$CI?$CJ?$CJ?$AA@ 004bd55c     foundation_win32.release:factory.obj
 0002:00009578       ??_C@_0CL@CIMOLCLO@?4?4?2foundation?2timing?2win360?2win3@ 004bd578     foundation_win32.release:win360timer.obj
 0002:000095a4       ??_C@_0P@FKEILAOM@?$CBthis?9?$DOrunning?$AA@ 004bd5a4     foundation_win32.release:win360timer.obj
 0002:000095b4       ??_C@_0O@GNBOCPLK@this?9?$DOrunning?$AA@ 004bd5b4     foundation_win32.release:win360timer.obj
 0002:000095c4       ??_C@_0CG@MNAJANBD@?4?4?2foundation?2util?2win32?2win32gu@ 004bd5c4     foundation_win32.release:win32guid.obj
 0002:000095ec       ??_C@_0O@MOMKFDKG@rhs?4IsValid?$CI?$CJ?$AA@ 004bd5ec     foundation_win32.release:win32guid.obj
 0002:000095fc       ??_C@_0CE@HMDBHPOA@RPC_S_INVALID_STRING_UUID?5?$CB?$DN?5res@ 004bd5fc     foundation_win32.release:win32guid.obj
 0002:00009620       ??_C@_0BE@GNPECONE@RPC_S_OK?5?$DN?$DN?5success?$AA@ 004bd620     foundation_win32.release:win32guid.obj
 0002:00009634       ??_C@_0CJ@EJHHAKON@?$CI0?5?$CB?$DN?5ptr?$CJ?5?$CG?$CG?5?$CInumBytes?5?$DN?$DN?5sizeo@ 004bd634     foundation_win32.release:win32guid.obj
 0002:00009660       ??_C@_0DH@DHGDJLAP@c?3?2nebula3?2code?2foundation?2util?1@ 004bd660     foundation_win32.release:stringatom.obj
 0002:00009698       ??_C@_0DI@MBCPNNKF@c?3?2nebula3?2code?2foundation?2util?1@ 004bd698     foundation_win32.release:stringatom.obj
 0002:000096d0       ??_C@_0BB@BHLEFDJG@Core?3?3CoreServer?$AA@ 004bd6d0     foundation_win32.release:coreserver.obj
 0002:000096e4       ??_C@_0BA@ILGFJDHF@Radon?5Labs?5GmbH?$AA@ 004bd6e4     foundation_win32.release:coreserver.obj
 0002:000096f4       ??_C@_07MHMENOHJ@Nebula3?$AA@ 004bd6f4     foundation_win32.release:coreserver.obj
 0002:000096fc       ??_C@_05BDABMLJL@home?3?$AA@ 004bd6fc     foundation_win32.release:coreserver.obj
 0002:00009704       ??_C@_0CB@DAPGMNMP@?4?4?2foundation?2core?2coreserver?4cc@ 004bd704     foundation_win32.release:coreserver.obj
 0002:00009728       ??_C@_0BA@GJILFILP@?$CBthis?9?$DOIsOpen?$CI?$CJ?$AA@ 004bd728     foundation_win32.release:coreserver.obj
 0002:00009738       ??_C@_0P@OLLEPKOB@this?9?$DOIsOpen?$CI?$CJ?$AA@ 004bd738     foundation_win32.release:coreserver.obj
 0002:00009748       ??_7CoreServer@Core@@6B@   004bd748     foundation_win32.release:coreserver.obj
 0002:00009750       ??_C@_0M@MEPMEGKB@IO?3?3Console?$AA@ 004bd750     foundation_win32.release:console.obj
 0002:0000975c       ??_C@_0BM@HFIMCIOD@?4?4?2foundation?2io?2console?4cc?$AA@ 004bd75c     foundation_win32.release:console.obj
 0002:00009778       ??_C@_0DB@FMDPFOIJ@Thread?3?3GetMyThreadId?$CI?$CJ?5?$DN?$DN?5this?9@ 004bd778     foundation_win32.release:console.obj
 0002:000097ac       ??_C@_0M@PAPELKKB@h?4isvalid?$CI?$CJ?$AA@ 004bd7ac     foundation_win32.release:console.obj
 0002:000097b8       ??_C@_0BG@KOPLHNID@InvalidIndex?5?$CB?$DN?5index?$AA@ 004bd7b8     foundation_win32.release:console.obj
 0002:000097d0       ??_7Console@IO@@6B@        004bd7d0     foundation_win32.release:console.obj
 0002:000097d8       ??_C@_0DC@EKFJFGND@?4?4?2foundation?2memory?2win360?2win3@ 004bd7d8     foundation_win32.release:win360memoryconfig.obj
 0002:0000980c       ??_C@_0O@CBAGDPAC@0?5?$DN?$DN?5Heaps?$FLi?$FN?$AA@ 004bd80c     foundation_win32.release:win360memoryconfig.obj
 0002:00009820       ??_C@_0ED@GGCEJJJE@Invalid?5heap?5type?5in?5Memory?3?3Set@ 004bd820     foundation_win32.release:win360memoryconfig.obj
 0002:00009864       ??_C@_0N@JLKAGEFF@Default?5Heap?$AA@ 004bd864     foundation_win32.release:win360memoryconfig.obj
 0002:00009874       ??_C@_0M@FNOKPELE@Object?5Heap?$AA@ 004bd874     foundation_win32.release:win360memoryconfig.obj
 0002:00009880       ??_C@_0BC@GCHAMMC@Object?5Array?5Heap?$AA@ 004bd880     foundation_win32.release:win360memoryconfig.obj
 0002:00009894       ??_C@_0O@CHCHHJEE@Resource?5Heap?$AA@ 004bd894     foundation_win32.release:win360memoryconfig.obj
 0002:000098a4       ??_C@_0N@MNODCGCL@Scratch?5Heap?$AA@ 004bd8a4     foundation_win32.release:win360memoryconfig.obj
 0002:000098b4       ??_C@_0BB@FKLHLCFD@String?5Data?5Heap?$AA@ 004bd8b4     foundation_win32.release:win360memoryconfig.obj
 0002:000098c8       ??_C@_0BB@LNAFBOCK@Stream?5Data?5Heap?$AA@ 004bd8c8     foundation_win32.release:win360memoryconfig.obj
 0002:000098dc       ??_C@_0N@DJJHFFGI@Physics?5Heap?$AA@ 004bd8dc     foundation_win32.release:win360memoryconfig.obj
 0002:000098ec       ??_C@_08JFNKHEMA@App?5Heap?$AA@ 004bd8ec     foundation_win32.release:win360memoryconfig.obj
 0002:000098f8       ??_C@_0N@LMJMIJAH@Network?5Heap?$AA@ 004bd8f8     foundation_win32.release:win360memoryconfig.obj
 0002:00009908       ??_C@_0BG@FBKNDLGL@Xbox360?5Graphics?5Heap?$AA@ 004bd908     foundation_win32.release:win360memoryconfig.obj
 0002:00009920       ??_C@_0BD@KJBJPDLN@Xbox360?5Audio?5Heap?$AA@ 004bd920     foundation_win32.release:win360memoryconfig.obj
 0002:00009934       ??_C@_0P@MGAAIIGN@Scaleform?5Heap?$AA@ 004bd934     foundation_win32.release:win360memoryconfig.obj
 0002:00009948       ??_C@_0EL@MAAJOHHH@Invalid?5HeapType?5arg?5in?5Memory?3?3@ 004bd948     foundation_win32.release:win360memoryconfig.obj
 0002:00009994       ??_C@_0CH@KEGKFJEN@c?3?2nebula3?2code?2foundation?2io?1as@ 004bd994     foundation_win32.release:assignregistry.obj
 0002:000099bc       ??_C@_0P@IDDGJGKI@name?4IsValid?$CI?$CJ?$AA@ 004bd9bc     foundation_win32.release:assignregistry.obj
 0002:000099cc       ??_C@_0BI@MMLOIDDO@this?9?$DOkeyData?4IsValid?$CI?$CJ?$AA@ 004bd9cc     foundation_win32.release:assignregistry.obj
 0002:000099e4       ??_C@_0CN@JFMHDALH@c?3?2nebula3?2code?2foundation?2core?1@ 004bd9e4     foundation_win32.release:assignregistry.obj
 0002:00009a14       ??_C@_0BD@EDNDOHFP@IO?3?3AssignRegistry?$AA@ 004bda14     foundation_win32.release:assignregistry.obj
 0002:00009a28       ??_C@_0CD@DEIIPALD@?4?4?2foundation?2io?2assignregistry?4@ 004bda28     foundation_win32.release:assignregistry.obj
 0002:00009a4c       ??_C@_04KLFPBEKK@home?$AA@ 004bda4c     foundation_win32.release:assignregistry.obj
 0002:00009a54       ??_C@_03PDOMKJON@bin?$AA@  004bda54     foundation_win32.release:assignregistry.obj
 0002:00009a58       ??_C@_04FGEHGIFJ@temp?$AA@ 004bda58     foundation_win32.release:assignregistry.obj
 0002:00009a60       ??_C@_04CCHAHKJA@user?$AA@ 004bda60     foundation_win32.release:assignregistry.obj
 0002:00009a68       ??_C@_07KBOAIGNI@appdata?$AA@ 004bda68     foundation_win32.release:assignregistry.obj
 0002:00009a70       ??_C@_08CLLKOMAI@programs?$AA@ 004bda70     foundation_win32.release:assignregistry.obj
 0002:00009a7c       ??_C@_04NBFCGMPH@root?$AA@ 004bda7c     foundation_win32.release:assignregistry.obj
 0002:00009a84       ??_C@_0BC@PNHCLJBM@root?3export_win32?$AA@ 004bda84     foundation_win32.release:assignregistry.obj
 0002:00009a98       ??_C@_06NKNNMLDJ@export?$AA@ 004bda98     foundation_win32.release:assignregistry.obj
 0002:00009aa0       ??_C@_0O@NCODHGJH@export?3meshes?$AA@ 004bdaa0     foundation_win32.release:assignregistry.obj
 0002:00009ab0       ??_C@_03OMGEDIJL@msh?$AA@  004bdab0     foundation_win32.release:assignregistry.obj
 0002:00009ab4       ??_C@_0N@CBKHLAN@export?3anims?$AA@ 004bdab4     foundation_win32.release:assignregistry.obj
 0002:00009ac4       ??_C@_03KLFHIGEB@ani?$AA@  004bdac4     foundation_win32.release:assignregistry.obj
 0002:00009ac8       ??_C@_0M@JGCMMHEM@export?3data?$AA@ 004bdac8     foundation_win32.release:assignregistry.obj
 0002:00009ad4       ??_C@_04PJOLNDGD@data?$AA@ 004bdad4     foundation_win32.release:assignregistry.obj
 0002:00009adc       ??_C@_0N@LEOHEBAG@export?3video?$AA@ 004bdadc     foundation_win32.release:assignregistry.obj
 0002:00009aec       ??_C@_05BPFJLLEL@video?$AA@ 004bdaec     foundation_win32.release:assignregistry.obj
 0002:00009af4       ??_C@_0BB@DOJMKABN@export?3sequences?$AA@ 004bdaf4     foundation_win32.release:assignregistry.obj
 0002:00009b08       ??_C@_03NPAJGOON@seq?$AA@  004bdb08     foundation_win32.release:assignregistry.obj
 0002:00009b0c       ??_C@_0N@GDOPAMC@export?3audio?$AA@ 004bdb0c     foundation_win32.release:assignregistry.obj
 0002:00009b1c       ??_C@_06DJAMKFID@stream?$AA@ 004bdb1c     foundation_win32.release:assignregistry.obj
 0002:00009b24       ??_C@_0P@OIGBKJNL@export?3shaders?$AA@ 004bdb24     foundation_win32.release:assignregistry.obj
 0002:00009b34       ??_C@_03OAGEBLKK@shd?$AA@  004bdb34     foundation_win32.release:assignregistry.obj
 0002:00009b38       ??_C@_0BA@GDEEKLBO@export?3textures?$AA@ 004bdb38     foundation_win32.release:assignregistry.obj
 0002:00009b48       ??_C@_03JDBMONBN@tex?$AA@  004bdb48     foundation_win32.release:assignregistry.obj
 0002:00009b4c       ??_C@_0N@GDCDKMAO@export?3frame?$AA@ 004bdb4c     foundation_win32.release:assignregistry.obj
 0002:00009b5c       ??_C@_05MIJNFGED@frame?$AA@ 004bdb5c     foundation_win32.release:assignregistry.obj
 0002:00009b64       ??_C@_0O@FMADPNDB@export?3models?$AA@ 004bdb64     foundation_win32.release:assignregistry.obj
 0002:00009b74       ??_C@_03JBGBEIGK@mdl?$AA@  004bdb74     foundation_win32.release:assignregistry.obj
 0002:00009b78       ??_C@_05KNIAAKIP@audio?$AA@ 004bdb78     foundation_win32.release:assignregistry.obj
 0002:00009b80       ??_C@_0L@DGFHJLBC@export?3sui?$AA@ 004bdb80     foundation_win32.release:assignregistry.obj
 0002:00009b8c       ??_C@_03EBDEFFME@sui?$AA@  004bdb8c     foundation_win32.release:assignregistry.obj
 0002:00009b90       ??_C@_0P@NFBELFMO@export?3wiidata?$AA@ 004bdb90     foundation_win32.release:assignregistry.obj
 0002:00009ba0       ??_C@_07MNKLDEDK@wiidata?$AA@ 004bdba0     foundation_win32.release:assignregistry.obj
 0002:00009ba8       ??_C@_06BPJDDEFJ@sysmsh?$AA@ 004bdba8     foundation_win32.release:assignregistry.obj
 0002:00009bb0       ??_C@_06GAOLOBNP@systex?$AA@ 004bdbb0     foundation_win32.release:assignregistry.obj
 0002:00009bb8       ??_C@_07KELKGHPK@sysanim?$AA@ 004bdbb8     foundation_win32.release:assignregistry.obj
 0002:00009bc0       ??_C@_06NKCFPFEA@meshes?$AA@ 004bdbc0     foundation_win32.release:assignregistry.obj
 0002:00009bc8       ??_C@_05KJKEIBEA@anims?$AA@ 004bdbc8     foundation_win32.release:assignregistry.obj
 0002:00009bd0       ??_C@_08NJIMCCJK@textures?$AA@ 004bdbd0     foundation_win32.release:assignregistry.obj
 0002:00009bdc       ??_C@_0BF@IPFIDEFE@assignName?4IsValid?$CI?$CJ?$AA@ 004bdbdc     foundation_win32.release:assignregistry.obj
 0002:00009bf4       ??_C@_0BM@MIGIDELI@this?9?$DOHasAssign?$CIassignName?$CJ?$AA@ 004bdbf4     foundation_win32.release:assignregistry.obj
 0002:00009c10       ?MinGrowSize@?$Array@VAssign@IO@@@Util@@0HB 004bdc10     foundation_win32.release:assignregistry.obj
 0002:00009c14       ?MaxGrowSize@?$Array@VAssign@IO@@@Util@@0HB 004bdc14     foundation_win32.release:assignregistry.obj
 0002:00009c18       ??_C@_0P@NKJNKEKI@this?9?$DOsize?5?$DO?50?$AA@ 004bdc18     foundation_win32.release:assignregistry.obj
 0002:00009c28       ??_7AssignRegistry@IO@@6B@ 004bdc28     foundation_win32.release:assignregistry.obj
 0002:00009c30       ??_C@_0CL@JNOEMAAH@?4?4?2foundation?2io?2win360?2win360fs@ 004bdc30     foundation_win32.release:win360fswrapper.obj
 0002:00009c5c       ??_C@_0M@CAPIHHNN@0?5?$CB?$DN?5handle?$AA@ 004bdc5c     foundation_win32.release:win360fswrapper.obj
 0002:00009c68       ??_C@_08HJPCPHLF@buf?5?$CB?$DN?50?$AA@ 004bdc68     foundation_win32.release:win360fswrapper.obj
 0002:00009c74       ??_C@_0N@KPGELDJJ@numBytes?5?$DO?50?$AA@ 004bdc74     foundation_win32.release:win360fswrapper.obj
 0002:00009c84       ??_C@_0CF@CEKCBDHP@Win360FSWrapper?3?5WriteFile?$CI?$CJ?5fai@ 004bdc84     foundation_win32.release:win360fswrapper.obj
 0002:00009cac       ??_C@_0CE@IILIJNKJ@Win360FSWrapper?3?5ReadFile?$CI?$CJ?5fail@ 004bdcac     foundation_win32.release:win360fswrapper.obj
 0002:00009cd0       ??_C@_0DP@NHLKLCEK@Win360FSWrapper?3?3SetFileWriteTim@ 004bdcd0     foundation_win32.release:win360fswrapper.obj
 0002:00009d10       ??_C@_0BC@BJOBBEIF@dirPath?4IsValid?$CI?$CJ?$AA@ 004bdd10     foundation_win32.release:win360fswrapper.obj
 0002:00009d24       ??_C@_02DJGKEECL@?4?4?$AA@ 004bdd24     foundation_win32.release:win360fswrapper.obj
 0002:00009d28       ??_C@_0O@LGHHDKBB@SUCCEEDED?$CIhr?$CJ?$AA@ 004bdd28     foundation_win32.release:win360fswrapper.obj
 0002:00009d38       ??_C@_08NPMJDGGI@file?3?1?1?1?$AA@ 004bdd38     foundation_win32.release:win360fswrapper.obj
 0002:00009d44       ??_C@_08FFGGALGD@0?5?$CB?$DN?5res?$AA@ 004bdd44     foundation_win32.release:win360fswrapper.obj
 0002:00009d50       ??_C@_05NMJMPJJB@win32?$AA@ 004bdd50     foundation_win32.release:win360fswrapper.obj
 0002:00009d58       ?InitialSize@MemoryStream@IO@@0HB 004bdd58     foundation_win32.release:schemeregistry.obj
 0002:00009d5c       ??_C@_0BD@IFAOACGG@IO?3?3SchemeRegistry?$AA@ 004bdd5c     foundation_win32.release:schemeregistry.obj
 0002:00009d70       ??_C@_0CD@MEFJIHKK@?4?4?2foundation?2io?2schemeregistry?4@ 004bdd70     foundation_win32.release:schemeregistry.obj
 0002:00009d94       ??_C@_0CG@KNMLCGCF@classRtti?4IsDerivedFrom?$CIStream?3?3@ 004bdd94     foundation_win32.release:schemeregistry.obj
 0002:00009dbc       ??_C@_0BE@JOJIDHAO@uriScheme?4IsValid?$CI?$CJ?$AA@ 004bddbc     foundation_win32.release:schemeregistry.obj
 0002:00009dd0       ??_C@_0CJ@FFJMGBD@this?9?$DOschemeRegistry?4Contains?$CIur@ 004bddd0     foundation_win32.release:schemeregistry.obj
 0002:00009dfc       ??_C@_04IAFLKNP@http?$AA@  004bddfc     foundation_win32.release:schemeregistry.obj
 0002:00009e04       ??_C@_06LKINPMBB@httpnz?$AA@ 004bde04     foundation_win32.release:schemeregistry.obj
 0002:00009e0c       ??_C@_0BL@DECPMEPA@InvalidIndex?5?$CB?$DN?5eraseIndex?$AA@ 004bde0c     foundation_win32.release:schemeregistry.obj
 0002:00009e28       ??_7SchemeRegistry@IO@@6B@ 004bde28     foundation_win32.release:schemeregistry.obj
 0002:00009e30       ??_C@_0BG@FFNKDOBO@IO?3?3ArchiveFileSystem?$AA@ 004bde30     foundation_win32.release:archivefilesystem.obj
 0002:00009e48       ??_C@_0CN@KMPIIJIB@?4?4?2foundation?2io?2archfs?2archivef@ 004bde48     foundation_win32.release:archivefilesystem.obj
 0002:00009e78       ??_7ArchiveFileSystem@IO@@6B@ 004bde78     foundation_win32.release:archivefilesystem.obj
 0002:00009e94       ??_C@_0BC@HMJOFDPN@IO?3?3ZipFileSystem?$AA@ 004bde94     foundation_win32.release:zipfilesystem.obj
 0002:00009ea8       ??_C@_0CI@COPNGKOA@?4?4?2foundation?2io?2zipfs?2zipfilesy@ 004bdea8     foundation_win32.release:zipfilesystem.obj
 0002:00009ed0       ??_C@_03LCAAOJEC@zip?$AA@  004bded0     foundation_win32.release:zipfilesystem.obj
 0002:00009ed4       ??_C@_0BE@GEJFAMIO@localPath?4IsValid?$CI?$CJ?$AA@ 004bded4     foundation_win32.release:zipfilesystem.obj
 0002:00009ee8       ??_7ZipFileSystem@IO@@6B@  004bdee8     foundation_win32.release:zipfilesystem.obj
 0002:00009f04       ??_C@_0BK@BBHBLCHM@IO?3?3ArchiveFileSystemBase?$AA@ 004bdf04     foundation_win32.release:archivefilesystembase.obj
 0002:00009f20       ??_C@_0DB@EHABNMBK@?4?4?2foundation?2io?2archfs?2archivef@ 004bdf20     foundation_win32.release:archivefilesystembase.obj
 0002:00009f54       ??_C@_0BG@KDJBAFLD@?$CBthis?9?$DOIsMounted?$CIuri?$CJ?$AA@ 004bdf54     foundation_win32.release:archivefilesystembase.obj
 0002:00009f6c       ??_C@_0CD@IJPAFMBH@this?9?$DOIsMounted?$CIarchive?9?$DOGetURI?$CI@ 004bdf6c     foundation_win32.release:archivefilesystembase.obj
 0002:00009f90       ??_C@_0BF@NFALIHNL@this?9?$DOIsMounted?$CIuri?$CJ?$AA@ 004bdf90     foundation_win32.release:archivefilesystembase.obj
 0002:00009fa8       ?MinGrowSize@?$Array@V?$Ptr@VArchive@IO@@@@@Util@@0HB 004bdfa8     foundation_win32.release:archivefilesystembase.obj
 0002:00009fac       ?MaxGrowSize@?$Array@V?$Ptr@VArchive@IO@@@@@Util@@0HB 004bdfac     foundation_win32.release:archivefilesystembase.obj
 0002:00009fb0       ??_7ArchiveFileSystemBase@IO@@6B@ 004bdfb0     foundation_win32.release:archivefilesystembase.obj
 0002:00009fcc       ??_C@_0L@GNPMIMDD@IO?3?3Stream?$AA@ 004bdfcc     foundation_win32.release:stream.obj
 0002:00009fd8       ??_C@_0BL@CHCMBGJL@?4?4?2foundation?2io?2stream?4cc?$AA@ 004bdfd8     foundation_win32.release:stream.obj
 0002:00009ff4       ??_C@_0BC@CPDFFPCA@?$CBthis?9?$DOIsMapped?$CI?$CJ?$AA@ 004bdff4     foundation_win32.release:stream.obj
 0002:0000a008       ??_C@_0BA@JBDMANIO@?$CBthis?9?$DOisMapped?$AA@ 004be008     foundation_win32.release:stream.obj
 0002:0000a018       ??_C@_0BE@NBADBONI@this?9?$DOCanBeMapped?$CI?$CJ?$AA@ 004be018     foundation_win32.release:stream.obj
 0002:0000a02c       ??_C@_0P@BDADKPNA@this?9?$DOisMapped?$AA@ 004be02c     foundation_win32.release:stream.obj
 0002:0000a040       ??_7Stream@IO@@6B@         004be040     foundation_win32.release:stream.obj
 0002:0000a088       ??_C@_07NEHPBJGA@xbox360?$AA@ 004be088     foundation_win32.release:systeminfobase.obj
 0002:0000a090       ??_C@_03NLGKJIIH@wii?$AA@  004be090     foundation_win32.release:systeminfobase.obj
 0002:0000a094       ??_C@_03BHFIDDEG@ps3?$AA@  004be094     foundation_win32.release:systeminfobase.obj
 0002:0000a098       ??_C@_0BA@FELDNHBI@unknownplatform?$AA@ 004be098     foundation_win32.release:systeminfobase.obj
 0002:0000a0a8       ??_C@_06CDGPGGGH@x86_32?$AA@ 004be0a8     foundation_win32.release:systeminfobase.obj
 0002:0000a0b0       ??_C@_06HDPOADAK@x86_64?$AA@ 004be0b0     foundation_win32.release:systeminfobase.obj
 0002:0000a0b8       ??_C@_0BA@KJCALELP@powerpc_xbox360?$AA@ 004be0b8     foundation_win32.release:systeminfobase.obj
 0002:0000a0c8       ??_C@_0M@JOPAPABN@powerpc_ps3?$AA@ 004be0c8     foundation_win32.release:systeminfobase.obj
 0002:0000a0d4       ??_C@_0M@FCMCFLNM@powerpc_wii?$AA@ 004be0d4     foundation_win32.release:systeminfobase.obj
 0002:0000a0e0       ??_C@_0P@IOANILPO@unknowncputype?$AA@ 004be0e0     foundation_win32.release:systeminfobase.obj
 0002:0000a0f0       ??_C@_0BK@PNEAEACH@?4?4?2foundation?2util?2crc?4cc?$AA@ 004be0f0     foundation_win32.release:crc.obj
 0002:0000a10c       ??_C@_0P@CNKMHLAG@?$CBthis?9?$DOinBegin?$AA@ 004be10c     foundation_win32.release:crc.obj
 0002:0000a11c       ??_C@_0O@BKPKOEFA@this?9?$DOinBegin?$AA@ 004be11c     foundation_win32.release:crc.obj
 0002:0000a12c       ??_C@_0BC@CDPCMOIA@this?9?$DOresultValid?$AA@ 004be12c     foundation_win32.release:crc.obj
 0002:0000a140       ??_C@_0P@LAMKJOCO@IO?3?3ZipArchive?$AA@ 004be140     foundation_win32.release:ziparchive.obj
 0002:0000a150       ??_C@_0CF@HAEBKCLF@?4?4?2foundation?2io?2zipfs?2ziparchiv@ 004be150     foundation_win32.release:ziparchive.obj
 0002:0000a178       ??_C@_0BJ@PDJLMBFP@0?5?$DN?$DN?5this?9?$DOzipFileHandle?$AA@ 004be178     foundation_win32.release:ziparchive.obj
 0002:0000a194       ??_C@_04CLJHFACG@?4zip?$AA@ 004be194     foundation_win32.release:ziparchive.obj
 0002:0000a19c       ??_C@_0BG@NJILEOJH@UNZ_OK?5?$DN?$DN?5fileInfoRes?$AA@ 004be19c     foundation_win32.release:ziparchive.obj
 0002:0000a1b4       ??_C@_0CN@EDPKMDN@ZipArchive?3?5error?5in?5parsing?5zip@ 004be1b4     foundation_win32.release:ziparchive.obj
 0002:0000a1e4       ??_C@_02CFKBDFGI@?1?2?$AA@ 004be1e4     foundation_win32.release:ziparchive.obj
 0002:0000a1e8       ??_C@_0BO@EAJPGOAM@fileURI?4LocalPath?$CI?$CJ?4IsValid?$CI?$CJ?$AA@ 004be1e8     foundation_win32.release:ziparchive.obj
 0002:0000a208       ??_C@_0FE@NMOILJOP@ZipArchive?3?3ConvertToZipURI?$CI?$CJ?3?5f@ 004be208     foundation_win32.release:ziparchive.obj
 0002:0000a25c       ??_C@_05FBLGKOOJ@file?$DN?$AA@ 004be25c     foundation_win32.release:ziparchive.obj
 0002:0000a264       ??_7ZipArchive@IO@@6B@     004be264     foundation_win32.release:ziparchive.obj
 0002:0000a26c       ??_C@_0CK@CFGCFHEK@?4?4?2foundation?2memory?2win360?2win3@ 004be26c     foundation_win32.release:win360heap.obj
 0002:0000a298       ??_C@_0O@HMFEGNAJ@0?5?$CB?$DN?5heapName?$AA@ 004be298     foundation_win32.release:win360heap.obj
 0002:0000a2a8       ??_C@_0BA@GPMIBJHE@0?5?$CB?$DN?5this?9?$DOheap?$AA@ 004be2a8     foundation_win32.release:win360heap.obj
 0002:0000a2b8       ??_C@_0DK@LJJKHKIJ@c?3?2nebula3?2code?2foundation?2threa@ 004be2b8     foundation_win32.release:win360thread.obj
 0002:0000a2f4       ??_C@_0BB@BOFACGGP@0?5?$CB?$DN?5this?9?$DOevent?$AA@ 004be2f4     foundation_win32.release:win360thread.obj
 0002:0000a308       ??_C@_0BF@IHFKCJF@Win360?3?3Win360Thread?$AA@ 004be308     foundation_win32.release:win360thread.obj
 0002:0000a320       ??_C@_0CP@PMHDAPCP@?4?4?2foundation?2threading?2win360?2w@ 004be320     foundation_win32.release:win360thread.obj
 0002:0000a350       ??_C@_0BD@PJJJHNGI@?$CBthis?9?$DOIsRunning?$CI?$CJ?$AA@ 004be350     foundation_win32.release:win360thread.obj
 0002:0000a364       ??_C@_0BI@FGOFOLED@0?5?$DN?$DN?5this?9?$DOthreadHandle?$AA@ 004be364     foundation_win32.release:win360thread.obj
 0002:0000a37c       ??_C@_0BL@KMMDDLHN@NULL?5?$CB?$DN?5this?9?$DOthreadHandle?$AA@ 004be37c     foundation_win32.release:win360thread.obj
 0002:0000a398       ??_C@_0BC@LFOMINAG@this?9?$DOIsRunning?$CI?$CJ?$AA@ 004be398     foundation_win32.release:win360thread.obj
 0002:0000a3ac       ??_C@_0BI@BKPABEAC@0?5?$CB?$DN?5this?9?$DOthreadHandle?$AA@ 004be3ac     foundation_win32.release:win360thread.obj
 0002:0000a3c4       ??_C@_09MNFDFHDF@0?5?$CB?$DN?5self?$AA@ 004be3c4     foundation_win32.release:win360thread.obj
