 fmodtestsimple_win32

 Timestamp is 68d8753d (Sun Sep 28 02:37:33 2025)

 Preferred load address is 00400000

 Start         Length     Name                   Class
 0001:00000000 001c8349H .text                   CODE
 0001:001c8350 00006d0fH .text$yc                CODE
 0001:001cf060 000077b3H .text$yd                CODE
 0002:00000000 00000404H .idata$5                DATA
 0002:00000404 00000004H .CRT$XCA                DATA
 0002:00000408 00000004H .CRT$XCAA               DATA
 0002:0000040c 000007ecH .CRT$XCU                DATA
 0002:00000bf8 00000004H .CRT$XCZ                DATA
 0002:00000bfc 00000004H .CRT$XIA                DATA
 0002:00000c00 00000004H .CRT$XIAA               DATA
 0002:00000c04 00000004H .CRT$XIC                DATA
 0002:00000c08 00000004H .CRT$XIY                DATA
 0002:00000c0c 00000004H .CRT$XIZ                DATA
 0002:00000c10 00000004H .CRT$XLA                DATA
 0002:00000c14 00000004H .CRT$XLZ                DATA
 0002:00000c20 0003ffa8H .rdata                  DATA
 0002:00040bc8 00000018H .rdata$T                DATA
 0002:00040be0 00000046H .rdata$debug            DATA
 0002:00040c30 00000008H .rdata$sxdata           DATA
 0002:00040c38 00000004H .rtc$IAA                DATA
 0002:00040c3c 00000004H .rtc$IZZ                DATA
 0002:00040c40 00000004H .rtc$TAA                DATA
 0002:00040c44 00000004H .rtc$TZZ                DATA
 0002:00040c48 00000094H .xdata$x                DATA
 0002:00040cdc 0000012cH .idata$2                DATA
 0002:00040e08 00000014H .idata$3                DATA
 0002:00040e1c 00000404H .idata$4                DATA
 0002:00041220 000013faH .idata$6                DATA
 0002:0004261a 00000000H .edata                  DATA
 0003:00000000 00000290H .data                   DATA
 0003:00000290 000052a8H .bss                    DATA
 0004:00000000 00000001H .tls                    DATA
 0004:00000004 0000007cH .stls                   DATA
 0004:00000080 00000064H .tls$                   DATA
 0004:000000e4 00000001H .tls$ZZZ                DATA

  Address         Publics by Value              Rva+Base       Lib:Object

 0000:00000000       __except_list              00000000     <absolute>
 0000:00000002       ___safe_se_handler_count   00000002     <absolute>
 0000:0000002c       __tls_array                0000002c     <absolute>
 0000:00009876       __ldused                   00009876     <absolute>
 0000:00009876       __fltused                  00009876     <absolute>
 0000:00000000       ___ImageBase               00400000     <linker-defined>
 0001:00000000       _IXACT3SoundBank_Destroy@4 00401000 f i stdneb.obj
 0001:00000020       _IXACT3SoundBank_GetCueIndex@8 00401020 f i stdneb.obj
 0001:00000040       _IXACT3SoundBank_GetNumCues@8 00401040 f i stdneb.obj
 0001:00000060       _IXACT3SoundBank_GetCueProperties@12 00401060 f i stdneb.obj
 0001:00000080       _IXACT3SoundBank_Prepare@20 00401080 f i stdneb.obj
 0001:000000b0       _IXACT3SoundBank_Play@20   004010b0 f i stdneb.obj
 0001:000000e0       _IXACT3SoundBank_Stop@12   004010e0 f i stdneb.obj
 0001:00000100       _IXACT3SoundBank_GetState@8 00401100 f i stdneb.obj
 0001:00000120       _IXACT3WaveBank_Destroy@4  00401120 f i stdneb.obj
 0001:00000140       _IXACT3WaveBank_GetNumWaves@8 00401140 f i stdneb.obj
 0001:00000160       _IXACT3WaveBank_GetWaveIndex@8 00401160 f i stdneb.obj
 0001:00000180       _IXACT3WaveBank_GetWaveProperties@12 00401180 f i stdneb.obj
 0001:000001a0       _IXACT3WaveBank_Prepare@24 004011a0 f i stdneb.obj
 0001:000001d0       _IXACT3WaveBank_Play@24    004011d0 f i stdneb.obj
 0001:00000200       _IXACT3WaveBank_Stop@12    00401200 f i stdneb.obj
 0001:00000220       _IXACT3WaveBank_GetState@8 00401220 f i stdneb.obj
 0001:00000240       _IXACT3Wave_Destroy@4      00401240 f i stdneb.obj
 0001:00000260       _IXACT3Wave_Play@4         00401260 f i stdneb.obj
 0001:00000280       _IXACT3Wave_Stop@8         00401280 f i stdneb.obj
 0001:000002a0       _IXACT3Wave_Pause@8        004012a0 f i stdneb.obj
 0001:000002c0       _IXACT3Wave_GetState@8     004012c0 f i stdneb.obj
 0001:000002e0       _IXACT3Wave_SetPitch@8     004012e0 f i stdneb.obj
 0001:00000300       _IXACT3Wave_SetVolume@8    00401300 f i stdneb.obj
 0001:00000320       _IXACT3Wave_SetMatrixCoefficients@16 00401320 f i stdneb.obj
 0001:00000350       _IXACT3Wave_GetProperties@8 00401350 f i stdneb.obj
 0001:00000370       _IXACT3Cue_Play@4          00401370 f i stdneb.obj
 0001:00000390       _IXACT3Cue_Stop@8          00401390 f i stdneb.obj
 0001:000003b0       _IXACT3Cue_GetState@8      004013b0 f i stdneb.obj
 0001:000003d0       _IXACT3Cue_Destroy@4       004013d0 f i stdneb.obj
 0001:000003f0       _IXACT3Cue_SetMatrixCoefficients@16 004013f0 f i stdneb.obj
 0001:00000420       _IXACT3Cue_GetVariableIndex@8 00401420 f i stdneb.obj
 0001:00000440       _IXACT3Cue_SetVariable@12  00401440 f i stdneb.obj
 0001:00000470       _IXACT3Cue_GetVariable@12  00401470 f i stdneb.obj
 0001:00000490       _IXACT3Cue_Pause@8         00401490 f i stdneb.obj
 0001:000004b0       _IXACT3Cue_GetProperties@8 004014b0 f i stdneb.obj
 0001:000004d0       _IXACT3Cue_SetOutputVoices@8 004014d0 f i stdneb.obj
 0001:000004f0       _IXACT3Cue_SetOutputVoiceMatrix@20 004014f0 f i stdneb.obj
 0001:00000520       _IXACT3Engine_AddRef@4     00401520 f i stdneb.obj
 0001:00000540       _IXACT3Engine_Release@4    00401540 f i stdneb.obj
 0001:00000560       _IXACT3Engine_GetRendererCount@8 00401560 f i stdneb.obj
 0001:00000580       _IXACT3Engine_GetRendererDetails@12 00401580 f i stdneb.obj
 0001:000005a0       _IXACT3Engine_GetFinalMixFormat@8 004015a0 f i stdneb.obj
 0001:000005c0       _IXACT3Engine_Initialize@8 004015c0 f i stdneb.obj
 0001:000005e0       _IXACT3Engine_ShutDown@4   004015e0 f i stdneb.obj
 0001:00000600       _IXACT3Engine_DoWork@4     00401600 f i stdneb.obj
 0001:00000620       _IXACT3Engine_CreateSoundBank@24 00401620 f i stdneb.obj
 0001:00000650       _IXACT3Engine_CreateInMemoryWaveBank@24 00401650 f i stdneb.obj
 0001:00000680       _IXACT3Engine_CreateStreamingWaveBank@12 00401680 f i stdneb.obj
 0001:000006a0       _IXACT3Engine_PrepareWave@32 004016a0 f i stdneb.obj
 0001:000006e0       _IXACT3Engine_PrepareInMemoryWave@52 004016e0 f i stdneb.obj
 0001:00000740       _IXACT3Engine_PrepareStreamingWave@68 00401740 f i stdneb.obj
 0001:000007c0       _IXACT3Engine_RegisterNotification@8 004017c0 f i stdneb.obj
 0001:000007e0       _IXACT3Engine_UnRegisterNotification@8 004017e0 f i stdneb.obj
 0001:00000800       _IXACT3Engine_GetCategory@8 00401800 f i stdneb.obj
 0001:00000820       _IXACT3Engine_Stop@12      00401820 f i stdneb.obj
 0001:00000840       _IXACT3Engine_SetVolume@12 00401840 f i stdneb.obj
 0001:00000870       _IXACT3Engine_Pause@12     00401870 f i stdneb.obj
 0001:00000890       _IXACT3Engine_GetGlobalVariableIndex@8 00401890 f i stdneb.obj
 0001:000008b0       _IXACT3Engine_SetGlobalVariable@12 004018b0 f i stdneb.obj
 0001:000008e0       _IXACT3Engine_GetGlobalVariable@12 004018e0 f i stdneb.obj
 0001:00000900       ?Increment@Win360Interlocked@Win360@@SAHACH@Z 00401900 f i fmodaudioapplication.obj
 0001:00000920       ?Decrement@Win360Interlocked@Win360@@SAHACH@Z 00401920 f i fmodaudioapplication.obj
 0001:00000940       ??2@YAPAXI@Z               00401940 f i fmodaudioapplication.obj
 0001:00000960       ??3@YAXPAX@Z               00401960 f i fmodaudioapplication.obj
 0001:00000980       ??_V@YAXPAX@Z              00401980 f i fmodaudioapplication.obj
 0001:000009a0       ??0float4@Math@@QAE@MMMM@Z 004019a0 f i fmodaudioapplication.obj
 0001:000009f0       ??0float4@Math@@QAE@T__m128@@@Z 004019f0 f i fmodaudioapplication.obj
 0001:00000a20       ?x@float4@Math@@QAEAAMXZ   00401a20 f i fmodaudioapplication.obj
 0001:00000a30       ??0vector@Math@@QAE@MMM@Z  00401a30 f i fmodaudioapplication.obj
 0001:00000a90       ??0vector@Math@@QAE@T__m128@@@Z 00401a90 f i fmodaudioapplication.obj
 0001:00000ac0       ??Yvector@Math@@QAEXABV01@@Z 00401ac0 f i fmodaudioapplication.obj
 0001:00000b10       ??Dvector@Math@@QBE?AV01@M@Z 00401b10 f i fmodaudioapplication.obj
 0001:00000b70       ??0matrix44@Math@@QAE@ABU_XMMATRIX@@@Z 00401b70 f i fmodaudioapplication.obj
 0001:00000ba0       ??4matrix44@Math@@QAEXABV01@@Z 00401ba0 f i fmodaudioapplication.obj
 0001:00000bf0       ?translation@matrix44@Math@@SA?AV12@ABVfloat4@2@@Z 00401bf0 f i fmodaudioapplication.obj
 0001:00000d10       ??3String@Util@@SAXPAX@Z   00401d10 f i fmodaudioapplication.obj
 0001:00000d30       ??0String@Util@@QAE@XZ     00401d30 f i fmodaudioapplication.obj
 0001:00000d70       ?Delete@String@Util@@AAEXXZ 00401d70 f i fmodaudioapplication.obj
 0001:00000dc0       ??1String@Util@@QAE@XZ     00401dc0 f i fmodaudioapplication.obj
 0001:00000e10       ??0String@Util@@QAE@PBD@Z  00401e10 f i fmodaudioapplication.obj
 0001:00000e50       ??0String@Util@@QAE@ABV01@@Z 00401e50 f i fmodaudioapplication.obj
 0001:00000eb0       ?AsCharPtr@String@Util@@QBEPBDXZ 00401eb0 f i fmodaudioapplication.obj
 0001:00000ee0       ??4String@Util@@QAEXABV01@@Z 00401ee0 f i fmodaudioapplication.obj
 0001:00000f20       ?Append@String@Util@@QAEXABV12@@Z 00401f20 f i fmodaudioapplication.obj
 0001:00001000       ?AddRef@RefCounted@Core@@QAEXXZ 00402000 f i fmodaudioapplication.obj
 0001:00001020       ?Release@RefCounted@Core@@QAEXXZ 00402020 f i fmodaudioapplication.obj
 0001:00001070       ?Instance@Console@IO@@SAPAV12@XZ 00402070 f i fmodaudioapplication.obj
 0001:000010a0       ??0StringAtom@Util@@QAE@PBD@Z 004020a0 f i fmodaudioapplication.obj
 0001:000010d0       ??4StringAtom@Util@@QAEXABV01@@Z 004020d0 f i fmodaudioapplication.obj
 0001:000010f0       ?SetCompanyName@CoreServer@Core@@QAEXABVStringAtom@Util@@@Z 004020f0 f i fmodaudioapplication.obj
 0001:00001110       ?SetAppName@CoreServer@Core@@QAEXABVStringAtom@Util@@@Z 00402110 f i fmodaudioapplication.obj
 0001:00001130       ?SetTitle@GameContentServerBase@Base@@QAEXABVString@Util@@@Z 00402130 f i fmodaudioapplication.obj
 0001:00001180       ?SetTitleId@GameContentServerBase@Base@@QAEXABVString@Util@@@Z 00402180 f i fmodaudioapplication.obj
 0001:000011d0       ?SetVersion@GameContentServerBase@Base@@QAEXABVString@Util@@@Z 004021d0 f i fmodaudioapplication.obj
 0001:00001220       ??0FmodEventProjectId@Audio2@@QAE@PBD@Z 00402220 f i fmodaudioapplication.obj
 0001:00001300       ??1FmodEventProjectId@Audio2@@QAE@XZ 00402300 f i fmodaudioapplication.obj
 0001:00001390       ?Set@FmodEventProjectId@Audio2@@QAEXABVString@Util@@@Z 00402390 f i fmodaudioapplication.obj
 0001:000015d0       ?IsConnected@GamePadBase@Base@@QBE_NXZ 004025d0 f i fmodaudioapplication.obj
 0001:00001610       ?ButtonDown@GamePadBase@Base@@QBE_NW4Button@12@@Z 00402610 f i fmodaudioapplication.obj
 0001:00001660       ?GetAxisValue@GamePadBase@Base@@QBEMW4Axis@12@@Z 00402660 f i fmodaudioapplication.obj
 0001:000016b0       ??0FmodEventId@Audio2@@QAE@ABVFmodEventProjectId@1@ABVString@Util@@@Z 004026b0 f i fmodaudioapplication.obj
 0001:00001730       ??0FmodEventProjectId@Audio2@@QAE@ABV01@@Z 00402730 f i fmodaudioapplication.obj
 0001:000017f0       ??1FmodEventId@Audio2@@QAE@XZ 004027f0 f i fmodaudioapplication.obj
 0001:00001850       ?GetState@Audio2Emitter@Audio2@@QBE?AW4FmodEventState@2@XZ 00402850 f i fmodaudioapplication.obj
 0001:00001870       ?Instance@Audio2Listener@Audio2@@SAPAV12@XZ 00402870 f i fmodaudioapplication.obj
 0001:000018b0       ?SetTransform@Audio2Listener@Audio2@@QAEXABVmatrix44@Math@@@Z 004028b0 f i fmodaudioapplication.obj
 0001:00001910       ??0FmodEventCategoryId@Audio2@@QAE@PBD@Z 00402910 f i fmodaudioapplication.obj
 0001:00001950       ??1FmodEventCategoryId@Audio2@@QAE@XZ 00402950 f i fmodaudioapplication.obj
 0001:000019a0       ??0FModAudioApplication@Test@@QAE@XZ 004029a0 f   fmodaudioapplication.obj
 0001:00001a80       ??_EFModAudioApplication@Test@@UAEPAXI@Z 00402a80 f i  CIL library: CIL module
 0001:00001a80       ??_GFModAudioApplication@Test@@UAEPAXI@Z 00402a80 f i fmodaudioapplication.obj
 0001:00001ab0       ??0Timer@Timing@@QAE@XZ    00402ab0 f i fmodaudioapplication.obj
 0001:00001ad0       ??_H@YGXPAXIHP6EPAX0@Z@Z   00402ad0 f i fmodaudioapplication.obj
 0001:00001b00       ??_I@YGXPAXIHP6EX0@Z@Z     00402b00 f i fmodaudioapplication.obj
 0001:00001b30       ??1FModAudioApplication@Test@@UAE@XZ 00402b30 f   fmodaudioapplication.obj
 0001:00001c10       ?Open@FModAudioApplication@Test@@UAE_NXZ 00402c10 f   fmodaudioapplication.obj
 0001:000024b0       ?Close@FModAudioApplication@Test@@UAEXXZ 004034b0 f   fmodaudioapplication.obj
 0001:00002690       ?Run@FModAudioApplication@Test@@UAEXXZ 00403690 f   fmodaudioapplication.obj
 0001:000028a0       ?ProcessInput_Test@FModAudioApplication@Test@@AAEXXZ 004038a0 f   fmodaudioapplication.obj
 0001:00002b30       ?ProcessInput_TestSoundStartStop@FModAudioApplication@Test@@AAEXXZ 00403b30 f   fmodaudioapplication.obj
 0001:00002b40       ?ProcessInput_Test3DPan@FModAudioApplication@Test@@AAEXXZ 00403b40 f   fmodaudioapplication.obj
 0001:00002b50       ?ProcessInput_Test3DVolume@FModAudioApplication@Test@@AAEXXZ 00403b50 f   fmodaudioapplication.obj
 0001:00002b60       ?ProcessInput_Test3DDoppler@FModAudioApplication@Test@@AAEXXZ 00403b60 f   fmodaudioapplication.obj
 0001:00002b70       ?ProcessInput_Test3DAll@FModAudioApplication@Test@@AAEXXZ 00403b70 f   fmodaudioapplication.obj
 0001:00002f30       ??0?$Ptr@VAssignRegistry@IO@@@@QAE@XZ 00403f30 f i fmodaudioapplication.obj
 0001:00002f50       ??1?$Ptr@VAssignRegistry@IO@@@@QAE@XZ 00403f50 f i fmodaudioapplication.obj
 0001:00002f80       ??4?$Ptr@VAssignRegistry@IO@@@@QAEXPAVAssignRegistry@IO@@@Z 00403f80 f i fmodaudioapplication.obj
 0001:00002ff0       ??C?$Ptr@VAssignRegistry@IO@@@@QBEPAVAssignRegistry@IO@@XZ 00403ff0 f i fmodaudioapplication.obj
 0001:00003030       ??0?$Ptr@VCoreServer@Core@@@@QAE@XZ 00404030 f i fmodaudioapplication.obj
 0001:00003050       ??1?$Ptr@VCoreServer@Core@@@@QAE@XZ 00404050 f i fmodaudioapplication.obj
 0001:00003080       ??4?$Ptr@VCoreServer@Core@@@@QAEXPAVCoreServer@Core@@@Z 00404080 f i fmodaudioapplication.obj
 0001:000030e0       ??C?$Ptr@VCoreServer@Core@@@@QBEPAVCoreServer@Core@@XZ 004040e0 f i fmodaudioapplication.obj
 0001:00003120       ??0?$Ptr@VJobSystem@Jobs@@@@QAE@XZ 00404120 f i fmodaudioapplication.obj
 0001:00003140       ??1?$Ptr@VJobSystem@Jobs@@@@QAE@XZ 00404140 f i fmodaudioapplication.obj
 0001:00003170       ??4?$Ptr@VJobSystem@Jobs@@@@QAEXPAVJobSystem@Jobs@@@Z 00404170 f i fmodaudioapplication.obj
 0001:000031d0       ??C?$Ptr@VJobSystem@Jobs@@@@QBEPAVJobSystem@Jobs@@XZ 004041d0 f i fmodaudioapplication.obj
 0001:00003210       ??0?$Ptr@VGameContentServer@IO@@@@QAE@XZ 00404210 f i fmodaudioapplication.obj
 0001:00003230       ??1?$Ptr@VGameContentServer@IO@@@@QAE@XZ 00404230 f i fmodaudioapplication.obj
 0001:00003260       ??4?$Ptr@VGameContentServer@IO@@@@QAEXPAVGameContentServer@IO@@@Z 00404260 f i fmodaudioapplication.obj
 0001:000032c0       ??C?$Ptr@VGameContentServer@IO@@@@QBEPAVGameContentServer@IO@@XZ 004042c0 f i fmodaudioapplication.obj
 0001:00003300       ??0?$Ptr@VIoServer@IO@@@@QAE@XZ 00404300 f i fmodaudioapplication.obj
 0001:00003320       ??1?$Ptr@VIoServer@IO@@@@QAE@XZ 00404320 f i fmodaudioapplication.obj
 0001:00003350       ??4?$Ptr@VIoServer@IO@@@@QAEXPAVIoServer@IO@@@Z 00404350 f i fmodaudioapplication.obj
 0001:000033b0       ??C?$Ptr@VIoServer@IO@@@@QBEPAVIoServer@IO@@XZ 004043b0 f i fmodaudioapplication.obj
 0001:000033f0       ??0?$Ptr@VHttpInterface@Http@@@@QAE@XZ 004043f0 f i fmodaudioapplication.obj
 0001:00003410       ??1?$Ptr@VHttpInterface@Http@@@@QAE@XZ 00404410 f i fmodaudioapplication.obj
 0001:00003440       ??4?$Ptr@VHttpInterface@Http@@@@QAEXPAVHttpInterface@Http@@@Z 00404440 f i fmodaudioapplication.obj
 0001:000034a0       ??C?$Ptr@VHttpInterface@Http@@@@QBEPAVHttpInterface@Http@@XZ 004044a0 f i fmodaudioapplication.obj
 0001:000034e0       ??0?$Ptr@VHttpServerProxy@Http@@@@QAE@XZ 004044e0 f i fmodaudioapplication.obj
 0001:00003500       ??1?$Ptr@VHttpServerProxy@Http@@@@QAE@XZ 00404500 f i fmodaudioapplication.obj
 0001:00003530       ??4?$Ptr@VHttpServerProxy@Http@@@@QAEXPAVHttpServerProxy@Http@@@Z 00404530 f i fmodaudioapplication.obj
 0001:00003590       ??C?$Ptr@VHttpServerProxy@Http@@@@QBEPAVHttpServerProxy@Http@@XZ 00404590 f i fmodaudioapplication.obj
 0001:000035d0       ??0?$Ptr@VInputServer@Input@@@@QAE@XZ 004045d0 f i fmodaudioapplication.obj
 0001:000035f0       ??1?$Ptr@VInputServer@Input@@@@QAE@XZ 004045f0 f i fmodaudioapplication.obj
 0001:00003620       ??4?$Ptr@VInputServer@Input@@@@QAEXPAVInputServer@Input@@@Z 00404620 f i fmodaudioapplication.obj
 0001:00003680       ??C?$Ptr@VInputServer@Input@@@@QBEPAVInputServer@Input@@XZ 00404680 f i fmodaudioapplication.obj
 0001:000036c0       ??0?$Ptr@VAudio2Interface@Audio2@@@@QAE@XZ 004046c0 f i fmodaudioapplication.obj
 0001:000036e0       ??1?$Ptr@VAudio2Interface@Audio2@@@@QAE@XZ 004046e0 f i fmodaudioapplication.obj
 0001:00003710       ??4?$Ptr@VAudio2Interface@Audio2@@@@QAEXPAVAudio2Interface@Audio2@@@Z 00404710 f i fmodaudioapplication.obj
 0001:00003770       ??C?$Ptr@VAudio2Interface@Audio2@@@@QBEPAVAudio2Interface@Audio2@@XZ 00404770 f i fmodaudioapplication.obj
 0001:000037b0       ??0?$Ptr@VAudio2Server@Audio2@@@@QAE@XZ 004047b0 f i fmodaudioapplication.obj
 0001:000037d0       ??1?$Ptr@VAudio2Server@Audio2@@@@QAE@XZ 004047d0 f i fmodaudioapplication.obj
 0001:00003800       ??4?$Ptr@VAudio2Server@Audio2@@@@QAEXPAVAudio2Server@Audio2@@@Z 00404800 f i fmodaudioapplication.obj
 0001:00003860       ??C?$Ptr@VAudio2Server@Audio2@@@@QBEPAVAudio2Server@Audio2@@XZ 00404860 f i fmodaudioapplication.obj
 0001:000038a0       ??0?$Ptr@VAudio2Player@Audio2@@@@QAE@XZ 004048a0 f i fmodaudioapplication.obj
 0001:000038c0       ??1?$Ptr@VAudio2Player@Audio2@@@@QAE@XZ 004048c0 f i fmodaudioapplication.obj
 0001:000038f0       ??4?$Ptr@VAudio2Player@Audio2@@@@QAEXPAVAudio2Player@Audio2@@@Z 004048f0 f i fmodaudioapplication.obj
 0001:00003950       ??0?$Ptr@VAudio2Emitter@Audio2@@@@QAE@XZ 00404950 f i fmodaudioapplication.obj
 0001:00003970       ??1?$Ptr@VAudio2Emitter@Audio2@@@@QAE@XZ 00404970 f i fmodaudioapplication.obj
 0001:000039a0       ??4?$Ptr@VAudio2Emitter@Audio2@@@@QAEXPAVAudio2Emitter@Audio2@@@Z 004049a0 f i fmodaudioapplication.obj
 0001:00003a00       ??4?$Ptr@VAudio2Emitter@Audio2@@@@QAEXABV0@@Z 00404a00 f i fmodaudioapplication.obj
 0001:00003a60       ??C?$Ptr@VAudio2Emitter@Audio2@@@@QBEPAVAudio2Emitter@Audio2@@XZ 00404a60 f i fmodaudioapplication.obj
 0001:00003aa0       ?isvalid@?$Ptr@VAudio2Emitter@Audio2@@@@QBE_NXZ 00404aa0 f i fmodaudioapplication.obj
 0001:00003ac0       ??A?$FixedArray@UButtonState@GamePadBase@Base@@@Util@@QBEAAUButtonState@GamePadBase@Base@@H@Z 00404ac0 f i fmodaudioapplication.obj
 0001:00003b10       ??A?$FixedArray@M@Util@@QBEAAMH@Z 00404b10 f i fmodaudioapplication.obj
 0001:00003b60       ??0?$Ptr@VLogFileConsoleHandler@IO@@@@QAE@PAVLogFileConsoleHandler@IO@@@Z 00404b60 f i fmodaudioapplication.obj
 0001:00003ba0       ??1?$Ptr@VLogFileConsoleHandler@IO@@@@QAE@XZ 00404ba0 f i fmodaudioapplication.obj
 0001:00003bd0       ??$upcast@VConsoleHandler@IO@@@?$Ptr@VLogFileConsoleHandler@IO@@@@QBEABV?$Ptr@VConsoleHandler@IO@@@@XZ 00404bd0 f i fmodaudioapplication.obj
 0001:00003be0       ??1?$Ptr@VGamePad@Input@@@@QAE@XZ 00404be0 f i fmodaudioapplication.obj
 0001:00003c10       ??C?$Ptr@VGamePad@Input@@@@QBEPAVGamePad@Input@@XZ 00404c10 f i fmodaudioapplication.obj
 0001:00003c50       ??_EString@Util@@QAEPAXI@Z 00404c50 f i fmodaudioapplication.obj
 0001:00003d60       ??_E?$Ptr@VConsoleHandler@IO@@@@QAEPAXI@Z 00404d60 f i fmodaudioapplication.obj
 0001:00003e00       ??1?$Ptr@VConsoleHandler@IO@@@@QAE@XZ 00404e00 f i fmodaudioapplication.obj
 0001:00003e30       _ceilf                     00404e30 f i fmodaudioapplication.obj
 0001:00003e50       ?XMMatrixTranslationFromVector@@YA?AU_XMMATRIX@@T__m128@@@Z 00404e50 f i fmodaudioapplication.obj
 0001:00003f40       ??4_XMMATRIX@@QAEAAU0@ABU0@@Z 00404f40 f i fmodaudioapplication.obj
 0001:00003fa0       ??0_XMMATRIX@@QAE@XZ       00404fa0 f i fmodaudioapplication.obj
 0001:00003fb0       ??BXMVECTORI32@@QBE?AT__m128@@XZ 00404fb0 f i fmodaudioapplication.obj
 0001:00003fe0       ??BXMVECTORF32@@QBE?AT__m128@@XZ 00404fe0 f i fmodaudioapplication.obj
 0001:00004010       ?XMVectorAdd@@YA?AT__m128@@T1@0@Z 00405010 f i fmodaudioapplication.obj
 0001:00004040       ?XMVectorScale@@YA?AT__m128@@T1@M@Z 00405040 f i fmodaudioapplication.obj
 0001:00004080       ?XMVectorSet@@YA?AT__m128@@MMMM@Z 00405080 f i fmodaudioapplication.obj
 0001:000040c0       _WinMain@16                004050c0 f   fmodtestsimple.obj
 0001:00004150       ??1CommandLineArgs@Util@@QAE@XZ 00405150 f i fmodtestsimple.obj
 0001:00004170       ?NebulaMain@@YAXABVCommandLineArgs@Util@@@Z 00405170 f   fmodtestsimple.obj
 0001:000041b0       ??1?$Array@VString@Util@@@Util@@QAE@XZ 004051b0 f i fmodtestsimple.obj
 0001:000041d0       ?Delete@?$Array@VString@Util@@@Util@@AAEXXZ 004051d0 f i fmodtestsimple.obj
 0001:00004240       ?HasInstance@Console@IO@@SA_NXZ 00405240 f i foundation_win32.release:debug.obj
 0001:00004260       ?n_barf@@YAXPBD0H@Z        00405260 f   foundation_win32.release:debug.obj
 0001:00004300       ?n_barf2@@YAXPBD00H@Z      00405300 f   foundation_win32.release:debug.obj
 0001:000043a0       ?n_error@@YAXPBDZZ         004053a0 f   foundation_win32.release:debug.obj
 0001:00004460       ?n_warning@@YAXPBDZZ       00405460 f   foundation_win32.release:debug.obj
 0001:00004520       ?n_confirm@@YAXPBDZZ       00405520 f   foundation_win32.release:debug.obj
 0001:000045e0       ?n_printf@@YAXPBDZZ        004055e0 f   foundation_win32.release:debug.obj
 0001:00004630       ?n_dbgout@@YAXPBDZZ        00405630 f   foundation_win32.release:debug.obj
 0001:00004680       ?n_sleep@@YAXN@Z           00405680 f   foundation_win32.release:debug.obj
 0001:000046a0       ?__HeapAlignPointerAndWritePadding16@Memory@@YAPAEPAE@Z 004056a0 f i foundation_win32.release:win360memory.obj
 0001:000046d0       ?__HeapUnalignPointer16@Memory@@YAPAEPAE@Z 004056d0 f i foundation_win32.release:win360memory.obj
 0001:000046f0       ?__HeapAlloc16@Memory@@YAPAXPAXKK@Z 004056f0 f i foundation_win32.release:win360memory.obj
 0001:00004740       ?__HeapReAlloc16@Memory@@YAPAXPAXK0K@Z 00405740 f i foundation_win32.release:win360memory.obj
 0001:00004860       ?__HeapFree16@Memory@@YAHPAXK0@Z 00405860 f i foundation_win32.release:win360memory.obj
 0001:000048a0       ?Copy@Memory@@YAXPBXPAXI@Z 004058a0 f i foundation_win32.release:win360memory.obj
 0001:00004910       ?Alloc@Memory@@YAPAXW4HeapType@1@I@Z 00405910 f   foundation_win32.release:win360memory.obj
 0001:00004a00       ?Realloc@Memory@@YAPAXW4HeapType@1@PAXI@Z 00405a00 f   foundation_win32.release:win360memory.obj
 0001:00004bb0       ?Free@Memory@@YAXW4HeapType@1@PAX@Z 00405bb0 f   foundation_win32.release:win360memory.obj
 0001:00004c40       ?DuplicateCString@Memory@@YAPADPBD@Z 00405c40 f   foundation_win32.release:win360memory.obj
 0001:00004d20       ?IsOverlapping@Memory@@YA_NPBEI0I@Z 00405d20 f   foundation_win32.release:win360memory.obj
 0001:00004d60       ?GetTotalMemoryStatus@Memory@@YA?AUTotalMemoryStatus@1@XZ 00405d60 f   foundation_win32.release:win360memory.obj
 0001:00004dd0       ?DumpTotalMemoryStatus@Memory@@YAXXZ 00405dd0 f   foundation_win32.release:win360memory.obj
 0001:00004df0       ??_U@YAPAXI@Z              00405df0 f i foundation_win32.release:string.obj
 0001:00004e10       ??0matrix44@Math@@QAE@ABVfloat4@1@000@Z 00405e10 f i foundation_win32.release:string.obj
 0001:00004e60       ?Alloc@String@Util@@AAEXH@Z 00405e60 f i foundation_win32.release:string.obj
 0001:00004f00       ?Realloc@String@Util@@AAEXH@Z 00405f00 f i foundation_win32.release:string.obj
 0001:00005050       ?Reserve@String@Util@@QAEXH@Z 00406050 f i foundation_win32.release:string.obj
 0001:00005080       ??4String@Util@@QAEXPBD@Z  00406080 f i foundation_win32.release:string.obj
 0001:000050a0       ??AString@Util@@QBEDH@Z    004060a0 f i foundation_win32.release:string.obj
 0001:00005100       ??AString@Util@@QAEAADH@Z  00406100 f i foundation_win32.release:string.obj
 0001:00005160       ?Length@String@Util@@QBEHXZ 00406160 f i foundation_win32.release:string.obj
 0001:00005180       ?IsValid@String@Util@@QBE_NXZ 00406180 f i foundation_win32.release:string.obj
 0001:00005240       ?CopyToBuffer@String@Util@@QBE_NPADH@Z 00406240 f   foundation_win32.release:string.obj
 0001:000052f0       ?Format@String@Util@@QAAXPBDZZ 004062f0 f   foundation_win32.release:string.obj
 0001:00005380       ?FormatArgList@String@Util@@QAAXPBDPAD@Z 00406380 f   foundation_win32.release:string.obj
 0001:000053f0       ?Set@String@Util@@QAEXPBDH@Z 004063f0 f   foundation_win32.release:string.obj
 0001:00005660       ?AppendRange@String@Util@@QAEXPBDH@Z 00406660 f   foundation_win32.release:string.obj
 0001:00005880       ?Tokenize@String@Util@@QBEHABV12@AAV?$Array@VString@Util@@@2@@Z 00406880 f   foundation_win32.release:string.obj
 0001:000059b0       ?Tokenize@String@Util@@QBE?AV?$Array@VString@Util@@@2@ABV12@@Z 004069b0 f   foundation_win32.release:string.obj
 0001:000059f0       ?Tokenize@String@Util@@QBEHABV12@DAAV?$Array@VString@Util@@@2@@Z 004069f0 f   foundation_win32.release:string.obj
 0001:00005d40       ?Tokenize@String@Util@@QBE?AV?$Array@VString@Util@@@2@ABV12@D@Z 00406d40 f   foundation_win32.release:string.obj
 0001:00005d90       ?ExtractRange@String@Util@@QBE?AV12@HH@Z 00406d90 f   foundation_win32.release:string.obj
 0001:00005e50       ?ExtractToEnd@String@Util@@QBE?AV12@H@Z 00406e50 f   foundation_win32.release:string.obj
 0001:00005e80       ?Strip@String@Util@@QAEXABV12@@Z 00406e80 f   foundation_win32.release:string.obj
 0001:00005f40       ?FindStringIndex@String@Util@@QBEHABV12@H@Z 00406f40 f   foundation_win32.release:string.obj
 0001:00006030       ?FindCharIndex@String@Util@@QBEHDH@Z 00407030 f   foundation_win32.release:string.obj
 0001:000060e0       ?TrimLeft@String@Util@@QAEXABV12@@Z 004070e0 f   foundation_win32.release:string.obj
 0001:000062c0       ?TrimRight@String@Util@@QAEXABV12@@Z 004072c0 f   foundation_win32.release:string.obj
 0001:000064a0       ?Trim@String@Util@@QAEXABV12@@Z 004074a0 f   foundation_win32.release:string.obj
 0001:000064d0       ?SubstituteString@String@Util@@QAEXABV12@0@Z 004074d0 f   foundation_win32.release:string.obj
 0001:00006620       ?ExtractLastDirName@String@Util@@QBE?AV12@XZ 00407620 f   foundation_win32.release:string.obj
 0001:00006750       ?ExtractDirName@String@Util@@QBE?AV12@XZ 00407750 f   foundation_win32.release:string.obj
 0001:00006840       ?MatchPattern@String@Util@@SA_NABV12@0@Z 00407840 f   foundation_win32.release:string.obj
 0001:00006b50       ?ReplaceChars@String@Util@@QAEXABV12@D@Z 00407b50 f   foundation_win32.release:string.obj
 0001:00006c00       ?AsMatrix44@String@Util@@QBE?AVmatrix44@Math@@XZ 00407c00 f   foundation_win32.release:string.obj
 0001:00007050       ?Concatenate@String@Util@@SA?AV12@ABV?$Array@VString@Util@@@2@ABV12@@Z 00408050 f   foundation_win32.release:string.obj
 0001:00007150       ?SetCharPtr@String@Util@@QAEXPBD@Z 00408150 f   foundation_win32.release:string.obj
 0001:000071b0       ?Append@String@Util@@QAEXPBD@Z 004081b0 f   foundation_win32.release:string.obj
 0001:00007220       ?TerminateAtIndex@String@Util@@QAEXH@Z 00408220 f   foundation_win32.release:string.obj
 0001:000072b0       ?StripFileExtension@String@Util@@QAEXXZ 004082b0 f   foundation_win32.release:string.obj
 0001:00007350       ??8Util@@YA_NABVString@0@0@Z 00408350 f   foundation_win32.release:string.obj
 0001:00007400       ??8Util@@YA_NABVString@0@PBD@Z 00408400 f   foundation_win32.release:string.obj
 0001:000074b0       ??8Util@@YA_NPBDABVString@0@@Z 004084b0 f   foundation_win32.release:string.obj
 0001:00007560       ??9Util@@YA_NABVString@0@0@Z 00408560 f   foundation_win32.release:string.obj
 0001:00007610       ??MUtil@@YA_NABVString@0@0@Z 00408610 f   foundation_win32.release:string.obj
 0001:000076c0       ??OUtil@@YA_NABVString@0@0@Z 004086c0 f   foundation_win32.release:string.obj
 0001:00007770       ??NUtil@@YA_NABVString@0@0@Z 00408770 f   foundation_win32.release:string.obj
 0001:00007820       ??PUtil@@YA_NABVString@0@0@Z 00408820 f   foundation_win32.release:string.obj
 0001:000078d0       ?ToLower@String@Util@@QAEXXZ 004088d0 f   foundation_win32.release:string.obj
 0001:00007930       ?ToUpper@String@Util@@QAEXXZ 00408930 f   foundation_win32.release:string.obj
 0001:00007990       ?FirstCharToUpper@String@Util@@QAEXXZ 00408990 f   foundation_win32.release:string.obj
 0001:000079d0       ?ContainsCharFromSet@String@Util@@QBE_NABV12@@Z 004089d0 f   foundation_win32.release:string.obj
 0001:00007a40       ?GetFileExtension@String@Util@@QBE?AV12@XZ 00408a40 f   foundation_win32.release:string.obj
 0001:00007b00       ?GetLastSlash@String@Util@@ABEPADXZ 00408b00 f   foundation_win32.release:string.obj
 0001:00007b70       ?IsValidBool@String@Util@@QBE_NXZ 00408b70 f   foundation_win32.release:string.obj
 0001:00007be0       ?AsInt@String@Util@@QBEHXZ 00408be0 f   foundation_win32.release:string.obj
 0001:00007c20       ?AsFloat@String@Util@@QBEMXZ 00408c20 f   foundation_win32.release:string.obj
 0001:00007c60       ?AsBool@String@Util@@QBE_NXZ 00408c60 f   foundation_win32.release:string.obj
 0001:00007cf0       ?IsDigit@String@Util@@SA_ND@Z 00408cf0 f   foundation_win32.release:string.obj
 0001:00007d10       ?IsAlpha@String@Util@@SA_ND@Z 00408d10 f   foundation_win32.release:string.obj
 0001:00007d30       ?IsAlNum@String@Util@@SA_ND@Z 00408d30 f   foundation_win32.release:string.obj
 0001:00007d50       ?IsLower@String@Util@@SA_ND@Z 00408d50 f   foundation_win32.release:string.obj
 0001:00007d70       ?IsUpper@String@Util@@SA_ND@Z 00408d70 f   foundation_win32.release:string.obj
 0001:00007d90       ?StrCmp@String@Util@@SAHPBD0@Z 00408d90 f   foundation_win32.release:string.obj
 0001:00007e20       ?StrLen@String@Util@@SAHPBD@Z 00408e20 f   foundation_win32.release:string.obj
 0001:00007e80       ?StrChr@String@Util@@SAPBDPBDH@Z 00408e80 f   foundation_win32.release:string.obj
 0001:00007ec0       ?ParseKeyValuePairs@String@Util@@SA?AV?$Dictionary@VString@Util@@V12@@2@ABV12@@Z 00408ec0 f   foundation_win32.release:string.obj
 0001:00007fc0       ??1?$Dictionary@VString@Util@@V12@@Util@@QAE@XZ 00408fc0 f i foundation_win32.release:string.obj
 0001:00007fe0       ?ChangeFileExtension@String@Util@@QAEXABV12@@Z 00408fe0 f   foundation_win32.release:string.obj
 0001:000080c0       ??0?$Array@VString@Util@@@Util@@QAE@ABV01@@Z 004090c0 f i foundation_win32.release:string.obj
 0001:00008110       ??0?$Array@VString@Util@@@Util@@QAE@HH@Z 00409110 f i foundation_win32.release:string.obj
 0001:00008220       ??0?$Array@VString@Util@@@Util@@QAE@XZ 00409220 f i foundation_win32.release:string.obj
 0001:00008260       ??A?$Array@VString@Util@@@Util@@QBEAAVString@1@H@Z 00409260 f i foundation_win32.release:string.obj
 0001:000082b0       ?Append@?$Array@VString@Util@@@Util@@QAEXABVString@2@@Z 004092b0 f i foundation_win32.release:string.obj
 0001:00008350       ?Size@?$Array@VString@Util@@@Util@@QBEHXZ 00409350 f i foundation_win32.release:string.obj
 0001:00008370       ?Clear@?$Array@VString@Util@@@Util@@QAEXXZ 00409370 f i foundation_win32.release:string.obj
 0001:000083c0       ??1?$Array@V?$KeyValuePair@VString@Util@@V12@@Util@@@Util@@QAE@XZ 004093c0 f i foundation_win32.release:string.obj
 0001:000083e0       ??0?$Dictionary@VString@Util@@V12@@Util@@QAE@ABV01@@Z 004093e0 f i foundation_win32.release:string.obj
 0001:00008430       ??0?$Dictionary@VString@Util@@V12@@Util@@QAE@XZ 00409430 f i foundation_win32.release:string.obj
 0001:00008450       ?Add@?$Dictionary@VString@Util@@V12@@Util@@QAEXABVString@2@0@Z 00409450 f i foundation_win32.release:string.obj
 0001:000084a0       ??1?$KeyValuePair@VString@Util@@V12@@Util@@QAE@XZ 004094a0 f i foundation_win32.release:string.obj
 0001:00008530       ?Destroy@?$Array@VString@Util@@@Util@@AAEXPAVString@2@@Z 00409530 f i foundation_win32.release:string.obj
 0001:00008550       ?Copy@?$Array@VString@Util@@@Util@@AAEXABV12@@Z 00409550 f i foundation_win32.release:string.obj
 0001:000086d0       ?Grow@?$Array@VString@Util@@@Util@@AAEXXZ 004096d0 f i foundation_win32.release:string.obj
 0001:00008750       ??0?$Array@V?$KeyValuePair@VString@Util@@V12@@Util@@@Util@@QAE@ABV01@@Z 00409750 f i foundation_win32.release:string.obj
 0001:000087a0       ??0?$Array@V?$KeyValuePair@VString@Util@@V12@@Util@@@Util@@QAE@XZ 004097a0 f i foundation_win32.release:string.obj
 0001:000087e0       ?Append@?$Array@V?$KeyValuePair@VString@Util@@V12@@Util@@@Util@@QAEXABV?$KeyValuePair@VString@Util@@V12@@2@@Z 004097e0 f i foundation_win32.release:string.obj
 0001:00008860       ?InsertSorted@?$Array@V?$KeyValuePair@VString@Util@@V12@@Util@@@Util@@QAEHABV?$KeyValuePair@VString@Util@@V12@@2@@Z 00409860 f i foundation_win32.release:string.obj
 0001:00008ad0       ?Delete@?$Array@V?$KeyValuePair@VString@Util@@V12@@Util@@@Util@@AAEXXZ 00409ad0 f i foundation_win32.release:string.obj
 0001:00008b40       ??0?$KeyValuePair@VString@Util@@V12@@Util@@QAE@ABVString@1@0@Z 00409b40 f i foundation_win32.release:string.obj
 0001:00008c00       ??_GString@Util@@QAEPAXI@Z 00409c00 f i foundation_win32.release:string.obj
 0001:00008c70       ??_E?$KeyValuePair@VString@Util@@V12@@Util@@QAEPAXI@Z 00409c70 f i foundation_win32.release:string.obj
 0001:00008d10       ?GrowTo@?$Array@VString@Util@@@Util@@AAEXH@Z 00409d10 f i foundation_win32.release:string.obj
 0001:00008e80       ?Size@?$Array@V?$KeyValuePair@VString@Util@@V12@@Util@@@Util@@QBEHXZ 00409e80 f i foundation_win32.release:string.obj
 0001:00008ea0       ?Insert@?$Array@V?$KeyValuePair@VString@Util@@V12@@Util@@@Util@@QAEXHABV?$KeyValuePair@VString@Util@@V12@@2@@Z 00409ea0 f i foundation_win32.release:string.obj
 0001:00008f10       ?InsertAtEndOfIdenticalRange@?$Array@V?$KeyValuePair@VString@Util@@V12@@Util@@@Util@@QAEHHABV?$KeyValuePair@VString@Util@@V12@@2@@Z 00409f10 f i foundation_win32.release:string.obj
 0001:00008f90       ?Copy@?$Array@V?$KeyValuePair@VString@Util@@V12@@Util@@@Util@@AAEXABV12@@Z 00409f90 f i foundation_win32.release:string.obj
 0001:000090c0       ?Grow@?$Array@V?$KeyValuePair@VString@Util@@V12@@Util@@@Util@@AAEXXZ 0040a0c0 f i foundation_win32.release:string.obj
 0001:00009140       ??4?$KeyValuePair@VString@Util@@V12@@Util@@QAEXABV01@@Z 0040a140 f i foundation_win32.release:string.obj
 0001:000091d0       ??O?$KeyValuePair@VString@Util@@V12@@Util@@QBE_NABV01@@Z 0040a1d0 f i foundation_win32.release:string.obj
 0001:000091f0       ??M?$KeyValuePair@VString@Util@@V12@@Util@@QBE_NABV01@@Z 0040a1f0 f i foundation_win32.release:string.obj
 0001:00009210       ?GrowTo@?$Array@V?$KeyValuePair@VString@Util@@V12@@Util@@@Util@@AAEXH@Z 0040a210 f i foundation_win32.release:string.obj
 0001:00009330       ?Move@?$Array@V?$KeyValuePair@VString@Util@@V12@@Util@@@Util@@AAEXHH@Z 0040a330 f i foundation_win32.release:string.obj
 0001:000094c0       ??0?$KeyValuePair@VString@Util@@V12@@Util@@QAE@XZ 0040a4c0 f i foundation_win32.release:string.obj
 0001:00009530       ??9?$KeyValuePair@VString@Util@@V12@@Util@@QBE_NABV01@@Z 0040a530 f i foundation_win32.release:string.obj
 0001:00009550       ?Destroy@?$Array@V?$KeyValuePair@VString@Util@@V12@@Util@@@Util@@AAEXPAV?$KeyValuePair@VString@Util@@V12@@2@@Z 0040a550 f i foundation_win32.release:string.obj
 0001:00009580       ??_G?$KeyValuePair@VString@Util@@V12@@Util@@QAEPAXI@Z 0040a580 f i foundation_win32.release:string.obj
 0001:000095b0       ?strrchr@@YAPADPADH@Z      0040a5b0 f i foundation_win32.release:string.obj
 0001:000095d0       ?strpbrk@@YAPADPADPBD@Z    0040a5d0 f i foundation_win32.release:string.obj
 0001:000095f0       ?strchr@@YAPADPADH@Z       0040a5f0 f i foundation_win32.release:string.obj
 0001:000096c0       ?StringCchVPrintfA@@YGJPADIPBD0@Z 0040a6c0 f i foundation_win32.release:string.obj
 0001:000098e0       ?StringCchCopyA@@YGJPADIPBD@Z 0040a8e0 f i foundation_win32.release:string.obj
 0001:00009930       ??0FourCC@Util@@QAE@I@Z    0040a930 f i foundation_win32.release:win360thread.obj
 0001:00009950       ??3RefCounted@Core@@SAXPAX@Z 0040a950 f i foundation_win32.release:win360thread.obj
 0001:00009970       ??0RefCounted@Core@@QAE@XZ 0040a970 f i foundation_win32.release:win360thread.obj
 0001:000099a0       ??_GRefCounted@Core@@MAEPAXI@Z 0040a9a0 f i foundation_win32.release:win360thread.obj
 0001:000099a0       ??_ERefCounted@Core@@MAEPAXI@Z 0040a9a0 f i  CIL library: CIL module
 0001:000099d0       ??0Win360Event@Win360@@QAE@_N@Z 0040a9d0 f i foundation_win32.release:win360thread.obj
 0001:00009a20       ??1Win360Event@Win360@@QAE@XZ 0040aa20 f i foundation_win32.release:win360thread.obj
 0001:00009a40       ?Signal@Win360Event@Win360@@QAEXXZ 0040aa40 f i foundation_win32.release:win360thread.obj
 0001:00009a60       ?Wait@Win360Event@Win360@@QBEXXZ 0040aa60 f i foundation_win32.release:win360thread.obj
 0001:00009a80       ??2Win360Thread@Win360@@SAPAXI@Z 0040aa80 f i foundation_win32.release:win360thread.obj
 0001:00009a90       ??3Win360Thread@Win360@@SAXPAX@Z 0040aa90 f i foundation_win32.release:win360thread.obj
 0001:00009ab0       ?GetName@Win360Thread@Win360@@QBEABVString@Util@@XZ 0040aab0 f i foundation_win32.release:win360thread.obj
 0001:00009ad0       ??1Rtti@Core@@QAE@XZ       0040aad0 f i foundation_win32.release:win360thread.obj
 0001:00009b20       ?GetRtti@Win360Thread@Win360@@UBEPAVRtti@Core@@XZ 0040ab20 f   foundation_win32.release:win360thread.obj
 0001:00009b30       ?FactoryCreator@Win360Thread@Win360@@SAPAVRefCounted@Core@@XZ 0040ab30 f   foundation_win32.release:win360thread.obj
 0001:00009b40       ?Create@Win360Thread@Win360@@SAPAV12@XZ 0040ab40 f   foundation_win32.release:win360thread.obj
 0001:00009b80       ?RegisterWithFactory@Win360Thread@Win360@@SA_NXZ 0040ab80 f   foundation_win32.release:win360thread.obj
 0001:00009c80       ??0Win360Thread@Win360@@QAE@XZ 0040ac80 f   foundation_win32.release:win360thread.obj
 0001:00009d80       ??_GWin360Thread@Win360@@UAEPAXI@Z 0040ad80 f i foundation_win32.release:win360thread.obj
 0001:00009d80       ??_EWin360Thread@Win360@@UAEPAXI@Z 0040ad80 f i  CIL library: CIL module
 0001:00009db0       ??1Win360Thread@Win360@@UAE@XZ 0040adb0 f   foundation_win32.release:win360thread.obj
 0001:00009e70       ?Start@Win360Thread@Win360@@QAEXXZ 0040ae70 f   foundation_win32.release:win360thread.obj
 0001:00009f70       ?EmitWakeupSignal@Win360Thread@Win360@@MAEXXZ 0040af70 f   foundation_win32.release:win360thread.obj
 0001:00009f90       ?Stop@Win360Thread@Win360@@QAEXXZ 0040af90 f   foundation_win32.release:win360thread.obj
 0001:0000a030       ?IsRunning@Win360Thread@Win360@@QBE_NXZ 0040b030 f   foundation_win32.release:win360thread.obj
 0001:0000a080       ?DoWork@Win360Thread@Win360@@MAEXXZ 0040b080 f   foundation_win32.release:win360thread.obj
 0001:0000a090       ?ThreadProc@Win360Thread@Win360@@CGKPAX@Z 0040b090 f   foundation_win32.release:win360thread.obj
 0001:0000a130       ?SetMyThreadName@Win360Thread@Win360@@SAXPBD@Z 0040b130 f   foundation_win32.release:win360thread.obj
 0001:0000a1d0       ?GetMyThreadName@Win360Thread@Win360@@SAPBDXZ 0040b1d0 f   foundation_win32.release:win360thread.obj
 0001:0000a1f0       ?GetMyThreadId@Win360Thread@Win360@@SAKXZ 0040b1f0 f   foundation_win32.release:win360thread.obj
 0001:0000a200       ?YieldThread@Win360Thread@Win360@@SAXXZ 0040b200 f   foundation_win32.release:win360thread.obj
 0001:0000a210       ?WaiterPlus@Win360CriticalSection@Win360@@ABEXXZ 0040b210 f i foundation_win32.release:console.obj
 0001:0000a230       ?WaiterMinus@Win360CriticalSection@Win360@@ABEXXZ 0040b230 f i foundation_win32.release:console.obj
 0001:0000a250       ?PerfLockImmediate@Win360CriticalSection@Win360@@ABE_NK@Z 0040b250 f i foundation_win32.release:console.obj
 0001:0000a280       ?Enter@Win360CriticalSection@Win360@@QBEXXZ 0040b280 f i foundation_win32.release:console.obj
 0001:0000a2f0       ?AllocateKernelSemaphore@Win360CriticalSection@Win360@@ABEXXZ 0040b2f0 f i foundation_win32.release:console.obj
 0001:0000a360       ?PerfLock@Win360CriticalSection@Win360@@ABE_NK@Z 0040b360 f i foundation_win32.release:console.obj
 0001:0000a3e0       ?PerfLockKernel@Win360CriticalSection@Win360@@ABE_NK@Z 0040b3e0 f i foundation_win32.release:console.obj
 0001:0000a480       ?Leave@Win360CriticalSection@Win360@@QBEXXZ 0040b480 f i foundation_win32.release:console.obj
 0001:0000a4b0       ?PerfUnlock@Win360CriticalSection@Win360@@ABEXXZ 0040b4b0 f i foundation_win32.release:console.obj
 0001:0000a4f0       ??2Console@IO@@SAPAXI@Z    0040b4f0 f i foundation_win32.release:console.obj
 0001:0000a500       ??3Console@IO@@SAXPAX@Z    0040b500 f i foundation_win32.release:console.obj
 0001:0000a520       ?IsOpen@Console@IO@@QBE_NXZ 0040b520 f i foundation_win32.release:console.obj
 0001:0000a540       ?GetRtti@Console@IO@@UBEPAVRtti@Core@@XZ 0040b540 f   foundation_win32.release:console.obj
 0001:0000a550       ?FactoryCreator@Console@IO@@SAPAVRefCounted@Core@@XZ 0040b550 f   foundation_win32.release:console.obj
 0001:0000a560       ?Create@Console@IO@@SAPAV12@XZ 0040b560 f   foundation_win32.release:console.obj
 0001:0000a5a0       ?RegisterWithFactory@Console@IO@@SA_NXZ 0040b5a0 f   foundation_win32.release:console.obj
 0001:0000a6a0       ??0Console@IO@@QAE@XZ      0040b6a0 f   foundation_win32.release:console.obj
 0001:0000a720       ??_GConsole@IO@@UAEPAXI@Z  0040b720 f i foundation_win32.release:console.obj
 0001:0000a720       ??_EConsole@IO@@UAEPAXI@Z  0040b720 f i  CIL library: CIL module
 0001:0000a750       ??0CriticalSection@Threading@@QAE@XZ 0040b750 f i foundation_win32.release:console.obj
 0001:0000a770       ??1CriticalSection@Threading@@QAE@XZ 0040b770 f i foundation_win32.release:console.obj
 0001:0000a790       ??1Console@IO@@UAE@XZ      0040b790 f   foundation_win32.release:console.obj
 0001:0000a840       ?Open@Console@IO@@QAEXXZ   0040b840 f   foundation_win32.release:console.obj
 0001:0000a8d0       ?Close@Console@IO@@QAEXXZ  0040b8d0 f   foundation_win32.release:console.obj
 0001:0000a970       ?Update@Console@IO@@QAEXXZ 0040b970 f   foundation_win32.release:console.obj
 0001:0000aa20       ?AttachHandler@Console@IO@@QAEXABV?$Ptr@VConsoleHandler@IO@@@@@Z 0040ba20 f   foundation_win32.release:console.obj
 0001:0000aab0       ?RemoveHandler@Console@IO@@QAEXABV?$Ptr@VConsoleHandler@IO@@@@@Z 0040bab0 f   foundation_win32.release:console.obj
 0001:0000ab80       ?HasInput@Console@IO@@QBE_NXZ 0040bb80 f   foundation_win32.release:console.obj
 0001:0000ac50       ?GetInput@Console@IO@@QBE?AVString@Util@@XZ 0040bc50 f   foundation_win32.release:console.obj
 0001:0000ade0       ?Print@Console@IO@@QAAXPBDZZ 0040bde0 f   foundation_win32.release:console.obj
 0001:0000ae40       ?Print@Console@IO@@QAAXPBDPAD@Z 0040be40 f   foundation_win32.release:console.obj
 0001:0000af30       ?Print@Console@IO@@QAEXABVString@Util@@@Z 0040bf30 f   foundation_win32.release:console.obj
 0001:0000aff0       ?Error@Console@IO@@QAAXPBDZZ 0040bff0 f   foundation_win32.release:console.obj
 0001:0000b050       ?Error@Console@IO@@QAAXPBDPAD@Z 0040c050 f   foundation_win32.release:console.obj
 0001:0000b140       ?DebugOut@Console@IO@@QAAXPBDZZ 0040c140 f   foundation_win32.release:console.obj
 0001:0000b1a0       ?DebugOut@Console@IO@@QAAXPBDPAD@Z 0040c1a0 f   foundation_win32.release:console.obj
 0001:0000b290       ?Warning@Console@IO@@QAAXPBDZZ 0040c290 f   foundation_win32.release:console.obj
 0001:0000b2f0       ?Warning@Console@IO@@QAAXPBDPAD@Z 0040c2f0 f   foundation_win32.release:console.obj
 0001:0000b3e0       ?Confirm@Console@IO@@QAAXPBDZZ 0040c3e0 f   foundation_win32.release:console.obj
 0001:0000b440       ?Confirm@Console@IO@@QAAXPBDPAD@Z 0040c440 f   foundation_win32.release:console.obj
 0001:0000b530       ??0?$Array@V?$Ptr@VConsoleHandler@IO@@@@@Util@@QAE@XZ 0040c530 f i foundation_win32.release:console.obj
 0001:0000b570       ??1?$Array@V?$Ptr@VConsoleHandler@IO@@@@@Util@@QAE@XZ 0040c570 f i foundation_win32.release:console.obj
 0001:0000b590       ??A?$Array@V?$Ptr@VConsoleHandler@IO@@@@@Util@@QBEAAV?$Ptr@VConsoleHandler@IO@@@@H@Z 0040c590 f i foundation_win32.release:console.obj
 0001:0000b5e0       ?Size@?$Array@V?$Ptr@VConsoleHandler@IO@@@@@Util@@QBEHXZ 0040c5e0 f i foundation_win32.release:console.obj
 0001:0000b600       ?EraseIndex@?$Array@V?$Ptr@VConsoleHandler@IO@@@@@Util@@QAEXH@Z 0040c600 f i foundation_win32.release:console.obj
 0001:0000b680       ?Insert@?$Array@V?$Ptr@VConsoleHandler@IO@@@@@Util@@QAEXHABV?$Ptr@VConsoleHandler@IO@@@@@Z 0040c680 f i foundation_win32.release:console.obj
 0001:0000b6f0       ?FindIndex@?$Array@V?$Ptr@VConsoleHandler@IO@@@@@Util@@QBEHABV?$Ptr@VConsoleHandler@IO@@@@@Z 0040c6f0 f i foundation_win32.release:console.obj
 0001:0000b750       ??0?$Ptr@VConsoleHandler@IO@@@@QAE@PAVConsoleHandler@IO@@@Z 0040c750 f i foundation_win32.release:console.obj
 0001:0000b790       ??C?$Ptr@VConsoleHandler@IO@@@@QBEPAVConsoleHandler@IO@@XZ 0040c790 f i foundation_win32.release:console.obj
 0001:0000b7d0       ?isvalid@?$Ptr@VConsoleHandler@IO@@@@QBE_NXZ 0040c7d0 f i foundation_win32.release:console.obj
 0001:0000b7f0       ?Append@?$Array@V?$Ptr@VConsoleHandler@IO@@@@@Util@@QAEXABV?$Ptr@VConsoleHandler@IO@@@@@Z 0040c7f0 f i foundation_win32.release:console.obj
 0001:0000b870       ?Destroy@?$Array@V?$Ptr@VConsoleHandler@IO@@@@@Util@@AAEXPAV?$Ptr@VConsoleHandler@IO@@@@@Z 0040c870 f i foundation_win32.release:console.obj
 0001:0000b8a0       ?Delete@?$Array@V?$Ptr@VConsoleHandler@IO@@@@@Util@@AAEXXZ 0040c8a0 f i foundation_win32.release:console.obj
 0001:0000b910       ?Move@?$Array@V?$Ptr@VConsoleHandler@IO@@@@@Util@@AAEXHH@Z 0040c910 f i foundation_win32.release:console.obj
 0001:0000baa0       ??4?$Ptr@VConsoleHandler@IO@@@@QAEXABV0@@Z 0040caa0 f i foundation_win32.release:console.obj
 0001:0000bb00       ??8?$Ptr@VConsoleHandler@IO@@@@QBE_NABV0@@Z 0040cb00 f i foundation_win32.release:console.obj
 0001:0000bb20       ??_G?$Ptr@VConsoleHandler@IO@@@@QAEPAXI@Z 0040cb20 f i foundation_win32.release:console.obj
 0001:0000bb50       ?Grow@?$Array@V?$Ptr@VConsoleHandler@IO@@@@@Util@@AAEXXZ 0040cb50 f i foundation_win32.release:console.obj
 0001:0000bbd0       ??0?$Ptr@VConsoleHandler@IO@@@@QAE@XZ 0040cbd0 f i foundation_win32.release:console.obj
 0001:0000bbf0       ?GrowTo@?$Array@V?$Ptr@VConsoleHandler@IO@@@@@Util@@AAEXH@Z 0040cbf0 f i foundation_win32.release:console.obj
 0001:0000bd10       ___InlineInterlockedCompareExchangePointer 0040cd10 f i foundation_win32.release:console.obj
 0001:0000bd30       ?Instance@LocalStringAtomTable@Util@@SAPAV12@XZ 0040cd30 f i foundation_win32.release:stringatom.obj
 0001:0000bd70       ?Instance@GlobalStringAtomTable@Util@@SAPAV12@XZ 0040cd70 f i foundation_win32.release:stringatom.obj
 0001:0000bda0       ?Setup@StringAtom@Util@@AAEXPBD@Z 0040cda0 f   foundation_win32.release:stringatom.obj
 0001:0000be70       ??8StringAtom@Util@@QBE_NPBD@Z 0040ce70 f   foundation_win32.release:stringatom.obj
 0001:0000bef0       ??9StringAtom@Util@@QBE_NPBD@Z 0040cef0 f   foundation_win32.release:stringatom.obj
 0001:0000bf70       ??0Win360Timer@Win360@@QAE@XZ 0040cf70 f   foundation_win32.release:win360timer.obj
 0001:0000bfb0       ?Start@Win360Timer@Win360@@QAEXXZ 0040cfb0 f   foundation_win32.release:win360timer.obj
 0001:0000c020       ?Stop@Win360Timer@Win360@@QAEXXZ 0040d020 f   foundation_win32.release:win360timer.obj
 0001:0000c060       ?Reset@Win360Timer@Win360@@QAEXXZ 0040d060 f   foundation_win32.release:win360timer.obj
 0001:0000c0c0       ?Running@Win360Timer@Win360@@QBE_NXZ 0040d0c0 f   foundation_win32.release:win360timer.obj
 0001:0000c0d0       ?InternalTime@Win360Timer@Win360@@ABE_JXZ 0040d0d0 f   foundation_win32.release:win360timer.obj
 0001:0000c120       ?GetTime@Win360Timer@Win360@@QBENXZ 0040d120 f   foundation_win32.release:win360timer.obj
 0001:0000c150       ?GetTicks@Win360Timer@Win360@@QBEHXZ 0040d150 f   foundation_win32.release:win360timer.obj
 0001:0000c1b0       ??2CoreServer@Core@@SAPAXI@Z 0040d1b0 f i foundation_win32.release:coreserver.obj
 0001:0000c1c0       ??3CoreServer@Core@@SAXPAX@Z 0040d1c0 f i foundation_win32.release:coreserver.obj
 0001:0000c1e0       ?IsOpen@CoreServer@Core@@QBE_NXZ 0040d1e0 f i foundation_win32.release:coreserver.obj
 0001:0000c200       ?GetRtti@CoreServer@Core@@UBEPAVRtti@2@XZ 0040d200 f   foundation_win32.release:coreserver.obj
 0001:0000c210       ?FactoryCreator@CoreServer@Core@@SAPAVRefCounted@2@XZ 0040d210 f   foundation_win32.release:coreserver.obj
 0001:0000c220       ?Create@CoreServer@Core@@SAPAV12@XZ 0040d220 f   foundation_win32.release:coreserver.obj
 0001:0000c260       ?RegisterWithFactory@CoreServer@Core@@SA_NXZ 0040d260 f   foundation_win32.release:coreserver.obj
 0001:0000c360       ??0CoreServer@Core@@QAE@XZ 0040d360 f   foundation_win32.release:coreserver.obj
 0001:0000c450       ??_ECoreServer@Core@@UAEPAXI@Z 0040d450 f i  CIL library: CIL module
 0001:0000c450       ??_GCoreServer@Core@@UAEPAXI@Z 0040d450 f i foundation_win32.release:coreserver.obj
 0001:0000c480       ??1CoreServer@Core@@UAE@XZ 0040d480 f   foundation_win32.release:coreserver.obj
 0001:0000c500       ?Open@CoreServer@Core@@QAEXXZ 0040d500 f   foundation_win32.release:coreserver.obj
 0001:0000c560       ?Close@CoreServer@Core@@QAEXXZ 0040d560 f   foundation_win32.release:coreserver.obj
 0001:0000c5b0       ?Trigger@CoreServer@Core@@QAEXXZ 0040d5b0 f   foundation_win32.release:coreserver.obj
 0001:0000c5d0       ??0?$Ptr@VConsole@IO@@@@QAE@XZ 0040d5d0 f i foundation_win32.release:coreserver.obj
 0001:0000c5f0       ??1?$Ptr@VConsole@IO@@@@QAE@XZ 0040d5f0 f i foundation_win32.release:coreserver.obj
 0001:0000c620       ??4?$Ptr@VConsole@IO@@@@QAEXPAVConsole@IO@@@Z 0040d620 f i foundation_win32.release:coreserver.obj
 0001:0000c680       ??C?$Ptr@VConsole@IO@@@@QBEPAVConsole@IO@@XZ 0040d680 f i foundation_win32.release:coreserver.obj
 0001:0000c6c0       ??2JobSystem@Jobs@@SAPAXI@Z 0040d6c0 f i foundation_win32.release:jobsystem.obj
 0001:0000c6d0       ??3JobSystem@Jobs@@SAXPAX@Z 0040d6d0 f i foundation_win32.release:jobsystem.obj
 0001:0000c6f0       ?GetRtti@JobSystem@Jobs@@UBEPAVRtti@Core@@XZ 0040d6f0 f   foundation_win32.release:jobsystem.obj
 0001:0000c700       ?FactoryCreator@JobSystem@Jobs@@SAPAVRefCounted@Core@@XZ 0040d700 f   foundation_win32.release:jobsystem.obj
 0001:0000c710       ?Create@JobSystem@Jobs@@SAPAV12@XZ 0040d710 f   foundation_win32.release:jobsystem.obj
 0001:0000c750       ?RegisterWithFactory@JobSystem@Jobs@@SA_NXZ 0040d750 f   foundation_win32.release:jobsystem.obj
 0001:0000c850       ??0JobSystem@Jobs@@QAE@XZ  0040d850 f   foundation_win32.release:jobsystem.obj
 0001:0000c8a0       ??_EJobSystem@Jobs@@UAEPAXI@Z 0040d8a0 f i  CIL library: CIL module
 0001:0000c8a0       ??_GJobSystem@Jobs@@UAEPAXI@Z 0040d8a0 f i foundation_win32.release:jobsystem.obj
 0001:0000c8d0       ??1JobSystem@Jobs@@UAE@XZ  0040d8d0 f   foundation_win32.release:jobsystem.obj
 0001:0000c920       ?IsValid@JobSystemBase@Base@@QBE_NXZ 0040d920 f i foundation_win32.release:tpjobsystem.obj
 0001:0000c940       ??2TPJobSystem@Jobs@@SAPAXI@Z 0040d940 f i foundation_win32.release:tpjobsystem.obj
 0001:0000c950       ??3TPJobSystem@Jobs@@SAXPAX@Z 0040d950 f i foundation_win32.release:tpjobsystem.obj
 0001:0000c970       ?GetRtti@TPJobSystem@Jobs@@UBEPAVRtti@Core@@XZ 0040d970 f   foundation_win32.release:tpjobsystem.obj
 0001:0000c980       ?FactoryCreator@TPJobSystem@Jobs@@SAPAVRefCounted@Core@@XZ 0040d980 f   foundation_win32.release:tpjobsystem.obj
 0001:0000c990       ?Create@TPJobSystem@Jobs@@SAPAV12@XZ 0040d990 f   foundation_win32.release:tpjobsystem.obj
 0001:0000c9d0       ?RegisterWithFactory@TPJobSystem@Jobs@@SA_NXZ 0040d9d0 f   foundation_win32.release:tpjobsystem.obj
 0001:0000cad0       ??0TPJobSystem@Jobs@@QAE@XZ 0040dad0 f   foundation_win32.release:tpjobsystem.obj
 0001:0000cb00       ??_GTPJobSystem@Jobs@@UAEPAXI@Z 0040db00 f i foundation_win32.release:tpjobsystem.obj
 0001:0000cb00       ??_ETPJobSystem@Jobs@@UAEPAXI@Z 0040db00 f i  CIL library: CIL module
 0001:0000cb30       ??1TPJobSystem@Jobs@@UAE@XZ 0040db30 f   foundation_win32.release:tpjobsystem.obj
 0001:0000cb80       ?Setup@TPJobSystem@Jobs@@QAEXXZ 0040db80 f   foundation_win32.release:tpjobsystem.obj
 0001:0000cbd0       ?Discard@TPJobSystem@Jobs@@QAEXXZ 0040dbd0 f   foundation_win32.release:tpjobsystem.obj
 0001:0000cc20       ??2GameContentServer@IO@@SAPAXI@Z 0040dc20 f i foundation_win32.release:gamecontentserver.obj
 0001:0000cc30       ??3GameContentServer@IO@@SAXPAX@Z 0040dc30 f i foundation_win32.release:gamecontentserver.obj
 0001:0000cc50       ?GetRtti@GameContentServer@IO@@UBEPAVRtti@Core@@XZ 0040dc50 f   foundation_win32.release:gamecontentserver.obj
 0001:0000cc60       ?FactoryCreator@GameContentServer@IO@@SAPAVRefCounted@Core@@XZ 0040dc60 f   foundation_win32.release:gamecontentserver.obj
 0001:0000cc70       ?Create@GameContentServer@IO@@SAPAV12@XZ 0040dc70 f   foundation_win32.release:gamecontentserver.obj
 0001:0000ccb0       ?RegisterWithFactory@GameContentServer@IO@@SA_NXZ 0040dcb0 f   foundation_win32.release:gamecontentserver.obj
 0001:0000cdb0       ??0GameContentServer@IO@@QAE@XZ 0040ddb0 f   foundation_win32.release:gamecontentserver.obj
 0001:0000ce00       ??_EGameContentServer@IO@@UAEPAXI@Z 0040de00 f i  CIL library: CIL module
 0001:0000ce00       ??_GGameContentServer@IO@@UAEPAXI@Z 0040de00 f i foundation_win32.release:gamecontentserver.obj
 0001:0000ce30       ??1GameContentServer@IO@@UAE@XZ 0040de30 f   foundation_win32.release:gamecontentserver.obj
 0001:0000ce80       ??2GameContentServerBase@Base@@SAPAXI@Z 0040de80 f i foundation_win32.release:gamecontentserverbase.obj
 0001:0000ce90       ??3GameContentServerBase@Base@@SAXPAX@Z 0040de90 f i foundation_win32.release:gamecontentserverbase.obj
 0001:0000ceb0       ?IsValid@GameContentServerBase@Base@@QBE_NXZ 0040deb0 f i foundation_win32.release:gamecontentserverbase.obj
 0001:0000ced0       ?GetRtti@GameContentServerBase@Base@@UBEPAVRtti@Core@@XZ 0040ded0 f   foundation_win32.release:gamecontentserverbase.obj
 0001:0000cee0       ?FactoryCreator@GameContentServerBase@Base@@SAPAVRefCounted@Core@@XZ 0040dee0 f   foundation_win32.release:gamecontentserverbase.obj
 0001:0000cef0       ?Create@GameContentServerBase@Base@@SAPAV12@XZ 0040def0 f   foundation_win32.release:gamecontentserverbase.obj
 0001:0000cf30       ?RegisterWithFactory@GameContentServerBase@Base@@SA_NXZ 0040df30 f   foundation_win32.release:gamecontentserverbase.obj
 0001:0000d030       ??0GameContentServerBase@Base@@QAE@XZ 0040e030 f   foundation_win32.release:gamecontentserverbase.obj
 0001:0000d110       ??_EGameContentServerBase@Base@@UAEPAXI@Z 0040e110 f i  CIL library: CIL module
 0001:0000d110       ??_GGameContentServerBase@Base@@UAEPAXI@Z 0040e110 f i foundation_win32.release:gamecontentserverbase.obj
 0001:0000d140       ??1GameContentServerBase@Base@@UAE@XZ 0040e140 f   foundation_win32.release:gamecontentserverbase.obj
 0001:0000d280       ?Setup@GameContentServerBase@Base@@QAEXXZ 0040e280 f   foundation_win32.release:gamecontentserverbase.obj
 0001:0000d330       ?Discard@GameContentServerBase@Base@@QAEXXZ 0040e330 f   foundation_win32.release:gamecontentserverbase.obj
 0001:0000d370       ?IsEmpty@String@Util@@QBE_NXZ 0040e370 f i foundation_win32.release:assignregistry.obj
 0001:0000d390       ?HashCode@String@Util@@QBEHXZ 0040e390 f i foundation_win32.release:assignregistry.obj
 0001:0000d440       ?SubstituteChar@String@Util@@QAEXDD@Z 0040e440 f i foundation_win32.release:assignregistry.obj
 0001:0000d4b0       ?ConvertBackslashes@String@Util@@QAEXXZ 0040e4b0 f i foundation_win32.release:assignregistry.obj
 0001:0000d510       ??0Assign@IO@@QAE@XZ       0040e510 f i foundation_win32.release:assignregistry.obj
 0001:0000d530       ??0Assign@IO@@QAE@ABVString@Util@@0@Z 0040e530 f i foundation_win32.release:assignregistry.obj
 0001:0000d5a0       ?GetName@Assign@IO@@QBEABVString@Util@@XZ 0040e5a0 f i foundation_win32.release:assignregistry.obj
 0001:0000d5e0       ??0URI@IO@@QAE@ABVString@Util@@@Z 0040e5e0 f i foundation_win32.release:assignregistry.obj
 0001:0000d790       ??0URI@IO@@QAE@ABV01@@Z    0040e790 f i foundation_win32.release:assignregistry.obj
 0001:0000da60       ?AsString@URI@IO@@QBE?AVString@Util@@XZ 0040ea60 f i foundation_win32.release:assignregistry.obj
 0001:0000da80       ??2AssignRegistry@IO@@SAPAXI@Z 0040ea80 f i foundation_win32.release:assignregistry.obj
 0001:0000da90       ??3AssignRegistry@IO@@SAXPAX@Z 0040ea90 f i foundation_win32.release:assignregistry.obj
 0001:0000dab0       ?AsString@StringAtom@Util@@QBE?AVString@2@XZ 0040eab0 f i foundation_win32.release:assignregistry.obj
 0001:0000db00       ?Instance@CoreServer@Core@@SAPAV12@XZ 0040eb00 f i foundation_win32.release:assignregistry.obj
 0001:0000db40       ?GetRootDirectory@CoreServer@Core@@QBEABVStringAtom@Util@@XZ 0040eb40 f i foundation_win32.release:assignregistry.obj
 0001:0000db60       ?GetRtti@AssignRegistry@IO@@UBEPAVRtti@Core@@XZ 0040eb60 f   foundation_win32.release:assignregistry.obj
 0001:0000db70       ?FactoryCreator@AssignRegistry@IO@@SAPAVRefCounted@Core@@XZ 0040eb70 f   foundation_win32.release:assignregistry.obj
 0001:0000db80       ?Create@AssignRegistry@IO@@SAPAV12@XZ 0040eb80 f   foundation_win32.release:assignregistry.obj
 0001:0000dbc0       ?RegisterWithFactory@AssignRegistry@IO@@SA_NXZ 0040ebc0 f   foundation_win32.release:assignregistry.obj
 0001:0000dcc0       ??0AssignRegistry@IO@@QAE@XZ 0040ecc0 f   foundation_win32.release:assignregistry.obj
 0001:0000dd40       ??_EAssignRegistry@IO@@UAEPAXI@Z 0040ed40 f i  CIL library: CIL module
 0001:0000dd40       ??_GAssignRegistry@IO@@UAEPAXI@Z 0040ed40 f i foundation_win32.release:assignregistry.obj
 0001:0000dd70       ??1?$HashTable@VString@Util@@V12@@Util@@QAE@XZ 0040ed70 f i foundation_win32.release:assignregistry.obj
 0001:0000dd90       ??1AssignRegistry@IO@@UAE@XZ 0040ed90 f   foundation_win32.release:assignregistry.obj
 0001:0000de00       ?Setup@AssignRegistry@IO@@QAEXXZ 0040ee00 f   foundation_win32.release:assignregistry.obj
 0001:0000de80       ?Discard@AssignRegistry@IO@@QAEXXZ 0040ee80 f   foundation_win32.release:assignregistry.obj
 0001:0000df00       ?IsValid@AssignRegistry@IO@@QBE_NXZ 0040ef00 f   foundation_win32.release:assignregistry.obj
 0001:0000df20       ?SetupSystemAssigns@AssignRegistry@IO@@AAEXXZ 0040ef20 f   foundation_win32.release:assignregistry.obj
 0001:0000e370       ??1Assign@IO@@QAE@XZ       0040f370 f i foundation_win32.release:assignregistry.obj
 0001:0000e390       ?SetupProjectAssigns@AssignRegistry@IO@@AAEXXZ 0040f390 f   foundation_win32.release:assignregistry.obj
 0001:0000f1d0       ?SetAssign@AssignRegistry@IO@@QAEXABVAssign@2@@Z 004101d0 f   foundation_win32.release:assignregistry.obj
 0001:0000f2c0       ?HasAssign@AssignRegistry@IO@@QBE_NABVString@Util@@@Z 004102c0 f   foundation_win32.release:assignregistry.obj
 0001:0000f350       ?GetAssign@AssignRegistry@IO@@QBE?AVString@Util@@ABV34@@Z 00410350 f   foundation_win32.release:assignregistry.obj
 0001:0000f460       ?ClearAssign@AssignRegistry@IO@@QAEXABVString@Util@@@Z 00410460 f   foundation_win32.release:assignregistry.obj
 0001:0000f510       ?GetAllAssigns@AssignRegistry@IO@@QBE?AV?$Array@VAssign@IO@@@Util@@XZ 00410510 f   foundation_win32.release:assignregistry.obj
 0001:0000f600       ?ResolveAssigns@AssignRegistry@IO@@QBE?AVURI@2@ABV32@@Z 00410600 f   foundation_win32.release:assignregistry.obj
 0001:0000f730       ??1URI@IO@@QAE@XZ          00410730 f i foundation_win32.release:assignregistry.obj
 0001:0000f930       ?ResolveAssignsInString@AssignRegistry@IO@@QBE?AVString@Util@@ABV34@@Z 00410930 f   foundation_win32.release:assignregistry.obj
 0001:0000fcf0       ?Value@?$KeyValuePair@VString@Util@@V12@@Util@@QAEAAVString@2@XZ 00410cf0 f i foundation_win32.release:assignregistry.obj
 0001:0000fd10       ?Key@?$KeyValuePair@VString@Util@@V12@@Util@@QBEABVString@2@XZ 00410d10 f i foundation_win32.release:assignregistry.obj
 0001:0000fd20       ??1?$FixedArray@V?$Array@V?$KeyValuePair@VString@Util@@V12@@Util@@@Util@@@Util@@QAE@XZ 00410d20 f i foundation_win32.release:assignregistry.obj
 0001:0000fd40       ??0?$HashTable@VString@Util@@V12@@Util@@QAE@XZ 00410d40 f i foundation_win32.release:assignregistry.obj
 0001:0000fd70       ??A?$HashTable@VString@Util@@V12@@Util@@QBEAAVString@1@ABV21@@Z 00410d70 f i foundation_win32.release:assignregistry.obj
 0001:0000fe50       ?Clear@?$HashTable@VString@Util@@V12@@Util@@QAEXXZ 00410e50 f i foundation_win32.release:assignregistry.obj
 0001:0000feb0       ?Add@?$HashTable@VString@Util@@V12@@Util@@QAEXABV?$KeyValuePair@VString@Util@@V12@@2@@Z 00410eb0 f i foundation_win32.release:assignregistry.obj
 0001:0000ff40       ?Erase@?$HashTable@VString@Util@@V12@@Util@@QAEXABVString@2@@Z 00410f40 f i foundation_win32.release:assignregistry.obj
 0001:00010000       ?Contains@?$HashTable@VString@Util@@V12@@Util@@QBE_NABVString@2@@Z 00411000 f i foundation_win32.release:assignregistry.obj
 0001:00010080       ?Content@?$HashTable@VString@Util@@V12@@Util@@QBE?AV?$Array@V?$KeyValuePair@VString@Util@@V12@@Util@@@2@XZ 00411080 f i foundation_win32.release:assignregistry.obj
 0001:00010110       ??0?$Array@VAssign@IO@@@Util@@QAE@ABV01@@Z 00411110 f i foundation_win32.release:assignregistry.obj
 0001:00010160       ??0?$Array@VAssign@IO@@@Util@@QAE@HH@Z 00411160 f i foundation_win32.release:assignregistry.obj
 0001:00010250       ??1?$Array@VAssign@IO@@@Util@@QAE@XZ 00411250 f i foundation_win32.release:assignregistry.obj
 0001:00010270       ?Append@?$Array@VAssign@IO@@@Util@@QAEXABVAssign@IO@@@Z 00411270 f i foundation_win32.release:assignregistry.obj
 0001:000102f0       ??A?$Array@V?$KeyValuePair@VString@Util@@V12@@Util@@@Util@@QBEAAV?$KeyValuePair@VString@Util@@V12@@1@H@Z 004112f0 f i foundation_win32.release:assignregistry.obj
 0001:00010340       ??_EAssign@IO@@QAEPAXI@Z   00411340 f i foundation_win32.release:assignregistry.obj
 0001:000103e0       ??4Assign@IO@@QAEAAV01@ABV01@@Z 004113e0 f i foundation_win32.release:assignregistry.obj
 0001:00010400       ??0?$KeyValuePair@VString@Util@@V12@@Util@@QAE@ABVString@1@@Z 00411400 f i foundation_win32.release:assignregistry.obj
 0001:00010490       ??0?$FixedArray@V?$Array@V?$KeyValuePair@VString@Util@@V12@@Util@@@Util@@@Util@@QAE@H@Z 00411490 f i foundation_win32.release:assignregistry.obj
 0001:000104c0       ??A?$FixedArray@V?$Array@V?$KeyValuePair@VString@Util@@V12@@Util@@@Util@@@Util@@QBEAAV?$Array@V?$KeyValuePair@VString@Util@@V12@@Util@@@1@H@Z 004114c0 f i foundation_win32.release:assignregistry.obj
 0001:00010510       ?Size@?$FixedArray@V?$Array@V?$KeyValuePair@VString@Util@@V12@@Util@@@Util@@@Util@@QBEHXZ 00411510 f i foundation_win32.release:assignregistry.obj
 0001:00010520       ?Delete@?$FixedArray@V?$Array@V?$KeyValuePair@VString@Util@@V12@@Util@@@Util@@@Util@@AAEXXZ 00411520 f i foundation_win32.release:assignregistry.obj
 0001:00010580       ?AppendArray@?$Array@V?$KeyValuePair@VString@Util@@V12@@Util@@@Util@@QAEXABV12@@Z 00411580 f i foundation_win32.release:assignregistry.obj
 0001:000105d0       ?EraseIndex@?$Array@V?$KeyValuePair@VString@Util@@V12@@Util@@@Util@@QAEXH@Z 004115d0 f i foundation_win32.release:assignregistry.obj
 0001:00010650       ?Clear@?$Array@V?$KeyValuePair@VString@Util@@V12@@Util@@@Util@@QAEXXZ 00411650 f i foundation_win32.release:assignregistry.obj
 0001:000106a0       ?BinarySearchIndex@?$Array@V?$KeyValuePair@VString@Util@@V12@@Util@@@Util@@QBEHABV?$KeyValuePair@VString@Util@@V12@@2@@Z 004116a0 f i foundation_win32.release:assignregistry.obj
 0001:000107d0       ?Copy@?$Array@VAssign@IO@@@Util@@AAEXABV12@@Z 004117d0 f i foundation_win32.release:assignregistry.obj
 0001:00010910       ?Delete@?$Array@VAssign@IO@@@Util@@AAEXXZ 00411910 f i foundation_win32.release:assignregistry.obj
 0001:00010980       ?Grow@?$Array@VAssign@IO@@@Util@@AAEXXZ 00411980 f i foundation_win32.release:assignregistry.obj
 0001:00010a00       ??_E?$Array@V?$KeyValuePair@VString@Util@@V12@@Util@@@Util@@QAEPAXI@Z 00411a00 f i foundation_win32.release:assignregistry.obj
 0001:00010aa0       ?Alloc@?$FixedArray@V?$Array@V?$KeyValuePair@VString@Util@@V12@@Util@@@Util@@@Util@@AAEXH@Z 00411aa0 f i foundation_win32.release:assignregistry.obj
 0001:00010b70       ?GrowTo@?$Array@VAssign@IO@@@Util@@AAEXH@Z 00411b70 f i foundation_win32.release:assignregistry.obj
 0001:00010ca0       ?GetRefCount@RefCounted@Core@@QBEHXZ 00411ca0 f i foundation_win32.release:ioserver.obj
 0001:00010cc0       ??0URI@IO@@QAE@XZ          00411cc0 f i foundation_win32.release:ioserver.obj
 0001:00010e20       ??4URI@IO@@QAEXABV01@@Z    00411e20 f i foundation_win32.release:ioserver.obj
 0001:00011020       ?IsEmpty@URI@IO@@QBE_NXZ   00412020 f i foundation_win32.release:ioserver.obj
 0001:00011030       ?Scheme@URI@IO@@QBEABVString@Util@@XZ 00412030 f i foundation_win32.release:ioserver.obj
 0001:00011050       ?LocalPath@URI@IO@@QBEABVString@Util@@XZ 00412050 f i foundation_win32.release:ioserver.obj
 0001:00011070       ?Instance@AssignRegistry@IO@@SAPAV12@XZ 00412070 f i foundation_win32.release:ioserver.obj
 0001:000110a0       ?HasInstance@AssignRegistry@IO@@SA_NXZ 004120a0 f i foundation_win32.release:ioserver.obj
 0001:000110c0       ?Instance@SchemeRegistry@IO@@SAPAV12@XZ 004120c0 f i foundation_win32.release:ioserver.obj
 0001:000110f0       ?HasInstance@SchemeRegistry@IO@@SA_NXZ 004120f0 f i foundation_win32.release:ioserver.obj
 0001:00011110       ??2IoServer@IO@@SAPAXI@Z   00412110 f i foundation_win32.release:ioserver.obj
 0001:00011120       ??3IoServer@IO@@SAXPAX@Z   00412120 f i foundation_win32.release:ioserver.obj
 0001:00011140       ?IsArchiveFileSystemEnabled@IoServer@IO@@QBE_NXZ 00412140 f i foundation_win32.release:ioserver.obj
 0001:00011160       ?GetPlatform@SystemInfoBase@Base@@QBE?AW4Platform@12@XZ 00412160 f i foundation_win32.release:ioserver.obj
 0001:00011170       ?Instance@ArchiveFileSystem@IO@@SAPAV12@XZ 00412170 f i foundation_win32.release:ioserver.obj
 0001:000111a0       ?HasInstance@ArchiveFileSystem@IO@@SA_NXZ 004121a0 f i foundation_win32.release:ioserver.obj
 0001:000111c0       ?GetRtti@IoServer@IO@@UBEPAVRtti@Core@@XZ 004121c0 f   foundation_win32.release:ioserver.obj
 0001:000111d0       ?FactoryCreator@IoServer@IO@@SAPAVRefCounted@Core@@XZ 004121d0 f   foundation_win32.release:ioserver.obj
 0001:000111e0       ?Create@IoServer@IO@@SAPAV12@XZ 004121e0 f   foundation_win32.release:ioserver.obj
 0001:00011220       ?RegisterWithFactory@IoServer@IO@@SA_NXZ 00412220 f   foundation_win32.release:ioserver.obj
 0001:00011320       ??0IoServer@IO@@QAE@XZ     00412320 f   foundation_win32.release:ioserver.obj
 0001:00011570       ??_EIoServer@IO@@UAEPAXI@Z 00412570 f i  CIL library: CIL module
 0001:00011570       ??_GIoServer@IO@@UAEPAXI@Z 00412570 f i foundation_win32.release:ioserver.obj
 0001:000115a0       ??1IoServer@IO@@UAE@XZ     004125a0 f   foundation_win32.release:ioserver.obj
 0001:00011670       ?CreateStream@IoServer@IO@@QBE?AV?$Ptr@VStream@IO@@@@ABVURI@2@@Z 00412670 f   foundation_win32.release:ioserver.obj
 0001:00011830       ?MountArchive@IoServer@IO@@QAE_NABVURI@2@@Z 00412830 f   foundation_win32.release:ioserver.obj
 0001:00011880       ?UnmountArchive@IoServer@IO@@QAEXABVURI@2@@Z 00412880 f   foundation_win32.release:ioserver.obj
 0001:000118b0       ?IsArchiveMounted@IoServer@IO@@QBE_NABVURI@2@@Z 004128b0 f   foundation_win32.release:ioserver.obj
 0001:000118e0       ?MountStandardArchives@IoServer@IO@@QAEXXZ 004128e0 f   foundation_win32.release:ioserver.obj
 0001:000119e0       ??0SystemInfo@System@@QAE@XZ 004129e0 f i foundation_win32.release:ioserver.obj
 0001:00011a00       ?UnmountStandardArchives@IoServer@IO@@QAEXXZ 00412a00 f   foundation_win32.release:ioserver.obj
 0001:00011b40       ?CreateDirectoryA@IoServer@IO@@QBE_NABVURI@2@@Z 00412b40 f   foundation_win32.release:ioserver.obj
 0001:00011dc0       ??1?$Stack@VString@Util@@@Util@@QAE@XZ 00412dc0 f i foundation_win32.release:ioserver.obj
 0001:00011de0       ?CopyFile@IoServer@IO@@QBE_NABVURI@2@0@Z 00412de0 f   foundation_win32.release:ioserver.obj
 0001:00012210       ?ComputeFileCrc@IoServer@IO@@QBEIABVURI@2@@Z 00413210 f   foundation_win32.release:ioserver.obj
 0001:000123a0       ?DeleteFile@IoServer@IO@@QBE_NABVURI@2@@Z 004133a0 f   foundation_win32.release:ioserver.obj
 0001:00012430       ?DeleteDirectory@IoServer@IO@@QBE_NABVURI@2@@Z 00413430 f   foundation_win32.release:ioserver.obj
 0001:000124c0       ?FileExists@IoServer@IO@@QBE_NABVURI@2@@Z 004134c0 f   foundation_win32.release:ioserver.obj
 0001:00012590       ?DirectoryExists@IoServer@IO@@QBE_NABVURI@2@@Z 00413590 f   foundation_win32.release:ioserver.obj
 0001:00012680       ?SetReadOnly@IoServer@IO@@QBEXABVURI@2@_N@Z 00413680 f   foundation_win32.release:ioserver.obj
 0001:00012710       ?IsReadOnly@IoServer@IO@@QBE_NABVURI@2@@Z 00413710 f   foundation_win32.release:ioserver.obj
 0001:000128c0       ?SetFileWriteTime@IoServer@IO@@QAEXABVURI@2@VWin360FileTime@Win360@@@Z 004138c0 f   foundation_win32.release:ioserver.obj
 0001:00012950       ?GetFileWriteTime@IoServer@IO@@QBE?AVWin360FileTime@Win360@@ABVURI@2@@Z 00413950 f   foundation_win32.release:ioserver.obj
 0001:000129e0       ?ListFiles@IoServer@IO@@QBE?AV?$Array@VString@Util@@@Util@@ABVURI@2@ABVString@4@_N@Z 004139e0 f   foundation_win32.release:ioserver.obj
 0001:00012c00       ?ListDirectories@IoServer@IO@@QBE?AV?$Array@VString@Util@@@Util@@ABVURI@2@ABVString@4@_N@Z 00413c00 f   foundation_win32.release:ioserver.obj
 0001:00012e20       ?AddPathPrefixToArray@IoServer@IO@@ABE?AV?$Array@VString@Util@@@Util@@ABVString@4@ABV34@@Z 00413e20 f   foundation_win32.release:ioserver.obj
 0001:00012f40       ??4?$Array@VString@Util@@@Util@@QAEXABV01@@Z 00413f40 f i foundation_win32.release:ioserver.obj
 0001:00013070       ?Reserve@?$Array@VString@Util@@@Util@@QAEXH@Z 00414070 f i foundation_win32.release:ioserver.obj
 0001:000130c0       ?IsEmpty@?$Array@VString@Util@@@Util@@QBE_NXZ 004140c0 f i foundation_win32.release:ioserver.obj
 0001:000130e0       ??0?$Ptr@VArchiveFileSystem@IO@@@@QAE@XZ 004140e0 f i foundation_win32.release:ioserver.obj
 0001:00013100       ??1?$Ptr@VArchiveFileSystem@IO@@@@QAE@XZ 00414100 f i foundation_win32.release:ioserver.obj
 0001:00013130       ??4?$Ptr@VArchiveFileSystem@IO@@@@QAEXPAVArchiveFileSystem@IO@@@Z 00414130 f i foundation_win32.release:ioserver.obj
 0001:00013190       ??C?$Ptr@VArchiveFileSystem@IO@@@@QBEPAVArchiveFileSystem@IO@@XZ 00414190 f i foundation_win32.release:ioserver.obj
 0001:000131d0       ??0?$Ptr@VSchemeRegistry@IO@@@@QAE@XZ 004141d0 f i foundation_win32.release:ioserver.obj
 0001:000131f0       ??1?$Ptr@VSchemeRegistry@IO@@@@QAE@XZ 004141f0 f i foundation_win32.release:ioserver.obj
 0001:00013220       ??4?$Ptr@VSchemeRegistry@IO@@@@QAEXPAVSchemeRegistry@IO@@@Z 00414220 f i foundation_win32.release:ioserver.obj
 0001:00013280       ??C?$Ptr@VSchemeRegistry@IO@@@@QBEPAVSchemeRegistry@IO@@XZ 00414280 f i foundation_win32.release:ioserver.obj
 0001:000132c0       ??0?$Ptr@VStream@IO@@@@QAE@ABV0@@Z 004142c0 f i foundation_win32.release:ioserver.obj
 0001:00013300       ??0?$Ptr@VStream@IO@@@@QAE@PAVStream@IO@@@Z 00414300 f i foundation_win32.release:ioserver.obj
 0001:00013340       ??1?$Ptr@VStream@IO@@@@QAE@XZ 00414340 f i foundation_win32.release:ioserver.obj
 0001:00013370       ??C?$Ptr@VStream@IO@@@@QBEPAVStream@IO@@XZ 00414370 f i foundation_win32.release:ioserver.obj
 0001:000133b0       ??1?$Ptr@VArchive@IO@@@@QAE@XZ 004143b0 f i foundation_win32.release:ioserver.obj
 0001:000133e0       ??C?$Ptr@VArchive@IO@@@@QBEPAVArchive@IO@@XZ 004143e0 f i foundation_win32.release:ioserver.obj
 0001:00013420       ?isvalid@?$Ptr@VArchive@IO@@@@QBE_NXZ 00414420 f i foundation_win32.release:ioserver.obj
 0001:00013440       ??0?$Stack@VString@Util@@@Util@@QAE@XZ 00414440 f i foundation_win32.release:ioserver.obj
 0001:00013460       ?IsEmpty@?$Stack@VString@Util@@@Util@@QBE_NXZ 00414460 f i foundation_win32.release:ioserver.obj
 0001:00013480       ?Push@?$Stack@VString@Util@@@Util@@QAEXABVString@2@@Z 00414480 f i foundation_win32.release:ioserver.obj
 0001:000134a0       ?Pop@?$Stack@VString@Util@@@Util@@QAE?AVString@2@XZ 004144a0 f i foundation_win32.release:ioserver.obj
 0001:00013530       ?Back@?$Array@VString@Util@@@Util@@QBEAAVString@2@XZ 00414530 f i foundation_win32.release:ioserver.obj
 0001:00013580       ?EraseIndex@?$Array@VString@Util@@@Util@@QAEXH@Z 00414580 f i foundation_win32.release:ioserver.obj
 0001:00013600       ?Move@?$Array@VString@Util@@@Util@@AAEXHH@Z 00414600 f i foundation_win32.release:ioserver.obj
 0001:00013800       ?IsOpen@ConsoleHandler@IO@@QBE_NXZ 00414800 f i foundation_win32.release:logfileconsolehandler.obj
 0001:00013820       ??0URI@IO@@QAE@PBD@Z       00414820 f i foundation_win32.release:logfileconsolehandler.obj
 0001:00013a00       ?IsOpen@StreamWriter@IO@@QBE_NXZ 00414a00 f i foundation_win32.release:logfileconsolehandler.obj
 0001:00013a20       ??2LogFileConsoleHandler@IO@@SAPAXI@Z 00414a20 f i foundation_win32.release:logfileconsolehandler.obj
 0001:00013a30       ??3LogFileConsoleHandler@IO@@SAXPAX@Z 00414a30 f i foundation_win32.release:logfileconsolehandler.obj
 0001:00013a50       ?Value@StringAtom@Util@@QBEPBDXZ 00414a50 f i foundation_win32.release:logfileconsolehandler.obj
 0001:00013a60       ?Instance@IoServer@IO@@SAPAV12@XZ 00414a60 f i foundation_win32.release:logfileconsolehandler.obj
 0001:00013aa0       ?GetAppName@CoreServer@Core@@QBEABVStringAtom@Util@@XZ 00414aa0 f i foundation_win32.release:logfileconsolehandler.obj
 0001:00013ac0       ?GetRtti@LogFileConsoleHandler@IO@@UBEPAVRtti@Core@@XZ 00414ac0 f   foundation_win32.release:logfileconsolehandler.obj
 0001:00013ad0       ?FactoryCreator@LogFileConsoleHandler@IO@@SAPAVRefCounted@Core@@XZ 00414ad0 f   foundation_win32.release:logfileconsolehandler.obj
 0001:00013ae0       ?Create@LogFileConsoleHandler@IO@@SAPAV12@XZ 00414ae0 f   foundation_win32.release:logfileconsolehandler.obj
 0001:00013b20       ?RegisterWithFactory@LogFileConsoleHandler@IO@@SA_NXZ 00414b20 f   foundation_win32.release:logfileconsolehandler.obj
 0001:00013c20       ??0LogFileConsoleHandler@IO@@QAE@XZ 00414c20 f   foundation_win32.release:logfileconsolehandler.obj
 0001:00013c60       ??_GLogFileConsoleHandler@IO@@UAEPAXI@Z 00414c60 f i foundation_win32.release:logfileconsolehandler.obj
 0001:00013c60       ??_ELogFileConsoleHandler@IO@@UAEPAXI@Z 00414c60 f i  CIL library: CIL module
 0001:00013c90       ??1LogFileConsoleHandler@IO@@UAE@XZ 00414c90 f   foundation_win32.release:logfileconsolehandler.obj
 0001:00013ce0       ?Open@LogFileConsoleHandler@IO@@UAEXXZ 00414ce0 f   foundation_win32.release:logfileconsolehandler.obj
 0001:00013f40       ?Close@LogFileConsoleHandler@IO@@UAEXXZ 00414f40 f   foundation_win32.release:logfileconsolehandler.obj
 0001:00013fd0       ?Print@LogFileConsoleHandler@IO@@UAEXABVString@Util@@@Z 00414fd0 f   foundation_win32.release:logfileconsolehandler.obj
 0001:00014020       ?Error@LogFileConsoleHandler@IO@@UAEXABVString@Util@@@Z 00415020 f   foundation_win32.release:logfileconsolehandler.obj
 0001:000140f0       ?Warning@LogFileConsoleHandler@IO@@UAEXABVString@Util@@@Z 004150f0 f   foundation_win32.release:logfileconsolehandler.obj
 0001:000141a0       ?DebugOut@LogFileConsoleHandler@IO@@UAEXABVString@Util@@@Z 004151a0 f   foundation_win32.release:logfileconsolehandler.obj
 0001:00014250       ??0?$Ptr@VStream@IO@@@@QAE@XZ 00415250 f i foundation_win32.release:logfileconsolehandler.obj
 0001:00014270       ??4?$Ptr@VStream@IO@@@@QAEXPAVStream@IO@@@Z 00415270 f i foundation_win32.release:logfileconsolehandler.obj
 0001:000142d0       ??4?$Ptr@VStream@IO@@@@QAEXABV0@@Z 004152d0 f i foundation_win32.release:logfileconsolehandler.obj
 0001:00014330       ??0?$Ptr@VTextWriter@IO@@@@QAE@XZ 00415330 f i foundation_win32.release:logfileconsolehandler.obj
 0001:00014350       ??1?$Ptr@VTextWriter@IO@@@@QAE@XZ 00415350 f i foundation_win32.release:logfileconsolehandler.obj
 0001:00014380       ??4?$Ptr@VTextWriter@IO@@@@QAEXPAVTextWriter@IO@@@Z 00415380 f i foundation_win32.release:logfileconsolehandler.obj
 0001:000143e0       ??C?$Ptr@VTextWriter@IO@@@@QBEPAVTextWriter@IO@@XZ 004153e0 f i foundation_win32.release:logfileconsolehandler.obj
 0001:00014420       ?SetName@Win360Thread@Win360@@QAEXABVString@Util@@@Z 00415420 f i foundation_win32.release:httpinterface.obj
 0001:000144a0       ?SetCoreId@Win360Thread@Win360@@QAEXK@Z 004154a0 f i foundation_win32.release:httpinterface.obj
 0001:000144c0       ?SetHandlerThread@AsyncPort@Messaging@@QAEXABV?$Ptr@VHandlerThreadBase@Messaging@@@@@Z 004154c0 f i foundation_win32.release:httpinterface.obj
 0001:00014510       ?IsOpen@AsyncPort@Messaging@@QBE_NXZ 00415510 f i foundation_win32.release:httpinterface.obj
 0001:00014530       ??2HttpInterface@Http@@SAPAXI@Z 00415530 f i foundation_win32.release:httpinterface.obj
 0001:00014540       ??3HttpInterface@Http@@SAXPAX@Z 00415540 f i foundation_win32.release:httpinterface.obj
 0001:00014560       ?GetRtti@HttpInterface@Http@@UBEPAVRtti@Core@@XZ 00415560 f   foundation_win32.release:httpinterface.obj
 0001:00014570       ?FactoryCreator@HttpInterface@Http@@SAPAVRefCounted@Core@@XZ 00415570 f   foundation_win32.release:httpinterface.obj
 0001:00014580       ?Create@HttpInterface@Http@@SAPAV12@XZ 00415580 f   foundation_win32.release:httpinterface.obj
 0001:000145c0       ?RegisterWithFactory@HttpInterface@Http@@SA_NXZ 004155c0 f   foundation_win32.release:httpinterface.obj
 0001:000146c0       ??0HttpInterface@Http@@QAE@XZ 004156c0 f   foundation_win32.release:httpinterface.obj
 0001:00014710       ??_GHttpInterface@Http@@UAEPAXI@Z 00415710 f i foundation_win32.release:httpinterface.obj
 0001:00014710       ??_EHttpInterface@Http@@UAEPAXI@Z 00415710 f i  CIL library: CIL module
 0001:00014740       ??1HttpInterface@Http@@UAE@XZ 00415740 f   foundation_win32.release:httpinterface.obj
 0001:00014790       ?Open@HttpInterface@Http@@UAEXXZ 00415790 f   foundation_win32.release:httpinterface.obj
 0001:000148a0       ??4?$Ptr@VHandlerThreadBase@Messaging@@@@QAEXABV0@@Z 004158a0 f i foundation_win32.release:httpinterface.obj
 0001:00014900       ??1?$Ptr@VHttpRequestHandler@Http@@@@QAE@XZ 00415900 f i foundation_win32.release:httpinterface.obj
 0001:00014930       ??0?$Ptr@VRunThroughHandlerThread@Messaging@@@@QAE@PAVRunThroughHandlerThread@Messaging@@@Z 00415930 f i foundation_win32.release:httpinterface.obj
 0001:00014970       ??1?$Ptr@VRunThroughHandlerThread@Messaging@@@@QAE@XZ 00415970 f i foundation_win32.release:httpinterface.obj
 0001:000149a0       ??C?$Ptr@VRunThroughHandlerThread@Messaging@@@@QBEPAVRunThroughHandlerThread@Messaging@@XZ 004159a0 f i foundation_win32.release:httpinterface.obj
 0001:000149e0       ??0?$Ptr@VHandler@Messaging@@@@QAE@PAVHandler@Messaging@@@Z 004159e0 f i foundation_win32.release:httpinterface.obj
 0001:00014a20       ??1?$Ptr@VHandler@Messaging@@@@QAE@XZ 00415a20 f i foundation_win32.release:httpinterface.obj
 0001:00014a50       ??$cast@VHandlerThreadBase@Messaging@@@?$Ptr@VRunThroughHandlerThread@Messaging@@@@QBEABV?$Ptr@VHandlerThreadBase@Messaging@@@@XZ 00415a50 f i foundation_win32.release:httpinterface.obj
 0001:00014a60       ??_E?$Ptr@VHttpRequestHandler@Http@@@@QAEPAXI@Z 00415a60 f i foundation_win32.release:httpinterface.obj
 0001:00014b00       ??2HttpServerProxy@Http@@SAPAXI@Z 00415b00 f i foundation_win32.release:httpserverproxy.obj
 0001:00014b10       ??3HttpServerProxy@Http@@SAXPAX@Z 00415b10 f i foundation_win32.release:httpserverproxy.obj
 0001:00014b30       ?SetRequestHandler@AttachRequestHandler@Http@@QAEXABV?$Ptr@VHttpRequestHandler@Http@@@@@Z 00415b30 f i foundation_win32.release:httpserverproxy.obj
 0001:00014b70       ?SetRequestHandler@RemoveRequestHandler@Http@@QAEXABV?$Ptr@VHttpRequestHandler@Http@@@@@Z 00415b70 f i foundation_win32.release:httpserverproxy.obj
 0001:00014bb0       ?Instance@HttpInterface@Http@@SAPAV12@XZ 00415bb0 f i foundation_win32.release:httpserverproxy.obj
 0001:00014be0       ?GetRtti@HttpServerProxy@Http@@UBEPAVRtti@Core@@XZ 00415be0 f   foundation_win32.release:httpserverproxy.obj
 0001:00014bf0       ?FactoryCreator@HttpServerProxy@Http@@SAPAVRefCounted@Core@@XZ 00415bf0 f   foundation_win32.release:httpserverproxy.obj
 0001:00014c00       ?Create@HttpServerProxy@Http@@SAPAV12@XZ 00415c00 f   foundation_win32.release:httpserverproxy.obj
 0001:00014c40       ?RegisterWithFactory@HttpServerProxy@Http@@SA_NXZ 00415c40 f   foundation_win32.release:httpserverproxy.obj
 0001:00014d40       ??0HttpServerProxy@Http@@QAE@XZ 00415d40 f   foundation_win32.release:httpserverproxy.obj
 0001:00014dc0       ??_EHttpServerProxy@Http@@UAEPAXI@Z 00415dc0 f i  CIL library: CIL module
 0001:00014dc0       ??_GHttpServerProxy@Http@@UAEPAXI@Z 00415dc0 f i foundation_win32.release:httpserverproxy.obj
 0001:00014df0       ??1HttpServerProxy@Http@@UAE@XZ 00415df0 f   foundation_win32.release:httpserverproxy.obj
 0001:00014e70       ?Open@HttpServerProxy@Http@@QAEXXZ 00415e70 f   foundation_win32.release:httpserverproxy.obj
 0001:00014ed0       ?Close@HttpServerProxy@Http@@QAEXXZ 00415ed0 f   foundation_win32.release:httpserverproxy.obj
 0001:00014f30       ?AttachRequestHandler@HttpServerProxy@Http@@QAEXABV?$Ptr@VHttpRequestHandler@Http@@@@@Z 00415f30 f   foundation_win32.release:httpserverproxy.obj
 0001:00015000       ?RemoveRequestHandler@HttpServerProxy@Http@@QAEXABV?$Ptr@VHttpRequestHandler@Http@@@@@Z 00416000 f   foundation_win32.release:httpserverproxy.obj
 0001:00015100       ?HandlePendingRequests@HttpServerProxy@Http@@QAEXXZ 00416100 f   foundation_win32.release:httpserverproxy.obj
 0001:00015170       ??0?$Array@V?$Ptr@VHttpRequestHandler@Http@@@@@Util@@QAE@XZ 00416170 f i foundation_win32.release:httpserverproxy.obj
 0001:000151b0       ??1?$Array@V?$Ptr@VHttpRequestHandler@Http@@@@@Util@@QAE@XZ 004161b0 f i foundation_win32.release:httpserverproxy.obj
 0001:000151d0       ??A?$Array@V?$Ptr@VHttpRequestHandler@Http@@@@@Util@@QBEAAV?$Ptr@VHttpRequestHandler@Http@@@@H@Z 004161d0 f i foundation_win32.release:httpserverproxy.obj
 0001:00015220       ?Append@?$Array@V?$Ptr@VHttpRequestHandler@Http@@@@@Util@@QAEXABV?$Ptr@VHttpRequestHandler@Http@@@@@Z 00416220 f i foundation_win32.release:httpserverproxy.obj
 0001:000152a0       ?Size@?$Array@V?$Ptr@VHttpRequestHandler@Http@@@@@Util@@QBEHXZ 004162a0 f i foundation_win32.release:httpserverproxy.obj
 0001:000152c0       ?Back@?$Array@V?$Ptr@VHttpRequestHandler@Http@@@@@Util@@QBEAAV?$Ptr@VHttpRequestHandler@Http@@@@XZ 004162c0 f i foundation_win32.release:httpserverproxy.obj
 0001:00015310       ?IsEmpty@?$Array@V?$Ptr@VHttpRequestHandler@Http@@@@@Util@@QBE_NXZ 00416310 f i foundation_win32.release:httpserverproxy.obj
 0001:00015330       ?EraseIndex@?$Array@V?$Ptr@VHttpRequestHandler@Http@@@@@Util@@QAEXH@Z 00416330 f i foundation_win32.release:httpserverproxy.obj
 0001:000153b0       ?FindIndex@?$Array@V?$Ptr@VHttpRequestHandler@Http@@@@@Util@@QBEHABV?$Ptr@VHttpRequestHandler@Http@@@@@Z 004163b0 f i foundation_win32.release:httpserverproxy.obj
 0001:00015410       ??0?$Ptr@VHttpRequestHandler@Http@@@@QAE@XZ 00416410 f i foundation_win32.release:httpserverproxy.obj
 0001:00015430       ??4?$Ptr@VHttpRequestHandler@Http@@@@QAEXABV0@@Z 00416430 f i foundation_win32.release:httpserverproxy.obj
 0001:00015490       ??C?$Ptr@VHttpRequestHandler@Http@@@@QBEPAVHttpRequestHandler@Http@@XZ 00416490 f i foundation_win32.release:httpserverproxy.obj
 0001:000154d0       ??0?$Ptr@VAttachRequestHandler@Http@@@@QAE@PAVAttachRequestHandler@Http@@@Z 004164d0 f i foundation_win32.release:httpserverproxy.obj
 0001:00015510       ??1?$Ptr@VAttachRequestHandler@Http@@@@QAE@XZ 00416510 f i foundation_win32.release:httpserverproxy.obj
 0001:00015540       ??C?$Ptr@VAttachRequestHandler@Http@@@@QBEPAVAttachRequestHandler@Http@@XZ 00416540 f i foundation_win32.release:httpserverproxy.obj
 0001:00015580       ??$cast@VMessage@Messaging@@@?$Ptr@VAttachRequestHandler@Http@@@@QBEABV?$Ptr@VMessage@Messaging@@@@XZ 00416580 f i foundation_win32.release:httpserverproxy.obj
 0001:00015590       ??$Send@VMessage@Messaging@@@AsyncPort@Messaging@@QAEXABV?$Ptr@VMessage@Messaging@@@@@Z 00416590 f i foundation_win32.release:httpserverproxy.obj
 0001:000155b0       ??0?$Ptr@VRemoveRequestHandler@Http@@@@QAE@PAVRemoveRequestHandler@Http@@@Z 004165b0 f i foundation_win32.release:httpserverproxy.obj
 0001:000155f0       ??1?$Ptr@VRemoveRequestHandler@Http@@@@QAE@XZ 004165f0 f i foundation_win32.release:httpserverproxy.obj
 0001:00015620       ??C?$Ptr@VRemoveRequestHandler@Http@@@@QBEPAVRemoveRequestHandler@Http@@XZ 00416620 f i foundation_win32.release:httpserverproxy.obj
 0001:00015660       ??$cast@VMessage@Messaging@@@?$Ptr@VRemoveRequestHandler@Http@@@@QBEABV?$Ptr@VMessage@Messaging@@@@XZ 00416660 f i foundation_win32.release:httpserverproxy.obj
 0001:00015670       ?Destroy@?$Array@V?$Ptr@VHttpRequestHandler@Http@@@@@Util@@AAEXPAV?$Ptr@VHttpRequestHandler@Http@@@@@Z 00416670 f i foundation_win32.release:httpserverproxy.obj
 0001:000156a0       ?Delete@?$Array@V?$Ptr@VHttpRequestHandler@Http@@@@@Util@@AAEXXZ 004166a0 f i foundation_win32.release:httpserverproxy.obj
 0001:00015710       ?Grow@?$Array@V?$Ptr@VHttpRequestHandler@Http@@@@@Util@@AAEXXZ 00416710 f i foundation_win32.release:httpserverproxy.obj
 0001:00015790       ?Move@?$Array@V?$Ptr@VHttpRequestHandler@Http@@@@@Util@@AAEXHH@Z 00416790 f i foundation_win32.release:httpserverproxy.obj
 0001:00015920       ??8?$Ptr@VHttpRequestHandler@Http@@@@QBE_NABV0@@Z 00416920 f i foundation_win32.release:httpserverproxy.obj
 0001:00015940       ??_G?$Ptr@VHttpRequestHandler@Http@@@@QAEPAXI@Z 00416940 f i foundation_win32.release:httpserverproxy.obj
 0001:00015970       ?GrowTo@?$Array@V?$Ptr@VHttpRequestHandler@Http@@@@@Util@@AAEXH@Z 00416970 f i foundation_win32.release:httpserverproxy.obj
 0001:00015a90       ?Setup@Blob@Util@@SAXXZ    00416a90 f i foundation_win32.release:win32sysfunc.obj
 0001:00015b00       ?Shutdown@Blob@Util@@SAXXZ 00416b00 f i foundation_win32.release:win32sysfunc.obj
 0001:00015b80       ??_GWin360Heap@Win360@@QAEPAXI@Z 00416b80 f i foundation_win32.release:win32sysfunc.obj
 0001:00015bb0       ?Setup@SysFunc@Win32@@SAXXZ 00416bb0 f   foundation_win32.release:win32sysfunc.obj
 0001:00015c70       ?Exit@SysFunc@Win32@@SAXH@Z 00416c70 f   foundation_win32.release:win32sysfunc.obj
 0001:00015d50       ??_GGlobalStringAtomTable@Util@@QAEPAXI@Z 00416d50 f i foundation_win32.release:win32sysfunc.obj
 0001:00015d80       ??_GLocalStringAtomTable@Util@@QAEPAXI@Z 00416d80 f i foundation_win32.release:win32sysfunc.obj
 0001:00015db0       ?Error@SysFunc@Win32@@SAXPBD@Z 00416db0 f   foundation_win32.release:win32sysfunc.obj
 0001:00015de0       ?MessageBoxA@SysFunc@Win32@@SAXPBD@Z 00416de0 f   foundation_win32.release:win32sysfunc.obj
 0001:00015e20       ?Sleep@SysFunc@Win32@@SAXN@Z 00416e20 f   foundation_win32.release:win32sysfunc.obj
 0001:00015e50       ?DebugOut@SysFunc@Win32@@SAXPBD@Z 00416e50 f   foundation_win32.release:win32sysfunc.obj
 0001:00015e60       ?RegisterExitHandler@SysFunc@Win32@@CAPBVExitHandler@Core@@PBV34@@Z 00416e60 f   foundation_win32.release:win32sysfunc.obj
 0001:00015e80       ?GetSystemInfo@SysFunc@Win32@@SAPBVSystemInfo@System@@XZ 00416e80 f   foundation_win32.release:win32sysfunc.obj
 0001:00015e90       ?XMVerifyCPUSupport@@YAHXZ 00416e90 f i foundation_win32.release:win32sysfunc.obj
 0001:00015ed0       ?AsFloat4@String@Util@@QBE?AVfloat4@Math@@XZ 00416ed0 f i foundation_win32.release:commandlineargs.obj
 0001:00016050       ??0CommandLineArgs@Util@@QAE@XZ 00417050 f   foundation_win32.release:commandlineargs.obj
 0001:00016070       ??0CommandLineArgs@Util@@QAE@ABVString@1@@Z 00417070 f   foundation_win32.release:commandlineargs.obj
 0001:00016100       ??0CommandLineArgs@Util@@QAE@HPAPBD@Z 00417100 f   foundation_win32.release:commandlineargs.obj
 0001:000161a0       ?Error@CommandLineArgs@Util@@ABEXABVString@2@@Z 004171a0 f   foundation_win32.release:commandlineargs.obj
 0001:000161e0       ?GetCmdName@CommandLineArgs@Util@@QBEABVString@2@XZ 004171e0 f   foundation_win32.release:commandlineargs.obj
 0001:00016220       ?HasArg@CommandLineArgs@Util@@QBE_NABVString@2@@Z 00417220 f   foundation_win32.release:commandlineargs.obj
 0001:00016250       ?FindArgIndex@CommandLineArgs@Util@@ABEHABVString@2@@Z 00417250 f   foundation_win32.release:commandlineargs.obj
 0001:000162b0       ?GetString@CommandLineArgs@Util@@QBEABVString@2@ABV32@0@Z 004172b0 f   foundation_win32.release:commandlineargs.obj
 0001:000162f0       ?GetInt@CommandLineArgs@Util@@QBEHABVString@2@H@Z 004172f0 f   foundation_win32.release:commandlineargs.obj
 0001:00016340       ?GetFloat@CommandLineArgs@Util@@QBEMABVString@2@M@Z 00417340 f   foundation_win32.release:commandlineargs.obj
 0001:00016390       ?GetBool@CommandLineArgs@Util@@QBE_NABVString@2@_N@Z 00417390 f   foundation_win32.release:commandlineargs.obj
 0001:000163e0       ?GetBoolFlag@CommandLineArgs@Util@@QBE_NABVString@2@@Z 004173e0 f   foundation_win32.release:commandlineargs.obj
 0001:00016400       ?GetFloat4@CommandLineArgs@Util@@QBE?AVfloat4@Math@@ABVString@2@ABV34@@Z 00417400 f   foundation_win32.release:commandlineargs.obj
 0001:00016470       ?GetMatrix44@CommandLineArgs@Util@@QBE?AVmatrix44@Math@@ABVString@2@ABV34@@Z 00417470 f   foundation_win32.release:commandlineargs.obj
 0001:000164d0       ?GetNumArgs@CommandLineArgs@Util@@QBEHXZ 004174d0 f   foundation_win32.release:commandlineargs.obj
 0001:00016510       ?GetStringAtIndex@CommandLineArgs@Util@@QBEABVString@2@H@Z 00417510 f   foundation_win32.release:commandlineargs.obj
 0001:00016530       ?GetIntAtIndex@CommandLineArgs@Util@@QBEHH@Z 00417530 f   foundation_win32.release:commandlineargs.obj
 0001:00016560       ?GetFloatAtIndex@CommandLineArgs@Util@@QBEMH@Z 00417560 f   foundation_win32.release:commandlineargs.obj
 0001:00016590       ?GetBoolAtIndex@CommandLineArgs@Util@@QBE_NH@Z 00417590 f   foundation_win32.release:commandlineargs.obj
 0001:000165c0       ?GetFloat4AtIndex@CommandLineArgs@Util@@QBE?AVfloat4@Math@@H@Z 004175c0 f   foundation_win32.release:commandlineargs.obj
 0001:000165f0       ?GetMatrix44AtIndex@CommandLineArgs@Util@@QBE?AVmatrix44@Math@@H@Z 004175f0 f   foundation_win32.release:commandlineargs.obj
 0001:00016620       ?AppendCommandString@CommandLineArgs@Util@@QAEXABV12@@Z 00417620 f   foundation_win32.release:commandlineargs.obj
 0001:00016670       ?FindIndex@?$Array@VString@Util@@@Util@@QBEHABVString@2@@Z 00417670 f i foundation_win32.release:commandlineargs.obj
 0001:000166d0       ?SetupHeaps@Memory@@YAXXZ  004176d0 f   foundation_win32.release:win360memoryconfig.obj
 0001:00016830       ?GetHeapTypeName@Memory@@YAPBDW4HeapType@1@@Z 00417830 f   foundation_win32.release:win360memoryconfig.obj
 0001:000168f0       ??0FourCC@Util@@QAE@XZ     004178f0 f i foundation_win32.release:rtti.obj
 0001:00016910       ??8FourCC@Util@@QBE_NABV01@@Z 00417910 f i foundation_win32.release:rtti.obj
 0001:00016930       ?IsValid@FourCC@Util@@QBE_NXZ 00417930 f i foundation_win32.release:rtti.obj
 0001:00016950       ?GetParent@Rtti@Core@@QBEPBV12@XZ 00417950 f i foundation_win32.release:rtti.obj
 0001:00016970       ?Construct@Rtti@Core@@AAEXPBDVFourCC@Util@@P6APAVRefCounted@2@XZPBV12@H@Z 00417970 f   foundation_win32.release:rtti.obj
 0001:00016a60       ??0Rtti@Core@@QAE@PBDVFourCC@Util@@P6APAVRefCounted@1@XZPBV01@H@Z 00417a60 f   foundation_win32.release:rtti.obj
 0001:00016ad0       ??0Rtti@Core@@QAE@PBDP6APAVRefCounted@1@XZPBV01@H@Z 00417ad0 f   foundation_win32.release:rtti.obj
 0001:00016b40       ?Create@Rtti@Core@@QBEPAVRefCounted@2@XZ 00417b40 f   foundation_win32.release:rtti.obj
 0001:00016ba0       ?IsDerivedFrom@Rtti@Core@@QBE_NABV12@@Z 00417ba0 f   foundation_win32.release:rtti.obj
 0001:00016be0       ?IsDerivedFrom@Rtti@Core@@QBE_NABVString@Util@@@Z 00417be0 f   foundation_win32.release:rtti.obj
 0001:00016c30       ?IsDerivedFrom@Rtti@Core@@QBE_NABVFourCC@Util@@@Z 00417c30 f   foundation_win32.release:rtti.obj
 0001:00016c80       ?AllocInstanceMemory@Rtti@Core@@QAEPAXXZ 00417c80 f   foundation_win32.release:rtti.obj
 0001:00016cb0       ?FreeInstanceMemory@Rtti@Core@@QAEXPAX@Z 00417cb0 f   foundation_win32.release:rtti.obj
 0001:00016cd0       ??2RefCounted@Core@@SAPAXI@Z 00417cd0 f i foundation_win32.release:refcounted.obj
 0001:00016ce0       ?GetRtti@RefCounted@Core@@UBEPAVRtti@2@XZ 00417ce0 f   foundation_win32.release:refcounted.obj
 0001:00016cf0       ?FactoryCreator@RefCounted@Core@@SAPAV12@XZ 00417cf0 f   foundation_win32.release:refcounted.obj
 0001:00016d00       ?Create@RefCounted@Core@@SAPAV12@XZ 00417d00 f   foundation_win32.release:refcounted.obj
 0001:00016d50       ?RegisterWithFactory@RefCounted@Core@@SA_NXZ 00417d50 f   foundation_win32.release:refcounted.obj
 0001:00016e50       ??1RefCounted@Core@@MAE@XZ 00417e50 f   foundation_win32.release:refcounted.obj
 0001:00016e90       ?DumpRefCountingLeaks@RefCounted@Core@@SAXXZ 00417e90 f   foundation_win32.release:refcounted.obj
 0001:00016ea0       ??9FourCC@Util@@QBE_NABV01@@Z 00417ea0 f i foundation_win32.release:factory.obj
 0001:00016ec0       ??OFourCC@Util@@QBE_NABV01@@Z 00417ec0 f i foundation_win32.release:factory.obj
 0001:00016ee0       ??MFourCC@Util@@QBE_NABV01@@Z 00417ee0 f i foundation_win32.release:factory.obj
 0001:00016f00       ?AsString@FourCC@Util@@QBE?AVString@2@XZ 00417f00 f i foundation_win32.release:factory.obj
 0001:00016f30       ?ToString@FourCC@Util@@SA?AVString@2@ABV12@@Z 00417f30 f i foundation_win32.release:factory.obj
 0001:000170c0       ?Instance@Factory@Core@@SAPAV12@XZ 004180c0 f   foundation_win32.release:factory.obj
 0001:00017130       ?Destroy@Factory@Core@@SAXXZ 00418130 f   foundation_win32.release:factory.obj
 0001:00017190       ??_GFactory@Core@@AAEPAXI@Z 00418190 f i foundation_win32.release:factory.obj
 0001:000171c0       ??0Factory@Core@@AAE@XZ    004181c0 f   foundation_win32.release:factory.obj
 0001:000171f0       ??1?$HashTable@VString@Util@@PBVRtti@Core@@@Util@@QAE@XZ 004181f0 f i foundation_win32.release:factory.obj
 0001:00017210       ??1?$Dictionary@VFourCC@Util@@PBVRtti@Core@@@Util@@QAE@XZ 00418210 f i foundation_win32.release:factory.obj
 0001:00017230       ??1Factory@Core@@AAE@XZ    00418230 f   foundation_win32.release:factory.obj
 0001:00017270       ?Register@Factory@Core@@QAEXPBVRtti@2@ABVString@Util@@ABVFourCC@5@@Z 00418270 f   foundation_win32.release:factory.obj
 0001:00017460       ?Register@Factory@Core@@QAEXPBVRtti@2@ABVString@Util@@@Z 00418460 f   foundation_win32.release:factory.obj
 0001:00017530       ?ClassExists@Factory@Core@@QBE_NABVString@Util@@@Z 00418530 f   foundation_win32.release:factory.obj
 0001:00017580       ?ClassExists@Factory@Core@@QBE_NVFourCC@Util@@@Z 00418580 f   foundation_win32.release:factory.obj
 0001:000175d0       ?GetClassRtti@Factory@Core@@QBEPBVRtti@2@ABVString@Util@@@Z 004185d0 f   foundation_win32.release:factory.obj
 0001:00017640       ?GetClassRtti@Factory@Core@@QBEPBVRtti@2@ABVFourCC@Util@@@Z 00418640 f   foundation_win32.release:factory.obj
 0001:000176c0       ?Create@Factory@Core@@QBEPAVRefCounted@2@ABVString@Util@@@Z 004186c0 f   foundation_win32.release:factory.obj
 0001:000177d0       ?Create@Factory@Core@@QBEPAVRefCounted@2@VFourCC@Util@@@Z 004187d0 f   foundation_win32.release:factory.obj
 0001:00017920       ??1?$FixedArray@V?$Array@V?$KeyValuePair@VString@Util@@PBVRtti@Core@@@Util@@@Util@@@Util@@QAE@XZ 00418920 f i foundation_win32.release:factory.obj
 0001:00017940       ??0?$HashTable@VString@Util@@PBVRtti@Core@@@Util@@QAE@H@Z 00418940 f i foundation_win32.release:factory.obj
 0001:00017970       ??A?$HashTable@VString@Util@@PBVRtti@Core@@@Util@@QBEAAPBVRtti@Core@@ABVString@1@@Z 00418970 f i foundation_win32.release:factory.obj
 0001:00017a70       ?Clear@?$HashTable@VString@Util@@PBVRtti@Core@@@Util@@QAEXXZ 00418a70 f i foundation_win32.release:factory.obj
 0001:00017ad0       ?Add@?$HashTable@VString@Util@@PBVRtti@Core@@@Util@@QAEXABVString@2@ABQBVRtti@Core@@@Z 00418ad0 f i foundation_win32.release:factory.obj
 0001:00017b10       ?Contains@?$HashTable@VString@Util@@PBVRtti@Core@@@Util@@QBE_NABVString@2@@Z 00418b10 f i foundation_win32.release:factory.obj
 0001:00017bb0       ??1?$Array@V?$KeyValuePair@VFourCC@Util@@PBVRtti@Core@@@Util@@@Util@@QAE@XZ 00418bb0 f i foundation_win32.release:factory.obj
 0001:00017bd0       ??0?$Dictionary@VFourCC@Util@@PBVRtti@Core@@@Util@@QAE@XZ 00418bd0 f i foundation_win32.release:factory.obj
 0001:00017bf0       ??A?$Dictionary@VFourCC@Util@@PBVRtti@Core@@@Util@@QBEABQBVRtti@Core@@ABVFourCC@1@@Z 00418bf0 f i foundation_win32.release:factory.obj
 0001:00017c40       ?Clear@?$Dictionary@VFourCC@Util@@PBVRtti@Core@@@Util@@QAEXXZ 00418c40 f i foundation_win32.release:factory.obj
 0001:00017c80       ?Add@?$Dictionary@VFourCC@Util@@PBVRtti@Core@@@Util@@QAEXABVFourCC@2@ABQBVRtti@Core@@@Z 00418c80 f i foundation_win32.release:factory.obj
 0001:00017cd0       ?Contains@?$Dictionary@VFourCC@Util@@PBVRtti@Core@@@Util@@QBE_NABVFourCC@2@@Z 00418cd0 f i foundation_win32.release:factory.obj
 0001:00017d30       ??1?$KeyValuePair@VString@Util@@PBVRtti@Core@@@Util@@QAE@XZ 00418d30 f i foundation_win32.release:factory.obj
 0001:00017d80       ??0?$FixedArray@V?$Array@V?$KeyValuePair@VString@Util@@PBVRtti@Core@@@Util@@@Util@@@Util@@QAE@H@Z 00418d80 f i foundation_win32.release:factory.obj
 0001:00017db0       ??A?$FixedArray@V?$Array@V?$KeyValuePair@VString@Util@@PBVRtti@Core@@@Util@@@Util@@@Util@@QBEAAV?$Array@V?$KeyValuePair@VString@Util@@PBVRtti@Core@@@Util@@@1@H@Z 00418db0 f i foundation_win32.release:factory.obj
 0001:00017e00       ?Size@?$FixedArray@V?$Array@V?$KeyValuePair@VString@Util@@PBVRtti@Core@@@Util@@@Util@@@Util@@QBEHXZ 00418e00 f i foundation_win32.release:factory.obj
 0001:00017e10       ?Delete@?$FixedArray@V?$Array@V?$KeyValuePair@VString@Util@@PBVRtti@Core@@@Util@@@Util@@@Util@@AAEXXZ 00418e10 f i foundation_win32.release:factory.obj
 0001:00017e70       ?Add@?$HashTable@VString@Util@@PBVRtti@Core@@@Util@@QAEXABV?$KeyValuePair@VString@Util@@PBVRtti@Core@@@2@@Z 00418e70 f i foundation_win32.release:factory.obj
 0001:00017f00       ??A?$Array@V?$KeyValuePair@VString@Util@@PBVRtti@Core@@@Util@@@Util@@QBEAAV?$KeyValuePair@VString@Util@@PBVRtti@Core@@@1@H@Z 00418f00 f i foundation_win32.release:factory.obj
 0001:00017f50       ?Size@?$Array@V?$KeyValuePair@VString@Util@@PBVRtti@Core@@@Util@@@Util@@QBEHXZ 00418f50 f i foundation_win32.release:factory.obj
 0001:00017f70       ?Clear@?$Array@V?$KeyValuePair@VString@Util@@PBVRtti@Core@@@Util@@@Util@@QAEXXZ 00418f70 f i foundation_win32.release:factory.obj
 0001:00017fc0       ?BinarySearchIndex@?$Array@V?$KeyValuePair@VString@Util@@PBVRtti@Core@@@Util@@@Util@@QBEHABV?$KeyValuePair@VString@Util@@PBVRtti@Core@@@2@@Z 00418fc0 f i foundation_win32.release:factory.obj
 0001:000180f0       ??0?$KeyValuePair@VString@Util@@PBVRtti@Core@@@Util@@QAE@ABVString@1@@Z 004190f0 f i foundation_win32.release:factory.obj
 0001:00018150       ??0?$KeyValuePair@VString@Util@@PBVRtti@Core@@@Util@@QAE@ABVString@1@ABQBVRtti@Core@@@Z 00419150 f i foundation_win32.release:factory.obj
 0001:000181c0       ?Value@?$KeyValuePair@VString@Util@@PBVRtti@Core@@@Util@@QAEAAPBVRtti@Core@@XZ 004191c0 f i foundation_win32.release:factory.obj
 0001:000181e0       ??0?$Array@V?$KeyValuePair@VFourCC@Util@@PBVRtti@Core@@@Util@@@Util@@QAE@XZ 004191e0 f i foundation_win32.release:factory.obj
 0001:00018220       ??A?$Array@V?$KeyValuePair@VFourCC@Util@@PBVRtti@Core@@@Util@@@Util@@QBEAAV?$KeyValuePair@VFourCC@Util@@PBVRtti@Core@@@1@H@Z 00419220 f i foundation_win32.release:factory.obj
 0001:00018270       ?Append@?$Array@V?$KeyValuePair@VFourCC@Util@@PBVRtti@Core@@@Util@@@Util@@QAEXABV?$KeyValuePair@VFourCC@Util@@PBVRtti@Core@@@2@@Z 00419270 f i foundation_win32.release:factory.obj
 0001:000182f0       ?InsertSorted@?$Array@V?$KeyValuePair@VFourCC@Util@@PBVRtti@Core@@@Util@@@Util@@QAEHABV?$KeyValuePair@VFourCC@Util@@PBVRtti@Core@@@2@@Z 004192f0 f i foundation_win32.release:factory.obj
 0001:00018560       ?Clear@?$Array@V?$KeyValuePair@VFourCC@Util@@PBVRtti@Core@@@Util@@@Util@@QAEXXZ 00419560 f i foundation_win32.release:factory.obj
 0001:000185b0       ?BinarySearchIndex@?$Array@V?$KeyValuePair@VFourCC@Util@@PBVRtti@Core@@@Util@@@Util@@QBEHABV?$KeyValuePair@VFourCC@Util@@PBVRtti@Core@@@2@@Z 004195b0 f i foundation_win32.release:factory.obj
 0001:000186e0       ?Delete@?$Array@V?$KeyValuePair@VFourCC@Util@@PBVRtti@Core@@@Util@@@Util@@AAEXXZ 004196e0 f i foundation_win32.release:factory.obj
 0001:00018740       ?FindIndex@?$Dictionary@VFourCC@Util@@PBVRtti@Core@@@Util@@QBEHABVFourCC@2@@Z 00419740 f i foundation_win32.release:factory.obj
 0001:00018790       ??0?$KeyValuePair@VFourCC@Util@@PBVRtti@Core@@@Util@@QAE@ABVFourCC@1@@Z 00419790 f i foundation_win32.release:factory.obj
 0001:000187b0       ??0?$KeyValuePair@VFourCC@Util@@PBVRtti@Core@@@Util@@QAE@ABVFourCC@1@ABQBVRtti@Core@@@Z 004197b0 f i foundation_win32.release:factory.obj
 0001:000187e0       ?Value@?$KeyValuePair@VFourCC@Util@@PBVRtti@Core@@@Util@@QAEAAPBVRtti@Core@@XZ 004197e0 f i foundation_win32.release:factory.obj
 0001:00018800       ??_E?$Array@V?$KeyValuePair@VString@Util@@PBVRtti@Core@@@Util@@@Util@@QAEPAXI@Z 00419800 f i foundation_win32.release:factory.obj
 0001:000188a0       ?Alloc@?$FixedArray@V?$Array@V?$KeyValuePair@VString@Util@@PBVRtti@Core@@@Util@@@Util@@@Util@@AAEXH@Z 004198a0 f i foundation_win32.release:factory.obj
 0001:00018970       ??1?$Array@V?$KeyValuePair@VString@Util@@PBVRtti@Core@@@Util@@@Util@@QAE@XZ 00419970 f i foundation_win32.release:factory.obj
 0001:00018990       ?InsertSorted@?$Array@V?$KeyValuePair@VString@Util@@PBVRtti@Core@@@Util@@@Util@@QAEHABV?$KeyValuePair@VString@Util@@PBVRtti@Core@@@2@@Z 00419990 f i foundation_win32.release:factory.obj
 0001:00018c00       ?Destroy@?$Array@V?$KeyValuePair@VString@Util@@PBVRtti@Core@@@Util@@@Util@@AAEXPAV?$KeyValuePair@VString@Util@@PBVRtti@Core@@@2@@Z 00419c00 f i foundation_win32.release:factory.obj
 0001:00018c20       ??9?$KeyValuePair@VString@Util@@PBVRtti@Core@@@Util@@QBE_NABV01@@Z 00419c20 f i foundation_win32.release:factory.obj
 0001:00018c40       ??O?$KeyValuePair@VString@Util@@PBVRtti@Core@@@Util@@QBE_NABV01@@Z 00419c40 f i foundation_win32.release:factory.obj
 0001:00018c60       ??M?$KeyValuePair@VString@Util@@PBVRtti@Core@@@Util@@QBE_NABV01@@Z 00419c60 f i foundation_win32.release:factory.obj
 0001:00018c80       ?Key@?$KeyValuePair@VString@Util@@PBVRtti@Core@@@Util@@QBEABVString@2@XZ 00419c80 f i foundation_win32.release:factory.obj
 0001:00018c90       ?Size@?$Array@V?$KeyValuePair@VFourCC@Util@@PBVRtti@Core@@@Util@@@Util@@QBEHXZ 00419c90 f i foundation_win32.release:factory.obj
 0001:00018cb0       ?Insert@?$Array@V?$KeyValuePair@VFourCC@Util@@PBVRtti@Core@@@Util@@@Util@@QAEXHABV?$KeyValuePair@VFourCC@Util@@PBVRtti@Core@@@2@@Z 00419cb0 f i foundation_win32.release:factory.obj
 0001:00018d20       ?InsertAtEndOfIdenticalRange@?$Array@V?$KeyValuePair@VFourCC@Util@@PBVRtti@Core@@@Util@@@Util@@QAEHHABV?$KeyValuePair@VFourCC@Util@@PBVRtti@Core@@@2@@Z 00419d20 f i foundation_win32.release:factory.obj
 0001:00018da0       ?Destroy@?$Array@V?$KeyValuePair@VFourCC@Util@@PBVRtti@Core@@@Util@@@Util@@AAEXPAV?$KeyValuePair@VFourCC@Util@@PBVRtti@Core@@@2@@Z 00419da0 f i foundation_win32.release:factory.obj
 0001:00018db0       ?Grow@?$Array@V?$KeyValuePair@VFourCC@Util@@PBVRtti@Core@@@Util@@@Util@@AAEXXZ 00419db0 f i foundation_win32.release:factory.obj
 0001:00018e30       ??4?$KeyValuePair@VFourCC@Util@@PBVRtti@Core@@@Util@@QAEXABV01@@Z 00419e30 f i foundation_win32.release:factory.obj
 0001:00018e60       ??9?$KeyValuePair@VFourCC@Util@@PBVRtti@Core@@@Util@@QBE_NABV01@@Z 00419e60 f i foundation_win32.release:factory.obj
 0001:00018e80       ??O?$KeyValuePair@VFourCC@Util@@PBVRtti@Core@@@Util@@QBE_NABV01@@Z 00419e80 f i foundation_win32.release:factory.obj
 0001:00018ea0       ??M?$KeyValuePair@VFourCC@Util@@PBVRtti@Core@@@Util@@QBE_NABV01@@Z 00419ea0 f i foundation_win32.release:factory.obj
 0001:00018ec0       ??_G?$KeyValuePair@VString@Util@@PBVRtti@Core@@@Util@@QAEPAXI@Z 00419ec0 f i foundation_win32.release:factory.obj
 0001:00018f30       ??0?$Array@V?$KeyValuePair@VString@Util@@PBVRtti@Core@@@Util@@@Util@@QAE@XZ 00419f30 f i foundation_win32.release:factory.obj
 0001:00018f70       ?Append@?$Array@V?$KeyValuePair@VString@Util@@PBVRtti@Core@@@Util@@@Util@@QAEXABV?$KeyValuePair@VString@Util@@PBVRtti@Core@@@2@@Z 00419f70 f i foundation_win32.release:factory.obj
 0001:00018ff0       ?Insert@?$Array@V?$KeyValuePair@VString@Util@@PBVRtti@Core@@@Util@@@Util@@QAEXHABV?$KeyValuePair@VString@Util@@PBVRtti@Core@@@2@@Z 00419ff0 f i foundation_win32.release:factory.obj
 0001:00019060       ?InsertAtEndOfIdenticalRange@?$Array@V?$KeyValuePair@VString@Util@@PBVRtti@Core@@@Util@@@Util@@QAEHHABV?$KeyValuePair@VString@Util@@PBVRtti@Core@@@2@@Z 0041a060 f i foundation_win32.release:factory.obj
 0001:000190e0       ?Delete@?$Array@V?$KeyValuePair@VString@Util@@PBVRtti@Core@@@Util@@@Util@@AAEXXZ 0041a0e0 f i foundation_win32.release:factory.obj
 0001:00019150       ?GrowTo@?$Array@V?$KeyValuePair@VFourCC@Util@@PBVRtti@Core@@@Util@@@Util@@AAEXH@Z 0041a150 f i foundation_win32.release:factory.obj
 0001:00019240       ?Move@?$Array@V?$KeyValuePair@VFourCC@Util@@PBVRtti@Core@@@Util@@@Util@@AAEXHH@Z 0041a240 f i foundation_win32.release:factory.obj
 0001:000193d0       ??_E?$KeyValuePair@VString@Util@@PBVRtti@Core@@@Util@@QAEPAXI@Z 0041a3d0 f i foundation_win32.release:factory.obj
 0001:000194e0       ?Grow@?$Array@V?$KeyValuePair@VString@Util@@PBVRtti@Core@@@Util@@@Util@@AAEXXZ 0041a4e0 f i foundation_win32.release:factory.obj
 0001:00019560       ?Move@?$Array@V?$KeyValuePair@VString@Util@@PBVRtti@Core@@@Util@@@Util@@AAEXHH@Z 0041a560 f i foundation_win32.release:factory.obj
 0001:000196f0       ??4?$KeyValuePair@VString@Util@@PBVRtti@Core@@@Util@@QAEXABV01@@Z 0041a6f0 f i foundation_win32.release:factory.obj
 0001:00019740       ??0?$KeyValuePair@VFourCC@Util@@PBVRtti@Core@@@Util@@QAE@XZ 0041a740 f i foundation_win32.release:factory.obj
 0001:00019760       ?GrowTo@?$Array@V?$KeyValuePair@VString@Util@@PBVRtti@Core@@@Util@@@Util@@AAEXH@Z 0041a760 f i foundation_win32.release:factory.obj
 0001:00019880       ??0?$KeyValuePair@VString@Util@@PBVRtti@Core@@@Util@@QAE@XZ 0041a880 f i foundation_win32.release:factory.obj
 0001:000198c0       ??0LocalStringAtomTable@Util@@QAE@XZ 0041a8c0 f   foundation_win32.release:localstringatomtable.obj
 0001:00019910       ??1LocalStringAtomTable@Util@@QAE@XZ 0041a910 f   foundation_win32.release:localstringatomtable.obj
 0001:00019960       ?Add@LocalStringAtomTable@Util@@AAEXPBD@Z 0041a960 f   foundation_win32.release:localstringatomtable.obj
 0001:00019990       ?InsertSorted@?$Array@UStaticString@StringAtomTableBase@Util@@@Util@@QAEHABUStaticString@StringAtomTableBase@2@@Z 0041a990 f i foundation_win32.release:localstringatomtable.obj
 0001:00019c00       ?Append@?$Array@UStaticString@StringAtomTableBase@Util@@@Util@@QAEXABUStaticString@StringAtomTableBase@2@@Z 0041ac00 f i foundation_win32.release:localstringatomtable.obj
 0001:00019c70       ?Size@?$Array@UStaticString@StringAtomTableBase@Util@@@Util@@QBEHXZ 0041ac70 f i foundation_win32.release:localstringatomtable.obj
 0001:00019c90       ?Insert@?$Array@UStaticString@StringAtomTableBase@Util@@@Util@@QAEXHABUStaticString@StringAtomTableBase@2@@Z 0041ac90 f i foundation_win32.release:localstringatomtable.obj
 0001:00019d00       ?InsertAtEndOfIdenticalRange@?$Array@UStaticString@StringAtomTableBase@Util@@@Util@@QAEHHABUStaticString@StringAtomTableBase@2@@Z 0041ad00 f i foundation_win32.release:localstringatomtable.obj
 0001:00019d80       ?Grow@?$Array@UStaticString@StringAtomTableBase@Util@@@Util@@AAEXXZ 0041ad80 f i foundation_win32.release:localstringatomtable.obj
 0001:00019e00       ?Move@?$Array@UStaticString@StringAtomTableBase@Util@@@Util@@AAEXHH@Z 0041ae00 f i foundation_win32.release:localstringatomtable.obj
 0001:00019f80       ?Destroy@?$Array@UStaticString@StringAtomTableBase@Util@@@Util@@AAEXPAUStaticString@StringAtomTableBase@2@@Z 0041af80 f i foundation_win32.release:localstringatomtable.obj
 0001:00019f90       ?GrowTo@?$Array@UStaticString@StringAtomTableBase@Util@@@Util@@AAEXH@Z 0041af90 f i foundation_win32.release:localstringatomtable.obj
 0001:0001a040       ?GetNumCpuCores@SystemInfoBase@Base@@QBEHXZ 0041b040 f i foundation_win32.release:win360criticalsection.obj
 0001:0001a060       ??0Win360CriticalSection@Win360@@QAE@XZ 0041b060 f   foundation_win32.release:win360criticalsection.obj
 0001:0001a0d0       ??1Win360CriticalSection@Win360@@QAE@XZ 0041b0d0 f   foundation_win32.release:win360criticalsection.obj
 0001:0001a100       ??2Win32ConsoleHandler@Win32@@SAPAXI@Z 0041b100 f i foundation_win32.release:win32consolehandler.obj
 0001:0001a110       ??3Win32ConsoleHandler@Win32@@SAXPAX@Z 0041b110 f i foundation_win32.release:win32consolehandler.obj
 0001:0001a130       ?HasInstance@CoreServer@Core@@SA_NXZ 0041b130 f i foundation_win32.release:win32consolehandler.obj
 0001:0001a150       ?GetRtti@Win32ConsoleHandler@Win32@@UBEPAVRtti@Core@@XZ 0041b150 f   foundation_win32.release:win32consolehandler.obj
 0001:0001a160       ?FactoryCreator@Win32ConsoleHandler@Win32@@SAPAVRefCounted@Core@@XZ 0041b160 f   foundation_win32.release:win32consolehandler.obj
 0001:0001a170       ?Create@Win32ConsoleHandler@Win32@@SAPAV12@XZ 0041b170 f   foundation_win32.release:win32consolehandler.obj
 0001:0001a1b0       ?RegisterWithFactory@Win32ConsoleHandler@Win32@@SA_NXZ 0041b1b0 f   foundation_win32.release:win32consolehandler.obj
 0001:0001a2b0       ??0Win32ConsoleHandler@Win32@@QAE@XZ 0041b2b0 f   foundation_win32.release:win32consolehandler.obj
 0001:0001a350       ??_GWin32ConsoleHandler@Win32@@UAEPAXI@Z 0041b350 f i foundation_win32.release:win32consolehandler.obj
 0001:0001a350       ??_EWin32ConsoleHandler@Win32@@UAEPAXI@Z 0041b350 f i  CIL library: CIL module
 0001:0001a380       ??1Win32ConsoleHandler@Win32@@UAE@XZ 0041b380 f i foundation_win32.release:win32consolehandler.obj
 0001:0001a3a0       ?Print@Win32ConsoleHandler@Win32@@UAEXABVString@Util@@@Z 0041b3a0 f   foundation_win32.release:win32consolehandler.obj
 0001:0001a470       ?DebugOut@Win32ConsoleHandler@Win32@@UAEXABVString@Util@@@Z 0041b470 f   foundation_win32.release:win32consolehandler.obj
 0001:0001a4b0       ?Error@Win32ConsoleHandler@Win32@@UAEXABVString@Util@@@Z 0041b4b0 f   foundation_win32.release:win32consolehandler.obj
 0001:0001a5f0       ?Warning@Win32ConsoleHandler@Win32@@UAEXABVString@Util@@@Z 0041b5f0 f   foundation_win32.release:win32consolehandler.obj
 0001:0001a640       ?Confirm@Win32ConsoleHandler@Win32@@UAEXABVString@Util@@@Z 0041b640 f   foundation_win32.release:win32consolehandler.obj
 0001:0001a6c0       ?HasInput@Win32ConsoleHandler@Win32@@UAE_NXZ 0041b6c0 f   foundation_win32.release:win32consolehandler.obj
 0001:0001a770       ?GetInput@Win32ConsoleHandler@Win32@@UAE?AVString@Util@@XZ 0041b770 f   foundation_win32.release:win32consolehandler.obj
 0001:0001a8b0       ?GetNumChunks@StringBuffer@Util@@QBEHXZ 0041b8b0 f i foundation_win32.release:globalstringatomtable.obj
 0001:0001a8d0       ??0GlobalStringAtomTable@Util@@QAE@XZ 0041b8d0 f   foundation_win32.release:globalstringatomtable.obj
 0001:0001a940       ??1GlobalStringAtomTable@Util@@QAE@XZ 0041b940 f   foundation_win32.release:globalstringatomtable.obj
 0001:0001a9e0       ?Lock@GlobalStringAtomTable@Util@@AAEXXZ 0041b9e0 f   foundation_win32.release:globalstringatomtable.obj
 0001:0001aa00       ?Unlock@GlobalStringAtomTable@Util@@AAEXXZ 0041ba00 f   foundation_win32.release:globalstringatomtable.obj
 0001:0001aa40       ?Add@GlobalStringAtomTable@Util@@AAEPBDPBD@Z 0041ba40 f   foundation_win32.release:globalstringatomtable.obj
 0001:0001aa70       ?GetDebugInfo@GlobalStringAtomTable@Util@@QBE?AUDebugInfo@12@XZ 0041ba70 f   foundation_win32.release:globalstringatomtable.obj
 0001:0001ab90       ??0DebugInfo@GlobalStringAtomTable@Util@@QAE@XZ 0041bb90 f i foundation_win32.release:globalstringatomtable.obj
 0001:0001abb0       ??1DebugInfo@GlobalStringAtomTable@Util@@QAE@XZ 0041bbb0 f i foundation_win32.release:globalstringatomtable.obj
 0001:0001abd0       ??0DebugInfo@GlobalStringAtomTable@Util@@QAE@ABU012@@Z 0041bbd0 f i foundation_win32.release:globalstringatomtable.obj
 0001:0001ac30       ??A?$Array@UStaticString@StringAtomTableBase@Util@@@Util@@QBEAAUStaticString@StringAtomTableBase@1@H@Z 0041bc30 f i foundation_win32.release:globalstringatomtable.obj
 0001:0001ac80       ?Size@?$Array@PAD@Util@@QBEHXZ 0041bc80 f i foundation_win32.release:globalstringatomtable.obj
 0001:0001aca0       ??0?$Array@PBD@Util@@QAE@ABV01@@Z 0041bca0 f i foundation_win32.release:globalstringatomtable.obj
 0001:0001acf0       ??0?$Array@PBD@Util@@QAE@XZ 0041bcf0 f i foundation_win32.release:globalstringatomtable.obj
 0001:0001ad30       ??1?$Array@PBD@Util@@QAE@XZ 0041bd30 f i foundation_win32.release:globalstringatomtable.obj
 0001:0001ad50       ?Append@?$Array@PBD@Util@@QAEXABQBD@Z 0041bd50 f i foundation_win32.release:globalstringatomtable.obj
 0001:0001adc0       ?Reserve@?$Array@PBD@Util@@QAEXH@Z 0041bdc0 f i foundation_win32.release:globalstringatomtable.obj
 0001:0001ae10       ?Copy@?$Array@PBD@Util@@AAEXABV12@@Z 0041be10 f i foundation_win32.release:globalstringatomtable.obj
 0001:0001aee0       ?Delete@?$Array@PBD@Util@@AAEXXZ 0041bee0 f i foundation_win32.release:globalstringatomtable.obj
 0001:0001af40       ?Grow@?$Array@PBD@Util@@AAEXXZ 0041bf40 f i foundation_win32.release:globalstringatomtable.obj
 0001:0001afc0       ?GrowTo@?$Array@PBD@Util@@AAEXH@Z 0041bfc0 f i foundation_win32.release:globalstringatomtable.obj
 0001:0001b070       ??0StringAtomTableBase@Util@@QAE@XZ 0041c070 f   foundation_win32.release:stringatomtablebase.obj
 0001:0001b090       ??1StringAtomTableBase@Util@@QAE@XZ 0041c090 f   foundation_win32.release:stringatomtablebase.obj
 0001:0001b0b0       ?Find@StringAtomTableBase@Util@@IBEPBDPBD@Z 0041c0b0 f   foundation_win32.release:stringatomtablebase.obj
 0001:0001b0f0       ??8StaticString@StringAtomTableBase@Util@@QBE_NABU012@@Z 0041c0f0 f   foundation_win32.release:stringatomtablebase.obj
 0001:0001b170       ??9StaticString@StringAtomTableBase@Util@@QBE_NABU012@@Z 0041c170 f   foundation_win32.release:stringatomtablebase.obj
 0001:0001b1f0       ??MStaticString@StringAtomTableBase@Util@@QBE_NABU012@@Z 0041c1f0 f   foundation_win32.release:stringatomtablebase.obj
 0001:0001b270       ??OStaticString@StringAtomTableBase@Util@@QBE_NABU012@@Z 0041c270 f   foundation_win32.release:stringatomtablebase.obj
 0001:0001b2f0       ??0?$Array@UStaticString@StringAtomTableBase@Util@@@Util@@QAE@XZ 0041c2f0 f i foundation_win32.release:stringatomtablebase.obj
 0001:0001b330       ??1?$Array@UStaticString@StringAtomTableBase@Util@@@Util@@QAE@XZ 0041c330 f i foundation_win32.release:stringatomtablebase.obj
 0001:0001b350       ?BinarySearchIndex@?$Array@UStaticString@StringAtomTableBase@Util@@@Util@@QBEHABUStaticString@StringAtomTableBase@2@@Z 0041c350 f i foundation_win32.release:stringatomtablebase.obj
 0001:0001b480       ?Delete@?$Array@UStaticString@StringAtomTableBase@Util@@@Util@@AAEXXZ 0041c480 f i foundation_win32.release:stringatomtablebase.obj
 0001:0001b4e0       ??2JobSystemBase@Base@@SAPAXI@Z 0041c4e0 f i foundation_win32.release:jobsystembase.obj
 0001:0001b4f0       ??3JobSystemBase@Base@@SAXPAX@Z 0041c4f0 f i foundation_win32.release:jobsystembase.obj
 0001:0001b510       ?GetRtti@JobSystemBase@Base@@UBEPAVRtti@Core@@XZ 0041c510 f   foundation_win32.release:jobsystembase.obj
 0001:0001b520       ?FactoryCreator@JobSystemBase@Base@@SAPAVRefCounted@Core@@XZ 0041c520 f   foundation_win32.release:jobsystembase.obj
 0001:0001b530       ?Create@JobSystemBase@Base@@SAPAV12@XZ 0041c530 f   foundation_win32.release:jobsystembase.obj
 0001:0001b570       ?RegisterWithFactory@JobSystemBase@Base@@SA_NXZ 0041c570 f   foundation_win32.release:jobsystembase.obj
 0001:0001b670       ??0JobSystemBase@Base@@QAE@XZ 0041c670 f   foundation_win32.release:jobsystembase.obj
 0001:0001b6b0       ??_GJobSystemBase@Base@@UAEPAXI@Z 0041c6b0 f i foundation_win32.release:jobsystembase.obj
 0001:0001b6b0       ??_EJobSystemBase@Base@@UAEPAXI@Z 0041c6b0 f i  CIL library: CIL module
 0001:0001b6e0       ??1JobSystemBase@Base@@UAE@XZ 0041c6e0 f   foundation_win32.release:jobsystembase.obj
 0001:0001b730       ?Setup@JobSystemBase@Base@@QAEXXZ 0041c730 f   foundation_win32.release:jobsystembase.obj
 0001:0001b770       ?Discard@JobSystemBase@Base@@QAEXXZ 0041c770 f   foundation_win32.release:jobsystembase.obj
 0001:0001b7b0       ?SetPriority@Win360Thread@Win360@@QAEXW4Priority@12@@Z 0041c7b0 f i foundation_win32.release:tpjobthreadpool.obj
 0001:0001b7d0       ??0TPJobCommand@Jobs@@QAE@XZ 0041c7d0 f i foundation_win32.release:tpjobthreadpool.obj
 0001:0001b800       ?SetupSync@TPJobCommand@Jobs@@QAEXPBVEvent@Threading@@@Z 0041c800 f i foundation_win32.release:tpjobthreadpool.obj
 0001:0001b840       ?SetupRun@TPJobCommand@Jobs@@QAEXPAVTPJobSlice@2@GG@Z 0041c840 f i foundation_win32.release:tpjobthreadpool.obj
 0001:0001b880       ?IsValid@TPJobThreadPool@Jobs@@QBE_NXZ 0041c880 f i foundation_win32.release:tpjobthreadpool.obj
 0001:0001b8a0       ??0TPJobThreadPool@Jobs@@QAE@XZ 0041c8a0 f   foundation_win32.release:tpjobthreadpool.obj
 0001:0001b930       ??1TPJobThreadPool@Jobs@@QAE@XZ 0041c930 f   foundation_win32.release:tpjobthreadpool.obj
 0001:0001b9f0       ?Setup@TPJobThreadPool@Jobs@@QAEXXZ 0041c9f0 f   foundation_win32.release:tpjobthreadpool.obj
 0001:0001bb10       ?Discard@TPJobThreadPool@Jobs@@QAEXXZ 0041cb10 f   foundation_win32.release:tpjobthreadpool.obj
 0001:0001bb90       ?PushJobSlices@TPJobThreadPool@Jobs@@QAEXPAVTPJobSlice@2@HH@Z 0041cb90 f   foundation_win32.release:tpjobthreadpool.obj
 0001:0001bd20       ?PushSync@TPJobThreadPool@Jobs@@QAEXPBVEvent@Threading@@@Z 0041cd20 f   foundation_win32.release:tpjobthreadpool.obj
 0001:0001bd90       ??0?$Ptr@VTPWorkerThread@Jobs@@@@QAE@XZ 0041cd90 f i foundation_win32.release:tpjobthreadpool.obj
 0001:0001bdb0       ??1?$Ptr@VTPWorkerThread@Jobs@@@@QAE@XZ 0041cdb0 f i foundation_win32.release:tpjobthreadpool.obj
 0001:0001bde0       ??4?$Ptr@VTPWorkerThread@Jobs@@@@QAEXPAVTPWorkerThread@Jobs@@@Z 0041cde0 f i foundation_win32.release:tpjobthreadpool.obj
 0001:0001be40       ??C?$Ptr@VTPWorkerThread@Jobs@@@@QBEPAVTPWorkerThread@Jobs@@XZ 0041ce40 f i foundation_win32.release:tpjobthreadpool.obj
 0001:0001be80       ??0?$Array@PAVTPJobSlice@Jobs@@@Util@@QAE@XZ 0041ce80 f i foundation_win32.release:tpjobthreadpool.obj
 0001:0001bec0       ??1?$Array@PAVTPJobSlice@Jobs@@@Util@@QAE@XZ 0041cec0 f i foundation_win32.release:tpjobthreadpool.obj
 0001:0001bee0       ?Delete@?$Array@PAVTPJobSlice@Jobs@@@Util@@AAEXXZ 0041cee0 f i foundation_win32.release:tpjobthreadpool.obj
 0001:0001bf40       ?Clear@String@Util@@QAEXXZ 0041cf40 f i foundation_win32.release:uri.obj
 0001:0001bf90       ?Clear@URI@IO@@QAEXXZ      0041cf90 f i foundation_win32.release:uri.obj
 0001:0001c190       ?SetScheme@URI@IO@@QAEXABVString@Util@@@Z 0041d190 f i foundation_win32.release:uri.obj
 0001:0001c1e0       ?SetUserInfo@URI@IO@@QAEXABVString@Util@@@Z 0041d1e0 f i foundation_win32.release:uri.obj
 0001:0001c230       ?SetHost@URI@IO@@QAEXABVString@Util@@@Z 0041d230 f i foundation_win32.release:uri.obj
 0001:0001c280       ?SetPort@URI@IO@@QAEXABVString@Util@@@Z 0041d280 f i foundation_win32.release:uri.obj
 0001:0001c2d0       ?SetLocalPath@URI@IO@@QAEXABVString@Util@@@Z 0041d2d0 f i foundation_win32.release:uri.obj
 0001:0001c330       ?SetFragment@URI@IO@@QAEXABVString@Util@@@Z 0041d330 f i foundation_win32.release:uri.obj
 0001:0001c390       ?SetQuery@URI@IO@@QAEXABVString@Util@@@Z 0041d390 f i foundation_win32.release:uri.obj
 0001:0001c3f0       ?Split@URI@IO@@AAE_NABVString@Util@@@Z 0041d3f0 f   foundation_win32.release:uri.obj
 0001:0001cee0       ?Build@URI@IO@@ABE?AVString@Util@@XZ 0041dee0 f   foundation_win32.release:uri.obj
 0001:0001d1d0       ?GetTail@URI@IO@@QBE?AVString@Util@@XZ 0041e1d0 f   foundation_win32.release:uri.obj
 0001:0001d340       ?GetHostAndLocalPath@URI@IO@@QBE?AVString@Util@@XZ 0041e340 f   foundation_win32.release:uri.obj
 0001:0001d460       ?AppendLocalPath@URI@IO@@QAEXABVString@Util@@@Z 0041e460 f   foundation_win32.release:uri.obj
 0001:0001d4f0       ?ParseQuery@URI@IO@@QBE?AV?$Dictionary@VString@Util@@V12@@Util@@XZ 0041e4f0 f   foundation_win32.release:uri.obj
 0001:0001d700       ??0Win360FileTime@Win360@@QAE@XZ 0041e700 f i foundation_win32.release:win360fswrapper.obj
 0001:0001d730       ?OpenFile@Win360FSWrapper@Win360@@SAPAXABVString@Util@@W4AccessMode@Stream@IO@@W4AccessPattern@67@K@Z 0041e730 f   foundation_win32.release:win360fswrapper.obj
 0001:0001d890       ?CloseFile@Win360FSWrapper@Win360@@SAXPAX@Z 0041e890 f   foundation_win32.release:win360fswrapper.obj
 0001:0001d8c0       ?Write@Win360FSWrapper@Win360@@SAXPAXPBXH@Z 0041e8c0 f   foundation_win32.release:win360fswrapper.obj
 0001:0001d950       ?Read@Win360FSWrapper@Win360@@SAHPAX0H@Z 0041e950 f   foundation_win32.release:win360fswrapper.obj
 0001:0001d9f0       ?Seek@Win360FSWrapper@Win360@@SAXPAXHW4SeekOrigin@Stream@IO@@@Z 0041e9f0 f   foundation_win32.release:win360fswrapper.obj
 0001:0001da70       ?Tell@Win360FSWrapper@Win360@@SAHPAX@Z 0041ea70 f   foundation_win32.release:win360fswrapper.obj
 0001:0001dab0       ?Flush@Win360FSWrapper@Win360@@SAXPAX@Z 0041eab0 f   foundation_win32.release:win360fswrapper.obj
 0001:0001dae0       ?Eof@Win360FSWrapper@Win360@@SA_NPAX@Z 0041eae0 f   foundation_win32.release:win360fswrapper.obj
 0001:0001db40       ?GetFileSize@Win360FSWrapper@Win360@@SAHPAX@Z 0041eb40 f   foundation_win32.release:win360fswrapper.obj
 0001:0001db70       ?SetReadOnly@Win360FSWrapper@Win360@@SAXABVString@Util@@_N@Z 0041eb70 f   foundation_win32.release:win360fswrapper.obj
 0001:0001dc40       ?IsReadOnly@Win360FSWrapper@Win360@@SA_NABVString@Util@@@Z 0041ec40 f   foundation_win32.release:win360fswrapper.obj
 0001:0001dcb0       ?DeleteFile@Win360FSWrapper@Win360@@SA_NABVString@Util@@@Z 0041ecb0 f   foundation_win32.release:win360fswrapper.obj
 0001:0001dd20       ?DeleteDirectory@Win360FSWrapper@Win360@@SA_NABVString@Util@@@Z 0041ed20 f   foundation_win32.release:win360fswrapper.obj
 0001:0001dd90       ?FileExists@Win360FSWrapper@Win360@@SA_NABVString@Util@@@Z 0041ed90 f   foundation_win32.release:win360fswrapper.obj
 0001:0001de10       ?DirectoryExists@Win360FSWrapper@Win360@@SA_NABVString@Util@@@Z 0041ee10 f   foundation_win32.release:win360fswrapper.obj
 0001:0001de90       ?SetFileWriteTime@Win360FSWrapper@Win360@@SAXABVString@Util@@VWin360FileTime@2@@Z 0041ee90 f   foundation_win32.release:win360fswrapper.obj
 0001:0001df30       ?GetFileWriteTime@Win360FSWrapper@Win360@@SA?AVWin360FileTime@2@ABVString@Util@@@Z 0041ef30 f   foundation_win32.release:win360fswrapper.obj
 0001:0001dfc0       ?CreateDirectoryA@Win360FSWrapper@Win360@@SA_NABVString@Util@@@Z 0041efc0 f   foundation_win32.release:win360fswrapper.obj
 0001:0001e030       ?ListFiles@Win360FSWrapper@Win360@@SA?AV?$Array@VString@Util@@@Util@@ABVString@4@0@Z 0041f030 f   foundation_win32.release:win360fswrapper.obj
 0001:0001e280       ?ListDirectories@Win360FSWrapper@Win360@@SA?AV?$Array@VString@Util@@@Util@@ABVString@4@0@Z 0041f280 f   foundation_win32.release:win360fswrapper.obj
 0001:0001e630       ?GetUserDirectory@Win360FSWrapper@Win360@@SA?AVString@Util@@XZ 0041f630 f   foundation_win32.release:win360fswrapper.obj
 0001:0001e760       ?GetAppDataDirectory@Win360FSWrapper@Win360@@SA?AVString@Util@@XZ 0041f760 f   foundation_win32.release:win360fswrapper.obj
 0001:0001e890       ?GetProgramsDirectory@Win360FSWrapper@Win360@@SA?AVString@Util@@XZ 0041f890 f   foundation_win32.release:win360fswrapper.obj
 0001:0001e9c0       ?GetTempDirectory@Win360FSWrapper@Win360@@SA?AVString@Util@@XZ 0041f9c0 f   foundation_win32.release:win360fswrapper.obj
 0001:0001eb50       ?GetBinDirectory@Win360FSWrapper@Win360@@SA?AVString@Util@@XZ 0041fb50 f   foundation_win32.release:win360fswrapper.obj
 0001:0001ed80       ?GetHomeDirectory@Win360FSWrapper@Win360@@SA?AVString@Util@@XZ 0041fd80 f   foundation_win32.release:win360fswrapper.obj
 0001:0001f0f0       ?IsDeviceName@Win360FSWrapper@Win360@@SA_NABVString@Util@@@Z 004200f0 f   foundation_win32.release:win360fswrapper.obj
 0001:0001f180       ??2SchemeRegistry@IO@@SAPAXI@Z 00420180 f i foundation_win32.release:schemeregistry.obj
 0001:0001f190       ??3SchemeRegistry@IO@@SAXPAX@Z 00420190 f i foundation_win32.release:schemeregistry.obj
 0001:0001f1b0       ?GetRtti@SchemeRegistry@IO@@UBEPAVRtti@Core@@XZ 004201b0 f   foundation_win32.release:schemeregistry.obj
 0001:0001f1c0       ?FactoryCreator@SchemeRegistry@IO@@SAPAVRefCounted@Core@@XZ 004201c0 f   foundation_win32.release:schemeregistry.obj
 0001:0001f1d0       ?Create@SchemeRegistry@IO@@SAPAV12@XZ 004201d0 f   foundation_win32.release:schemeregistry.obj
 0001:0001f210       ?RegisterWithFactory@SchemeRegistry@IO@@SA_NXZ 00420210 f   foundation_win32.release:schemeregistry.obj
 0001:0001f310       ??0SchemeRegistry@IO@@QAE@XZ 00420310 f   foundation_win32.release:schemeregistry.obj
 0001:0001f390       ??_ESchemeRegistry@IO@@UAEPAXI@Z 00420390 f i  CIL library: CIL module
 0001:0001f390       ??_GSchemeRegistry@IO@@UAEPAXI@Z 00420390 f i foundation_win32.release:schemeregistry.obj
 0001:0001f3c0       ??1?$Dictionary@VString@Util@@PBVRtti@Core@@@Util@@QAE@XZ 004203c0 f i foundation_win32.release:schemeregistry.obj
 0001:0001f3e0       ??1SchemeRegistry@IO@@UAE@XZ 004203e0 f   foundation_win32.release:schemeregistry.obj
 0001:0001f450       ?Setup@SchemeRegistry@IO@@QAEXXZ 00420450 f   foundation_win32.release:schemeregistry.obj
 0001:0001f4d0       ?Discard@SchemeRegistry@IO@@QAEXXZ 004204d0 f   foundation_win32.release:schemeregistry.obj
 0001:0001f550       ?IsValid@SchemeRegistry@IO@@QBE_NXZ 00420550 f   foundation_win32.release:schemeregistry.obj
 0001:0001f570       ?RegisterUriScheme@SchemeRegistry@IO@@QAEXABVString@Util@@ABVRtti@Core@@@Z 00420570 f   foundation_win32.release:schemeregistry.obj
 0001:0001f640       ?UnregisterUriScheme@SchemeRegistry@IO@@QAEXABVString@Util@@@Z 00420640 f   foundation_win32.release:schemeregistry.obj
 0001:0001f6f0       ?IsUriSchemeRegistered@SchemeRegistry@IO@@QBE_NABVString@Util@@@Z 004206f0 f   foundation_win32.release:schemeregistry.obj
 0001:0001f770       ?GetStreamClassByUriScheme@SchemeRegistry@IO@@QBEABVRtti@Core@@ABVString@Util@@@Z 00420770 f   foundation_win32.release:schemeregistry.obj
 0001:0001f800       ?GetAllRegisteredUriSchemes@SchemeRegistry@IO@@QBE?AV?$Array@VString@Util@@@Util@@XZ 00420800 f   foundation_win32.release:schemeregistry.obj
 0001:0001f870       ?SetupStandardSchemes@SchemeRegistry@IO@@AAEXXZ 00420870 f   foundation_win32.release:schemeregistry.obj
 0001:0001f9b0       ??0?$Dictionary@VString@Util@@PBVRtti@Core@@@Util@@QAE@XZ 004209b0 f i foundation_win32.release:schemeregistry.obj
 0001:0001f9d0       ??A?$Dictionary@VString@Util@@PBVRtti@Core@@@Util@@QBEABQBVRtti@Core@@ABVString@1@@Z 004209d0 f i foundation_win32.release:schemeregistry.obj
 0001:0001fa20       ?Clear@?$Dictionary@VString@Util@@PBVRtti@Core@@@Util@@QAEXXZ 00420a20 f i foundation_win32.release:schemeregistry.obj
 0001:0001fa60       ?Add@?$Dictionary@VString@Util@@PBVRtti@Core@@@Util@@QAEXABVString@2@ABQBVRtti@Core@@@Z 00420a60 f i foundation_win32.release:schemeregistry.obj
 0001:0001fab0       ?Erase@?$Dictionary@VString@Util@@PBVRtti@Core@@@Util@@QAEXABVString@2@@Z 00420ab0 f i foundation_win32.release:schemeregistry.obj
 0001:0001fb60       ?Contains@?$Dictionary@VString@Util@@PBVRtti@Core@@@Util@@QBE_NABVString@2@@Z 00420b60 f i foundation_win32.release:schemeregistry.obj
 0001:0001fbf0       ?KeysAsArray@?$Dictionary@VString@Util@@PBVRtti@Core@@@Util@@QBE?AV?$Array@VString@Util@@@2@XZ 00420bf0 f i foundation_win32.release:schemeregistry.obj
 0001:0001fc10       ?EraseIndex@?$Array@V?$KeyValuePair@VString@Util@@PBVRtti@Core@@@Util@@@Util@@QAEXH@Z 00420c10 f i foundation_win32.release:schemeregistry.obj
 0001:0001fc90       ?FindIndex@?$Dictionary@VString@Util@@PBVRtti@Core@@@Util@@QBEHABVString@2@@Z 00420c90 f i foundation_win32.release:schemeregistry.obj
 0001:0001fd10       ??$KeysAs@V?$Array@VString@Util@@@Util@@@?$Dictionary@VString@Util@@PBVRtti@Core@@@Util@@QBE?AV?$Array@VString@Util@@@1@XZ 00420d10 f i foundation_win32.release:schemeregistry.obj
 0001:0001fdb0       ?Size@?$Dictionary@VString@Util@@PBVRtti@Core@@@Util@@QBEHXZ 00420db0 f i foundation_win32.release:schemeregistry.obj
 0001:0001fdd0       ??2ArchiveFileSystem@IO@@SAPAXI@Z 00420dd0 f i foundation_win32.release:archivefilesystem.obj
 0001:0001fde0       ??3ArchiveFileSystem@IO@@SAXPAX@Z 00420de0 f i foundation_win32.release:archivefilesystem.obj
 0001:0001fe00       ?GetRtti@ArchiveFileSystem@IO@@UBEPAVRtti@Core@@XZ 00420e00 f   foundation_win32.release:archivefilesystem.obj
 0001:0001fe10       ?FactoryCreator@ArchiveFileSystem@IO@@SAPAVRefCounted@Core@@XZ 00420e10 f   foundation_win32.release:archivefilesystem.obj
 0001:0001fe20       ?Create@ArchiveFileSystem@IO@@SAPAV12@XZ 00420e20 f   foundation_win32.release:archivefilesystem.obj
 0001:0001fe60       ?RegisterWithFactory@ArchiveFileSystem@IO@@SA_NXZ 00420e60 f   foundation_win32.release:archivefilesystem.obj
 0001:0001ff60       ??0ArchiveFileSystem@IO@@QAE@XZ 00420f60 f   foundation_win32.release:archivefilesystem.obj
 0001:0001ffb0       ??_EArchiveFileSystem@IO@@UAEPAXI@Z 00420fb0 f i  CIL library: CIL module
 0001:0001ffb0       ??_GArchiveFileSystem@IO@@UAEPAXI@Z 00420fb0 f i foundation_win32.release:archivefilesystem.obj
 0001:0001ffe0       ??1ArchiveFileSystem@IO@@UAE@XZ 00420fe0 f   foundation_win32.release:archivefilesystem.obj
 0001:00020030       ?IsValid@ArchiveFileSystemBase@IO@@QBE_NXZ 00421030 f i foundation_win32.release:zipfilesystem.obj
 0001:00020050       ??2ZipFileSystem@IO@@SAPAXI@Z 00421050 f i foundation_win32.release:zipfilesystem.obj
 0001:00020060       ??3ZipFileSystem@IO@@SAXPAX@Z 00421060 f i foundation_win32.release:zipfilesystem.obj
 0001:00020080       ?GetRtti@ZipFileSystem@IO@@UBEPAVRtti@Core@@XZ 00421080 f   foundation_win32.release:zipfilesystem.obj
 0001:00020090       ?FactoryCreator@ZipFileSystem@IO@@SAPAVRefCounted@Core@@XZ 00421090 f   foundation_win32.release:zipfilesystem.obj
 0001:000200a0       ?Create@ZipFileSystem@IO@@SAPAV12@XZ 004210a0 f   foundation_win32.release:zipfilesystem.obj
 0001:000200e0       ?RegisterWithFactory@ZipFileSystem@IO@@SA_NXZ 004210e0 f   foundation_win32.release:zipfilesystem.obj
 0001:000201e0       ??0ZipFileSystem@IO@@QAE@XZ 004211e0 f   foundation_win32.release:zipfilesystem.obj
 0001:00020230       ??_GZipFileSystem@IO@@UAEPAXI@Z 00421230 f i foundation_win32.release:zipfilesystem.obj
 0001:00020230       ??_EZipFileSystem@IO@@UAEPAXI@Z 00421230 f i  CIL library: CIL module
 0001:00020260       ??1ZipFileSystem@IO@@UAE@XZ 00421260 f   foundation_win32.release:zipfilesystem.obj
 0001:000202c0       ?Setup@ZipFileSystem@IO@@QAEXXZ 004212c0 f   foundation_win32.release:zipfilesystem.obj
 0001:00020380       ?Discard@ZipFileSystem@IO@@QAEXXZ 00421380 f   foundation_win32.release:zipfilesystem.obj
 0001:00020440       ?FindArchiveWithFile@ZipFileSystem@IO@@UBE?AV?$Ptr@VArchive@IO@@@@ABVURI@2@@Z 00421440 f   foundation_win32.release:zipfilesystem.obj
 0001:00020660       ?FindArchiveWithDir@ZipFileSystem@IO@@UBE?AV?$Ptr@VArchive@IO@@@@ABVURI@2@@Z 00421660 f   foundation_win32.release:zipfilesystem.obj
 0001:00020880       ?Size@?$Dictionary@VString@Util@@V?$Ptr@VArchive@IO@@@@@Util@@QBEHXZ 00421880 f i foundation_win32.release:zipfilesystem.obj
 0001:000208a0       ?ValueAtIndex@?$Dictionary@VString@Util@@V?$Ptr@VArchive@IO@@@@@Util@@QBEABV?$Ptr@VArchive@IO@@@@H@Z 004218a0 f i foundation_win32.release:zipfilesystem.obj
 0001:000208f0       ??0?$Ptr@VArchive@IO@@@@QAE@ABV0@@Z 004218f0 f i foundation_win32.release:zipfilesystem.obj
 0001:00020930       ??0?$Ptr@VZipArchive@IO@@@@QAE@XZ 00421930 f i foundation_win32.release:zipfilesystem.obj
 0001:00020950       ??1?$Ptr@VZipArchive@IO@@@@QAE@XZ 00421950 f i foundation_win32.release:zipfilesystem.obj
 0001:00020980       ??4?$Ptr@VZipArchive@IO@@@@QAEXABV0@@Z 00421980 f i foundation_win32.release:zipfilesystem.obj
 0001:000209e0       ??C?$Ptr@VZipArchive@IO@@@@QBEPAVZipArchive@IO@@XZ 004219e0 f i foundation_win32.release:zipfilesystem.obj
 0001:00020a20       ?isvalid@?$Ptr@VZipArchive@IO@@@@QBE_NXZ 00421a20 f i foundation_win32.release:zipfilesystem.obj
 0001:00020a40       ??$cast@VZipArchive@IO@@@?$Ptr@VArchive@IO@@@@QBEABV?$Ptr@VZipArchive@IO@@@@XZ 00421a40 f i foundation_win32.release:zipfilesystem.obj
 0001:00020a50       ??$cast@VArchive@IO@@@?$Ptr@VZipArchive@IO@@@@QBEABV?$Ptr@VArchive@IO@@@@XZ 00421a50 f i foundation_win32.release:zipfilesystem.obj
 0001:00020a60       ??A?$Array@V?$KeyValuePair@VString@Util@@V?$Ptr@VArchive@IO@@@@@Util@@@Util@@QBEAAV?$KeyValuePair@VString@Util@@V?$Ptr@VArchive@IO@@@@@1@H@Z 00421a60 f i foundation_win32.release:zipfilesystem.obj
 0001:00020ab0       ?Size@?$Array@V?$KeyValuePair@VString@Util@@V?$Ptr@VArchive@IO@@@@@Util@@@Util@@QBEHXZ 00421ab0 f i foundation_win32.release:zipfilesystem.obj
 0001:00020ad0       ?Value@?$KeyValuePair@VString@Util@@V?$Ptr@VArchive@IO@@@@@Util@@QAEAAV?$Ptr@VArchive@IO@@@@XZ 00421ad0 f i foundation_win32.release:zipfilesystem.obj
 0001:00020af0       ??2ArchiveFileSystemBase@IO@@SAPAXI@Z 00421af0 f i foundation_win32.release:archivefilesystembase.obj
 0001:00020b00       ??3ArchiveFileSystemBase@IO@@SAXPAX@Z 00421b00 f i foundation_win32.release:archivefilesystembase.obj
 0001:00020b20       ?GetURI@ArchiveBase@IO@@QBEABVURI@2@XZ 00421b20 f i foundation_win32.release:archivefilesystembase.obj
 0001:00020b40       ?GetRtti@ArchiveFileSystemBase@IO@@UBEPAVRtti@Core@@XZ 00421b40 f   foundation_win32.release:archivefilesystembase.obj
 0001:00020b50       ?FactoryCreator@ArchiveFileSystemBase@IO@@SAPAVRefCounted@Core@@XZ 00421b50 f   foundation_win32.release:archivefilesystembase.obj
 0001:00020b60       ?Create@ArchiveFileSystemBase@IO@@SAPAV12@XZ 00421b60 f   foundation_win32.release:archivefilesystembase.obj
 0001:00020ba0       ?RegisterWithFactory@ArchiveFileSystemBase@IO@@SA_NXZ 00421ba0 f   foundation_win32.release:archivefilesystembase.obj
 0001:00020ca0       ??0ArchiveFileSystemBase@IO@@QAE@XZ 00421ca0 f   foundation_win32.release:archivefilesystembase.obj
 0001:00020d20       ??_EArchiveFileSystemBase@IO@@UAEPAXI@Z 00421d20 f i  CIL library: CIL module
 0001:00020d20       ??_GArchiveFileSystemBase@IO@@UAEPAXI@Z 00421d20 f i foundation_win32.release:archivefilesystembase.obj
 0001:00020d50       ??1?$Dictionary@VString@Util@@V?$Ptr@VArchive@IO@@@@@Util@@QAE@XZ 00421d50 f i foundation_win32.release:archivefilesystembase.obj
 0001:00020d70       ??1ArchiveFileSystemBase@IO@@UAE@XZ 00421d70 f   foundation_win32.release:archivefilesystembase.obj
 0001:00020df0       ?Setup@ArchiveFileSystemBase@IO@@QAEXXZ 00421df0 f   foundation_win32.release:archivefilesystembase.obj
 0001:00020e30       ?Discard@ArchiveFileSystemBase@IO@@QAEXXZ 00421e30 f   foundation_win32.release:archivefilesystembase.obj
 0001:00020ea0       ?Mount@ArchiveFileSystemBase@IO@@UAE?AV?$Ptr@VArchive@IO@@@@ABVURI@2@@Z 00421ea0 f   foundation_win32.release:archivefilesystembase.obj
 0001:00021050       ?Unmount@ArchiveFileSystemBase@IO@@UAEXABV?$Ptr@VArchive@IO@@@@@Z 00422050 f   foundation_win32.release:archivefilesystembase.obj
 0001:000211e0       ?Unmount@ArchiveFileSystemBase@IO@@UAEXABVURI@2@@Z 004221e0 f   foundation_win32.release:archivefilesystembase.obj
 0001:00021370       ?GetMountedArchives@ArchiveFileSystemBase@IO@@QBE?AV?$Array@V?$Ptr@VArchive@IO@@@@@Util@@XZ 00422370 f   foundation_win32.release:archivefilesystembase.obj
 0001:000213e0       ?FindArchive@ArchiveFileSystemBase@IO@@QBE?AV?$Ptr@VArchive@IO@@@@ABVURI@2@@Z 004223e0 f   foundation_win32.release:archivefilesystembase.obj
 0001:00021550       ?IsMounted@ArchiveFileSystemBase@IO@@QBE_NABVURI@2@@Z 00422550 f   foundation_win32.release:archivefilesystembase.obj
 0001:00021690       ?FindArchiveWithFile@ArchiveFileSystemBase@IO@@UBE?AV?$Ptr@VArchive@IO@@@@ABVURI@2@@Z 00422690 f   foundation_win32.release:archivefilesystembase.obj
 0001:000216b0       ?FindArchiveWithDir@ArchiveFileSystemBase@IO@@UBE?AV?$Ptr@VArchive@IO@@@@ABVURI@2@@Z 004226b0 f   foundation_win32.release:archivefilesystembase.obj
 0001:000216d0       ?ConvertFileToArchiveURIIfExists@ArchiveFileSystemBase@IO@@QBE?AVURI@2@ABV32@@Z 004226d0 f   foundation_win32.release:archivefilesystembase.obj
 0001:00021760       ?ConvertDirToArchiveURIIfExists@ArchiveFileSystemBase@IO@@QBE?AVURI@2@ABV32@@Z 00422760 f   foundation_win32.release:archivefilesystembase.obj
 0001:000217f0       ??1?$Array@V?$KeyValuePair@VString@Util@@V?$Ptr@VArchive@IO@@@@@Util@@@Util@@QAE@XZ 004227f0 f i foundation_win32.release:archivefilesystembase.obj
 0001:00021810       ??0?$Dictionary@VString@Util@@V?$Ptr@VArchive@IO@@@@@Util@@QAE@XZ 00422810 f i foundation_win32.release:archivefilesystembase.obj
 0001:00021830       ??A?$Dictionary@VString@Util@@V?$Ptr@VArchive@IO@@@@@Util@@QAEAAV?$Ptr@VArchive@IO@@@@ABVString@1@@Z 00422830 f i foundation_win32.release:archivefilesystembase.obj
 0001:00021880       ?IsEmpty@?$Dictionary@VString@Util@@V?$Ptr@VArchive@IO@@@@@Util@@QBE_NXZ 00422880 f i foundation_win32.release:archivefilesystembase.obj
 0001:000218a0       ?Add@?$Dictionary@VString@Util@@V?$Ptr@VArchive@IO@@@@@Util@@QAEXABVString@2@ABV?$Ptr@VArchive@IO@@@@@Z 004228a0 f i foundation_win32.release:archivefilesystembase.obj
 0001:00021900       ?Erase@?$Dictionary@VString@Util@@V?$Ptr@VArchive@IO@@@@@Util@@QAEXABVString@2@@Z 00422900 f i foundation_win32.release:archivefilesystembase.obj
 0001:00021980       ?FindIndex@?$Dictionary@VString@Util@@V?$Ptr@VArchive@IO@@@@@Util@@QBEHABVString@2@@Z 00422980 f i foundation_win32.release:archivefilesystembase.obj
 0001:000219e0       ?Contains@?$Dictionary@VString@Util@@V?$Ptr@VArchive@IO@@@@@Util@@QBE_NABVString@2@@Z 004229e0 f i foundation_win32.release:archivefilesystembase.obj
 0001:00021a40       ?ValueAtIndex@?$Dictionary@VString@Util@@V?$Ptr@VArchive@IO@@@@@Util@@QAEAAV?$Ptr@VArchive@IO@@@@H@Z 00422a40 f i foundation_win32.release:archivefilesystembase.obj
 0001:00021a90       ?ValuesAsArray@?$Dictionary@VString@Util@@V?$Ptr@VArchive@IO@@@@@Util@@QBE?AV?$Array@V?$Ptr@VArchive@IO@@@@@2@XZ 00422a90 f i foundation_win32.release:archivefilesystembase.obj
 0001:00021ab0       ??0?$Ptr@VArchive@IO@@@@QAE@PAVArchive@IO@@@Z 00422ab0 f i foundation_win32.release:archivefilesystembase.obj
 0001:00021af0       ??0?$Ptr@VArchive@IO@@@@QAE@XZ 00422af0 f i foundation_win32.release:archivefilesystembase.obj
 0001:00021b10       ??4?$Ptr@VArchive@IO@@@@QAEXPAVArchive@IO@@@Z 00422b10 f i foundation_win32.release:archivefilesystembase.obj
 0001:00021b70       ??4?$Ptr@VArchive@IO@@@@QAEXABV0@@Z 00422b70 f i foundation_win32.release:archivefilesystembase.obj
 0001:00021bd0       ??0?$Array@V?$Ptr@VArchive@IO@@@@@Util@@QAE@ABV01@@Z 00422bd0 f i foundation_win32.release:archivefilesystembase.obj
 0001:00021c20       ??1?$Array@V?$Ptr@VArchive@IO@@@@@Util@@QAE@XZ 00422c20 f i foundation_win32.release:archivefilesystembase.obj
 0001:00021c40       ??1?$KeyValuePair@VString@Util@@V?$Ptr@VArchive@IO@@@@@Util@@QAE@XZ 00422c40 f i foundation_win32.release:archivefilesystembase.obj
 0001:00021ca0       ??0?$Array@V?$KeyValuePair@VString@Util@@V?$Ptr@VArchive@IO@@@@@Util@@@Util@@QAE@XZ 00422ca0 f i foundation_win32.release:archivefilesystembase.obj
 0001:00021ce0       ?Append@?$Array@V?$KeyValuePair@VString@Util@@V?$Ptr@VArchive@IO@@@@@Util@@@Util@@QAEXABV?$KeyValuePair@VString@Util@@V?$Ptr@VArchive@IO@@@@@2@@Z 00422ce0 f i foundation_win32.release:archivefilesystembase.obj
 0001:00021d60       ?EraseIndex@?$Array@V?$KeyValuePair@VString@Util@@V?$Ptr@VArchive@IO@@@@@Util@@@Util@@QAEXH@Z 00422d60 f i foundation_win32.release:archivefilesystembase.obj
 0001:00021de0       ?InsertSorted@?$Array@V?$KeyValuePair@VString@Util@@V?$Ptr@VArchive@IO@@@@@Util@@@Util@@QAEHABV?$KeyValuePair@VString@Util@@V?$Ptr@VArchive@IO@@@@@2@@Z 00422de0 f i foundation_win32.release:archivefilesystembase.obj
 0001:00022050       ?BinarySearchIndex@?$Array@V?$KeyValuePair@VString@Util@@V?$Ptr@VArchive@IO@@@@@Util@@@Util@@QBEHABV?$KeyValuePair@VString@Util@@V?$Ptr@VArchive@IO@@@@@2@@Z 00423050 f i foundation_win32.release:archivefilesystembase.obj
 0001:00022180       ?Delete@?$Array@V?$KeyValuePair@VString@Util@@V?$Ptr@VArchive@IO@@@@@Util@@@Util@@AAEXXZ 00423180 f i foundation_win32.release:archivefilesystembase.obj
 0001:000221f0       ??0?$KeyValuePair@VString@Util@@V?$Ptr@VArchive@IO@@@@@Util@@QAE@ABVString@1@@Z 004231f0 f i foundation_win32.release:archivefilesystembase.obj
 0001:00022260       ??0?$KeyValuePair@VString@Util@@V?$Ptr@VArchive@IO@@@@@Util@@QAE@ABVString@1@ABV?$Ptr@VArchive@IO@@@@@Z 00423260 f i foundation_win32.release:archivefilesystembase.obj
 0001:000222d0       ??$ValuesAs@V?$Array@V?$Ptr@VArchive@IO@@@@@Util@@@?$Dictionary@VString@Util@@V?$Ptr@VArchive@IO@@@@@Util@@QBE?AV?$Array@V?$Ptr@VArchive@IO@@@@@1@XZ 004232d0 f i foundation_win32.release:archivefilesystembase.obj
 0001:00022370       ?Copy@?$Array@V?$Ptr@VArchive@IO@@@@@Util@@AAEXABV12@@Z 00423370 f i foundation_win32.release:archivefilesystembase.obj
 0001:000224a0       ?Delete@?$Array@V?$Ptr@VArchive@IO@@@@@Util@@AAEXXZ 004234a0 f i foundation_win32.release:archivefilesystembase.obj
 0001:00022510       ??_E?$KeyValuePair@VString@Util@@V?$Ptr@VArchive@IO@@@@@Util@@QAEPAXI@Z 00423510 f i foundation_win32.release:archivefilesystembase.obj
 0001:000225b0       ??_E?$Ptr@VArchive@IO@@@@QAEPAXI@Z 004235b0 f i foundation_win32.release:archivefilesystembase.obj
 0001:00022650       ?Insert@?$Array@V?$KeyValuePair@VString@Util@@V?$Ptr@VArchive@IO@@@@@Util@@@Util@@QAEXHABV?$KeyValuePair@VString@Util@@V?$Ptr@VArchive@IO@@@@@2@@Z 00423650 f i foundation_win32.release:archivefilesystembase.obj
 0001:000226c0       ?InsertAtEndOfIdenticalRange@?$Array@V?$KeyValuePair@VString@Util@@V?$Ptr@VArchive@IO@@@@@Util@@@Util@@QAEHHABV?$KeyValuePair@VString@Util@@V?$Ptr@VArchive@IO@@@@@2@@Z 004236c0 f i foundation_win32.release:archivefilesystembase.obj
 0001:00022740       ?Destroy@?$Array@V?$KeyValuePair@VString@Util@@V?$Ptr@VArchive@IO@@@@@Util@@@Util@@AAEXPAV?$KeyValuePair@VString@Util@@V?$Ptr@VArchive@IO@@@@@2@@Z 00423740 f i foundation_win32.release:archivefilesystembase.obj
 0001:00022770       ?Grow@?$Array@V?$KeyValuePair@VString@Util@@V?$Ptr@VArchive@IO@@@@@Util@@@Util@@AAEXXZ 00423770 f i foundation_win32.release:archivefilesystembase.obj
 0001:000227f0       ?Move@?$Array@V?$KeyValuePair@VString@Util@@V?$Ptr@VArchive@IO@@@@@Util@@@Util@@AAEXHH@Z 004237f0 f i foundation_win32.release:archivefilesystembase.obj
 0001:00022980       ??4?$KeyValuePair@VString@Util@@V?$Ptr@VArchive@IO@@@@@Util@@QAEXABV01@@Z 00423980 f i foundation_win32.release:archivefilesystembase.obj
 0001:000229e0       ??9?$KeyValuePair@VString@Util@@V?$Ptr@VArchive@IO@@@@@Util@@QBE_NABV01@@Z 004239e0 f i foundation_win32.release:archivefilesystembase.obj
 0001:00022a00       ??O?$KeyValuePair@VString@Util@@V?$Ptr@VArchive@IO@@@@@Util@@QBE_NABV01@@Z 00423a00 f i foundation_win32.release:archivefilesystembase.obj
 0001:00022a20       ??M?$KeyValuePair@VString@Util@@V?$Ptr@VArchive@IO@@@@@Util@@QBE_NABV01@@Z 00423a20 f i foundation_win32.release:archivefilesystembase.obj
 0001:00022a40       ??0?$Array@V?$Ptr@VArchive@IO@@@@@Util@@QAE@HH@Z 00423a40 f i foundation_win32.release:archivefilesystembase.obj
 0001:00022b30       ?Append@?$Array@V?$Ptr@VArchive@IO@@@@@Util@@QAEXABV?$Ptr@VArchive@IO@@@@@Z 00423b30 f i foundation_win32.release:archivefilesystembase.obj
 0001:00022bb0       ??_G?$KeyValuePair@VString@Util@@V?$Ptr@VArchive@IO@@@@@Util@@QAEPAXI@Z 00423bb0 f i foundation_win32.release:archivefilesystembase.obj
 0001:00022be0       ?GrowTo@?$Array@V?$KeyValuePair@VString@Util@@V?$Ptr@VArchive@IO@@@@@Util@@@Util@@AAEXH@Z 00423be0 f i foundation_win32.release:archivefilesystembase.obj
 0001:00022d00       ?Grow@?$Array@V?$Ptr@VArchive@IO@@@@@Util@@AAEXXZ 00423d00 f i foundation_win32.release:archivefilesystembase.obj
 0001:00022d80       ??0?$KeyValuePair@VString@Util@@V?$Ptr@VArchive@IO@@@@@Util@@QAE@XZ 00423d80 f i foundation_win32.release:archivefilesystembase.obj
 0001:00022dc0       ?GrowTo@?$Array@V?$Ptr@VArchive@IO@@@@@Util@@AAEXH@Z 00423dc0 f i foundation_win32.release:archivefilesystembase.obj
 0001:00022ee0       ??0MediaType@IO@@QAE@XZ    00423ee0 f i foundation_win32.release:stream.obj
 0001:00022f50       ??4MediaType@IO@@QAEXABV01@@Z 00423f50 f i foundation_win32.release:stream.obj
 0001:00022fe0       ??2Stream@IO@@SAPAXI@Z     00423fe0 f i foundation_win32.release:stream.obj
 0001:00022ff0       ??3Stream@IO@@SAXPAX@Z     00423ff0 f i foundation_win32.release:stream.obj
 0001:00023010       ?GetRtti@Stream@IO@@UBEPAVRtti@Core@@XZ 00424010 f   foundation_win32.release:stream.obj
 0001:00023020       ?FactoryCreator@Stream@IO@@SAPAVRefCounted@Core@@XZ 00424020 f   foundation_win32.release:stream.obj
 0001:00023030       ?Create@Stream@IO@@SAPAV12@XZ 00424030 f   foundation_win32.release:stream.obj
 0001:00023070       ?RegisterWithFactory@Stream@IO@@SA_NXZ 00424070 f   foundation_win32.release:stream.obj
 0001:00023170       ??0Stream@IO@@QAE@XZ       00424170 f   foundation_win32.release:stream.obj
 0001:000231f0       ??_GStream@IO@@UAEPAXI@Z   004241f0 f i foundation_win32.release:stream.obj
 0001:000231f0       ??_EStream@IO@@UAEPAXI@Z   004241f0 f i  CIL library: CIL module
 0001:00023220       ??1MediaType@IO@@QAE@XZ    00424220 f i foundation_win32.release:stream.obj
 0001:000232b0       ??1Stream@IO@@UAE@XZ       004242b0 f   foundation_win32.release:stream.obj
 0001:00023330       ?SetURI@Stream@IO@@QAEXABVURI@2@@Z 00424330 f   foundation_win32.release:stream.obj
 0001:00023380       ?GetURI@Stream@IO@@QBEABVURI@2@XZ 00424380 f   foundation_win32.release:stream.obj
 0001:000233a0       ?CanRead@Stream@IO@@UBE_NXZ 004243a0 f   foundation_win32.release:stream.obj
 0001:000233b0       ?CanWrite@Stream@IO@@UBE_NXZ 004243b0 f   foundation_win32.release:stream.obj
 0001:000233c0       ?CanSeek@Stream@IO@@UBE_NXZ 004243c0 f   foundation_win32.release:stream.obj
 0001:000233d0       ?CanBeMapped@Stream@IO@@UBE_NXZ 004243d0 f   foundation_win32.release:stream.obj
 0001:000233e0       ?SetSize@Stream@IO@@UAEXH@Z 004243e0 f   foundation_win32.release:stream.obj
 0001:00023410       ?GetSize@Stream@IO@@UBEHXZ 00424410 f   foundation_win32.release:stream.obj
 0001:00023420       ?GetPosition@Stream@IO@@UBEHXZ 00424420 f   foundation_win32.release:stream.obj
 0001:00023430       ?SetAccessMode@Stream@IO@@QAEXW4AccessMode@12@@Z 00424430 f   foundation_win32.release:stream.obj
 0001:00023470       ?GetAccessMode@Stream@IO@@QBE?AW4AccessMode@12@XZ 00424470 f   foundation_win32.release:stream.obj
 0001:00023490       ?SetAccessPattern@Stream@IO@@QAEXW4AccessPattern@12@@Z 00424490 f   foundation_win32.release:stream.obj
 0001:000234d0       ?GetAccessPattern@Stream@IO@@QBE?AW4AccessPattern@12@XZ 004244d0 f   foundation_win32.release:stream.obj
 0001:000234f0       ?SetMediaType@Stream@IO@@QAEXABVMediaType@2@@Z 004244f0 f   foundation_win32.release:stream.obj
 0001:00023520       ?GetMediaType@Stream@IO@@QBEABVMediaType@2@XZ 00424520 f   foundation_win32.release:stream.obj
 0001:00023540       ?Open@Stream@IO@@UAE_NXZ   00424540 f   foundation_win32.release:stream.obj
 0001:00023580       ?Close@Stream@IO@@UAEXXZ   00424580 f   foundation_win32.release:stream.obj
 0001:000235c0       ?IsOpen@Stream@IO@@QBE_NXZ 004245c0 f   foundation_win32.release:stream.obj
 0001:000235e0       ?Write@Stream@IO@@UAEXPBXH@Z 004245e0 f   foundation_win32.release:stream.obj
 0001:00023640       ?Read@Stream@IO@@UAEHPAXH@Z 00424640 f   foundation_win32.release:stream.obj
 0001:000236a0       ?Seek@Stream@IO@@UAEXHW4SeekOrigin@12@@Z 004246a0 f   foundation_win32.release:stream.obj
 0001:00023700       ?Flush@Stream@IO@@UAEXXZ   00424700 f   foundation_win32.release:stream.obj
 0001:00023760       ?Eof@Stream@IO@@UBE_NXZ    00424760 f   foundation_win32.release:stream.obj
 0001:000237c0       ?Map@Stream@IO@@UAEPAXXZ   004247c0 f   foundation_win32.release:stream.obj
 0001:00023850       ?Unmap@Stream@IO@@UAEXXZ   00424850 f   foundation_win32.release:stream.obj
 0001:000238e0       ?IsMapped@Stream@IO@@QBE_NXZ 004248e0 f   foundation_win32.release:stream.obj
 0001:00023900       ??0SystemInfoBase@Base@@QAE@XZ 00424900 f   foundation_win32.release:systeminfobase.obj
 0001:00023940       ?PlatformAsString@SystemInfoBase@Base@@SA?AVString@Util@@W4Platform@12@@Z 00424940 f   foundation_win32.release:systeminfobase.obj
 0001:00023a90       ?CpuTypeAsString@SystemInfoBase@Base@@SA?AVString@Util@@W4CpuType@12@@Z 00424a90 f   foundation_win32.release:systeminfobase.obj
 0001:00023c20       ??0Win32SystemInfo@Win32@@QAE@XZ 00424c20 f   foundation_win32.release:win32systeminfo.obj
 0001:00023ca0       ??0Crc@Util@@QAE@XZ        00424ca0 f   foundation_win32.release:crc.obj
 0001:00023d60       ?Begin@Crc@Util@@QAEXXZ    00424d60 f   foundation_win32.release:crc.obj
 0001:00023da0       ?Compute@Crc@Util@@QAEXPAEI@Z 00424da0 f   foundation_win32.release:crc.obj
 0001:00023e20       ?End@Crc@Util@@QAEXXZ      00424e20 f   foundation_win32.release:crc.obj
 0001:00023e60       ?GetResult@Crc@Util@@QBEIXZ 00424e60 f   foundation_win32.release:crc.obj
 0001:00023eb0       ?IsValid@ArchiveBase@IO@@QBE_NXZ 00424eb0 f i foundation_win32.release:ziparchive.obj
 0001:00023ed0       ??0StringAtom@Util@@QAE@ABVString@1@@Z 00424ed0 f i foundation_win32.release:ziparchive.obj
 0001:00023f10       ?GetName@ZipFileEntry@IO@@QBEABVStringAtom@Util@@XZ 00424f10 f i foundation_win32.release:ziparchive.obj
 0001:00023f30       ?GetName@ZipDirEntry@IO@@QBEABVStringAtom@Util@@XZ 00424f30 f i foundation_win32.release:ziparchive.obj
 0001:00023f40       ?GetDirEntries@ZipDirEntry@IO@@QBEABV?$Array@VZipDirEntry@IO@@@Util@@XZ 00424f40 f i foundation_win32.release:ziparchive.obj
 0001:00023f60       ?GetFileEntries@ZipDirEntry@IO@@QBEABV?$Array@VZipFileEntry@IO@@@Util@@XZ 00424f60 f i foundation_win32.release:ziparchive.obj
 0001:00023f80       ??2ZipArchive@IO@@SAPAXI@Z 00424f80 f i foundation_win32.release:ziparchive.obj
 0001:00023f90       ??3ZipArchive@IO@@SAXPAX@Z 00424f90 f i foundation_win32.release:ziparchive.obj
 0001:00023fb0       ?GetRtti@ZipArchive@IO@@UBEPAVRtti@Core@@XZ 00424fb0 f   foundation_win32.release:ziparchive.obj
 0001:00023fc0       ?FactoryCreator@ZipArchive@IO@@SAPAVRefCounted@Core@@XZ 00424fc0 f   foundation_win32.release:ziparchive.obj
 0001:00023fd0       ?Create@ZipArchive@IO@@SAPAV12@XZ 00424fd0 f   foundation_win32.release:ziparchive.obj
 0001:00024010       ?RegisterWithFactory@ZipArchive@IO@@SA_NXZ 00425010 f   foundation_win32.release:ziparchive.obj
 0001:00024110       ??0ZipArchive@IO@@QAE@XZ   00425110 f   foundation_win32.release:ziparchive.obj
 0001:00024190       ??_GZipArchive@IO@@UAEPAXI@Z 00425190 f i foundation_win32.release:ziparchive.obj
 0001:00024190       ??_EZipArchive@IO@@UAEPAXI@Z 00425190 f i  CIL library: CIL module
 0001:000241c0       ??1ZipDirEntry@IO@@QAE@XZ  004251c0 f i foundation_win32.release:ziparchive.obj
 0001:00024200       ??1?$Dictionary@VStringAtom@Util@@H@Util@@QAE@XZ 00425200 f i foundation_win32.release:ziparchive.obj
 0001:00024220       ??1ZipArchive@IO@@UAE@XZ   00425220 f   foundation_win32.release:ziparchive.obj
 0001:000242c0       ?Setup@ZipArchive@IO@@QAE_NABVURI@2@@Z 004252c0 f   foundation_win32.release:ziparchive.obj
 0001:00024540       ?Discard@ZipArchive@IO@@QAEXXZ 00425540 f   foundation_win32.release:ziparchive.obj
 0001:000245a0       ?ParseTableOfContents@ZipArchive@IO@@AAEXXZ 004255a0 f   foundation_win32.release:ziparchive.obj
 0001:000247a0       ?AddEntry@ZipArchive@IO@@AAEXABVString@Util@@@Z 004257a0 f   foundation_win32.release:ziparchive.obj
 0001:000249e0       ?ConvertToPathInArchive@ZipArchive@IO@@QBE?AVString@Util@@ABV34@@Z 004259e0 f   foundation_win32.release:ziparchive.obj
 0001:00024b10       ?FindFileEntry@ZipArchive@IO@@ABEPBVZipFileEntry@2@ABVString@Util@@@Z 00425b10 f   foundation_win32.release:ziparchive.obj
 0001:00024cc0       ?FindFileEntry@ZipArchive@IO@@AAEPAVZipFileEntry@2@ABVString@Util@@@Z 00425cc0 f   foundation_win32.release:ziparchive.obj
 0001:00024cf0       ?FindDirEntry@ZipArchive@IO@@ABEPBVZipDirEntry@2@ABVString@Util@@@Z 00425cf0 f   foundation_win32.release:ziparchive.obj
 0001:00024e40       ?ListFiles@ZipArchive@IO@@QBE?AV?$Array@VString@Util@@@Util@@ABVString@4@0@Z 00425e40 f   foundation_win32.release:ziparchive.obj
 0001:00024f20       ?ListDirectories@ZipArchive@IO@@QBE?AV?$Array@VString@Util@@@Util@@ABVString@4@0@Z 00425f20 f   foundation_win32.release:ziparchive.obj
 0001:00025000       ?ConvertToArchiveURI@ZipArchive@IO@@QBE?AVURI@2@ABV32@@Z 00426000 f   foundation_win32.release:ziparchive.obj
 0001:00025330       ??1?$Array@VZipFileEntry@IO@@@Util@@QAE@XZ 00426330 f i foundation_win32.release:ziparchive.obj
 0001:00025350       ??A?$Array@VZipFileEntry@IO@@@Util@@QBEAAVZipFileEntry@IO@@H@Z 00426350 f i foundation_win32.release:ziparchive.obj
 0001:000253a0       ?Size@?$Array@VZipFileEntry@IO@@@Util@@QBEHXZ 004263a0 f i foundation_win32.release:ziparchive.obj
 0001:000253c0       ??1?$Array@VZipDirEntry@IO@@@Util@@QAE@XZ 004263c0 f i foundation_win32.release:ziparchive.obj
 0001:000253e0       ??A?$Array@VZipDirEntry@IO@@@Util@@QBEAAVZipDirEntry@IO@@H@Z 004263e0 f i foundation_win32.release:ziparchive.obj
 0001:00025430       ?Size@?$Array@VZipDirEntry@IO@@@Util@@QBEHXZ 00426430 f i foundation_win32.release:ziparchive.obj
 0001:00025450       ??1?$Array@V?$KeyValuePair@VStringAtom@Util@@H@Util@@@Util@@QAE@XZ 00426450 f i foundation_win32.release:ziparchive.obj
 0001:00025470       ?Delete@?$Array@VZipFileEntry@IO@@@Util@@AAEXXZ 00426470 f i foundation_win32.release:ziparchive.obj
 0001:000254e0       ?Delete@?$Array@VZipDirEntry@IO@@@Util@@AAEXXZ 004264e0 f i foundation_win32.release:ziparchive.obj
 0001:00025550       ?Delete@?$Array@V?$KeyValuePair@VStringAtom@Util@@H@Util@@@Util@@AAEXXZ 00426550 f i foundation_win32.release:ziparchive.obj
 0001:000255b0       ??_EZipFileEntry@IO@@QAEPAXI@Z 004265b0 f i foundation_win32.release:ziparchive.obj
 0001:00025650       ??_EZipDirEntry@IO@@QAEPAXI@Z 00426650 f i foundation_win32.release:ziparchive.obj
 0001:000256f0       ??2ConsoleHandler@IO@@SAPAXI@Z 004266f0 f i foundation_win32.release:consolehandler.obj
 0001:00025700       ??3ConsoleHandler@IO@@SAXPAX@Z 00426700 f i foundation_win32.release:consolehandler.obj
 0001:00025720       ?GetRtti@ConsoleHandler@IO@@UBEPAVRtti@Core@@XZ 00426720 f   foundation_win32.release:consolehandler.obj
 0001:00025730       ?FactoryCreator@ConsoleHandler@IO@@SAPAVRefCounted@Core@@XZ 00426730 f   foundation_win32.release:consolehandler.obj
 0001:00025740       ?Create@ConsoleHandler@IO@@SAPAV12@XZ 00426740 f   foundation_win32.release:consolehandler.obj
 0001:00025780       ?RegisterWithFactory@ConsoleHandler@IO@@SA_NXZ 00426780 f   foundation_win32.release:consolehandler.obj
 0001:00025880       ??0ConsoleHandler@IO@@QAE@XZ 00426880 f   foundation_win32.release:consolehandler.obj
 0001:000258c0       ??_GConsoleHandler@IO@@UAEPAXI@Z 004268c0 f i foundation_win32.release:consolehandler.obj
 0001:000258c0       ??_EConsoleHandler@IO@@UAEPAXI@Z 004268c0 f i  CIL library: CIL module
 0001:000258f0       ??1ConsoleHandler@IO@@UAE@XZ 004268f0 f   foundation_win32.release:consolehandler.obj
 0001:00025930       ?Open@ConsoleHandler@IO@@UAEXXZ 00426930 f   foundation_win32.release:consolehandler.obj
 0001:00025970       ?Close@ConsoleHandler@IO@@UAEXXZ 00426970 f   foundation_win32.release:consolehandler.obj
 0001:000259b0       ?Update@ConsoleHandler@IO@@UAEXXZ 004269b0 f   foundation_win32.release:consolehandler.obj
 0001:000259f0       ?Print@ConsoleHandler@IO@@UAEXABVString@Util@@@Z 004269f0 f   foundation_win32.release:consolehandler.obj
 0001:00025a00       ?Error@ConsoleHandler@IO@@UAEXABVString@Util@@@Z 00426a00 f   foundation_win32.release:consolehandler.obj
 0001:00025a10       ?Warning@ConsoleHandler@IO@@UAEXABVString@Util@@@Z 00426a10 f   foundation_win32.release:consolehandler.obj
 0001:00025a20       ?Confirm@ConsoleHandler@IO@@UAEXABVString@Util@@@Z 00426a20 f   foundation_win32.release:consolehandler.obj
 0001:00025a30       ?DebugOut@ConsoleHandler@IO@@UAEXABVString@Util@@@Z 00426a30 f   foundation_win32.release:consolehandler.obj
 0001:00025a40       ?HasInput@ConsoleHandler@IO@@UAE_NXZ 00426a40 f   foundation_win32.release:consolehandler.obj
 0001:00025a50       ?GetInput@ConsoleHandler@IO@@UAE?AVString@Util@@XZ 00426a50 f   foundation_win32.release:consolehandler.obj
 0001:00025aa0       ?SetInt@String@Util@@QAEXH@Z 00426aa0 f i foundation_win32.release:calendartimebase.obj
 0001:00025ad0       ?FromInt@String@Util@@SA?AV12@H@Z 00426ad0 f i foundation_win32.release:calendartimebase.obj
 0001:00025b20       ?AppendInt@String@Util@@QAEXH@Z 00426b20 f i foundation_win32.release:calendartimebase.obj
 0001:00025ba0       ??0CalendarTimeBase@Base@@QAE@XZ 00426ba0 f   foundation_win32.release:calendartimebase.obj
 0001:00025c00       ?Format@CalendarTimeBase@Base@@SA?AVString@Util@@ABV34@ABVCalendarTime@Timing@@@Z 00426c00 f   foundation_win32.release:calendartimebase.obj
 0001:00026550       ?MonthToString@CalendarTimeBase@Base@@SA?AVString@Util@@W4Month@12@@Z 00427550 f   foundation_win32.release:calendartimebase.obj
 0001:00026890       ?StringToMonth@CalendarTimeBase@Base@@SA?AW4Month@12@ABVString@Util@@@Z 00427890 f   foundation_win32.release:calendartimebase.obj
 0001:00026a90       ?WeekdayToString@CalendarTimeBase@Base@@SA?AVString@Util@@W4Weekday@12@@Z 00427a90 f   foundation_win32.release:calendartimebase.obj
 0001:00026c90       ?StringToWeekday@CalendarTimeBase@Base@@SA?AW4Weekday@12@ABVString@Util@@@Z 00427c90 f   foundation_win32.release:calendartimebase.obj
 0001:00026dd0       ?SetYear@CalendarTimeBase@Base@@QAEXI@Z 00427dd0 f   foundation_win32.release:calendartimebase.obj
 0001:00026df0       ?GetYear@CalendarTimeBase@Base@@QBEIXZ 00427df0 f   foundation_win32.release:calendartimebase.obj
 0001:00026e00       ?SetMonth@CalendarTimeBase@Base@@QAEXW4Month@12@@Z 00427e00 f   foundation_win32.release:calendartimebase.obj
 0001:00026e20       ?GetMonth@CalendarTimeBase@Base@@QBE?AW4Month@12@XZ 00427e20 f   foundation_win32.release:calendartimebase.obj
 0001:00026e40       ?SetWeekday@CalendarTimeBase@Base@@QAEXW4Weekday@12@@Z 00427e40 f   foundation_win32.release:calendartimebase.obj
 0001:00026e60       ?GetWeekday@CalendarTimeBase@Base@@QBE?AW4Weekday@12@XZ 00427e60 f   foundation_win32.release:calendartimebase.obj
 0001:00026e80       ?SetDay@CalendarTimeBase@Base@@QAEXI@Z 00427e80 f   foundation_win32.release:calendartimebase.obj
 0001:00026ea0       ?GetDay@CalendarTimeBase@Base@@QBEIXZ 00427ea0 f   foundation_win32.release:calendartimebase.obj
 0001:00026ec0       ?SetHour@CalendarTimeBase@Base@@QAEXI@Z 00427ec0 f   foundation_win32.release:calendartimebase.obj
 0001:00026ee0       ?GetHour@CalendarTimeBase@Base@@QBEIXZ 00427ee0 f   foundation_win32.release:calendartimebase.obj
 0001:00026f00       ?SetMinute@CalendarTimeBase@Base@@QAEXI@Z 00427f00 f   foundation_win32.release:calendartimebase.obj
 0001:00026f20       ?GetMinute@CalendarTimeBase@Base@@QBEIXZ 00427f20 f   foundation_win32.release:calendartimebase.obj
 0001:00026f40       ?SetSecond@CalendarTimeBase@Base@@QAEXI@Z 00427f40 f   foundation_win32.release:calendartimebase.obj
 0001:00026f60       ?GetSecond@CalendarTimeBase@Base@@QBEIXZ 00427f60 f   foundation_win32.release:calendartimebase.obj
 0001:00026f80       ?SetMilliSecond@CalendarTimeBase@Base@@QAEXI@Z 00427f80 f   foundation_win32.release:calendartimebase.obj
 0001:00026fa0       ?GetMilliSecond@CalendarTimeBase@Base@@QBEIXZ 00427fa0 f   foundation_win32.release:calendartimebase.obj
 0001:00026fc0       ?FromWin32SystemTime@Win360CalendarTime@Win360@@CA?AVCalendarTime@Timing@@ABU_SYSTEMTIME@@@Z 00427fc0 f   foundation_win32.release:win360calendartime.obj
 0001:00027040       ??0CalendarTime@Timing@@QAE@XZ 00428040 f i foundation_win32.release:win360calendartime.obj
 0001:00027060       ??0Win360CalendarTime@Win360@@QAE@XZ 00428060 f i foundation_win32.release:win360calendartime.obj
 0001:00027080       ?ToWin32SystemTime@Win360CalendarTime@Win360@@CA?AU_SYSTEMTIME@@ABVCalendarTime@Timing@@@Z 00428080 f   foundation_win32.release:win360calendartime.obj
 0001:00027100       ?GetSystemTime@Win360CalendarTime@Win360@@SA?AVCalendarTime@Timing@@XZ 00428100 f   foundation_win32.release:win360calendartime.obj
 0001:00027130       ?GetLocalTime@Win360CalendarTime@Win360@@SA?AVCalendarTime@Timing@@XZ 00428130 f   foundation_win32.release:win360calendartime.obj
 0001:00027160       ?SystemTimeToFileTime@Win360CalendarTime@Win360@@SA?AVWin360FileTime@2@ABVCalendarTime@Timing@@@Z 00428160 f   foundation_win32.release:win360calendartime.obj
 0001:000271e0       ?FileTimeToSystemTime@Win360CalendarTime@Win360@@SA?AVCalendarTime@Timing@@ABVWin360FileTime@2@@Z 004281e0 f   foundation_win32.release:win360calendartime.obj
 0001:00027210       ?LocalTimeToFileTime@Win360CalendarTime@Win360@@SA?AVWin360FileTime@2@ABVCalendarTime@Timing@@@Z 00428210 f   foundation_win32.release:win360calendartime.obj
 0001:000272b0       ?FileTimeToLocalTime@Win360CalendarTime@Win360@@SA?AVCalendarTime@Timing@@ABVWin360FileTime@2@@Z 004282b0 f   foundation_win32.release:win360calendartime.obj
 0001:00027300       ??2TextWriter@IO@@SAPAXI@Z 00428300 f i foundation_win32.release:textwriter.obj
 0001:00027310       ??3TextWriter@IO@@SAXPAX@Z 00428310 f i foundation_win32.release:textwriter.obj
 0001:00027330       ?GetRtti@TextWriter@IO@@UBEPAVRtti@Core@@XZ 00428330 f   foundation_win32.release:textwriter.obj
 0001:00027340       ?FactoryCreator@TextWriter@IO@@SAPAVRefCounted@Core@@XZ 00428340 f   foundation_win32.release:textwriter.obj
 0001:00027350       ?Create@TextWriter@IO@@SAPAV12@XZ 00428350 f   foundation_win32.release:textwriter.obj
 0001:00027390       ?RegisterWithFactory@TextWriter@IO@@SA_NXZ 00428390 f   foundation_win32.release:textwriter.obj
 0001:00027490       ??0TextWriter@IO@@QAE@XZ   00428490 f   foundation_win32.release:textwriter.obj
 0001:000274b0       ??_GTextWriter@IO@@UAEPAXI@Z 004284b0 f i foundation_win32.release:textwriter.obj
 0001:000274b0       ??_ETextWriter@IO@@UAEPAXI@Z 004284b0 f i  CIL library: CIL module
 0001:000274e0       ??1TextWriter@IO@@UAE@XZ   004284e0 f   foundation_win32.release:textwriter.obj
 0001:00027520       ?WriteChar@TextWriter@IO@@QAEXE@Z 00428520 f   foundation_win32.release:textwriter.obj
 0001:00027550       ?WriteString@TextWriter@IO@@QAEXABVString@Util@@@Z 00428550 f   foundation_win32.release:textwriter.obj
 0001:000275b0       ?WriteFormatted@TextWriter@IO@@QAAXPBDZZ 004285b0 f   foundation_win32.release:textwriter.obj
 0001:00027640       ?WriteLine@TextWriter@IO@@QAEXABVString@Util@@@Z 00428640 f   foundation_win32.release:textwriter.obj
 0001:00027670       ?WriteLines@TextWriter@IO@@QAEXABV?$Array@VString@Util@@@Util@@@Z 00428670 f   foundation_win32.release:textwriter.obj
 0001:000276c0       ??2StreamWriter@IO@@SAPAXI@Z 004286c0 f i foundation_win32.release:streamwriter.obj
 0001:000276d0       ??3StreamWriter@IO@@SAXPAX@Z 004286d0 f i foundation_win32.release:streamwriter.obj
 0001:000276f0       ?GetRtti@StreamWriter@IO@@UBEPAVRtti@Core@@XZ 004286f0 f   foundation_win32.release:streamwriter.obj
 0001:00027700       ?FactoryCreator@StreamWriter@IO@@SAPAVRefCounted@Core@@XZ 00428700 f   foundation_win32.release:streamwriter.obj
 0001:00027710       ?Create@StreamWriter@IO@@SAPAV12@XZ 00428710 f   foundation_win32.release:streamwriter.obj
 0001:00027750       ?RegisterWithFactory@StreamWriter@IO@@SA_NXZ 00428750 f   foundation_win32.release:streamwriter.obj
 0001:00027850       ??0StreamWriter@IO@@QAE@XZ 00428850 f   foundation_win32.release:streamwriter.obj
 0001:000278a0       ??_EStreamWriter@IO@@UAEPAXI@Z 004288a0 f i  CIL library: CIL module
 0001:000278a0       ??_GStreamWriter@IO@@UAEPAXI@Z 004288a0 f i foundation_win32.release:streamwriter.obj
 0001:000278d0       ??1StreamWriter@IO@@UAE@XZ 004288d0 f   foundation_win32.release:streamwriter.obj
 0001:00027920       ?SetStream@StreamWriter@IO@@QAEXABV?$Ptr@VStream@IO@@@@@Z 00428920 f   foundation_win32.release:streamwriter.obj
 0001:00027940       ?GetStream@StreamWriter@IO@@QBEABV?$Ptr@VStream@IO@@@@XZ 00428940 f   foundation_win32.release:streamwriter.obj
 0001:00027960       ?HasStream@StreamWriter@IO@@QBE_NXZ 00428960 f   foundation_win32.release:streamwriter.obj
 0001:00027980       ?Open@StreamWriter@IO@@UAE_NXZ 00428980 f   foundation_win32.release:streamwriter.obj
 0001:00027ad0       ?Close@StreamWriter@IO@@UAEXXZ 00428ad0 f   foundation_win32.release:streamwriter.obj
 0001:00027b50       ?isvalid@?$Ptr@VStream@IO@@@@QBE_NXZ 00428b50 f i foundation_win32.release:streamwriter.obj
 0001:00027b70       ??0StringAtom@Util@@QAE@XZ 00428b70 f i foundation_win32.release:interfacebase.obj
 0001:00027b90       ??2InterfaceBase@Interface@@SAPAXI@Z 00428b90 f i foundation_win32.release:interfacebase.obj
 0001:00027ba0       ??3InterfaceBase@Interface@@SAXPAX@Z 00428ba0 f i foundation_win32.release:interfacebase.obj
 0001:00027bc0       ?SetCompanyName@InterfaceBase@Interface@@AAEXABVStringAtom@Util@@@Z 00428bc0 f i foundation_win32.release:interfacebase.obj
 0001:00027be0       ?SetAppName@InterfaceBase@Interface@@AAEXABVStringAtom@Util@@@Z 00428be0 f i foundation_win32.release:interfacebase.obj
 0001:00027c00       ?SetRootDirectory@InterfaceBase@Interface@@AAEXABVStringAtom@Util@@@Z 00428c00 f i foundation_win32.release:interfacebase.obj
 0001:00027c20       ?SetCompanyName@InterfaceHandlerBase@Interface@@QAEXABVStringAtom@Util@@@Z 00428c20 f i foundation_win32.release:interfacebase.obj
 0001:00027c40       ?SetAppName@InterfaceHandlerBase@Interface@@QAEXABVStringAtom@Util@@@Z 00428c40 f i foundation_win32.release:interfacebase.obj
 0001:00027c60       ?GetCompanyName@CoreServer@Core@@QBEABVStringAtom@Util@@XZ 00428c60 f i foundation_win32.release:interfacebase.obj
 0001:00027c80       ?GetRtti@InterfaceBase@Interface@@UBEPAVRtti@Core@@XZ 00428c80 f   foundation_win32.release:interfacebase.obj
 0001:00027c90       ?FactoryCreator@InterfaceBase@Interface@@SAPAVRefCounted@Core@@XZ 00428c90 f   foundation_win32.release:interfacebase.obj
 0001:00027ca0       ?Create@InterfaceBase@Interface@@SAPAV12@XZ 00428ca0 f   foundation_win32.release:interfacebase.obj
 0001:00027ce0       ?RegisterWithFactory@InterfaceBase@Interface@@SA_NXZ 00428ce0 f   foundation_win32.release:interfacebase.obj
 0001:00027de0       ??0InterfaceBase@Interface@@QAE@XZ 00428de0 f   foundation_win32.release:interfacebase.obj
 0001:00027e50       ??_EInterfaceBase@Interface@@UAEPAXI@Z 00428e50 f i  CIL library: CIL module
 0001:00027e50       ??_GInterfaceBase@Interface@@UAEPAXI@Z 00428e50 f i foundation_win32.release:interfacebase.obj
 0001:00027e80       ??1InterfaceBase@Interface@@UAE@XZ 00428e80 f   foundation_win32.release:interfacebase.obj
 0001:00027ea0       ?Open@InterfaceBase@Interface@@UAEXXZ 00428ea0 f   foundation_win32.release:interfacebase.obj
 0001:00027fa0       ?AttachHandler@InterfaceBase@Interface@@UAEXABV?$Ptr@VHandler@Messaging@@@@@Z 00428fa0 f   foundation_win32.release:interfacebase.obj
 0001:00028000       ??$downcast@VInterfaceHandlerBase@Interface@@@?$Ptr@VHandler@Messaging@@@@QBEABV?$Ptr@VInterfaceHandlerBase@Interface@@@@XZ 00429000 f i foundation_win32.release:interfacebase.obj
 0001:00028010       ??C?$Ptr@VInterfaceHandlerBase@Interface@@@@QBEPAVInterfaceHandlerBase@Interface@@XZ 00429010 f i foundation_win32.release:interfacebase.obj
 0001:00028050       ?Peek@Win360Event@Win360@@QBE_NXZ 00429050 f i foundation_win32.release:runthroughhandlerthread.obj
 0001:00028080       ?ThreadStopRequested@Win360Thread@Win360@@IBE_NXZ 00429080 f i foundation_win32.release:runthroughhandlerthread.obj
 0001:000280b0       ??0Event@Threading@@QAE@_N@Z 004290b0 f i foundation_win32.release:runthroughhandlerthread.obj
 0001:00028100       ??2RunThroughHandlerThread@Messaging@@SAPAXI@Z 00429100 f i foundation_win32.release:runthroughhandlerthread.obj
 0001:00028110       ??3RunThroughHandlerThread@Messaging@@SAXPAX@Z 00429110 f i foundation_win32.release:runthroughhandlerthread.obj
 0001:00028130       ?GetRtti@RunThroughHandlerThread@Messaging@@UBEPAVRtti@Core@@XZ 00429130 f   foundation_win32.release:runthroughhandlerthread.obj
 0001:00028140       ?FactoryCreator@RunThroughHandlerThread@Messaging@@SAPAVRefCounted@Core@@XZ 00429140 f   foundation_win32.release:runthroughhandlerthread.obj
 0001:00028150       ?Create@RunThroughHandlerThread@Messaging@@SAPAV12@XZ 00429150 f   foundation_win32.release:runthroughhandlerthread.obj
 0001:00028190       ?RegisterWithFactory@RunThroughHandlerThread@Messaging@@SA_NXZ 00429190 f   foundation_win32.release:runthroughhandlerthread.obj
 0001:00028290       ??0RunThroughHandlerThread@Messaging@@QAE@XZ 00429290 f   foundation_win32.release:runthroughhandlerthread.obj
 0001:000282d0       ??_GRunThroughHandlerThread@Messaging@@UAEPAXI@Z 004292d0 f i foundation_win32.release:runthroughhandlerthread.obj
 0001:000282d0       ??_ERunThroughHandlerThread@Messaging@@UAEPAXI@Z 004292d0 f i  CIL library: CIL module
 0001:00028310       ??1HandlerThreadBase@Messaging@@UAE@XZ 00429310 f i foundation_win32.release:runthroughhandlerthread.obj
 0001:00028390       ??1?$SafeQueue@V?$Ptr@VMessage@Messaging@@@@@Threading@@QAE@XZ 00429390 f i foundation_win32.release:runthroughhandlerthread.obj
 0001:000283d0       ??1RunThroughHandlerThread@Messaging@@UAE@XZ 004293d0 f i foundation_win32.release:runthroughhandlerthread.obj
 0001:000283f0       ??1Thread@Threading@@UAE@XZ 004293f0 f i foundation_win32.release:runthroughhandlerthread.obj
 0001:00028410       ??1Event@Threading@@QAE@XZ 00429410 f i foundation_win32.release:runthroughhandlerthread.obj
 0001:00028430       ??1?$Queue@V?$Ptr@VMessage@Messaging@@@@@Util@@QAE@XZ 00429430 f i foundation_win32.release:runthroughhandlerthread.obj
 0001:00028450       ?AddMessage@RunThroughHandlerThread@Messaging@@UAEXABV?$Ptr@VMessage@Messaging@@@@@Z 00429450 f   foundation_win32.release:runthroughhandlerthread.obj
 0001:00028490       ?CancelMessage@RunThroughHandlerThread@Messaging@@UAEXABV?$Ptr@VMessage@Messaging@@@@@Z 00429490 f   foundation_win32.release:runthroughhandlerthread.obj
 0001:000284d0       ?DoWork@RunThroughHandlerThread@Messaging@@UAEXXZ 004294d0 f   foundation_win32.release:runthroughhandlerthread.obj
 0001:000285a0       ??1?$Array@V?$Ptr@VHandler@Messaging@@@@@Util@@QAE@XZ 004295a0 f i foundation_win32.release:runthroughhandlerthread.obj
 0001:000285c0       ??0?$Array@V?$Ptr@VMessage@Messaging@@@@@Util@@QAE@XZ 004295c0 f i foundation_win32.release:runthroughhandlerthread.obj
 0001:00028600       ??1?$Array@V?$Ptr@VMessage@Messaging@@@@@Util@@QAE@XZ 00429600 f i foundation_win32.release:runthroughhandlerthread.obj
 0001:00028620       ??0?$SafeQueue@V?$Ptr@VMessage@Messaging@@@@@Threading@@QAE@XZ 00429620 f i foundation_win32.release:runthroughhandlerthread.obj
 0001:00028690       ?SetSignalOnEnqueueEnabled@?$SafeQueue@V?$Ptr@VMessage@Messaging@@@@@Threading@@QAEX_N@Z 00429690 f i foundation_win32.release:runthroughhandlerthread.obj
 0001:000286e0       ?IsEmpty@?$SafeQueue@V?$Ptr@VMessage@Messaging@@@@@Threading@@QBE_NXZ 004296e0 f i foundation_win32.release:runthroughhandlerthread.obj
 0001:00028730       ?Enqueue@?$SafeQueue@V?$Ptr@VMessage@Messaging@@@@@Threading@@QAEXABV?$Ptr@VMessage@Messaging@@@@@Z 00429730 f i foundation_win32.release:runthroughhandlerthread.obj
 0001:000287a0       ?DequeueAll@?$SafeQueue@V?$Ptr@VMessage@Messaging@@@@@Threading@@QAEXAAV?$Array@V?$Ptr@VMessage@Messaging@@@@@Util@@@Z 004297a0 f i foundation_win32.release:runthroughhandlerthread.obj
 0001:00028800       ?EraseMatchingElements@?$SafeQueue@V?$Ptr@VMessage@Messaging@@@@@Threading@@QAEXABV?$Ptr@VMessage@Messaging@@@@@Z 00429800 f i foundation_win32.release:runthroughhandlerthread.obj
 0001:00028890       ?isvalid@?$Ptr@VMessage@Messaging@@@@QBE_NXZ 00429890 f i foundation_win32.release:runthroughhandlerthread.obj
 0001:000288b0       ?Delete@?$Array@V?$Ptr@VHandler@Messaging@@@@@Util@@AAEXXZ 004298b0 f i foundation_win32.release:runthroughhandlerthread.obj
 0001:00028920       ??4?$Array@V?$Ptr@VMessage@Messaging@@@@@Util@@QAEXABV01@@Z 00429920 f i foundation_win32.release:runthroughhandlerthread.obj
 0001:00028a10       ??A?$Array@V?$Ptr@VMessage@Messaging@@@@@Util@@QBEAAV?$Ptr@VMessage@Messaging@@@@H@Z 00429a10 f i foundation_win32.release:runthroughhandlerthread.obj
 0001:00028a60       ?Append@?$Array@V?$Ptr@VMessage@Messaging@@@@@Util@@QAEXABV?$Ptr@VMessage@Messaging@@@@@Z 00429a60 f i foundation_win32.release:runthroughhandlerthread.obj
 0001:00028ae0       ?Size@?$Array@V?$Ptr@VMessage@Messaging@@@@@Util@@QBEHXZ 00429ae0 f i foundation_win32.release:runthroughhandlerthread.obj
 0001:00028b00       ?IsEmpty@?$Array@V?$Ptr@VMessage@Messaging@@@@@Util@@QBE_NXZ 00429b00 f i foundation_win32.release:runthroughhandlerthread.obj
 0001:00028b20       ?EraseIndex@?$Array@V?$Ptr@VMessage@Messaging@@@@@Util@@QAEXH@Z 00429b20 f i foundation_win32.release:runthroughhandlerthread.obj
 0001:00028ba0       ?Clear@?$Array@V?$Ptr@VMessage@Messaging@@@@@Util@@QAEXXZ 00429ba0 f i foundation_win32.release:runthroughhandlerthread.obj
 0001:00028bf0       ?Delete@?$Array@V?$Ptr@VMessage@Messaging@@@@@Util@@AAEXXZ 00429bf0 f i foundation_win32.release:runthroughhandlerthread.obj
 0001:00028c60       ??0?$Queue@V?$Ptr@VMessage@Messaging@@@@@Util@@QAE@XZ 00429c60 f i foundation_win32.release:runthroughhandlerthread.obj
 0001:00028c80       ??8?$Ptr@VMessage@Messaging@@@@QBE_NABV0@@Z 00429c80 f i foundation_win32.release:runthroughhandlerthread.obj
 0001:00028ca0       ??_E?$Ptr@VHandler@Messaging@@@@QAEPAXI@Z 00429ca0 f i foundation_win32.release:runthroughhandlerthread.obj
 0001:00028d40       ??_E?$Ptr@VMessage@Messaging@@@@QAEPAXI@Z 00429d40 f i foundation_win32.release:runthroughhandlerthread.obj
 0001:00028de0       ?Destroy@?$Array@V?$Ptr@VMessage@Messaging@@@@@Util@@AAEXPAV?$Ptr@VMessage@Messaging@@@@@Z 00429de0 f i foundation_win32.release:runthroughhandlerthread.obj
 0001:00028e10       ?Copy@?$Array@V?$Ptr@VMessage@Messaging@@@@@Util@@AAEXABV12@@Z 00429e10 f i foundation_win32.release:runthroughhandlerthread.obj
 0001:00028f40       ?Grow@?$Array@V?$Ptr@VMessage@Messaging@@@@@Util@@AAEXXZ 00429f40 f i foundation_win32.release:runthroughhandlerthread.obj
 0001:00028fd0       ?Move@?$Array@V?$Ptr@VMessage@Messaging@@@@@Util@@AAEXHH@Z 00429fd0 f i foundation_win32.release:runthroughhandlerthread.obj
 0001:00029160       ??1?$Ptr@VMessage@Messaging@@@@QAE@XZ 0042a160 f i foundation_win32.release:runthroughhandlerthread.obj
 0001:00029190       ??4?$Ptr@VMessage@Messaging@@@@QAEXABV0@@Z 0042a190 f i foundation_win32.release:runthroughhandlerthread.obj
 0001:000291f0       ??_G?$Ptr@VMessage@Messaging@@@@QAEPAXI@Z 0042a1f0 f i foundation_win32.release:runthroughhandlerthread.obj
 0001:00029220       ?GrowTo@?$Array@V?$Ptr@VMessage@Messaging@@@@@Util@@AAEXH@Z 0042a220 f i foundation_win32.release:runthroughhandlerthread.obj
 0001:00029340       ??0?$Ptr@VMessage@Messaging@@@@QAE@XZ 0042a340 f i foundation_win32.release:runthroughhandlerthread.obj
 0001:00029360       ?Exchange@Win360Interlocked@Win360@@SAHPCHH@Z 0042a360 f i foundation_win32.release:handlerthreadbase.obj
 0001:00029370       ??3Thread@Threading@@SAXPAX@Z 0042a370 f i foundation_win32.release:handlerthreadbase.obj
 0001:00029390       ??8Id@Messaging@@QBE_NABV01@@Z 0042a390 f i foundation_win32.release:handlerthreadbase.obj
 0001:000293b0       ?CheckId@Message@Messaging@@QBE_NABVId@2@@Z 0042a3b0 f i foundation_win32.release:handlerthreadbase.obj
 0001:000293e0       ?SetHandled@Message@Messaging@@QAEX_N@Z 0042a3e0 f i foundation_win32.release:handlerthreadbase.obj
 0001:00029400       ?Handled@Message@Messaging@@QBE_NXZ 0042a400 f i foundation_win32.release:handlerthreadbase.obj
 0001:00029420       ?IsDeferred@Message@Messaging@@QBE_NXZ 0042a420 f i foundation_win32.release:handlerthreadbase.obj
 0001:00029440       ?DeferredHandled@Message@Messaging@@QBE_NXZ 0042a440 f i foundation_win32.release:handlerthreadbase.obj
 0001:00029460       ?IsOpen@Handler@Messaging@@QBE_NXZ 0042a460 f i foundation_win32.release:handlerthreadbase.obj
 0001:00029480       ??2HandlerThreadBase@Messaging@@SAPAXI@Z 0042a480 f i foundation_win32.release:handlerthreadbase.obj
 0001:00029490       ??3HandlerThreadBase@Messaging@@SAXPAX@Z 0042a490 f i foundation_win32.release:handlerthreadbase.obj
 0001:000294b0       ?GetRtti@HandlerThreadBase@Messaging@@UBEPAVRtti@Core@@XZ 0042a4b0 f   foundation_win32.release:handlerthreadbase.obj
 0001:000294c0       ?FactoryCreator@HandlerThreadBase@Messaging@@SAPAVRefCounted@Core@@XZ 0042a4c0 f   foundation_win32.release:handlerthreadbase.obj
 0001:000294d0       ?Create@HandlerThreadBase@Messaging@@SAPAV12@XZ 0042a4d0 f   foundation_win32.release:handlerthreadbase.obj
 0001:00029510       ?RegisterWithFactory@HandlerThreadBase@Messaging@@SA_NXZ 0042a510 f   foundation_win32.release:handlerthreadbase.obj
 0001:00029610       ??0HandlerThreadBase@Messaging@@QAE@XZ 0042a610 f   foundation_win32.release:handlerthreadbase.obj
 0001:000296e0       ??_GHandlerThreadBase@Messaging@@UAEPAXI@Z 0042a6e0 f i foundation_win32.release:handlerthreadbase.obj
 0001:000296e0       ??_EHandlerThreadBase@Messaging@@UAEPAXI@Z 0042a6e0 f i  CIL library: CIL module
 0001:00029710       ??0Thread@Threading@@QAE@XZ 0042a710 f i foundation_win32.release:handlerthreadbase.obj
 0001:00029730       ??_GThread@Threading@@UAEPAXI@Z 0042a730 f i foundation_win32.release:handlerthreadbase.obj
 0001:00029730       ??_EThread@Threading@@UAEPAXI@Z 0042a730 f i  CIL library: CIL module
 0001:00029760       ?AttachHandler@HandlerThreadBase@Messaging@@QAEXABV?$Ptr@VHandler@Messaging@@@@@Z 0042a760 f   foundation_win32.release:handlerthreadbase.obj
 0001:00029800       ?RemoveHandler@HandlerThreadBase@Messaging@@QAEXABV?$Ptr@VHandler@Messaging@@@@@Z 0042a800 f   foundation_win32.release:handlerthreadbase.obj
 0001:00029890       ?ClearHandlers@HandlerThreadBase@Messaging@@QAEXXZ 0042a890 f   foundation_win32.release:handlerthreadbase.obj
 0001:000298e0       ?WaitForHandlersOpened@HandlerThreadBase@Messaging@@QAEXXZ 0042a8e0 f   foundation_win32.release:handlerthreadbase.obj
 0001:00029920       ?AddMessage@HandlerThreadBase@Messaging@@UAEXABV?$Ptr@VMessage@Messaging@@@@@Z 0042a920 f   foundation_win32.release:handlerthreadbase.obj
 0001:00029930       ?CancelMessage@HandlerThreadBase@Messaging@@UAEXABV?$Ptr@VMessage@Messaging@@@@@Z 0042a930 f   foundation_win32.release:handlerthreadbase.obj
 0001:00029940       ?WaitForMessage@HandlerThreadBase@Messaging@@UAEXABV?$Ptr@VMessage@Messaging@@@@@Z 0042a940 f   foundation_win32.release:handlerthreadbase.obj
 0001:00029980       ?ThreadOpenHandlers@HandlerThreadBase@Messaging@@IAEXXZ 0042a980 f   foundation_win32.release:handlerthreadbase.obj
 0001:00029a20       ?ThreadCloseHandlers@HandlerThreadBase@Messaging@@IAEXXZ 0042aa20 f   foundation_win32.release:handlerthreadbase.obj
 0001:00029ab0       ?ThreadUpdateHandlers@HandlerThreadBase@Messaging@@IAEXXZ 0042aab0 f   foundation_win32.release:handlerthreadbase.obj
 0001:00029b70       ?ThreadUpdateDeferredMessages@HandlerThreadBase@Messaging@@IAE_NXZ 0042ab70 f   foundation_win32.release:handlerthreadbase.obj
 0001:00029c10       ?ThreadDiscardDeferredMessages@HandlerThreadBase@Messaging@@IAEXXZ 0042ac10 f   foundation_win32.release:handlerthreadbase.obj
 0001:00029c30       ?ThreadHandleMessages@HandlerThreadBase@Messaging@@IAE_NABV?$Array@V?$Ptr@VMessage@Messaging@@@@@Util@@@Z 0042ac30 f   foundation_win32.release:handlerthreadbase.obj
 0001:00029d80       ?ThreadHandleSingleMessage@HandlerThreadBase@Messaging@@IAE_NABV?$Ptr@VMessage@Messaging@@@@@Z 0042ad80 f   foundation_win32.release:handlerthreadbase.obj
 0001:00029e80       ?ThreadSignalMessageHandled@HandlerThreadBase@Messaging@@IAEXXZ 0042ae80 f   foundation_win32.release:handlerthreadbase.obj
 0001:00029ea0       ??0?$Array@V?$Ptr@VHandler@Messaging@@@@@Util@@QAE@XZ 0042aea0 f i foundation_win32.release:handlerthreadbase.obj
 0001:00029ee0       ??A?$Array@V?$Ptr@VHandler@Messaging@@@@@Util@@QBEAAV?$Ptr@VHandler@Messaging@@@@H@Z 0042aee0 f i foundation_win32.release:handlerthreadbase.obj
 0001:00029f30       ?Append@?$Array@V?$Ptr@VHandler@Messaging@@@@@Util@@QAEXABV?$Ptr@VHandler@Messaging@@@@@Z 0042af30 f i foundation_win32.release:handlerthreadbase.obj
 0001:00029fb0       ?Size@?$Array@V?$Ptr@VHandler@Messaging@@@@@Util@@QBEHXZ 0042afb0 f i foundation_win32.release:handlerthreadbase.obj
 0001:00029fd0       ?EraseIndex@?$Array@V?$Ptr@VHandler@Messaging@@@@@Util@@QAEXH@Z 0042afd0 f i foundation_win32.release:handlerthreadbase.obj
 0001:0002a050       ?Clear@?$Array@V?$Ptr@VHandler@Messaging@@@@@Util@@QAEXXZ 0042b050 f i foundation_win32.release:handlerthreadbase.obj
 0001:0002a0a0       ?Begin@?$Array@V?$Ptr@VHandler@Messaging@@@@@Util@@QBEPAV?$Ptr@VHandler@Messaging@@@@XZ 0042b0a0 f i foundation_win32.release:handlerthreadbase.obj
 0001:0002a0c0       ?End@?$Array@V?$Ptr@VHandler@Messaging@@@@@Util@@QBEPAV?$Ptr@VHandler@Messaging@@@@XZ 0042b0c0 f i foundation_win32.release:handlerthreadbase.obj
 0001:0002a0e0       ?FindIndex@?$Array@V?$Ptr@VHandler@Messaging@@@@@Util@@QBEHABV?$Ptr@VHandler@Messaging@@@@@Z 0042b0e0 f i foundation_win32.release:handlerthreadbase.obj
 0001:0002a140       ??C?$Ptr@VHandler@Messaging@@@@QBEPAVHandler@Messaging@@XZ 0042b140 f i foundation_win32.release:handlerthreadbase.obj
 0001:0002a180       ?isvalid@?$Ptr@VHandler@Messaging@@@@QBE_NXZ 0042b180 f i foundation_win32.release:handlerthreadbase.obj
 0001:0002a1a0       ??0?$Ptr@VMessage@Messaging@@@@QAE@ABV0@@Z 0042b1a0 f i foundation_win32.release:handlerthreadbase.obj
 0001:0002a1e0       ??C?$Ptr@VMessage@Messaging@@@@QBEPAVMessage@Messaging@@XZ 0042b1e0 f i foundation_win32.release:handlerthreadbase.obj
 0001:0002a220       ??$cast@VBatchMessage@Messaging@@@?$Ptr@VMessage@Messaging@@@@QBEABV?$Ptr@VBatchMessage@Messaging@@@@XZ 0042b220 f i foundation_win32.release:handlerthreadbase.obj
 0001:0002a230       ??C?$Ptr@VBatchMessage@Messaging@@@@QBEPAVBatchMessage@Messaging@@XZ 0042b230 f i foundation_win32.release:handlerthreadbase.obj
 0001:0002a270       ?Destroy@?$Array@V?$Ptr@VHandler@Messaging@@@@@Util@@AAEXPAV?$Ptr@VHandler@Messaging@@@@@Z 0042b270 f i foundation_win32.release:handlerthreadbase.obj
 0001:0002a2a0       ?Grow@?$Array@V?$Ptr@VHandler@Messaging@@@@@Util@@AAEXXZ 0042b2a0 f i foundation_win32.release:handlerthreadbase.obj
 0001:0002a320       ?Move@?$Array@V?$Ptr@VHandler@Messaging@@@@@Util@@AAEXHH@Z 0042b320 f i foundation_win32.release:handlerthreadbase.obj
 0001:0002a4b0       ??4?$Ptr@VHandler@Messaging@@@@QAEXABV0@@Z 0042b4b0 f i foundation_win32.release:handlerthreadbase.obj
 0001:0002a510       ??8?$Ptr@VHandler@Messaging@@@@QBE_NABV0@@Z 0042b510 f i foundation_win32.release:handlerthreadbase.obj
 0001:0002a530       ??_G?$Ptr@VHandler@Messaging@@@@QAEPAXI@Z 0042b530 f i foundation_win32.release:handlerthreadbase.obj
 0001:0002a560       ?GrowTo@?$Array@V?$Ptr@VHandler@Messaging@@@@@Util@@AAEXH@Z 0042b560 f i foundation_win32.release:handlerthreadbase.obj
 0001:0002a680       ??0?$Ptr@VHandler@Messaging@@@@QAE@XZ 0042b680 f i foundation_win32.release:handlerthreadbase.obj
 0001:0002a6a0       ?SetPort@HttpServer@Http@@QAEXG@Z 0042b6a0 f i foundation_win32.release:httpmessagehandler.obj
 0001:0002a6c0       ?GetRequestHandler@AttachRequestHandler@Http@@QBEABV?$Ptr@VHttpRequestHandler@Http@@@@XZ 0042b6c0 f i foundation_win32.release:httpmessagehandler.obj
 0001:0002a6e0       ?GetRequestHandler@RemoveRequestHandler@Http@@QBEABV?$Ptr@VHttpRequestHandler@Http@@@@XZ 0042b6e0 f i foundation_win32.release:httpmessagehandler.obj
 0001:0002a700       ??2HttpMessageHandler@Http@@SAPAXI@Z 0042b700 f i foundation_win32.release:httpmessagehandler.obj
 0001:0002a710       ??3HttpMessageHandler@Http@@SAXPAX@Z 0042b710 f i foundation_win32.release:httpmessagehandler.obj
 0001:0002a730       ?GetRtti@HttpMessageHandler@Http@@UBEPAVRtti@Core@@XZ 0042b730 f   foundation_win32.release:httpmessagehandler.obj
 0001:0002a740       ?FactoryCreator@HttpMessageHandler@Http@@SAPAVRefCounted@Core@@XZ 0042b740 f   foundation_win32.release:httpmessagehandler.obj
 0001:0002a750       ?Create@HttpMessageHandler@Http@@SAPAV12@XZ 0042b750 f   foundation_win32.release:httpmessagehandler.obj
 0001:0002a790       ?RegisterWithFactory@HttpMessageHandler@Http@@SA_NXZ 0042b790 f   foundation_win32.release:httpmessagehandler.obj
 0001:0002a890       ??0HttpMessageHandler@Http@@QAE@XZ 0042b890 f   foundation_win32.release:httpmessagehandler.obj
 0001:0002a8c0       ??_EHttpMessageHandler@Http@@UAEPAXI@Z 0042b8c0 f i  CIL library: CIL module
 0001:0002a8c0       ??_GHttpMessageHandler@Http@@UAEPAXI@Z 0042b8c0 f i foundation_win32.release:httpmessagehandler.obj
 0001:0002a8f0       ??1InterfaceHandlerBase@Interface@@UAE@XZ 0042b8f0 f i foundation_win32.release:httpmessagehandler.obj
 0001:0002a910       ??1HttpMessageHandler@Http@@UAE@XZ 0042b910 f   foundation_win32.release:httpmessagehandler.obj
 0001:0002a940       ?Open@HttpMessageHandler@Http@@UAEXXZ 0042b940 f   foundation_win32.release:httpmessagehandler.obj
 0001:0002a9c0       ?Close@HttpMessageHandler@Http@@UAEXXZ 0042b9c0 f   foundation_win32.release:httpmessagehandler.obj
 0001:0002aa20       ?DoWork@HttpMessageHandler@Http@@UAEXXZ 0042ba20 f   foundation_win32.release:httpmessagehandler.obj
 0001:0002aa80       ?HandleMessage@HttpMessageHandler@Http@@UAE_NABV?$Ptr@VMessage@Messaging@@@@@Z 0042ba80 f   foundation_win32.release:httpmessagehandler.obj
 0001:0002ab40       ?OnAttachRequestHandler@HttpMessageHandler@Http@@AAEXABV?$Ptr@VAttachRequestHandler@Http@@@@@Z 0042bb40 f   foundation_win32.release:httpmessagehandler.obj
 0001:0002ab80       ?OnRemoveRequestHandler@HttpMessageHandler@Http@@AAEXABV?$Ptr@VRemoveRequestHandler@Http@@@@@Z 0042bb80 f   foundation_win32.release:httpmessagehandler.obj
 0001:0002abc0       ??0?$Ptr@VHttpServer@Http@@@@QAE@XZ 0042bbc0 f i foundation_win32.release:httpmessagehandler.obj
 0001:0002abe0       ??1?$Ptr@VHttpServer@Http@@@@QAE@XZ 0042bbe0 f i foundation_win32.release:httpmessagehandler.obj
 0001:0002ac10       ??4?$Ptr@VHttpServer@Http@@@@QAEXPAVHttpServer@Http@@@Z 0042bc10 f i foundation_win32.release:httpmessagehandler.obj
 0001:0002ac70       ??C?$Ptr@VHttpServer@Http@@@@QBEPAVHttpServer@Http@@XZ 0042bc70 f i foundation_win32.release:httpmessagehandler.obj
 0001:0002acb0       ??$cast@VAttachRequestHandler@Http@@@?$Ptr@VMessage@Messaging@@@@QBEABV?$Ptr@VAttachRequestHandler@Http@@@@XZ 0042bcb0 f i foundation_win32.release:httpmessagehandler.obj
 0001:0002acc0       ??$cast@VRemoveRequestHandler@Http@@@?$Ptr@VMessage@Messaging@@@@QBEABV?$Ptr@VRemoveRequestHandler@Http@@@@XZ 0042bcc0 f i foundation_win32.release:httpmessagehandler.obj
 0001:0002acd0       ??2AsyncPort@Messaging@@SAPAXI@Z 0042bcd0 f i foundation_win32.release:asyncport.obj
 0001:0002ace0       ??3AsyncPort@Messaging@@SAXPAX@Z 0042bce0 f i foundation_win32.release:asyncport.obj
 0001:0002ad00       ?GetRtti@AsyncPort@Messaging@@UBEPAVRtti@Core@@XZ 0042bd00 f   foundation_win32.release:asyncport.obj
 0001:0002ad10       ?FactoryCreator@AsyncPort@Messaging@@SAPAVRefCounted@Core@@XZ 0042bd10 f   foundation_win32.release:asyncport.obj
 0001:0002ad20       ?Create@AsyncPort@Messaging@@SAPAV12@XZ 0042bd20 f   foundation_win32.release:asyncport.obj
 0001:0002ad60       ?RegisterWithFactory@AsyncPort@Messaging@@SA_NXZ 0042bd60 f   foundation_win32.release:asyncport.obj
 0001:0002ae60       ??0AsyncPort@Messaging@@QAE@XZ 0042be60 f   foundation_win32.release:asyncport.obj
 0001:0002aea0       ??_GAsyncPort@Messaging@@UAEPAXI@Z 0042bea0 f i foundation_win32.release:asyncport.obj
 0001:0002aea0       ??_EAsyncPort@Messaging@@UAEPAXI@Z 0042bea0 f i  CIL library: CIL module
 0001:0002aed0       ??1AsyncPort@Messaging@@UAE@XZ 0042bed0 f   foundation_win32.release:asyncport.obj
 0001:0002af20       ?Open@AsyncPort@Messaging@@UAEXXZ 0042bf20 f   foundation_win32.release:asyncport.obj
 0001:0002afb0       ?Close@AsyncPort@Messaging@@UAEXXZ 0042bfb0 f   foundation_win32.release:asyncport.obj
 0001:0002b010       ?AttachHandler@AsyncPort@Messaging@@UAEXABV?$Ptr@VHandler@Messaging@@@@@Z 0042c010 f   foundation_win32.release:asyncport.obj
 0001:0002b040       ?RemoveHandler@AsyncPort@Messaging@@UAEXABV?$Ptr@VHandler@Messaging@@@@@Z 0042c040 f   foundation_win32.release:asyncport.obj
 0001:0002b070       ?SendInternal@AsyncPort@Messaging@@AAEXABV?$Ptr@VMessage@Messaging@@@@@Z 0042c070 f   foundation_win32.release:asyncport.obj
 0001:0002b120       ?SendWaitInternal@AsyncPort@Messaging@@AAEXABV?$Ptr@VMessage@Messaging@@@@@Z 0042c120 f   foundation_win32.release:asyncport.obj
 0001:0002b150       ?PeekInternal@AsyncPort@Messaging@@AAE_NABV?$Ptr@VMessage@Messaging@@@@@Z 0042c150 f   foundation_win32.release:asyncport.obj
 0001:0002b1a0       ?CancelInternal@AsyncPort@Messaging@@AAEXABV?$Ptr@VMessage@Messaging@@@@@Z 0042c1a0 f   foundation_win32.release:asyncport.obj
 0001:0002b220       ?WaitInternal@AsyncPort@Messaging@@AAEXABV?$Ptr@VMessage@Messaging@@@@@Z 0042c220 f   foundation_win32.release:asyncport.obj
 0001:0002b300       ??0?$Ptr@VHandlerThreadBase@Messaging@@@@QAE@XZ 0042c300 f i foundation_win32.release:asyncport.obj
 0001:0002b320       ??1?$Ptr@VHandlerThreadBase@Messaging@@@@QAE@XZ 0042c320 f i foundation_win32.release:asyncport.obj
 0001:0002b350       ??4?$Ptr@VHandlerThreadBase@Messaging@@@@QAEXPAVHandlerThreadBase@Messaging@@@Z 0042c350 f i foundation_win32.release:asyncport.obj
 0001:0002b3b0       ??C?$Ptr@VHandlerThreadBase@Messaging@@@@QBEPAVHandlerThreadBase@Messaging@@XZ 0042c3b0 f i foundation_win32.release:asyncport.obj
 0001:0002b3f0       ?isvalid@?$Ptr@VHandlerThreadBase@Messaging@@@@QBE_NXZ 0042c3f0 f i foundation_win32.release:asyncport.obj
 0001:0002b410       ??$Wait@VMessage@Messaging@@@AsyncPort@Messaging@@QAEXABV?$Ptr@VMessage@Messaging@@@@@Z 0042c410 f i foundation_win32.release:asyncport.obj
 0001:0002b430       ??0Id@Messaging@@QAE@XZ    0042c430 f i foundation_win32.release:httpprotocol.obj
 0001:0002b440       ??2AttachRequestHandler@Http@@SAPAXI@Z 0042c440 f i foundation_win32.release:httpprotocol.obj
 0001:0002b450       ??3AttachRequestHandler@Http@@SAXPAX@Z 0042c450 f i foundation_win32.release:httpprotocol.obj
 0001:0002b470       ??0AttachRequestHandler@Http@@QAE@XZ 0042c470 f i foundation_win32.release:httpprotocol.obj
 0001:0002b4a0       ??_GAttachRequestHandler@Http@@UAEPAXI@Z 0042c4a0 f i foundation_win32.release:httpprotocol.obj
 0001:0002b4a0       ??_EAttachRequestHandler@Http@@UAEPAXI@Z 0042c4a0 f i  CIL library: CIL module
 0001:0002b4e0       ??1Message@Messaging@@UAE@XZ 0042c4e0 f i foundation_win32.release:httpprotocol.obj
 0001:0002b500       ??1AttachRequestHandler@Http@@UAE@XZ 0042c500 f i foundation_win32.release:httpprotocol.obj
 0001:0002b520       ??2RemoveRequestHandler@Http@@SAPAXI@Z 0042c520 f i foundation_win32.release:httpprotocol.obj
 0001:0002b530       ??3RemoveRequestHandler@Http@@SAXPAX@Z 0042c530 f i foundation_win32.release:httpprotocol.obj
 0001:0002b550       ??0RemoveRequestHandler@Http@@QAE@XZ 0042c550 f i foundation_win32.release:httpprotocol.obj
 0001:0002b580       ??_GRemoveRequestHandler@Http@@UAEPAXI@Z 0042c580 f i foundation_win32.release:httpprotocol.obj
 0001:0002b580       ??_ERemoveRequestHandler@Http@@UAEPAXI@Z 0042c580 f i  CIL library: CIL module
 0001:0002b5c0       ??1RemoveRequestHandler@Http@@UAE@XZ 0042c5c0 f i foundation_win32.release:httpprotocol.obj
 0001:0002b5e0       ?GetRtti@AttachRequestHandler@Http@@UBEPAVRtti@Core@@XZ 0042c5e0 f   foundation_win32.release:httpprotocol.obj
 0001:0002b5f0       ?FactoryCreator@AttachRequestHandler@Http@@SAPAVRefCounted@Core@@XZ 0042c5f0 f   foundation_win32.release:httpprotocol.obj
 0001:0002b600       ?Create@AttachRequestHandler@Http@@SAPAV12@XZ 0042c600 f   foundation_win32.release:httpprotocol.obj
 0001:0002b650       ?RegisterWithFactory@AttachRequestHandler@Http@@SA_NXZ 0042c650 f   foundation_win32.release:httpprotocol.obj
 0001:0002b750       ?GetId@AttachRequestHandler@Http@@UBEABVId@Messaging@@XZ 0042c750 f   foundation_win32.release:httpprotocol.obj
 0001:0002b760       ?GetRtti@RemoveRequestHandler@Http@@UBEPAVRtti@Core@@XZ 0042c760 f   foundation_win32.release:httpprotocol.obj
 0001:0002b770       ?FactoryCreator@RemoveRequestHandler@Http@@SAPAVRefCounted@Core@@XZ 0042c770 f   foundation_win32.release:httpprotocol.obj
 0001:0002b780       ?Create@RemoveRequestHandler@Http@@SAPAV12@XZ 0042c780 f   foundation_win32.release:httpprotocol.obj
 0001:0002b7d0       ?RegisterWithFactory@RemoveRequestHandler@Http@@SA_NXZ 0042c7d0 f   foundation_win32.release:httpprotocol.obj
 0001:0002b8d0       ?GetId@RemoveRequestHandler@Http@@UBEABVId@Messaging@@XZ 0042c8d0 f   foundation_win32.release:httpprotocol.obj
 0001:0002b8e0       ?SetStatus@HttpRequest@Http@@QAEXW4Code@HttpStatus@2@@Z 0042c8e0 f i foundation_win32.release:httprequesthandler.obj
 0001:0002b900       ??2HttpRequestHandler@Http@@SAPAXI@Z 0042c900 f i foundation_win32.release:httprequesthandler.obj
 0001:0002b910       ??3HttpRequestHandler@Http@@SAXPAX@Z 0042c910 f i foundation_win32.release:httprequesthandler.obj
 0001:0002b930       ?GetRtti@HttpRequestHandler@Http@@UBEPAVRtti@Core@@XZ 0042c930 f   foundation_win32.release:httprequesthandler.obj
 0001:0002b940       ?FactoryCreator@HttpRequestHandler@Http@@SAPAVRefCounted@Core@@XZ 0042c940 f   foundation_win32.release:httprequesthandler.obj
 0001:0002b950       ?Create@HttpRequestHandler@Http@@SAPAV12@XZ 0042c950 f   foundation_win32.release:httprequesthandler.obj
 0001:0002b990       ?RegisterWithFactory@HttpRequestHandler@Http@@SA_NXZ 0042c990 f   foundation_win32.release:httprequesthandler.obj
 0001:0002ba90       ??0HttpRequestHandler@Http@@QAE@XZ 0042ca90 f   foundation_win32.release:httprequesthandler.obj
 0001:0002bb60       ??_EHttpRequestHandler@Http@@UAEPAXI@Z 0042cb60 f i  CIL library: CIL module
 0001:0002bb60       ??_GHttpRequestHandler@Http@@UAEPAXI@Z 0042cb60 f i foundation_win32.release:httprequesthandler.obj
 0001:0002bb90       ??1?$SafeQueue@V?$Ptr@VHttpRequest@Http@@@@@Threading@@QAE@XZ 0042cb90 f i foundation_win32.release:httprequesthandler.obj
 0001:0002bbd0       ??1?$Queue@V?$Ptr@VHttpRequest@Http@@@@@Util@@QAE@XZ 0042cbd0 f i foundation_win32.release:httprequesthandler.obj
 0001:0002bbf0       ??1HttpRequestHandler@Http@@UAE@XZ 0042cbf0 f   foundation_win32.release:httprequesthandler.obj
 0001:0002bd10       ?PutRequest@HttpRequestHandler@Http@@IAEXABV?$Ptr@VHttpRequest@Http@@@@@Z 0042cd10 f   foundation_win32.release:httprequesthandler.obj
 0001:0002bd30       ?HandlePendingRequests@HttpRequestHandler@Http@@IAEXXZ 0042cd30 f   foundation_win32.release:httprequesthandler.obj
 0001:0002bdd0       ?HandleRequest@HttpRequestHandler@Http@@MAEXABV?$Ptr@VHttpRequest@Http@@@@@Z 0042cdd0 f   foundation_win32.release:httprequesthandler.obj
 0001:0002be00       ??0?$Array@V?$Ptr@VHttpRequest@Http@@@@@Util@@QAE@XZ 0042ce00 f i foundation_win32.release:httprequesthandler.obj
 0001:0002be40       ??1?$Array@V?$Ptr@VHttpRequest@Http@@@@@Util@@QAE@XZ 0042ce40 f i foundation_win32.release:httprequesthandler.obj
 0001:0002be60       ??A?$Array@V?$Ptr@VHttpRequest@Http@@@@@Util@@QBEAAV?$Ptr@VHttpRequest@Http@@@@H@Z 0042ce60 f i foundation_win32.release:httprequesthandler.obj
 0001:0002beb0       ?Size@?$Array@V?$Ptr@VHttpRequest@Http@@@@@Util@@QBEHXZ 0042ceb0 f i foundation_win32.release:httprequesthandler.obj
 0001:0002bed0       ??0?$SafeQueue@V?$Ptr@VHttpRequest@Http@@@@@Threading@@QAE@XZ 0042ced0 f i foundation_win32.release:httprequesthandler.obj
 0001:0002bf40       ?SetSignalOnEnqueueEnabled@?$SafeQueue@V?$Ptr@VHttpRequest@Http@@@@@Threading@@QAEX_N@Z 0042cf40 f i foundation_win32.release:httprequesthandler.obj
 0001:0002bf90       ?Enqueue@?$SafeQueue@V?$Ptr@VHttpRequest@Http@@@@@Threading@@QAEXABV?$Ptr@VHttpRequest@Http@@@@@Z 0042cf90 f i foundation_win32.release:httprequesthandler.obj
 0001:0002c000       ?DequeueAll@?$SafeQueue@V?$Ptr@VHttpRequest@Http@@@@@Threading@@QAEXAAV?$Array@V?$Ptr@VHttpRequest@Http@@@@@Util@@@Z 0042d000 f i foundation_win32.release:httprequesthandler.obj
 0001:0002c060       ??C?$Ptr@VHttpRequest@Http@@@@QBEPAVHttpRequest@Http@@XZ 0042d060 f i foundation_win32.release:httprequesthandler.obj
 0001:0002c0a0       ??4?$Array@V?$Ptr@VHttpRequest@Http@@@@@Util@@QAEXABV01@@Z 0042d0a0 f i foundation_win32.release:httprequesthandler.obj
 0001:0002c190       ?Append@?$Array@V?$Ptr@VHttpRequest@Http@@@@@Util@@QAEXABV?$Ptr@VHttpRequest@Http@@@@@Z 0042d190 f i foundation_win32.release:httprequesthandler.obj
 0001:0002c210       ?Clear@?$Array@V?$Ptr@VHttpRequest@Http@@@@@Util@@QAEXXZ 0042d210 f i foundation_win32.release:httprequesthandler.obj
 0001:0002c260       ?Delete@?$Array@V?$Ptr@VHttpRequest@Http@@@@@Util@@AAEXXZ 0042d260 f i foundation_win32.release:httprequesthandler.obj
 0001:0002c2d0       ??0?$Queue@V?$Ptr@VHttpRequest@Http@@@@@Util@@QAE@XZ 0042d2d0 f i foundation_win32.release:httprequesthandler.obj
 0001:0002c2f0       ??_E?$Ptr@VHttpRequest@Http@@@@QAEPAXI@Z 0042d2f0 f i foundation_win32.release:httprequesthandler.obj
 0001:0002c390       ?Destroy@?$Array@V?$Ptr@VHttpRequest@Http@@@@@Util@@AAEXPAV?$Ptr@VHttpRequest@Http@@@@@Z 0042d390 f i foundation_win32.release:httprequesthandler.obj
 0001:0002c3c0       ?Copy@?$Array@V?$Ptr@VHttpRequest@Http@@@@@Util@@AAEXABV12@@Z 0042d3c0 f i foundation_win32.release:httprequesthandler.obj
 0001:0002c4f0       ?Grow@?$Array@V?$Ptr@VHttpRequest@Http@@@@@Util@@AAEXXZ 0042d4f0 f i foundation_win32.release:httprequesthandler.obj
 0001:0002c570       ??1?$Ptr@VHttpRequest@Http@@@@QAE@XZ 0042d570 f i foundation_win32.release:httprequesthandler.obj
 0001:0002c5a0       ??4?$Ptr@VHttpRequest@Http@@@@QAEXABV0@@Z 0042d5a0 f i foundation_win32.release:httprequesthandler.obj
 0001:0002c600       ??_G?$Ptr@VHttpRequest@Http@@@@QAEPAXI@Z 0042d600 f i foundation_win32.release:httprequesthandler.obj
 0001:0002c630       ?GrowTo@?$Array@V?$Ptr@VHttpRequest@Http@@@@@Util@@AAEXH@Z 0042d630 f i foundation_win32.release:httprequesthandler.obj
 0001:0002c750       ??0?$Ptr@VHttpRequest@Http@@@@QAE@XZ 0042d750 f i foundation_win32.release:httprequesthandler.obj
 0001:0002c770       ?BinaryCompare@Blob@Util@@ABEHABV12@@Z 0042d770 f   foundation_win32.release:blob.obj
 0001:0002c820       ?Setup@Win360Heap@Win360@@SAXXZ 0042d820 f   foundation_win32.release:win360heap.obj
 0001:0002c830       ??0Win360Heap@Win360@@QAE@PBDII@Z 0042d830 f   foundation_win32.release:win360heap.obj
 0001:0002c8c0       ??1Win360Heap@Win360@@QAE@XZ 0042d8c0 f   foundation_win32.release:win360heap.obj
 0001:0002c900       ??2Win360Socket@Win360@@SAPAXI@Z 0042d900 f i foundation_win32.release:win360socket.obj
 0001:0002c910       ??3Win360Socket@Win360@@SAXPAX@Z 0042d910 f i foundation_win32.release:win360socket.obj
 0001:0002c930       ?IsOpen@Win360Socket@Win360@@QBE_NXZ 0042d930 f i foundation_win32.release:win360socket.obj
 0001:0002c950       ?IsBound@Win360Socket@Win360@@QBE_NXZ 0042d950 f i foundation_win32.release:win360socket.obj
 0001:0002c970       ?SetAddress@Win360Socket@Win360@@QAEXABVWin360IpAddress@2@@Z 0042d970 f i foundation_win32.release:win360socket.obj
 0001:0002c990       ??4Win360IpAddress@Win360@@QAEAAV01@ABV01@@Z 0042d990 f i foundation_win32.release:win360socket.obj
 0001:0002ca40       ?GetBlocking@Win360Socket@Win360@@QBE_NXZ 0042da40 f i foundation_win32.release:win360socket.obj
 0001:0002ca60       ?GetRtti@Win360Socket@Win360@@UBEPAVRtti@Core@@XZ 0042da60 f   foundation_win32.release:win360socket.obj
 0001:0002ca70       ?FactoryCreator@Win360Socket@Win360@@SAPAVRefCounted@Core@@XZ 0042da70 f   foundation_win32.release:win360socket.obj
 0001:0002ca80       ?Create@Win360Socket@Win360@@SAPAV12@XZ 0042da80 f   foundation_win32.release:win360socket.obj
 0001:0002cac0       ?RegisterWithFactory@Win360Socket@Win360@@SA_NXZ 0042dac0 f   foundation_win32.release:win360socket.obj
 0001:0002cbc0       ??0Win360Socket@Win360@@QAE@XZ 0042dbc0 f   foundation_win32.release:win360socket.obj
 0001:0002cc40       ??_GWin360Socket@Win360@@UAEPAXI@Z 0042dc40 f i foundation_win32.release:win360socket.obj
 0001:0002cc40       ??_EWin360Socket@Win360@@UAEPAXI@Z 0042dc40 f i  CIL library: CIL module
 0001:0002cc70       ??1Win360IpAddress@Win360@@QAE@XZ 0042dc70 f i foundation_win32.release:win360socket.obj
 0001:0002cd00       ??1Win360Socket@Win360@@UAE@XZ 0042dd00 f   foundation_win32.release:win360socket.obj
 0001:0002cd50       ?InitNetwork@Win360Socket@Win360@@SAXXZ 0042dd50 f   foundation_win32.release:win360socket.obj
 0001:0002ce50       ?Open@Win360Socket@Win360@@QAE_NW4Protocol@12@@Z 0042de50 f   foundation_win32.release:win360socket.obj
 0001:0002cf20       ?OpenWithExistingSocket@Win360Socket@Win360@@AAEXI@Z 0042df20 f   foundation_win32.release:win360socket.obj
 0001:0002cf80       ?Close@Win360Socket@Win360@@QAEXXZ 0042df80 f   foundation_win32.release:win360socket.obj
 0001:0002d100       ?SetBoolOption@Win360Socket@Win360@@AAEXH_N@Z 0042e100 f   foundation_win32.release:win360socket.obj
 0001:0002d200       ?GetBoolOption@Win360Socket@Win360@@AAE_NH@Z 0042e200 f   foundation_win32.release:win360socket.obj
 0001:0002d330       ?SetIntOption@Win360Socket@Win360@@AAEXHH@Z 0042e330 f   foundation_win32.release:win360socket.obj
 0001:0002d410       ?GetIntOption@Win360Socket@Win360@@AAEHH@Z 0042e410 f   foundation_win32.release:win360socket.obj
 0001:0002d520       ?SetBlocking@Win360Socket@Win360@@QAEX_N@Z 0042e520 f   foundation_win32.release:win360socket.obj
 0001:0002d610       ?Bind@Win360Socket@Win360@@QAE_NXZ 0042e610 f   foundation_win32.release:win360socket.obj
 0001:0002d720       ?Listen@Win360Socket@Win360@@QAE_NXZ 0042e720 f   foundation_win32.release:win360socket.obj
 0001:0002d820       ?Accept@Win360Socket@Win360@@QAE_NAAV?$Ptr@VSocket@Net@@@@@Z 0042e820 f   foundation_win32.release:win360socket.obj
 0001:0002d9f0       ?Connect@Win360Socket@Win360@@QAE?AW4Result@12@XZ 0042e9f0 f   foundation_win32.release:win360socket.obj
 0001:0002db60       ?IsConnected@Win360Socket@Win360@@QAE_NXZ 0042eb60 f   foundation_win32.release:win360socket.obj
 0001:0002dcc0       ?Send@Win360Socket@Win360@@QAE?AW4Result@12@PBXHAAH@Z 0042ecc0 f   foundation_win32.release:win360socket.obj
 0001:0002ddf0       ?HasRecvData@Win360Socket@Win360@@QAE_NXZ 0042edf0 f   foundation_win32.release:win360socket.obj
 0001:0002df50       ?Recv@Win360Socket@Win360@@QAE?AW4Result@12@PAXHAAH@Z 0042ef50 f   foundation_win32.release:win360socket.obj
 0001:0002e0c0       ?SendTo@Win360Socket@Win360@@QAE?AW4Result@12@PBXHIGAAH@Z 0042f0c0 f   foundation_win32.release:win360socket.obj
 0001:0002e0e0       ?RecvFrom@Win360Socket@Win360@@QAE?AW4Result@12@PAXHIGAAH@Z 0042f0e0 f   foundation_win32.release:win360socket.obj
 0001:0002e100       ?ClearError@Win360Socket@Win360@@AAEXXZ 0042f100 f   foundation_win32.release:win360socket.obj
 0001:0002e120       ?SetToLastWSAError@Win360Socket@Win360@@AAEXXZ 0042f120 f   foundation_win32.release:win360socket.obj
 0001:0002e140       ?SetWSAError@Win360Socket@Win360@@AAEXH@Z 0042f140 f   foundation_win32.release:win360socket.obj
 0001:0002e160       ?WSAErrorToErrorCode@Win360Socket@Win360@@CA?AW4ErrorCode@12@H@Z 0042f160 f   foundation_win32.release:win360socket.obj
 0001:0002e520       ?ErrorAsString@Win360Socket@Win360@@CA?AVString@Util@@W4ErrorCode@12@@Z 0042f520 f   foundation_win32.release:win360socket.obj
 0001:0002ef80       ?WSAErrorToString@Win360Socket@Win360@@CA?AVString@Util@@H@Z 0042ff80 f   foundation_win32.release:win360socket.obj
 0001:0002efb0       ?GetErrorString@Win360Socket@Win360@@QBE?AVString@Util@@XZ 0042ffb0 f   foundation_win32.release:win360socket.obj
 0001:0002efe0       ?IsNetworkInitialized@Win360Socket@Win360@@SA_NXZ 0042ffe0 f   foundation_win32.release:win360socket.obj
 0001:0002eff0       ??4?$Ptr@VSocket@Net@@@@QAEXPAVSocket@Net@@@Z 0042fff0 f i foundation_win32.release:win360socket.obj
 0001:0002f050       ??C?$Ptr@VSocket@Net@@@@QBEPAVSocket@Net@@XZ 00430050 f i foundation_win32.release:win360socket.obj
 0001:0002f090       ?Clear@Memory@@YAXPAXI@Z   00430090 f i foundation_win32.release:win32minidump.obj
 0001:0002f0b0       ?ExtractFileName@String@Util@@QBE?AV12@XZ 004300b0 f i foundation_win32.release:win32minidump.obj
 0001:0002f150       ?ExtractToLastSlash@String@Util@@QBE?AV12@XZ 00430150 f i foundation_win32.release:win32minidump.obj
 0001:0002f1e0       ?Setup@Win32MiniDump@Win32@@SAXXZ 004301e0 f   foundation_win32.release:win32minidump.obj
 0001:0002f1f0       ?WriteMiniDump@Win32MiniDump@Win32@@SA_NXZ 004301f0 f   foundation_win32.release:win32minidump.obj
 0001:0002f200       ?WriteMiniDumpInternal@Win32MiniDump@Win32@@CA_NPAU_EXCEPTION_POINTERS@@@Z 00430200 f   foundation_win32.release:win32minidump.obj
 0001:0002f320       ?BuildMiniDumpFilename@Win32MiniDump@Win32@@CA?AVString@Util@@XZ 00430320 f   foundation_win32.release:win32minidump.obj
 0001:0002f5c0       ?ExceptionCallback@Win32MiniDump@Win32@@CGJPAU_EXCEPTION_POINTERS@@@Z 004305c0 f   foundation_win32.release:win32minidump.obj
 0001:0002f5e0       ??0ExitHandler@Core@@QAE@XZ 004305e0 f   foundation_win32.release:exithandler.obj
 0001:0002f610       ??_EExitHandler@Core@@UAEPAXI@Z 00430610 f i  CIL library: CIL module
 0001:0002f610       ??_GExitHandler@Core@@UAEPAXI@Z 00430610 f i foundation_win32.release:exithandler.obj
 0001:0002f640       ??1ExitHandler@Core@@UAE@XZ 00430640 f   foundation_win32.release:exithandler.obj
 0001:0002f660       ?Next@ExitHandler@Core@@QBEPBV12@XZ 00430660 f   foundation_win32.release:exithandler.obj
 0001:0002f680       ?OnExit@ExitHandler@Core@@UBEXXZ 00430680 f   foundation_win32.release:exithandler.obj
 0001:0002f690       ?IsValid@StringBuffer@Util@@QBE_NXZ 00430690 f i foundation_win32.release:stringbuffer.obj
 0001:0002f6b0       ??0StringBuffer@Util@@QAE@XZ 004306b0 f   foundation_win32.release:stringbuffer.obj
 0001:0002f6e0       ??1StringBuffer@Util@@QAE@XZ 004306e0 f   foundation_win32.release:stringbuffer.obj
 0001:0002f710       ?Setup@StringBuffer@Util@@QAEXH@Z 00430710 f   foundation_win32.release:stringbuffer.obj
 0001:0002f770       ?Discard@StringBuffer@Util@@QAEXXZ 00430770 f   foundation_win32.release:stringbuffer.obj
 0001:0002f810       ?AllocNewChunk@StringBuffer@Util@@AAEXXZ 00430810 f   foundation_win32.release:stringbuffer.obj
 0001:0002f850       ?AddString@StringBuffer@Util@@QAEPBDPBD@Z 00430850 f   foundation_win32.release:stringbuffer.obj
 0001:0002f970       ??0?$Array@PAD@Util@@QAE@XZ 00430970 f i foundation_win32.release:stringbuffer.obj
 0001:0002f9b0       ??1?$Array@PAD@Util@@QAE@XZ 004309b0 f i foundation_win32.release:stringbuffer.obj
 0001:0002f9d0       ??A?$Array@PAD@Util@@QBEAAPADH@Z 004309d0 f i foundation_win32.release:stringbuffer.obj
 0001:0002fa20       ?Append@?$Array@PAD@Util@@QAEXABQAD@Z 00430a20 f i foundation_win32.release:stringbuffer.obj
 0001:0002fa90       ?Back@?$Array@PAD@Util@@QBEAAPADXZ 00430a90 f i foundation_win32.release:stringbuffer.obj
 0001:0002fae0       ?Clear@?$Array@PAD@Util@@QAEXXZ 00430ae0 f i foundation_win32.release:stringbuffer.obj
 0001:0002fb30       ?Destroy@?$Array@PAD@Util@@AAEXPAPAD@Z 00430b30 f i foundation_win32.release:stringbuffer.obj
 0001:0002fb40       ?Delete@?$Array@PAD@Util@@AAEXXZ 00430b40 f i foundation_win32.release:stringbuffer.obj
 0001:0002fba0       ?Grow@?$Array@PAD@Util@@AAEXXZ 00430ba0 f i foundation_win32.release:stringbuffer.obj
 0001:0002fc20       ?GrowTo@?$Array@PAD@Util@@AAEXH@Z 00430c20 f i foundation_win32.release:stringbuffer.obj
 0001:0002fcd0       ?Add@Win360Interlocked@Win360@@SAHACHH@Z 00430cd0 f i foundation_win32.release:tpworkerthread.obj
 0001:0002fce0       ?n_min@Math@@YAHHH@Z       00430ce0 f i foundation_win32.release:tpworkerthread.obj
 0001:0002fd10       ?GetJob@TPJobSlice@Jobs@@QBEPAVTPJob@2@XZ 00430d10 f i foundation_win32.release:tpworkerthread.obj
 0001:0002fd20       ?GetSliceIndex@TPJobSlice@Jobs@@QBEHXZ 00430d20 f i foundation_win32.release:tpworkerthread.obj
 0001:0002fd40       ?GetCode@TPJobCommand@Jobs@@QBE?AW4Code@12@XZ 00430d40 f i foundation_win32.release:tpworkerthread.obj
 0001:0002fd50       ?GetSyncEvent@TPJobCommand@Jobs@@QBEPBVEvent@Threading@@XZ 00430d50 f i foundation_win32.release:tpworkerthread.obj
 0001:0002fd80       ?GetFirstSlice@TPJobCommand@Jobs@@QBEPAVTPJobSlice@2@XZ 00430d80 f i foundation_win32.release:tpworkerthread.obj
 0001:0002fdb0       ?GetNumSlices@TPJobCommand@Jobs@@QBEGXZ 00430db0 f i foundation_win32.release:tpworkerthread.obj
 0001:0002fdd0       ?GetStride@TPJobCommand@Jobs@@QBEGXZ 00430dd0 f i foundation_win32.release:tpworkerthread.obj
 0001:0002fdf0       ?Start@DebugTimer@Debug@@QAEXXZ 00430df0 f i foundation_win32.release:tpworkerthread.obj
 0001:0002fe10       ?Stop@DebugTimer@Debug@@QAEXXZ 00430e10 f i foundation_win32.release:tpworkerthread.obj
 0001:0002fe90       ??2TPWorkerThread@Jobs@@SAPAXI@Z 00430e90 f i foundation_win32.release:tpworkerthread.obj
 0001:0002fea0       ??3TPWorkerThread@Jobs@@SAXPAX@Z 00430ea0 f i foundation_win32.release:tpworkerthread.obj
 0001:0002fec0       ?GetNumBuffers@JobUniformDesc@Jobs@@QBEHXZ 00430ec0 f i foundation_win32.release:tpworkerthread.obj
 0001:0002fed0       ?GetPointer@JobUniformDesc@Jobs@@QBEPAXH@Z 00430ed0 f i foundation_win32.release:tpworkerthread.obj
 0001:0002ff10       ?GetBufferSize@JobUniformDesc@Jobs@@QBEHH@Z 00430f10 f i foundation_win32.release:tpworkerthread.obj
 0001:0002ff50       ?GetScratchSize@JobUniformDesc@Jobs@@QBEHXZ 00430f50 f i foundation_win32.release:tpworkerthread.obj
 0001:0002ff70       ?GetNumBuffers@JobDataDesc@Jobs@@QBEHXZ 00430f70 f i foundation_win32.release:tpworkerthread.obj
 0001:0002ff80       ?GetPointer@JobDataDesc@Jobs@@QBEPAXH@Z 00430f80 f i foundation_win32.release:tpworkerthread.obj
 0001:0002ffc0       ?GetBufferSize@JobDataDesc@Jobs@@QBEHH@Z 00430fc0 f i foundation_win32.release:tpworkerthread.obj
 0001:00030000       ?GetSliceSize@JobDataDesc@Jobs@@QBEHH@Z 00431000 f i foundation_win32.release:tpworkerthread.obj
 0001:00030060       ?GetFunctionPointer@TPJobFuncDesc@Jobs@@QBEP6AXABUJobFuncContext@@@ZXZ 00431060 f i foundation_win32.release:tpworkerthread.obj
 0001:00030070       ?GetUniformDesc@JobBase@Base@@QBEABVJobUniformDesc@Jobs@@XZ 00431070 f i foundation_win32.release:tpworkerthread.obj
 0001:00030090       ?GetInputDesc@JobBase@Base@@QBEABVJobDataDesc@Jobs@@XZ 00431090 f i foundation_win32.release:tpworkerthread.obj
 0001:000300b0       ?GetOutputDesc@JobBase@Base@@QBEABVJobDataDesc@Jobs@@XZ 004310b0 f i foundation_win32.release:tpworkerthread.obj
 0001:000300d0       ?GetFuncDesc@JobBase@Base@@QBEABVTPJobFuncDesc@Jobs@@XZ 004310d0 f i foundation_win32.release:tpworkerthread.obj
 0001:000300f0       ?NotifySlicesComplete@TPJob@Jobs@@AAEXG@Z 004310f0 f i foundation_win32.release:tpworkerthread.obj
 0001:00030130       ?HasInstance@DebugServer@Debug@@SA_NXZ 00431130 f i foundation_win32.release:tpworkerthread.obj
 0001:00030150       ?GetRtti@TPWorkerThread@Jobs@@UBEPAVRtti@Core@@XZ 00431150 f   foundation_win32.release:tpworkerthread.obj
 0001:00030160       ?FactoryCreator@TPWorkerThread@Jobs@@SAPAVRefCounted@Core@@XZ 00431160 f   foundation_win32.release:tpworkerthread.obj
 0001:00030170       ?Create@TPWorkerThread@Jobs@@SAPAV12@XZ 00431170 f   foundation_win32.release:tpworkerthread.obj
 0001:000301b0       ?RegisterWithFactory@TPWorkerThread@Jobs@@SA_NXZ 004311b0 f   foundation_win32.release:tpworkerthread.obj
 0001:000302b0       ??0TPWorkerThread@Jobs@@QAE@XZ 004312b0 f   foundation_win32.release:tpworkerthread.obj
 0001:00030310       ??_ETPWorkerThread@Jobs@@UAEPAXI@Z 00431310 f i  CIL library: CIL module
 0001:00030310       ??_GTPWorkerThread@Jobs@@UAEPAXI@Z 00431310 f i foundation_win32.release:tpworkerthread.obj
 0001:00030340       ??1?$SafeQueue@VTPJobCommand@Jobs@@@Threading@@QAE@XZ 00431340 f i foundation_win32.release:tpworkerthread.obj
 0001:00030380       ??1?$Queue@VTPJobCommand@Jobs@@@Util@@QAE@XZ 00431380 f i foundation_win32.release:tpworkerthread.obj
 0001:000303a0       ??1TPWorkerThread@Jobs@@UAE@XZ 004313a0 f   foundation_win32.release:tpworkerthread.obj
 0001:00030400       ?EmitWakeupSignal@TPWorkerThread@Jobs@@UAEXXZ 00431400 f   foundation_win32.release:tpworkerthread.obj
 0001:00030420       ?PushJobCommand@TPWorkerThread@Jobs@@QAEXABVTPJobCommand@2@@Z 00431420 f   foundation_win32.release:tpworkerthread.obj
 0001:00030440       ?DoWork@TPWorkerThread@Jobs@@UAEXXZ 00431440 f   foundation_win32.release:tpworkerthread.obj
 0001:000305d0       ?ProcessJobSlices@TPWorkerThread@Jobs@@AAEXPAVTPJobSlice@2@GG@Z 004315d0 f   foundation_win32.release:tpworkerthread.obj
 0001:00030bf0       ?Stop@TPWorkerThread@Jobs@@QAEXXZ 00431bf0 f   foundation_win32.release:tpworkerthread.obj
 0001:00030c40       ?Add@?$RingBuffer@N@Util@@QAEXABN@Z 00431c40 f i foundation_win32.release:tpworkerthread.obj
 0001:00030cf0       ??0?$Array@VTPJobCommand@Jobs@@@Util@@QAE@XZ 00431cf0 f i foundation_win32.release:tpworkerthread.obj
 0001:00030d30       ??1?$Array@VTPJobCommand@Jobs@@@Util@@QAE@XZ 00431d30 f i foundation_win32.release:tpworkerthread.obj
 0001:00030d50       ??A?$Array@VTPJobCommand@Jobs@@@Util@@QBEAAVTPJobCommand@Jobs@@H@Z 00431d50 f i foundation_win32.release:tpworkerthread.obj
 0001:00030da0       ?Size@?$Array@VTPJobCommand@Jobs@@@Util@@QBEHXZ 00431da0 f i foundation_win32.release:tpworkerthread.obj
 0001:00030dc0       ??0?$SafeQueue@VTPJobCommand@Jobs@@@Threading@@QAE@XZ 00431dc0 f i foundation_win32.release:tpworkerthread.obj
 0001:00030e30       ?SetSignalOnEnqueueEnabled@?$SafeQueue@VTPJobCommand@Jobs@@@Threading@@QAEX_N@Z 00431e30 f i foundation_win32.release:tpworkerthread.obj
 0001:00030e80       ?IsEmpty@?$SafeQueue@VTPJobCommand@Jobs@@@Threading@@QBE_NXZ 00431e80 f i foundation_win32.release:tpworkerthread.obj
 0001:00030ed0       ?Enqueue@?$SafeQueue@VTPJobCommand@Jobs@@@Threading@@QAEXABVTPJobCommand@Jobs@@@Z 00431ed0 f i foundation_win32.release:tpworkerthread.obj
 0001:00030f40       ?DequeueAll@?$SafeQueue@VTPJobCommand@Jobs@@@Threading@@QAEXAAV?$Array@VTPJobCommand@Jobs@@@Util@@@Z 00431f40 f i foundation_win32.release:tpworkerthread.obj
 0001:00030fa0       ?Wait@?$SafeQueue@VTPJobCommand@Jobs@@@Threading@@QAEXXZ 00431fa0 f i foundation_win32.release:tpworkerthread.obj
 0001:00030fe0       ?Signal@?$SafeQueue@VTPJobCommand@Jobs@@@Threading@@QAEXXZ 00431fe0 f i foundation_win32.release:tpworkerthread.obj
 0001:00031000       ??0?$Ptr@VDebugTimer@Debug@@@@QAE@XZ 00432000 f i foundation_win32.release:tpworkerthread.obj
 0001:00031020       ??1?$Ptr@VDebugTimer@Debug@@@@QAE@XZ 00432020 f i foundation_win32.release:tpworkerthread.obj
 0001:00031050       ??4?$Ptr@VDebugTimer@Debug@@@@QAEXPAVDebugTimer@Debug@@@Z 00432050 f i foundation_win32.release:tpworkerthread.obj
 0001:000310b0       ??C?$Ptr@VDebugTimer@Debug@@@@QBEPAVDebugTimer@Debug@@XZ 004320b0 f i foundation_win32.release:tpworkerthread.obj
 0001:000310f0       ?isvalid@?$Ptr@VDebugTimer@Debug@@@@QBE_NXZ 004320f0 f i foundation_win32.release:tpworkerthread.obj
 0001:00031110       ??4?$Array@VTPJobCommand@Jobs@@@Util@@QAEXABV01@@Z 00432110 f i foundation_win32.release:tpworkerthread.obj
 0001:00031210       ?Append@?$Array@VTPJobCommand@Jobs@@@Util@@QAEXABVTPJobCommand@Jobs@@@Z 00432210 f i foundation_win32.release:tpworkerthread.obj
 0001:00031290       ?IsEmpty@?$Array@VTPJobCommand@Jobs@@@Util@@QBE_NXZ 00432290 f i foundation_win32.release:tpworkerthread.obj
 0001:000312b0       ?Clear@?$Array@VTPJobCommand@Jobs@@@Util@@QAEXXZ 004322b0 f i foundation_win32.release:tpworkerthread.obj
 0001:00031300       ?Delete@?$Array@VTPJobCommand@Jobs@@@Util@@AAEXXZ 00432300 f i foundation_win32.release:tpworkerthread.obj
 0001:00031360       ??0?$Queue@VTPJobCommand@Jobs@@@Util@@QAE@XZ 00432360 f i foundation_win32.release:tpworkerthread.obj
 0001:00031380       ?Destroy@?$Array@VTPJobCommand@Jobs@@@Util@@AAEXPAVTPJobCommand@Jobs@@@Z 00432380 f i foundation_win32.release:tpworkerthread.obj
 0001:00031390       ?Copy@?$Array@VTPJobCommand@Jobs@@@Util@@AAEXABV12@@Z 00432390 f i foundation_win32.release:tpworkerthread.obj
 0001:000314d0       ?Grow@?$Array@VTPJobCommand@Jobs@@@Util@@AAEXXZ 004324d0 f i foundation_win32.release:tpworkerthread.obj
 0001:00031550       ?GrowTo@?$Array@VTPJobCommand@Jobs@@@Util@@AAEXH@Z 00432550 f i foundation_win32.release:tpworkerthread.obj
 0001:00031660       ?UTF8ToWide@Win32StringConverter@Win32@@SAHABVString@Util@@PAGH@Z 00432660 f   foundation_win32.release:win32stringconverter.obj
 0001:000316a0       ?UTF8ToWide@Win32StringConverter@Win32@@SAHPBDPAGH@Z 004326a0 f   foundation_win32.release:win32stringconverter.obj
 0001:00031810       ?WideToUTF8@Win32StringConverter@Win32@@SA?AVString@Util@@PAG@Z 00432810 f   foundation_win32.release:win32stringconverter.obj
 0001:00031940       ??2FileStream@IO@@SAPAXI@Z 00432940 f i foundation_win32.release:filestream.obj
 0001:00031950       ??3FileStream@IO@@SAXPAX@Z 00432950 f i foundation_win32.release:filestream.obj
 0001:00031970       ?GetRtti@FileStream@IO@@UBEPAVRtti@Core@@XZ 00432970 f   foundation_win32.release:filestream.obj
 0001:00031980       ?FactoryCreator@FileStream@IO@@SAPAVRefCounted@Core@@XZ 00432980 f   foundation_win32.release:filestream.obj
 0001:00031990       ?Create@FileStream@IO@@SAPAV12@XZ 00432990 f   foundation_win32.release:filestream.obj
 0001:000319d0       ?RegisterWithFactory@FileStream@IO@@SA_NXZ 004329d0 f   foundation_win32.release:filestream.obj
 0001:00031ad0       ??0FileStream@IO@@QAE@XZ   00432ad0 f   foundation_win32.release:filestream.obj
 0001:00031b10       ??_EFileStream@IO@@UAEPAXI@Z 00432b10 f i  CIL library: CIL module
 0001:00031b10       ??_GFileStream@IO@@UAEPAXI@Z 00432b10 f i foundation_win32.release:filestream.obj
 0001:00031b40       ??1FileStream@IO@@UAE@XZ   00432b40 f   foundation_win32.release:filestream.obj
 0001:00031b80       ?CanRead@FileStream@IO@@UBE_NXZ 00432b80 f   foundation_win32.release:filestream.obj
 0001:00031b90       ?CanWrite@FileStream@IO@@UBE_NXZ 00432b90 f   foundation_win32.release:filestream.obj
 0001:00031ba0       ?CanSeek@FileStream@IO@@UBE_NXZ 00432ba0 f   foundation_win32.release:filestream.obj
 0001:00031bb0       ?CanBeMapped@FileStream@IO@@UBE_NXZ 00432bb0 f   foundation_win32.release:filestream.obj
 0001:00031bc0       ?GetSize@FileStream@IO@@UBEHXZ 00432bc0 f   foundation_win32.release:filestream.obj
 0001:00031c00       ?GetPosition@FileStream@IO@@UBEHXZ 00432c00 f   foundation_win32.release:filestream.obj
 0001:00031c40       ?Open@FileStream@IO@@UAE_NXZ 00432c40 f   foundation_win32.release:filestream.obj
 0001:00031d80       ?Close@FileStream@IO@@UAEXXZ 00432d80 f   foundation_win32.release:filestream.obj
 0001:00031e20       ?Write@FileStream@IO@@UAEXPBXH@Z 00432e20 f   foundation_win32.release:filestream.obj
 0001:00031ee0       ?Read@FileStream@IO@@UAEHPAXH@Z 00432ee0 f   foundation_win32.release:filestream.obj
 0001:00031fb0       ?Seek@FileStream@IO@@UAEXHW4SeekOrigin@Stream@2@@Z 00432fb0 f   foundation_win32.release:filestream.obj
 0001:00032050       ?Flush@FileStream@IO@@UAEXXZ 00433050 f   foundation_win32.release:filestream.obj
 0001:000320e0       ?Eof@FileStream@IO@@UBE_NXZ 004330e0 f   foundation_win32.release:filestream.obj
 0001:00032170       ?Map@FileStream@IO@@UAEPAXXZ 00433170 f   foundation_win32.release:filestream.obj
 0001:00032250       ?Unmap@FileStream@IO@@UAEXXZ 00433250 f   foundation_win32.release:filestream.obj
 0001:000322b0       ??2HttpStream@Http@@SAPAXI@Z 004332b0 f i foundation_win32.release:httpstream.obj
 0001:000322c0       ??3HttpStream@Http@@SAXPAX@Z 004332c0 f i foundation_win32.release:httpstream.obj
 0001:000322e0       ?Instance@HttpClientRegistry@Http@@SAPAV12@XZ 004332e0 f i foundation_win32.release:httpstream.obj
 0001:00032320       ?GetRtti@HttpStream@Http@@UBEPAVRtti@Core@@XZ 00433320 f   foundation_win32.release:httpstream.obj
 0001:00032330       ?FactoryCreator@HttpStream@Http@@SAPAVRefCounted@Core@@XZ 00433330 f   foundation_win32.release:httpstream.obj
 0001:00032340       ?Create@HttpStream@Http@@SAPAV12@XZ 00433340 f   foundation_win32.release:httpstream.obj
 0001:00032380       ?RegisterWithFactory@HttpStream@Http@@SA_NXZ 00433380 f   foundation_win32.release:httpstream.obj
 0001:00032480       ??0HttpStream@Http@@QAE@XZ 00433480 f   foundation_win32.release:httpstream.obj
 0001:000324a0       ??_GHttpStream@Http@@UAEPAXI@Z 004334a0 f i foundation_win32.release:httpstream.obj
 0001:000324a0       ??_EHttpStream@Http@@UAEPAXI@Z 004334a0 f i  CIL library: CIL module
 0001:000324d0       ??1HttpStream@Http@@UAE@XZ 004334d0 f   foundation_win32.release:httpstream.obj
 0001:00032510       ?Open@HttpStream@Http@@UAE_NXZ 00433510 f   foundation_win32.release:httpstream.obj
 0001:00032700       ??1?$Ptr@VHttpClient@Http@@@@QAE@XZ 00433700 f i foundation_win32.release:httpstream.obj
 0001:00032730       ??C?$Ptr@VHttpClient@Http@@@@QBEPAVHttpClient@Http@@XZ 00433730 f i foundation_win32.release:httpstream.obj
 0001:00032770       ??2HttpNzStream@Http@@SAPAXI@Z 00433770 f i foundation_win32.release:httpnzstream.obj
 0001:00032780       ??3HttpNzStream@Http@@SAXPAX@Z 00433780 f i foundation_win32.release:httpnzstream.obj
 0001:000327a0       ?GetRtti@HttpNzStream@Http@@UBEPAVRtti@Core@@XZ 004337a0 f   foundation_win32.release:httpnzstream.obj
 0001:000327b0       ?FactoryCreator@HttpNzStream@Http@@SAPAVRefCounted@Core@@XZ 004337b0 f   foundation_win32.release:httpnzstream.obj
 0001:000327c0       ?Create@HttpNzStream@Http@@SAPAV12@XZ 004337c0 f   foundation_win32.release:httpnzstream.obj
 0001:00032800       ?RegisterWithFactory@HttpNzStream@Http@@SA_NXZ 00433800 f   foundation_win32.release:httpnzstream.obj
 0001:00032900       ??0HttpNzStream@Http@@QAE@XZ 00433900 f   foundation_win32.release:httpnzstream.obj
 0001:00032920       ??_EHttpNzStream@Http@@UAEPAXI@Z 00433920 f i  CIL library: CIL module
 0001:00032920       ??_GHttpNzStream@Http@@UAEPAXI@Z 00433920 f i foundation_win32.release:httpnzstream.obj
 0001:00032950       ??1HttpNzStream@Http@@UAE@XZ 00433950 f   foundation_win32.release:httpnzstream.obj
 0001:00032990       ?Open@HttpNzStream@Http@@UAE_NXZ 00433990 f   foundation_win32.release:httpnzstream.obj
 0001:00032e30       ??0?$Ptr@VMemoryStream@IO@@@@QAE@PAVMemoryStream@IO@@@Z 00433e30 f i foundation_win32.release:httpnzstream.obj
 0001:00032e70       ??1?$Ptr@VMemoryStream@IO@@@@QAE@XZ 00433e70 f i foundation_win32.release:httpnzstream.obj
 0001:00032ea0       ??4?$Ptr@VMemoryStream@IO@@@@QAEXPAVMemoryStream@IO@@@Z 00433ea0 f i foundation_win32.release:httpnzstream.obj
 0001:00032f00       ??C?$Ptr@VMemoryStream@IO@@@@QBEPAVMemoryStream@IO@@XZ 00433f00 f i foundation_win32.release:httpnzstream.obj
 0001:00032f40       ??$upcast@VStream@IO@@@?$Ptr@VMemoryStream@IO@@@@QBEABV?$Ptr@VStream@IO@@@@XZ 00433f40 f i foundation_win32.release:httpnzstream.obj
 0001:00032f50       ?n_iclamp@Math@@YAHHHH@Z   00433f50 f i foundation_win32.release:zipfilestream.obj
 0001:00032f80       ??2ZipFileStream@IO@@SAPAXI@Z 00433f80 f i foundation_win32.release:zipfilestream.obj
 0001:00032f90       ??3ZipFileStream@IO@@SAXPAX@Z 00433f90 f i foundation_win32.release:zipfilestream.obj
 0001:00032fb0       ?Instance@ZipFileSystem@IO@@SAPAV12@XZ 00433fb0 f i foundation_win32.release:zipfilestream.obj
 0001:00032fe0       ?GetFileSize@ZipFileEntry@IO@@QBEHXZ 00433fe0 f i foundation_win32.release:zipfilestream.obj
 0001:00033000       ?GetRtti@ZipFileStream@IO@@UBEPAVRtti@Core@@XZ 00434000 f   foundation_win32.release:zipfilestream.obj
 0001:00033010       ?FactoryCreator@ZipFileStream@IO@@SAPAVRefCounted@Core@@XZ 00434010 f   foundation_win32.release:zipfilestream.obj
 0001:00033020       ?Create@ZipFileStream@IO@@SAPAV12@XZ 00434020 f   foundation_win32.release:zipfilestream.obj
 0001:00033060       ?RegisterWithFactory@ZipFileStream@IO@@SA_NXZ 00434060 f   foundation_win32.release:zipfilestream.obj
 0001:00033160       ??0ZipFileStream@IO@@QAE@XZ 00434160 f   foundation_win32.release:zipfilestream.obj
 0001:000331b0       ??_EZipFileStream@IO@@UAEPAXI@Z 004341b0 f i  CIL library: CIL module
 0001:000331b0       ??_GZipFileStream@IO@@UAEPAXI@Z 004341b0 f i foundation_win32.release:zipfilestream.obj
 0001:000331e0       ??1ZipFileStream@IO@@UAE@XZ 004341e0 f   foundation_win32.release:zipfilestream.obj
 0001:00033240       ?CanRead@ZipFileStream@IO@@UBE_NXZ 00434240 f   foundation_win32.release:zipfilestream.obj
 0001:00033250       ?CanWrite@ZipFileStream@IO@@UBE_NXZ 00434250 f   foundation_win32.release:zipfilestream.obj
 0001:00033260       ?CanSeek@ZipFileStream@IO@@UBE_NXZ 00434260 f   foundation_win32.release:zipfilestream.obj
 0001:00033270       ?CanBeMapped@ZipFileStream@IO@@UBE_NXZ 00434270 f   foundation_win32.release:zipfilestream.obj
 0001:00033280       ?GetSize@ZipFileStream@IO@@UBEHXZ 00434280 f   foundation_win32.release:zipfilestream.obj
 0001:000332a0       ?GetPosition@ZipFileStream@IO@@UBEHXZ 004342a0 f   foundation_win32.release:zipfilestream.obj
 0001:000332c0       ?Open@ZipFileStream@IO@@UAE_NXZ 004342c0 f   foundation_win32.release:zipfilestream.obj
 0001:00033710       ?Close@ZipFileStream@IO@@UAEXXZ 00434710 f   foundation_win32.release:zipfilestream.obj
 0001:000337b0       ?Read@ZipFileStream@IO@@UAEHPAXH@Z 004347b0 f   foundation_win32.release:zipfilestream.obj
 0001:00033950       ?Seek@ZipFileStream@IO@@UAEXHW4SeekOrigin@Stream@2@@Z 00434950 f   foundation_win32.release:zipfilestream.obj
 0001:00033b70       ?Eof@ZipFileStream@IO@@UBE_NXZ 00434b70 f   foundation_win32.release:zipfilestream.obj
 0001:00033c20       ?Map@ZipFileStream@IO@@UAEPAXXZ 00434c20 f   foundation_win32.release:zipfilestream.obj
 0001:00033d60       ?Unmap@ZipFileStream@IO@@UAEXXZ 00434d60 f   foundation_win32.release:zipfilestream.obj
 0001:00033de0       ??0?$Ptr@VZipArchive@IO@@@@QAE@ABV0@@Z 00434de0 f i foundation_win32.release:zipfilestream.obj
 0001:00033e20       ??A?$Dictionary@VString@Util@@V12@@Util@@QAEAAVString@1@ABV21@@Z 00434e20 f i foundation_win32.release:zipfilestream.obj
 0001:00033e70       ?Contains@?$Dictionary@VString@Util@@V12@@Util@@QBE_NABVString@2@@Z 00434e70 f i foundation_win32.release:zipfilestream.obj
 0001:00033ed0       ?FindIndex@?$Dictionary@VString@Util@@V12@@Util@@QBEHABVString@2@@Z 00434ed0 f i foundation_win32.release:zipfilestream.obj
 0001:00033f30       ??2Archive@IO@@SAPAXI@Z    00434f30 f i foundation_win32.release:archive.obj
 0001:00033f40       ??3Archive@IO@@SAXPAX@Z    00434f40 f i foundation_win32.release:archive.obj
 0001:00033f60       ?GetRtti@Archive@IO@@UBEPAVRtti@Core@@XZ 00434f60 f   foundation_win32.release:archive.obj
 0001:00033f70       ?FactoryCreator@Archive@IO@@SAPAVRefCounted@Core@@XZ 00434f70 f   foundation_win32.release:archive.obj
 0001:00033f80       ?Create@Archive@IO@@SAPAV12@XZ 00434f80 f   foundation_win32.release:archive.obj
 0001:00033fc0       ??0Archive@IO@@QAE@XZ      00434fc0 f i foundation_win32.release:archive.obj
 0001:00033fe0       ??_GArchive@IO@@UAEPAXI@Z  00434fe0 f i foundation_win32.release:archive.obj
 0001:00033fe0       ??_EArchive@IO@@UAEPAXI@Z  00434fe0 f i  CIL library: CIL module
 0001:00034010       ??1Archive@IO@@UAE@XZ      00435010 f i foundation_win32.release:archive.obj
 0001:00034030       ?RegisterWithFactory@Archive@IO@@SA_NXZ 00435030 f   foundation_win32.release:archive.obj
 0001:00034130       ??2ArchiveBase@IO@@SAPAXI@Z 00435130 f i foundation_win32.release:archivebase.obj
 0001:00034140       ??3ArchiveBase@IO@@SAXPAX@Z 00435140 f i foundation_win32.release:archivebase.obj
 0001:00034160       ?GetRtti@ArchiveBase@IO@@UBEPAVRtti@Core@@XZ 00435160 f   foundation_win32.release:archivebase.obj
 0001:00034170       ?FactoryCreator@ArchiveBase@IO@@SAPAVRefCounted@Core@@XZ 00435170 f   foundation_win32.release:archivebase.obj
 0001:00034180       ?Create@ArchiveBase@IO@@SAPAV12@XZ 00435180 f   foundation_win32.release:archivebase.obj
 0001:000341c0       ?RegisterWithFactory@ArchiveBase@IO@@SA_NXZ 004351c0 f   foundation_win32.release:archivebase.obj
 0001:000342c0       ??0ArchiveBase@IO@@QAE@XZ  004352c0 f   foundation_win32.release:archivebase.obj
 0001:00034300       ??_GArchiveBase@IO@@UAEPAXI@Z 00435300 f i foundation_win32.release:archivebase.obj
 0001:00034300       ??_EArchiveBase@IO@@UAEPAXI@Z 00435300 f i  CIL library: CIL module
 0001:00034330       ??1ArchiveBase@IO@@UAE@XZ  00435330 f   foundation_win32.release:archivebase.obj
 0001:00034380       ?Setup@ArchiveBase@IO@@QAE_NABVURI@2@@Z 00435380 f   foundation_win32.release:archivebase.obj
 0001:000343d0       ?Discard@ArchiveBase@IO@@QAEXXZ 004353d0 f   foundation_win32.release:archivebase.obj
 0001:00034410       ?ListFiles@ArchiveBase@IO@@QBE?AV?$Array@VString@Util@@@Util@@ABVString@4@0@Z 00435410 f   foundation_win32.release:archivebase.obj
 0001:00034440       ?ListDirectories@ArchiveBase@IO@@QBE?AV?$Array@VString@Util@@@Util@@ABVString@4@0@Z 00435440 f   foundation_win32.release:archivebase.obj
 0001:00034470       ?ConvertToArchiveURI@ArchiveBase@IO@@QBE?AVURI@2@ABV32@@Z 00435470 f   foundation_win32.release:archivebase.obj
 0001:00034490       ?ConvertToPathInArchive@ArchiveBase@IO@@QBE?AVString@Util@@ABV34@@Z 00435490 f   foundation_win32.release:archivebase.obj
 0001:000344f0       ??0StringAtom@Util@@QAE@ABV01@@Z 004354f0 f i foundation_win32.release:zipdirentry.obj
 0001:00034510       ??9StringAtom@Util@@QBE_NABV01@@Z 00435510 f i foundation_win32.release:zipdirentry.obj
 0001:00034530       ??OStringAtom@Util@@QBE_NABV01@@Z 00435530 f i foundation_win32.release:zipdirentry.obj
 0001:00034550       ??MStringAtom@Util@@QBE_NABV01@@Z 00435550 f i foundation_win32.release:zipdirentry.obj
 0001:00034570       ?IsValid@StringAtom@Util@@QBE_NXZ 00435570 f i foundation_win32.release:zipdirentry.obj
 0001:000345b0       ?SetName@ZipDirEntry@IO@@AAEXABVStringAtom@Util@@@Z 004355b0 f i foundation_win32.release:zipdirentry.obj
 0001:000345d0       ??0ZipDirEntry@IO@@QAE@XZ  004355d0 f   foundation_win32.release:zipdirentry.obj
 0001:00034620       ?AddFileEntry@ZipDirEntry@IO@@AAEPAVZipFileEntry@2@ABVStringAtom@Util@@@Z 00435620 f   foundation_win32.release:zipdirentry.obj
 0001:00034690       ?AddDirEntry@ZipDirEntry@IO@@AAEPAV12@ABVStringAtom@Util@@@Z 00435690 f   foundation_win32.release:zipdirentry.obj
 0001:00034710       ?FindFileEntry@ZipDirEntry@IO@@QBEPAVZipFileEntry@2@ABVStringAtom@Util@@@Z 00435710 f   foundation_win32.release:zipdirentry.obj
 0001:000347a0       ?FindDirEntry@ZipDirEntry@IO@@QBEPAV12@ABVStringAtom@Util@@@Z 004357a0 f   foundation_win32.release:zipdirentry.obj
 0001:00034830       ??0?$Array@VZipFileEntry@IO@@@Util@@QAE@XZ 00435830 f i foundation_win32.release:zipdirentry.obj
 0001:00034870       ?Append@?$Array@VZipFileEntry@IO@@@Util@@QAEXABVZipFileEntry@IO@@@Z 00435870 f i foundation_win32.release:zipdirentry.obj
 0001:00034920       ?Back@?$Array@VZipFileEntry@IO@@@Util@@QBEAAVZipFileEntry@IO@@XZ 00435920 f i foundation_win32.release:zipdirentry.obj
 0001:00034970       ??0?$Array@VZipDirEntry@IO@@@Util@@QAE@XZ 00435970 f i foundation_win32.release:zipdirentry.obj
 0001:000349b0       ?Append@?$Array@VZipDirEntry@IO@@@Util@@QAEXABVZipDirEntry@IO@@@Z 004359b0 f i foundation_win32.release:zipdirentry.obj
 0001:00034a30       ?Back@?$Array@VZipDirEntry@IO@@@Util@@QBEAAVZipDirEntry@IO@@XZ 00435a30 f i foundation_win32.release:zipdirentry.obj
 0001:00034a80       ??0?$Dictionary@VStringAtom@Util@@H@Util@@QAE@XZ 00435a80 f i foundation_win32.release:zipdirentry.obj
 0001:00034aa0       ?Add@?$Dictionary@VStringAtom@Util@@H@Util@@QAEXABVStringAtom@2@ABH@Z 00435aa0 f i foundation_win32.release:zipdirentry.obj
 0001:00034af0       ?FindIndex@?$Dictionary@VStringAtom@Util@@H@Util@@QBEHABVStringAtom@2@@Z 00435af0 f i foundation_win32.release:zipdirentry.obj
 0001:00034b40       ?ValueAtIndex@?$Dictionary@VStringAtom@Util@@H@Util@@QBEABHH@Z 00435b40 f i foundation_win32.release:zipdirentry.obj
 0001:00034b90       ??4ZipFileEntry@IO@@QAEAAV01@ABV01@@Z 00435b90 f i foundation_win32.release:zipdirentry.obj
 0001:00034be0       ??4ZipDirEntry@IO@@QAEAAV01@ABV01@@Z 00435be0 f i foundation_win32.release:zipdirentry.obj
 0001:00034c50       ??4?$Array@VZipFileEntry@IO@@@Util@@QAEXABV01@@Z 00435c50 f i foundation_win32.release:zipdirentry.obj
 0001:00034d80       ?Grow@?$Array@VZipFileEntry@IO@@@Util@@AAEXXZ 00435d80 f i foundation_win32.release:zipdirentry.obj
 0001:00034e00       ??4?$Array@VZipDirEntry@IO@@@Util@@QAEXABV01@@Z 00435e00 f i foundation_win32.release:zipdirentry.obj
 0001:00034ef0       ?Grow@?$Array@VZipDirEntry@IO@@@Util@@AAEXXZ 00435ef0 f i foundation_win32.release:zipdirentry.obj
 0001:00034f70       ??0?$Array@V?$KeyValuePair@VStringAtom@Util@@H@Util@@@Util@@QAE@XZ 00435f70 f i foundation_win32.release:zipdirentry.obj
 0001:00034fb0       ??A?$Array@V?$KeyValuePair@VStringAtom@Util@@H@Util@@@Util@@QBEAAV?$KeyValuePair@VStringAtom@Util@@H@1@H@Z 00435fb0 f i foundation_win32.release:zipdirentry.obj
 0001:00035000       ?Append@?$Array@V?$KeyValuePair@VStringAtom@Util@@H@Util@@@Util@@QAEXABV?$KeyValuePair@VStringAtom@Util@@H@2@@Z 00436000 f i foundation_win32.release:zipdirentry.obj
 0001:00035080       ?InsertSorted@?$Array@V?$KeyValuePair@VStringAtom@Util@@H@Util@@@Util@@QAEHABV?$KeyValuePair@VStringAtom@Util@@H@2@@Z 00436080 f i foundation_win32.release:zipdirentry.obj
 0001:000352f0       ?BinarySearchIndex@?$Array@V?$KeyValuePair@VStringAtom@Util@@H@Util@@@Util@@QBEHABV?$KeyValuePair@VStringAtom@Util@@H@2@@Z 004362f0 f i foundation_win32.release:zipdirentry.obj
 0001:00035420       ??4?$Dictionary@VStringAtom@Util@@H@Util@@QAEXABV01@@Z 00436420 f i foundation_win32.release:zipdirentry.obj
 0001:00035480       ??0?$KeyValuePair@VStringAtom@Util@@H@Util@@QAE@ABVStringAtom@1@@Z 00436480 f i foundation_win32.release:zipdirentry.obj
 0001:000354a0       ??0?$KeyValuePair@VStringAtom@Util@@H@Util@@QAE@ABVStringAtom@1@ABH@Z 004364a0 f i foundation_win32.release:zipdirentry.obj
 0001:000354d0       ?Value@?$KeyValuePair@VStringAtom@Util@@H@Util@@QAEAAHXZ 004364d0 f i foundation_win32.release:zipdirentry.obj
 0001:000354f0       ?Destroy@?$Array@VZipFileEntry@IO@@@Util@@AAEXPAVZipFileEntry@IO@@@Z 004364f0 f i foundation_win32.release:zipdirentry.obj
 0001:00035520       ?Copy@?$Array@VZipFileEntry@IO@@@Util@@AAEXABV12@@Z 00436520 f i foundation_win32.release:zipdirentry.obj
 0001:00035690       ?GrowTo@?$Array@VZipFileEntry@IO@@@Util@@AAEXH@Z 00436690 f i foundation_win32.release:zipdirentry.obj
 0001:000357f0       ?Destroy@?$Array@VZipDirEntry@IO@@@Util@@AAEXPAVZipDirEntry@IO@@@Z 004367f0 f i foundation_win32.release:zipdirentry.obj
 0001:00035820       ?Copy@?$Array@VZipDirEntry@IO@@@Util@@AAEXABV12@@Z 00436820 f i foundation_win32.release:zipdirentry.obj
 0001:00035950       ?GrowTo@?$Array@VZipDirEntry@IO@@@Util@@AAEXH@Z 00436950 f i foundation_win32.release:zipdirentry.obj
 0001:00035a70       ??4?$Array@V?$KeyValuePair@VStringAtom@Util@@H@Util@@@Util@@QAEXABV01@@Z 00436a70 f i foundation_win32.release:zipdirentry.obj
 0001:00035b60       ?Size@?$Array@V?$KeyValuePair@VStringAtom@Util@@H@Util@@@Util@@QBEHXZ 00436b60 f i foundation_win32.release:zipdirentry.obj
 0001:00035b80       ?Insert@?$Array@V?$KeyValuePair@VStringAtom@Util@@H@Util@@@Util@@QAEXHABV?$KeyValuePair@VStringAtom@Util@@H@2@@Z 00436b80 f i foundation_win32.release:zipdirentry.obj
 0001:00035bf0       ?InsertAtEndOfIdenticalRange@?$Array@V?$KeyValuePair@VStringAtom@Util@@H@Util@@@Util@@QAEHHABV?$KeyValuePair@VStringAtom@Util@@H@2@@Z 00436bf0 f i foundation_win32.release:zipdirentry.obj
 0001:00035c70       ?Grow@?$Array@V?$KeyValuePair@VStringAtom@Util@@H@Util@@@Util@@AAEXXZ 00436c70 f i foundation_win32.release:zipdirentry.obj
 0001:00035cf0       ??4?$KeyValuePair@VStringAtom@Util@@H@Util@@QAEXABV01@@Z 00436cf0 f i foundation_win32.release:zipdirentry.obj
 0001:00035d20       ??9?$KeyValuePair@VStringAtom@Util@@H@Util@@QBE_NABV01@@Z 00436d20 f i foundation_win32.release:zipdirentry.obj
 0001:00035d40       ??O?$KeyValuePair@VStringAtom@Util@@H@Util@@QBE_NABV01@@Z 00436d40 f i foundation_win32.release:zipdirentry.obj
 0001:00035d60       ??M?$KeyValuePair@VStringAtom@Util@@H@Util@@QBE_NABV01@@Z 00436d60 f i foundation_win32.release:zipdirentry.obj
 0001:00035d80       ??_GZipFileEntry@IO@@QAEPAXI@Z 00436d80 f i foundation_win32.release:zipdirentry.obj
 0001:00035db0       ??_GZipDirEntry@IO@@QAEPAXI@Z 00436db0 f i foundation_win32.release:zipdirentry.obj
 0001:00035de0       ?Destroy@?$Array@V?$KeyValuePair@VStringAtom@Util@@H@Util@@@Util@@AAEXPAV?$KeyValuePair@VStringAtom@Util@@H@2@@Z 00436de0 f i foundation_win32.release:zipdirentry.obj
 0001:00035df0       ?Copy@?$Array@V?$KeyValuePair@VStringAtom@Util@@H@Util@@@Util@@AAEXABV12@@Z 00436df0 f i foundation_win32.release:zipdirentry.obj
 0001:00035f10       ?GrowTo@?$Array@V?$KeyValuePair@VStringAtom@Util@@H@Util@@@Util@@AAEXH@Z 00436f10 f i foundation_win32.release:zipdirentry.obj
 0001:00036000       ?Move@?$Array@V?$KeyValuePair@VStringAtom@Util@@H@Util@@@Util@@AAEXHH@Z 00437000 f i foundation_win32.release:zipdirentry.obj
 0001:00036190       ??0?$KeyValuePair@VStringAtom@Util@@H@Util@@QAE@XZ 00437190 f i foundation_win32.release:zipdirentry.obj
 0001:000361b0       ??0ZipFileEntry@IO@@QAE@XZ 004371b0 f   foundation_win32.release:zipfileentry.obj
 0001:00036200       ??1ZipFileEntry@IO@@QAE@XZ 00437200 f   foundation_win32.release:zipfileentry.obj
 0001:00036220       ?Setup@ZipFileEntry@IO@@AAEXABVStringAtom@Util@@PAXPAVCriticalSection@Threading@@@Z 00437220 f   foundation_win32.release:zipfileentry.obj
 0001:00036320       ?Open@ZipFileEntry@IO@@QAE_NABVString@Util@@@Z 00437320 f   foundation_win32.release:zipfileentry.obj
 0001:00036420       ?Close@ZipFileEntry@IO@@QAEXXZ 00437420 f   foundation_win32.release:zipfileentry.obj
 0001:00036490       ?Read@ZipFileEntry@IO@@QBE_NPAXH@Z 00437490 f   foundation_win32.release:zipfileentry.obj
 0001:00036520       ??2Thread@Threading@@SAPAXI@Z 00437520 f i foundation_win32.release:thread.obj
 0001:00036530       ?GetRtti@Thread@Threading@@UBEPAVRtti@Core@@XZ 00437530 f   foundation_win32.release:thread.obj
 0001:00036540       ?FactoryCreator@Thread@Threading@@SAPAVRefCounted@Core@@XZ 00437540 f   foundation_win32.release:thread.obj
 0001:00036550       ?Create@Thread@Threading@@SAPAV12@XZ 00437550 f   foundation_win32.release:thread.obj
 0001:00036590       ?RegisterWithFactory@Thread@Threading@@SA_NXZ 00437590 f   foundation_win32.release:thread.obj
 0001:00036690       ??2BatchMessage@Messaging@@SAPAXI@Z 00437690 f i foundation_win32.release:batchmessage.obj
 0001:000366a0       ??3BatchMessage@Messaging@@SAXPAX@Z 004376a0 f i foundation_win32.release:batchmessage.obj
 0001:000366c0       ?GetRtti@BatchMessage@Messaging@@UBEPAVRtti@Core@@XZ 004376c0 f   foundation_win32.release:batchmessage.obj
 0001:000366d0       ?FactoryCreator@BatchMessage@Messaging@@SAPAVRefCounted@Core@@XZ 004376d0 f   foundation_win32.release:batchmessage.obj
 0001:000366e0       ?Create@BatchMessage@Messaging@@SAPAV12@XZ 004376e0 f   foundation_win32.release:batchmessage.obj
 0001:00036720       ?RegisterWithFactory@BatchMessage@Messaging@@SA_NXZ 00437720 f   foundation_win32.release:batchmessage.obj
 0001:00036820       ?GetId@BatchMessage@Messaging@@UBEABVId@2@XZ 00437820 f   foundation_win32.release:batchmessage.obj
 0001:00036830       ??0BatchMessage@Messaging@@QAE@XZ 00437830 f   foundation_win32.release:batchmessage.obj
 0001:00036870       ??_EBatchMessage@Messaging@@UAEPAXI@Z 00437870 f i  CIL library: CIL module
 0001:00036870       ??_GBatchMessage@Messaging@@UAEPAXI@Z 00437870 f i foundation_win32.release:batchmessage.obj
 0001:000368b0       ??1BatchMessage@Messaging@@UAE@XZ 004378b0 f i foundation_win32.release:batchmessage.obj
 0001:000368d0       ?AddMessage@BatchMessage@Messaging@@QAEXABV?$Ptr@VMessage@Messaging@@@@@Z 004378d0 f   foundation_win32.release:batchmessage.obj
 0001:000368f0       ?GetMessages@BatchMessage@Messaging@@QBEABV?$Array@V?$Ptr@VMessage@Messaging@@@@@Util@@XZ 004378f0 f   foundation_win32.release:batchmessage.obj
 0001:00036910       ??0?$Array@V?$Ptr@VMessage@Messaging@@@@@Util@@QAE@HH@Z 00437910 f i foundation_win32.release:batchmessage.obj
 0001:00036a00       ??2InterfaceHandlerBase@Interface@@SAPAXI@Z 00437a00 f i foundation_win32.release:interfacehandlerbase.obj
 0001:00036a10       ??3InterfaceHandlerBase@Interface@@SAXPAX@Z 00437a10 f i foundation_win32.release:interfacehandlerbase.obj
 0001:00036a30       ?GetRtti@InterfaceHandlerBase@Interface@@UBEPAVRtti@Core@@XZ 00437a30 f   foundation_win32.release:interfacehandlerbase.obj
 0001:00036a40       ?FactoryCreator@InterfaceHandlerBase@Interface@@SAPAVRefCounted@Core@@XZ 00437a40 f   foundation_win32.release:interfacehandlerbase.obj
 0001:00036a50       ?Create@InterfaceHandlerBase@Interface@@SAPAV12@XZ 00437a50 f   foundation_win32.release:interfacehandlerbase.obj
 0001:00036a90       ?RegisterWithFactory@InterfaceHandlerBase@Interface@@SA_NXZ 00437a90 f   foundation_win32.release:interfacehandlerbase.obj
 0001:00036b90       ??0InterfaceHandlerBase@Interface@@QAE@XZ 00437b90 f   foundation_win32.release:interfacehandlerbase.obj
 0001:00036be0       ??_GInterfaceHandlerBase@Interface@@UAEPAXI@Z 00437be0 f i foundation_win32.release:interfacehandlerbase.obj
 0001:00036be0       ??_EInterfaceHandlerBase@Interface@@UAEPAXI@Z 00437be0 f i  CIL library: CIL module
 0001:00036c10       ?DoWork@InterfaceHandlerBase@Interface@@UAEXXZ 00437c10 f   foundation_win32.release:interfacehandlerbase.obj
 0001:00036c20       ?CheckValidCharSet@String@Util@@QBE_NABV12@@Z 00437c20 f i foundation_win32.release:win360ipaddress.obj
 0001:00036cc0       ?Host@URI@IO@@QBEABVString@Util@@XZ 00437cc0 f i foundation_win32.release:win360ipaddress.obj
 0001:00036ce0       ?Port@URI@IO@@QBEABVString@Util@@XZ 00437ce0 f i foundation_win32.release:win360ipaddress.obj
 0001:00036d00       ??0Win360IpAddress@Win360@@QAE@XZ 00437d00 f   foundation_win32.release:win360ipaddress.obj
 0001:00036d90       ??0Win360IpAddress@Win360@@QAE@ABV01@@Z 00437d90 f   foundation_win32.release:win360ipaddress.obj
 0001:00036e70       ??0Win360IpAddress@Win360@@QAE@ABVString@Util@@G@Z 00437e70 f   foundation_win32.release:win360ipaddress.obj
 0001:00036f10       ??0Win360IpAddress@Win360@@QAE@ABVURI@IO@@@Z 00437f10 f   foundation_win32.release:win360ipaddress.obj
 0001:00036fa0       ??0Win360IpAddress@Win360@@AAE@ABUsockaddr_in@@@Z 00437fa0 f   foundation_win32.release:win360ipaddress.obj
 0001:00037030       ?SetSockAddr@Win360IpAddress@Win360@@AAEXABUsockaddr_in@@@Z 00438030 f   foundation_win32.release:win360ipaddress.obj
 0001:000370d0       ?GetSockAddr@Win360IpAddress@Win360@@ABEABUsockaddr_in@@XZ 004380d0 f   foundation_win32.release:win360ipaddress.obj
 0001:000370f0       ?ExtractFromUri@Win360IpAddress@Win360@@QAEXABVURI@IO@@@Z 004380f0 f   foundation_win32.release:win360ipaddress.obj
 0001:000371b0       ?SetPort@Win360IpAddress@Win360@@QAEXG@Z 004381b0 f   foundation_win32.release:win360ipaddress.obj
 0001:000371d0       ?GetPort@Win360IpAddress@Win360@@QBEGXZ 004381d0 f   foundation_win32.release:win360ipaddress.obj
 0001:000371f0       ?SetHostName@Win360IpAddress@Win360@@QAEXABVString@Util@@@Z 004381f0 f   foundation_win32.release:win360ipaddress.obj
 0001:000372b0       ?GetHostName@Win360IpAddress@Win360@@QBEABVString@Util@@XZ 004382b0 f   foundation_win32.release:win360ipaddress.obj
 0001:000372c0       ?GetHostAddr@Win360IpAddress@Win360@@QBEABVString@Util@@XZ 004382c0 f   foundation_win32.release:win360ipaddress.obj
 0001:000372e0       ?GetHostByName@Win360IpAddress@Win360@@CA_NABVString@Util@@AAUin_addr@@@Z 004382e0 f   foundation_win32.release:win360ipaddress.obj
 0001:000375d0       ?IsInetAddr@Win360IpAddress@Win360@@CA_NPBUin_addr@@@Z 004385d0 f   foundation_win32.release:win360ipaddress.obj
 0001:000377d0       ?GetName@Rtti@Core@@QBEABVString@Util@@XZ 004387d0 f i foundation_win32.release:handler.obj
 0001:000377e0       ??2Handler@Messaging@@SAPAXI@Z 004387e0 f i foundation_win32.release:handler.obj
 0001:000377f0       ??3Handler@Messaging@@SAXPAX@Z 004387f0 f i foundation_win32.release:handler.obj
 0001:00037810       ?GetRtti@Handler@Messaging@@UBEPAVRtti@Core@@XZ 00438810 f   foundation_win32.release:handler.obj
 0001:00037820       ?FactoryCreator@Handler@Messaging@@SAPAVRefCounted@Core@@XZ 00438820 f   foundation_win32.release:handler.obj
 0001:00037830       ?Create@Handler@Messaging@@SAPAV12@XZ 00438830 f   foundation_win32.release:handler.obj
 0001:00037870       ?RegisterWithFactory@Handler@Messaging@@SA_NXZ 00438870 f   foundation_win32.release:handler.obj
 0001:00037970       ??0Handler@Messaging@@QAE@XZ 00438970 f   foundation_win32.release:handler.obj
 0001:000379b0       ??_GHandler@Messaging@@UAEPAXI@Z 004389b0 f i foundation_win32.release:handler.obj
 0001:000379b0       ??_EHandler@Messaging@@UAEPAXI@Z 004389b0 f i  CIL library: CIL module
 0001:000379e0       ??1Handler@Messaging@@UAE@XZ 004389e0 f   foundation_win32.release:handler.obj
 0001:00037a30       ?Open@Handler@Messaging@@UAEXXZ 00438a30 f   foundation_win32.release:handler.obj
 0001:00037a70       ?Close@Handler@Messaging@@UAEXXZ 00438a70 f   foundation_win32.release:handler.obj
 0001:00037ab0       ?HandleMessage@Handler@Messaging@@UAE_NABV?$Ptr@VMessage@Messaging@@@@@Z 00438ab0 f   foundation_win32.release:handler.obj
 0001:00037b10       ?DoWork@Handler@Messaging@@UAEXXZ 00438b10 f   foundation_win32.release:handler.obj
 0001:00037b70       ?Set@MediaType@IO@@QAEXABVString@Util@@@Z 00438b70 f i foundation_win32.release:httpserver.obj
 0001:00037cc0       ??0MediaType@IO@@QAE@ABVString@Util@@@Z 00438cc0 f i foundation_win32.release:httpserver.obj
 0001:00037d30       ?IsValid@MediaType@IO@@QBE_NXZ 00438d30 f i foundation_win32.release:httpserver.obj
 0001:00037d80       ?SetAddress@StdTcpServer@Net@@QAEXABVWin360IpAddress@Win360@@@Z 00438d80 f i foundation_win32.release:httpserver.obj
 0001:00037da0       ?SetStatusCode@HttpResponseWriter@Http@@QAEXW4Code@HttpStatus@2@@Z 00438da0 f i foundation_win32.release:httpserver.obj
 0001:00037dc0       ?SetContent@HttpResponseWriter@Http@@QAEXABV?$Ptr@VStream@IO@@@@@Z 00438dc0 f i foundation_win32.release:httpserver.obj
 0001:00037de0       ?SetMethod@HttpRequest@Http@@QAEXW4Code@HttpMethod@2@@Z 00438de0 f i foundation_win32.release:httpserver.obj
 0001:00037e00       ?SetURI@HttpRequest@Http@@QAEXABVURI@IO@@@Z 00438e00 f i foundation_win32.release:httpserver.obj
 0001:00037e20       ?SetResponseContentStream@HttpRequest@Http@@QAEXABV?$Ptr@VStream@IO@@@@@Z 00438e20 f i foundation_win32.release:httpserver.obj
 0001:00037e40       ?GetResponseContentStream@HttpRequest@Http@@QBEABV?$Ptr@VStream@IO@@@@XZ 00438e40 f i foundation_win32.release:httpserver.obj
 0001:00037e60       ?GetStatus@HttpRequest@Http@@QBE?AW4Code@HttpStatus@2@XZ 00438e60 f i foundation_win32.release:httpserver.obj
 0001:00037e80       ?GetRootLocation@HttpRequestHandler@Http@@QBEABVString@Util@@XZ 00438e80 f i foundation_win32.release:httpserver.obj
 0001:00037ea0       ??2HttpServer@Http@@SAPAXI@Z 00438ea0 f i foundation_win32.release:httpserver.obj
 0001:00037eb0       ??3HttpServer@Http@@SAXPAX@Z 00438eb0 f i foundation_win32.release:httpserver.obj
 0001:00037ed0       ?IsOpen@HttpServer@Http@@QBE_NXZ 00438ed0 f i foundation_win32.release:httpserver.obj
 0001:00037ef0       ?IsSingleThreadMode@HttpServer@Http@@QBE_NXZ 00438ef0 f i foundation_win32.release:httpserver.obj
 0001:00037f10       ?IsValidHttpRequest@HttpRequestReader@Http@@QBE_NXZ 00438f10 f i foundation_win32.release:httpserver.obj
 0001:00037f30       ?GetHttpMethod@HttpRequestReader@Http@@QBE?AW4Code@HttpMethod@2@XZ 00438f30 f i foundation_win32.release:httpserver.obj
 0001:00037f50       ?GetRequestURI@HttpRequestReader@Http@@QBEABVURI@IO@@XZ 00438f50 f i foundation_win32.release:httpserver.obj
 0001:00037f70       ?GetRtti@HttpServer@Http@@UBEPAVRtti@Core@@XZ 00438f70 f   foundation_win32.release:httpserver.obj
 0001:00037f80       ?FactoryCreator@HttpServer@Http@@SAPAVRefCounted@Core@@XZ 00438f80 f   foundation_win32.release:httpserver.obj
 0001:00037f90       ?Create@HttpServer@Http@@SAPAV12@XZ 00438f90 f   foundation_win32.release:httpserver.obj
 0001:00037fd0       ?RegisterWithFactory@HttpServer@Http@@SA_NXZ 00438fd0 f   foundation_win32.release:httpserver.obj
 0001:000380d0       ??0HttpServer@Http@@QAE@XZ 004390d0 f   foundation_win32.release:httpserver.obj
 0001:000381f0       ??_GHttpServer@Http@@UAEPAXI@Z 004391f0 f i foundation_win32.release:httpserver.obj
 0001:000381f0       ??_EHttpServer@Http@@UAEPAXI@Z 004391f0 f i  CIL library: CIL module
 0001:00038220       ??1?$Dictionary@VString@Util@@V?$Ptr@VHttpRequestHandler@Http@@@@@Util@@QAE@XZ 00439220 f i foundation_win32.release:httpserver.obj
 0001:00038240       ??1HttpServer@Http@@UAE@XZ 00439240 f   foundation_win32.release:httpserver.obj
 0001:000382f0       ?Open@HttpServer@Http@@QAE_NXZ 004392f0 f   foundation_win32.release:httpserver.obj
 0001:00038390       ?Close@HttpServer@Http@@QAEXXZ 00439390 f   foundation_win32.release:httpserver.obj
 0001:00038410       ?AttachRequestHandler@HttpServer@Http@@QAEXABV?$Ptr@VHttpRequestHandler@Http@@@@@Z 00439410 f   foundation_win32.release:httpserver.obj
 0001:000384c0       ?RemoveRequestHandler@HttpServer@Http@@QAEXABV?$Ptr@VHttpRequestHandler@Http@@@@@Z 004394c0 f   foundation_win32.release:httpserver.obj
 0001:00038540       ?OnFrame@HttpServer@Http@@QAEXXZ 00439540 f   foundation_win32.release:httpserver.obj
 0001:000386a0       ?HandleHttpRequest@HttpServer@Http@@AAE_NABV?$Ptr@VTcpClientConnection@Net@@@@@Z 004396a0 f   foundation_win32.release:httpserver.obj
 0001:00038af0       ??0PendingRequest@HttpServer@Http@@QAE@XZ 00439af0 f i foundation_win32.release:httpserver.obj
 0001:00038b20       ??1PendingRequest@HttpServer@Http@@QAE@XZ 00439b20 f i foundation_win32.release:httpserver.obj
 0001:00038b40       ?BuildHttpResponse@HttpServer@Http@@AAE_NABV?$Ptr@VTcpClientConnection@Net@@@@ABV?$Ptr@VHttpRequest@Http@@@@@Z 00439b40 f   foundation_win32.release:httpserver.obj
 0001:00039030       ??1?$Array@V?$Ptr@VTcpClientConnection@Net@@@@@Util@@QAE@XZ 0043a030 f i foundation_win32.release:httpserver.obj
 0001:00039050       ??A?$Array@V?$Ptr@VTcpClientConnection@Net@@@@@Util@@QBEAAV?$Ptr@VTcpClientConnection@Net@@@@H@Z 0043a050 f i foundation_win32.release:httpserver.obj
 0001:000390a0       ?Size@?$Array@V?$Ptr@VTcpClientConnection@Net@@@@@Util@@QBEHXZ 0043a0a0 f i foundation_win32.release:httpserver.obj
 0001:000390c0       ??0?$Ptr@VTcpClientConnection@Net@@@@QAE@XZ 0043a0c0 f i foundation_win32.release:httpserver.obj
 0001:000390e0       ??1?$Ptr@VTcpClientConnection@Net@@@@QAE@XZ 0043a0e0 f i foundation_win32.release:httpserver.obj
 0001:00039110       ??4?$Ptr@VTcpClientConnection@Net@@@@QAEXABV0@@Z 0043a110 f i foundation_win32.release:httpserver.obj
 0001:00039170       ??C?$Ptr@VTcpClientConnection@Net@@@@QBEPAVTcpClientConnection@Net@@XZ 0043a170 f i foundation_win32.release:httpserver.obj
 0001:000391b0       ??0?$Ptr@VHttpRequest@Http@@@@QAE@PAVHttpRequest@Http@@@Z 0043a1b0 f i foundation_win32.release:httpserver.obj
 0001:000391f0       ??1?$Array@V?$KeyValuePair@VString@Util@@V?$Ptr@VHttpRequestHandler@Http@@@@@Util@@@Util@@QAE@XZ 0043a1f0 f i foundation_win32.release:httpserver.obj
 0001:00039210       ??0?$Dictionary@VString@Util@@V?$Ptr@VHttpRequestHandler@Http@@@@@Util@@QAE@XZ 0043a210 f i foundation_win32.release:httpserver.obj
 0001:00039230       ??A?$Dictionary@VString@Util@@V?$Ptr@VHttpRequestHandler@Http@@@@@Util@@QAEAAV?$Ptr@VHttpRequestHandler@Http@@@@ABVString@1@@Z 0043a230 f i foundation_win32.release:httpserver.obj
 0001:00039280       ?Clear@?$Dictionary@VString@Util@@V?$Ptr@VHttpRequestHandler@Http@@@@@Util@@QAEXXZ 0043a280 f i foundation_win32.release:httpserver.obj
 0001:000392c0       ?Add@?$Dictionary@VString@Util@@V?$Ptr@VHttpRequestHandler@Http@@@@@Util@@QAEXABVString@2@ABV?$Ptr@VHttpRequestHandler@Http@@@@@Z 0043a2c0 f i foundation_win32.release:httpserver.obj
 0001:00039320       ?Erase@?$Dictionary@VString@Util@@V?$Ptr@VHttpRequestHandler@Http@@@@@Util@@QAEXABVString@2@@Z 0043a320 f i foundation_win32.release:httpserver.obj
 0001:000393a0       ?Contains@?$Dictionary@VString@Util@@V?$Ptr@VHttpRequestHandler@Http@@@@@Util@@QBE_NABVString@2@@Z 0043a3a0 f i foundation_win32.release:httpserver.obj
 0001:00039400       ??0?$Ptr@VDefaultHttpRequestHandler@Http@@@@QAE@XZ 0043a400 f i foundation_win32.release:httpserver.obj
 0001:00039420       ??1?$Ptr@VDefaultHttpRequestHandler@Http@@@@QAE@XZ 0043a420 f i foundation_win32.release:httpserver.obj
 0001:00039450       ??4?$Ptr@VDefaultHttpRequestHandler@Http@@@@QAEXPAVDefaultHttpRequestHandler@Http@@@Z 0043a450 f i foundation_win32.release:httpserver.obj
 0001:000394b0       ??C?$Ptr@VDefaultHttpRequestHandler@Http@@@@QBEPAVDefaultHttpRequestHandler@Http@@XZ 0043a4b0 f i foundation_win32.release:httpserver.obj
 0001:000394f0       ??0?$Ptr@VTcpServer@Net@@@@QAE@XZ 0043a4f0 f i foundation_win32.release:httpserver.obj
 0001:00039510       ??1?$Ptr@VTcpServer@Net@@@@QAE@XZ 0043a510 f i foundation_win32.release:httpserver.obj
 0001:00039540       ??4?$Ptr@VTcpServer@Net@@@@QAEXPAVTcpServer@Net@@@Z 0043a540 f i foundation_win32.release:httpserver.obj
 0001:000395a0       ??C?$Ptr@VTcpServer@Net@@@@QBEPAVTcpServer@Net@@XZ 0043a5a0 f i foundation_win32.release:httpserver.obj
 0001:000395e0       ??0?$Array@UPendingRequest@HttpServer@Http@@@Util@@QAE@XZ 0043a5e0 f i foundation_win32.release:httpserver.obj
 0001:00039620       ??1?$Array@UPendingRequest@HttpServer@Http@@@Util@@QAE@XZ 0043a620 f i foundation_win32.release:httpserver.obj
 0001:00039640       ??A?$Array@UPendingRequest@HttpServer@Http@@@Util@@QBEAAUPendingRequest@HttpServer@Http@@H@Z 0043a640 f i foundation_win32.release:httpserver.obj
 0001:00039690       ?Append@?$Array@UPendingRequest@HttpServer@Http@@@Util@@QAEXABUPendingRequest@HttpServer@Http@@@Z 0043a690 f i foundation_win32.release:httpserver.obj
 0001:00039720       ?Size@?$Array@UPendingRequest@HttpServer@Http@@@Util@@QBEHXZ 0043a720 f i foundation_win32.release:httpserver.obj
 0001:00039740       ?EraseIndex@?$Array@UPendingRequest@HttpServer@Http@@@Util@@QAEXH@Z 0043a740 f i foundation_win32.release:httpserver.obj
 0001:000397c0       ?Clear@?$Array@UPendingRequest@HttpServer@Http@@@Util@@QAEXXZ 0043a7c0 f i foundation_win32.release:httpserver.obj
 0001:00039810       ?isvalid@?$Ptr@VHttpRequestHandler@Http@@@@QBE_NXZ 0043a810 f i foundation_win32.release:httpserver.obj
 0001:00039830       ??0?$Ptr@VHttpRequestReader@Http@@@@QAE@PAVHttpRequestReader@Http@@@Z 0043a830 f i foundation_win32.release:httpserver.obj
 0001:00039870       ??1?$Ptr@VHttpRequestReader@Http@@@@QAE@XZ 0043a870 f i foundation_win32.release:httpserver.obj
 0001:000398a0       ??C?$Ptr@VHttpRequestReader@Http@@@@QBEPAVHttpRequestReader@Http@@XZ 0043a8a0 f i foundation_win32.release:httpserver.obj
 0001:000398e0       ??0?$Ptr@VHttpResponseWriter@Http@@@@QAE@PAVHttpResponseWriter@Http@@@Z 0043a8e0 f i foundation_win32.release:httpserver.obj
 0001:00039920       ??1?$Ptr@VHttpResponseWriter@Http@@@@QAE@XZ 0043a920 f i foundation_win32.release:httpserver.obj
 0001:00039950       ??C?$Ptr@VHttpResponseWriter@Http@@@@QBEPAVHttpResponseWriter@Http@@XZ 0043a950 f i foundation_win32.release:httpserver.obj
 0001:00039990       ??0?$Ptr@VTextWriter@IO@@@@QAE@PAVTextWriter@IO@@@Z 0043a990 f i foundation_win32.release:httpserver.obj
 0001:000399d0       ??1?$KeyValuePair@VString@Util@@V?$Ptr@VHttpRequestHandler@Http@@@@@Util@@QAE@XZ 0043a9d0 f i foundation_win32.release:httpserver.obj
 0001:00039a30       ??4PendingRequest@HttpServer@Http@@QAEAAU012@ABU012@@Z 0043aa30 f i foundation_win32.release:httpserver.obj
 0001:00039a60       ?Delete@?$Array@V?$Ptr@VTcpClientConnection@Net@@@@@Util@@AAEXXZ 0043aa60 f i foundation_win32.release:httpserver.obj
 0001:00039ad0       ??0?$Array@V?$KeyValuePair@VString@Util@@V?$Ptr@VHttpRequestHandler@Http@@@@@Util@@@Util@@QAE@XZ 0043aad0 f i foundation_win32.release:httpserver.obj
 0001:00039b10       ??A?$Array@V?$KeyValuePair@VString@Util@@V?$Ptr@VHttpRequestHandler@Http@@@@@Util@@@Util@@QBEAAV?$KeyValuePair@VString@Util@@V?$Ptr@VHttpRequestHandler@Http@@@@@1@H@Z 0043ab10 f i foundation_win32.release:httpserver.obj
 0001:00039b60       ?Append@?$Array@V?$KeyValuePair@VString@Util@@V?$Ptr@VHttpRequestHandler@Http@@@@@Util@@@Util@@QAEXABV?$KeyValuePair@VString@Util@@V?$Ptr@VHttpRequestHandler@Http@@@@@2@@Z 0043ab60 f i foundation_win32.release:httpserver.obj
 0001:00039be0       ?EraseIndex@?$Array@V?$KeyValuePair@VString@Util@@V?$Ptr@VHttpRequestHandler@Http@@@@@Util@@@Util@@QAEXH@Z 0043abe0 f i foundation_win32.release:httpserver.obj
 0001:00039c60       ?InsertSorted@?$Array@V?$KeyValuePair@VString@Util@@V?$Ptr@VHttpRequestHandler@Http@@@@@Util@@@Util@@QAEHABV?$KeyValuePair@VString@Util@@V?$Ptr@VHttpRequestHandler@Http@@@@@2@@Z 0043ac60 f i foundation_win32.release:httpserver.obj
 0001:00039ed0       ?Clear@?$Array@V?$KeyValuePair@VString@Util@@V?$Ptr@VHttpRequestHandler@Http@@@@@Util@@@Util@@QAEXXZ 0043aed0 f i foundation_win32.release:httpserver.obj
 0001:00039f20       ?BinarySearchIndex@?$Array@V?$KeyValuePair@VString@Util@@V?$Ptr@VHttpRequestHandler@Http@@@@@Util@@@Util@@QBEHABV?$KeyValuePair@VString@Util@@V?$Ptr@VHttpRequestHandler@Http@@@@@2@@Z 0043af20 f i foundation_win32.release:httpserver.obj
 0001:0003a050       ?Delete@?$Array@V?$KeyValuePair@VString@Util@@V?$Ptr@VHttpRequestHandler@Http@@@@@Util@@@Util@@AAEXXZ 0043b050 f i foundation_win32.release:httpserver.obj
 0001:0003a0c0       ?FindIndex@?$Dictionary@VString@Util@@V?$Ptr@VHttpRequestHandler@Http@@@@@Util@@QBEHABVString@2@@Z 0043b0c0 f i foundation_win32.release:httpserver.obj
 0001:0003a120       ??0?$KeyValuePair@VString@Util@@V?$Ptr@VHttpRequestHandler@Http@@@@@Util@@QAE@ABVString@1@@Z 0043b120 f i foundation_win32.release:httpserver.obj
 0001:0003a190       ??0?$KeyValuePair@VString@Util@@V?$Ptr@VHttpRequestHandler@Http@@@@@Util@@QAE@ABVString@1@ABV?$Ptr@VHttpRequestHandler@Http@@@@@Z 0043b190 f i foundation_win32.release:httpserver.obj
 0001:0003a200       ?Value@?$KeyValuePair@VString@Util@@V?$Ptr@VHttpRequestHandler@Http@@@@@Util@@QAEAAV?$Ptr@VHttpRequestHandler@Http@@@@XZ 0043b200 f i foundation_win32.release:httpserver.obj
 0001:0003a220       ?Destroy@?$Array@UPendingRequest@HttpServer@Http@@@Util@@AAEXPAUPendingRequest@HttpServer@Http@@@Z 0043b220 f i foundation_win32.release:httpserver.obj
 0001:0003a260       ?Delete@?$Array@UPendingRequest@HttpServer@Http@@@Util@@AAEXXZ 0043b260 f i foundation_win32.release:httpserver.obj
 0001:0003a2d0       ?Grow@?$Array@UPendingRequest@HttpServer@Http@@@Util@@AAEXXZ 0043b2d0 f i foundation_win32.release:httpserver.obj
 0001:0003a350       ?Move@?$Array@UPendingRequest@HttpServer@Http@@@Util@@AAEXHH@Z 0043b350 f i foundation_win32.release:httpserver.obj
 0001:0003a520       ??_E?$Ptr@VTcpClientConnection@Net@@@@QAEPAXI@Z 0043b520 f i foundation_win32.release:httpserver.obj
 0001:0003a5c0       ??_E?$KeyValuePair@VString@Util@@V?$Ptr@VHttpRequestHandler@Http@@@@@Util@@QAEPAXI@Z 0043b5c0 f i foundation_win32.release:httpserver.obj
 0001:0003a660       ??_GPendingRequest@HttpServer@Http@@QAEPAXI@Z 0043b660 f i foundation_win32.release:httpserver.obj
 0001:0003a6a0       ??_EPendingRequest@HttpServer@Http@@QAEPAXI@Z 0043b6a0 f i foundation_win32.release:httpserver.obj
 0001:0003a750       ?Size@?$Array@V?$KeyValuePair@VString@Util@@V?$Ptr@VHttpRequestHandler@Http@@@@@Util@@@Util@@QBEHXZ 0043b750 f i foundation_win32.release:httpserver.obj
 0001:0003a770       ?Insert@?$Array@V?$KeyValuePair@VString@Util@@V?$Ptr@VHttpRequestHandler@Http@@@@@Util@@@Util@@QAEXHABV?$KeyValuePair@VString@Util@@V?$Ptr@VHttpRequestHandler@Http@@@@@2@@Z 0043b770 f i foundation_win32.release:httpserver.obj
 0001:0003a7e0       ?InsertAtEndOfIdenticalRange@?$Array@V?$KeyValuePair@VString@Util@@V?$Ptr@VHttpRequestHandler@Http@@@@@Util@@@Util@@QAEHHABV?$KeyValuePair@VString@Util@@V?$Ptr@VHttpRequestHandler@Http@@@@@2@@Z 0043b7e0 f i foundation_win32.release:httpserver.obj
 0001:0003a860       ?Destroy@?$Array@V?$KeyValuePair@VString@Util@@V?$Ptr@VHttpRequestHandler@Http@@@@@Util@@@Util@@AAEXPAV?$KeyValuePair@VString@Util@@V?$Ptr@VHttpRequestHandler@Http@@@@@2@@Z 0043b860 f i foundation_win32.release:httpserver.obj
 0001:0003a890       ?Grow@?$Array@V?$KeyValuePair@VString@Util@@V?$Ptr@VHttpRequestHandler@Http@@@@@Util@@@Util@@AAEXXZ 0043b890 f i foundation_win32.release:httpserver.obj
 0001:0003a910       ?Move@?$Array@V?$KeyValuePair@VString@Util@@V?$Ptr@VHttpRequestHandler@Http@@@@@Util@@@Util@@AAEXHH@Z 0043b910 f i foundation_win32.release:httpserver.obj
 0001:0003aaa0       ??4?$KeyValuePair@VString@Util@@V?$Ptr@VHttpRequestHandler@Http@@@@@Util@@QAEXABV01@@Z 0043baa0 f i foundation_win32.release:httpserver.obj
 0001:0003ab00       ??9?$KeyValuePair@VString@Util@@V?$Ptr@VHttpRequestHandler@Http@@@@@Util@@QBE_NABV01@@Z 0043bb00 f i foundation_win32.release:httpserver.obj
 0001:0003ab20       ??O?$KeyValuePair@VString@Util@@V?$Ptr@VHttpRequestHandler@Http@@@@@Util@@QBE_NABV01@@Z 0043bb20 f i foundation_win32.release:httpserver.obj
 0001:0003ab40       ??M?$KeyValuePair@VString@Util@@V?$Ptr@VHttpRequestHandler@Http@@@@@Util@@QBE_NABV01@@Z 0043bb40 f i foundation_win32.release:httpserver.obj
 0001:0003ab60       ??0?$Ptr@VHttpRequestHandler@Http@@@@QAE@ABV0@@Z 0043bb60 f i foundation_win32.release:httpserver.obj
 0001:0003aba0       ?GrowTo@?$Array@UPendingRequest@HttpServer@Http@@@Util@@AAEXH@Z 0043bba0 f i foundation_win32.release:httpserver.obj
 0001:0003acf0       ??_G?$KeyValuePair@VString@Util@@V?$Ptr@VHttpRequestHandler@Http@@@@@Util@@QAEPAXI@Z 0043bcf0 f i foundation_win32.release:httpserver.obj
 0001:0003ad20       ?GrowTo@?$Array@V?$KeyValuePair@VString@Util@@V?$Ptr@VHttpRequestHandler@Http@@@@@Util@@@Util@@AAEXH@Z 0043bd20 f i foundation_win32.release:httpserver.obj
 0001:0003ae40       ??0?$KeyValuePair@VString@Util@@V?$Ptr@VHttpRequestHandler@Http@@@@@Util@@QAE@XZ 0043be40 f i foundation_win32.release:httpserver.obj
 0001:0003ae80       ??2Message@Messaging@@SAPAXI@Z 0043be80 f i foundation_win32.release:message.obj
 0001:0003ae90       ??3Message@Messaging@@SAXPAX@Z 0043be90 f i foundation_win32.release:message.obj
 0001:0003aeb0       ?GetRtti@Message@Messaging@@UBEPAVRtti@Core@@XZ 0043beb0 f   foundation_win32.release:message.obj
 0001:0003aec0       ?FactoryCreator@Message@Messaging@@SAPAVRefCounted@Core@@XZ 0043bec0 f   foundation_win32.release:message.obj
 0001:0003aed0       ?Create@Message@Messaging@@SAPAV12@XZ 0043bed0 f   foundation_win32.release:message.obj
 0001:0003af10       ?RegisterWithFactory@Message@Messaging@@SA_NXZ 0043bf10 f   foundation_win32.release:message.obj
 0001:0003b010       ?GetId@Message@Messaging@@UBEABVId@2@XZ 0043c010 f   foundation_win32.release:message.obj
 0001:0003b020       ??0Message@Messaging@@QAE@XZ 0043c020 f   foundation_win32.release:message.obj
 0001:0003b070       ??_GMessage@Messaging@@UAEPAXI@Z 0043c070 f i foundation_win32.release:message.obj
 0001:0003b070       ??_EMessage@Messaging@@UAEPAXI@Z 0043c070 f i  CIL library: CIL module
 0001:0003b0a0       ?Encode@Message@Messaging@@UAEXABV?$Ptr@VBinaryWriter@IO@@@@@Z 0043c0a0 f   foundation_win32.release:message.obj
 0001:0003b0b0       ?Decode@Message@Messaging@@UAEXABV?$Ptr@VBinaryReader@IO@@@@@Z 0043c0b0 f   foundation_win32.release:message.obj
 0001:0003b0c0       ??2Socket@Net@@SAPAXI@Z    0043c0c0 f i foundation_win32.release:socket.obj
 0001:0003b0d0       ??3Socket@Net@@SAXPAX@Z    0043c0d0 f i foundation_win32.release:socket.obj
 0001:0003b0f0       ?GetRtti@Socket@Net@@UBEPAVRtti@Core@@XZ 0043c0f0 f   foundation_win32.release:socket.obj
 0001:0003b100       ?FactoryCreator@Socket@Net@@SAPAVRefCounted@Core@@XZ 0043c100 f   foundation_win32.release:socket.obj
 0001:0003b110       ?Create@Socket@Net@@SAPAV12@XZ 0043c110 f   foundation_win32.release:socket.obj
 0001:0003b150       ??0Socket@Net@@QAE@XZ      0043c150 f i foundation_win32.release:socket.obj
 0001:0003b170       ??_ESocket@Net@@UAEPAXI@Z  0043c170 f i  CIL library: CIL module
 0001:0003b170       ??_GSocket@Net@@UAEPAXI@Z  0043c170 f i foundation_win32.release:socket.obj
 0001:0003b1a0       ??1Socket@Net@@UAE@XZ      0043c1a0 f i foundation_win32.release:socket.obj
 0001:0003b1c0       ?RegisterWithFactory@Socket@Net@@SA_NXZ 0043c1c0 f   foundation_win32.release:socket.obj
 0001:0003b2c0       ??2DebugServer@Debug@@SAPAXI@Z 0043c2c0 f i foundation_win32.release:debugserver.obj
 0001:0003b2d0       ??3DebugServer@Debug@@SAXPAX@Z 0043c2d0 f i foundation_win32.release:debugserver.obj
 0001:0003b2f0       ?GetName@DebugTimer@Debug@@QBEABVStringAtom@Util@@XZ 0043c2f0 f i foundation_win32.release:debugserver.obj
 0001:0003b310       ?GetName@DebugCounter@Debug@@QBEABVStringAtom@Util@@XZ 0043c310 f i foundation_win32.release:debugserver.obj
 0001:0003b330       ?GetRtti@DebugServer@Debug@@UBEPAVRtti@Core@@XZ 0043c330 f   foundation_win32.release:debugserver.obj
 0001:0003b340       ?FactoryCreator@DebugServer@Debug@@SAPAVRefCounted@Core@@XZ 0043c340 f   foundation_win32.release:debugserver.obj
 0001:0003b350       ?Create@DebugServer@Debug@@SAPAV12@XZ 0043c350 f   foundation_win32.release:debugserver.obj
 0001:0003b390       ?RegisterWithFactory@DebugServer@Debug@@SA_NXZ 0043c390 f   foundation_win32.release:debugserver.obj
 0001:0003b490       ??0DebugServer@Debug@@QAE@XZ 0043c490 f   foundation_win32.release:debugserver.obj
 0001:0003b510       ??_GDebugServer@Debug@@UAEPAXI@Z 0043c510 f i foundation_win32.release:debugserver.obj
 0001:0003b510       ??_EDebugServer@Debug@@UAEPAXI@Z 0043c510 f i  CIL library: CIL module
 0001:0003b540       ??1?$Dictionary@VStringAtom@Util@@V?$Ptr@VDebugTimer@Debug@@@@@Util@@QAE@XZ 0043c540 f i foundation_win32.release:debugserver.obj
 0001:0003b560       ??1?$Dictionary@VStringAtom@Util@@V?$Ptr@VDebugCounter@Debug@@@@@Util@@QAE@XZ 0043c560 f i foundation_win32.release:debugserver.obj
 0001:0003b580       ??1DebugServer@Debug@@UAE@XZ 0043c580 f   foundation_win32.release:debugserver.obj
 0001:0003b610       ?Open@DebugServer@Debug@@AAEXXZ 0043c610 f   foundation_win32.release:debugserver.obj
 0001:0003b680       ?Close@DebugServer@Debug@@AAEXXZ 0043c680 f   foundation_win32.release:debugserver.obj
 0001:0003b700       ?RegisterDebugTimer@DebugServer@Debug@@QAEXABV?$Ptr@VDebugTimer@Debug@@@@@Z 0043c700 f   foundation_win32.release:debugserver.obj
 0001:0003b7c0       ?UnregisterDebugTimer@DebugServer@Debug@@QAEXABV?$Ptr@VDebugTimer@Debug@@@@@Z 0043c7c0 f   foundation_win32.release:debugserver.obj
 0001:0003b880       ?RegisterDebugCounter@DebugServer@Debug@@QAEXABV?$Ptr@VDebugCounter@Debug@@@@@Z 0043c880 f   foundation_win32.release:debugserver.obj
 0001:0003b940       ?UnregisterDebugCounter@DebugServer@Debug@@QAEXABV?$Ptr@VDebugCounter@Debug@@@@@Z 0043c940 f   foundation_win32.release:debugserver.obj
 0001:0003ba00       ?GetDebugTimers@DebugServer@Debug@@QBE?AV?$Array@V?$Ptr@VDebugTimer@Debug@@@@@Util@@XZ 0043ca00 f   foundation_win32.release:debugserver.obj
 0001:0003ba70       ?GetDebugCounters@DebugServer@Debug@@QBE?AV?$Array@V?$Ptr@VDebugCounter@Debug@@@@@Util@@XZ 0043ca70 f   foundation_win32.release:debugserver.obj
 0001:0003bae0       ?GetDebugTimerByName@DebugServer@Debug@@QBE?AV?$Ptr@VDebugTimer@Debug@@@@ABVStringAtom@Util@@@Z 0043cae0 f   foundation_win32.release:debugserver.obj
 0001:0003bb70       ?GetDebugCounterByName@DebugServer@Debug@@QBE?AV?$Ptr@VDebugCounter@Debug@@@@ABVStringAtom@Util@@@Z 0043cb70 f   foundation_win32.release:debugserver.obj
 0001:0003bc00       ??1?$Array@V?$KeyValuePair@VStringAtom@Util@@V?$Ptr@VDebugTimer@Debug@@@@@Util@@@Util@@QAE@XZ 0043cc00 f i foundation_win32.release:debugserver.obj
 0001:0003bc20       ??0?$Dictionary@VStringAtom@Util@@V?$Ptr@VDebugTimer@Debug@@@@@Util@@QAE@XZ 0043cc20 f i foundation_win32.release:debugserver.obj
 0001:0003bc40       ??A?$Dictionary@VStringAtom@Util@@V?$Ptr@VDebugTimer@Debug@@@@@Util@@QBEABV?$Ptr@VDebugTimer@Debug@@@@ABVStringAtom@1@@Z 0043cc40 f i foundation_win32.release:debugserver.obj
 0001:0003bc90       ?Clear@?$Dictionary@VStringAtom@Util@@V?$Ptr@VDebugTimer@Debug@@@@@Util@@QAEXXZ 0043cc90 f i foundation_win32.release:debugserver.obj
 0001:0003bcd0       ?Add@?$Dictionary@VStringAtom@Util@@V?$Ptr@VDebugTimer@Debug@@@@@Util@@QAEXABVStringAtom@2@ABV?$Ptr@VDebugTimer@Debug@@@@@Z 0043ccd0 f i foundation_win32.release:debugserver.obj
 0001:0003bd20       ?Erase@?$Dictionary@VStringAtom@Util@@V?$Ptr@VDebugTimer@Debug@@@@@Util@@QAEXABVStringAtom@2@@Z 0043cd20 f i foundation_win32.release:debugserver.obj
 0001:0003bda0       ?Contains@?$Dictionary@VStringAtom@Util@@V?$Ptr@VDebugTimer@Debug@@@@@Util@@QBE_NABVStringAtom@2@@Z 0043cda0 f i foundation_win32.release:debugserver.obj
 0001:0003be00       ?ValuesAsArray@?$Dictionary@VStringAtom@Util@@V?$Ptr@VDebugTimer@Debug@@@@@Util@@QBE?AV?$Array@V?$Ptr@VDebugTimer@Debug@@@@@2@XZ 0043ce00 f i foundation_win32.release:debugserver.obj
 0001:0003be20       ??1?$Array@V?$KeyValuePair@VStringAtom@Util@@V?$Ptr@VDebugCounter@Debug@@@@@Util@@@Util@@QAE@XZ 0043ce20 f i foundation_win32.release:debugserver.obj
 0001:0003be40       ??0?$Dictionary@VStringAtom@Util@@V?$Ptr@VDebugCounter@Debug@@@@@Util@@QAE@XZ 0043ce40 f i foundation_win32.release:debugserver.obj
 0001:0003be60       ??A?$Dictionary@VStringAtom@Util@@V?$Ptr@VDebugCounter@Debug@@@@@Util@@QBEABV?$Ptr@VDebugCounter@Debug@@@@ABVStringAtom@1@@Z 0043ce60 f i foundation_win32.release:debugserver.obj
 0001:0003beb0       ?Clear@?$Dictionary@VStringAtom@Util@@V?$Ptr@VDebugCounter@Debug@@@@@Util@@QAEXXZ 0043ceb0 f i foundation_win32.release:debugserver.obj
 0001:0003bef0       ?Add@?$Dictionary@VStringAtom@Util@@V?$Ptr@VDebugCounter@Debug@@@@@Util@@QAEXABVStringAtom@2@ABV?$Ptr@VDebugCounter@Debug@@@@@Z 0043cef0 f i foundation_win32.release:debugserver.obj
 0001:0003bf40       ?Erase@?$Dictionary@VStringAtom@Util@@V?$Ptr@VDebugCounter@Debug@@@@@Util@@QAEXABVStringAtom@2@@Z 0043cf40 f i foundation_win32.release:debugserver.obj
 0001:0003bfc0       ?Contains@?$Dictionary@VStringAtom@Util@@V?$Ptr@VDebugCounter@Debug@@@@@Util@@QBE_NABVStringAtom@2@@Z 0043cfc0 f i foundation_win32.release:debugserver.obj
 0001:0003c020       ?ValuesAsArray@?$Dictionary@VStringAtom@Util@@V?$Ptr@VDebugCounter@Debug@@@@@Util@@QBE?AV?$Array@V?$Ptr@VDebugCounter@Debug@@@@@2@XZ 0043d020 f i foundation_win32.release:debugserver.obj
 0001:0003c040       ??0?$Ptr@VDebugTimer@Debug@@@@QAE@ABV0@@Z 0043d040 f i foundation_win32.release:debugserver.obj
 0001:0003c080       ??4?$Ptr@VDebugTimer@Debug@@@@QAEXABV0@@Z 0043d080 f i foundation_win32.release:debugserver.obj
 0001:0003c0e0       ??0?$Ptr@VDebugCounter@Debug@@@@QAE@ABV0@@Z 0043d0e0 f i foundation_win32.release:debugserver.obj
 0001:0003c120       ??0?$Ptr@VDebugCounter@Debug@@@@QAE@XZ 0043d120 f i foundation_win32.release:debugserver.obj
 0001:0003c140       ??1?$Ptr@VDebugCounter@Debug@@@@QAE@XZ 0043d140 f i foundation_win32.release:debugserver.obj
 0001:0003c170       ??4?$Ptr@VDebugCounter@Debug@@@@QAEXABV0@@Z 0043d170 f i foundation_win32.release:debugserver.obj
 0001:0003c1d0       ??C?$Ptr@VDebugCounter@Debug@@@@QBEPAVDebugCounter@Debug@@XZ 0043d1d0 f i foundation_win32.release:debugserver.obj
 0001:0003c210       ??0?$Array@V?$Ptr@VDebugTimer@Debug@@@@@Util@@QAE@ABV01@@Z 0043d210 f i foundation_win32.release:debugserver.obj
 0001:0003c260       ??1?$Array@V?$Ptr@VDebugTimer@Debug@@@@@Util@@QAE@XZ 0043d260 f i foundation_win32.release:debugserver.obj
 0001:0003c280       ??0?$Array@V?$Ptr@VDebugCounter@Debug@@@@@Util@@QAE@ABV01@@Z 0043d280 f i foundation_win32.release:debugserver.obj
 0001:0003c2d0       ??1?$Array@V?$Ptr@VDebugCounter@Debug@@@@@Util@@QAE@XZ 0043d2d0 f i foundation_win32.release:debugserver.obj
 0001:0003c2f0       ??1?$KeyValuePair@VStringAtom@Util@@V?$Ptr@VDebugTimer@Debug@@@@@Util@@QAE@XZ 0043d2f0 f i foundation_win32.release:debugserver.obj
 0001:0003c310       ??1?$KeyValuePair@VStringAtom@Util@@V?$Ptr@VDebugCounter@Debug@@@@@Util@@QAE@XZ 0043d310 f i foundation_win32.release:debugserver.obj
 0001:0003c330       ??0?$Array@V?$KeyValuePair@VStringAtom@Util@@V?$Ptr@VDebugTimer@Debug@@@@@Util@@@Util@@QAE@XZ 0043d330 f i foundation_win32.release:debugserver.obj
 0001:0003c370       ??A?$Array@V?$KeyValuePair@VStringAtom@Util@@V?$Ptr@VDebugTimer@Debug@@@@@Util@@@Util@@QBEAAV?$KeyValuePair@VStringAtom@Util@@V?$Ptr@VDebugTimer@Debug@@@@@1@H@Z 0043d370 f i foundation_win32.release:debugserver.obj
 0001:0003c3c0       ?Append@?$Array@V?$KeyValuePair@VStringAtom@Util@@V?$Ptr@VDebugTimer@Debug@@@@@Util@@@Util@@QAEXABV?$KeyValuePair@VStringAtom@Util@@V?$Ptr@VDebugTimer@Debug@@@@@2@@Z 0043d3c0 f i foundation_win32.release:debugserver.obj
 0001:0003c440       ?EraseIndex@?$Array@V?$KeyValuePair@VStringAtom@Util@@V?$Ptr@VDebugTimer@Debug@@@@@Util@@@Util@@QAEXH@Z 0043d440 f i foundation_win32.release:debugserver.obj
 0001:0003c4c0       ?InsertSorted@?$Array@V?$KeyValuePair@VStringAtom@Util@@V?$Ptr@VDebugTimer@Debug@@@@@Util@@@Util@@QAEHABV?$KeyValuePair@VStringAtom@Util@@V?$Ptr@VDebugTimer@Debug@@@@@2@@Z 0043d4c0 f i foundation_win32.release:debugserver.obj
 0001:0003c730       ?Clear@?$Array@V?$KeyValuePair@VStringAtom@Util@@V?$Ptr@VDebugTimer@Debug@@@@@Util@@@Util@@QAEXXZ 0043d730 f i foundation_win32.release:debugserver.obj
 0001:0003c780       ?BinarySearchIndex@?$Array@V?$KeyValuePair@VStringAtom@Util@@V?$Ptr@VDebugTimer@Debug@@@@@Util@@@Util@@QBEHABV?$KeyValuePair@VStringAtom@Util@@V?$Ptr@VDebugTimer@Debug@@@@@2@@Z 0043d780 f i foundation_win32.release:debugserver.obj
 0001:0003c8b0       ?Delete@?$Array@V?$KeyValuePair@VStringAtom@Util@@V?$Ptr@VDebugTimer@Debug@@@@@Util@@@Util@@AAEXXZ 0043d8b0 f i foundation_win32.release:debugserver.obj
 0001:0003c920       ?FindIndex@?$Dictionary@VStringAtom@Util@@V?$Ptr@VDebugTimer@Debug@@@@@Util@@QBEHABVStringAtom@2@@Z 0043d920 f i foundation_win32.release:debugserver.obj
 0001:0003c980       ??0?$KeyValuePair@VStringAtom@Util@@V?$Ptr@VDebugTimer@Debug@@@@@Util@@QAE@ABVStringAtom@1@@Z 0043d980 f i foundation_win32.release:debugserver.obj
 0001:0003c9b0       ??0?$KeyValuePair@VStringAtom@Util@@V?$Ptr@VDebugTimer@Debug@@@@@Util@@QAE@ABVStringAtom@1@ABV?$Ptr@VDebugTimer@Debug@@@@@Z 0043d9b0 f i foundation_win32.release:debugserver.obj
 0001:0003c9e0       ?Value@?$KeyValuePair@VStringAtom@Util@@V?$Ptr@VDebugTimer@Debug@@@@@Util@@QAEAAV?$Ptr@VDebugTimer@Debug@@@@XZ 0043d9e0 f i foundation_win32.release:debugserver.obj
 0001:0003ca00       ??$ValuesAs@V?$Array@V?$Ptr@VDebugTimer@Debug@@@@@Util@@@?$Dictionary@VStringAtom@Util@@V?$Ptr@VDebugTimer@Debug@@@@@Util@@QBE?AV?$Array@V?$Ptr@VDebugTimer@Debug@@@@@1@XZ 0043da00 f i foundation_win32.release:debugserver.obj
 0001:0003caa0       ?Copy@?$Array@V?$Ptr@VDebugTimer@Debug@@@@@Util@@AAEXABV12@@Z 0043daa0 f i foundation_win32.release:debugserver.obj
 0001:0003cbd0       ?Delete@?$Array@V?$Ptr@VDebugTimer@Debug@@@@@Util@@AAEXXZ 0043dbd0 f i foundation_win32.release:debugserver.obj
 0001:0003cc40       ??0?$Array@V?$KeyValuePair@VStringAtom@Util@@V?$Ptr@VDebugCounter@Debug@@@@@Util@@@Util@@QAE@XZ 0043dc40 f i foundation_win32.release:debugserver.obj
 0001:0003cc80       ??A?$Array@V?$KeyValuePair@VStringAtom@Util@@V?$Ptr@VDebugCounter@Debug@@@@@Util@@@Util@@QBEAAV?$KeyValuePair@VStringAtom@Util@@V?$Ptr@VDebugCounter@Debug@@@@@1@H@Z 0043dc80 f i foundation_win32.release:debugserver.obj
 0001:0003ccd0       ?Append@?$Array@V?$KeyValuePair@VStringAtom@Util@@V?$Ptr@VDebugCounter@Debug@@@@@Util@@@Util@@QAEXABV?$KeyValuePair@VStringAtom@Util@@V?$Ptr@VDebugCounter@Debug@@@@@2@@Z 0043dcd0 f i foundation_win32.release:debugserver.obj
 0001:0003cd50       ?EraseIndex@?$Array@V?$KeyValuePair@VStringAtom@Util@@V?$Ptr@VDebugCounter@Debug@@@@@Util@@@Util@@QAEXH@Z 0043dd50 f i foundation_win32.release:debugserver.obj
 0001:0003cdd0       ?InsertSorted@?$Array@V?$KeyValuePair@VStringAtom@Util@@V?$Ptr@VDebugCounter@Debug@@@@@Util@@@Util@@QAEHABV?$KeyValuePair@VStringAtom@Util@@V?$Ptr@VDebugCounter@Debug@@@@@2@@Z 0043ddd0 f i foundation_win32.release:debugserver.obj
 0001:0003d040       ?Clear@?$Array@V?$KeyValuePair@VStringAtom@Util@@V?$Ptr@VDebugCounter@Debug@@@@@Util@@@Util@@QAEXXZ 0043e040 f i foundation_win32.release:debugserver.obj
 0001:0003d090       ?BinarySearchIndex@?$Array@V?$KeyValuePair@VStringAtom@Util@@V?$Ptr@VDebugCounter@Debug@@@@@Util@@@Util@@QBEHABV?$KeyValuePair@VStringAtom@Util@@V?$Ptr@VDebugCounter@Debug@@@@@2@@Z 0043e090 f i foundation_win32.release:debugserver.obj
 0001:0003d1c0       ?Delete@?$Array@V?$KeyValuePair@VStringAtom@Util@@V?$Ptr@VDebugCounter@Debug@@@@@Util@@@Util@@AAEXXZ 0043e1c0 f i foundation_win32.release:debugserver.obj
 0001:0003d230       ?FindIndex@?$Dictionary@VStringAtom@Util@@V?$Ptr@VDebugCounter@Debug@@@@@Util@@QBEHABVStringAtom@2@@Z 0043e230 f i foundation_win32.release:debugserver.obj
 0001:0003d290       ??0?$KeyValuePair@VStringAtom@Util@@V?$Ptr@VDebugCounter@Debug@@@@@Util@@QAE@ABVStringAtom@1@@Z 0043e290 f i foundation_win32.release:debugserver.obj
 0001:0003d2c0       ??0?$KeyValuePair@VStringAtom@Util@@V?$Ptr@VDebugCounter@Debug@@@@@Util@@QAE@ABVStringAtom@1@ABV?$Ptr@VDebugCounter@Debug@@@@@Z 0043e2c0 f i foundation_win32.release:debugserver.obj
 0001:0003d2f0       ?Value@?$KeyValuePair@VStringAtom@Util@@V?$Ptr@VDebugCounter@Debug@@@@@Util@@QAEAAV?$Ptr@VDebugCounter@Debug@@@@XZ 0043e2f0 f i foundation_win32.release:debugserver.obj
 0001:0003d310       ??$ValuesAs@V?$Array@V?$Ptr@VDebugCounter@Debug@@@@@Util@@@?$Dictionary@VStringAtom@Util@@V?$Ptr@VDebugCounter@Debug@@@@@Util@@QBE?AV?$Array@V?$Ptr@VDebugCounter@Debug@@@@@1@XZ 0043e310 f i foundation_win32.release:debugserver.obj
 0001:0003d3b0       ?Copy@?$Array@V?$Ptr@VDebugCounter@Debug@@@@@Util@@AAEXABV12@@Z 0043e3b0 f i foundation_win32.release:debugserver.obj
 0001:0003d4e0       ?Delete@?$Array@V?$Ptr@VDebugCounter@Debug@@@@@Util@@AAEXXZ 0043e4e0 f i foundation_win32.release:debugserver.obj
 0001:0003d550       ??_E?$KeyValuePair@VStringAtom@Util@@V?$Ptr@VDebugTimer@Debug@@@@@Util@@QAEPAXI@Z 0043e550 f i foundation_win32.release:debugserver.obj
 0001:0003d5f0       ??_E?$Ptr@VDebugTimer@Debug@@@@QAEPAXI@Z 0043e5f0 f i foundation_win32.release:debugserver.obj
 0001:0003d690       ??_E?$KeyValuePair@VStringAtom@Util@@V?$Ptr@VDebugCounter@Debug@@@@@Util@@QAEPAXI@Z 0043e690 f i foundation_win32.release:debugserver.obj
 0001:0003d730       ??_E?$Ptr@VDebugCounter@Debug@@@@QAEPAXI@Z 0043e730 f i foundation_win32.release:debugserver.obj
 0001:0003d7d0       ?Size@?$Array@V?$KeyValuePair@VStringAtom@Util@@V?$Ptr@VDebugTimer@Debug@@@@@Util@@@Util@@QBEHXZ 0043e7d0 f i foundation_win32.release:debugserver.obj
 0001:0003d7f0       ?Insert@?$Array@V?$KeyValuePair@VStringAtom@Util@@V?$Ptr@VDebugTimer@Debug@@@@@Util@@@Util@@QAEXHABV?$KeyValuePair@VStringAtom@Util@@V?$Ptr@VDebugTimer@Debug@@@@@2@@Z 0043e7f0 f i foundation_win32.release:debugserver.obj
 0001:0003d860       ?InsertAtEndOfIdenticalRange@?$Array@V?$KeyValuePair@VStringAtom@Util@@V?$Ptr@VDebugTimer@Debug@@@@@Util@@@Util@@QAEHHABV?$KeyValuePair@VStringAtom@Util@@V?$Ptr@VDebugTimer@Debug@@@@@2@@Z 0043e860 f i foundation_win32.release:debugserver.obj
 0001:0003d8e0       ?Destroy@?$Array@V?$KeyValuePair@VStringAtom@Util@@V?$Ptr@VDebugTimer@Debug@@@@@Util@@@Util@@AAEXPAV?$KeyValuePair@VStringAtom@Util@@V?$Ptr@VDebugTimer@Debug@@@@@2@@Z 0043e8e0 f i foundation_win32.release:debugserver.obj
 0001:0003d910       ?Grow@?$Array@V?$KeyValuePair@VStringAtom@Util@@V?$Ptr@VDebugTimer@Debug@@@@@Util@@@Util@@AAEXXZ 0043e910 f i foundation_win32.release:debugserver.obj
 0001:0003d990       ?Move@?$Array@V?$KeyValuePair@VStringAtom@Util@@V?$Ptr@VDebugTimer@Debug@@@@@Util@@@Util@@AAEXHH@Z 0043e990 f i foundation_win32.release:debugserver.obj
 0001:0003db20       ??4?$KeyValuePair@VStringAtom@Util@@V?$Ptr@VDebugTimer@Debug@@@@@Util@@QAEXABV01@@Z 0043eb20 f i foundation_win32.release:debugserver.obj
 0001:0003db50       ??9?$KeyValuePair@VStringAtom@Util@@V?$Ptr@VDebugTimer@Debug@@@@@Util@@QBE_NABV01@@Z 0043eb50 f i foundation_win32.release:debugserver.obj
 0001:0003db70       ??O?$KeyValuePair@VStringAtom@Util@@V?$Ptr@VDebugTimer@Debug@@@@@Util@@QBE_NABV01@@Z 0043eb70 f i foundation_win32.release:debugserver.obj
 0001:0003db90       ??M?$KeyValuePair@VStringAtom@Util@@V?$Ptr@VDebugTimer@Debug@@@@@Util@@QBE_NABV01@@Z 0043eb90 f i foundation_win32.release:debugserver.obj
 0001:0003dbb0       ?Size@?$Dictionary@VStringAtom@Util@@V?$Ptr@VDebugTimer@Debug@@@@@Util@@QBEHXZ 0043ebb0 f i foundation_win32.release:debugserver.obj
 0001:0003dbd0       ??0?$Array@V?$Ptr@VDebugTimer@Debug@@@@@Util@@QAE@HH@Z 0043ebd0 f i foundation_win32.release:debugserver.obj
 0001:0003dcc0       ?Append@?$Array@V?$Ptr@VDebugTimer@Debug@@@@@Util@@QAEXABV?$Ptr@VDebugTimer@Debug@@@@@Z 0043ecc0 f i foundation_win32.release:debugserver.obj
 0001:0003dd40       ?Size@?$Array@V?$KeyValuePair@VStringAtom@Util@@V?$Ptr@VDebugCounter@Debug@@@@@Util@@@Util@@QBEHXZ 0043ed40 f i foundation_win32.release:debugserver.obj
 0001:0003dd60       ?Insert@?$Array@V?$KeyValuePair@VStringAtom@Util@@V?$Ptr@VDebugCounter@Debug@@@@@Util@@@Util@@QAEXHABV?$KeyValuePair@VStringAtom@Util@@V?$Ptr@VDebugCounter@Debug@@@@@2@@Z 0043ed60 f i foundation_win32.release:debugserver.obj
 0001:0003ddd0       ?InsertAtEndOfIdenticalRange@?$Array@V?$KeyValuePair@VStringAtom@Util@@V?$Ptr@VDebugCounter@Debug@@@@@Util@@@Util@@QAEHHABV?$KeyValuePair@VStringAtom@Util@@V?$Ptr@VDebugCounter@Debug@@@@@2@@Z 0043edd0 f i foundation_win32.release:debugserver.obj
 0001:0003de50       ?Destroy@?$Array@V?$KeyValuePair@VStringAtom@Util@@V?$Ptr@VDebugCounter@Debug@@@@@Util@@@Util@@AAEXPAV?$KeyValuePair@VStringAtom@Util@@V?$Ptr@VDebugCounter@Debug@@@@@2@@Z 0043ee50 f i foundation_win32.release:debugserver.obj
 0001:0003de80       ?Grow@?$Array@V?$KeyValuePair@VStringAtom@Util@@V?$Ptr@VDebugCounter@Debug@@@@@Util@@@Util@@AAEXXZ 0043ee80 f i foundation_win32.release:debugserver.obj
 0001:0003df00       ?Move@?$Array@V?$KeyValuePair@VStringAtom@Util@@V?$Ptr@VDebugCounter@Debug@@@@@Util@@@Util@@AAEXHH@Z 0043ef00 f i foundation_win32.release:debugserver.obj
 0001:0003e090       ??4?$KeyValuePair@VStringAtom@Util@@V?$Ptr@VDebugCounter@Debug@@@@@Util@@QAEXABV01@@Z 0043f090 f i foundation_win32.release:debugserver.obj
 0001:0003e0c0       ??9?$KeyValuePair@VStringAtom@Util@@V?$Ptr@VDebugCounter@Debug@@@@@Util@@QBE_NABV01@@Z 0043f0c0 f i foundation_win32.release:debugserver.obj
 0001:0003e0e0       ??O?$KeyValuePair@VStringAtom@Util@@V?$Ptr@VDebugCounter@Debug@@@@@Util@@QBE_NABV01@@Z 0043f0e0 f i foundation_win32.release:debugserver.obj
 0001:0003e100       ??M?$KeyValuePair@VStringAtom@Util@@V?$Ptr@VDebugCounter@Debug@@@@@Util@@QBE_NABV01@@Z 0043f100 f i foundation_win32.release:debugserver.obj
 0001:0003e120       ?Size@?$Dictionary@VStringAtom@Util@@V?$Ptr@VDebugCounter@Debug@@@@@Util@@QBEHXZ 0043f120 f i foundation_win32.release:debugserver.obj
 0001:0003e140       ??0?$Array@V?$Ptr@VDebugCounter@Debug@@@@@Util@@QAE@HH@Z 0043f140 f i foundation_win32.release:debugserver.obj
 0001:0003e230       ?Append@?$Array@V?$Ptr@VDebugCounter@Debug@@@@@Util@@QAEXABV?$Ptr@VDebugCounter@Debug@@@@@Z 0043f230 f i foundation_win32.release:debugserver.obj
 0001:0003e2b0       ??_G?$KeyValuePair@VStringAtom@Util@@V?$Ptr@VDebugTimer@Debug@@@@@Util@@QAEPAXI@Z 0043f2b0 f i foundation_win32.release:debugserver.obj
 0001:0003e2f0       ??_G?$KeyValuePair@VStringAtom@Util@@V?$Ptr@VDebugCounter@Debug@@@@@Util@@QAEPAXI@Z 0043f2f0 f i foundation_win32.release:debugserver.obj
 0001:0003e330       ?GrowTo@?$Array@V?$KeyValuePair@VStringAtom@Util@@V?$Ptr@VDebugTimer@Debug@@@@@Util@@@Util@@AAEXH@Z 0043f330 f i foundation_win32.release:debugserver.obj
 0001:0003e450       ?Grow@?$Array@V?$Ptr@VDebugTimer@Debug@@@@@Util@@AAEXXZ 0043f450 f i foundation_win32.release:debugserver.obj
 0001:0003e4d0       ?GrowTo@?$Array@V?$KeyValuePair@VStringAtom@Util@@V?$Ptr@VDebugCounter@Debug@@@@@Util@@@Util@@AAEXH@Z 0043f4d0 f i foundation_win32.release:debugserver.obj
 0001:0003e5f0       ?Grow@?$Array@V?$Ptr@VDebugCounter@Debug@@@@@Util@@AAEXXZ 0043f5f0 f i foundation_win32.release:debugserver.obj
 0001:0003e670       ??0?$KeyValuePair@VStringAtom@Util@@V?$Ptr@VDebugTimer@Debug@@@@@Util@@QAE@XZ 0043f670 f i foundation_win32.release:debugserver.obj
 0001:0003e6a0       ?GrowTo@?$Array@V?$Ptr@VDebugTimer@Debug@@@@@Util@@AAEXH@Z 0043f6a0 f i foundation_win32.release:debugserver.obj
 0001:0003e7c0       ??0?$KeyValuePair@VStringAtom@Util@@V?$Ptr@VDebugCounter@Debug@@@@@Util@@QAE@XZ 0043f7c0 f i foundation_win32.release:debugserver.obj
 0001:0003e7f0       ?GrowTo@?$Array@V?$Ptr@VDebugCounter@Debug@@@@@Util@@AAEXH@Z 0043f7f0 f i foundation_win32.release:debugserver.obj
 0001:0003e910       ?Clear@StringAtom@Util@@QAEXXZ 0043f910 f i foundation_win32.release:debugtimer.obj
 0001:0003e930       ??2DebugTimer@Debug@@SAPAXI@Z 0043f930 f i foundation_win32.release:debugtimer.obj
 0001:0003e940       ??3DebugTimer@Debug@@SAXPAX@Z 0043f940 f i foundation_win32.release:debugtimer.obj
 0001:0003e960       ?IsValid@DebugTimer@Debug@@QBE_NXZ 0043f960 f i foundation_win32.release:debugtimer.obj
 0001:0003e9a0       ?Instance@DebugServer@Debug@@SAPAV12@XZ 0043f9a0 f i foundation_win32.release:debugtimer.obj
 0001:0003e9d0       ?GetRtti@DebugTimer@Debug@@UBEPAVRtti@Core@@XZ 0043f9d0 f   foundation_win32.release:debugtimer.obj
 0001:0003e9e0       ?FactoryCreator@DebugTimer@Debug@@SAPAVRefCounted@Core@@XZ 0043f9e0 f   foundation_win32.release:debugtimer.obj
 0001:0003e9f0       ?Create@DebugTimer@Debug@@SAPAV12@XZ 0043f9f0 f   foundation_win32.release:debugtimer.obj
 0001:0003ea30       ?RegisterWithFactory@DebugTimer@Debug@@SA_NXZ 0043fa30 f   foundation_win32.release:debugtimer.obj
 0001:0003eb30       ??0DebugTimer@Debug@@QAE@XZ 0043fb30 f   foundation_win32.release:debugtimer.obj
 0001:0003ebc0       ??_GDebugTimer@Debug@@UAEPAXI@Z 0043fbc0 f i foundation_win32.release:debugtimer.obj
 0001:0003ebc0       ??_EDebugTimer@Debug@@UAEPAXI@Z 0043fbc0 f i  CIL library: CIL module
 0001:0003ebf0       ??1DebugTimer@Debug@@UAE@XZ 0043fbf0 f   foundation_win32.release:debugtimer.obj
 0001:0003ecb0       ?Setup@DebugTimer@Debug@@QAEXABVStringAtom@Util@@@Z 0043fcb0 f   foundation_win32.release:debugtimer.obj
 0001:0003ede0       ?Discard@DebugTimer@Debug@@QAEXXZ 0043fde0 f   foundation_win32.release:debugtimer.obj
 0001:0003eed0       ?GetSample@DebugTimer@Debug@@QBENXZ 0043fed0 f   foundation_win32.release:debugtimer.obj
 0001:0003ef40       ?GetHistory@DebugTimer@Debug@@QBE?AV?$Array@N@Util@@XZ 0043ff40 f   foundation_win32.release:debugtimer.obj
 0001:0003efb0       ?CreateAsSingleton@DebugTimer@Debug@@SA?AV?$Ptr@VDebugTimer@Debug@@@@ABVStringAtom@Util@@@Z 0043ffb0 f   foundation_win32.release:debugtimer.obj
 0001:0003f030       ?DestroySingleton@DebugTimer@Debug@@SAXABVStringAtom@Util@@@Z 00440030 f   foundation_win32.release:debugtimer.obj
 0001:0003f090       ??0?$RingBuffer@N@Util@@QAE@H@Z 00440090 f i foundation_win32.release:debugtimer.obj
 0001:0003f0c0       ??1?$RingBuffer@N@Util@@QAE@XZ 004400c0 f i foundation_win32.release:debugtimer.obj
 0001:0003f0e0       ?IsEmpty@?$RingBuffer@N@Util@@QBE_NXZ 004400e0 f i foundation_win32.release:debugtimer.obj
 0001:0003f100       ?Reset@?$RingBuffer@N@Util@@QAEXXZ 00440100 f i foundation_win32.release:debugtimer.obj
 0001:0003f130       ?Back@?$RingBuffer@N@Util@@QBEAANXZ 00440130 f i foundation_win32.release:debugtimer.obj
 0001:0003f170       ?AsArray@?$RingBuffer@N@Util@@QBE?AV?$Array@N@2@XZ 00440170 f i foundation_win32.release:debugtimer.obj
 0001:0003f1e0       ??0?$Ptr@VDebugTimer@Debug@@@@QAE@PAVDebugTimer@Debug@@@Z 004401e0 f i foundation_win32.release:debugtimer.obj
 0001:0003f220       ??0?$Array@N@Util@@QAE@ABV01@@Z 00440220 f i foundation_win32.release:debugtimer.obj
 0001:0003f270       ??1?$Array@N@Util@@QAE@XZ  00440270 f i foundation_win32.release:debugtimer.obj
 0001:0003f290       ??A?$RingBuffer@N@Util@@QBEAANH@Z 00440290 f i foundation_win32.release:debugtimer.obj
 0001:0003f300       ?Allocate@?$RingBuffer@N@Util@@AAEXH@Z 00440300 f i foundation_win32.release:debugtimer.obj
 0001:0003f3a0       ?Delete@?$RingBuffer@N@Util@@AAEXXZ 004403a0 f i foundation_win32.release:debugtimer.obj
 0001:0003f400       ??0?$Array@N@Util@@QAE@HH@Z 00440400 f i foundation_win32.release:debugtimer.obj
 0001:0003f490       ?Append@?$Array@N@Util@@QAEXABN@Z 00440490 f i foundation_win32.release:debugtimer.obj
 0001:0003f500       ?Copy@?$Array@N@Util@@AAEXABV12@@Z 00440500 f i foundation_win32.release:debugtimer.obj
 0001:0003f5d0       ?Delete@?$Array@N@Util@@AAEXXZ 004405d0 f i foundation_win32.release:debugtimer.obj
 0001:0003f630       ?Grow@?$Array@N@Util@@AAEXXZ 00440630 f i foundation_win32.release:debugtimer.obj
 0001:0003f6b0       ?GrowTo@?$Array@N@Util@@AAEXH@Z 004406b0 f i foundation_win32.release:debugtimer.obj
 0001:0003f760       ??2MemoryStream@IO@@SAPAXI@Z 00440760 f i foundation_win32.release:memorystream.obj
 0001:0003f770       ??3MemoryStream@IO@@SAXPAX@Z 00440770 f i foundation_win32.release:memorystream.obj
 0001:0003f790       ?GetRtti@MemoryStream@IO@@UBEPAVRtti@Core@@XZ 00440790 f   foundation_win32.release:memorystream.obj
 0001:0003f7a0       ?FactoryCreator@MemoryStream@IO@@SAPAVRefCounted@Core@@XZ 004407a0 f   foundation_win32.release:memorystream.obj
 0001:0003f7b0       ?Create@MemoryStream@IO@@SAPAV12@XZ 004407b0 f   foundation_win32.release:memorystream.obj
 0001:0003f7f0       ?RegisterWithFactory@MemoryStream@IO@@SA_NXZ 004407f0 f   foundation_win32.release:memorystream.obj
 0001:0003f8f0       ??0MemoryStream@IO@@QAE@XZ 004408f0 f   foundation_win32.release:memorystream.obj
 0001:0003f950       ??_EMemoryStream@IO@@UAEPAXI@Z 00440950 f i  CIL library: CIL module
 0001:0003f950       ??_GMemoryStream@IO@@UAEPAXI@Z 00440950 f i foundation_win32.release:memorystream.obj
 0001:0003f980       ??1MemoryStream@IO@@UAE@XZ 00440980 f   foundation_win32.release:memorystream.obj
 0001:0003f9e0       ?CanRead@MemoryStream@IO@@UBE_NXZ 004409e0 f   foundation_win32.release:memorystream.obj
 0001:0003f9f0       ?CanWrite@MemoryStream@IO@@UBE_NXZ 004409f0 f   foundation_win32.release:memorystream.obj
 0001:0003fa00       ?CanSeek@MemoryStream@IO@@UBE_NXZ 00440a00 f   foundation_win32.release:memorystream.obj
 0001:0003fa10       ?CanBeMapped@MemoryStream@IO@@UBE_NXZ 00440a10 f   foundation_win32.release:memorystream.obj
 0001:0003fa20       ?SetSize@MemoryStream@IO@@UAEXH@Z 00440a20 f   foundation_win32.release:memorystream.obj
 0001:0003fa60       ?GetSize@MemoryStream@IO@@UBEHXZ 00440a60 f   foundation_win32.release:memorystream.obj
 0001:0003fa80       ?GetPosition@MemoryStream@IO@@UBEHXZ 00440a80 f   foundation_win32.release:memorystream.obj
 0001:0003faa0       ?Open@MemoryStream@IO@@UAE_NXZ 00440aa0 f   foundation_win32.release:memorystream.obj
 0001:0003fb40       ?Close@MemoryStream@IO@@UAEXXZ 00440b40 f   foundation_win32.release:memorystream.obj
 0001:0003fba0       ?Write@MemoryStream@IO@@UAEXPBXH@Z 00440ba0 f   foundation_win32.release:memorystream.obj
 0001:0003fd80       ?Read@MemoryStream@IO@@UAEHPAXH@Z 00440d80 f   foundation_win32.release:memorystream.obj
 0001:0003ff50       ?Seek@MemoryStream@IO@@UAEXHW4SeekOrigin@Stream@2@@Z 00440f50 f   foundation_win32.release:memorystream.obj
 0001:00040090       ?Eof@MemoryStream@IO@@UBE_NXZ 00441090 f   foundation_win32.release:memorystream.obj
 0001:00040140       ?HasRoom@MemoryStream@IO@@ABE_NH@Z 00441140 f   foundation_win32.release:memorystream.obj
 0001:00040170       ?Realloc@MemoryStream@IO@@AAEXH@Z 00441170 f   foundation_win32.release:memorystream.obj
 0001:000402f0       ?MakeRoom@MemoryStream@IO@@AAEXH@Z 004412f0 f   foundation_win32.release:memorystream.obj
 0001:000403c0       ?Map@MemoryStream@IO@@UAEPAXXZ 004413c0 f   foundation_win32.release:memorystream.obj
 0001:00040430       ?Unmap@MemoryStream@IO@@UAEXXZ 00441430 f   foundation_win32.release:memorystream.obj
 0001:00040470       ?GetRawPointer@MemoryStream@IO@@QBEPAXXZ 00441470 f   foundation_win32.release:memorystream.obj
 0001:000404b0       ??2HttpClientRegistry@Http@@SAPAXI@Z 004414b0 f i foundation_win32.release:httpclientregistry.obj
 0001:000404c0       ??3HttpClientRegistry@Http@@SAXPAX@Z 004414c0 f i foundation_win32.release:httpclientregistry.obj
 0001:000404e0       ?IsValid@HttpClientRegistry@Http@@QBE_NXZ 004414e0 f i foundation_win32.release:httpclientregistry.obj
 0001:00040500       ?GetRtti@HttpClientRegistry@Http@@UBEPAVRtti@Core@@XZ 00441500 f   foundation_win32.release:httpclientregistry.obj
 0001:00040510       ?FactoryCreator@HttpClientRegistry@Http@@SAPAVRefCounted@Core@@XZ 00441510 f   foundation_win32.release:httpclientregistry.obj
 0001:00040520       ?Create@HttpClientRegistry@Http@@SAPAV12@XZ 00441520 f   foundation_win32.release:httpclientregistry.obj
 0001:00040560       ?RegisterWithFactory@HttpClientRegistry@Http@@SA_NXZ 00441560 f   foundation_win32.release:httpclientregistry.obj
 0001:00040660       ??0HttpClientRegistry@Http@@QAE@XZ 00441660 f   foundation_win32.release:httpclientregistry.obj
 0001:000406d0       ??_EHttpClientRegistry@Http@@UAEPAXI@Z 004416d0 f i  CIL library: CIL module
 0001:000406d0       ??_GHttpClientRegistry@Http@@UAEPAXI@Z 004416d0 f i foundation_win32.release:httpclientregistry.obj
 0001:00040700       ??1?$Dictionary@VStringAtom@Util@@UConnection@HttpClientRegistry@Http@@@Util@@QAE@XZ 00441700 f i foundation_win32.release:httpclientregistry.obj
 0001:00040720       ??1HttpClientRegistry@Http@@UAE@XZ 00441720 f   foundation_win32.release:httpclientregistry.obj
 0001:000407a0       ?Setup@HttpClientRegistry@Http@@QAEXXZ 004417a0 f   foundation_win32.release:httpclientregistry.obj
 0001:000407e0       ?Discard@HttpClientRegistry@Http@@QAEXXZ 004417e0 f   foundation_win32.release:httpclientregistry.obj
 0001:00040870       ?DisconnectIdle@HttpClientRegistry@Http@@QAEXXZ 00441870 f   foundation_win32.release:httpclientregistry.obj
 0001:000408f0       ?ObtainConnection@HttpClientRegistry@Http@@QAE?AV?$Ptr@VHttpClient@Http@@@@ABVURI@IO@@@Z 004418f0 f   foundation_win32.release:httpclientregistry.obj
 0001:00040a00       ??0Connection@HttpClientRegistry@Http@@QAE@XZ 00441a00 f i foundation_win32.release:httpclientregistry.obj
 0001:00040a20       ??1Connection@HttpClientRegistry@Http@@QAE@XZ 00441a20 f i foundation_win32.release:httpclientregistry.obj
 0001:00040a40       ?ReleaseConnection@HttpClientRegistry@Http@@QAEXABVURI@IO@@@Z 00441a40 f   foundation_win32.release:httpclientregistry.obj
 0001:00040ae0       ?IsConnected@HttpClientRegistry@Http@@QBE_NABVURI@IO@@@Z 00441ae0 f   foundation_win32.release:httpclientregistry.obj
 0001:00040b60       ??0?$Ptr@VHttpClient@Http@@@@QAE@ABV0@@Z 00441b60 f i foundation_win32.release:httpclientregistry.obj
 0001:00040ba0       ??0?$Ptr@VHttpClient@Http@@@@QAE@XZ 00441ba0 f i foundation_win32.release:httpclientregistry.obj
 0001:00040bc0       ??4?$Ptr@VHttpClient@Http@@@@QAEXPAVHttpClient@Http@@@Z 00441bc0 f i foundation_win32.release:httpclientregistry.obj
 0001:00040c20       ??1?$Array@V?$KeyValuePair@VStringAtom@Util@@UConnection@HttpClientRegistry@Http@@@Util@@@Util@@QAE@XZ 00441c20 f i foundation_win32.release:httpclientregistry.obj
 0001:00040c40       ??0?$Dictionary@VStringAtom@Util@@UConnection@HttpClientRegistry@Http@@@Util@@QAE@XZ 00441c40 f i foundation_win32.release:httpclientregistry.obj
 0001:00040c60       ??A?$Dictionary@VStringAtom@Util@@UConnection@HttpClientRegistry@Http@@@Util@@QBEABUConnection@HttpClientRegistry@Http@@ABVStringAtom@1@@Z 00441c60 f i foundation_win32.release:httpclientregistry.obj
 0001:00040cb0       ??A?$Dictionary@VStringAtom@Util@@UConnection@HttpClientRegistry@Http@@@Util@@QAEAAUConnection@HttpClientRegistry@Http@@ABVStringAtom@1@@Z 00441cb0 f i foundation_win32.release:httpclientregistry.obj
 0001:00040d00       ?Size@?$Dictionary@VStringAtom@Util@@UConnection@HttpClientRegistry@Http@@@Util@@QBEHXZ 00441d00 f i foundation_win32.release:httpclientregistry.obj
 0001:00040d20       ?Clear@?$Dictionary@VStringAtom@Util@@UConnection@HttpClientRegistry@Http@@@Util@@QAEXXZ 00441d20 f i foundation_win32.release:httpclientregistry.obj
 0001:00040d60       ?Add@?$Dictionary@VStringAtom@Util@@UConnection@HttpClientRegistry@Http@@@Util@@QAEXABVStringAtom@2@ABUConnection@HttpClientRegistry@Http@@@Z 00441d60 f i foundation_win32.release:httpclientregistry.obj
 0001:00040db0       ?EraseAtIndex@?$Dictionary@VStringAtom@Util@@UConnection@HttpClientRegistry@Http@@@Util@@QAEXH@Z 00441db0 f i foundation_win32.release:httpclientregistry.obj
 0001:00040df0       ?FindIndex@?$Dictionary@VStringAtom@Util@@UConnection@HttpClientRegistry@Http@@@Util@@QBEHABVStringAtom@2@@Z 00441df0 f i foundation_win32.release:httpclientregistry.obj
 0001:00040e50       ?Contains@?$Dictionary@VStringAtom@Util@@UConnection@HttpClientRegistry@Http@@@Util@@QBE_NABVStringAtom@2@@Z 00441e50 f i foundation_win32.release:httpclientregistry.obj
 0001:00040eb0       ?ValueAtIndex@?$Dictionary@VStringAtom@Util@@UConnection@HttpClientRegistry@Http@@@Util@@QAEAAUConnection@HttpClientRegistry@Http@@H@Z 00441eb0 f i foundation_win32.release:httpclientregistry.obj
 0001:00040f00       ??1?$KeyValuePair@VStringAtom@Util@@UConnection@HttpClientRegistry@Http@@@Util@@QAE@XZ 00441f00 f i foundation_win32.release:httpclientregistry.obj
 0001:00040f20       ??0?$Array@V?$KeyValuePair@VStringAtom@Util@@UConnection@HttpClientRegistry@Http@@@Util@@@Util@@QAE@XZ 00441f20 f i foundation_win32.release:httpclientregistry.obj
 0001:00040f60       ??A?$Array@V?$KeyValuePair@VStringAtom@Util@@UConnection@HttpClientRegistry@Http@@@Util@@@Util@@QBEAAV?$KeyValuePair@VStringAtom@Util@@UConnection@HttpClientRegistry@Http@@@1@H@Z 00441f60 f i foundation_win32.release:httpclientregistry.obj
 0001:00040fb0       ?Append@?$Array@V?$KeyValuePair@VStringAtom@Util@@UConnection@HttpClientRegistry@Http@@@Util@@@Util@@QAEXABV?$KeyValuePair@VStringAtom@Util@@UConnection@HttpClientRegistry@Http@@@2@@Z 00441fb0 f i foundation_win32.release:httpclientregistry.obj
 0001:00041030       ?Size@?$Array@V?$KeyValuePair@VStringAtom@Util@@UConnection@HttpClientRegistry@Http@@@Util@@@Util@@QBEHXZ 00442030 f i foundation_win32.release:httpclientregistry.obj
 0001:00041050       ?EraseIndex@?$Array@V?$KeyValuePair@VStringAtom@Util@@UConnection@HttpClientRegistry@Http@@@Util@@@Util@@QAEXH@Z 00442050 f i foundation_win32.release:httpclientregistry.obj
 0001:000410d0       ?InsertSorted@?$Array@V?$KeyValuePair@VStringAtom@Util@@UConnection@HttpClientRegistry@Http@@@Util@@@Util@@QAEHABV?$KeyValuePair@VStringAtom@Util@@UConnection@HttpClientRegistry@Http@@@2@@Z 004420d0 f i foundation_win32.release:httpclientregistry.obj
 0001:00041340       ?Clear@?$Array@V?$KeyValuePair@VStringAtom@Util@@UConnection@HttpClientRegistry@Http@@@Util@@@Util@@QAEXXZ 00442340 f i foundation_win32.release:httpclientregistry.obj
 0001:00041390       ?BinarySearchIndex@?$Array@V?$KeyValuePair@VStringAtom@Util@@UConnection@HttpClientRegistry@Http@@@Util@@@Util@@QBEHABV?$KeyValuePair@VStringAtom@Util@@UConnection@HttpClientRegistry@Http@@@2@@Z 00442390 f i foundation_win32.release:httpclientregistry.obj
 0001:000414c0       ?Delete@?$Array@V?$KeyValuePair@VStringAtom@Util@@UConnection@HttpClientRegistry@Http@@@Util@@@Util@@AAEXXZ 004424c0 f i foundation_win32.release:httpclientregistry.obj
 0001:00041530       ??0?$KeyValuePair@VStringAtom@Util@@UConnection@HttpClientRegistry@Http@@@Util@@QAE@ABVStringAtom@1@@Z 00442530 f i foundation_win32.release:httpclientregistry.obj
 0001:00041560       ??0?$KeyValuePair@VStringAtom@Util@@UConnection@HttpClientRegistry@Http@@@Util@@QAE@ABVStringAtom@1@ABUConnection@HttpClientRegistry@Http@@@Z 00442560 f i foundation_win32.release:httpclientregistry.obj
 0001:000415a0       ?Value@?$KeyValuePair@VStringAtom@Util@@UConnection@HttpClientRegistry@Http@@@Util@@QAEAAUConnection@HttpClientRegistry@Http@@XZ 004425a0 f i foundation_win32.release:httpclientregistry.obj
 0001:000415c0       ??_E?$KeyValuePair@VStringAtom@Util@@UConnection@HttpClientRegistry@Http@@@Util@@QAEPAXI@Z 004425c0 f i foundation_win32.release:httpclientregistry.obj
 0001:00041660       ??0Connection@HttpClientRegistry@Http@@QAE@ABU012@@Z 00442660 f i foundation_win32.release:httpclientregistry.obj
 0001:00041690       ?Insert@?$Array@V?$KeyValuePair@VStringAtom@Util@@UConnection@HttpClientRegistry@Http@@@Util@@@Util@@QAEXHABV?$KeyValuePair@VStringAtom@Util@@UConnection@HttpClientRegistry@Http@@@2@@Z 00442690 f i foundation_win32.release:httpclientregistry.obj
 0001:00041700       ?InsertAtEndOfIdenticalRange@?$Array@V?$KeyValuePair@VStringAtom@Util@@UConnection@HttpClientRegistry@Http@@@Util@@@Util@@QAEHHABV?$KeyValuePair@VStringAtom@Util@@UConnection@HttpClientRegistry@Http@@@2@@Z 00442700 f i foundation_win32.release:httpclientregistry.obj
 0001:00041780       ?Destroy@?$Array@V?$KeyValuePair@VStringAtom@Util@@UConnection@HttpClientRegistry@Http@@@Util@@@Util@@AAEXPAV?$KeyValuePair@VStringAtom@Util@@UConnection@HttpClientRegistry@Http@@@2@@Z 00442780 f i foundation_win32.release:httpclientregistry.obj
 0001:000417b0       ?Grow@?$Array@V?$KeyValuePair@VStringAtom@Util@@UConnection@HttpClientRegistry@Http@@@Util@@@Util@@AAEXXZ 004427b0 f i foundation_win32.release:httpclientregistry.obj
 0001:00041830       ?Move@?$Array@V?$KeyValuePair@VStringAtom@Util@@UConnection@HttpClientRegistry@Http@@@Util@@@Util@@AAEXHH@Z 00442830 f i foundation_win32.release:httpclientregistry.obj
 0001:000419c0       ??4?$KeyValuePair@VStringAtom@Util@@UConnection@HttpClientRegistry@Http@@@Util@@QAEXABV01@@Z 004429c0 f i foundation_win32.release:httpclientregistry.obj
 0001:00041a10       ??9?$KeyValuePair@VStringAtom@Util@@UConnection@HttpClientRegistry@Http@@@Util@@QBE_NABV01@@Z 00442a10 f i foundation_win32.release:httpclientregistry.obj
 0001:00041a30       ??O?$KeyValuePair@VStringAtom@Util@@UConnection@HttpClientRegistry@Http@@@Util@@QBE_NABV01@@Z 00442a30 f i foundation_win32.release:httpclientregistry.obj
 0001:00041a50       ??M?$KeyValuePair@VStringAtom@Util@@UConnection@HttpClientRegistry@Http@@@Util@@QBE_NABV01@@Z 00442a50 f i foundation_win32.release:httpclientregistry.obj
 0001:00041a70       ??_G?$KeyValuePair@VStringAtom@Util@@UConnection@HttpClientRegistry@Http@@@Util@@QAEPAXI@Z 00442a70 f i foundation_win32.release:httpclientregistry.obj
 0001:00041ab0       ??4Connection@HttpClientRegistry@Http@@QAEAAU012@ABU012@@Z 00442ab0 f i foundation_win32.release:httpclientregistry.obj
 0001:00041ae0       ?GrowTo@?$Array@V?$KeyValuePair@VStringAtom@Util@@UConnection@HttpClientRegistry@Http@@@Util@@@Util@@AAEXH@Z 00442ae0 f i foundation_win32.release:httpclientregistry.obj
 0001:00041c00       ??4?$Ptr@VHttpClient@Http@@@@QAEXABV0@@Z 00442c00 f i foundation_win32.release:httpclientregistry.obj
 0001:00041c60       ??0?$KeyValuePair@VStringAtom@Util@@UConnection@HttpClientRegistry@Http@@@Util@@QAE@XZ 00442c60 f i foundation_win32.release:httpclientregistry.obj
 0001:00041c90       ?SetBlocking@StdTcpClient@Net@@QAEX_N@Z 00442c90 f i foundation_win32.release:httpclient.obj
 0001:00041cd0       ?IsBlocking@StdTcpClient@Net@@QBE_NXZ 00442cd0 f i foundation_win32.release:httpclient.obj
 0001:00041cf0       ?SetServerAddress@StdTcpClient@Net@@QAEXABVWin360IpAddress@Win360@@@Z 00442cf0 f i foundation_win32.release:httpclient.obj
 0001:00041d10       ??2HttpClient@Http@@SAPAXI@Z 00442d10 f i foundation_win32.release:httpclient.obj
 0001:00041d20       ??3HttpClient@Http@@SAXPAX@Z 00442d20 f i foundation_win32.release:httpclient.obj
 0001:00041d40       ?SetMethod@HttpRequestWriter@Http@@QAEXW4Code@HttpMethod@2@@Z 00442d40 f i foundation_win32.release:httpclient.obj
 0001:00041d60       ?SetURI@HttpRequestWriter@Http@@QAEXABVURI@IO@@@Z 00442d60 f i foundation_win32.release:httpclient.obj
 0001:00041d80       ?SetUserAgent@HttpRequestWriter@Http@@QAEXABVString@Util@@@Z 00442d80 f i foundation_win32.release:httpclient.obj
 0001:00041dd0       ?IsValidHttpResponse@HttpResponseReader@Http@@QBE_NXZ 00442dd0 f i foundation_win32.release:httpclient.obj
 0001:00041df0       ?GetStatusCode@HttpResponseReader@Http@@QBE?AW4Code@HttpStatus@2@XZ 00442df0 f i foundation_win32.release:httpclient.obj
 0001:00041e10       ?GetContentLength@HttpResponseReader@Http@@QBEHXZ 00442e10 f i foundation_win32.release:httpclient.obj
 0001:00041e30       ?GetRtti@HttpClient@Http@@UBEPAVRtti@Core@@XZ 00442e30 f   foundation_win32.release:httpclient.obj
 0001:00041e40       ?FactoryCreator@HttpClient@Http@@SAPAVRefCounted@Core@@XZ 00442e40 f   foundation_win32.release:httpclient.obj
 0001:00041e50       ?Create@HttpClient@Http@@SAPAV12@XZ 00442e50 f   foundation_win32.release:httpclient.obj
 0001:00041e90       ?RegisterWithFactory@HttpClient@Http@@SA_NXZ 00442e90 f   foundation_win32.release:httpclient.obj
 0001:00041f90       ??0HttpClient@Http@@QAE@XZ 00442f90 f   foundation_win32.release:httpclient.obj
 0001:00042030       ??_EHttpClient@Http@@UAEPAXI@Z 00443030 f i  CIL library: CIL module
 0001:00042030       ??_GHttpClient@Http@@UAEPAXI@Z 00443030 f i foundation_win32.release:httpclient.obj
 0001:00042060       ??1HttpClient@Http@@UAE@XZ 00443060 f   foundation_win32.release:httpclient.obj
 0001:00042100       ?Connect@HttpClient@Http@@QAE_NABVURI@IO@@@Z 00443100 f   foundation_win32.release:httpclient.obj
 0001:000421f0       ?Disconnect@HttpClient@Http@@QAEXXZ 004431f0 f   foundation_win32.release:httpclient.obj
 0001:00042220       ?IsConnected@HttpClient@Http@@QBE_NXZ 00443220 f   foundation_win32.release:httpclient.obj
 0001:00042240       ?SendRequest@HttpClient@Http@@QAE?AW4Code@HttpStatus@2@W43HttpMethod@2@ABVURI@IO@@ABV?$Ptr@VStream@IO@@@@@Z 00443240 f   foundation_win32.release:httpclient.obj
 0001:000427e0       ?isvalid@?$Ptr@VSocket@Net@@@@QBE_NXZ 004437e0 f i foundation_win32.release:httpclient.obj
 0001:00042800       ??0?$Ptr@VTcpClient@Net@@@@QAE@XZ 00443800 f i foundation_win32.release:httpclient.obj
 0001:00042820       ??1?$Ptr@VTcpClient@Net@@@@QAE@XZ 00443820 f i foundation_win32.release:httpclient.obj
 0001:00042850       ??4?$Ptr@VTcpClient@Net@@@@QAEXPAVTcpClient@Net@@@Z 00443850 f i foundation_win32.release:httpclient.obj
 0001:000428b0       ??C?$Ptr@VTcpClient@Net@@@@QBEPAVTcpClient@Net@@XZ 004438b0 f i foundation_win32.release:httpclient.obj
 0001:000428f0       ??0?$Ptr@VHttpRequestWriter@Http@@@@QAE@PAVHttpRequestWriter@Http@@@Z 004438f0 f i foundation_win32.release:httpclient.obj
 0001:00042930       ??1?$Ptr@VHttpRequestWriter@Http@@@@QAE@XZ 00443930 f i foundation_win32.release:httpclient.obj
 0001:00042960       ??C?$Ptr@VHttpRequestWriter@Http@@@@QBEPAVHttpRequestWriter@Http@@XZ 00443960 f i foundation_win32.release:httpclient.obj
 0001:000429a0       ??0?$Ptr@VHttpResponseReader@Http@@@@QAE@PAVHttpResponseReader@Http@@@Z 004439a0 f i foundation_win32.release:httpclient.obj
 0001:000429e0       ??1?$Ptr@VHttpResponseReader@Http@@@@QAE@XZ 004439e0 f i foundation_win32.release:httpclient.obj
 0001:00042a10       ??C?$Ptr@VHttpResponseReader@Http@@@@QBEPAVHttpResponseReader@Http@@XZ 00443a10 f i foundation_win32.release:httpclient.obj
 0001:00042a50       ??2TcpServer@Net@@SAPAXI@Z 00443a50 f i foundation_win32.release:tcpserver.obj
 0001:00042a60       ??3TcpServer@Net@@SAXPAX@Z 00443a60 f i foundation_win32.release:tcpserver.obj
 0001:00042a80       ?GetRtti@TcpServer@Net@@UBEPAVRtti@Core@@XZ 00443a80 f   foundation_win32.release:tcpserver.obj
 0001:00042a90       ?FactoryCreator@TcpServer@Net@@SAPAVRefCounted@Core@@XZ 00443a90 f   foundation_win32.release:tcpserver.obj
 0001:00042aa0       ?Create@TcpServer@Net@@SAPAV12@XZ 00443aa0 f   foundation_win32.release:tcpserver.obj
 0001:00042ae0       ??0TcpServer@Net@@QAE@XZ   00443ae0 f i foundation_win32.release:tcpserver.obj
 0001:00042b00       ??_GTcpServer@Net@@UAEPAXI@Z 00443b00 f i foundation_win32.release:tcpserver.obj
 0001:00042b00       ??_ETcpServer@Net@@UAEPAXI@Z 00443b00 f i  CIL library: CIL module
 0001:00042b30       ??1TcpServer@Net@@UAE@XZ   00443b30 f i foundation_win32.release:tcpserver.obj
 0001:00042b50       ?RegisterWithFactory@TcpServer@Net@@SA_NXZ 00443b50 f   foundation_win32.release:tcpserver.obj
 0001:00042c50       ?SetReUseAddr@Win360Socket@Win360@@QAEX_N@Z 00443c50 f i foundation_win32.release:stdtcpserver.obj
 0001:00042c70       ??2StdTcpServer@Net@@SAPAXI@Z 00443c70 f i foundation_win32.release:stdtcpserver.obj
 0001:00042c80       ??3StdTcpServer@Net@@SAXPAX@Z 00443c80 f i foundation_win32.release:stdtcpserver.obj
 0001:00042ca0       ??2ListenerThread@StdTcpServer@Net@@SAPAXI@Z 00443ca0 f i foundation_win32.release:stdtcpserver.obj
 0001:00042cb0       ??3ListenerThread@StdTcpServer@Net@@SAXPAX@Z 00443cb0 f i foundation_win32.release:stdtcpserver.obj
 0001:00042cd0       ?IsOpen@StdTcpServer@Net@@QBE_NXZ 00443cd0 f i foundation_win32.release:stdtcpserver.obj
 0001:00042cf0       ?GetRtti@StdTcpServer@Net@@UBEPAVRtti@Core@@XZ 00443cf0 f   foundation_win32.release:stdtcpserver.obj
 0001:00042d00       ?FactoryCreator@StdTcpServer@Net@@SAPAVRefCounted@Core@@XZ 00443d00 f   foundation_win32.release:stdtcpserver.obj
 0001:00042d10       ?Create@StdTcpServer@Net@@SAPAV12@XZ 00443d10 f   foundation_win32.release:stdtcpserver.obj
 0001:00042d50       ?RegisterWithFactory@StdTcpServer@Net@@SA_NXZ 00443d50 f   foundation_win32.release:stdtcpserver.obj
 0001:00042e50       ?GetRtti@ListenerThread@StdTcpServer@Net@@UBEPAVRtti@Core@@XZ 00443e50 f   foundation_win32.release:stdtcpserver.obj
 0001:00042e60       ?FactoryCreator@ListenerThread@StdTcpServer@Net@@SAPAVRefCounted@Core@@XZ 00443e60 f   foundation_win32.release:stdtcpserver.obj
 0001:00042e70       ?Create@ListenerThread@StdTcpServer@Net@@SAPAV123@XZ 00443e70 f   foundation_win32.release:stdtcpserver.obj
 0001:00042eb0       ??0ListenerThread@StdTcpServer@Net@@QAE@XZ 00443eb0 f i foundation_win32.release:stdtcpserver.obj
 0001:00042f00       ??_EListenerThread@StdTcpServer@Net@@UAEPAXI@Z 00443f00 f i  CIL library: CIL module
 0001:00042f00       ??_GListenerThread@StdTcpServer@Net@@UAEPAXI@Z 00443f00 f i foundation_win32.release:stdtcpserver.obj
 0001:00042f30       ??1ListenerThread@StdTcpServer@Net@@UAE@XZ 00443f30 f i foundation_win32.release:stdtcpserver.obj
 0001:00042f70       ?RegisterWithFactory@ListenerThread@StdTcpServer@Net@@SA_NXZ 00443f70 f   foundation_win32.release:stdtcpserver.obj
 0001:00043070       ??0StdTcpServer@Net@@QAE@XZ 00444070 f   foundation_win32.release:stdtcpserver.obj
 0001:000430f0       ??_EStdTcpServer@Net@@UAEPAXI@Z 004440f0 f i  CIL library: CIL module
 0001:000430f0       ??_GStdTcpServer@Net@@UAEPAXI@Z 004440f0 f i foundation_win32.release:stdtcpserver.obj
 0001:00043120       ??1StdTcpServer@Net@@UAE@XZ 00444120 f   foundation_win32.release:stdtcpserver.obj
 0001:00043190       ?Open@StdTcpServer@Net@@QAE_NXZ 00444190 f   foundation_win32.release:stdtcpserver.obj
 0001:00043300       ?Close@StdTcpServer@Net@@QAEXXZ 00444300 f   foundation_win32.release:stdtcpserver.obj
 0001:00043410       ?AddClientConnection@StdTcpServer@Net@@AAEXABV?$Ptr@VTcpClientConnection@Net@@@@@Z 00444410 f   foundation_win32.release:stdtcpserver.obj
 0001:00043490       ?Recv@StdTcpServer@Net@@QAE?AV?$Array@V?$Ptr@VTcpClientConnection@Net@@@@@Util@@XZ 00444490 f   foundation_win32.release:stdtcpserver.obj
 0001:000435c0       ?Broadcast@StdTcpServer@Net@@QAE_NABV?$Ptr@VStream@IO@@@@@Z 004445c0 f   foundation_win32.release:stdtcpserver.obj
 0001:00043670       ?SetTcpServer@ListenerThread@StdTcpServer@Net@@QAEXPAV23@@Z 00444670 f   foundation_win32.release:stdtcpserver.obj
 0001:000436b0       ?SetAddress@ListenerThread@StdTcpServer@Net@@QAEXABVWin360IpAddress@Win360@@@Z 004446b0 f   foundation_win32.release:stdtcpserver.obj
 0001:000436d0       ?SetClientConnectionClass@ListenerThread@StdTcpServer@Net@@QAEXABVRtti@Core@@@Z 004446d0 f   foundation_win32.release:stdtcpserver.obj
 0001:000436f0       ?DoWork@ListenerThread@StdTcpServer@Net@@EAEXXZ 004446f0 f   foundation_win32.release:stdtcpserver.obj
 0001:000438b0       ?EmitWakeupSignal@ListenerThread@StdTcpServer@Net@@EAEXXZ 004448b0 f   foundation_win32.release:stdtcpserver.obj
 0001:000439c0       ??0?$Ptr@VSocket@Net@@@@QAE@PAVSocket@Net@@@Z 004449c0 f i foundation_win32.release:stdtcpserver.obj
 0001:00043a00       ??0?$Ptr@VSocket@Net@@@@QAE@XZ 00444a00 f i foundation_win32.release:stdtcpserver.obj
 0001:00043a20       ??1?$Ptr@VSocket@Net@@@@QAE@XZ 00444a20 f i foundation_win32.release:stdtcpserver.obj
 0001:00043a50       ??0?$Ptr@VStdTcpServer@Net@@@@QAE@XZ 00444a50 f i foundation_win32.release:stdtcpserver.obj
 0001:00043a70       ??1?$Ptr@VStdTcpServer@Net@@@@QAE@XZ 00444a70 f i foundation_win32.release:stdtcpserver.obj
 0001:00043aa0       ??4?$Ptr@VStdTcpServer@Net@@@@QAEXPAVStdTcpServer@Net@@@Z 00444aa0 f i foundation_win32.release:stdtcpserver.obj
 0001:00043b00       ??C?$Ptr@VStdTcpServer@Net@@@@QBEPAVStdTcpServer@Net@@XZ 00444b00 f i foundation_win32.release:stdtcpserver.obj
 0001:00043b40       ??0?$Ptr@VListenerThread@StdTcpServer@Net@@@@QAE@XZ 00444b40 f i foundation_win32.release:stdtcpserver.obj
 0001:00043b60       ??1?$Ptr@VListenerThread@StdTcpServer@Net@@@@QAE@XZ 00444b60 f i foundation_win32.release:stdtcpserver.obj
 0001:00043b90       ??4?$Ptr@VListenerThread@StdTcpServer@Net@@@@QAEXPAVListenerThread@StdTcpServer@Net@@@Z 00444b90 f i foundation_win32.release:stdtcpserver.obj
 0001:00043bf0       ??C?$Ptr@VListenerThread@StdTcpServer@Net@@@@QBEPAVListenerThread@StdTcpServer@Net@@XZ 00444bf0 f i foundation_win32.release:stdtcpserver.obj
 0001:00043c30       ?isvalid@?$Ptr@VListenerThread@StdTcpServer@Net@@@@QBE_NXZ 00444c30 f i foundation_win32.release:stdtcpserver.obj
 0001:00043c50       ??0?$Array@V?$Ptr@VTcpClientConnection@Net@@@@@Util@@QAE@ABV01@@Z 00444c50 f i foundation_win32.release:stdtcpserver.obj
 0001:00043ca0       ??0?$Array@V?$Ptr@VTcpClientConnection@Net@@@@@Util@@QAE@XZ 00444ca0 f i foundation_win32.release:stdtcpserver.obj
 0001:00043ce0       ?Append@?$Array@V?$Ptr@VTcpClientConnection@Net@@@@@Util@@QAEXABV?$Ptr@VTcpClientConnection@Net@@@@@Z 00444ce0 f i foundation_win32.release:stdtcpserver.obj
 0001:00043d60       ?IsEmpty@?$Array@V?$Ptr@VTcpClientConnection@Net@@@@@Util@@QBE_NXZ 00444d60 f i foundation_win32.release:stdtcpserver.obj
 0001:00043d80       ?EraseIndex@?$Array@V?$Ptr@VTcpClientConnection@Net@@@@@Util@@QAEXH@Z 00444d80 f i foundation_win32.release:stdtcpserver.obj
 0001:00043e00       ?Clear@?$Array@V?$Ptr@VTcpClientConnection@Net@@@@@Util@@QAEXXZ 00444e00 f i foundation_win32.release:stdtcpserver.obj
 0001:00043e50       ??0?$Ptr@VTcpClientConnection@Net@@@@QAE@PAVTcpClientConnection@Net@@@Z 00444e50 f i foundation_win32.release:stdtcpserver.obj
 0001:00043e90       ?isvalid@?$Ptr@VTcpClientConnection@Net@@@@QBE_NXZ 00444e90 f i foundation_win32.release:stdtcpserver.obj
 0001:00043eb0       ?Destroy@?$Array@V?$Ptr@VTcpClientConnection@Net@@@@@Util@@AAEXPAV?$Ptr@VTcpClientConnection@Net@@@@@Z 00444eb0 f i foundation_win32.release:stdtcpserver.obj
 0001:00043ee0       ?Copy@?$Array@V?$Ptr@VTcpClientConnection@Net@@@@@Util@@AAEXABV12@@Z 00444ee0 f i foundation_win32.release:stdtcpserver.obj
 0001:00044010       ?Grow@?$Array@V?$Ptr@VTcpClientConnection@Net@@@@@Util@@AAEXXZ 00445010 f i foundation_win32.release:stdtcpserver.obj
 0001:00044090       ?Move@?$Array@V?$Ptr@VTcpClientConnection@Net@@@@@Util@@AAEXHH@Z 00445090 f i foundation_win32.release:stdtcpserver.obj
 0001:00044220       ??_G?$Ptr@VTcpClientConnection@Net@@@@QAEPAXI@Z 00445220 f i foundation_win32.release:stdtcpserver.obj
 0001:00044250       ?GrowTo@?$Array@V?$Ptr@VTcpClientConnection@Net@@@@@Util@@AAEXH@Z 00445250 f i foundation_win32.release:stdtcpserver.obj
 0001:00044410       ?GetMethod@HttpRequest@Http@@QBE?AW4Code@HttpMethod@2@XZ 00445410 f i foundation_win32.release:defaulthttprequesthandler.obj
 0001:00044430       ?GetName@HttpRequestHandler@Http@@QBEABVString@Util@@XZ 00445430 f i foundation_win32.release:defaulthttprequesthandler.obj
 0001:00044450       ?GetDesc@HttpRequestHandler@Http@@QBEABVString@Util@@XZ 00445450 f i foundation_win32.release:defaulthttprequesthandler.obj
 0001:00044470       ??2DefaultHttpRequestHandler@Http@@SAPAXI@Z 00445470 f i foundation_win32.release:defaulthttprequesthandler.obj
 0001:00044480       ??3DefaultHttpRequestHandler@Http@@SAXPAX@Z 00445480 f i foundation_win32.release:defaulthttprequesthandler.obj
 0001:000444a0       ?SetTitle@HtmlPageWriter@Http@@QAEXABVString@Util@@@Z 004454a0 f i foundation_win32.release:defaulthttprequesthandler.obj
 0001:000444f0       ?Instance@HttpServer@Http@@SAPAV12@XZ 004454f0 f i foundation_win32.release:defaulthttprequesthandler.obj
 0001:00044530       ?GetRequestHandlers@HttpServer@Http@@QBE?AV?$Array@V?$Ptr@VHttpRequestHandler@Http@@@@@Util@@XZ 00445530 f i foundation_win32.release:defaulthttprequesthandler.obj
 0001:00044550       ?GetCompanyName@InterfaceBase@Interface@@QBEABVStringAtom@Util@@XZ 00445550 f i foundation_win32.release:defaulthttprequesthandler.obj
 0001:00044570       ?GetAppName@InterfaceBase@Interface@@QBEABVStringAtom@Util@@XZ 00445570 f i foundation_win32.release:defaulthttprequesthandler.obj
 0001:00044590       ?GetRootDirectory@InterfaceBase@Interface@@QBEABVStringAtom@Util@@XZ 00445590 f i foundation_win32.release:defaulthttprequesthandler.obj
 0001:000445b0       ?HasInstance@HttpInterface@Http@@SA_NXZ 004455b0 f i foundation_win32.release:defaulthttprequesthandler.obj
 0001:000445d0       ?GetRtti@DefaultHttpRequestHandler@Http@@UBEPAVRtti@Core@@XZ 004455d0 f   foundation_win32.release:defaulthttprequesthandler.obj
 0001:000445e0       ?FactoryCreator@DefaultHttpRequestHandler@Http@@SAPAVRefCounted@Core@@XZ 004455e0 f   foundation_win32.release:defaulthttprequesthandler.obj
 0001:000445f0       ?Create@DefaultHttpRequestHandler@Http@@SAPAV12@XZ 004455f0 f   foundation_win32.release:defaulthttprequesthandler.obj
 0001:00044630       ??0DefaultHttpRequestHandler@Http@@QAE@XZ 00445630 f i foundation_win32.release:defaulthttprequesthandler.obj
 0001:00044650       ??_GDefaultHttpRequestHandler@Http@@UAEPAXI@Z 00445650 f i foundation_win32.release:defaulthttprequesthandler.obj
 0001:00044650       ??_EDefaultHttpRequestHandler@Http@@UAEPAXI@Z 00445650 f i  CIL library: CIL module
 0001:00044680       ??1DefaultHttpRequestHandler@Http@@UAE@XZ 00445680 f i foundation_win32.release:defaulthttprequesthandler.obj
 0001:000446a0       ?RegisterWithFactory@DefaultHttpRequestHandler@Http@@SA_NXZ 004456a0 f   foundation_win32.release:defaulthttprequesthandler.obj
 0001:000447a0       ?HandleRequest@DefaultHttpRequestHandler@Http@@UAEXABV?$Ptr@VHttpRequest@Http@@@@@Z 004457a0 f   foundation_win32.release:defaulthttprequesthandler.obj
 0001:000452e0       ?ValuesAsArray@?$Dictionary@VString@Util@@V?$Ptr@VHttpRequestHandler@Http@@@@@Util@@QBE?AV?$Array@V?$Ptr@VHttpRequestHandler@Http@@@@@2@XZ 004462e0 f i foundation_win32.release:defaulthttprequesthandler.obj
 0001:00045300       ??0?$Ptr@VHtmlPageWriter@Http@@@@QAE@PAVHtmlPageWriter@Http@@@Z 00446300 f i foundation_win32.release:defaulthttprequesthandler.obj
 0001:00045340       ??1?$Ptr@VHtmlPageWriter@Http@@@@QAE@XZ 00446340 f i foundation_win32.release:defaulthttprequesthandler.obj
 0001:00045370       ??C?$Ptr@VHtmlPageWriter@Http@@@@QBEPAVHtmlPageWriter@Http@@XZ 00446370 f i foundation_win32.release:defaulthttprequesthandler.obj
 0001:000453b0       ??$ValuesAs@V?$Array@V?$Ptr@VHttpRequestHandler@Http@@@@@Util@@@?$Dictionary@VString@Util@@V?$Ptr@VHttpRequestHandler@Http@@@@@Util@@QBE?AV?$Array@V?$Ptr@VHttpRequestHandler@Http@@@@@1@XZ 004463b0 f i foundation_win32.release:defaulthttprequesthandler.obj
 0001:00045450       ?Size@?$Dictionary@VString@Util@@V?$Ptr@VHttpRequestHandler@Http@@@@@Util@@QBEHXZ 00446450 f i foundation_win32.release:defaulthttprequesthandler.obj
 0001:00045470       ??0?$Array@V?$Ptr@VHttpRequestHandler@Http@@@@@Util@@QAE@ABV01@@Z 00446470 f i foundation_win32.release:defaulthttprequesthandler.obj
 0001:000454c0       ??0?$Array@V?$Ptr@VHttpRequestHandler@Http@@@@@Util@@QAE@HH@Z 004464c0 f i foundation_win32.release:defaulthttprequesthandler.obj
 0001:000455b0       ?Copy@?$Array@V?$Ptr@VHttpRequestHandler@Http@@@@@Util@@AAEXABV12@@Z 004465b0 f i foundation_win32.release:defaulthttprequesthandler.obj
 0001:000456e0       ?FromString@HttpMethod@Http@@SA?AW4Code@12@ABVString@Util@@@Z 004466e0 f i foundation_win32.release:httprequestreader.obj
 0001:00045810       ??2HttpRequestReader@Http@@SAPAXI@Z 00446810 f i foundation_win32.release:httprequestreader.obj
 0001:00045820       ??3HttpRequestReader@Http@@SAXPAX@Z 00446820 f i foundation_win32.release:httprequestreader.obj
 0001:00045840       ?GetRtti@HttpRequestReader@Http@@UBEPAVRtti@Core@@XZ 00446840 f   foundation_win32.release:httprequestreader.obj
 0001:00045850       ?FactoryCreator@HttpRequestReader@Http@@SAPAVRefCounted@Core@@XZ 00446850 f   foundation_win32.release:httprequestreader.obj
 0001:00045860       ?Create@HttpRequestReader@Http@@SAPAV12@XZ 00446860 f   foundation_win32.release:httprequestreader.obj
 0001:000458a0       ?RegisterWithFactory@HttpRequestReader@Http@@SA_NXZ 004468a0 f   foundation_win32.release:httprequestreader.obj
 0001:000459a0       ??0HttpRequestReader@Http@@QAE@XZ 004469a0 f   foundation_win32.release:httprequestreader.obj
 0001:000459e0       ??_GHttpRequestReader@Http@@UAEPAXI@Z 004469e0 f i foundation_win32.release:httprequestreader.obj
 0001:000459e0       ??_EHttpRequestReader@Http@@UAEPAXI@Z 004469e0 f i  CIL library: CIL module
 0001:00045a20       ??1HttpRequestReader@Http@@UAE@XZ 00446a20 f i foundation_win32.release:httprequestreader.obj
 0001:00045a40       ?ReadRequest@HttpRequestReader@Http@@QAE_NXZ 00446a40 f   foundation_win32.release:httprequestreader.obj
 0001:00045f80       ??0?$Ptr@VTextReader@IO@@@@QAE@PAVTextReader@IO@@@Z 00446f80 f i foundation_win32.release:httprequestreader.obj
 0001:00045fc0       ??1?$Ptr@VTextReader@IO@@@@QAE@XZ 00446fc0 f i foundation_win32.release:httprequestreader.obj
 0001:00045ff0       ??C?$Ptr@VTextReader@IO@@@@QBEPAVTextReader@IO@@XZ 00446ff0 f i foundation_win32.release:httprequestreader.obj
 0001:00046030       ??2StreamReader@IO@@SAPAXI@Z 00447030 f i foundation_win32.release:streamreader.obj
 0001:00046040       ??3StreamReader@IO@@SAXPAX@Z 00447040 f i foundation_win32.release:streamreader.obj
 0001:00046060       ?IsOpen@StreamReader@IO@@QBE_NXZ 00447060 f i foundation_win32.release:streamreader.obj
 0001:00046080       ?GetRtti@StreamReader@IO@@UBEPAVRtti@Core@@XZ 00447080 f   foundation_win32.release:streamreader.obj
 0001:00046090       ?FactoryCreator@StreamReader@IO@@SAPAVRefCounted@Core@@XZ 00447090 f   foundation_win32.release:streamreader.obj
 0001:000460a0       ?Create@StreamReader@IO@@SAPAV12@XZ 004470a0 f   foundation_win32.release:streamreader.obj
 0001:000460e0       ?RegisterWithFactory@StreamReader@IO@@SA_NXZ 004470e0 f   foundation_win32.release:streamreader.obj
 0001:000461e0       ??0StreamReader@IO@@QAE@XZ 004471e0 f   foundation_win32.release:streamreader.obj
 0001:00046230       ??_EStreamReader@IO@@UAEPAXI@Z 00447230 f i  CIL library: CIL module
 0001:00046230       ??_GStreamReader@IO@@UAEPAXI@Z 00447230 f i foundation_win32.release:streamreader.obj
 0001:00046260       ??1StreamReader@IO@@UAE@XZ 00447260 f   foundation_win32.release:streamreader.obj
 0001:000462b0       ?SetStream@StreamReader@IO@@QAEXABV?$Ptr@VStream@IO@@@@@Z 004472b0 f   foundation_win32.release:streamreader.obj
 0001:000462d0       ?GetStream@StreamReader@IO@@QBEABV?$Ptr@VStream@IO@@@@XZ 004472d0 f   foundation_win32.release:streamreader.obj
 0001:000462f0       ?HasStream@StreamReader@IO@@QBE_NXZ 004472f0 f   foundation_win32.release:streamreader.obj
 0001:00046310       ?Eof@StreamReader@IO@@QBE_NXZ 00447310 f   foundation_win32.release:streamreader.obj
 0001:00046360       ?Open@StreamReader@IO@@UAE_NXZ 00447360 f   foundation_win32.release:streamreader.obj
 0001:000464a0       ?Close@StreamReader@IO@@UAEXXZ 004474a0 f   foundation_win32.release:streamreader.obj
 0001:00046520       ??2HttpRequest@Http@@SAPAXI@Z 00447520 f i foundation_win32.release:httprequest.obj
 0001:00046530       ??3HttpRequest@Http@@SAXPAX@Z 00447530 f i foundation_win32.release:httprequest.obj
 0001:00046550       ?GetRtti@HttpRequest@Http@@UBEPAVRtti@Core@@XZ 00447550 f   foundation_win32.release:httprequest.obj
 0001:00046560       ?FactoryCreator@HttpRequest@Http@@SAPAVRefCounted@Core@@XZ 00447560 f   foundation_win32.release:httprequest.obj
 0001:00046570       ?Create@HttpRequest@Http@@SAPAV12@XZ 00447570 f   foundation_win32.release:httprequest.obj
 0001:000465b0       ?RegisterWithFactory@HttpRequest@Http@@SA_NXZ 004475b0 f   foundation_win32.release:httprequest.obj
 0001:000466b0       ?GetId@HttpRequest@Http@@UBEABVId@Messaging@@XZ 004476b0 f   foundation_win32.release:httprequest.obj
 0001:000466c0       ??0HttpRequest@Http@@QAE@XZ 004476c0 f   foundation_win32.release:httprequest.obj
 0001:00046720       ??_EHttpRequest@Http@@UAEPAXI@Z 00447720 f i  CIL library: CIL module
 0001:00046720       ??_GHttpRequest@Http@@UAEPAXI@Z 00447720 f i foundation_win32.release:httprequest.obj
 0001:00046750       ??1HttpRequest@Http@@UAE@XZ 00447750 f   foundation_win32.release:httprequest.obj
 0001:00046790       ?AsString@MediaType@IO@@QBE?AVString@Util@@XZ 00447790 f i foundation_win32.release:httpresponsewriter.obj
 0001:00046860       ??2HttpResponseWriter@Http@@SAPAXI@Z 00447860 f i foundation_win32.release:httpresponsewriter.obj
 0001:00046870       ??3HttpResponseWriter@Http@@SAXPAX@Z 00447870 f i foundation_win32.release:httpresponsewriter.obj
 0001:00046890       ?GetRtti@HttpResponseWriter@Http@@UBEPAVRtti@Core@@XZ 00447890 f   foundation_win32.release:httpresponsewriter.obj
 0001:000468a0       ?FactoryCreator@HttpResponseWriter@Http@@SAPAVRefCounted@Core@@XZ 004478a0 f   foundation_win32.release:httpresponsewriter.obj
 0001:000468b0       ?Create@HttpResponseWriter@Http@@SAPAV12@XZ 004478b0 f   foundation_win32.release:httpresponsewriter.obj
 0001:00046900       ??0HttpResponseWriter@Http@@QAE@XZ 00447900 f i foundation_win32.release:httpresponsewriter.obj
 0001:00046930       ??_GHttpResponseWriter@Http@@UAEPAXI@Z 00447930 f i foundation_win32.release:httpresponsewriter.obj
 0001:00046930       ??_EHttpResponseWriter@Http@@UAEPAXI@Z 00447930 f i  CIL library: CIL module
 0001:00046970       ??1HttpResponseWriter@Http@@UAE@XZ 00447970 f i foundation_win32.release:httpresponsewriter.obj
 0001:00046990       ?RegisterWithFactory@HttpResponseWriter@Http@@SA_NXZ 00447990 f   foundation_win32.release:httpresponsewriter.obj
 0001:00046a90       ?WriteResponse@HttpResponseWriter@Http@@QAEXXZ 00447a90 f   foundation_win32.release:httpresponsewriter.obj
 0001:00047030       ?FromString@HttpStatus@Http@@SA?AW4Code@12@ABVString@Util@@@Z 00448030 f   foundation_win32.release:httpstatus.obj
 0001:00047190       ?ToString@HttpStatus@Http@@SA?AVString@Util@@W4Code@12@@Z 00448190 f   foundation_win32.release:httpstatus.obj
 0001:00047420       ?ToHumanReadableString@HttpStatus@Http@@SA?AVString@Util@@W4Code@12@@Z 00448420 f   foundation_win32.release:httpstatus.obj
 0001:000476b0       ??2TcpClient@Net@@SAPAXI@Z 004486b0 f i foundation_win32.release:tcpclient.obj
 0001:000476c0       ??3TcpClient@Net@@SAXPAX@Z 004486c0 f i foundation_win32.release:tcpclient.obj
 0001:000476e0       ?GetRtti@TcpClient@Net@@UBEPAVRtti@Core@@XZ 004486e0 f   foundation_win32.release:tcpclient.obj
 0001:000476f0       ?FactoryCreator@TcpClient@Net@@SAPAVRefCounted@Core@@XZ 004486f0 f   foundation_win32.release:tcpclient.obj
 0001:00047700       ?Create@TcpClient@Net@@SAPAV12@XZ 00448700 f   foundation_win32.release:tcpclient.obj
 0001:00047740       ??0TcpClient@Net@@QAE@XZ   00448740 f i foundation_win32.release:tcpclient.obj
 0001:00047760       ??_GTcpClient@Net@@UAEPAXI@Z 00448760 f i foundation_win32.release:tcpclient.obj
 0001:00047760       ??_ETcpClient@Net@@UAEPAXI@Z 00448760 f i  CIL library: CIL module
 0001:00047790       ??1TcpClient@Net@@UAE@XZ   00448790 f i foundation_win32.release:tcpclient.obj
 0001:000477b0       ?RegisterWithFactory@TcpClient@Net@@SA_NXZ 004487b0 f   foundation_win32.release:tcpclient.obj
 0001:000478b0       ?SetNoDelay@Win360Socket@Win360@@QAEX_N@Z 004488b0 f i foundation_win32.release:stdtcpclient.obj
 0001:000478d0       ?GetMaxMsgSize@Win360Socket@Win360@@QAEHXZ 004488d0 f i foundation_win32.release:stdtcpclient.obj
 0001:000478e0       ??2StdTcpClient@Net@@SAPAXI@Z 004488e0 f i foundation_win32.release:stdtcpclient.obj
 0001:000478f0       ??3StdTcpClient@Net@@SAXPAX@Z 004488f0 f i foundation_win32.release:stdtcpclient.obj
 0001:00047910       ?GetRtti@StdTcpClient@Net@@UBEPAVRtti@Core@@XZ 00448910 f   foundation_win32.release:stdtcpclient.obj
 0001:00047920       ?FactoryCreator@StdTcpClient@Net@@SAPAVRefCounted@Core@@XZ 00448920 f   foundation_win32.release:stdtcpclient.obj
 0001:00047930       ?Create@StdTcpClient@Net@@SAPAV12@XZ 00448930 f   foundation_win32.release:stdtcpclient.obj
 0001:00047970       ?RegisterWithFactory@StdTcpClient@Net@@SA_NXZ 00448970 f   foundation_win32.release:stdtcpclient.obj
 0001:00047a70       ??0StdTcpClient@Net@@QAE@XZ 00448a70 f   foundation_win32.release:stdtcpclient.obj
 0001:00047b00       ??_EStdTcpClient@Net@@UAEPAXI@Z 00448b00 f i  CIL library: CIL module
 0001:00047b00       ??_GStdTcpClient@Net@@UAEPAXI@Z 00448b00 f i foundation_win32.release:stdtcpclient.obj
 0001:00047b30       ??1StdTcpClient@Net@@UAE@XZ 00448b30 f   foundation_win32.release:stdtcpclient.obj
 0001:00047bb0       ?Connect@StdTcpClient@Net@@QAE?AW4Result@12@XZ 00448bb0 f   foundation_win32.release:stdtcpclient.obj
 0001:00047dc0       ?IsConnected@StdTcpClient@Net@@QAE_NXZ 00448dc0 f   foundation_win32.release:stdtcpclient.obj
 0001:00047e10       ?Disconnect@StdTcpClient@Net@@QAEXXZ 00448e10 f   foundation_win32.release:stdtcpclient.obj
 0001:00047e80       ?Send@StdTcpClient@Net@@QAE_NXZ 00448e80 f   foundation_win32.release:stdtcpclient.obj
 0001:00048130       ?Recv@StdTcpClient@Net@@QAE_NXZ 00449130 f   foundation_win32.release:stdtcpclient.obj
 0001:00048300       ?GetSendStream@StdTcpClient@Net@@QAEABV?$Ptr@VStream@IO@@@@XZ 00449300 f   foundation_win32.release:stdtcpclient.obj
 0001:00048320       ?GetRecvStream@StdTcpClient@Net@@QAEABV?$Ptr@VStream@IO@@@@XZ 00449320 f   foundation_win32.release:stdtcpclient.obj
 0001:00048340       ?IsValid@URI@IO@@QBE_NXZ   00449340 f i foundation_win32.release:httprequestwriter.obj
 0001:00048360       ?ToString@HttpMethod@Http@@SA?AVString@Util@@W4Code@12@@Z 00449360 f i foundation_win32.release:httprequestwriter.obj
 0001:000485a0       ??2HttpRequestWriter@Http@@SAPAXI@Z 004495a0 f i foundation_win32.release:httprequestwriter.obj
 0001:000485b0       ??3HttpRequestWriter@Http@@SAXPAX@Z 004495b0 f i foundation_win32.release:httprequestwriter.obj
 0001:000485d0       ?GetRtti@HttpRequestWriter@Http@@UBEPAVRtti@Core@@XZ 004495d0 f   foundation_win32.release:httprequestwriter.obj
 0001:000485e0       ?FactoryCreator@HttpRequestWriter@Http@@SAPAVRefCounted@Core@@XZ 004495e0 f   foundation_win32.release:httprequestwriter.obj
 0001:000485f0       ?Create@HttpRequestWriter@Http@@SAPAV12@XZ 004495f0 f   foundation_win32.release:httprequestwriter.obj
 0001:00048630       ?RegisterWithFactory@HttpRequestWriter@Http@@SA_NXZ 00449630 f   foundation_win32.release:httprequestwriter.obj
 0001:00048730       ??0HttpRequestWriter@Http@@QAE@XZ 00449730 f   foundation_win32.release:httprequestwriter.obj
 0001:000487b0       ??_GHttpRequestWriter@Http@@UAEPAXI@Z 004497b0 f i foundation_win32.release:httprequestwriter.obj
 0001:000487b0       ??_EHttpRequestWriter@Http@@UAEPAXI@Z 004497b0 f i  CIL library: CIL module
 0001:000487e0       ??1HttpRequestWriter@Http@@UAE@XZ 004497e0 f i foundation_win32.release:httprequestwriter.obj
 0001:00048850       ?WriteRequestHeader@HttpRequestWriter@Http@@QAE_NXZ 00449850 f   foundation_win32.release:httprequestwriter.obj
 0001:00048c30       ?Clear@MediaType@IO@@QAEXXZ 00449c30 f i foundation_win32.release:httpresponsereader.obj
 0001:00048cc0       ??2HttpResponseReader@Http@@SAPAXI@Z 00449cc0 f i foundation_win32.release:httpresponsereader.obj
 0001:00048cd0       ??3HttpResponseReader@Http@@SAXPAX@Z 00449cd0 f i foundation_win32.release:httpresponsereader.obj
 0001:00048cf0       ?GetRtti@HttpResponseReader@Http@@UBEPAVRtti@Core@@XZ 00449cf0 f   foundation_win32.release:httpresponsereader.obj
 0001:00048d00       ?FactoryCreator@HttpResponseReader@Http@@SAPAVRefCounted@Core@@XZ 00449d00 f   foundation_win32.release:httpresponsereader.obj
 0001:00048d10       ?Create@HttpResponseReader@Http@@SAPAV12@XZ 00449d10 f   foundation_win32.release:httpresponsereader.obj
 0001:00048d50       ?RegisterWithFactory@HttpResponseReader@Http@@SA_NXZ 00449d50 f   foundation_win32.release:httpresponsereader.obj
 0001:00048e50       ??0HttpResponseReader@Http@@QAE@XZ 00449e50 f   foundation_win32.release:httpresponsereader.obj
 0001:00048ea0       ??_EHttpResponseReader@Http@@UAEPAXI@Z 00449ea0 f i  CIL library: CIL module
 0001:00048ea0       ??_GHttpResponseReader@Http@@UAEPAXI@Z 00449ea0 f i foundation_win32.release:httpresponsereader.obj
 0001:00048ee0       ??1HttpResponseReader@Http@@UAE@XZ 00449ee0 f i foundation_win32.release:httpresponsereader.obj
 0001:00048f00       ?ReadResponse@HttpResponseReader@Http@@QAE_NXZ 00449f00 f   foundation_win32.release:httpresponsereader.obj
 0001:000495a0       ??2TcpClientConnection@Net@@SAPAXI@Z 0044a5a0 f i foundation_win32.release:tcpclientconnection.obj
 0001:000495b0       ??3TcpClientConnection@Net@@SAXPAX@Z 0044a5b0 f i foundation_win32.release:tcpclientconnection.obj
 0001:000495d0       ?GetRtti@TcpClientConnection@Net@@UBEPAVRtti@Core@@XZ 0044a5d0 f   foundation_win32.release:tcpclientconnection.obj
 0001:000495e0       ?FactoryCreator@TcpClientConnection@Net@@SAPAVRefCounted@Core@@XZ 0044a5e0 f   foundation_win32.release:tcpclientconnection.obj
 0001:000495f0       ?Create@TcpClientConnection@Net@@SAPAV12@XZ 0044a5f0 f   foundation_win32.release:tcpclientconnection.obj
 0001:00049630       ??0TcpClientConnection@Net@@QAE@XZ 0044a630 f i foundation_win32.release:tcpclientconnection.obj
 0001:00049650       ??_GTcpClientConnection@Net@@UAEPAXI@Z 0044a650 f i foundation_win32.release:tcpclientconnection.obj
 0001:00049650       ??_ETcpClientConnection@Net@@UAEPAXI@Z 0044a650 f i  CIL library: CIL module
 0001:00049680       ??1TcpClientConnection@Net@@UAE@XZ 0044a680 f i foundation_win32.release:tcpclientconnection.obj
 0001:000496a0       ?RegisterWithFactory@TcpClientConnection@Net@@SA_NXZ 0044a6a0 f   foundation_win32.release:tcpclientconnection.obj
 0001:000497a0       ?GetAddress@Win360Socket@Win360@@QBEABVWin360IpAddress@2@XZ 0044a7a0 f i foundation_win32.release:stdtcpclientconnection.obj
 0001:000497c0       ??2StdTcpClientConnection@Net@@SAPAXI@Z 0044a7c0 f i foundation_win32.release:stdtcpclientconnection.obj
 0001:000497d0       ??3StdTcpClientConnection@Net@@SAXPAX@Z 0044a7d0 f i foundation_win32.release:stdtcpclientconnection.obj
 0001:000497f0       ?GetRtti@StdTcpClientConnection@Net@@UBEPAVRtti@Core@@XZ 0044a7f0 f   foundation_win32.release:stdtcpclientconnection.obj
 0001:00049800       ?FactoryCreator@StdTcpClientConnection@Net@@SAPAVRefCounted@Core@@XZ 0044a800 f   foundation_win32.release:stdtcpclientconnection.obj
 0001:00049810       ?Create@StdTcpClientConnection@Net@@SAPAV12@XZ 0044a810 f   foundation_win32.release:stdtcpclientconnection.obj
 0001:00049850       ?RegisterWithFactory@StdTcpClientConnection@Net@@SA_NXZ 0044a850 f   foundation_win32.release:stdtcpclientconnection.obj
 0001:00049950       ??0StdTcpClientConnection@Net@@QAE@XZ 0044a950 f   foundation_win32.release:stdtcpclientconnection.obj
 0001:000499a0       ??_GStdTcpClientConnection@Net@@UAEPAXI@Z 0044a9a0 f i foundation_win32.release:stdtcpclientconnection.obj
 0001:000499a0       ??_EStdTcpClientConnection@Net@@UAEPAXI@Z 0044a9a0 f i  CIL library: CIL module
 0001:000499d0       ??1StdTcpClientConnection@Net@@UAE@XZ 0044a9d0 f   foundation_win32.release:stdtcpclientconnection.obj
 0001:00049a20       ?Connect@StdTcpClientConnection@Net@@UAE_NABV?$Ptr@VSocket@Net@@@@@Z 0044aa20 f   foundation_win32.release:stdtcpclientconnection.obj
 0001:00049b80       ?IsConnected@StdTcpClientConnection@Net@@QBE_NXZ 0044ab80 f   foundation_win32.release:stdtcpclientconnection.obj
 0001:00049bc0       ?Shutdown@StdTcpClientConnection@Net@@UAEXXZ 0044abc0 f   foundation_win32.release:stdtcpclientconnection.obj
 0001:00049c20       ?GetClientAddress@StdTcpClientConnection@Net@@QBEABVWin360IpAddress@Win360@@XZ 0044ac20 f   foundation_win32.release:stdtcpclientconnection.obj
 0001:00049c70       ?Send@StdTcpClientConnection@Net@@UAE?AW4Result@Win360Socket@Win360@@ABV?$Ptr@VStream@IO@@@@@Z 0044ac70 f   foundation_win32.release:stdtcpclientconnection.obj
 0001:00049df0       ?Send@StdTcpClientConnection@Net@@UAE?AW4Result@Win360Socket@Win360@@XZ 0044adf0 f   foundation_win32.release:stdtcpclientconnection.obj
 0001:00049e60       ?Recv@StdTcpClientConnection@Net@@UAE?AW4Result@Win360Socket@Win360@@XZ 0044ae60 f   foundation_win32.release:stdtcpclientconnection.obj
 0001:0004a040       ?GetSendStream@StdTcpClientConnection@Net@@UAEABV?$Ptr@VStream@IO@@@@XZ 0044b040 f   foundation_win32.release:stdtcpclientconnection.obj
 0001:0004a060       ?GetRecvStream@StdTcpClientConnection@Net@@UAEABV?$Ptr@VStream@IO@@@@XZ 0044b060 f   foundation_win32.release:stdtcpclientconnection.obj
 0001:0004a080       ??4?$Ptr@VSocket@Net@@@@QAEXABV0@@Z 0044b080 f i foundation_win32.release:stdtcpclientconnection.obj
 0001:0004a0e0       ??2HtmlPageWriter@Http@@SAPAXI@Z 0044b0e0 f i foundation_win32.release:htmlpagewriter.obj
 0001:0004a0f0       ??3HtmlPageWriter@Http@@SAXPAX@Z 0044b0f0 f i foundation_win32.release:htmlpagewriter.obj
 0001:0004a110       ?GetRtti@HtmlPageWriter@Http@@UBEPAVRtti@Core@@XZ 0044b110 f   foundation_win32.release:htmlpagewriter.obj
 0001:0004a120       ?FactoryCreator@HtmlPageWriter@Http@@SAPAVRefCounted@Core@@XZ 0044b120 f   foundation_win32.release:htmlpagewriter.obj
 0001:0004a130       ?Create@HtmlPageWriter@Http@@SAPAV12@XZ 0044b130 f   foundation_win32.release:htmlpagewriter.obj
 0001:0004a170       ?RegisterWithFactory@HtmlPageWriter@Http@@SA_NXZ 0044b170 f   foundation_win32.release:htmlpagewriter.obj
 0001:0004a270       ??0HtmlPageWriter@Http@@QAE@XZ 0044b270 f   foundation_win32.release:htmlpagewriter.obj
 0001:0004a2e0       ??_GHtmlPageWriter@Http@@UAEPAXI@Z 0044b2e0 f i foundation_win32.release:htmlpagewriter.obj
 0001:0004a2e0       ??_EHtmlPageWriter@Http@@UAEPAXI@Z 0044b2e0 f i  CIL library: CIL module
 0001:0004a310       ??1?$Stack@W4Code@HtmlElement@Http@@@Util@@QAE@XZ 0044b310 f i foundation_win32.release:htmlpagewriter.obj
 0001:0004a330       ??1HtmlPageWriter@Http@@UAE@XZ 0044b330 f   foundation_win32.release:htmlpagewriter.obj
 0001:0004a3c0       ?Open@HtmlPageWriter@Http@@UAE_NXZ 0044b3c0 f   foundation_win32.release:htmlpagewriter.obj
 0001:0004a480       ?Close@HtmlPageWriter@Http@@UAEXXZ 0044b480 f   foundation_win32.release:htmlpagewriter.obj
 0001:0004a5c0       ?AddAttr@HtmlPageWriter@Http@@QAEXABVString@Util@@0@Z 0044b5c0 f   foundation_win32.release:htmlpagewriter.obj
 0001:0004a670       ?Begin@HtmlPageWriter@Http@@QAEXW4Code@HtmlElement@2@@Z 0044b670 f   foundation_win32.release:htmlpagewriter.obj
 0001:0004a780       ?End@HtmlPageWriter@Http@@QAEXW4Code@HtmlElement@2@@Z 0044b780 f   foundation_win32.release:htmlpagewriter.obj
 0001:0004a820       ?LineBreak@HtmlPageWriter@Http@@QAEXXZ 0044b820 f   foundation_win32.release:htmlpagewriter.obj
 0001:0004a8d0       ?HorizontalRule@HtmlPageWriter@Http@@QAEXXZ 0044b8d0 f   foundation_win32.release:htmlpagewriter.obj
 0001:0004a980       ?Text@HtmlPageWriter@Http@@QAEXABVString@Util@@@Z 0044b980 f   foundation_win32.release:htmlpagewriter.obj
 0001:0004a9b0       ?Element@HtmlPageWriter@Http@@QAEXW4Code@HtmlElement@2@ABVString@Util@@@Z 0044b9b0 f   foundation_win32.release:htmlpagewriter.obj
 0001:0004a9f0       ?TableRow2@HtmlPageWriter@Http@@QAEXABVString@Util@@0@Z 0044b9f0 f   foundation_win32.release:htmlpagewriter.obj
 0001:0004aa30       ??0?$Ptr@VXmlWriter@IO@@@@QAE@XZ 0044ba30 f i foundation_win32.release:htmlpagewriter.obj
 0001:0004aa50       ??1?$Ptr@VXmlWriter@IO@@@@QAE@XZ 0044ba50 f i foundation_win32.release:htmlpagewriter.obj
 0001:0004aa80       ??4?$Ptr@VXmlWriter@IO@@@@QAEXPAVXmlWriter@IO@@@Z 0044ba80 f i foundation_win32.release:htmlpagewriter.obj
 0001:0004aae0       ??C?$Ptr@VXmlWriter@IO@@@@QBEPAVXmlWriter@IO@@XZ 0044bae0 f i foundation_win32.release:htmlpagewriter.obj
 0001:0004ab20       ??1?$Array@W4Code@HtmlElement@Http@@@Util@@QAE@XZ 0044bb20 f i foundation_win32.release:htmlpagewriter.obj
 0001:0004ab40       ??0?$Stack@W4Code@HtmlElement@Http@@@Util@@QAE@XZ 0044bb40 f i foundation_win32.release:htmlpagewriter.obj
 0001:0004ab60       ?IsEmpty@?$Stack@W4Code@HtmlElement@Http@@@Util@@QBE_NXZ 0044bb60 f i foundation_win32.release:htmlpagewriter.obj
 0001:0004ab80       ?Push@?$Stack@W4Code@HtmlElement@Http@@@Util@@QAEXABW4Code@HtmlElement@Http@@@Z 0044bb80 f i foundation_win32.release:htmlpagewriter.obj
 0001:0004aba0       ?Peek@?$Stack@W4Code@HtmlElement@Http@@@Util@@QBEAAW4Code@HtmlElement@Http@@XZ 0044bba0 f i foundation_win32.release:htmlpagewriter.obj
 0001:0004abc0       ?Pop@?$Stack@W4Code@HtmlElement@Http@@@Util@@QAE?AW4Code@HtmlElement@Http@@XZ 0044bbc0 f i foundation_win32.release:htmlpagewriter.obj
 0001:0004ac00       ??0?$Array@W4Code@HtmlElement@Http@@@Util@@QAE@XZ 0044bc00 f i foundation_win32.release:htmlpagewriter.obj
 0001:0004ac40       ?Append@?$Array@W4Code@HtmlElement@Http@@@Util@@QAEXABW4Code@HtmlElement@Http@@@Z 0044bc40 f i foundation_win32.release:htmlpagewriter.obj
 0001:0004acb0       ?Size@?$Array@W4Code@HtmlElement@Http@@@Util@@QBEHXZ 0044bcb0 f i foundation_win32.release:htmlpagewriter.obj
 0001:0004acd0       ?Back@?$Array@W4Code@HtmlElement@Http@@@Util@@QBEAAW4Code@HtmlElement@Http@@XZ 0044bcd0 f i foundation_win32.release:htmlpagewriter.obj
 0001:0004ad20       ?IsEmpty@?$Array@W4Code@HtmlElement@Http@@@Util@@QBE_NXZ 0044bd20 f i foundation_win32.release:htmlpagewriter.obj
 0001:0004ad40       ?EraseIndex@?$Array@W4Code@HtmlElement@Http@@@Util@@QAEXH@Z 0044bd40 f i foundation_win32.release:htmlpagewriter.obj
 0001:0004adc0       ?Delete@?$Array@W4Code@HtmlElement@Http@@@Util@@AAEXXZ 0044bdc0 f i foundation_win32.release:htmlpagewriter.obj
 0001:0004ae20       ?Destroy@?$Array@W4Code@HtmlElement@Http@@@Util@@AAEXPAW4Code@HtmlElement@Http@@@Z 0044be20 f i foundation_win32.release:htmlpagewriter.obj
 0001:0004ae30       ?Grow@?$Array@W4Code@HtmlElement@Http@@@Util@@AAEXXZ 0044be30 f i foundation_win32.release:htmlpagewriter.obj
 0001:0004aeb0       ?Move@?$Array@W4Code@HtmlElement@Http@@@Util@@AAEXHH@Z 0044beb0 f i foundation_win32.release:htmlpagewriter.obj
 0001:0004b030       ?GrowTo@?$Array@W4Code@HtmlElement@Http@@@Util@@AAEXH@Z 0044c030 f i foundation_win32.release:htmlpagewriter.obj
 0001:0004b0e0       ??2TextReader@IO@@SAPAXI@Z 0044c0e0 f i foundation_win32.release:textreader.obj
 0001:0004b0f0       ??3TextReader@IO@@SAXPAX@Z 0044c0f0 f i foundation_win32.release:textreader.obj
 0001:0004b110       ?GetRtti@TextReader@IO@@UBEPAVRtti@Core@@XZ 0044c110 f   foundation_win32.release:textreader.obj
 0001:0004b120       ?FactoryCreator@TextReader@IO@@SAPAVRefCounted@Core@@XZ 0044c120 f   foundation_win32.release:textreader.obj
 0001:0004b130       ?Create@TextReader@IO@@SAPAV12@XZ 0044c130 f   foundation_win32.release:textreader.obj
 0001:0004b170       ?RegisterWithFactory@TextReader@IO@@SA_NXZ 0044c170 f   foundation_win32.release:textreader.obj
 0001:0004b270       ??0TextReader@IO@@QAE@XZ   0044c270 f   foundation_win32.release:textreader.obj
 0001:0004b290       ??_ETextReader@IO@@UAEPAXI@Z 0044c290 f i  CIL library: CIL module
 0001:0004b290       ??_GTextReader@IO@@UAEPAXI@Z 0044c290 f i foundation_win32.release:textreader.obj
 0001:0004b2c0       ??1TextReader@IO@@UAE@XZ   0044c2c0 f   foundation_win32.release:textreader.obj
 0001:0004b300       ?ReadChar@TextReader@IO@@QAEEXZ 0044c300 f   foundation_win32.release:textreader.obj
 0001:0004b340       ?ReadLine@TextReader@IO@@QAE?AVString@Util@@XZ 0044c340 f   foundation_win32.release:textreader.obj
 0001:0004b460       ?ReadAll@TextReader@IO@@QAE?AVString@Util@@XZ 0044c460 f   foundation_win32.release:textreader.obj
 0001:0004b560       ?ReadAllLines@TextReader@IO@@QAE?AV?$Array@VString@Util@@@Util@@XZ 0044c560 f   foundation_win32.release:textreader.obj
 0001:0004b600       ?x@float4@Math@@QBEMXZ     0044c600 f i foundation_win32.release:xmlwriter.obj
 0001:0004b630       ?y@float4@Math@@QBEMXZ     0044c630 f i foundation_win32.release:xmlwriter.obj
 0001:0004b680       ?z@float4@Math@@QBEMXZ     0044c680 f i foundation_win32.release:xmlwriter.obj
 0001:0004b6d0       ?w@float4@Math@@QBEMXZ     0044c6d0 f i foundation_win32.release:xmlwriter.obj
 0001:0004b720       ?unpack_x@float4@Math@@SAMT__m128@@@Z 0044c720 f i foundation_win32.release:xmlwriter.obj
 0001:0004b750       ?unpack_y@float4@Math@@SAMT__m128@@@Z 0044c750 f i foundation_win32.release:xmlwriter.obj
 0001:0004b790       ?unpack_z@float4@Math@@SAMT__m128@@@Z 0044c790 f i foundation_win32.release:xmlwriter.obj
 0001:0004b7d0       ?unpack_w@float4@Math@@SAMT__m128@@@Z 0044c7d0 f i foundation_win32.release:xmlwriter.obj
 0001:0004b810       ?x@float2@Math@@QBEMXZ     0044c810 f i foundation_win32.release:xmlwriter.obj
 0001:0004b820       ?y@float2@Math@@QBEMXZ     0044c820 f i foundation_win32.release:xmlwriter.obj
 0001:0004b840       ?getrow0@matrix44@Math@@QBEABVfloat4@2@XZ 0044c840 f i foundation_win32.release:xmlwriter.obj
 0001:0004b850       ?getrow1@matrix44@Math@@QBEABVfloat4@2@XZ 0044c850 f i foundation_win32.release:xmlwriter.obj
 0001:0004b870       ?getrow2@matrix44@Math@@QBEABVfloat4@2@XZ 0044c870 f i foundation_win32.release:xmlwriter.obj
 0001:0004b890       ?getrow3@matrix44@Math@@QBEABVfloat4@2@XZ 0044c890 f i foundation_win32.release:xmlwriter.obj
 0001:0004b8b0       ?SetFloat@String@Util@@QAEXM@Z 0044c8b0 f i foundation_win32.release:xmlwriter.obj
 0001:0004b8e0       ?SetBool@String@Util@@QAEX_N@Z 0044c8e0 f i foundation_win32.release:xmlwriter.obj
 0001:0004b920       ?SetFloat2@String@Util@@QAEXABVfloat2@Math@@@Z 0044c920 f i foundation_win32.release:xmlwriter.obj
 0001:0004b970       ?SetFloat4@String@Util@@QAEXABVfloat4@Math@@@Z 0044c970 f i foundation_win32.release:xmlwriter.obj
 0001:0004bac0       ?SetMatrix44@String@Util@@QAEXABVmatrix44@Math@@@Z 0044cac0 f i foundation_win32.release:xmlwriter.obj
 0001:0004c070       ??1TiXmlString@@QAE@XZ     0044d070 f i foundation_win32.release:xmlwriter.obj
 0001:0004c0a0       ??4TiXmlString@@QAEAAV0@PBD@Z 0044d0a0 f i foundation_win32.release:xmlwriter.obj
 0001:0004c0f0       ?quit@TiXmlString@@AAEXXZ  0044d0f0 f i foundation_win32.release:xmlwriter.obj
 0001:0004c120       ?SetValue@TiXmlNode@@QAEXPBD@Z 0044d120 f i foundation_win32.release:xmlwriter.obj
 0001:0004c170       ?Parent@TiXmlNode@@QAEPAV1@XZ 0044d170 f i foundation_win32.release:xmlwriter.obj
 0001:0004c190       ?ToDocument@TiXmlNode@@UBEPBVTiXmlDocument@@XZ 0044d190 f i foundation_win32.release:xmlwriter.obj
 0001:0004c1a0       ?ToElement@TiXmlNode@@UBEPBVTiXmlElement@@XZ 0044d1a0 f i foundation_win32.release:xmlwriter.obj
 0001:0004c1b0       ?ToComment@TiXmlNode@@UBEPBVTiXmlComment@@XZ 0044d1b0 f i foundation_win32.release:xmlwriter.obj
 0001:0004c1c0       ?ToUnknown@TiXmlNode@@UBEPBVTiXmlUnknown@@XZ 0044d1c0 f i foundation_win32.release:xmlwriter.obj
 0001:0004c1d0       ?ToText@TiXmlNode@@UBEPBVTiXmlText@@XZ 0044d1d0 f i foundation_win32.release:xmlwriter.obj
 0001:0004c1e0       ?ToDeclaration@TiXmlNode@@UBEPBVTiXmlDeclaration@@XZ 0044d1e0 f i foundation_win32.release:xmlwriter.obj
 0001:0004c1f0       ?ToDocument@TiXmlNode@@UAEPAVTiXmlDocument@@XZ 0044d1f0 f i foundation_win32.release:xmlwriter.obj
 0001:0004c200       ?ToElement@TiXmlNode@@UAEPAVTiXmlElement@@XZ 0044d200 f i foundation_win32.release:xmlwriter.obj
 0001:0004c210       ?ToComment@TiXmlNode@@UAEPAVTiXmlComment@@XZ 0044d210 f i foundation_win32.release:xmlwriter.obj
 0001:0004c220       ?ToUnknown@TiXmlNode@@UAEPAVTiXmlUnknown@@XZ 0044d220 f i foundation_win32.release:xmlwriter.obj
 0001:0004c230       ?ToText@TiXmlNode@@UAEPAVTiXmlText@@XZ 0044d230 f i foundation_win32.release:xmlwriter.obj
 0001:0004c240       ?ToDeclaration@TiXmlNode@@UAEPAVTiXmlDeclaration@@XZ 0044d240 f i foundation_win32.release:xmlwriter.obj
 0001:0004c250       ??0TiXmlComment@@QAE@XZ    0044d250 f i foundation_win32.release:xmlwriter.obj
 0001:0004c280       ??1TiXmlComment@@UAE@XZ    0044d280 f i foundation_win32.release:xmlwriter.obj
 0001:0004c2a0       ?ToComment@TiXmlComment@@UBEPBV1@XZ 0044d2a0 f i foundation_win32.release:xmlwriter.obj
 0001:0004c2b0       ?ToComment@TiXmlComment@@UAEPAV1@XZ 0044d2b0 f i foundation_win32.release:xmlwriter.obj
 0001:0004c2c0       ??_GTiXmlComment@@UAEPAXI@Z 0044d2c0 f i foundation_win32.release:xmlwriter.obj
 0001:0004c2c0       ??_ETiXmlComment@@UAEPAXI@Z 0044d2c0 f i  CIL library: CIL module
 0001:0004c300       ??0TiXmlText@@QAE@PBD@Z    0044d300 f i foundation_win32.release:xmlwriter.obj
 0001:0004c370       ??1TiXmlText@@UAE@XZ       0044d370 f i foundation_win32.release:xmlwriter.obj
 0001:0004c390       ?ToText@TiXmlText@@UBEPBV1@XZ 0044d390 f i foundation_win32.release:xmlwriter.obj
 0001:0004c3a0       ?ToText@TiXmlText@@UAEPAV1@XZ 0044d3a0 f i foundation_win32.release:xmlwriter.obj
 0001:0004c3b0       ??_GTiXmlText@@UAEPAXI@Z   0044d3b0 f i foundation_win32.release:xmlwriter.obj
 0001:0004c3b0       ??_ETiXmlText@@UAEPAXI@Z   0044d3b0 f i  CIL library: CIL module
 0001:0004c3f0       ??1TiXmlDeclaration@@UAE@XZ 0044d3f0 f i foundation_win32.release:xmlwriter.obj
 0001:0004c490       ?ToDeclaration@TiXmlDeclaration@@UBEPBV1@XZ 0044d490 f i foundation_win32.release:xmlwriter.obj
 0001:0004c4a0       ?ToDeclaration@TiXmlDeclaration@@UAEPAV1@XZ 0044d4a0 f i foundation_win32.release:xmlwriter.obj
 0001:0004c4b0       ??_GTiXmlDeclaration@@UAEPAXI@Z 0044d4b0 f i foundation_win32.release:xmlwriter.obj
 0001:0004c4b0       ??_ETiXmlDeclaration@@UAEPAXI@Z 0044d4b0 f i  CIL library: CIL module
 0001:0004c4e0       ??2XmlWriter@IO@@SAPAXI@Z  0044d4e0 f i foundation_win32.release:xmlwriter.obj
 0001:0004c4f0       ??3XmlWriter@IO@@SAXPAX@Z  0044d4f0 f i foundation_win32.release:xmlwriter.obj
 0001:0004c510       ?GetRtti@XmlWriter@IO@@UBEPAVRtti@Core@@XZ 0044d510 f   foundation_win32.release:xmlwriter.obj
 0001:0004c520       ?FactoryCreator@XmlWriter@IO@@SAPAVRefCounted@Core@@XZ 0044d520 f   foundation_win32.release:xmlwriter.obj
 0001:0004c530       ?Create@XmlWriter@IO@@SAPAV12@XZ 0044d530 f   foundation_win32.release:xmlwriter.obj
 0001:0004c570       ?RegisterWithFactory@XmlWriter@IO@@SA_NXZ 0044d570 f   foundation_win32.release:xmlwriter.obj
 0001:0004c670       ??0XmlWriter@IO@@QAE@XZ    0044d670 f   foundation_win32.release:xmlwriter.obj
 0001:0004c6b0       ??_EXmlWriter@IO@@UAEPAXI@Z 0044d6b0 f i  CIL library: CIL module
 0001:0004c6b0       ??_GXmlWriter@IO@@UAEPAXI@Z 0044d6b0 f i foundation_win32.release:xmlwriter.obj
 0001:0004c6e0       ??1XmlWriter@IO@@UAE@XZ    0044d6e0 f   foundation_win32.release:xmlwriter.obj
 0001:0004c720       ?Open@XmlWriter@IO@@UAE_NXZ 0044d720 f   foundation_win32.release:xmlwriter.obj
 0001:0004c7e0       ?Close@XmlWriter@IO@@UAEXXZ 0044d7e0 f   foundation_win32.release:xmlwriter.obj
 0001:0004c890       ?BeginNode@XmlWriter@IO@@QAE_NABVString@Util@@@Z 0044d890 f   foundation_win32.release:xmlwriter.obj
 0001:0004c9c0       ?EndNode@XmlWriter@IO@@QAEXXZ 0044d9c0 f   foundation_win32.release:xmlwriter.obj
 0001:0004ca60       ?WriteContent@XmlWriter@IO@@QAEXABVString@Util@@@Z 0044da60 f   foundation_win32.release:xmlwriter.obj
 0001:0004cae0       ?WriteComment@XmlWriter@IO@@QAEXABVString@Util@@@Z 0044dae0 f   foundation_win32.release:xmlwriter.obj
 0001:0004cba0       ?SetString@XmlWriter@IO@@QAEXABVString@Util@@0@Z 0044dba0 f   foundation_win32.release:xmlwriter.obj
 0001:0004cc70       ?SetBool@XmlWriter@IO@@QAEXABVString@Util@@_N@Z 0044dc70 f   foundation_win32.release:xmlwriter.obj
 0001:0004cce0       ?SetInt@XmlWriter@IO@@QAEXABVString@Util@@H@Z 0044dce0 f   foundation_win32.release:xmlwriter.obj
 0001:0004cd40       ?SetFloat@XmlWriter@IO@@QAEXABVString@Util@@M@Z 0044dd40 f   foundation_win32.release:xmlwriter.obj
 0001:0004cda0       ?SetFloat4@XmlWriter@IO@@QAEXABVString@Util@@ABVfloat4@Math@@@Z 0044dda0 f   foundation_win32.release:xmlwriter.obj
 0001:0004ce00       ?SetMatrix44@XmlWriter@IO@@QAEXABVString@Util@@ABVmatrix44@Math@@@Z 0044de00 f   foundation_win32.release:xmlwriter.obj
 0001:0004ce60       ?SetFloat2@XmlWriter@IO@@QAEXABVString@Util@@ABVfloat2@Math@@@Z 0044de60 f   foundation_win32.release:xmlwriter.obj
 0001:0004cee0       ?XMVectorGetWPtr@@YAXPAMT__m128@@@Z 0044dee0 f i foundation_win32.release:xmlwriter.obj
 0001:0004cf20       ?XMVectorGetZPtr@@YAXPAMT__m128@@@Z 0044df20 f i foundation_win32.release:xmlwriter.obj
 0001:0004cf60       ?XMVectorGetYPtr@@YAXPAMT__m128@@@Z 0044df60 f i foundation_win32.release:xmlwriter.obj
 0001:0004cfa0       ?XMVectorGetXPtr@@YAXPAMT__m128@@@Z 0044dfa0 f i foundation_win32.release:xmlwriter.obj
 0001:0004cfc0       ?ToHtml@HtmlElement@Http@@SA?AVString@Util@@W4Code@12@@Z 0044dfc0 f   foundation_win32.release:htmlelement.obj
 0001:0004d990       ??2InputServer@Input@@SAPAXI@Z 0044e990 f i render_win32.release:inputserver.obj
 0001:0004d9a0       ??3InputServer@Input@@SAXPAX@Z 0044e9a0 f i render_win32.release:inputserver.obj
 0001:0004d9c0       ?GetRtti@InputServer@Input@@UBEPAVRtti@Core@@XZ 0044e9c0 f   render_win32.release:inputserver.obj
 0001:0004d9d0       ?FactoryCreator@InputServer@Input@@SAPAVRefCounted@Core@@XZ 0044e9d0 f   render_win32.release:inputserver.obj
 0001:0004d9e0       ?Create@InputServer@Input@@SAPAV12@XZ 0044e9e0 f   render_win32.release:inputserver.obj
 0001:0004da20       ?RegisterWithFactory@InputServer@Input@@SA_NXZ 0044ea20 f   render_win32.release:inputserver.obj
 0001:0004db20       ??0InputServer@Input@@QAE@XZ 0044eb20 f   render_win32.release:inputserver.obj
 0001:0004db70       ??_GInputServer@Input@@UAEPAXI@Z 0044eb70 f i render_win32.release:inputserver.obj
 0001:0004db70       ??_EInputServer@Input@@UAEPAXI@Z 0044eb70 f i  CIL library: CIL module
 0001:0004dba0       ??1InputServer@Input@@UAE@XZ 0044eba0 f   render_win32.release:inputserver.obj
 0001:0004dbf0       ??0float2@Math@@QAE@XZ     0044ebf0 f i render_win32.release:inputserverbase.obj
 0001:0004dc00       ??0InputEvent@Input@@QAE@XZ 0044ec00 f i render_win32.release:inputserverbase.obj
 0001:0004dc40       ?SetType@InputEvent@Input@@QAEXW4Type@12@@Z 0044ec40 f i render_win32.release:inputserverbase.obj
 0001:0004dc60       ?GetType@InputEvent@Input@@QBE?AW4Type@12@XZ 0044ec60 f i render_win32.release:inputserverbase.obj
 0001:0004dc70       ??2InputServerBase@Base@@SAPAXI@Z 0044ec70 f i render_win32.release:inputserverbase.obj
 0001:0004dc80       ??3InputServerBase@Base@@SAXPAX@Z 0044ec80 f i render_win32.release:inputserverbase.obj
 0001:0004dca0       ?IsOpen@InputServerBase@Base@@QBE_NXZ 0044eca0 f i render_win32.release:inputserverbase.obj
 0001:0004dcc0       ?GetMaxNumPlayers@GamePadBase@Base@@SAHXZ 0044ecc0 f i render_win32.release:inputserverbase.obj
 0001:0004dcd0       ?GetRtti@InputServerBase@Base@@UBEPAVRtti@Core@@XZ 0044ecd0 f   render_win32.release:inputserverbase.obj
 0001:0004dce0       ?FactoryCreator@InputServerBase@Base@@SAPAVRefCounted@Core@@XZ 0044ece0 f   render_win32.release:inputserverbase.obj
 0001:0004dcf0       ?Create@InputServerBase@Base@@SAPAV12@XZ 0044ecf0 f   render_win32.release:inputserverbase.obj
 0001:0004dd30       ?RegisterWithFactory@InputServerBase@Base@@SA_NXZ 0044ed30 f   render_win32.release:inputserverbase.obj
 0001:0004de30       ??0InputServerBase@Base@@QAE@XZ 0044ee30 f   render_win32.release:inputserverbase.obj
 0001:0004def0       ??_EInputServerBase@Base@@UAEPAXI@Z 0044eef0 f i  CIL library: CIL module
 0001:0004def0       ??_GInputServerBase@Base@@UAEPAXI@Z 0044eef0 f i render_win32.release:inputserverbase.obj
 0001:0004df20       ??1InputServerBase@Base@@UAE@XZ 0044ef20 f   render_win32.release:inputserverbase.obj
 0001:0004dfb0       ?SetMaxNumLocalPlayers@InputServerBase@Base@@QAEXH@Z 0044efb0 f   render_win32.release:inputserverbase.obj
 0001:0004e000       ?Open@InputServerBase@Base@@UAEXXZ 0044f000 f   render_win32.release:inputserverbase.obj
 0001:0004e050       ?Close@InputServerBase@Base@@UAEXXZ 0044f050 f   render_win32.release:inputserverbase.obj
 0001:0004e140       ?Reset@InputServerBase@Base@@QAEXXZ 0044f140 f   render_win32.release:inputserverbase.obj
 0001:0004e1d0       ?AttachInputHandler@InputServerBase@Base@@QAEXW4Code@InputPriority@Input@@ABV?$Ptr@VInputHandler@Input@@@@@Z 0044f1d0 f   render_win32.release:inputserverbase.obj
 0001:0004e2a0       ??1?$KeyValuePair@W4Code@InputPriority@Input@@V?$Ptr@VInputHandler@Input@@@@@Util@@QAE@XZ 0044f2a0 f i render_win32.release:inputserverbase.obj
 0001:0004e2c0       ?RemoveInputHandler@InputServerBase@Base@@QAEXABV?$Ptr@VInputHandler@Input@@@@@Z 0044f2c0 f   render_win32.release:inputserverbase.obj
 0001:0004e3e0       ?BeginFrame@InputServerBase@Base@@UAEXXZ 0044f3e0 f   render_win32.release:inputserverbase.obj
 0001:0004e490       ?OnFrame@InputServerBase@Base@@UAEXXZ 0044f490 f   render_win32.release:inputserverbase.obj
 0001:0004e4a0       ?EndFrame@InputServerBase@Base@@QAEXXZ 0044f4a0 f   render_win32.release:inputserverbase.obj
 0001:0004e550       ?PutEvent@InputServerBase@Base@@QAEXABVInputEvent@Input@@@Z 0044f550 f   render_win32.release:inputserverbase.obj
 0001:0004e720       ?ObtainMouseCapture@InputServerBase@Base@@QAEXABV?$Ptr@VInputHandler@Input@@@@@Z 0044f720 f   render_win32.release:inputserverbase.obj
 0001:0004e7a0       ?ReleaseMouseCapture@InputServerBase@Base@@QAEXABV?$Ptr@VInputHandler@Input@@@@@Z 0044f7a0 f   render_win32.release:inputserverbase.obj
 0001:0004e800       ?GetMouseCaptureHandler@InputServerBase@Base@@QBEABV?$Ptr@VInputHandler@Input@@@@XZ 0044f800 f   render_win32.release:inputserverbase.obj
 0001:0004e820       ?ClearMouseCapture@InputServerBase@Base@@QAEXXZ 0044f820 f   render_win32.release:inputserverbase.obj
 0001:0004e870       ?ClearKeyboardCapture@InputServerBase@Base@@QAEXXZ 0044f870 f   render_win32.release:inputserverbase.obj
 0001:0004e8c0       ?ClearCapture@InputServerBase@Base@@QAEXXZ 0044f8c0 f   render_win32.release:inputserverbase.obj
 0001:0004e8e0       ?ObtainKeyboardCapture@InputServerBase@Base@@QAEXABV?$Ptr@VInputHandler@Input@@@@@Z 0044f8e0 f   render_win32.release:inputserverbase.obj
 0001:0004e960       ?ReleaseKeyboardCapture@InputServerBase@Base@@QAEXABV?$Ptr@VInputHandler@Input@@@@@Z 0044f960 f   render_win32.release:inputserverbase.obj
 0001:0004e9c0       ?GetKeyboardCaptureHandler@InputServerBase@Base@@QBEABV?$Ptr@VInputHandler@Input@@@@XZ 0044f9c0 f   render_win32.release:inputserverbase.obj
 0001:0004e9e0       ?GetDefaultGamePad@InputServerBase@Base@@QBE?AV?$Ptr@VGamePad@Input@@@@H@Z 0044f9e0 f   render_win32.release:inputserverbase.obj
 0001:0004ea80       ??0?$Array@V?$KeyValuePair@W4Code@InputPriority@Input@@V?$Ptr@VInputHandler@Input@@@@@Util@@@Util@@QAE@XZ 0044fa80 f i render_win32.release:inputserverbase.obj
 0001:0004eac0       ??1?$Array@V?$KeyValuePair@W4Code@InputPriority@Input@@V?$Ptr@VInputHandler@Input@@@@@Util@@@Util@@QAE@XZ 0044fac0 f i render_win32.release:inputserverbase.obj
 0001:0004eae0       ??A?$Array@V?$KeyValuePair@W4Code@InputPriority@Input@@V?$Ptr@VInputHandler@Input@@@@@Util@@@Util@@QBEAAV?$KeyValuePair@W4Code@InputPriority@Input@@V?$Ptr@VInputHandler@Input@@@@@1@H@Z 0044fae0 f i render_win32.release:inputserverbase.obj
 0001:0004eb30       ?Size@?$Array@V?$KeyValuePair@W4Code@InputPriority@Input@@V?$Ptr@VInputHandler@Input@@@@@Util@@@Util@@QBEHXZ 0044fb30 f i render_win32.release:inputserverbase.obj
 0001:0004eb50       ?EraseIndex@?$Array@V?$KeyValuePair@W4Code@InputPriority@Input@@V?$Ptr@VInputHandler@Input@@@@@Util@@@Util@@QAEXH@Z 0044fb50 f i render_win32.release:inputserverbase.obj
 0001:0004ebd0       ?InsertSorted@?$Array@V?$KeyValuePair@W4Code@InputPriority@Input@@V?$Ptr@VInputHandler@Input@@@@@Util@@@Util@@QAEHABV?$KeyValuePair@W4Code@InputPriority@Input@@V?$Ptr@VInputHandler@Input@@@@@2@@Z 0044fbd0 f i render_win32.release:inputserverbase.obj
 0001:0004ee40       ?Clear@?$Array@V?$KeyValuePair@W4Code@InputPriority@Input@@V?$Ptr@VInputHandler@Input@@@@@Util@@@Util@@QAEXXZ 0044fe40 f i render_win32.release:inputserverbase.obj
 0001:0004ee90       ??0?$Ptr@VInputHandler@Input@@@@QAE@XZ 0044fe90 f i render_win32.release:inputserverbase.obj
 0001:0004eeb0       ??1?$Ptr@VInputHandler@Input@@@@QAE@XZ 0044feb0 f i render_win32.release:inputserverbase.obj
 0001:0004eee0       ??4?$Ptr@VInputHandler@Input@@@@QAEXPAVInputHandler@Input@@@Z 0044fee0 f i render_win32.release:inputserverbase.obj
 0001:0004ef40       ??4?$Ptr@VInputHandler@Input@@@@QAEXABV0@@Z 0044ff40 f i render_win32.release:inputserverbase.obj
 0001:0004efa0       ??8?$Ptr@VInputHandler@Input@@@@QBE_NABV0@@Z 0044ffa0 f i render_win32.release:inputserverbase.obj
 0001:0004efc0       ??9?$Ptr@VInputHandler@Input@@@@QBE_NABV0@@Z 0044ffc0 f i render_win32.release:inputserverbase.obj
 0001:0004eff0       ??C?$Ptr@VInputHandler@Input@@@@QBEPAVInputHandler@Input@@XZ 0044fff0 f i render_win32.release:inputserverbase.obj
 0001:0004f030       ?isvalid@?$Ptr@VInputHandler@Input@@@@QBE_NXZ 00450030 f i render_win32.release:inputserverbase.obj
 0001:0004f050       ??0?$Ptr@VKeyboard@Input@@@@QAE@XZ 00450050 f i render_win32.release:inputserverbase.obj
 0001:0004f070       ??1?$Ptr@VKeyboard@Input@@@@QAE@XZ 00450070 f i render_win32.release:inputserverbase.obj
 0001:0004f0a0       ??4?$Ptr@VKeyboard@Input@@@@QAEXPAVKeyboard@Input@@@Z 004500a0 f i render_win32.release:inputserverbase.obj
 0001:0004f100       ??0?$Ptr@VMouse@Input@@@@QAE@XZ 00450100 f i render_win32.release:inputserverbase.obj
 0001:0004f120       ??1?$Ptr@VMouse@Input@@@@QAE@XZ 00450120 f i render_win32.release:inputserverbase.obj
 0001:0004f150       ??4?$Ptr@VMouse@Input@@@@QAEXPAVMouse@Input@@@Z 00450150 f i render_win32.release:inputserverbase.obj
 0001:0004f1b0       ??0?$FixedArray@V?$Ptr@VGamePad@Input@@@@@Util@@QAE@H@Z 004501b0 f i render_win32.release:inputserverbase.obj
 0001:0004f1e0       ??1?$FixedArray@V?$Ptr@VGamePad@Input@@@@@Util@@QAE@XZ 004501e0 f i render_win32.release:inputserverbase.obj
 0001:0004f200       ??A?$FixedArray@V?$Ptr@VGamePad@Input@@@@@Util@@QBEAAV?$Ptr@VGamePad@Input@@@@H@Z 00450200 f i render_win32.release:inputserverbase.obj
 0001:0004f250       ?Fill@?$FixedArray@V?$Ptr@VGamePad@Input@@@@@Util@@QAEXABV?$Ptr@VGamePad@Input@@@@@Z 00450250 f i render_win32.release:inputserverbase.obj
 0001:0004f2a0       ??0?$KeyValuePair@W4Code@InputPriority@Input@@V?$Ptr@VInputHandler@Input@@@@@Util@@QAE@ABW4Code@InputPriority@Input@@ABV?$Ptr@VInputHandler@Input@@@@@Z 004502a0 f i render_win32.release:inputserverbase.obj
 0001:0004f2d0       ?Value@?$KeyValuePair@W4Code@InputPriority@Input@@V?$Ptr@VInputHandler@Input@@@@@Util@@QAEAAV?$Ptr@VInputHandler@Input@@@@XZ 004502d0 f i render_win32.release:inputserverbase.obj
 0001:0004f2f0       ??0?$Ptr@VGamePad@Input@@@@QAE@ABV0@@Z 004502f0 f i render_win32.release:inputserverbase.obj
 0001:0004f330       ??0?$Ptr@VGamePad@Input@@@@QAE@PAVGamePad@Input@@@Z 00450330 f i render_win32.release:inputserverbase.obj
 0001:0004f370       ?Append@?$Array@V?$KeyValuePair@W4Code@InputPriority@Input@@V?$Ptr@VInputHandler@Input@@@@@Util@@@Util@@QAEXABV?$KeyValuePair@W4Code@InputPriority@Input@@V?$Ptr@VInputHandler@Input@@@@@2@@Z 00450370 f i render_win32.release:inputserverbase.obj
 0001:0004f3f0       ?Insert@?$Array@V?$KeyValuePair@W4Code@InputPriority@Input@@V?$Ptr@VInputHandler@Input@@@@@Util@@@Util@@QAEXHABV?$KeyValuePair@W4Code@InputPriority@Input@@V?$Ptr@VInputHandler@Input@@@@@2@@Z 004503f0 f i render_win32.release:inputserverbase.obj
 0001:0004f460       ?InsertAtEndOfIdenticalRange@?$Array@V?$KeyValuePair@W4Code@InputPriority@Input@@V?$Ptr@VInputHandler@Input@@@@@Util@@@Util@@QAEHHABV?$KeyValuePair@W4Code@InputPriority@Input@@V?$Ptr@VInputHandler@Input@@@@@2@@Z 00450460 f i render_win32.release:inputserverbase.obj
 0001:0004f4e0       ?Destroy@?$Array@V?$KeyValuePair@W4Code@InputPriority@Input@@V?$Ptr@VInputHandler@Input@@@@@Util@@@Util@@AAEXPAV?$KeyValuePair@W4Code@InputPriority@Input@@V?$Ptr@VInputHandler@Input@@@@@2@@Z 004504e0 f i render_win32.release:inputserverbase.obj
 0001:0004f510       ?Delete@?$Array@V?$KeyValuePair@W4Code@InputPriority@Input@@V?$Ptr@VInputHandler@Input@@@@@Util@@@Util@@AAEXXZ 00450510 f i render_win32.release:inputserverbase.obj
 0001:0004f580       ?Move@?$Array@V?$KeyValuePair@W4Code@InputPriority@Input@@V?$Ptr@VInputHandler@Input@@@@@Util@@@Util@@AAEXHH@Z 00450580 f i render_win32.release:inputserverbase.obj
 0001:0004f710       ??O?$KeyValuePair@W4Code@InputPriority@Input@@V?$Ptr@VInputHandler@Input@@@@@Util@@QBE_NABV01@@Z 00450710 f i render_win32.release:inputserverbase.obj
 0001:0004f730       ??M?$KeyValuePair@W4Code@InputPriority@Input@@V?$Ptr@VInputHandler@Input@@@@@Util@@QBE_NABV01@@Z 00450730 f i render_win32.release:inputserverbase.obj
 0001:0004f750       ??0?$Ptr@VInputHandler@Input@@@@QAE@ABV0@@Z 00450750 f i render_win32.release:inputserverbase.obj
 0001:0004f790       ?Delete@?$FixedArray@V?$Ptr@VGamePad@Input@@@@@Util@@AAEXXZ 00450790 f i render_win32.release:inputserverbase.obj
 0001:0004f7f0       ?Alloc@?$FixedArray@V?$Ptr@VGamePad@Input@@@@@Util@@AAEXH@Z 004507f0 f i render_win32.release:inputserverbase.obj
 0001:0004f8c0       ??4?$Ptr@VGamePad@Input@@@@QAEXABV0@@Z 004508c0 f i render_win32.release:inputserverbase.obj
 0001:0004f920       ??_G?$KeyValuePair@W4Code@InputPriority@Input@@V?$Ptr@VInputHandler@Input@@@@@Util@@QAEPAXI@Z 00450920 f i render_win32.release:inputserverbase.obj
 0001:0004f960       ??_E?$KeyValuePair@W4Code@InputPriority@Input@@V?$Ptr@VInputHandler@Input@@@@@Util@@QAEPAXI@Z 00450960 f i render_win32.release:inputserverbase.obj
 0001:0004fa00       ??_E?$Ptr@VGamePad@Input@@@@QAEPAXI@Z 00450a00 f i render_win32.release:inputserverbase.obj
 0001:0004faa0       ?Grow@?$Array@V?$KeyValuePair@W4Code@InputPriority@Input@@V?$Ptr@VInputHandler@Input@@@@@Util@@@Util@@AAEXXZ 00450aa0 f i render_win32.release:inputserverbase.obj
 0001:0004fb20       ??4?$KeyValuePair@W4Code@InputPriority@Input@@V?$Ptr@VInputHandler@Input@@@@@Util@@QAEXABV01@@Z 00450b20 f i render_win32.release:inputserverbase.obj
 0001:0004fb50       ??9?$KeyValuePair@W4Code@InputPriority@Input@@V?$Ptr@VInputHandler@Input@@@@@Util@@QBE_NABV01@@Z 00450b50 f i render_win32.release:inputserverbase.obj
 0001:0004fb70       ??0?$Ptr@VGamePad@Input@@@@QAE@XZ 00450b70 f i render_win32.release:inputserverbase.obj
 0001:0004fb90       ?GrowTo@?$Array@V?$KeyValuePair@W4Code@InputPriority@Input@@V?$Ptr@VInputHandler@Input@@@@@Util@@@Util@@AAEXH@Z 00450b90 f i render_win32.release:inputserverbase.obj
 0001:0004fcb0       ??0?$KeyValuePair@W4Code@InputPriority@Input@@V?$Ptr@VInputHandler@Input@@@@@Util@@QAE@XZ 00450cb0 f i render_win32.release:inputserverbase.obj
 0001:0004fcd0       ?set@float2@Math@@QAEXMM@Z 00450cd0 f i render_win32.release:win32inputserver.obj
 0001:0004fcf0       ?x@float2@Math@@QAEAAMXZ   00450cf0 f i render_win32.release:win32inputserver.obj
 0001:0004fd00       ?y@float2@Math@@QAEAAMXZ   00450d00 f i render_win32.release:win32inputserver.obj
 0001:0004fd20       ??2Win32InputServer@Win32@@SAPAXI@Z 00450d20 f i render_win32.release:win32inputserver.obj
 0001:0004fd30       ??3Win32InputServer@Win32@@SAXPAX@Z 00450d30 f i render_win32.release:win32inputserver.obj
 0001:0004fd50       ?SetPlayerIndex@GamePadBase@Base@@QAEXH@Z 00450d50 f i render_win32.release:win32inputserver.obj
 0001:0004fd90       ?Instance@Display@Graphics@@SAPAV12@XZ 00450d90 f i render_win32.release:win32inputserver.obj
 0001:0004fdd0       ?GetRtti@Win32InputServer@Win32@@UBEPAVRtti@Core@@XZ 00450dd0 f   render_win32.release:win32inputserver.obj
 0001:0004fde0       ?FactoryCreator@Win32InputServer@Win32@@SAPAVRefCounted@Core@@XZ 00450de0 f   render_win32.release:win32inputserver.obj
 0001:0004fdf0       ?Create@Win32InputServer@Win32@@SAPAV12@XZ 00450df0 f   render_win32.release:win32inputserver.obj
 0001:0004fe30       ?RegisterWithFactory@Win32InputServer@Win32@@SA_NXZ 00450e30 f   render_win32.release:win32inputserver.obj
 0001:0004ff30       ??0Win32InputServer@Win32@@QAE@XZ 00450f30 f   render_win32.release:win32inputserver.obj
 0001:0004ffb0       ??_GWin32InputServer@Win32@@UAEPAXI@Z 00450fb0 f i render_win32.release:win32inputserver.obj
 0001:0004ffb0       ??_EWin32InputServer@Win32@@UAEPAXI@Z 00450fb0 f i  CIL library: CIL module
 0001:0004ffe0       ??1Win32InputServer@Win32@@UAE@XZ 00450fe0 f   render_win32.release:win32inputserver.obj
 0001:00050060       ?Open@Win32InputServer@Win32@@UAEXXZ 00451060 f   render_win32.release:win32inputserver.obj
 0001:000501f0       ?Close@Win32InputServer@Win32@@UAEXXZ 004511f0 f   render_win32.release:win32inputserver.obj
 0001:00050280       ?OnFrame@Win32InputServer@Win32@@UAEXXZ 00451280 f   render_win32.release:win32inputserver.obj
 0001:000502b0       ?OpenDInputMouse@Win32InputServer@Win32@@IAE_NXZ 004512b0 f   render_win32.release:win32inputserver.obj
 0001:000504f0       ?CloseDInputMouse@Win32InputServer@Win32@@IAEXXZ 004514f0 f   render_win32.release:win32inputserver.obj
 0001:00050590       ?ReadDInputMouse@Win32InputServer@Win32@@IAEXXZ 00451590 f   render_win32.release:win32inputserver.obj
 0001:00050720       ??0?$Ptr@VWin32InputDisplayEventHandler@Win32@@@@QAE@XZ 00451720 f i render_win32.release:win32inputserver.obj
 0001:00050740       ??1?$Ptr@VWin32InputDisplayEventHandler@Win32@@@@QAE@XZ 00451740 f i render_win32.release:win32inputserver.obj
 0001:00050770       ??4?$Ptr@VWin32InputDisplayEventHandler@Win32@@@@QAEXPAVWin32InputDisplayEventHandler@Win32@@@Z 00451770 f i render_win32.release:win32inputserver.obj
 0001:000507d0       ??C?$Ptr@VWin32InputDisplayEventHandler@Win32@@@@QBEPAVWin32InputDisplayEventHandler@Win32@@XZ 004517d0 f i render_win32.release:win32inputserver.obj
 0001:00050810       ??$upcast@VThreadSafeDisplayEventHandler@CoreGraphics@@@?$Ptr@VWin32InputDisplayEventHandler@Win32@@@@QBEABV?$Ptr@VThreadSafeDisplayEventHandler@CoreGraphics@@@@XZ 00451810 f i render_win32.release:win32inputserver.obj
 0001:00050820       ??$upcast@VInputHandler@Input@@@?$Ptr@VKeyboard@Input@@@@QBEABV?$Ptr@VInputHandler@Input@@@@XZ 00451820 f i render_win32.release:win32inputserver.obj
 0001:00050830       ??$upcast@VInputHandler@Input@@@?$Ptr@VMouse@Input@@@@QBEABV?$Ptr@VInputHandler@Input@@@@XZ 00451830 f i render_win32.release:win32inputserver.obj
 0001:00050840       ??4?$Ptr@VGamePad@Input@@@@QAEXPAVGamePad@Input@@@Z 00451840 f i render_win32.release:win32inputserver.obj
 0001:000508a0       ??$upcast@VInputHandler@Input@@@?$Ptr@VGamePad@Input@@@@QBEABV?$Ptr@VInputHandler@Input@@@@XZ 004518a0 f i render_win32.release:win32inputserver.obj
 0001:000508b0       ??_E?$Ptr@VResourceMapper@Resources@@@@QAEPAXI@Z 004518b0 f i render_win32.release:win32inputserver.obj
 0001:00050950       ??1?$Ptr@VResourceMapper@Resources@@@@QAE@XZ 00451950 f i render_win32.release:win32inputserver.obj
 0001:00050980       ?Free@Win360Heap@Win360@@QAEXPAX@Z 00451980 f i render_win32.release:display.obj
 0001:00050a00       ??0DisplayMode@CoreGraphics@@QAE@XZ 00451a00 f i render_win32.release:display.obj
 0001:00050a50       ??0Win32Guid@Win32@@QAE@ABV01@@Z 00451a50 f i render_win32.release:display.obj
 0001:00050a80       ?DisplayMode@DisplaySettings@Graphics@@QAEAAV0CoreGraphics@@XZ 00451a80 f i render_win32.release:display.obj
 0001:00050aa0       ?GetAntiAliasQuality@DisplaySettings@Graphics@@QBE?AW4Code@AntiAliasQuality@CoreGraphics@@XZ 00451aa0 f i render_win32.release:display.obj
 0001:00050ac0       ?SetAdapter@DisplaySettings@Graphics@@QAEXW4Code@Adapter@CoreGraphics@@@Z 00451ac0 f i render_win32.release:display.obj
 0001:00050ae0       ?GetAdapter@DisplaySettings@Graphics@@QBE?AW4Code@Adapter@CoreGraphics@@XZ 00451ae0 f i render_win32.release:display.obj
 0001:00050af0       ?SetFullscreen@DisplaySettings@Graphics@@QAEX_N@Z 00451af0 f i render_win32.release:display.obj
 0001:00050b10       ?IsAutoAdjustSize@DisplaySettings@Graphics@@QBE_NXZ 00451b10 f i render_win32.release:display.obj
 0001:00050b30       ?IsFullscreen@DisplaySettings@Graphics@@QBE_NXZ 00451b30 f i render_win32.release:display.obj
 0001:00050b50       ?IsDisplayModeSwitchEnabled@DisplaySettings@Graphics@@QBE_NXZ 00451b50 f i render_win32.release:display.obj
 0001:00050b70       ?IsTripleBufferingEnabled@DisplaySettings@Graphics@@QBE_NXZ 00451b70 f i render_win32.release:display.obj
 0001:00050b90       ?IsAlwaysOnTop@DisplaySettings@Graphics@@QBE_NXZ 00451b90 f i render_win32.release:display.obj
 0001:00050bb0       ?IsVerticalSyncEnabled@DisplaySettings@Graphics@@QBE_NXZ 00451bb0 f i render_win32.release:display.obj
 0001:00050bd0       ?GetIconName@DisplaySettings@Graphics@@QBEABVString@Util@@XZ 00451bd0 f i render_win32.release:display.obj
 0001:00050bf0       ?GetWindowTitle@DisplaySettings@Graphics@@QBEABVString@Util@@XZ 00451bf0 f i render_win32.release:display.obj
 0001:00050c10       ??2Display@Graphics@@SAPAXI@Z 00451c10 f i render_win32.release:display.obj
 0001:00050c20       ??3Display@Graphics@@SAXPAX@Z 00451c20 f i render_win32.release:display.obj
 0001:00050c40       ??3Blob@Util@@SAXPAX@Z     00451c40 f i render_win32.release:display.obj
 0001:00050c60       ?IsValid@Blob@Util@@QBE_NXZ 00451c60 f i render_win32.release:display.obj
 0001:00050c80       ?Delete@Blob@Util@@AAEXXZ  00451c80 f i render_win32.release:display.obj
 0001:00050d60       ??1Blob@Util@@QAE@XZ       00451d60 f i render_win32.release:display.obj
 0001:00050d80       ?SetAdapter@SetupGraphics@Graphics@@QAEXABW4Code@Adapter@CoreGraphics@@@Z 00451d80 f i render_win32.release:display.obj
 0001:00050dc0       ?SetDisplayMode@SetupGraphics@Graphics@@QAEXABVDisplayMode@CoreGraphics@@@Z 00451dc0 f i render_win32.release:display.obj
 0001:00050e20       ?SetAntiAliasQuality@SetupGraphics@Graphics@@QAEXABW4Code@AntiAliasQuality@CoreGraphics@@@Z 00451e20 f i render_win32.release:display.obj
 0001:00050e60       ?SetFullscreen@SetupGraphics@Graphics@@QAEX_N@Z 00451e60 f i render_win32.release:display.obj
 0001:00050ea0       ?SetAutoAdjustSize@SetupGraphics@Graphics@@QAEX_N@Z 00451ea0 f i render_win32.release:display.obj
 0001:00050ee0       ?SetDisplayModeSwitchEnabled@SetupGraphics@Graphics@@QAEX_N@Z 00451ee0 f i render_win32.release:display.obj
 0001:00050f20       ?SetTripleBufferingEnabled@SetupGraphics@Graphics@@QAEX_N@Z 00451f20 f i render_win32.release:display.obj
 0001:00050f60       ?SetAlwaysOnTop@SetupGraphics@Graphics@@QAEX_N@Z 00451f60 f i render_win32.release:display.obj
 0001:00050fa0       ?SetVerticalSyncEnabled@SetupGraphics@Graphics@@QAEX_N@Z 00451fa0 f i render_win32.release:display.obj
 0001:00050ff0       ?SetIconName@SetupGraphics@Graphics@@QAEXABVString@Util@@@Z 00451ff0 f i render_win32.release:display.obj
 0001:00051060       ?SetWindowTitle@SetupGraphics@Graphics@@QAEXABVString@Util@@@Z 00452060 f i render_win32.release:display.obj
 0001:000510d0       ?SetParentWindow@SetupGraphics@Graphics@@QAEXPAX@Z 004520d0 f i render_win32.release:display.obj
 0001:00051110       ?SetResourceMappers@SetupGraphics@Graphics@@QAEXABV?$Array@V?$Ptr@VResourceMapper@Resources@@@@@Util@@@Z 00452110 f i render_win32.release:display.obj
 0001:00051150       ?GetActualDisplayMode@SetupGraphics@Graphics@@QBEABVDisplayMode@CoreGraphics@@XZ 00452150 f i render_win32.release:display.obj
 0001:00051190       ?GetActualFullscreen@SetupGraphics@Graphics@@QBE_NXZ 00452190 f i render_win32.release:display.obj
 0001:000511d0       ?GetActualAdapter@SetupGraphics@Graphics@@QBEABW4Code@Adapter@CoreGraphics@@XZ 004521d0 f i render_win32.release:display.obj
 0001:00051210       ?SetAdapter@AdapterExists@Graphics@@QAEXABW4Code@Adapter@CoreGraphics@@@Z 00452210 f i render_win32.release:display.obj
 0001:00051250       ?GetResult@AdapterExists@Graphics@@QBE_NXZ 00452250 f i render_win32.release:display.obj
 0001:00051290       ?SetAdapter@GetAvailableDisplayModes@Graphics@@QAEXABW4Code@Adapter@CoreGraphics@@@Z 00452290 f i render_win32.release:display.obj
 0001:000512d0       ?SetPixelFormat@GetAvailableDisplayModes@Graphics@@QAEXABW4Code@PixelFormat@CoreGraphics@@@Z 004522d0 f i render_win32.release:display.obj
 0001:00051310       ?GetResult@GetAvailableDisplayModes@Graphics@@QBEABV?$Array@VDisplayMode@CoreGraphics@@@Util@@XZ 00452310 f i render_win32.release:display.obj
 0001:00051350       ?SetAdapter@SupportsDisplayMode@Graphics@@QAEXABW4Code@Adapter@CoreGraphics@@@Z 00452350 f i render_win32.release:display.obj
 0001:00051390       ?SetDisplayMode@SupportsDisplayMode@Graphics@@QAEXABVDisplayMode@CoreGraphics@@@Z 00452390 f i render_win32.release:display.obj
 0001:000513f0       ?GetResult@SupportsDisplayMode@Graphics@@QBE_NXZ 004523f0 f i render_win32.release:display.obj
 0001:00051430       ?SetAdapter@GetCurrentAdapterDisplayMode@Graphics@@QAEXABW4Code@Adapter@CoreGraphics@@@Z 00452430 f i render_win32.release:display.obj
 0001:00051470       ?GetResult@GetCurrentAdapterDisplayMode@Graphics@@QBEABVDisplayMode@CoreGraphics@@XZ 00452470 f i render_win32.release:display.obj
 0001:000514b0       ?SetAdapter@GetAdapterInfo@Graphics@@QAEXABW4Code@Adapter@CoreGraphics@@@Z 004524b0 f i render_win32.release:display.obj
 0001:000514f0       ?GetResult@GetAdapterInfo@Graphics@@QBEABVAdapterInfo@CoreGraphics@@XZ 004524f0 f i render_win32.release:display.obj
 0001:00051530       ??1AdapterInfo@CoreGraphics@@QAE@XZ 00452530 f i render_win32.release:display.obj
 0001:00051610       ?SetHandler@AttachDisplayEventHandler@Graphics@@QAEXABV?$Ptr@VThreadSafeDisplayEventHandler@CoreGraphics@@@@@Z 00452610 f i render_win32.release:display.obj
 0001:00051650       ?SetHandler@RemoveDisplayEventHandler@Graphics@@QAEXABV?$Ptr@VThreadSafeDisplayEventHandler@CoreGraphics@@@@@Z 00452650 f i render_win32.release:display.obj
 0001:00051690       ?SetHandler@AttachRenderEventHandler@Graphics@@QAEXABV?$Ptr@VThreadSafeRenderEventHandler@CoreGraphics@@@@@Z 00452690 f i render_win32.release:display.obj
 0001:000516d0       ?SetHandler@RemoveRenderEventHandler@Graphics@@QAEXABV?$Ptr@VThreadSafeRenderEventHandler@CoreGraphics@@@@@Z 004526d0 f i render_win32.release:display.obj
 0001:00051710       ?Instance@GraphicsInterface@Graphics@@SAPAV12@XZ 00452710 f i render_win32.release:display.obj
 0001:00051740       ?GetRtti@Display@Graphics@@UBEPAVRtti@Core@@XZ 00452740 f   render_win32.release:display.obj
 0001:00051750       ?FactoryCreator@Display@Graphics@@SAPAVRefCounted@Core@@XZ 00452750 f   render_win32.release:display.obj
 0001:00051760       ?Create@Display@Graphics@@SAPAV12@XZ 00452760 f   render_win32.release:display.obj
 0001:000517a0       ?RegisterWithFactory@Display@Graphics@@SA_NXZ 004527a0 f   render_win32.release:display.obj
 0001:000518a0       ??0Display@Graphics@@QAE@XZ 004528a0 f   render_win32.release:display.obj
 0001:00051930       ??_EDisplay@Graphics@@UAEPAXI@Z 00452930 f i  CIL library: CIL module
 0001:00051930       ??_GDisplay@Graphics@@UAEPAXI@Z 00452930 f i render_win32.release:display.obj
 0001:00051960       ??1DisplaySettings@Graphics@@QAE@XZ 00452960 f i render_win32.release:display.obj
 0001:00051a00       ??1Display@Graphics@@UAE@XZ 00452a00 f   render_win32.release:display.obj
 0001:00051a90       ?Open@Display@Graphics@@QAEXXZ 00452a90 f   render_win32.release:display.obj
 0001:00051f90       ?Close@Display@Graphics@@QAEXXZ 00452f90 f   render_win32.release:display.obj
 0001:00051fd0       ?AdapterExists@Display@Graphics@@QAE_NW4Code@Adapter@CoreGraphics@@@Z 00452fd0 f   render_win32.release:display.obj
 0001:000520d0       ?GetAvailableDisplayModes@Display@Graphics@@QAE?AV?$Array@VDisplayMode@CoreGraphics@@@Util@@W4Code@Adapter@CoreGraphics@@W45PixelFormat@7@@Z 004530d0 f   render_win32.release:display.obj
 0001:00052210       ?SupportsDisplayMode@Display@Graphics@@QAE_NW4Code@Adapter@CoreGraphics@@ABVDisplayMode@5@@Z 00453210 f   render_win32.release:display.obj
 0001:00052370       ?AdjustSize@Display@Graphics@@QAEXXZ 00453370 f   render_win32.release:display.obj
 0001:000523d0       ?GetCurrentAdapterDisplayMode@Display@Graphics@@QAE?AVDisplayMode@CoreGraphics@@W4Code@Adapter@4@@Z 004533d0 f   render_win32.release:display.obj
 0001:00052500       ?GetAdapterInfo@Display@Graphics@@QAE?AVAdapterInfo@CoreGraphics@@W4Code@Adapter@4@@Z 00453500 f   render_win32.release:display.obj
 0001:00052610       ??0AdapterInfo@CoreGraphics@@QAE@ABV01@@Z 00453610 f i render_win32.release:display.obj
 0001:000527a0       ?AttachDisplayEventHandler@Display@Graphics@@QAEXABV?$Ptr@VThreadSafeDisplayEventHandler@CoreGraphics@@@@@Z 004537a0 f   render_win32.release:display.obj
 0001:00052860       ?RemoveDisplayEventHandler@Display@Graphics@@QAEXABV?$Ptr@VThreadSafeDisplayEventHandler@CoreGraphics@@@@@Z 00453860 f   render_win32.release:display.obj
 0001:00052920       ?AttachRenderEventHandler@Display@Graphics@@QAEXABV?$Ptr@VThreadSafeRenderEventHandler@CoreGraphics@@@@@Z 00453920 f   render_win32.release:display.obj
 0001:000529e0       ?RemoveRenderEventHandler@Display@Graphics@@QAEXABV?$Ptr@VThreadSafeRenderEventHandler@CoreGraphics@@@@@Z 004539e0 f   render_win32.release:display.obj
 0001:00052aa0       ??0?$Array@V?$Ptr@VResourceMapper@Resources@@@@@Util@@QAE@XZ 00453aa0 f i render_win32.release:display.obj
 0001:00052ae0       ??1?$Array@V?$Ptr@VResourceMapper@Resources@@@@@Util@@QAE@XZ 00453ae0 f i render_win32.release:display.obj
 0001:00052b00       ??4?$Array@V?$Ptr@VResourceMapper@Resources@@@@@Util@@QAEXABV01@@Z 00453b00 f i render_win32.release:display.obj
 0001:00052bf0       ?IsEmpty@?$Array@V?$Ptr@VResourceMapper@Resources@@@@@Util@@QBE_NXZ 00453bf0 f i render_win32.release:display.obj
 0001:00052c10       ?Clear@?$Array@V?$Ptr@VResourceMapper@Resources@@@@@Util@@QAEXXZ 00453c10 f i render_win32.release:display.obj
 0001:00052c60       ??0?$Array@VDisplayMode@CoreGraphics@@@Util@@QAE@ABV01@@Z 00453c60 f i render_win32.release:display.obj
 0001:00052cb0       ??1?$Array@VDisplayMode@CoreGraphics@@@Util@@QAE@XZ 00453cb0 f i render_win32.release:display.obj
 0001:00052cd0       ??4?$Ptr@VThreadSafeDisplayEventHandler@CoreGraphics@@@@QAEXABV0@@Z 00453cd0 f i render_win32.release:display.obj
 0001:00052d30       ??4?$Ptr@VThreadSafeRenderEventHandler@CoreGraphics@@@@QAEXABV0@@Z 00453d30 f i render_win32.release:display.obj
 0001:00052d90       ??4?$Ptr@VResourceMapper@Resources@@@@QAEXABV0@@Z 00453d90 f i render_win32.release:display.obj
 0001:00052df0       ??0?$Ptr@VSetupGraphics@Graphics@@@@QAE@PAVSetupGraphics@Graphics@@@Z 00453df0 f i render_win32.release:display.obj
 0001:00052e30       ??1?$Ptr@VSetupGraphics@Graphics@@@@QAE@XZ 00453e30 f i render_win32.release:display.obj
 0001:00052e60       ??C?$Ptr@VSetupGraphics@Graphics@@@@QBEPAVSetupGraphics@Graphics@@XZ 00453e60 f i render_win32.release:display.obj
 0001:00052ea0       ??$cast@VMessage@Messaging@@@?$Ptr@VSetupGraphics@Graphics@@@@QBEABV?$Ptr@VMessage@Messaging@@@@XZ 00453ea0 f i render_win32.release:display.obj
 0001:00052eb0       ??$SendWait@VMessage@Messaging@@@AsyncPort@Messaging@@QAEXABV?$Ptr@VMessage@Messaging@@@@@Z 00453eb0 f i render_win32.release:display.obj
 0001:00052ed0       ??0?$Ptr@VAdapterExists@Graphics@@@@QAE@PAVAdapterExists@Graphics@@@Z 00453ed0 f i render_win32.release:display.obj
 0001:00052f10       ??1?$Ptr@VAdapterExists@Graphics@@@@QAE@XZ 00453f10 f i render_win32.release:display.obj
 0001:00052f40       ??C?$Ptr@VAdapterExists@Graphics@@@@QBEPAVAdapterExists@Graphics@@XZ 00453f40 f i render_win32.release:display.obj
 0001:00052f80       ??$cast@VMessage@Messaging@@@?$Ptr@VAdapterExists@Graphics@@@@QBEABV?$Ptr@VMessage@Messaging@@@@XZ 00453f80 f i render_win32.release:display.obj
 0001:00052f90       ??0?$Ptr@VGetAvailableDisplayModes@Graphics@@@@QAE@PAVGetAvailableDisplayModes@Graphics@@@Z 00453f90 f i render_win32.release:display.obj
 0001:00052fd0       ??1?$Ptr@VGetAvailableDisplayModes@Graphics@@@@QAE@XZ 00453fd0 f i render_win32.release:display.obj
 0001:00053000       ??C?$Ptr@VGetAvailableDisplayModes@Graphics@@@@QBEPAVGetAvailableDisplayModes@Graphics@@XZ 00454000 f i render_win32.release:display.obj
 0001:00053040       ??$cast@VMessage@Messaging@@@?$Ptr@VGetAvailableDisplayModes@Graphics@@@@QBEABV?$Ptr@VMessage@Messaging@@@@XZ 00454040 f i render_win32.release:display.obj
 0001:00053050       ??0?$Ptr@VSupportsDisplayMode@Graphics@@@@QAE@PAVSupportsDisplayMode@Graphics@@@Z 00454050 f i render_win32.release:display.obj
 0001:00053090       ??1?$Ptr@VSupportsDisplayMode@Graphics@@@@QAE@XZ 00454090 f i render_win32.release:display.obj
 0001:000530c0       ??C?$Ptr@VSupportsDisplayMode@Graphics@@@@QBEPAVSupportsDisplayMode@Graphics@@XZ 004540c0 f i render_win32.release:display.obj
 0001:00053100       ??$cast@VMessage@Messaging@@@?$Ptr@VSupportsDisplayMode@Graphics@@@@QBEABV?$Ptr@VMessage@Messaging@@@@XZ 00454100 f i render_win32.release:display.obj
 0001:00053110       ??0?$Ptr@VAdjustDisplaySize@Graphics@@@@QAE@PAVAdjustDisplaySize@Graphics@@@Z 00454110 f i render_win32.release:display.obj
 0001:00053150       ??1?$Ptr@VAdjustDisplaySize@Graphics@@@@QAE@XZ 00454150 f i render_win32.release:display.obj
 0001:00053180       ??$cast@VMessage@Messaging@@@?$Ptr@VAdjustDisplaySize@Graphics@@@@QBEABV?$Ptr@VMessage@Messaging@@@@XZ 00454180 f i render_win32.release:display.obj
 0001:00053190       ??0?$Ptr@VGetCurrentAdapterDisplayMode@Graphics@@@@QAE@PAVGetCurrentAdapterDisplayMode@Graphics@@@Z 00454190 f i render_win32.release:display.obj
 0001:000531d0       ??1?$Ptr@VGetCurrentAdapterDisplayMode@Graphics@@@@QAE@XZ 004541d0 f i render_win32.release:display.obj
 0001:00053200       ??C?$Ptr@VGetCurrentAdapterDisplayMode@Graphics@@@@QBEPAVGetCurrentAdapterDisplayMode@Graphics@@XZ 00454200 f i render_win32.release:display.obj
 0001:00053240       ??$cast@VMessage@Messaging@@@?$Ptr@VGetCurrentAdapterDisplayMode@Graphics@@@@QBEABV?$Ptr@VMessage@Messaging@@@@XZ 00454240 f i render_win32.release:display.obj
 0001:00053250       ??0?$Ptr@VGetAdapterInfo@Graphics@@@@QAE@PAVGetAdapterInfo@Graphics@@@Z 00454250 f i render_win32.release:display.obj
 0001:00053290       ??1?$Ptr@VGetAdapterInfo@Graphics@@@@QAE@XZ 00454290 f i render_win32.release:display.obj
 0001:000532c0       ??C?$Ptr@VGetAdapterInfo@Graphics@@@@QBEPAVGetAdapterInfo@Graphics@@XZ 004542c0 f i render_win32.release:display.obj
 0001:00053300       ??$cast@VMessage@Messaging@@@?$Ptr@VGetAdapterInfo@Graphics@@@@QBEABV?$Ptr@VMessage@Messaging@@@@XZ 00454300 f i render_win32.release:display.obj
 0001:00053310       ??0?$Ptr@VAttachDisplayEventHandler@Graphics@@@@QAE@PAVAttachDisplayEventHandler@Graphics@@@Z 00454310 f i render_win32.release:display.obj
 0001:00053350       ??1?$Ptr@VAttachDisplayEventHandler@Graphics@@@@QAE@XZ 00454350 f i render_win32.release:display.obj
 0001:00053380       ??C?$Ptr@VAttachDisplayEventHandler@Graphics@@@@QBEPAVAttachDisplayEventHandler@Graphics@@XZ 00454380 f i render_win32.release:display.obj
 0001:000533c0       ??$cast@VMessage@Messaging@@@?$Ptr@VAttachDisplayEventHandler@Graphics@@@@QBEABV?$Ptr@VMessage@Messaging@@@@XZ 004543c0 f i render_win32.release:display.obj
 0001:000533d0       ??0?$Ptr@VRemoveDisplayEventHandler@Graphics@@@@QAE@PAVRemoveDisplayEventHandler@Graphics@@@Z 004543d0 f i render_win32.release:display.obj
 0001:00053410       ??1?$Ptr@VRemoveDisplayEventHandler@Graphics@@@@QAE@XZ 00454410 f i render_win32.release:display.obj
 0001:00053440       ??C?$Ptr@VRemoveDisplayEventHandler@Graphics@@@@QBEPAVRemoveDisplayEventHandler@Graphics@@XZ 00454440 f i render_win32.release:display.obj
 0001:00053480       ??$cast@VMessage@Messaging@@@?$Ptr@VRemoveDisplayEventHandler@Graphics@@@@QBEABV?$Ptr@VMessage@Messaging@@@@XZ 00454480 f i render_win32.release:display.obj
 0001:00053490       ??0?$Ptr@VAttachRenderEventHandler@Graphics@@@@QAE@PAVAttachRenderEventHandler@Graphics@@@Z 00454490 f i render_win32.release:display.obj
 0001:000534d0       ??1?$Ptr@VAttachRenderEventHandler@Graphics@@@@QAE@XZ 004544d0 f i render_win32.release:display.obj
 0001:00053500       ??C?$Ptr@VAttachRenderEventHandler@Graphics@@@@QBEPAVAttachRenderEventHandler@Graphics@@XZ 00454500 f i render_win32.release:display.obj
 0001:00053540       ??$cast@VMessage@Messaging@@@?$Ptr@VAttachRenderEventHandler@Graphics@@@@QBEABV?$Ptr@VMessage@Messaging@@@@XZ 00454540 f i render_win32.release:display.obj
 0001:00053550       ??0?$Ptr@VRemoveRenderEventHandler@Graphics@@@@QAE@PAVRemoveRenderEventHandler@Graphics@@@Z 00454550 f i render_win32.release:display.obj
 0001:00053590       ??1?$Ptr@VRemoveRenderEventHandler@Graphics@@@@QAE@XZ 00454590 f i render_win32.release:display.obj
 0001:000535c0       ??C?$Ptr@VRemoveRenderEventHandler@Graphics@@@@QBEPAVRemoveRenderEventHandler@Graphics@@XZ 004545c0 f i render_win32.release:display.obj
 0001:00053600       ??$cast@VMessage@Messaging@@@?$Ptr@VRemoveRenderEventHandler@Graphics@@@@QBEABV?$Ptr@VMessage@Messaging@@@@XZ 00454600 f i render_win32.release:display.obj
 0001:00053610       ??1?$KeyValuePair@VStringAtom@Util@@V?$Ptr@VRenderTarget@CoreGraphics@@@@@Util@@QAE@XZ 00454610 f i render_win32.release:display.obj
 0001:00053630       ??1?$KeyValuePair@VStringAtom@Util@@V?$Ptr@VMultipleRenderTarget@CoreGraphics@@@@@Util@@QAE@XZ 00454630 f i render_win32.release:display.obj
 0001:00053650       ??1?$KeyValuePair@VStringAtom@Util@@V?$Ptr@VManagedTexture@Resources@@@@@Util@@QAE@XZ 00454650 f i render_win32.release:display.obj
 0001:00053670       ?Destroy@?$Array@V?$Ptr@VResourceMapper@Resources@@@@@Util@@AAEXPAV?$Ptr@VResourceMapper@Resources@@@@@Z 00454670 f i render_win32.release:display.obj
 0001:000536a0       ?Copy@?$Array@V?$Ptr@VResourceMapper@Resources@@@@@Util@@AAEXABV12@@Z 004546a0 f i render_win32.release:display.obj
 0001:000537d0       ?Delete@?$Array@V?$Ptr@VResourceMapper@Resources@@@@@Util@@AAEXXZ 004547d0 f i render_win32.release:display.obj
 0001:00053840       ?Copy@?$Array@VDisplayMode@CoreGraphics@@@Util@@AAEXABV12@@Z 00454840 f i render_win32.release:display.obj
 0001:000539b0       ?Delete@?$Array@VDisplayMode@CoreGraphics@@@Util@@AAEXXZ 004549b0 f i render_win32.release:display.obj
 0001:00053a10       ??1?$Ptr@VRenderTarget@CoreGraphics@@@@QAE@XZ 00454a10 f i render_win32.release:display.obj
 0001:00053a40       ??1?$Ptr@VMultipleRenderTarget@CoreGraphics@@@@QAE@XZ 00454a40 f i render_win32.release:display.obj
 0001:00053a70       ??1?$Ptr@VManagedTexture@Resources@@@@QAE@XZ 00454a70 f i render_win32.release:display.obj
 0001:00053aa0       ??_G?$Ptr@VResourceMapper@Resources@@@@QAEPAXI@Z 00454aa0 f i render_win32.release:display.obj
 0001:00053ad0       ??_EBlob@Util@@QAEPAXI@Z   00454ad0 f i render_win32.release:display.obj
 0001:00053b70       ??_E?$Ptr@VVisibilitySystemBase@Visibility@@@@QAEPAXI@Z 00454b70 f i render_win32.release:display.obj
 0001:00053c10       ??_ERenderShape@CoreGraphics@@QAEPAXI@Z 00454c10 f i render_win32.release:display.obj
 0001:00053cc0       ??_ETextElement@CoreGraphics@@QAEPAXI@Z 00454cc0 f i render_win32.release:display.obj
 0001:00053d60       ??1RenderShape@CoreGraphics@@QAE@XZ 00454d60 f i render_win32.release:display.obj
 0001:00053d80       ??1TextElement@CoreGraphics@@QAE@XZ 00454d80 f i render_win32.release:display.obj
 0001:00053de0       ??0?$Ptr@VResourceMapper@Resources@@@@QAE@XZ 00454de0 f i render_win32.release:display.obj
 0001:00053e00       ??1?$Ptr@VVisibilitySystemBase@Visibility@@@@QAE@XZ 00454e00 f i render_win32.release:display.obj
 0001:00053e30       ??_E?$Ptr@VInternalGraphicsEntity@InternalGraphics@@@@QAEPAXI@Z 00454e30 f i render_win32.release:display.obj
 0001:00053ed0       ??_E?$Ptr@VShaderVariableInstance@CoreGraphics@@@@QAEPAXI@Z 00454ed0 f i render_win32.release:display.obj
 0001:00053f70       ??_E?$Ptr@VFrameBatch@Frame@@@@QAEPAXI@Z 00454f70 f i render_win32.release:display.obj
 0001:00054010       ??_E?$Ptr@VFramePassBase@Frame@@@@QAEPAXI@Z 00455010 f i render_win32.release:display.obj
 0001:000540b0       ??1?$Ptr@VInternalGraphicsEntity@InternalGraphics@@@@QAE@XZ 004550b0 f i render_win32.release:display.obj
 0001:000540e0       ??1?$Ptr@VShaderVariableInstance@CoreGraphics@@@@QAE@XZ 004550e0 f i render_win32.release:display.obj
 0001:00054110       ??1?$Ptr@VFrameBatch@Frame@@@@QAE@XZ 00455110 f i render_win32.release:display.obj
 0001:00054140       ??1?$Ptr@VFramePassBase@Frame@@@@QAE@XZ 00455140 f i render_win32.release:display.obj
 0001:00054170       ??_E?$Ptr@VModel@Models@@@@QAEPAXI@Z 00455170 f i render_win32.release:display.obj
 0001:00054210       ??_E?$KeyValuePair@VStringAtom@Util@@V?$Ptr@VRenderTarget@CoreGraphics@@@@@Util@@QAEPAXI@Z 00455210 f i render_win32.release:display.obj
 0001:000542b0       ??_E?$KeyValuePair@VStringAtom@Util@@V?$Ptr@VMultipleRenderTarget@CoreGraphics@@@@@Util@@QAEPAXI@Z 004552b0 f i render_win32.release:display.obj
 0001:00054350       ??_E?$KeyValuePair@VStringAtom@Util@@V?$Ptr@VManagedTexture@Resources@@@@@Util@@QAEPAXI@Z 00455350 f i render_win32.release:display.obj
 0001:000543f0       ??1?$Ptr@VModel@Models@@@@QAE@XZ 004553f0 f i render_win32.release:display.obj
 0001:00054420       ??4float2@Math@@QAEXABV01@@Z 00455420 f i render_win32.release:win32inputdisplayeventhandler.obj
 0001:00054450       ?GetEventCode@DisplayEvent@CoreGraphics@@QBE?AW4Code@12@XZ 00455450 f i render_win32.release:win32inputdisplayeventhandler.obj
 0001:00054460       ?GetAbsMousePos@DisplayEvent@CoreGraphics@@QBEABVfloat2@Math@@XZ 00455460 f i render_win32.release:win32inputdisplayeventhandler.obj
 0001:00054480       ?GetNormMousePos@DisplayEvent@CoreGraphics@@QBEABVfloat2@Math@@XZ 00455480 f i render_win32.release:win32inputdisplayeventhandler.obj
 0001:000544a0       ?GetKey@DisplayEvent@CoreGraphics@@QBE?AW4Code@Key@Input@@XZ 004554a0 f i render_win32.release:win32inputdisplayeventhandler.obj
 0001:000544c0       ?GetChar@DisplayEvent@CoreGraphics@@QBEEXZ 004554c0 f i render_win32.release:win32inputdisplayeventhandler.obj
 0001:000544e0       ?GetMouseButton@DisplayEvent@CoreGraphics@@QBE?AW4Code@MouseButton@Input@@XZ 004554e0 f i render_win32.release:win32inputdisplayeventhandler.obj
 0001:00054500       ??2Win32InputDisplayEventHandler@Win32@@SAPAXI@Z 00455500 f i render_win32.release:win32inputdisplayeventhandler.obj
 0001:00054510       ??3Win32InputDisplayEventHandler@Win32@@SAXPAX@Z 00455510 f i render_win32.release:win32inputdisplayeventhandler.obj
 0001:00054530       ?SetKey@InputEvent@Input@@QAEXW4Code@Key@2@@Z 00455530 f i render_win32.release:win32inputdisplayeventhandler.obj
 0001:00054550       ?SetChar@InputEvent@Input@@QAEXE@Z 00455550 f i render_win32.release:win32inputdisplayeventhandler.obj
 0001:00054570       ?SetMouseButton@InputEvent@Input@@QAEXW4Code@MouseButton@2@@Z 00455570 f i render_win32.release:win32inputdisplayeventhandler.obj
 0001:00054590       ?SetAbsMousePos@InputEvent@Input@@QAEXABVfloat2@Math@@@Z 00455590 f i render_win32.release:win32inputdisplayeventhandler.obj
 0001:000545c0       ?SetNormMousePos@InputEvent@Input@@QAEXABVfloat2@Math@@@Z 004555c0 f i render_win32.release:win32inputdisplayeventhandler.obj
 0001:000545f0       ?SetQuitRequested@InputServerBase@Base@@QAEX_N@Z 004555f0 f i render_win32.release:win32inputdisplayeventhandler.obj
 0001:00054610       ?Instance@InputServer@Input@@SAPAV12@XZ 00455610 f i render_win32.release:win32inputdisplayeventhandler.obj
 0001:00054640       ?GetRtti@Win32InputDisplayEventHandler@Win32@@UBEPAVRtti@Core@@XZ 00455640 f   render_win32.release:win32inputdisplayeventhandler.obj
 0001:00054650       ?FactoryCreator@Win32InputDisplayEventHandler@Win32@@SAPAVRefCounted@Core@@XZ 00455650 f   render_win32.release:win32inputdisplayeventhandler.obj
 0001:00054660       ?Create@Win32InputDisplayEventHandler@Win32@@SAPAV12@XZ 00455660 f   render_win32.release:win32inputdisplayeventhandler.obj
 0001:000546a0       ??0Win32InputDisplayEventHandler@Win32@@QAE@XZ 004556a0 f i render_win32.release:win32inputdisplayeventhandler.obj
 0001:000546c0       ??_GWin32InputDisplayEventHandler@Win32@@UAEPAXI@Z 004556c0 f i render_win32.release:win32inputdisplayeventhandler.obj
 0001:000546c0       ??_EWin32InputDisplayEventHandler@Win32@@UAEPAXI@Z 004556c0 f i  CIL library: CIL module
 0001:000546f0       ??1Win32InputDisplayEventHandler@Win32@@UAE@XZ 004556f0 f i render_win32.release:win32inputdisplayeventhandler.obj
 0001:00054710       ?RegisterWithFactory@Win32InputDisplayEventHandler@Win32@@SA_NXZ 00455710 f   render_win32.release:win32inputdisplayeventhandler.obj
 0001:00054810       ?HandleEvent@Win32InputDisplayEventHandler@Win32@@UAE_NABVDisplayEvent@CoreGraphics@@@Z 00455810 f   render_win32.release:win32inputdisplayeventhandler.obj
 0001:00054bb0       ??2Keyboard@Input@@SAPAXI@Z 00455bb0 f i render_win32.release:keyboard.obj
 0001:00054bc0       ??3Keyboard@Input@@SAXPAX@Z 00455bc0 f i render_win32.release:keyboard.obj
 0001:00054be0       ?GetRtti@Keyboard@Input@@UBEPAVRtti@Core@@XZ 00455be0 f   render_win32.release:keyboard.obj
 0001:00054bf0       ?FactoryCreator@Keyboard@Input@@SAPAVRefCounted@Core@@XZ 00455bf0 f   render_win32.release:keyboard.obj
 0001:00054c00       ?Create@Keyboard@Input@@SAPAV12@XZ 00455c00 f   render_win32.release:keyboard.obj
 0001:00054c40       ??0Keyboard@Input@@QAE@XZ  00455c40 f i render_win32.release:keyboard.obj
 0001:00054c60       ??_GKeyboard@Input@@UAEPAXI@Z 00455c60 f i render_win32.release:keyboard.obj
 0001:00054c60       ??_EKeyboard@Input@@UAEPAXI@Z 00455c60 f i  CIL library: CIL module
 0001:00054c90       ??1Keyboard@Input@@UAE@XZ  00455c90 f i render_win32.release:keyboard.obj
 0001:00054cb0       ?RegisterWithFactory@Keyboard@Input@@SA_NXZ 00455cb0 f   render_win32.release:keyboard.obj
 0001:00054db0       ??3Win32Mouse@Win32@@SAXPAX@Z 00455db0 f i render_win32.release:mouse.obj
 0001:00054dd0       ??2Mouse@Input@@SAPAXI@Z   00455dd0 f i render_win32.release:mouse.obj
 0001:00054de0       ??3Mouse@Input@@SAXPAX@Z   00455de0 f i render_win32.release:mouse.obj
 0001:00054e00       ?GetRtti@Mouse@Input@@UBEPAVRtti@Core@@XZ 00455e00 f   render_win32.release:mouse.obj
 0001:00054e10       ?FactoryCreator@Mouse@Input@@SAPAVRefCounted@Core@@XZ 00455e10 f   render_win32.release:mouse.obj
 0001:00054e20       ?Create@Mouse@Input@@SAPAV12@XZ 00455e20 f   render_win32.release:mouse.obj
 0001:00054e70       ??0Mouse@Input@@QAE@XZ     00455e70 f i render_win32.release:mouse.obj
 0001:00054ea0       ??_GMouse@Input@@UAEPAXI@Z 00455ea0 f i render_win32.release:mouse.obj
 0001:00054ea0       ??_EMouse@Input@@UAEPAXI@Z 00455ea0 f i  CIL library: CIL module
 0001:00054ed0       ??0Win32Mouse@Win32@@QAE@XZ 00455ed0 f i render_win32.release:mouse.obj
 0001:00054ef0       ??1Win32Mouse@Win32@@UAE@XZ 00455ef0 f i render_win32.release:mouse.obj
 0001:00054f10       ??1Mouse@Input@@UAE@XZ     00455f10 f i render_win32.release:mouse.obj
 0001:00054f30       ??_GWin32Mouse@Win32@@UAEPAXI@Z 00455f30 f i render_win32.release:mouse.obj
 0001:00054f30       ??_EWin32Mouse@Win32@@UAEPAXI@Z 00455f30 f i  CIL library: CIL module
 0001:00054f60       ?RegisterWithFactory@Mouse@Input@@SA_NXZ 00455f60 f   render_win32.release:mouse.obj
 0001:00055060       ??2GamePad@Input@@SAPAXI@Z 00456060 f i render_win32.release:gamepad.obj
 0001:00055070       ??3GamePad@Input@@SAXPAX@Z 00456070 f i render_win32.release:gamepad.obj
 0001:00055090       ?GetRtti@GamePad@Input@@UBEPAVRtti@Core@@XZ 00456090 f   render_win32.release:gamepad.obj
 0001:000550a0       ?FactoryCreator@GamePad@Input@@SAPAVRefCounted@Core@@XZ 004560a0 f   render_win32.release:gamepad.obj
 0001:000550b0       ?Create@GamePad@Input@@SAPAV12@XZ 004560b0 f   render_win32.release:gamepad.obj
 0001:000550f0       ??0GamePad@Input@@QAE@XZ   004560f0 f i render_win32.release:gamepad.obj
 0001:00055110       ??_GGamePad@Input@@UAEPAXI@Z 00456110 f i render_win32.release:gamepad.obj
 0001:00055110       ??_EGamePad@Input@@UAEPAXI@Z 00456110 f i  CIL library: CIL module
 0001:00055140       ??1GamePad@Input@@UAE@XZ   00456140 f i render_win32.release:gamepad.obj
 0001:00055160       ?RegisterWithFactory@GamePad@Input@@SA_NXZ 00456160 f   render_win32.release:gamepad.obj
 0001:00055260       ??0float2@Math@@QAE@MM@Z   00456260 f i render_win32.release:threadsafedisplayeventhandler.obj
 0001:00055290       ??0DisplayEvent@CoreGraphics@@QAE@XZ 00456290 f i render_win32.release:threadsafedisplayeventhandler.obj
 0001:00055300       ??2ThreadSafeDisplayEventHandler@CoreGraphics@@SAPAXI@Z 00456300 f i render_win32.release:threadsafedisplayeventhandler.obj
 0001:00055310       ??3ThreadSafeDisplayEventHandler@CoreGraphics@@SAXPAX@Z 00456310 f i render_win32.release:threadsafedisplayeventhandler.obj
 0001:00055330       ?GetRtti@ThreadSafeDisplayEventHandler@CoreGraphics@@UBEPAVRtti@Core@@XZ 00456330 f   render_win32.release:threadsafedisplayeventhandler.obj
 0001:00055340       ?FactoryCreator@ThreadSafeDisplayEventHandler@CoreGraphics@@SAPAVRefCounted@Core@@XZ 00456340 f   render_win32.release:threadsafedisplayeventhandler.obj
 0001:00055350       ?Create@ThreadSafeDisplayEventHandler@CoreGraphics@@SAPAV12@XZ 00456350 f   render_win32.release:threadsafedisplayeventhandler.obj
 0001:00055390       ?RegisterWithFactory@ThreadSafeDisplayEventHandler@CoreGraphics@@SA_NXZ 00456390 f   render_win32.release:threadsafedisplayeventhandler.obj
 0001:00055490       ??0ThreadSafeDisplayEventHandler@CoreGraphics@@QAE@XZ 00456490 f   render_win32.release:threadsafedisplayeventhandler.obj
 0001:000554d0       ??_EThreadSafeDisplayEventHandler@CoreGraphics@@UAEPAXI@Z 004564d0 f i  CIL library: CIL module
 0001:000554d0       ??_GThreadSafeDisplayEventHandler@CoreGraphics@@UAEPAXI@Z 004564d0 f i render_win32.release:threadsafedisplayeventhandler.obj
 0001:00055500       ??1?$SafeQueue@VDisplayEvent@CoreGraphics@@@Threading@@QAE@XZ 00456500 f i render_win32.release:threadsafedisplayeventhandler.obj
 0001:00055540       ??1?$Queue@VDisplayEvent@CoreGraphics@@@Util@@QAE@XZ 00456540 f i render_win32.release:threadsafedisplayeventhandler.obj
 0001:00055560       ??1ThreadSafeDisplayEventHandler@CoreGraphics@@UAE@XZ 00456560 f   render_win32.release:threadsafedisplayeventhandler.obj
 0001:000555a0       ?PutEvent@ThreadSafeDisplayEventHandler@CoreGraphics@@UAE_NABVDisplayEvent@2@@Z 004565a0 f   render_win32.release:threadsafedisplayeventhandler.obj
 0001:000555c0       ?HandlePendingEvents@ThreadSafeDisplayEventHandler@CoreGraphics@@QAEXXZ 004565c0 f   render_win32.release:threadsafedisplayeventhandler.obj
 0001:00055620       ?HandleEvent@ThreadSafeDisplayEventHandler@CoreGraphics@@MAE_NABVDisplayEvent@2@@Z 00456620 f   render_win32.release:threadsafedisplayeventhandler.obj
 0001:00055630       ??0?$Array@VDisplayEvent@CoreGraphics@@@Util@@QAE@XZ 00456630 f i render_win32.release:threadsafedisplayeventhandler.obj
 0001:00055670       ??1?$Array@VDisplayEvent@CoreGraphics@@@Util@@QAE@XZ 00456670 f i render_win32.release:threadsafedisplayeventhandler.obj
 0001:00055690       ??A?$Array@VDisplayEvent@CoreGraphics@@@Util@@QBEAAVDisplayEvent@CoreGraphics@@H@Z 00456690 f i render_win32.release:threadsafedisplayeventhandler.obj
 0001:000556e0       ?Size@?$Array@VDisplayEvent@CoreGraphics@@@Util@@QBEHXZ 004566e0 f i render_win32.release:threadsafedisplayeventhandler.obj
 0001:00055700       ??0?$SafeQueue@VDisplayEvent@CoreGraphics@@@Threading@@QAE@XZ 00456700 f i render_win32.release:threadsafedisplayeventhandler.obj
 0001:00055770       ?Enqueue@?$SafeQueue@VDisplayEvent@CoreGraphics@@@Threading@@QAEXABVDisplayEvent@CoreGraphics@@@Z 00456770 f i render_win32.release:threadsafedisplayeventhandler.obj
 0001:000557e0       ?DequeueAll@?$SafeQueue@VDisplayEvent@CoreGraphics@@@Threading@@QAEXAAV?$Array@VDisplayEvent@CoreGraphics@@@Util@@@Z 004567e0 f i render_win32.release:threadsafedisplayeventhandler.obj
 0001:00055840       ??4?$Array@VDisplayEvent@CoreGraphics@@@Util@@QAEXABV01@@Z 00456840 f i render_win32.release:threadsafedisplayeventhandler.obj
 0001:00055930       ?Append@?$Array@VDisplayEvent@CoreGraphics@@@Util@@QAEXABVDisplayEvent@CoreGraphics@@@Z 00456930 f i render_win32.release:threadsafedisplayeventhandler.obj
 0001:000559b0       ?Clear@?$Array@VDisplayEvent@CoreGraphics@@@Util@@QAEXXZ 004569b0 f i render_win32.release:threadsafedisplayeventhandler.obj
 0001:00055a00       ?Delete@?$Array@VDisplayEvent@CoreGraphics@@@Util@@AAEXXZ 00456a00 f i render_win32.release:threadsafedisplayeventhandler.obj
 0001:00055a60       ??0?$Queue@VDisplayEvent@CoreGraphics@@@Util@@QAE@XZ 00456a60 f i render_win32.release:threadsafedisplayeventhandler.obj
 0001:00055a80       ??4DisplayEvent@CoreGraphics@@QAEAAV01@ABV01@@Z 00456a80 f i render_win32.release:threadsafedisplayeventhandler.obj
 0001:00055b10       ?Destroy@?$Array@VDisplayEvent@CoreGraphics@@@Util@@AAEXPAVDisplayEvent@CoreGraphics@@@Z 00456b10 f i render_win32.release:threadsafedisplayeventhandler.obj
 0001:00055b20       ?Copy@?$Array@VDisplayEvent@CoreGraphics@@@Util@@AAEXABV12@@Z 00456b20 f i render_win32.release:threadsafedisplayeventhandler.obj
 0001:00055c40       ?Grow@?$Array@VDisplayEvent@CoreGraphics@@@Util@@AAEXXZ 00456c40 f i render_win32.release:threadsafedisplayeventhandler.obj
 0001:00055cc0       ?GrowTo@?$Array@VDisplayEvent@CoreGraphics@@@Util@@AAEXH@Z 00456cc0 f i render_win32.release:threadsafedisplayeventhandler.obj
 0001:00055db0       ?SetStackSize@Win360Thread@Win360@@QAEXH@Z 00456db0 f i render_win32.release:graphicsinterface.obj
 0001:00055dd0       ??2GraphicsInterface@Graphics@@SAPAXI@Z 00456dd0 f i render_win32.release:graphicsinterface.obj
 0001:00055de0       ??3GraphicsInterface@Graphics@@SAXPAX@Z 00456de0 f i render_win32.release:graphicsinterface.obj
 0001:00055e00       ?GetRtti@GraphicsInterface@Graphics@@UBEPAVRtti@Core@@XZ 00456e00 f   render_win32.release:graphicsinterface.obj
 0001:00055e10       ?FactoryCreator@GraphicsInterface@Graphics@@SAPAVRefCounted@Core@@XZ 00456e10 f   render_win32.release:graphicsinterface.obj
 0001:00055e20       ?Create@GraphicsInterface@Graphics@@SAPAV12@XZ 00456e20 f   render_win32.release:graphicsinterface.obj
 0001:00055e60       ?RegisterWithFactory@GraphicsInterface@Graphics@@SA_NXZ 00456e60 f   render_win32.release:graphicsinterface.obj
 0001:00055f60       ??0GraphicsInterface@Graphics@@QAE@XZ 00456f60 f   render_win32.release:graphicsinterface.obj
 0001:00056010       ??_EGraphicsInterface@Graphics@@UAEPAXI@Z 00457010 f i  CIL library: CIL module
 0001:00056010       ??_GGraphicsInterface@Graphics@@UAEPAXI@Z 00457010 f i render_win32.release:graphicsinterface.obj
 0001:00056040       ??1GraphicsInterface@Graphics@@UAE@XZ 00457040 f   render_win32.release:graphicsinterface.obj
 0001:000560d0       ?Open@GraphicsInterface@Graphics@@UAEXXZ 004570d0 f   render_win32.release:graphicsinterface.obj
 0001:00056240       ?Close@GraphicsInterface@Graphics@@UAEXXZ 00457240 f   render_win32.release:graphicsinterface.obj
 0001:00056280       ?EnterLockStepMode@GraphicsInterface@Graphics@@QAEXXZ 00457280 f   render_win32.release:graphicsinterface.obj
 0001:000562c0       ?LeaveLockStepMode@GraphicsInterface@Graphics@@QAEXXZ 004572c0 f   render_win32.release:graphicsinterface.obj
 0001:00056300       ?GameThreadWaitForFrameSync@GraphicsInterface@Graphics@@QAEXXZ 00457300 f   render_win32.release:graphicsinterface.obj
 0001:00056340       ?WaitForPendingResources@GraphicsInterface@Graphics@@QAEXXZ 00457340 f   render_win32.release:graphicsinterface.obj
 0001:00056360       ?SendBatched@GraphicsInterface@Graphics@@QAEXABV?$Ptr@VMessage@Messaging@@@@@Z 00457360 f   render_win32.release:graphicsinterface.obj
 0001:00056390       ?FlushBatchedMessages@GraphicsInterface@Graphics@@QAEXXZ 00457390 f   render_win32.release:graphicsinterface.obj
 0001:000563f0       ??0?$Ptr@VFrameSyncHandlerThread@FrameSync@@@@QAE@XZ 004573f0 f i render_win32.release:graphicsinterface.obj
 0001:00056410       ??1?$Ptr@VFrameSyncHandlerThread@FrameSync@@@@QAE@XZ 00457410 f i render_win32.release:graphicsinterface.obj
 0001:00056440       ??4?$Ptr@VFrameSyncHandlerThread@FrameSync@@@@QAEXPAVFrameSyncHandlerThread@FrameSync@@@Z 00457440 f i render_win32.release:graphicsinterface.obj
 0001:000564a0       ??C?$Ptr@VFrameSyncHandlerThread@FrameSync@@@@QBEPAVFrameSyncHandlerThread@FrameSync@@XZ 004574a0 f i render_win32.release:graphicsinterface.obj
 0001:000564e0       ??0?$Ptr@VGraphicsHandler@Graphics@@@@QAE@XZ 004574e0 f i render_win32.release:graphicsinterface.obj
 0001:00056500       ??1?$Ptr@VGraphicsHandler@Graphics@@@@QAE@XZ 00457500 f i render_win32.release:graphicsinterface.obj
 0001:00056530       ??4?$Ptr@VGraphicsHandler@Graphics@@@@QAEXPAVGraphicsHandler@Graphics@@@Z 00457530 f i render_win32.release:graphicsinterface.obj
 0001:00056590       ??C?$Ptr@VGraphicsHandler@Graphics@@@@QBEPAVGraphicsHandler@Graphics@@XZ 00457590 f i render_win32.release:graphicsinterface.obj
 0001:000565d0       ??0?$Ptr@VBatchMessage@Messaging@@@@QAE@XZ 004575d0 f i render_win32.release:graphicsinterface.obj
 0001:000565f0       ??1?$Ptr@VBatchMessage@Messaging@@@@QAE@XZ 004575f0 f i render_win32.release:graphicsinterface.obj
 0001:00056620       ??4?$Ptr@VBatchMessage@Messaging@@@@QAEXPAVBatchMessage@Messaging@@@Z 00457620 f i render_win32.release:graphicsinterface.obj
 0001:00056680       ??$cast@VHandler@Messaging@@@?$Ptr@VGraphicsHandler@Graphics@@@@QBEABV?$Ptr@VHandler@Messaging@@@@XZ 00457680 f i render_win32.release:graphicsinterface.obj
 0001:00056690       ??$cast@VHandlerThreadBase@Messaging@@@?$Ptr@VFrameSyncHandlerThread@FrameSync@@@@QBEABV?$Ptr@VHandlerThreadBase@Messaging@@@@XZ 00457690 f i render_win32.release:graphicsinterface.obj
 0001:000566a0       ??$cast@VMessage@Messaging@@@?$Ptr@VBatchMessage@Messaging@@@@QBEABV?$Ptr@VMessage@Messaging@@@@XZ 004576a0 f i render_win32.release:graphicsinterface.obj
 0001:000566b0       ??0DisplayMode@CoreGraphics@@QAE@IIIIW4Code@PixelFormat@1@@Z 004576b0 f i render_win32.release:displaysettings.obj
 0001:00056720       ??0DisplaySettings@Graphics@@QAE@XZ 00457720 f   render_win32.release:displaysettings.obj
 0001:00056830       ??0float4@Math@@QAE@XZ     00457830 f i render_win32.release:graphicsprotocol.obj
 0001:00056840       ??0point@Math@@QAE@XZ      00457840 f i render_win32.release:graphicsprotocol.obj
 0001:000568d0       ??0matrix44@Math@@QAE@XZ   004578d0 f i render_win32.release:graphicsprotocol.obj
 0001:00056970       ??3Win32Guid@Win32@@SAXPAX@Z 00457970 f i render_win32.release:graphicsprotocol.obj
 0001:00056990       ??0Win32Guid@Win32@@QAE@XZ 00457990 f i render_win32.release:graphicsprotocol.obj
 0001:000569b0       ??0Variant@Util@@QAE@XZ    004579b0 f i render_win32.release:graphicsprotocol.obj
 0001:000569e0       ?Delete@Variant@Util@@AAEXXZ 004579e0 f i render_win32.release:graphicsprotocol.obj
 0001:00056fa0       ??_GBlob@Util@@QAEPAXI@Z   00457fa0 f i render_win32.release:graphicsprotocol.obj
 0001:00056fd0       ??_G?$Array@H@Util@@QAEPAXI@Z 00457fd0 f i render_win32.release:graphicsprotocol.obj
 0001:00057000       ??_G?$Array@M@Util@@QAEPAXI@Z 00458000 f i render_win32.release:graphicsprotocol.obj
 0001:00057030       ??_G?$Array@_N@Util@@QAEPAXI@Z 00458030 f i render_win32.release:graphicsprotocol.obj
 0001:00057060       ??_G?$Array@Vfloat4@Math@@@Util@@QAEPAXI@Z 00458060 f i render_win32.release:graphicsprotocol.obj
 0001:00057090       ??_G?$Array@Vmatrix44@Math@@@Util@@QAEPAXI@Z 00458090 f i render_win32.release:graphicsprotocol.obj
 0001:000570c0       ??_G?$Array@VString@Util@@@Util@@QAEPAXI@Z 004580c0 f i render_win32.release:graphicsprotocol.obj
 0001:000570f0       ??_G?$Array@VWin32Guid@Win32@@@Util@@QAEPAXI@Z 004580f0 f i render_win32.release:graphicsprotocol.obj
 0001:00057120       ??_G?$Array@VBlob@Util@@@Util@@QAEPAXI@Z 00458120 f i render_win32.release:graphicsprotocol.obj
 0001:00057150       ??1Variant@Util@@QAE@XZ    00458150 f i render_win32.release:graphicsprotocol.obj
 0001:00057170       ??0AdapterInfo@CoreGraphics@@QAE@XZ 00458170 f i render_win32.release:graphicsprotocol.obj
 0001:00057260       ??2RegisterRTPlugin@Graphics@@SAPAXI@Z 00458260 f i render_win32.release:graphicsprotocol.obj
 0001:00057270       ??3RegisterRTPlugin@Graphics@@SAXPAX@Z 00458270 f i render_win32.release:graphicsprotocol.obj
 0001:00057290       ??0RegisterRTPlugin@Graphics@@QAE@XZ 00458290 f i render_win32.release:graphicsprotocol.obj
 0001:000572b0       ??_ERegisterRTPlugin@Graphics@@UAEPAXI@Z 004582b0 f i  CIL library: CIL module
 0001:000572b0       ??_GRegisterRTPlugin@Graphics@@UAEPAXI@Z 004582b0 f i render_win32.release:graphicsprotocol.obj
 0001:000572e0       ??1RegisterRTPlugin@Graphics@@UAE@XZ 004582e0 f i render_win32.release:graphicsprotocol.obj
 0001:00057300       ??2UnregisterRTPlugin@Graphics@@SAPAXI@Z 00458300 f i render_win32.release:graphicsprotocol.obj
 0001:00057310       ??3UnregisterRTPlugin@Graphics@@SAXPAX@Z 00458310 f i render_win32.release:graphicsprotocol.obj
 0001:00057330       ??0UnregisterRTPlugin@Graphics@@QAE@XZ 00458330 f i render_win32.release:graphicsprotocol.obj
 0001:00057350       ??_EUnregisterRTPlugin@Graphics@@UAEPAXI@Z 00458350 f i  CIL library: CIL module
 0001:00057350       ??_GUnregisterRTPlugin@Graphics@@UAEPAXI@Z 00458350 f i render_win32.release:graphicsprotocol.obj
 0001:00057380       ??1UnregisterRTPlugin@Graphics@@UAE@XZ 00458380 f i render_win32.release:graphicsprotocol.obj
 0001:000573a0       ??2SetupGraphics@Graphics@@SAPAXI@Z 004583a0 f i render_win32.release:graphicsprotocol.obj
 0001:000573b0       ??3SetupGraphics@Graphics@@SAXPAX@Z 004583b0 f i render_win32.release:graphicsprotocol.obj
 0001:000573d0       ??0SetupGraphics@Graphics@@QAE@XZ 004583d0 f i render_win32.release:graphicsprotocol.obj
 0001:000574f0       ??_GSetupGraphics@Graphics@@UAEPAXI@Z 004584f0 f i render_win32.release:graphicsprotocol.obj
 0001:000574f0       ??_ESetupGraphics@Graphics@@UAEPAXI@Z 004584f0 f i  CIL library: CIL module
 0001:00057520       ??1SetupGraphics@Graphics@@UAE@XZ 00458520 f i render_win32.release:graphicsprotocol.obj
 0001:000575d0       ??2AdapterExists@Graphics@@SAPAXI@Z 004585d0 f i render_win32.release:graphicsprotocol.obj
 0001:000575e0       ??3AdapterExists@Graphics@@SAXPAX@Z 004585e0 f i render_win32.release:graphicsprotocol.obj
 0001:00057600       ??0AdapterExists@Graphics@@QAE@XZ 00458600 f i render_win32.release:graphicsprotocol.obj
 0001:00057620       ??_GAdapterExists@Graphics@@UAEPAXI@Z 00458620 f i render_win32.release:graphicsprotocol.obj
 0001:00057620       ??_EAdapterExists@Graphics@@UAEPAXI@Z 00458620 f i  CIL library: CIL module
 0001:00057650       ??1AdapterExists@Graphics@@UAE@XZ 00458650 f i render_win32.release:graphicsprotocol.obj
 0001:00057670       ??2GetAvailableDisplayModes@Graphics@@SAPAXI@Z 00458670 f i render_win32.release:graphicsprotocol.obj
 0001:00057680       ??3GetAvailableDisplayModes@Graphics@@SAXPAX@Z 00458680 f i render_win32.release:graphicsprotocol.obj
 0001:000576a0       ??0GetAvailableDisplayModes@Graphics@@QAE@XZ 004586a0 f i render_win32.release:graphicsprotocol.obj
 0001:000576d0       ??_EGetAvailableDisplayModes@Graphics@@UAEPAXI@Z 004586d0 f i  CIL library: CIL module
 0001:000576d0       ??_GGetAvailableDisplayModes@Graphics@@UAEPAXI@Z 004586d0 f i render_win32.release:graphicsprotocol.obj
 0001:00057710       ??1GetAvailableDisplayModes@Graphics@@UAE@XZ 00458710 f i render_win32.release:graphicsprotocol.obj
 0001:00057730       ??2SupportsDisplayMode@Graphics@@SAPAXI@Z 00458730 f i render_win32.release:graphicsprotocol.obj
 0001:00057740       ??3SupportsDisplayMode@Graphics@@SAXPAX@Z 00458740 f i render_win32.release:graphicsprotocol.obj
 0001:00057760       ??0SupportsDisplayMode@Graphics@@QAE@XZ 00458760 f i render_win32.release:graphicsprotocol.obj
 0001:000577d0       ??_GSupportsDisplayMode@Graphics@@UAEPAXI@Z 004587d0 f i render_win32.release:graphicsprotocol.obj
 0001:000577d0       ??_ESupportsDisplayMode@Graphics@@UAEPAXI@Z 004587d0 f i  CIL library: CIL module
 0001:00057800       ??1SupportsDisplayMode@Graphics@@UAE@XZ 00458800 f i render_win32.release:graphicsprotocol.obj
 0001:00057820       ??2AdjustDisplaySize@Graphics@@SAPAXI@Z 00458820 f i render_win32.release:graphicsprotocol.obj
 0001:00057830       ??3AdjustDisplaySize@Graphics@@SAXPAX@Z 00458830 f i render_win32.release:graphicsprotocol.obj
 0001:00057850       ??0AdjustDisplaySize@Graphics@@QAE@XZ 00458850 f i render_win32.release:graphicsprotocol.obj
 0001:00057870       ??_EAdjustDisplaySize@Graphics@@UAEPAXI@Z 00458870 f i  CIL library: CIL module
 0001:00057870       ??_GAdjustDisplaySize@Graphics@@UAEPAXI@Z 00458870 f i render_win32.release:graphicsprotocol.obj
 0001:000578a0       ??1AdjustDisplaySize@Graphics@@UAE@XZ 004588a0 f i render_win32.release:graphicsprotocol.obj
 0001:000578c0       ??2GetCurrentAdapterDisplayMode@Graphics@@SAPAXI@Z 004588c0 f i render_win32.release:graphicsprotocol.obj
 0001:000578d0       ??3GetCurrentAdapterDisplayMode@Graphics@@SAXPAX@Z 004588d0 f i render_win32.release:graphicsprotocol.obj
 0001:000578f0       ??0GetCurrentAdapterDisplayMode@Graphics@@QAE@XZ 004588f0 f i render_win32.release:graphicsprotocol.obj
 0001:00057960       ??_GGetCurrentAdapterDisplayMode@Graphics@@UAEPAXI@Z 00458960 f i render_win32.release:graphicsprotocol.obj
 0001:00057960       ??_EGetCurrentAdapterDisplayMode@Graphics@@UAEPAXI@Z 00458960 f i  CIL library: CIL module
 0001:00057990       ??1GetCurrentAdapterDisplayMode@Graphics@@UAE@XZ 00458990 f i render_win32.release:graphicsprotocol.obj
 0001:000579b0       ??2GetAdapterInfo@Graphics@@SAPAXI@Z 004589b0 f i render_win32.release:graphicsprotocol.obj
 0001:000579c0       ??3GetAdapterInfo@Graphics@@SAXPAX@Z 004589c0 f i render_win32.release:graphicsprotocol.obj
 0001:000579e0       ??0GetAdapterInfo@Graphics@@QAE@XZ 004589e0 f i render_win32.release:graphicsprotocol.obj
 0001:00057a10       ??_EGetAdapterInfo@Graphics@@UAEPAXI@Z 00458a10 f i  CIL library: CIL module
 0001:00057a10       ??_GGetAdapterInfo@Graphics@@UAEPAXI@Z 00458a10 f i render_win32.release:graphicsprotocol.obj
 0001:00057a50       ??1GetAdapterInfo@Graphics@@UAE@XZ 00458a50 f i render_win32.release:graphicsprotocol.obj
 0001:00057a70       ??2AttachDisplayEventHandler@Graphics@@SAPAXI@Z 00458a70 f i render_win32.release:graphicsprotocol.obj
 0001:00057a80       ??3AttachDisplayEventHandler@Graphics@@SAXPAX@Z 00458a80 f i render_win32.release:graphicsprotocol.obj
 0001:00057aa0       ??0AttachDisplayEventHandler@Graphics@@QAE@XZ 00458aa0 f i render_win32.release:graphicsprotocol.obj
 0001:00057ad0       ??_EAttachDisplayEventHandler@Graphics@@UAEPAXI@Z 00458ad0 f i  CIL library: CIL module
 0001:00057ad0       ??_GAttachDisplayEventHandler@Graphics@@UAEPAXI@Z 00458ad0 f i render_win32.release:graphicsprotocol.obj
 0001:00057b10       ??1AttachDisplayEventHandler@Graphics@@UAE@XZ 00458b10 f i render_win32.release:graphicsprotocol.obj
 0001:00057b30       ??2RemoveDisplayEventHandler@Graphics@@SAPAXI@Z 00458b30 f i render_win32.release:graphicsprotocol.obj
 0001:00057b40       ??3RemoveDisplayEventHandler@Graphics@@SAXPAX@Z 00458b40 f i render_win32.release:graphicsprotocol.obj
 0001:00057b60       ??0RemoveDisplayEventHandler@Graphics@@QAE@XZ 00458b60 f i render_win32.release:graphicsprotocol.obj
 0001:00057b90       ??_ERemoveDisplayEventHandler@Graphics@@UAEPAXI@Z 00458b90 f i  CIL library: CIL module
 0001:00057b90       ??_GRemoveDisplayEventHandler@Graphics@@UAEPAXI@Z 00458b90 f i render_win32.release:graphicsprotocol.obj
 0001:00057bd0       ??1RemoveDisplayEventHandler@Graphics@@UAE@XZ 00458bd0 f i render_win32.release:graphicsprotocol.obj
 0001:00057bf0       ??2AttachRenderEventHandler@Graphics@@SAPAXI@Z 00458bf0 f i render_win32.release:graphicsprotocol.obj
 0001:00057c00       ??3AttachRenderEventHandler@Graphics@@SAXPAX@Z 00458c00 f i render_win32.release:graphicsprotocol.obj
 0001:00057c20       ??0AttachRenderEventHandler@Graphics@@QAE@XZ 00458c20 f i render_win32.release:graphicsprotocol.obj
 0001:00057c50       ??_EAttachRenderEventHandler@Graphics@@UAEPAXI@Z 00458c50 f i  CIL library: CIL module
 0001:00057c50       ??_GAttachRenderEventHandler@Graphics@@UAEPAXI@Z 00458c50 f i render_win32.release:graphicsprotocol.obj
 0001:00057c90       ??1AttachRenderEventHandler@Graphics@@UAE@XZ 00458c90 f i render_win32.release:graphicsprotocol.obj
 0001:00057cb0       ??2RemoveRenderEventHandler@Graphics@@SAPAXI@Z 00458cb0 f i render_win32.release:graphicsprotocol.obj
 0001:00057cc0       ??3RemoveRenderEventHandler@Graphics@@SAXPAX@Z 00458cc0 f i render_win32.release:graphicsprotocol.obj
 0001:00057ce0       ??0RemoveRenderEventHandler@Graphics@@QAE@XZ 00458ce0 f i render_win32.release:graphicsprotocol.obj
 0001:00057d10       ??_GRemoveRenderEventHandler@Graphics@@UAEPAXI@Z 00458d10 f i render_win32.release:graphicsprotocol.obj
 0001:00057d10       ??_ERemoveRenderEventHandler@Graphics@@UAEPAXI@Z 00458d10 f i  CIL library: CIL module
 0001:00057d50       ??1RemoveRenderEventHandler@Graphics@@UAE@XZ 00458d50 f i render_win32.release:graphicsprotocol.obj
 0001:00057d70       ??2CreateGraphicsStage@Graphics@@SAPAXI@Z 00458d70 f i render_win32.release:graphicsprotocol.obj
 0001:00057d80       ??3CreateGraphicsStage@Graphics@@SAXPAX@Z 00458d80 f i render_win32.release:graphicsprotocol.obj
 0001:00057da0       ??0CreateGraphicsStage@Graphics@@QAE@XZ 00458da0 f i render_win32.release:graphicsprotocol.obj
 0001:00057df0       ??_ECreateGraphicsStage@Graphics@@UAEPAXI@Z 00458df0 f i  CIL library: CIL module
 0001:00057df0       ??_GCreateGraphicsStage@Graphics@@UAEPAXI@Z 00458df0 f i render_win32.release:graphicsprotocol.obj
 0001:00057e40       ??1CreateGraphicsStage@Graphics@@UAE@XZ 00458e40 f i render_win32.release:graphicsprotocol.obj
 0001:00057e70       ??2DiscardGraphicsStage@Graphics@@SAPAXI@Z 00458e70 f i render_win32.release:graphicsprotocol.obj
 0001:00057e80       ??3DiscardGraphicsStage@Graphics@@SAXPAX@Z 00458e80 f i render_win32.release:graphicsprotocol.obj
 0001:00057ea0       ??0DiscardGraphicsStage@Graphics@@QAE@XZ 00458ea0 f i render_win32.release:graphicsprotocol.obj
 0001:00057ed0       ??_EDiscardGraphicsStage@Graphics@@UAEPAXI@Z 00458ed0 f i  CIL library: CIL module
 0001:00057ed0       ??_GDiscardGraphicsStage@Graphics@@UAEPAXI@Z 00458ed0 f i render_win32.release:graphicsprotocol.obj
 0001:00057f10       ??1DiscardGraphicsStage@Graphics@@UAE@XZ 00458f10 f i render_win32.release:graphicsprotocol.obj
 0001:00057f30       ??2CreateGraphicsView@Graphics@@SAPAXI@Z 00458f30 f i render_win32.release:graphicsprotocol.obj
 0001:00057f40       ??3CreateGraphicsView@Graphics@@SAXPAX@Z 00458f40 f i render_win32.release:graphicsprotocol.obj
 0001:00057f60       ??0CreateGraphicsView@Graphics@@QAE@XZ 00458f60 f i render_win32.release:graphicsprotocol.obj
 0001:00057fe0       ??_GCreateGraphicsView@Graphics@@UAEPAXI@Z 00458fe0 f i render_win32.release:graphicsprotocol.obj
 0001:00057fe0       ??_ECreateGraphicsView@Graphics@@UAEPAXI@Z 00458fe0 f i  CIL library: CIL module
 0001:00058020       ??1CreateGraphicsView@Graphics@@UAE@XZ 00459020 f i render_win32.release:graphicsprotocol.obj
 0001:00058040       ??2DiscardGraphicsView@Graphics@@SAPAXI@Z 00459040 f i render_win32.release:graphicsprotocol.obj
 0001:00058050       ??3DiscardGraphicsView@Graphics@@SAXPAX@Z 00459050 f i render_win32.release:graphicsprotocol.obj
 0001:00058070       ??0DiscardGraphicsView@Graphics@@QAE@XZ 00459070 f i render_win32.release:graphicsprotocol.obj
 0001:000580a0       ??_GDiscardGraphicsView@Graphics@@UAEPAXI@Z 004590a0 f i render_win32.release:graphicsprotocol.obj
 0001:000580a0       ??_EDiscardGraphicsView@Graphics@@UAEPAXI@Z 004590a0 f i  CIL library: CIL module
 0001:000580e0       ??1DiscardGraphicsView@Graphics@@UAE@XZ 004590e0 f i render_win32.release:graphicsprotocol.obj
 0001:00058100       ??2SetDefaultGraphicsView@Graphics@@SAPAXI@Z 00459100 f i render_win32.release:graphicsprotocol.obj
 0001:00058110       ??3SetDefaultGraphicsView@Graphics@@SAXPAX@Z 00459110 f i render_win32.release:graphicsprotocol.obj
 0001:00058130       ??0SetDefaultGraphicsView@Graphics@@QAE@XZ 00459130 f i render_win32.release:graphicsprotocol.obj
 0001:00058160       ??_ESetDefaultGraphicsView@Graphics@@UAEPAXI@Z 00459160 f i  CIL library: CIL module
 0001:00058160       ??_GSetDefaultGraphicsView@Graphics@@UAEPAXI@Z 00459160 f i render_win32.release:graphicsprotocol.obj
 0001:000581a0       ??1SetDefaultGraphicsView@Graphics@@UAE@XZ 004591a0 f i render_win32.release:graphicsprotocol.obj
 0001:000581c0       ??2CreateGraphicsEntity@Graphics@@SAPAXI@Z 004591c0 f i render_win32.release:graphicsprotocol.obj
 0001:000581d0       ??3CreateGraphicsEntity@Graphics@@SAXPAX@Z 004591d0 f i render_win32.release:graphicsprotocol.obj
 0001:000581f0       ??0CreateGraphicsEntity@Graphics@@QAE@XZ 004591f0 f i render_win32.release:graphicsprotocol.obj
 0001:00058300       ??_ECreateGraphicsEntity@Graphics@@UAEPAXI@Z 00459300 f i  CIL library: CIL module
 0001:00058300       ??_GCreateGraphicsEntity@Graphics@@UAEPAXI@Z 00459300 f i render_win32.release:graphicsprotocol.obj
 0001:00058350       ??1CreateGraphicsEntity@Graphics@@UAE@XZ 00459350 f i render_win32.release:graphicsprotocol.obj
 0001:00058380       ??2CreateModelEntity@Graphics@@SAPAXI@Z 00459380 f i render_win32.release:graphicsprotocol.obj
 0001:00058390       ??3CreateModelEntity@Graphics@@SAXPAX@Z 00459390 f i render_win32.release:graphicsprotocol.obj
 0001:000583b0       ??0CreateModelEntity@Graphics@@QAE@XZ 004593b0 f i render_win32.release:graphicsprotocol.obj
 0001:00058510       ??_ECreateModelEntity@Graphics@@UAEPAXI@Z 00459510 f i  CIL library: CIL module
 0001:00058510       ??_GCreateModelEntity@Graphics@@UAEPAXI@Z 00459510 f i render_win32.release:graphicsprotocol.obj
 0001:00058540       ??1CreateModelEntity@Graphics@@UAE@XZ 00459540 f i render_win32.release:graphicsprotocol.obj
 0001:00058580       ??2CreateCameraEntity@Graphics@@SAPAXI@Z 00459580 f i render_win32.release:graphicsprotocol.obj
 0001:00058590       ??3CreateCameraEntity@Graphics@@SAXPAX@Z 00459590 f i render_win32.release:graphicsprotocol.obj
 0001:000585b0       ??0CreateCameraEntity@Graphics@@QAE@XZ 004595b0 f i render_win32.release:graphicsprotocol.obj
 0001:000585f0       ??_GCreateCameraEntity@Graphics@@UAEPAXI@Z 004595f0 f i render_win32.release:graphicsprotocol.obj
 0001:000585f0       ??_ECreateCameraEntity@Graphics@@UAEPAXI@Z 004595f0 f i  CIL library: CIL module
 0001:00058640       ??1CreateCameraEntity@Graphics@@UAE@XZ 00459640 f i render_win32.release:graphicsprotocol.obj
 0001:00058670       ??2CreateGlobalLightEntity@Graphics@@SAPAXI@Z 00459670 f i render_win32.release:graphicsprotocol.obj
 0001:00058680       ??3CreateGlobalLightEntity@Graphics@@SAXPAX@Z 00459680 f i render_win32.release:graphicsprotocol.obj
 0001:000586a0       ??0CreateGlobalLightEntity@Graphics@@QAE@XZ 004596a0 f i render_win32.release:graphicsprotocol.obj
 0001:000586d0       ??_GCreateGlobalLightEntity@Graphics@@UAEPAXI@Z 004596d0 f i render_win32.release:graphicsprotocol.obj
 0001:000586d0       ??_ECreateGlobalLightEntity@Graphics@@UAEPAXI@Z 004596d0 f i  CIL library: CIL module
 0001:00058720       ??1CreateGlobalLightEntity@Graphics@@UAE@XZ 00459720 f i render_win32.release:graphicsprotocol.obj
 0001:00058750       ??2CreateSpotLightEntity@Graphics@@SAPAXI@Z 00459750 f i render_win32.release:graphicsprotocol.obj
 0001:00058760       ??3CreateSpotLightEntity@Graphics@@SAXPAX@Z 00459760 f i render_win32.release:graphicsprotocol.obj
 0001:00058780       ??0CreateSpotLightEntity@Graphics@@QAE@XZ 00459780 f i render_win32.release:graphicsprotocol.obj
 0001:000587b0       ??_GCreateSpotLightEntity@Graphics@@UAEPAXI@Z 004597b0 f i render_win32.release:graphicsprotocol.obj
 0001:000587b0       ??_ECreateSpotLightEntity@Graphics@@UAEPAXI@Z 004597b0 f i  CIL library: CIL module
 0001:00058800       ??1CreateSpotLightEntity@Graphics@@UAE@XZ 00459800 f i render_win32.release:graphicsprotocol.obj
 0001:00058830       ??2CreatePointLightEntity@Graphics@@SAPAXI@Z 00459830 f i render_win32.release:graphicsprotocol.obj
 0001:00058840       ??3CreatePointLightEntity@Graphics@@SAXPAX@Z 00459840 f i render_win32.release:graphicsprotocol.obj
 0001:00058860       ??0CreatePointLightEntity@Graphics@@QAE@XZ 00459860 f i render_win32.release:graphicsprotocol.obj
 0001:00058890       ??_GCreatePointLightEntity@Graphics@@UAEPAXI@Z 00459890 f i render_win32.release:graphicsprotocol.obj
 0001:00058890       ??_ECreatePointLightEntity@Graphics@@UAEPAXI@Z 00459890 f i  CIL library: CIL module
 0001:000588e0       ??1CreatePointLightEntity@Graphics@@UAE@XZ 004598e0 f i render_win32.release:graphicsprotocol.obj
 0001:00058910       ??2GraphicsEntityMessage@Graphics@@SAPAXI@Z 00459910 f i render_win32.release:graphicsprotocol.obj
 0001:00058920       ??3GraphicsEntityMessage@Graphics@@SAXPAX@Z 00459920 f i render_win32.release:graphicsprotocol.obj
 0001:00058940       ??0GraphicsEntityMessage@Graphics@@QAE@XZ 00459940 f i render_win32.release:graphicsprotocol.obj
 0001:00058970       ??_EGraphicsEntityMessage@Graphics@@UAEPAXI@Z 00459970 f i  CIL library: CIL module
 0001:00058970       ??_GGraphicsEntityMessage@Graphics@@UAEPAXI@Z 00459970 f i render_win32.release:graphicsprotocol.obj
 0001:000589b0       ??1GraphicsEntityMessage@Graphics@@UAE@XZ 004599b0 f i render_win32.release:graphicsprotocol.obj
 0001:000589d0       ??2DiscardGraphicsEntity@Graphics@@SAPAXI@Z 004599d0 f i render_win32.release:graphicsprotocol.obj
 0001:000589e0       ??3DiscardGraphicsEntity@Graphics@@SAXPAX@Z 004599e0 f i render_win32.release:graphicsprotocol.obj
 0001:00058a00       ??0DiscardGraphicsEntity@Graphics@@QAE@XZ 00459a00 f i render_win32.release:graphicsprotocol.obj
 0001:00058a40       ??_GDiscardGraphicsEntity@Graphics@@UAEPAXI@Z 00459a40 f i render_win32.release:graphicsprotocol.obj
 0001:00058a40       ??_EDiscardGraphicsEntity@Graphics@@UAEPAXI@Z 00459a40 f i  CIL library: CIL module
 0001:00058a80       ??1DiscardGraphicsEntity@Graphics@@UAE@XZ 00459a80 f i render_win32.release:graphicsprotocol.obj
 0001:00058aa0       ??2AddTrackedCharJoint@Graphics@@SAPAXI@Z 00459aa0 f i render_win32.release:graphicsprotocol.obj
 0001:00058ab0       ??3AddTrackedCharJoint@Graphics@@SAXPAX@Z 00459ab0 f i render_win32.release:graphicsprotocol.obj
 0001:00058ad0       ??0AddTrackedCharJoint@Graphics@@QAE@XZ 00459ad0 f i render_win32.release:graphicsprotocol.obj
 0001:00058b20       ??_EAddTrackedCharJoint@Graphics@@UAEPAXI@Z 00459b20 f i  CIL library: CIL module
 0001:00058b20       ??_GAddTrackedCharJoint@Graphics@@UAEPAXI@Z 00459b20 f i render_win32.release:graphicsprotocol.obj
 0001:00058b60       ??1AddTrackedCharJoint@Graphics@@UAE@XZ 00459b60 f i render_win32.release:graphicsprotocol.obj
 0001:00058b80       ??2SetLightColor@Graphics@@SAPAXI@Z 00459b80 f i render_win32.release:graphicsprotocol.obj
 0001:00058b90       ??3SetLightColor@Graphics@@SAXPAX@Z 00459b90 f i render_win32.release:graphicsprotocol.obj
 0001:00058bb0       ??0SetLightColor@Graphics@@QAE@XZ 00459bb0 f i render_win32.release:graphicsprotocol.obj
 0001:00058bf0       ??_GSetLightColor@Graphics@@UAEPAXI@Z 00459bf0 f i render_win32.release:graphicsprotocol.obj
 0001:00058bf0       ??_ESetLightColor@Graphics@@UAEPAXI@Z 00459bf0 f i  CIL library: CIL module
 0001:00058c30       ??1SetLightColor@Graphics@@UAE@XZ 00459c30 f i render_win32.release:graphicsprotocol.obj
 0001:00058c50       ??2SetLightCastShadows@Graphics@@SAPAXI@Z 00459c50 f i render_win32.release:graphicsprotocol.obj
 0001:00058c60       ??3SetLightCastShadows@Graphics@@SAXPAX@Z 00459c60 f i render_win32.release:graphicsprotocol.obj
 0001:00058c80       ??0SetLightCastShadows@Graphics@@QAE@XZ 00459c80 f i render_win32.release:graphicsprotocol.obj
 0001:00058cc0       ??_GSetLightCastShadows@Graphics@@UAEPAXI@Z 00459cc0 f i render_win32.release:graphicsprotocol.obj
 0001:00058cc0       ??_ESetLightCastShadows@Graphics@@UAEPAXI@Z 00459cc0 f i  CIL library: CIL module
 0001:00058d00       ??1SetLightCastShadows@Graphics@@UAE@XZ 00459d00 f i render_win32.release:graphicsprotocol.obj
 0001:00058d20       ??2SetGlobalBackLightColor@Graphics@@SAPAXI@Z 00459d20 f i render_win32.release:graphicsprotocol.obj
 0001:00058d30       ??3SetGlobalBackLightColor@Graphics@@SAXPAX@Z 00459d30 f i render_win32.release:graphicsprotocol.obj
 0001:00058d50       ??0SetGlobalBackLightColor@Graphics@@QAE@XZ 00459d50 f i render_win32.release:graphicsprotocol.obj
 0001:00058d90       ??_ESetGlobalBackLightColor@Graphics@@UAEPAXI@Z 00459d90 f i  CIL library: CIL module
 0001:00058d90       ??_GSetGlobalBackLightColor@Graphics@@UAEPAXI@Z 00459d90 f i render_win32.release:graphicsprotocol.obj
 0001:00058dd0       ??1SetGlobalBackLightColor@Graphics@@UAE@XZ 00459dd0 f i render_win32.release:graphicsprotocol.obj
 0001:00058df0       ??2SetGlobalAmbientLightColor@Graphics@@SAPAXI@Z 00459df0 f i render_win32.release:graphicsprotocol.obj
 0001:00058e00       ??3SetGlobalAmbientLightColor@Graphics@@SAXPAX@Z 00459e00 f i render_win32.release:graphicsprotocol.obj
 0001:00058e20       ??0SetGlobalAmbientLightColor@Graphics@@QAE@XZ 00459e20 f i render_win32.release:graphicsprotocol.obj
 0001:00058e60       ??_ESetGlobalAmbientLightColor@Graphics@@UAEPAXI@Z 00459e60 f i  CIL library: CIL module
 0001:00058e60       ??_GSetGlobalAmbientLightColor@Graphics@@UAEPAXI@Z 00459e60 f i render_win32.release:graphicsprotocol.obj
 0001:00058ea0       ??1SetGlobalAmbientLightColor@Graphics@@UAE@XZ 00459ea0 f i render_win32.release:graphicsprotocol.obj
 0001:00058ec0       ??2SetGlobalBackLightOffset@Graphics@@SAPAXI@Z 00459ec0 f i render_win32.release:graphicsprotocol.obj
 0001:00058ed0       ??3SetGlobalBackLightOffset@Graphics@@SAXPAX@Z 00459ed0 f i render_win32.release:graphicsprotocol.obj
 0001:00058ef0       ??0SetGlobalBackLightOffset@Graphics@@QAE@XZ 00459ef0 f i render_win32.release:graphicsprotocol.obj
 0001:00058f30       ??_GSetGlobalBackLightOffset@Graphics@@UAEPAXI@Z 00459f30 f i render_win32.release:graphicsprotocol.obj
 0001:00058f30       ??_ESetGlobalBackLightOffset@Graphics@@UAEPAXI@Z 00459f30 f i  CIL library: CIL module
 0001:00058f70       ??1SetGlobalBackLightOffset@Graphics@@UAE@XZ 00459f70 f i render_win32.release:graphicsprotocol.obj
 0001:00058f90       ??2SetGlobalLightParams@Graphics@@SAPAXI@Z 00459f90 f i render_win32.release:graphicsprotocol.obj
 0001:00058fa0       ??3SetGlobalLightParams@Graphics@@SAXPAX@Z 00459fa0 f i render_win32.release:graphicsprotocol.obj
 0001:00058fc0       ??0SetGlobalLightParams@Graphics@@QAE@XZ 00459fc0 f i render_win32.release:graphicsprotocol.obj
 0001:00059000       ??_ESetGlobalLightParams@Graphics@@UAEPAXI@Z 0045a000 f i  CIL library: CIL module
 0001:00059000       ??_GSetGlobalLightParams@Graphics@@UAEPAXI@Z 0045a000 f i render_win32.release:graphicsprotocol.obj
 0001:00059040       ??1SetGlobalLightParams@Graphics@@UAE@XZ 0045a040 f i render_win32.release:graphicsprotocol.obj
 0001:00059060       ??2SetGlobalLightColor@Graphics@@SAPAXI@Z 0045a060 f i render_win32.release:graphicsprotocol.obj
 0001:00059070       ??3SetGlobalLightColor@Graphics@@SAXPAX@Z 0045a070 f i render_win32.release:graphicsprotocol.obj
 0001:00059090       ??0SetGlobalLightColor@Graphics@@QAE@XZ 0045a090 f i render_win32.release:graphicsprotocol.obj
 0001:000590d0       ??_GSetGlobalLightColor@Graphics@@UAEPAXI@Z 0045a0d0 f i render_win32.release:graphicsprotocol.obj
 0001:000590d0       ??_ESetGlobalLightColor@Graphics@@UAEPAXI@Z 0045a0d0 f i  CIL library: CIL module
 0001:00059110       ??1SetGlobalLightColor@Graphics@@UAE@XZ 0045a110 f i render_win32.release:graphicsprotocol.obj
 0001:00059130       ??2UpdateTransform@Graphics@@SAPAXI@Z 0045a130 f i render_win32.release:graphicsprotocol.obj
 0001:00059140       ??3UpdateTransform@Graphics@@SAXPAX@Z 0045a140 f i render_win32.release:graphicsprotocol.obj
 0001:00059160       ??0UpdateTransform@Graphics@@QAE@XZ 0045a160 f i render_win32.release:graphicsprotocol.obj
 0001:00059240       ??_GUpdateTransform@Graphics@@UAEPAXI@Z 0045a240 f i render_win32.release:graphicsprotocol.obj
 0001:00059240       ??_EUpdateTransform@Graphics@@UAEPAXI@Z 0045a240 f i  CIL library: CIL module
 0001:00059280       ??1UpdateTransform@Graphics@@UAE@XZ 0045a280 f i render_win32.release:graphicsprotocol.obj
 0001:000592a0       ??2SetVisibility@Graphics@@SAPAXI@Z 0045a2a0 f i render_win32.release:graphicsprotocol.obj
 0001:000592b0       ??3SetVisibility@Graphics@@SAXPAX@Z 0045a2b0 f i render_win32.release:graphicsprotocol.obj
 0001:000592d0       ??0SetVisibility@Graphics@@QAE@XZ 0045a2d0 f i render_win32.release:graphicsprotocol.obj
 0001:00059310       ??_ESetVisibility@Graphics@@UAEPAXI@Z 0045a310 f i  CIL library: CIL module
 0001:00059310       ??_GSetVisibility@Graphics@@UAEPAXI@Z 0045a310 f i render_win32.release:graphicsprotocol.obj
 0001:00059350       ??1SetVisibility@Graphics@@UAE@XZ 0045a350 f i render_win32.release:graphicsprotocol.obj
 0001:00059370       ??2AttachCameraToView@Graphics@@SAPAXI@Z 0045a370 f i render_win32.release:graphicsprotocol.obj
 0001:00059380       ??3AttachCameraToView@Graphics@@SAXPAX@Z 0045a380 f i render_win32.release:graphicsprotocol.obj
 0001:000593a0       ??0AttachCameraToView@Graphics@@QAE@XZ 0045a3a0 f i render_win32.release:graphicsprotocol.obj
 0001:000593f0       ??_EAttachCameraToView@Graphics@@UAEPAXI@Z 0045a3f0 f i  CIL library: CIL module
 0001:000593f0       ??_GAttachCameraToView@Graphics@@UAEPAXI@Z 0045a3f0 f i render_win32.release:graphicsprotocol.obj
 0001:00059430       ??1AttachCameraToView@Graphics@@UAE@XZ 0045a430 f i render_win32.release:graphicsprotocol.obj
 0001:00059450       ??2RemoveCameraFromView@Graphics@@SAPAXI@Z 0045a450 f i render_win32.release:graphicsprotocol.obj
 0001:00059460       ??3RemoveCameraFromView@Graphics@@SAXPAX@Z 0045a460 f i render_win32.release:graphicsprotocol.obj
 0001:00059480       ??0RemoveCameraFromView@Graphics@@QAE@XZ 0045a480 f i render_win32.release:graphicsprotocol.obj
 0001:000594d0       ??_GRemoveCameraFromView@Graphics@@UAEPAXI@Z 0045a4d0 f i render_win32.release:graphicsprotocol.obj
 0001:000594d0       ??_ERemoveCameraFromView@Graphics@@UAEPAXI@Z 0045a4d0 f i  CIL library: CIL module
 0001:00059510       ??1RemoveCameraFromView@Graphics@@UAE@XZ 0045a510 f i render_win32.release:graphicsprotocol.obj
 0001:00059530       ??2UpdModelNodeInstanceShaderVariable@Graphics@@SAPAXI@Z 0045a530 f i render_win32.release:graphicsprotocol.obj
 0001:00059540       ??3UpdModelNodeInstanceShaderVariable@Graphics@@SAXPAX@Z 0045a540 f i render_win32.release:graphicsprotocol.obj
 0001:00059560       ??0UpdModelNodeInstanceShaderVariable@Graphics@@QAE@XZ 0045a560 f i render_win32.release:graphicsprotocol.obj
 0001:000595e0       ??_GUpdModelNodeInstanceShaderVariable@Graphics@@UAEPAXI@Z 0045a5e0 f i render_win32.release:graphicsprotocol.obj
 0001:000595e0       ??_EUpdModelNodeInstanceShaderVariable@Graphics@@UAEPAXI@Z 0045a5e0 f i  CIL library: CIL module
 0001:00059630       ??1UpdModelNodeInstanceShaderVariable@Graphics@@UAE@XZ 0045a630 f i render_win32.release:graphicsprotocol.obj
 0001:00059660       ??2UpdModelNodeInstanceVisibility@Graphics@@SAPAXI@Z 0045a660 f i render_win32.release:graphicsprotocol.obj
 0001:00059670       ??3UpdModelNodeInstanceVisibility@Graphics@@SAXPAX@Z 0045a670 f i render_win32.release:graphicsprotocol.obj
 0001:00059690       ??0UpdModelNodeInstanceVisibility@Graphics@@QAE@XZ 0045a690 f i render_win32.release:graphicsprotocol.obj
 0001:000596e0       ??_GUpdModelNodeInstanceVisibility@Graphics@@UAEPAXI@Z 0045a6e0 f i render_win32.release:graphicsprotocol.obj
 0001:000596e0       ??_EUpdModelNodeInstanceVisibility@Graphics@@UAEPAXI@Z 0045a6e0 f i  CIL library: CIL module
 0001:00059720       ??1UpdModelNodeInstanceVisibility@Graphics@@UAE@XZ 0045a720 f i render_win32.release:graphicsprotocol.obj
 0001:00059740       ??2UpdateSharedShaderVariable@Graphics@@SAPAXI@Z 0045a740 f i render_win32.release:graphicsprotocol.obj
 0001:00059750       ??3UpdateSharedShaderVariable@Graphics@@SAXPAX@Z 0045a750 f i render_win32.release:graphicsprotocol.obj
 0001:00059770       ??0UpdateSharedShaderVariable@Graphics@@QAE@XZ 0045a770 f i render_win32.release:graphicsprotocol.obj
 0001:000597c0       ??_EUpdateSharedShaderVariable@Graphics@@UAEPAXI@Z 0045a7c0 f i  CIL library: CIL module
 0001:000597c0       ??_GUpdateSharedShaderVariable@Graphics@@UAEPAXI@Z 0045a7c0 f i render_win32.release:graphicsprotocol.obj
 0001:00059800       ??1UpdateSharedShaderVariable@Graphics@@UAE@XZ 0045a800 f i render_win32.release:graphicsprotocol.obj
 0001:00059820       ??2AnimPlayClip@Graphics@@SAPAXI@Z 0045a820 f i render_win32.release:graphicsprotocol.obj
 0001:00059830       ??3AnimPlayClip@Graphics@@SAXPAX@Z 0045a830 f i render_win32.release:graphicsprotocol.obj
 0001:00059850       ??0AnimPlayClip@Graphics@@QAE@XZ 0045a850 f i render_win32.release:graphicsprotocol.obj
 0001:00059900       ??_EAnimPlayClip@Graphics@@UAEPAXI@Z 0045a900 f i  CIL library: CIL module
 0001:00059900       ??_GAnimPlayClip@Graphics@@UAEPAXI@Z 0045a900 f i render_win32.release:graphicsprotocol.obj
 0001:00059940       ??1AnimPlayClip@Graphics@@UAE@XZ 0045a940 f i render_win32.release:graphicsprotocol.obj
 0001:00059960       ??2AnimStopTrack@Graphics@@SAPAXI@Z 0045a960 f i render_win32.release:graphicsprotocol.obj
 0001:00059970       ??3AnimStopTrack@Graphics@@SAXPAX@Z 0045a970 f i render_win32.release:graphicsprotocol.obj
 0001:00059990       ??0AnimStopTrack@Graphics@@QAE@XZ 0045a990 f i render_win32.release:graphicsprotocol.obj
 0001:000599e0       ??_GAnimStopTrack@Graphics@@UAEPAXI@Z 0045a9e0 f i render_win32.release:graphicsprotocol.obj
 0001:000599e0       ??_EAnimStopTrack@Graphics@@UAEPAXI@Z 0045a9e0 f i  CIL library: CIL module
 0001:00059a20       ??1AnimStopTrack@Graphics@@UAE@XZ 0045aa20 f i render_win32.release:graphicsprotocol.obj
 0001:00059a40       ??2AnimStopAllTracks@Graphics@@SAPAXI@Z 0045aa40 f i render_win32.release:graphicsprotocol.obj
 0001:00059a50       ??3AnimStopAllTracks@Graphics@@SAXPAX@Z 0045aa50 f i render_win32.release:graphicsprotocol.obj
 0001:00059a70       ??0AnimStopAllTracks@Graphics@@QAE@XZ 0045aa70 f i render_win32.release:graphicsprotocol.obj
 0001:00059ab0       ??_GAnimStopAllTracks@Graphics@@UAEPAXI@Z 0045aab0 f i render_win32.release:graphicsprotocol.obj
 0001:00059ab0       ??_EAnimStopAllTracks@Graphics@@UAEPAXI@Z 0045aab0 f i  CIL library: CIL module
 0001:00059af0       ??1AnimStopAllTracks@Graphics@@UAE@XZ 0045aaf0 f i render_win32.release:graphicsprotocol.obj
 0001:00059b10       ??2AnimModifyBlendWeight@Graphics@@SAPAXI@Z 0045ab10 f i render_win32.release:graphicsprotocol.obj
 0001:00059b20       ??3AnimModifyBlendWeight@Graphics@@SAXPAX@Z 0045ab20 f i render_win32.release:graphicsprotocol.obj
 0001:00059b40       ??0AnimModifyBlendWeight@Graphics@@QAE@XZ 0045ab40 f i render_win32.release:graphicsprotocol.obj
 0001:00059b90       ??_GAnimModifyBlendWeight@Graphics@@UAEPAXI@Z 0045ab90 f i render_win32.release:graphicsprotocol.obj
 0001:00059b90       ??_EAnimModifyBlendWeight@Graphics@@UAEPAXI@Z 0045ab90 f i  CIL library: CIL module
 0001:00059bd0       ??1AnimModifyBlendWeight@Graphics@@UAE@XZ 0045abd0 f i render_win32.release:graphicsprotocol.obj
 0001:00059bf0       ??2AnimModifyTimeFactor@Graphics@@SAPAXI@Z 0045abf0 f i render_win32.release:graphicsprotocol.obj
 0001:00059c00       ??3AnimModifyTimeFactor@Graphics@@SAXPAX@Z 0045ac00 f i render_win32.release:graphicsprotocol.obj
 0001:00059c20       ??0AnimModifyTimeFactor@Graphics@@QAE@XZ 0045ac20 f i render_win32.release:graphicsprotocol.obj
 0001:00059c70       ??_GAnimModifyTimeFactor@Graphics@@UAEPAXI@Z 0045ac70 f i render_win32.release:graphicsprotocol.obj
 0001:00059c70       ??_EAnimModifyTimeFactor@Graphics@@UAEPAXI@Z 0045ac70 f i  CIL library: CIL module
 0001:00059cb0       ??1AnimModifyTimeFactor@Graphics@@UAE@XZ 0045acb0 f i render_win32.release:graphicsprotocol.obj
 0001:00059cd0       ??2AnimIsClipPlaying@Graphics@@SAPAXI@Z 0045acd0 f i render_win32.release:graphicsprotocol.obj
 0001:00059ce0       ??3AnimIsClipPlaying@Graphics@@SAXPAX@Z 0045ace0 f i render_win32.release:graphicsprotocol.obj
 0001:00059d00       ??0AnimIsClipPlaying@Graphics@@QAE@XZ 0045ad00 f i render_win32.release:graphicsprotocol.obj
 0001:00059d50       ??_EAnimIsClipPlaying@Graphics@@UAEPAXI@Z 0045ad50 f i  CIL library: CIL module
 0001:00059d50       ??_GAnimIsClipPlaying@Graphics@@UAEPAXI@Z 0045ad50 f i render_win32.release:graphicsprotocol.obj
 0001:00059d90       ??1AnimIsClipPlaying@Graphics@@UAE@XZ 0045ad90 f i render_win32.release:graphicsprotocol.obj
 0001:00059db0       ??2ApplySkinList@Graphics@@SAPAXI@Z 0045adb0 f i render_win32.release:graphicsprotocol.obj
 0001:00059dc0       ??3ApplySkinList@Graphics@@SAXPAX@Z 0045adc0 f i render_win32.release:graphicsprotocol.obj
 0001:00059de0       ??0ApplySkinList@Graphics@@QAE@XZ 0045ade0 f i render_win32.release:graphicsprotocol.obj
 0001:00059e30       ??_GApplySkinList@Graphics@@UAEPAXI@Z 0045ae30 f i render_win32.release:graphicsprotocol.obj
 0001:00059e30       ??_EApplySkinList@Graphics@@UAEPAXI@Z 0045ae30 f i  CIL library: CIL module
 0001:00059e70       ??1ApplySkinList@Graphics@@UAE@XZ 0045ae70 f i render_win32.release:graphicsprotocol.obj
 0001:00059e90       ??2ShowSkin@Graphics@@SAPAXI@Z 0045ae90 f i render_win32.release:graphicsprotocol.obj
 0001:00059ea0       ??3ShowSkin@Graphics@@SAXPAX@Z 0045aea0 f i render_win32.release:graphicsprotocol.obj
 0001:00059ec0       ??0ShowSkin@Graphics@@QAE@XZ 0045aec0 f i render_win32.release:graphicsprotocol.obj
 0001:00059f10       ??_GShowSkin@Graphics@@UAEPAXI@Z 0045af10 f i render_win32.release:graphicsprotocol.obj
 0001:00059f10       ??_EShowSkin@Graphics@@UAEPAXI@Z 0045af10 f i  CIL library: CIL module
 0001:00059f50       ??1ShowSkin@Graphics@@UAE@XZ 0045af50 f i render_win32.release:graphicsprotocol.obj
 0001:00059f70       ??2HideSkin@Graphics@@SAPAXI@Z 0045af70 f i render_win32.release:graphicsprotocol.obj
 0001:00059f80       ??3HideSkin@Graphics@@SAXPAX@Z 0045af80 f i render_win32.release:graphicsprotocol.obj
 0001:00059fa0       ??0HideSkin@Graphics@@QAE@XZ 0045afa0 f i render_win32.release:graphicsprotocol.obj
 0001:00059ff0       ??_EHideSkin@Graphics@@UAEPAXI@Z 0045aff0 f i  CIL library: CIL module
 0001:00059ff0       ??_GHideSkin@Graphics@@UAEPAXI@Z 0045aff0 f i render_win32.release:graphicsprotocol.obj
 0001:0005a030       ??1HideSkin@Graphics@@UAE@XZ 0045b030 f i render_win32.release:graphicsprotocol.obj
 0001:0005a050       ??2SetVariation@Graphics@@SAPAXI@Z 0045b050 f i render_win32.release:graphicsprotocol.obj
 0001:0005a060       ??3SetVariation@Graphics@@SAXPAX@Z 0045b060 f i render_win32.release:graphicsprotocol.obj
 0001:0005a080       ??0SetVariation@Graphics@@QAE@XZ 0045b080 f i render_win32.release:graphicsprotocol.obj
 0001:0005a0d0       ??_ESetVariation@Graphics@@UAEPAXI@Z 0045b0d0 f i  CIL library: CIL module
 0001:0005a0d0       ??_GSetVariation@Graphics@@UAEPAXI@Z 0045b0d0 f i render_win32.release:graphicsprotocol.obj
 0001:0005a110       ??1SetVariation@Graphics@@UAE@XZ 0045b110 f i render_win32.release:graphicsprotocol.obj
 0001:0005a130       ??2SetTimeFactor@Graphics@@SAPAXI@Z 0045b130 f i render_win32.release:graphicsprotocol.obj
 0001:0005a140       ??3SetTimeFactor@Graphics@@SAXPAX@Z 0045b140 f i render_win32.release:graphicsprotocol.obj
 0001:0005a160       ??0SetTimeFactor@Graphics@@QAE@XZ 0045b160 f i render_win32.release:graphicsprotocol.obj
 0001:0005a180       ??_ESetTimeFactor@Graphics@@UAEPAXI@Z 0045b180 f i  CIL library: CIL module
 0001:0005a180       ??_GSetTimeFactor@Graphics@@UAEPAXI@Z 0045b180 f i render_win32.release:graphicsprotocol.obj
 0001:0005a1b0       ??1SetTimeFactor@Graphics@@UAE@XZ 0045b1b0 f i render_win32.release:graphicsprotocol.obj
 0001:0005a1d0       ??2UnbindAttachment@Graphics@@SAPAXI@Z 0045b1d0 f i render_win32.release:graphicsprotocol.obj
 0001:0005a1e0       ??3UnbindAttachment@Graphics@@SAXPAX@Z 0045b1e0 f i render_win32.release:graphicsprotocol.obj
 0001:0005a200       ??0UnbindAttachment@Graphics@@QAE@XZ 0045b200 f i render_win32.release:graphicsprotocol.obj
 0001:0005a260       ??_GUnbindAttachment@Graphics@@UAEPAXI@Z 0045b260 f i render_win32.release:graphicsprotocol.obj
 0001:0005a260       ??_EUnbindAttachment@Graphics@@UAEPAXI@Z 0045b260 f i  CIL library: CIL module
 0001:0005a2b0       ??1UnbindAttachment@Graphics@@UAE@XZ 0045b2b0 f i render_win32.release:graphicsprotocol.obj
 0001:0005a2e0       ??2BindAttachment@Graphics@@SAPAXI@Z 0045b2e0 f i render_win32.release:graphicsprotocol.obj
 0001:0005a2f0       ??3BindAttachment@Graphics@@SAXPAX@Z 0045b2f0 f i render_win32.release:graphicsprotocol.obj
 0001:0005a310       ??0BindAttachment@Graphics@@QAE@XZ 0045b310 f i render_win32.release:graphicsprotocol.obj
 0001:0005a3d0       ??_EBindAttachment@Graphics@@UAEPAXI@Z 0045b3d0 f i  CIL library: CIL module
 0001:0005a3d0       ??_GBindAttachment@Graphics@@UAEPAXI@Z 0045b3d0 f i render_win32.release:graphicsprotocol.obj
 0001:0005a420       ??1BindAttachment@Graphics@@UAE@XZ 0045b420 f i render_win32.release:graphicsprotocol.obj
 0001:0005a450       ??2SwitchAttachmentToNewJoint@Graphics@@SAPAXI@Z 0045b450 f i render_win32.release:graphicsprotocol.obj
 0001:0005a460       ??3SwitchAttachmentToNewJoint@Graphics@@SAXPAX@Z 0045b460 f i render_win32.release:graphicsprotocol.obj
 0001:0005a480       ??0SwitchAttachmentToNewJoint@Graphics@@QAE@XZ 0045b480 f i render_win32.release:graphicsprotocol.obj
 0001:0005a4d0       ??_GSwitchAttachmentToNewJoint@Graphics@@UAEPAXI@Z 0045b4d0 f i render_win32.release:graphicsprotocol.obj
 0001:0005a4d0       ??_ESwitchAttachmentToNewJoint@Graphics@@UAEPAXI@Z 0045b4d0 f i  CIL library: CIL module
 0001:0005a520       ??1SwitchAttachmentToNewJoint@Graphics@@UAE@XZ 0045b520 f i render_win32.release:graphicsprotocol.obj
 0001:0005a550       ??2BaseAnimEventMessage@Graphics@@SAPAXI@Z 0045b550 f i render_win32.release:graphicsprotocol.obj
 0001:0005a560       ??3BaseAnimEventMessage@Graphics@@SAXPAX@Z 0045b560 f i render_win32.release:graphicsprotocol.obj
 0001:0005a580       ??0BaseAnimEventMessage@Graphics@@QAE@XZ 0045b580 f i render_win32.release:graphicsprotocol.obj
 0001:0005a5c0       ??_GBaseAnimEventMessage@Graphics@@UAEPAXI@Z 0045b5c0 f i render_win32.release:graphicsprotocol.obj
 0001:0005a5c0       ??_EBaseAnimEventMessage@Graphics@@UAEPAXI@Z 0045b5c0 f i  CIL library: CIL module
 0001:0005a600       ??1BaseAnimEventMessage@Graphics@@UAE@XZ 0045b600 f i render_win32.release:graphicsprotocol.obj
 0001:0005a620       ??2RegisterAnimEventHandler@Graphics@@SAPAXI@Z 0045b620 f i render_win32.release:graphicsprotocol.obj
 0001:0005a630       ??3RegisterAnimEventHandler@Graphics@@SAXPAX@Z 0045b630 f i render_win32.release:graphicsprotocol.obj
 0001:0005a650       ??0RegisterAnimEventHandler@Graphics@@QAE@XZ 0045b650 f i render_win32.release:graphicsprotocol.obj
 0001:0005a680       ??_ERegisterAnimEventHandler@Graphics@@UAEPAXI@Z 0045b680 f i  CIL library: CIL module
 0001:0005a680       ??_GRegisterAnimEventHandler@Graphics@@UAEPAXI@Z 0045b680 f i render_win32.release:graphicsprotocol.obj
 0001:0005a6c0       ??1RegisterAnimEventHandler@Graphics@@UAE@XZ 0045b6c0 f i render_win32.release:graphicsprotocol.obj
 0001:0005a6e0       ??2UnregisterAnimEventHandler@Graphics@@SAPAXI@Z 0045b6e0 f i render_win32.release:graphicsprotocol.obj
 0001:0005a6f0       ??3UnregisterAnimEventHandler@Graphics@@SAXPAX@Z 0045b6f0 f i render_win32.release:graphicsprotocol.obj
 0001:0005a710       ??0UnregisterAnimEventHandler@Graphics@@QAE@XZ 0045b710 f i render_win32.release:graphicsprotocol.obj
 0001:0005a750       ??_GUnregisterAnimEventHandler@Graphics@@UAEPAXI@Z 0045b750 f i render_win32.release:graphicsprotocol.obj
 0001:0005a750       ??_EUnregisterAnimEventHandler@Graphics@@UAEPAXI@Z 0045b750 f i  CIL library: CIL module
 0001:0005a780       ??1UnregisterAnimEventHandler@Graphics@@UAE@XZ 0045b780 f i render_win32.release:graphicsprotocol.obj
 0001:0005a7a0       ??2PreloadMousePointerTextures@Graphics@@SAPAXI@Z 0045b7a0 f i render_win32.release:graphicsprotocol.obj
 0001:0005a7b0       ??3PreloadMousePointerTextures@Graphics@@SAXPAX@Z 0045b7b0 f i render_win32.release:graphicsprotocol.obj
 0001:0005a7d0       ??0PreloadMousePointerTextures@Graphics@@QAE@XZ 0045b7d0 f i render_win32.release:graphicsprotocol.obj
 0001:0005a800       ??_EPreloadMousePointerTextures@Graphics@@UAEPAXI@Z 0045b800 f i  CIL library: CIL module
 0001:0005a800       ??_GPreloadMousePointerTextures@Graphics@@UAEPAXI@Z 0045b800 f i render_win32.release:graphicsprotocol.obj
 0001:0005a840       ??1PreloadMousePointerTextures@Graphics@@UAE@XZ 0045b840 f i render_win32.release:graphicsprotocol.obj
 0001:0005a860       ??2UpdateMousePointers@Graphics@@SAPAXI@Z 0045b860 f i render_win32.release:graphicsprotocol.obj
 0001:0005a870       ??3UpdateMousePointers@Graphics@@SAXPAX@Z 0045b870 f i render_win32.release:graphicsprotocol.obj
 0001:0005a890       ??0UpdateMousePointers@Graphics@@QAE@XZ 0045b890 f i render_win32.release:graphicsprotocol.obj
 0001:0005a8c0       ??_EUpdateMousePointers@Graphics@@UAEPAXI@Z 0045b8c0 f i  CIL library: CIL module
 0001:0005a8c0       ??_GUpdateMousePointers@Graphics@@UAEPAXI@Z 0045b8c0 f i render_win32.release:graphicsprotocol.obj
 0001:0005a900       ??1UpdateMousePointers@Graphics@@UAE@XZ 0045b900 f i render_win32.release:graphicsprotocol.obj
 0001:0005a920       ??2HoldSharedResources@Graphics@@SAPAXI@Z 0045b920 f i render_win32.release:graphicsprotocol.obj
 0001:0005a930       ??3HoldSharedResources@Graphics@@SAXPAX@Z 0045b930 f i render_win32.release:graphicsprotocol.obj
 0001:0005a950       ??0HoldSharedResources@Graphics@@QAE@XZ 0045b950 f i render_win32.release:graphicsprotocol.obj
 0001:0005a970       ??_EHoldSharedResources@Graphics@@UAEPAXI@Z 0045b970 f i  CIL library: CIL module
 0001:0005a970       ??_GHoldSharedResources@Graphics@@UAEPAXI@Z 0045b970 f i render_win32.release:graphicsprotocol.obj
 0001:0005a9a0       ??1HoldSharedResources@Graphics@@UAE@XZ 0045b9a0 f i render_win32.release:graphicsprotocol.obj
 0001:0005a9c0       ??2ReleaseSharedResources@Graphics@@SAPAXI@Z 0045b9c0 f i render_win32.release:graphicsprotocol.obj
 0001:0005a9d0       ??3ReleaseSharedResources@Graphics@@SAXPAX@Z 0045b9d0 f i render_win32.release:graphicsprotocol.obj
 0001:0005a9f0       ??0ReleaseSharedResources@Graphics@@QAE@XZ 0045b9f0 f i render_win32.release:graphicsprotocol.obj
 0001:0005aa10       ??_EReleaseSharedResources@Graphics@@UAEPAXI@Z 0045ba10 f i  CIL library: CIL module
 0001:0005aa10       ??_GReleaseSharedResources@Graphics@@UAEPAXI@Z 0045ba10 f i render_win32.release:graphicsprotocol.obj
 0001:0005aa40       ??1ReleaseSharedResources@Graphics@@UAE@XZ 0045ba40 f i render_win32.release:graphicsprotocol.obj
 0001:0005aa60       ??2SetAnimatorTime@Graphics@@SAPAXI@Z 0045ba60 f i render_win32.release:graphicsprotocol.obj
 0001:0005aa70       ??3SetAnimatorTime@Graphics@@SAXPAX@Z 0045ba70 f i render_win32.release:graphicsprotocol.obj
 0001:0005aa90       ??0SetAnimatorTime@Graphics@@QAE@XZ 0045ba90 f i render_win32.release:graphicsprotocol.obj
 0001:0005aae0       ??_GSetAnimatorTime@Graphics@@UAEPAXI@Z 0045bae0 f i render_win32.release:graphicsprotocol.obj
 0001:0005aae0       ??_ESetAnimatorTime@Graphics@@UAEPAXI@Z 0045bae0 f i  CIL library: CIL module
 0001:0005ab20       ??1SetAnimatorTime@Graphics@@UAE@XZ 0045bb20 f i render_win32.release:graphicsprotocol.obj
 0001:0005ab40       ??2UpdateCameraEntity@Graphics@@SAPAXI@Z 0045bb40 f i render_win32.release:graphicsprotocol.obj
 0001:0005ab50       ??3UpdateCameraEntity@Graphics@@SAXPAX@Z 0045bb50 f i render_win32.release:graphicsprotocol.obj
 0001:0005ab70       ??0UpdateCameraEntity@Graphics@@QAE@XZ 0045bb70 f i render_win32.release:graphicsprotocol.obj
 0001:0005abb0       ??_EUpdateCameraEntity@Graphics@@UAEPAXI@Z 0045bbb0 f i  CIL library: CIL module
 0001:0005abb0       ??_GUpdateCameraEntity@Graphics@@UAEPAXI@Z 0045bbb0 f i render_win32.release:graphicsprotocol.obj
 0001:0005abf0       ??1UpdateCameraEntity@Graphics@@UAE@XZ 0045bbf0 f i render_win32.release:graphicsprotocol.obj
 0001:0005ac10       ??2SetShadowPointOfInterest@Graphics@@SAPAXI@Z 0045bc10 f i render_win32.release:graphicsprotocol.obj
 0001:0005ac20       ??3SetShadowPointOfInterest@Graphics@@SAXPAX@Z 0045bc20 f i render_win32.release:graphicsprotocol.obj
 0001:0005ac40       ??0SetShadowPointOfInterest@Graphics@@QAE@XZ 0045bc40 f i render_win32.release:graphicsprotocol.obj
 0001:0005acf0       ??_GSetShadowPointOfInterest@Graphics@@UAEPAXI@Z 0045bcf0 f i render_win32.release:graphicsprotocol.obj
 0001:0005acf0       ??_ESetShadowPointOfInterest@Graphics@@UAEPAXI@Z 0045bcf0 f i  CIL library: CIL module
 0001:0005ad20       ??1SetShadowPointOfInterest@Graphics@@UAE@XZ 0045bd20 f i render_win32.release:graphicsprotocol.obj
 0001:0005ad40       ?GetRtti@RegisterRTPlugin@Graphics@@UBEPAVRtti@Core@@XZ 0045bd40 f   render_win32.release:graphicsprotocol.obj
 0001:0005ad50       ?FactoryCreator@RegisterRTPlugin@Graphics@@SAPAVRefCounted@Core@@XZ 0045bd50 f   render_win32.release:graphicsprotocol.obj
 0001:0005ad60       ?Create@RegisterRTPlugin@Graphics@@SAPAV12@XZ 0045bd60 f   render_win32.release:graphicsprotocol.obj
 0001:0005ada0       ?RegisterWithFactory@RegisterRTPlugin@Graphics@@SA_NXZ 0045bda0 f   render_win32.release:graphicsprotocol.obj
 0001:0005aea0       ?GetId@RegisterRTPlugin@Graphics@@UBEABVId@Messaging@@XZ 0045bea0 f   render_win32.release:graphicsprotocol.obj
 0001:0005aeb0       ?GetRtti@UnregisterRTPlugin@Graphics@@UBEPAVRtti@Core@@XZ 0045beb0 f   render_win32.release:graphicsprotocol.obj
 0001:0005aec0       ?FactoryCreator@UnregisterRTPlugin@Graphics@@SAPAVRefCounted@Core@@XZ 0045bec0 f   render_win32.release:graphicsprotocol.obj
 0001:0005aed0       ?Create@UnregisterRTPlugin@Graphics@@SAPAV12@XZ 0045bed0 f   render_win32.release:graphicsprotocol.obj
 0001:0005af10       ?RegisterWithFactory@UnregisterRTPlugin@Graphics@@SA_NXZ 0045bf10 f   render_win32.release:graphicsprotocol.obj
 0001:0005b010       ?GetId@UnregisterRTPlugin@Graphics@@UBEABVId@Messaging@@XZ 0045c010 f   render_win32.release:graphicsprotocol.obj
 0001:0005b020       ?GetRtti@SetupGraphics@Graphics@@UBEPAVRtti@Core@@XZ 0045c020 f   render_win32.release:graphicsprotocol.obj
 0001:0005b030       ?FactoryCreator@SetupGraphics@Graphics@@SAPAVRefCounted@Core@@XZ 0045c030 f   render_win32.release:graphicsprotocol.obj
 0001:0005b040       ?Create@SetupGraphics@Graphics@@SAPAV12@XZ 0045c040 f   render_win32.release:graphicsprotocol.obj
 0001:0005b080       ?RegisterWithFactory@SetupGraphics@Graphics@@SA_NXZ 0045c080 f   render_win32.release:graphicsprotocol.obj
 0001:0005b180       ?GetId@SetupGraphics@Graphics@@UBEABVId@Messaging@@XZ 0045c180 f   render_win32.release:graphicsprotocol.obj
 0001:0005b190       ?GetRtti@AdapterExists@Graphics@@UBEPAVRtti@Core@@XZ 0045c190 f   render_win32.release:graphicsprotocol.obj
 0001:0005b1a0       ?FactoryCreator@AdapterExists@Graphics@@SAPAVRefCounted@Core@@XZ 0045c1a0 f   render_win32.release:graphicsprotocol.obj
 0001:0005b1b0       ?Create@AdapterExists@Graphics@@SAPAV12@XZ 0045c1b0 f   render_win32.release:graphicsprotocol.obj
 0001:0005b1f0       ?RegisterWithFactory@AdapterExists@Graphics@@SA_NXZ 0045c1f0 f   render_win32.release:graphicsprotocol.obj
 0001:0005b2f0       ?GetId@AdapterExists@Graphics@@UBEABVId@Messaging@@XZ 0045c2f0 f   render_win32.release:graphicsprotocol.obj
 0001:0005b300       ?GetRtti@GetAvailableDisplayModes@Graphics@@UBEPAVRtti@Core@@XZ 0045c300 f   render_win32.release:graphicsprotocol.obj
 0001:0005b310       ?FactoryCreator@GetAvailableDisplayModes@Graphics@@SAPAVRefCounted@Core@@XZ 0045c310 f   render_win32.release:graphicsprotocol.obj
 0001:0005b320       ?Create@GetAvailableDisplayModes@Graphics@@SAPAV12@XZ 0045c320 f   render_win32.release:graphicsprotocol.obj
 0001:0005b370       ?RegisterWithFactory@GetAvailableDisplayModes@Graphics@@SA_NXZ 0045c370 f   render_win32.release:graphicsprotocol.obj
 0001:0005b470       ?GetId@GetAvailableDisplayModes@Graphics@@UBEABVId@Messaging@@XZ 0045c470 f   render_win32.release:graphicsprotocol.obj
 0001:0005b480       ?GetRtti@SupportsDisplayMode@Graphics@@UBEPAVRtti@Core@@XZ 0045c480 f   render_win32.release:graphicsprotocol.obj
 0001:0005b490       ?FactoryCreator@SupportsDisplayMode@Graphics@@SAPAVRefCounted@Core@@XZ 0045c490 f   render_win32.release:graphicsprotocol.obj
 0001:0005b4a0       ?Create@SupportsDisplayMode@Graphics@@SAPAV12@XZ 0045c4a0 f   render_win32.release:graphicsprotocol.obj
 0001:0005b4e0       ?RegisterWithFactory@SupportsDisplayMode@Graphics@@SA_NXZ 0045c4e0 f   render_win32.release:graphicsprotocol.obj
 0001:0005b5e0       ?GetId@SupportsDisplayMode@Graphics@@UBEABVId@Messaging@@XZ 0045c5e0 f   render_win32.release:graphicsprotocol.obj
 0001:0005b5f0       ?GetRtti@AdjustDisplaySize@Graphics@@UBEPAVRtti@Core@@XZ 0045c5f0 f   render_win32.release:graphicsprotocol.obj
 0001:0005b600       ?FactoryCreator@AdjustDisplaySize@Graphics@@SAPAVRefCounted@Core@@XZ 0045c600 f   render_win32.release:graphicsprotocol.obj
 0001:0005b610       ?Create@AdjustDisplaySize@Graphics@@SAPAV12@XZ 0045c610 f   render_win32.release:graphicsprotocol.obj
 0001:0005b650       ?RegisterWithFactory@AdjustDisplaySize@Graphics@@SA_NXZ 0045c650 f   render_win32.release:graphicsprotocol.obj
 0001:0005b750       ?GetId@AdjustDisplaySize@Graphics@@UBEABVId@Messaging@@XZ 0045c750 f   render_win32.release:graphicsprotocol.obj
 0001:0005b760       ?GetRtti@GetCurrentAdapterDisplayMode@Graphics@@UBEPAVRtti@Core@@XZ 0045c760 f   render_win32.release:graphicsprotocol.obj
 0001:0005b770       ?FactoryCreator@GetCurrentAdapterDisplayMode@Graphics@@SAPAVRefCounted@Core@@XZ 0045c770 f   render_win32.release:graphicsprotocol.obj
 0001:0005b780       ?Create@GetCurrentAdapterDisplayMode@Graphics@@SAPAV12@XZ 0045c780 f   render_win32.release:graphicsprotocol.obj
 0001:0005b7c0       ?RegisterWithFactory@GetCurrentAdapterDisplayMode@Graphics@@SA_NXZ 0045c7c0 f   render_win32.release:graphicsprotocol.obj
 0001:0005b8c0       ?GetId@GetCurrentAdapterDisplayMode@Graphics@@UBEABVId@Messaging@@XZ 0045c8c0 f   render_win32.release:graphicsprotocol.obj
 0001:0005b8d0       ?GetRtti@GetAdapterInfo@Graphics@@UBEPAVRtti@Core@@XZ 0045c8d0 f   render_win32.release:graphicsprotocol.obj
 0001:0005b8e0       ?FactoryCreator@GetAdapterInfo@Graphics@@SAPAVRefCounted@Core@@XZ 0045c8e0 f   render_win32.release:graphicsprotocol.obj
 0001:0005b8f0       ?Create@GetAdapterInfo@Graphics@@SAPAV12@XZ 0045c8f0 f   render_win32.release:graphicsprotocol.obj
 0001:0005b940       ?RegisterWithFactory@GetAdapterInfo@Graphics@@SA_NXZ 0045c940 f   render_win32.release:graphicsprotocol.obj
 0001:0005ba40       ?GetId@GetAdapterInfo@Graphics@@UBEABVId@Messaging@@XZ 0045ca40 f   render_win32.release:graphicsprotocol.obj
 0001:0005ba50       ?GetRtti@AttachDisplayEventHandler@Graphics@@UBEPAVRtti@Core@@XZ 0045ca50 f   render_win32.release:graphicsprotocol.obj
 0001:0005ba60       ?FactoryCreator@AttachDisplayEventHandler@Graphics@@SAPAVRefCounted@Core@@XZ 0045ca60 f   render_win32.release:graphicsprotocol.obj
 0001:0005ba70       ?Create@AttachDisplayEventHandler@Graphics@@SAPAV12@XZ 0045ca70 f   render_win32.release:graphicsprotocol.obj
 0001:0005bac0       ?RegisterWithFactory@AttachDisplayEventHandler@Graphics@@SA_NXZ 0045cac0 f   render_win32.release:graphicsprotocol.obj
 0001:0005bbc0       ?GetId@AttachDisplayEventHandler@Graphics@@UBEABVId@Messaging@@XZ 0045cbc0 f   render_win32.release:graphicsprotocol.obj
 0001:0005bbd0       ?GetRtti@RemoveDisplayEventHandler@Graphics@@UBEPAVRtti@Core@@XZ 0045cbd0 f   render_win32.release:graphicsprotocol.obj
 0001:0005bbe0       ?FactoryCreator@RemoveDisplayEventHandler@Graphics@@SAPAVRefCounted@Core@@XZ 0045cbe0 f   render_win32.release:graphicsprotocol.obj
 0001:0005bbf0       ?Create@RemoveDisplayEventHandler@Graphics@@SAPAV12@XZ 0045cbf0 f   render_win32.release:graphicsprotocol.obj
 0001:0005bc40       ?RegisterWithFactory@RemoveDisplayEventHandler@Graphics@@SA_NXZ 0045cc40 f   render_win32.release:graphicsprotocol.obj
 0001:0005bd40       ?GetId@RemoveDisplayEventHandler@Graphics@@UBEABVId@Messaging@@XZ 0045cd40 f   render_win32.release:graphicsprotocol.obj
 0001:0005bd50       ?GetRtti@AttachRenderEventHandler@Graphics@@UBEPAVRtti@Core@@XZ 0045cd50 f   render_win32.release:graphicsprotocol.obj
 0001:0005bd60       ?FactoryCreator@AttachRenderEventHandler@Graphics@@SAPAVRefCounted@Core@@XZ 0045cd60 f   render_win32.release:graphicsprotocol.obj
 0001:0005bd70       ?Create@AttachRenderEventHandler@Graphics@@SAPAV12@XZ 0045cd70 f   render_win32.release:graphicsprotocol.obj
 0001:0005bdc0       ?RegisterWithFactory@AttachRenderEventHandler@Graphics@@SA_NXZ 0045cdc0 f   render_win32.release:graphicsprotocol.obj
 0001:0005bec0       ?GetId@AttachRenderEventHandler@Graphics@@UBEABVId@Messaging@@XZ 0045cec0 f   render_win32.release:graphicsprotocol.obj
 0001:0005bed0       ?GetRtti@RemoveRenderEventHandler@Graphics@@UBEPAVRtti@Core@@XZ 0045ced0 f   render_win32.release:graphicsprotocol.obj
 0001:0005bee0       ?FactoryCreator@RemoveRenderEventHandler@Graphics@@SAPAVRefCounted@Core@@XZ 0045cee0 f   render_win32.release:graphicsprotocol.obj
 0001:0005bef0       ?Create@RemoveRenderEventHandler@Graphics@@SAPAV12@XZ 0045cef0 f   render_win32.release:graphicsprotocol.obj
 0001:0005bf40       ?RegisterWithFactory@RemoveRenderEventHandler@Graphics@@SA_NXZ 0045cf40 f   render_win32.release:graphicsprotocol.obj
 0001:0005c040       ?GetId@RemoveRenderEventHandler@Graphics@@UBEABVId@Messaging@@XZ 0045d040 f   render_win32.release:graphicsprotocol.obj
 0001:0005c050       ?GetRtti@CreateGraphicsStage@Graphics@@UBEPAVRtti@Core@@XZ 0045d050 f   render_win32.release:graphicsprotocol.obj
 0001:0005c060       ?FactoryCreator@CreateGraphicsStage@Graphics@@SAPAVRefCounted@Core@@XZ 0045d060 f   render_win32.release:graphicsprotocol.obj
 0001:0005c070       ?Create@CreateGraphicsStage@Graphics@@SAPAV12@XZ 0045d070 f   render_win32.release:graphicsprotocol.obj
 0001:0005c0b0       ?RegisterWithFactory@CreateGraphicsStage@Graphics@@SA_NXZ 0045d0b0 f   render_win32.release:graphicsprotocol.obj
 0001:0005c1b0       ?GetId@CreateGraphicsStage@Graphics@@UBEABVId@Messaging@@XZ 0045d1b0 f   render_win32.release:graphicsprotocol.obj
 0001:0005c1c0       ?GetRtti@DiscardGraphicsStage@Graphics@@UBEPAVRtti@Core@@XZ 0045d1c0 f   render_win32.release:graphicsprotocol.obj
 0001:0005c1d0       ?FactoryCreator@DiscardGraphicsStage@Graphics@@SAPAVRefCounted@Core@@XZ 0045d1d0 f   render_win32.release:graphicsprotocol.obj
 0001:0005c1e0       ?Create@DiscardGraphicsStage@Graphics@@SAPAV12@XZ 0045d1e0 f   render_win32.release:graphicsprotocol.obj
 0001:0005c230       ?RegisterWithFactory@DiscardGraphicsStage@Graphics@@SA_NXZ 0045d230 f   render_win32.release:graphicsprotocol.obj
 0001:0005c330       ?GetId@DiscardGraphicsStage@Graphics@@UBEABVId@Messaging@@XZ 0045d330 f   render_win32.release:graphicsprotocol.obj
 0001:0005c340       ?GetRtti@CreateGraphicsView@Graphics@@UBEPAVRtti@Core@@XZ 0045d340 f   render_win32.release:graphicsprotocol.obj
 0001:0005c350       ?FactoryCreator@CreateGraphicsView@Graphics@@SAPAVRefCounted@Core@@XZ 0045d350 f   render_win32.release:graphicsprotocol.obj
 0001:0005c360       ?Create@CreateGraphicsView@Graphics@@SAPAV12@XZ 0045d360 f   render_win32.release:graphicsprotocol.obj
 0001:0005c3a0       ?RegisterWithFactory@CreateGraphicsView@Graphics@@SA_NXZ 0045d3a0 f   render_win32.release:graphicsprotocol.obj
 0001:0005c4a0       ?GetId@CreateGraphicsView@Graphics@@UBEABVId@Messaging@@XZ 0045d4a0 f   render_win32.release:graphicsprotocol.obj
 0001:0005c4b0       ?GetRtti@DiscardGraphicsView@Graphics@@UBEPAVRtti@Core@@XZ 0045d4b0 f   render_win32.release:graphicsprotocol.obj
 0001:0005c4c0       ?FactoryCreator@DiscardGraphicsView@Graphics@@SAPAVRefCounted@Core@@XZ 0045d4c0 f   render_win32.release:graphicsprotocol.obj
 0001:0005c4d0       ?Create@DiscardGraphicsView@Graphics@@SAPAV12@XZ 0045d4d0 f   render_win32.release:graphicsprotocol.obj
 0001:0005c520       ?RegisterWithFactory@DiscardGraphicsView@Graphics@@SA_NXZ 0045d520 f   render_win32.release:graphicsprotocol.obj
 0001:0005c620       ?GetId@DiscardGraphicsView@Graphics@@UBEABVId@Messaging@@XZ 0045d620 f   render_win32.release:graphicsprotocol.obj
 0001:0005c630       ?GetRtti@SetDefaultGraphicsView@Graphics@@UBEPAVRtti@Core@@XZ 0045d630 f   render_win32.release:graphicsprotocol.obj
 0001:0005c640       ?FactoryCreator@SetDefaultGraphicsView@Graphics@@SAPAVRefCounted@Core@@XZ 0045d640 f   render_win32.release:graphicsprotocol.obj
 0001:0005c650       ?Create@SetDefaultGraphicsView@Graphics@@SAPAV12@XZ 0045d650 f   render_win32.release:graphicsprotocol.obj
 0001:0005c6a0       ?RegisterWithFactory@SetDefaultGraphicsView@Graphics@@SA_NXZ 0045d6a0 f   render_win32.release:graphicsprotocol.obj
 0001:0005c7a0       ?GetId@SetDefaultGraphicsView@Graphics@@UBEABVId@Messaging@@XZ 0045d7a0 f   render_win32.release:graphicsprotocol.obj
 0001:0005c7b0       ?GetRtti@CreateGraphicsEntity@Graphics@@UBEPAVRtti@Core@@XZ 0045d7b0 f   render_win32.release:graphicsprotocol.obj
 0001:0005c7c0       ?FactoryCreator@CreateGraphicsEntity@Graphics@@SAPAVRefCounted@Core@@XZ 0045d7c0 f   render_win32.release:graphicsprotocol.obj
 0001:0005c7d0       ?Create@CreateGraphicsEntity@Graphics@@SAPAV12@XZ 0045d7d0 f   render_win32.release:graphicsprotocol.obj
 0001:0005c810       ?RegisterWithFactory@CreateGraphicsEntity@Graphics@@SA_NXZ 0045d810 f   render_win32.release:graphicsprotocol.obj
 0001:0005c910       ?GetId@CreateGraphicsEntity@Graphics@@UBEABVId@Messaging@@XZ 0045d910 f   render_win32.release:graphicsprotocol.obj
 0001:0005c920       ?GetRtti@CreateModelEntity@Graphics@@UBEPAVRtti@Core@@XZ 0045d920 f   render_win32.release:graphicsprotocol.obj
 0001:0005c930       ?FactoryCreator@CreateModelEntity@Graphics@@SAPAVRefCounted@Core@@XZ 0045d930 f   render_win32.release:graphicsprotocol.obj
 0001:0005c940       ?Create@CreateModelEntity@Graphics@@SAPAV12@XZ 0045d940 f   render_win32.release:graphicsprotocol.obj
 0001:0005c980       ?RegisterWithFactory@CreateModelEntity@Graphics@@SA_NXZ 0045d980 f   render_win32.release:graphicsprotocol.obj
 0001:0005ca80       ?GetId@CreateModelEntity@Graphics@@UBEABVId@Messaging@@XZ 0045da80 f   render_win32.release:graphicsprotocol.obj
 0001:0005ca90       ?GetRtti@CreateCameraEntity@Graphics@@UBEPAVRtti@Core@@XZ 0045da90 f   render_win32.release:graphicsprotocol.obj
 0001:0005caa0       ?FactoryCreator@CreateCameraEntity@Graphics@@SAPAVRefCounted@Core@@XZ 0045daa0 f   render_win32.release:graphicsprotocol.obj
 0001:0005cab0       ?Create@CreateCameraEntity@Graphics@@SAPAV12@XZ 0045dab0 f   render_win32.release:graphicsprotocol.obj
 0001:0005cb10       ?RegisterWithFactory@CreateCameraEntity@Graphics@@SA_NXZ 0045db10 f   render_win32.release:graphicsprotocol.obj
 0001:0005cc10       ?GetId@CreateCameraEntity@Graphics@@UBEABVId@Messaging@@XZ 0045dc10 f   render_win32.release:graphicsprotocol.obj
 0001:0005cc20       ?GetRtti@CreateGlobalLightEntity@Graphics@@UBEPAVRtti@Core@@XZ 0045dc20 f   render_win32.release:graphicsprotocol.obj
 0001:0005cc30       ?FactoryCreator@CreateGlobalLightEntity@Graphics@@SAPAVRefCounted@Core@@XZ 0045dc30 f   render_win32.release:graphicsprotocol.obj
 0001:0005cc40       ?Create@CreateGlobalLightEntity@Graphics@@SAPAV12@XZ 0045dc40 f   render_win32.release:graphicsprotocol.obj
 0001:0005cc90       ?RegisterWithFactory@CreateGlobalLightEntity@Graphics@@SA_NXZ 0045dc90 f   render_win32.release:graphicsprotocol.obj
 0001:0005cd90       ?GetId@CreateGlobalLightEntity@Graphics@@UBEABVId@Messaging@@XZ 0045dd90 f   render_win32.release:graphicsprotocol.obj
 0001:0005cda0       ?GetRtti@CreateSpotLightEntity@Graphics@@UBEPAVRtti@Core@@XZ 0045dda0 f   render_win32.release:graphicsprotocol.obj
 0001:0005cdb0       ?FactoryCreator@CreateSpotLightEntity@Graphics@@SAPAVRefCounted@Core@@XZ 0045ddb0 f   render_win32.release:graphicsprotocol.obj
 0001:0005cdc0       ?Create@CreateSpotLightEntity@Graphics@@SAPAV12@XZ 0045ddc0 f   render_win32.release:graphicsprotocol.obj
 0001:0005ce10       ?RegisterWithFactory@CreateSpotLightEntity@Graphics@@SA_NXZ 0045de10 f   render_win32.release:graphicsprotocol.obj
 0001:0005cf10       ?GetId@CreateSpotLightEntity@Graphics@@UBEABVId@Messaging@@XZ 0045df10 f   render_win32.release:graphicsprotocol.obj
 0001:0005cf20       ?GetRtti@CreatePointLightEntity@Graphics@@UBEPAVRtti@Core@@XZ 0045df20 f   render_win32.release:graphicsprotocol.obj
 0001:0005cf30       ?FactoryCreator@CreatePointLightEntity@Graphics@@SAPAVRefCounted@Core@@XZ 0045df30 f   render_win32.release:graphicsprotocol.obj
 0001:0005cf40       ?Create@CreatePointLightEntity@Graphics@@SAPAV12@XZ 0045df40 f   render_win32.release:graphicsprotocol.obj
 0001:0005cf90       ?RegisterWithFactory@CreatePointLightEntity@Graphics@@SA_NXZ 0045df90 f   render_win32.release:graphicsprotocol.obj
 0001:0005d090       ?GetId@CreatePointLightEntity@Graphics@@UBEABVId@Messaging@@XZ 0045e090 f   render_win32.release:graphicsprotocol.obj
 0001:0005d0a0       ?GetRtti@GraphicsEntityMessage@Graphics@@UBEPAVRtti@Core@@XZ 0045e0a0 f   render_win32.release:graphicsprotocol.obj
 0001:0005d0b0       ?FactoryCreator@GraphicsEntityMessage@Graphics@@SAPAVRefCounted@Core@@XZ 0045e0b0 f   render_win32.release:graphicsprotocol.obj
 0001:0005d0c0       ?Create@GraphicsEntityMessage@Graphics@@SAPAV12@XZ 0045e0c0 f   render_win32.release:graphicsprotocol.obj
 0001:0005d110       ?RegisterWithFactory@GraphicsEntityMessage@Graphics@@SA_NXZ 0045e110 f   render_win32.release:graphicsprotocol.obj
 0001:0005d210       ?GetId@GraphicsEntityMessage@Graphics@@UBEABVId@Messaging@@XZ 0045e210 f   render_win32.release:graphicsprotocol.obj
 0001:0005d220       ?GetRtti@DiscardGraphicsEntity@Graphics@@UBEPAVRtti@Core@@XZ 0045e220 f   render_win32.release:graphicsprotocol.obj
 0001:0005d230       ?FactoryCreator@DiscardGraphicsEntity@Graphics@@SAPAVRefCounted@Core@@XZ 0045e230 f   render_win32.release:graphicsprotocol.obj
 0001:0005d240       ?Create@DiscardGraphicsEntity@Graphics@@SAPAV12@XZ 0045e240 f   render_win32.release:graphicsprotocol.obj
 0001:0005d2a0       ?RegisterWithFactory@DiscardGraphicsEntity@Graphics@@SA_NXZ 0045e2a0 f   render_win32.release:graphicsprotocol.obj
 0001:0005d3a0       ?GetId@DiscardGraphicsEntity@Graphics@@UBEABVId@Messaging@@XZ 0045e3a0 f   render_win32.release:graphicsprotocol.obj
 0001:0005d3b0       ?GetRtti@AddTrackedCharJoint@Graphics@@UBEPAVRtti@Core@@XZ 0045e3b0 f   render_win32.release:graphicsprotocol.obj
 0001:0005d3c0       ?FactoryCreator@AddTrackedCharJoint@Graphics@@SAPAVRefCounted@Core@@XZ 0045e3c0 f   render_win32.release:graphicsprotocol.obj
 0001:0005d3d0       ?Create@AddTrackedCharJoint@Graphics@@SAPAV12@XZ 0045e3d0 f   render_win32.release:graphicsprotocol.obj
 0001:0005d440       ?RegisterWithFactory@AddTrackedCharJoint@Graphics@@SA_NXZ 0045e440 f   render_win32.release:graphicsprotocol.obj
 0001:0005d540       ?GetId@AddTrackedCharJoint@Graphics@@UBEABVId@Messaging@@XZ 0045e540 f   render_win32.release:graphicsprotocol.obj
 0001:0005d550       ?GetRtti@SetLightColor@Graphics@@UBEPAVRtti@Core@@XZ 0045e550 f   render_win32.release:graphicsprotocol.obj
 0001:0005d560       ?FactoryCreator@SetLightColor@Graphics@@SAPAVRefCounted@Core@@XZ 0045e560 f   render_win32.release:graphicsprotocol.obj
 0001:0005d570       ?Create@SetLightColor@Graphics@@SAPAV12@XZ 0045e570 f   render_win32.release:graphicsprotocol.obj
 0001:0005d5d0       ?RegisterWithFactory@SetLightColor@Graphics@@SA_NXZ 0045e5d0 f   render_win32.release:graphicsprotocol.obj
 0001:0005d6d0       ?GetId@SetLightColor@Graphics@@UBEABVId@Messaging@@XZ 0045e6d0 f   render_win32.release:graphicsprotocol.obj
 0001:0005d6e0       ?GetRtti@SetLightCastShadows@Graphics@@UBEPAVRtti@Core@@XZ 0045e6e0 f   render_win32.release:graphicsprotocol.obj
 0001:0005d6f0       ?FactoryCreator@SetLightCastShadows@Graphics@@SAPAVRefCounted@Core@@XZ 0045e6f0 f   render_win32.release:graphicsprotocol.obj
 0001:0005d700       ?Create@SetLightCastShadows@Graphics@@SAPAV12@XZ 0045e700 f   render_win32.release:graphicsprotocol.obj
 0001:0005d760       ?RegisterWithFactory@SetLightCastShadows@Graphics@@SA_NXZ 0045e760 f   render_win32.release:graphicsprotocol.obj
 0001:0005d860       ?GetId@SetLightCastShadows@Graphics@@UBEABVId@Messaging@@XZ 0045e860 f   render_win32.release:graphicsprotocol.obj
 0001:0005d870       ?GetRtti@SetGlobalBackLightColor@Graphics@@UBEPAVRtti@Core@@XZ 0045e870 f   render_win32.release:graphicsprotocol.obj
 0001:0005d880       ?FactoryCreator@SetGlobalBackLightColor@Graphics@@SAPAVRefCounted@Core@@XZ 0045e880 f   render_win32.release:graphicsprotocol.obj
 0001:0005d890       ?Create@SetGlobalBackLightColor@Graphics@@SAPAV12@XZ 0045e890 f   render_win32.release:graphicsprotocol.obj
 0001:0005d8f0       ?RegisterWithFactory@SetGlobalBackLightColor@Graphics@@SA_NXZ 0045e8f0 f   render_win32.release:graphicsprotocol.obj
 0001:0005d9f0       ?GetId@SetGlobalBackLightColor@Graphics@@UBEABVId@Messaging@@XZ 0045e9f0 f   render_win32.release:graphicsprotocol.obj
 0001:0005da00       ?GetRtti@SetGlobalAmbientLightColor@Graphics@@UBEPAVRtti@Core@@XZ 0045ea00 f   render_win32.release:graphicsprotocol.obj
 0001:0005da10       ?FactoryCreator@SetGlobalAmbientLightColor@Graphics@@SAPAVRefCounted@Core@@XZ 0045ea10 f   render_win32.release:graphicsprotocol.obj
 0001:0005da20       ?Create@SetGlobalAmbientLightColor@Graphics@@SAPAV12@XZ 0045ea20 f   render_win32.release:graphicsprotocol.obj
 0001:0005da80       ?RegisterWithFactory@SetGlobalAmbientLightColor@Graphics@@SA_NXZ 0045ea80 f   render_win32.release:graphicsprotocol.obj
 0001:0005db80       ?GetId@SetGlobalAmbientLightColor@Graphics@@UBEABVId@Messaging@@XZ 0045eb80 f   render_win32.release:graphicsprotocol.obj
 0001:0005db90       ?GetRtti@SetGlobalBackLightOffset@Graphics@@UBEPAVRtti@Core@@XZ 0045eb90 f   render_win32.release:graphicsprotocol.obj
 0001:0005dba0       ?FactoryCreator@SetGlobalBackLightOffset@Graphics@@SAPAVRefCounted@Core@@XZ 0045eba0 f   render_win32.release:graphicsprotocol.obj
 0001:0005dbb0       ?Create@SetGlobalBackLightOffset@Graphics@@SAPAV12@XZ 0045ebb0 f   render_win32.release:graphicsprotocol.obj
 0001:0005dc10       ?RegisterWithFactory@SetGlobalBackLightOffset@Graphics@@SA_NXZ 0045ec10 f   render_win32.release:graphicsprotocol.obj
 0001:0005dd10       ?GetId@SetGlobalBackLightOffset@Graphics@@UBEABVId@Messaging@@XZ 0045ed10 f   render_win32.release:graphicsprotocol.obj
 0001:0005dd20       ?GetRtti@SetGlobalLightParams@Graphics@@UBEPAVRtti@Core@@XZ 0045ed20 f   render_win32.release:graphicsprotocol.obj
 0001:0005dd30       ?FactoryCreator@SetGlobalLightParams@Graphics@@SAPAVRefCounted@Core@@XZ 0045ed30 f   render_win32.release:graphicsprotocol.obj
 0001:0005dd40       ?Create@SetGlobalLightParams@Graphics@@SAPAV12@XZ 0045ed40 f   render_win32.release:graphicsprotocol.obj
 0001:0005dda0       ?RegisterWithFactory@SetGlobalLightParams@Graphics@@SA_NXZ 0045eda0 f   render_win32.release:graphicsprotocol.obj
 0001:0005dea0       ?GetId@SetGlobalLightParams@Graphics@@UBEABVId@Messaging@@XZ 0045eea0 f   render_win32.release:graphicsprotocol.obj
 0001:0005deb0       ?GetRtti@SetGlobalLightColor@Graphics@@UBEPAVRtti@Core@@XZ 0045eeb0 f   render_win32.release:graphicsprotocol.obj
 0001:0005dec0       ?FactoryCreator@SetGlobalLightColor@Graphics@@SAPAVRefCounted@Core@@XZ 0045eec0 f   render_win32.release:graphicsprotocol.obj
 0001:0005ded0       ?Create@SetGlobalLightColor@Graphics@@SAPAV12@XZ 0045eed0 f   render_win32.release:graphicsprotocol.obj
 0001:0005df30       ?RegisterWithFactory@SetGlobalLightColor@Graphics@@SA_NXZ 0045ef30 f   render_win32.release:graphicsprotocol.obj
 0001:0005e030       ?GetId@SetGlobalLightColor@Graphics@@UBEABVId@Messaging@@XZ 0045f030 f   render_win32.release:graphicsprotocol.obj
 0001:0005e040       ?GetRtti@UpdateTransform@Graphics@@UBEPAVRtti@Core@@XZ 0045f040 f   render_win32.release:graphicsprotocol.obj
 0001:0005e050       ?FactoryCreator@UpdateTransform@Graphics@@SAPAVRefCounted@Core@@XZ 0045f050 f   render_win32.release:graphicsprotocol.obj
 0001:0005e060       ?Create@UpdateTransform@Graphics@@SAPAV12@XZ 0045f060 f   render_win32.release:graphicsprotocol.obj
 0001:0005e0a0       ?RegisterWithFactory@UpdateTransform@Graphics@@SA_NXZ 0045f0a0 f   render_win32.release:graphicsprotocol.obj
 0001:0005e1a0       ?GetId@UpdateTransform@Graphics@@UBEABVId@Messaging@@XZ 0045f1a0 f   render_win32.release:graphicsprotocol.obj
 0001:0005e1b0       ?GetRtti@SetVisibility@Graphics@@UBEPAVRtti@Core@@XZ 0045f1b0 f   render_win32.release:graphicsprotocol.obj
 0001:0005e1c0       ?FactoryCreator@SetVisibility@Graphics@@SAPAVRefCounted@Core@@XZ 0045f1c0 f   render_win32.release:graphicsprotocol.obj
 0001:0005e1d0       ?Create@SetVisibility@Graphics@@SAPAV12@XZ 0045f1d0 f   render_win32.release:graphicsprotocol.obj
 0001:0005e230       ?RegisterWithFactory@SetVisibility@Graphics@@SA_NXZ 0045f230 f   render_win32.release:graphicsprotocol.obj
 0001:0005e330       ?GetId@SetVisibility@Graphics@@UBEABVId@Messaging@@XZ 0045f330 f   render_win32.release:graphicsprotocol.obj
 0001:0005e340       ?GetRtti@AttachCameraToView@Graphics@@UBEPAVRtti@Core@@XZ 0045f340 f   render_win32.release:graphicsprotocol.obj
 0001:0005e350       ?FactoryCreator@AttachCameraToView@Graphics@@SAPAVRefCounted@Core@@XZ 0045f350 f   render_win32.release:graphicsprotocol.obj
 0001:0005e360       ?Create@AttachCameraToView@Graphics@@SAPAV12@XZ 0045f360 f   render_win32.release:graphicsprotocol.obj
 0001:0005e3d0       ?RegisterWithFactory@AttachCameraToView@Graphics@@SA_NXZ 0045f3d0 f   render_win32.release:graphicsprotocol.obj
 0001:0005e4d0       ?GetId@AttachCameraToView@Graphics@@UBEABVId@Messaging@@XZ 0045f4d0 f   render_win32.release:graphicsprotocol.obj
 0001:0005e4e0       ?GetRtti@RemoveCameraFromView@Graphics@@UBEPAVRtti@Core@@XZ 0045f4e0 f   render_win32.release:graphicsprotocol.obj
 0001:0005e4f0       ?FactoryCreator@RemoveCameraFromView@Graphics@@SAPAVRefCounted@Core@@XZ 0045f4f0 f   render_win32.release:graphicsprotocol.obj
 0001:0005e500       ?Create@RemoveCameraFromView@Graphics@@SAPAV12@XZ 0045f500 f   render_win32.release:graphicsprotocol.obj
 0001:0005e570       ?RegisterWithFactory@RemoveCameraFromView@Graphics@@SA_NXZ 0045f570 f   render_win32.release:graphicsprotocol.obj
 0001:0005e670       ?GetId@RemoveCameraFromView@Graphics@@UBEABVId@Messaging@@XZ 0045f670 f   render_win32.release:graphicsprotocol.obj
 0001:0005e680       ?GetRtti@UpdModelNodeInstanceShaderVariable@Graphics@@UBEPAVRtti@Core@@XZ 0045f680 f   render_win32.release:graphicsprotocol.obj
 0001:0005e690       ?FactoryCreator@UpdModelNodeInstanceShaderVariable@Graphics@@SAPAVRefCounted@Core@@XZ 0045f690 f   render_win32.release:graphicsprotocol.obj
 0001:0005e6a0       ?Create@UpdModelNodeInstanceShaderVariable@Graphics@@SAPAV12@XZ 0045f6a0 f   render_win32.release:graphicsprotocol.obj
 0001:0005e6e0       ?RegisterWithFactory@UpdModelNodeInstanceShaderVariable@Graphics@@SA_NXZ 0045f6e0 f   render_win32.release:graphicsprotocol.obj
 0001:0005e7e0       ?GetId@UpdModelNodeInstanceShaderVariable@Graphics@@UBEABVId@Messaging@@XZ 0045f7e0 f   render_win32.release:graphicsprotocol.obj
 0001:0005e7f0       ?GetRtti@UpdModelNodeInstanceVisibility@Graphics@@UBEPAVRtti@Core@@XZ 0045f7f0 f   render_win32.release:graphicsprotocol.obj
 0001:0005e800       ?FactoryCreator@UpdModelNodeInstanceVisibility@Graphics@@SAPAVRefCounted@Core@@XZ 0045f800 f   render_win32.release:graphicsprotocol.obj
 0001:0005e810       ?Create@UpdModelNodeInstanceVisibility@Graphics@@SAPAV12@XZ 0045f810 f   render_win32.release:graphicsprotocol.obj
 0001:0005e880       ?RegisterWithFactory@UpdModelNodeInstanceVisibility@Graphics@@SA_NXZ 0045f880 f   render_win32.release:graphicsprotocol.obj
 0001:0005e980       ?GetId@UpdModelNodeInstanceVisibility@Graphics@@UBEABVId@Messaging@@XZ 0045f980 f   render_win32.release:graphicsprotocol.obj
 0001:0005e990       ?GetRtti@UpdateSharedShaderVariable@Graphics@@UBEPAVRtti@Core@@XZ 0045f990 f   render_win32.release:graphicsprotocol.obj
 0001:0005e9a0       ?FactoryCreator@UpdateSharedShaderVariable@Graphics@@SAPAVRefCounted@Core@@XZ 0045f9a0 f   render_win32.release:graphicsprotocol.obj
 0001:0005e9b0       ?Create@UpdateSharedShaderVariable@Graphics@@SAPAV12@XZ 0045f9b0 f   render_win32.release:graphicsprotocol.obj
 0001:0005ea20       ?RegisterWithFactory@UpdateSharedShaderVariable@Graphics@@SA_NXZ 0045fa20 f   render_win32.release:graphicsprotocol.obj
 0001:0005eb20       ?GetId@UpdateSharedShaderVariable@Graphics@@UBEABVId@Messaging@@XZ 0045fb20 f   render_win32.release:graphicsprotocol.obj
 0001:0005eb30       ?GetRtti@AnimPlayClip@Graphics@@UBEPAVRtti@Core@@XZ 0045fb30 f   render_win32.release:graphicsprotocol.obj
 0001:0005eb40       ?FactoryCreator@AnimPlayClip@Graphics@@SAPAVRefCounted@Core@@XZ 0045fb40 f   render_win32.release:graphicsprotocol.obj
 0001:0005eb50       ?Create@AnimPlayClip@Graphics@@SAPAV12@XZ 0045fb50 f   render_win32.release:graphicsprotocol.obj
 0001:0005eb90       ?RegisterWithFactory@AnimPlayClip@Graphics@@SA_NXZ 0045fb90 f   render_win32.release:graphicsprotocol.obj
 0001:0005ec90       ?GetId@AnimPlayClip@Graphics@@UBEABVId@Messaging@@XZ 0045fc90 f   render_win32.release:graphicsprotocol.obj
 0001:0005eca0       ?GetRtti@AnimStopTrack@Graphics@@UBEPAVRtti@Core@@XZ 0045fca0 f   render_win32.release:graphicsprotocol.obj
 0001:0005ecb0       ?FactoryCreator@AnimStopTrack@Graphics@@SAPAVRefCounted@Core@@XZ 0045fcb0 f   render_win32.release:graphicsprotocol.obj
 0001:0005ecc0       ?Create@AnimStopTrack@Graphics@@SAPAV12@XZ 0045fcc0 f   render_win32.release:graphicsprotocol.obj
 0001:0005ed00       ?RegisterWithFactory@AnimStopTrack@Graphics@@SA_NXZ 0045fd00 f   render_win32.release:graphicsprotocol.obj
 0001:0005ee00       ?GetId@AnimStopTrack@Graphics@@UBEABVId@Messaging@@XZ 0045fe00 f   render_win32.release:graphicsprotocol.obj
 0001:0005ee10       ?GetRtti@AnimStopAllTracks@Graphics@@UBEPAVRtti@Core@@XZ 0045fe10 f   render_win32.release:graphicsprotocol.obj
 0001:0005ee20       ?FactoryCreator@AnimStopAllTracks@Graphics@@SAPAVRefCounted@Core@@XZ 0045fe20 f   render_win32.release:graphicsprotocol.obj
 0001:0005ee30       ?Create@AnimStopAllTracks@Graphics@@SAPAV12@XZ 0045fe30 f   render_win32.release:graphicsprotocol.obj
 0001:0005ee90       ?RegisterWithFactory@AnimStopAllTracks@Graphics@@SA_NXZ 0045fe90 f   render_win32.release:graphicsprotocol.obj
 0001:0005ef90       ?GetId@AnimStopAllTracks@Graphics@@UBEABVId@Messaging@@XZ 0045ff90 f   render_win32.release:graphicsprotocol.obj
 0001:0005efa0       ?GetRtti@AnimModifyBlendWeight@Graphics@@UBEPAVRtti@Core@@XZ 0045ffa0 f   render_win32.release:graphicsprotocol.obj
 0001:0005efb0       ?FactoryCreator@AnimModifyBlendWeight@Graphics@@SAPAVRefCounted@Core@@XZ 0045ffb0 f   render_win32.release:graphicsprotocol.obj
 0001:0005efc0       ?Create@AnimModifyBlendWeight@Graphics@@SAPAV12@XZ 0045ffc0 f   render_win32.release:graphicsprotocol.obj
 0001:0005f000       ?RegisterWithFactory@AnimModifyBlendWeight@Graphics@@SA_NXZ 00460000 f   render_win32.release:graphicsprotocol.obj
 0001:0005f100       ?GetId@AnimModifyBlendWeight@Graphics@@UBEABVId@Messaging@@XZ 00460100 f   render_win32.release:graphicsprotocol.obj
 0001:0005f110       ?GetRtti@AnimModifyTimeFactor@Graphics@@UBEPAVRtti@Core@@XZ 00460110 f   render_win32.release:graphicsprotocol.obj
 0001:0005f120       ?FactoryCreator@AnimModifyTimeFactor@Graphics@@SAPAVRefCounted@Core@@XZ 00460120 f   render_win32.release:graphicsprotocol.obj
 0001:0005f130       ?Create@AnimModifyTimeFactor@Graphics@@SAPAV12@XZ 00460130 f   render_win32.release:graphicsprotocol.obj
 0001:0005f170       ?RegisterWithFactory@AnimModifyTimeFactor@Graphics@@SA_NXZ 00460170 f   render_win32.release:graphicsprotocol.obj
 0001:0005f270       ?GetId@AnimModifyTimeFactor@Graphics@@UBEABVId@Messaging@@XZ 00460270 f   render_win32.release:graphicsprotocol.obj
 0001:0005f280       ?GetRtti@AnimIsClipPlaying@Graphics@@UBEPAVRtti@Core@@XZ 00460280 f   render_win32.release:graphicsprotocol.obj
 0001:0005f290       ?FactoryCreator@AnimIsClipPlaying@Graphics@@SAPAVRefCounted@Core@@XZ 00460290 f   render_win32.release:graphicsprotocol.obj
 0001:0005f2a0       ?Create@AnimIsClipPlaying@Graphics@@SAPAV12@XZ 004602a0 f   render_win32.release:graphicsprotocol.obj
 0001:0005f310       ?RegisterWithFactory@AnimIsClipPlaying@Graphics@@SA_NXZ 00460310 f   render_win32.release:graphicsprotocol.obj
 0001:0005f410       ?GetId@AnimIsClipPlaying@Graphics@@UBEABVId@Messaging@@XZ 00460410 f   render_win32.release:graphicsprotocol.obj
 0001:0005f420       ?GetRtti@ApplySkinList@Graphics@@UBEPAVRtti@Core@@XZ 00460420 f   render_win32.release:graphicsprotocol.obj
 0001:0005f430       ?FactoryCreator@ApplySkinList@Graphics@@SAPAVRefCounted@Core@@XZ 00460430 f   render_win32.release:graphicsprotocol.obj
 0001:0005f440       ?Create@ApplySkinList@Graphics@@SAPAV12@XZ 00460440 f   render_win32.release:graphicsprotocol.obj
 0001:0005f4b0       ?RegisterWithFactory@ApplySkinList@Graphics@@SA_NXZ 004604b0 f   render_win32.release:graphicsprotocol.obj
 0001:0005f5b0       ?GetId@ApplySkinList@Graphics@@UBEABVId@Messaging@@XZ 004605b0 f   render_win32.release:graphicsprotocol.obj
 0001:0005f5c0       ?GetRtti@ShowSkin@Graphics@@UBEPAVRtti@Core@@XZ 004605c0 f   render_win32.release:graphicsprotocol.obj
 0001:0005f5d0       ?FactoryCreator@ShowSkin@Graphics@@SAPAVRefCounted@Core@@XZ 004605d0 f   render_win32.release:graphicsprotocol.obj
 0001:0005f5e0       ?Create@ShowSkin@Graphics@@SAPAV12@XZ 004605e0 f   render_win32.release:graphicsprotocol.obj
 0001:0005f650       ?RegisterWithFactory@ShowSkin@Graphics@@SA_NXZ 00460650 f   render_win32.release:graphicsprotocol.obj
 0001:0005f750       ?GetId@ShowSkin@Graphics@@UBEABVId@Messaging@@XZ 00460750 f   render_win32.release:graphicsprotocol.obj
 0001:0005f760       ?GetRtti@HideSkin@Graphics@@UBEPAVRtti@Core@@XZ 00460760 f   render_win32.release:graphicsprotocol.obj
 0001:0005f770       ?FactoryCreator@HideSkin@Graphics@@SAPAVRefCounted@Core@@XZ 00460770 f   render_win32.release:graphicsprotocol.obj
 0001:0005f780       ?Create@HideSkin@Graphics@@SAPAV12@XZ 00460780 f   render_win32.release:graphicsprotocol.obj
 0001:0005f7f0       ?RegisterWithFactory@HideSkin@Graphics@@SA_NXZ 004607f0 f   render_win32.release:graphicsprotocol.obj
 0001:0005f8f0       ?GetId@HideSkin@Graphics@@UBEABVId@Messaging@@XZ 004608f0 f   render_win32.release:graphicsprotocol.obj
 0001:0005f900       ?GetRtti@SetVariation@Graphics@@UBEPAVRtti@Core@@XZ 00460900 f   render_win32.release:graphicsprotocol.obj
 0001:0005f910       ?FactoryCreator@SetVariation@Graphics@@SAPAVRefCounted@Core@@XZ 00460910 f   render_win32.release:graphicsprotocol.obj
 0001:0005f920       ?Create@SetVariation@Graphics@@SAPAV12@XZ 00460920 f   render_win32.release:graphicsprotocol.obj
 0001:0005f990       ?RegisterWithFactory@SetVariation@Graphics@@SA_NXZ 00460990 f   render_win32.release:graphicsprotocol.obj
 0001:0005fa90       ?GetId@SetVariation@Graphics@@UBEABVId@Messaging@@XZ 00460a90 f   render_win32.release:graphicsprotocol.obj
 0001:0005faa0       ?GetRtti@SetTimeFactor@Graphics@@UBEPAVRtti@Core@@XZ 00460aa0 f   render_win32.release:graphicsprotocol.obj
 0001:0005fab0       ?FactoryCreator@SetTimeFactor@Graphics@@SAPAVRefCounted@Core@@XZ 00460ab0 f   render_win32.release:graphicsprotocol.obj
 0001:0005fac0       ?Create@SetTimeFactor@Graphics@@SAPAV12@XZ 00460ac0 f   render_win32.release:graphicsprotocol.obj
 0001:0005fb00       ?RegisterWithFactory@SetTimeFactor@Graphics@@SA_NXZ 00460b00 f   render_win32.release:graphicsprotocol.obj
 0001:0005fc00       ?GetId@SetTimeFactor@Graphics@@UBEABVId@Messaging@@XZ 00460c00 f   render_win32.release:graphicsprotocol.obj
 0001:0005fc10       ?GetRtti@UnbindAttachment@Graphics@@UBEPAVRtti@Core@@XZ 00460c10 f   render_win32.release:graphicsprotocol.obj
 0001:0005fc20       ?FactoryCreator@UnbindAttachment@Graphics@@SAPAVRefCounted@Core@@XZ 00460c20 f   render_win32.release:graphicsprotocol.obj
 0001:0005fc30       ?Create@UnbindAttachment@Graphics@@SAPAV12@XZ 00460c30 f   render_win32.release:graphicsprotocol.obj
 0001:0005fc70       ?RegisterWithFactory@UnbindAttachment@Graphics@@SA_NXZ 00460c70 f   render_win32.release:graphicsprotocol.obj
 0001:0005fd70       ?GetId@UnbindAttachment@Graphics@@UBEABVId@Messaging@@XZ 00460d70 f   render_win32.release:graphicsprotocol.obj
 0001:0005fd80       ?GetRtti@BindAttachment@Graphics@@UBEPAVRtti@Core@@XZ 00460d80 f   render_win32.release:graphicsprotocol.obj
 0001:0005fd90       ?FactoryCreator@BindAttachment@Graphics@@SAPAVRefCounted@Core@@XZ 00460d90 f   render_win32.release:graphicsprotocol.obj
 0001:0005fda0       ?Create@BindAttachment@Graphics@@SAPAV12@XZ 00460da0 f   render_win32.release:graphicsprotocol.obj
 0001:0005fde0       ?RegisterWithFactory@BindAttachment@Graphics@@SA_NXZ 00460de0 f   render_win32.release:graphicsprotocol.obj
 0001:0005fee0       ?GetId@BindAttachment@Graphics@@UBEABVId@Messaging@@XZ 00460ee0 f   render_win32.release:graphicsprotocol.obj
 0001:0005fef0       ?GetRtti@SwitchAttachmentToNewJoint@Graphics@@UBEPAVRtti@Core@@XZ 00460ef0 f   render_win32.release:graphicsprotocol.obj
 0001:0005ff00       ?FactoryCreator@SwitchAttachmentToNewJoint@Graphics@@SAPAVRefCounted@Core@@XZ 00460f00 f   render_win32.release:graphicsprotocol.obj
 0001:0005ff10       ?Create@SwitchAttachmentToNewJoint@Graphics@@SAPAV12@XZ 00460f10 f   render_win32.release:graphicsprotocol.obj
 0001:0005ff80       ?RegisterWithFactory@SwitchAttachmentToNewJoint@Graphics@@SA_NXZ 00460f80 f   render_win32.release:graphicsprotocol.obj
 0001:00060080       ?GetId@SwitchAttachmentToNewJoint@Graphics@@UBEABVId@Messaging@@XZ 00461080 f   render_win32.release:graphicsprotocol.obj
 0001:00060090       ?GetRtti@BaseAnimEventMessage@Graphics@@UBEPAVRtti@Core@@XZ 00461090 f   render_win32.release:graphicsprotocol.obj
 0001:000600a0       ?FactoryCreator@BaseAnimEventMessage@Graphics@@SAPAVRefCounted@Core@@XZ 004610a0 f   render_win32.release:graphicsprotocol.obj
 0001:000600b0       ?Create@BaseAnimEventMessage@Graphics@@SAPAV12@XZ 004610b0 f   render_win32.release:graphicsprotocol.obj
 0001:00060110       ?RegisterWithFactory@BaseAnimEventMessage@Graphics@@SA_NXZ 00461110 f   render_win32.release:graphicsprotocol.obj
 0001:00060210       ?GetId@BaseAnimEventMessage@Graphics@@UBEABVId@Messaging@@XZ 00461210 f   render_win32.release:graphicsprotocol.obj
 0001:00060220       ?GetRtti@RegisterAnimEventHandler@Graphics@@UBEPAVRtti@Core@@XZ 00461220 f   render_win32.release:graphicsprotocol.obj
 0001:00060230       ?FactoryCreator@RegisterAnimEventHandler@Graphics@@SAPAVRefCounted@Core@@XZ 00461230 f   render_win32.release:graphicsprotocol.obj
 0001:00060240       ?Create@RegisterAnimEventHandler@Graphics@@SAPAV12@XZ 00461240 f   render_win32.release:graphicsprotocol.obj
 0001:00060290       ?RegisterWithFactory@RegisterAnimEventHandler@Graphics@@SA_NXZ 00461290 f   render_win32.release:graphicsprotocol.obj
 0001:00060390       ?GetId@RegisterAnimEventHandler@Graphics@@UBEABVId@Messaging@@XZ 00461390 f   render_win32.release:graphicsprotocol.obj
 0001:000603a0       ?GetRtti@UnregisterAnimEventHandler@Graphics@@UBEPAVRtti@Core@@XZ 004613a0 f   render_win32.release:graphicsprotocol.obj
 0001:000603b0       ?FactoryCreator@UnregisterAnimEventHandler@Graphics@@SAPAVRefCounted@Core@@XZ 004613b0 f   render_win32.release:graphicsprotocol.obj
 0001:000603c0       ?Create@UnregisterAnimEventHandler@Graphics@@SAPAV12@XZ 004613c0 f   render_win32.release:graphicsprotocol.obj
 0001:00060420       ?RegisterWithFactory@UnregisterAnimEventHandler@Graphics@@SA_NXZ 00461420 f   render_win32.release:graphicsprotocol.obj
 0001:00060520       ?GetId@UnregisterAnimEventHandler@Graphics@@UBEABVId@Messaging@@XZ 00461520 f   render_win32.release:graphicsprotocol.obj
 0001:00060530       ?GetRtti@PreloadMousePointerTextures@Graphics@@UBEPAVRtti@Core@@XZ 00461530 f   render_win32.release:graphicsprotocol.obj
