 forestviewer

 Timestamp is 68d87569 (Sun Sep 28 02:38:17 2025)

 Preferred load address is 00400000

 Start         Length     Name                   Class
 0001:00000000 00206e19H .text                   CODE
 0001:00206e20 0000734fH .text$yc                CODE
 0001:0020e170 00007e73H .text$yd                CODE
 0002:00000000 000003b0H .idata$5                DATA
 0002:000003b0 00000004H .CRT$XCA                DATA
 0002:000003b4 00000004H .CRT$XCAA               DATA
 0002:000003b8 0000080cH .CRT$XCU                DATA
 0002:00000bc4 00000004H .CRT$XCZ                DATA
 0002:00000bc8 00000004H .CRT$XIA                DATA
 0002:00000bcc 00000004H .CRT$XIAA               DATA
 0002:00000bd0 00000004H .CRT$XIC                DATA
 0002:00000bd4 00000004H .CRT$XIY                DATA
 0002:00000bd8 00000004H .CRT$XIZ                DATA
 0002:00000bdc 00000004H .CRT$XLA                DATA
 0002:00000be0 00000004H .CRT$XLZ                DATA
 0002:00000bf0 00040be0H .rdata                  DATA
 0002:000417d0 00000018H .rdata$T                DATA
 0002:000417e8 0000003eH .rdata$debug            DATA
 0002:00041830 00000008H .rdata$sxdata           DATA
 0002:00041838 00000004H .rtc$IAA                DATA
 0002:0004183c 00000004H .rtc$IZZ                DATA
 0002:00041840 00000004H .rtc$TAA                DATA
 0002:00041844 00000004H .rtc$TZZ                DATA
 0002:00041848 00000094H .xdata$x                DATA
 0002:000418dc 00000104H .idata$2                DATA
 0002:000419e0 00000014H .idata$3                DATA
 0002:000419f4 000003b0H .idata$4                DATA
 0002:00041da4 00000db0H .idata$6                DATA
 0002:00042b54 00000000H .edata                  DATA
 0003:00000000 00000280H .data                   DATA
 0003:00000280 00005674H .bss                    DATA
 0004:00000000 00000001H .tls                    DATA
 0004:00000004 0000007cH .stls                   DATA
 0004:00000080 00000070H .tls$                   DATA
 0004:000000f0 00000001H .tls$ZZZ                DATA

  Address         Publics by Value              Rva+Base       Lib:Object

 0000:00000000       __except_list              00000000     <absolute>
 0000:00000002       ___safe_se_handler_count   00000002     <absolute>
 0000:0000002c       __tls_array                0000002c     <absolute>
 0000:00009876       __fltused                  00009876     <absolute>
 0000:00009876       __ldused                   00009876     <absolute>
 0000:00000000       ___ImageBase               00400000     <linker-defined>
 0001:00000000       _IXACT3SoundBank_Destroy@4 00401000 f i stdneb.obj
 0001:00000020       _IXACT3SoundBank_GetCueIndex@8 00401020 f i stdneb.obj
 0001:00000040       _IXACT3SoundBank_GetNumCues@8 00401040 f i stdneb.obj
 0001:00000060       _IXACT3SoundBank_GetCueProperties@12 00401060 f i stdneb.obj
 0001:00000080       _IXACT3SoundBank_Prepare@20 00401080 f i stdneb.obj
 0001:000000b0       _IXACT3SoundBank_Play@20   004010b0 f i stdneb.obj
 0001:000000e0       _IXACT3SoundBank_Stop@12   004010e0 f i stdneb.obj
 0001:00000100       _IXACT3SoundBank_GetState@8 00401100 f i stdneb.obj
 0001:00000120       _IXACT3WaveBank_Destroy@4  00401120 f i stdneb.obj
 0001:00000140       _IXACT3WaveBank_GetNumWaves@8 00401140 f i stdneb.obj
 0001:00000160       _IXACT3WaveBank_GetWaveIndex@8 00401160 f i stdneb.obj
 0001:00000180       _IXACT3WaveBank_GetWaveProperties@12 00401180 f i stdneb.obj
 0001:000001a0       _IXACT3WaveBank_Prepare@24 004011a0 f i stdneb.obj
 0001:000001d0       _IXACT3WaveBank_Play@24    004011d0 f i stdneb.obj
 0001:00000200       _IXACT3WaveBank_Stop@12    00401200 f i stdneb.obj
 0001:00000220       _IXACT3WaveBank_GetState@8 00401220 f i stdneb.obj
 0001:00000240       _IXACT3Wave_Destroy@4      00401240 f i stdneb.obj
 0001:00000260       _IXACT3Wave_Play@4         00401260 f i stdneb.obj
 0001:00000280       _IXACT3Wave_Stop@8         00401280 f i stdneb.obj
 0001:000002a0       _IXACT3Wave_Pause@8        004012a0 f i stdneb.obj
 0001:000002c0       _IXACT3Wave_GetState@8     004012c0 f i stdneb.obj
 0001:000002e0       _IXACT3Wave_SetPitch@8     004012e0 f i stdneb.obj
 0001:00000300       _IXACT3Wave_SetVolume@8    00401300 f i stdneb.obj
 0001:00000320       _IXACT3Wave_SetMatrixCoefficients@16 00401320 f i stdneb.obj
 0001:00000350       _IXACT3Wave_GetProperties@8 00401350 f i stdneb.obj
 0001:00000370       _IXACT3Cue_Play@4          00401370 f i stdneb.obj
 0001:00000390       _IXACT3Cue_Stop@8          00401390 f i stdneb.obj
 0001:000003b0       _IXACT3Cue_GetState@8      004013b0 f i stdneb.obj
 0001:000003d0       _IXACT3Cue_Destroy@4       004013d0 f i stdneb.obj
 0001:000003f0       _IXACT3Cue_SetMatrixCoefficients@16 004013f0 f i stdneb.obj
 0001:00000420       _IXACT3Cue_GetVariableIndex@8 00401420 f i stdneb.obj
 0001:00000440       _IXACT3Cue_SetVariable@12  00401440 f i stdneb.obj
 0001:00000470       _IXACT3Cue_GetVariable@12  00401470 f i stdneb.obj
 0001:00000490       _IXACT3Cue_Pause@8         00401490 f i stdneb.obj
 0001:000004b0       _IXACT3Cue_GetProperties@8 004014b0 f i stdneb.obj
 0001:000004d0       _IXACT3Cue_SetOutputVoices@8 004014d0 f i stdneb.obj
 0001:000004f0       _IXACT3Cue_SetOutputVoiceMatrix@20 004014f0 f i stdneb.obj
 0001:00000520       _IXACT3Engine_AddRef@4     00401520 f i stdneb.obj
 0001:00000540       _IXACT3Engine_Release@4    00401540 f i stdneb.obj
 0001:00000560       _IXACT3Engine_GetRendererCount@8 00401560 f i stdneb.obj
 0001:00000580       _IXACT3Engine_GetRendererDetails@12 00401580 f i stdneb.obj
 0001:000005a0       _IXACT3Engine_GetFinalMixFormat@8 004015a0 f i stdneb.obj
 0001:000005c0       _IXACT3Engine_Initialize@8 004015c0 f i stdneb.obj
 0001:000005e0       _IXACT3Engine_ShutDown@4   004015e0 f i stdneb.obj
 0001:00000600       _IXACT3Engine_DoWork@4     00401600 f i stdneb.obj
 0001:00000620       _IXACT3Engine_CreateSoundBank@24 00401620 f i stdneb.obj
 0001:00000650       _IXACT3Engine_CreateInMemoryWaveBank@24 00401650 f i stdneb.obj
 0001:00000680       _IXACT3Engine_CreateStreamingWaveBank@12 00401680 f i stdneb.obj
 0001:000006a0       _IXACT3Engine_PrepareWave@32 004016a0 f i stdneb.obj
 0001:000006e0       _IXACT3Engine_PrepareInMemoryWave@52 004016e0 f i stdneb.obj
 0001:00000740       _IXACT3Engine_PrepareStreamingWave@68 00401740 f i stdneb.obj
 0001:000007c0       _IXACT3Engine_RegisterNotification@8 004017c0 f i stdneb.obj
 0001:000007e0       _IXACT3Engine_UnRegisterNotification@8 004017e0 f i stdneb.obj
 0001:00000800       _IXACT3Engine_GetCategory@8 00401800 f i stdneb.obj
 0001:00000820       _IXACT3Engine_Stop@12      00401820 f i stdneb.obj
 0001:00000840       _IXACT3Engine_SetVolume@12 00401840 f i stdneb.obj
 0001:00000870       _IXACT3Engine_Pause@12     00401870 f i stdneb.obj
 0001:00000890       _IXACT3Engine_GetGlobalVariableIndex@8 00401890 f i stdneb.obj
 0001:000008b0       _IXACT3Engine_SetGlobalVariable@12 004018b0 f i stdneb.obj
 0001:000008e0       _IXACT3Engine_GetGlobalVariable@12 004018e0 f i stdneb.obj
 0001:00000900       ?Decrement@Win360Interlocked@Win360@@SAHACH@Z 00401900 f i forestviewer.obj
 0001:00000920       ?__HeapUnalignPointer16@Memory@@YAPAEPAE@Z 00401920 f i forestviewer.obj
 0001:00000940       ?__HeapFree16@Memory@@YAHPAXK0@Z 00401940 f i forestviewer.obj
 0001:00000980       ??2@YAPAXI@Z               00401980 f i forestviewer.obj
 0001:000009a0       ??_U@YAPAXI@Z              004019a0 f i forestviewer.obj
 0001:000009c0       ??3@YAXPAX@Z               004019c0 f i forestviewer.obj
 0001:000009e0       ??_V@YAXPAX@Z              004019e0 f i forestviewer.obj
 0001:00000a00       ?Free@Win360Heap@Win360@@QAEXPAX@Z 00401a00 f i forestviewer.obj
 0001:00000a80       ??3String@Util@@SAXPAX@Z   00401a80 f i forestviewer.obj
 0001:00000aa0       ??0String@Util@@QAE@XZ     00401aa0 f i forestviewer.obj
 0001:00000ae0       ?Delete@String@Util@@AAEXXZ 00401ae0 f i forestviewer.obj
 0001:00000b30       ??1String@Util@@QAE@XZ     00401b30 f i forestviewer.obj
 0001:00000b80       ??0String@Util@@QAE@PBD@Z  00401b80 f i forestviewer.obj
 0001:00000bc0       ?AsCharPtr@String@Util@@QBEPBDXZ 00401bc0 f i forestviewer.obj
 0001:00000bf0       ??4String@Util@@QAEXABV01@@Z 00401bf0 f i forestviewer.obj
 0001:00000c30       ?SetCompanyName@Application@App@@QAEXABVString@Util@@@Z 00401c30 f i forestviewer.obj
 0001:00000c80       ?SetAppTitle@Application@App@@QAEXABVString@Util@@@Z 00401c80 f i forestviewer.obj
 0001:00000cd0       ?SetCmdLineArgs@Application@App@@QAEXABVCommandLineArgs@Util@@@Z 00401cd0 f i forestviewer.obj
 0001:00000d00       ??4CommandLineArgs@Util@@QAEAAV01@ABV01@@Z 00401d00 f i forestviewer.obj
 0001:00000d20       ?Release@RefCounted@Core@@QAEXXZ 00401d20 f i forestviewer.obj
 0001:00000d70       ??3Blob@Util@@SAXPAX@Z     00401d70 f i forestviewer.obj
 0001:00000d90       ?IsValid@Blob@Util@@QBE_NXZ 00401d90 f i forestviewer.obj
 0001:00000db0       ?Delete@Blob@Util@@AAEXXZ  00401db0 f i forestviewer.obj
 0001:00000e90       ??1Blob@Util@@QAE@XZ       00401e90 f i forestviewer.obj
 0001:00000eb0       ??_GString@Util@@QAEPAXI@Z 00401eb0 f i forestviewer.obj
 0001:00000f20       ??_H@YGXPAXIHP6EPAX0@Z@Z   00401f20 f i forestviewer.obj
 0001:00000f50       _WinMain@16                00401f50 f   forestviewer.obj
 0001:00000fe0       ??1CommandLineArgs@Util@@QAE@XZ 00401fe0 f i forestviewer.obj
 0001:00001000       ?NebulaMain@@YAXABVCommandLineArgs@Util@@@Z 00402000 f   forestviewer.obj
 0001:000011a0       ??1?$Array@VString@Util@@@Util@@QAE@XZ 004021a0 f i forestviewer.obj
 0001:000011c0       ??4?$Array@VString@Util@@@Util@@QAEXABV01@@Z 004021c0 f i forestviewer.obj
 0001:000012f0       ??_EString@Util@@QAEPAXI@Z 004022f0 f i forestviewer.obj
 0001:00001400       ??1?$KeyValuePair@VStringAtom@Util@@V?$Ptr@VRenderTarget@CoreGraphics@@@@@Util@@QAE@XZ 00402400 f i forestviewer.obj
 0001:00001420       ??1?$KeyValuePair@VStringAtom@Util@@V?$Ptr@VMultipleRenderTarget@CoreGraphics@@@@@Util@@QAE@XZ 00402420 f i forestviewer.obj
 0001:00001440       ??1?$KeyValuePair@VStringAtom@Util@@V?$Ptr@VManagedTexture@Resources@@@@@Util@@QAE@XZ 00402440 f i forestviewer.obj
 0001:00001460       ??_I@YGXPAXIHP6EX0@Z@Z     00402460 f i forestviewer.obj
 0001:00001490       ?Destroy@?$Array@VString@Util@@@Util@@AAEXPAVString@2@@Z 00402490 f i forestviewer.obj
 0001:000014b0       ?Copy@?$Array@VString@Util@@@Util@@AAEXABV12@@Z 004024b0 f i forestviewer.obj
 0001:00001630       ?Delete@?$Array@VString@Util@@@Util@@AAEXXZ 00402630 f i forestviewer.obj
 0001:000016a0       ??1?$Ptr@VRenderTarget@CoreGraphics@@@@QAE@XZ 004026a0 f i forestviewer.obj
 0001:000016d0       ??1?$Ptr@VMultipleRenderTarget@CoreGraphics@@@@QAE@XZ 004026d0 f i forestviewer.obj
 0001:00001700       ??1?$Ptr@VManagedTexture@Resources@@@@QAE@XZ 00402700 f i forestviewer.obj
 0001:00001730       ??_E?$Ptr@VConsoleHandler@IO@@@@QAEPAXI@Z 00402730 f i forestviewer.obj
 0001:000017d0       ??_EBlob@Util@@QAEPAXI@Z   004027d0 f i forestviewer.obj
 0001:00001870       ??_E?$Ptr@VResourceMapper@Resources@@@@QAEPAXI@Z 00402870 f i forestviewer.obj
 0001:00001910       ??_E?$Ptr@VVisibilitySystemBase@Visibility@@@@QAEPAXI@Z 00402910 f i forestviewer.obj
 0001:000019b0       ??_ERenderShape@CoreGraphics@@QAEPAXI@Z 004029b0 f i forestviewer.obj
 0001:00001a60       ??_ETextElement@CoreGraphics@@QAEPAXI@Z 00402a60 f i forestviewer.obj
 0001:00001b00       ??1RenderShape@CoreGraphics@@QAE@XZ 00402b00 f i forestviewer.obj
 0001:00001b20       ??1TextElement@CoreGraphics@@QAE@XZ 00402b20 f i forestviewer.obj
 0001:00001b80       ??1?$Ptr@VConsoleHandler@IO@@@@QAE@XZ 00402b80 f i forestviewer.obj
 0001:00001bb0       ??1?$Ptr@VResourceMapper@Resources@@@@QAE@XZ 00402bb0 f i forestviewer.obj
 0001:00001be0       ??1?$Ptr@VVisibilitySystemBase@Visibility@@@@QAE@XZ 00402be0 f i forestviewer.obj
 0001:00001c10       ??1?$Ptr@VMemoryStream@IO@@@@QAE@XZ 00402c10 f i forestviewer.obj
 0001:00001c40       ??_E?$Ptr@VInternalGraphicsEntity@InternalGraphics@@@@QAEPAXI@Z 00402c40 f i forestviewer.obj
 0001:00001ce0       ??_E?$Ptr@VShaderVariableInstance@CoreGraphics@@@@QAEPAXI@Z 00402ce0 f i forestviewer.obj
 0001:00001d80       ??_E?$Ptr@VFrameBatch@Frame@@@@QAEPAXI@Z 00402d80 f i forestviewer.obj
 0001:00001e20       ??_E?$Ptr@VFramePassBase@Frame@@@@QAEPAXI@Z 00402e20 f i forestviewer.obj
 0001:00001ec0       ??1?$Ptr@VInternalGraphicsEntity@InternalGraphics@@@@QAE@XZ 00402ec0 f i forestviewer.obj
 0001:00001ef0       ??1?$Ptr@VShaderVariableInstance@CoreGraphics@@@@QAE@XZ 00402ef0 f i forestviewer.obj
 0001:00001f20       ??1?$Ptr@VFrameBatch@Frame@@@@QAE@XZ 00402f20 f i forestviewer.obj
 0001:00001f50       ??1?$Ptr@VFramePassBase@Frame@@@@QAE@XZ 00402f50 f i forestviewer.obj
 0001:00001f80       ??_E?$Ptr@VModel@Models@@@@QAEPAXI@Z 00402f80 f i forestviewer.obj
 0001:00002020       ??_E?$KeyValuePair@VStringAtom@Util@@V?$Ptr@VRenderTarget@CoreGraphics@@@@@Util@@QAEPAXI@Z 00403020 f i forestviewer.obj
 0001:000020c0       ??_E?$KeyValuePair@VStringAtom@Util@@V?$Ptr@VMultipleRenderTarget@CoreGraphics@@@@@Util@@QAEPAXI@Z 004030c0 f i forestviewer.obj
 0001:00002160       ??_E?$KeyValuePair@VStringAtom@Util@@V?$Ptr@VManagedTexture@Resources@@@@@Util@@QAEPAXI@Z 00403160 f i forestviewer.obj
 0001:00002200       ??1?$Ptr@VModel@Models@@@@QAE@XZ 00403200 f i forestviewer.obj
 0001:00002230       ?Increment@Win360Interlocked@Win360@@SAHACH@Z 00403230 f i forestviewerapplication.obj
 0001:00002250       ?n_deg2rad@Math@@YAMM@Z    00403250 f i forestviewerapplication.obj
 0001:00002270       ??0float4@Math@@QAE@MMMM@Z 00403270 f i forestviewerapplication.obj
 0001:000022c0       ??0float4@Math@@QAE@T__m128@@@Z 004032c0 f i forestviewerapplication.obj
 0001:000022f0       ??0float2@Math@@QAE@MM@Z   004032f0 f i forestviewerapplication.obj
 0001:00002320       ??4float2@Math@@QAEXABV01@@Z 00403320 f i forestviewerapplication.obj
 0001:00002350       ??0vector@Math@@QAE@MMM@Z  00403350 f i forestviewerapplication.obj
 0001:000023b0       ??0point@Math@@QAE@XZ      004033b0 f i forestviewerapplication.obj
 0001:00002440       ??0point@Math@@QAE@MMM@Z   00403440 f i forestviewerapplication.obj
 0001:000024a0       ??0point@Math@@QAE@T__m128@@@Z 004034a0 f i forestviewerapplication.obj
 0001:000024d0       ??4point@Math@@QAEXABV01@@Z 004034d0 f i forestviewerapplication.obj
 0001:000024f0       ??Hpoint@Math@@QBE?AV01@ABVvector@1@@Z 004034f0 f i forestviewerapplication.obj
 0001:00002550       ??Gpoint@Math@@QBE?AV01@ABVvector@1@@Z 00403550 f i forestviewerapplication.obj
 0001:000025b0       ??0matrix44@Math@@QAE@ABU_XMMATRIX@@@Z 004035b0 f i forestviewerapplication.obj
 0001:000025e0       ??4matrix44@Math@@QAEXABV01@@Z 004035e0 f i forestviewerapplication.obj
 0001:00002630       ?identity@matrix44@Math@@SA?AV12@XZ 00403630 f i forestviewerapplication.obj
 0001:000026e0       ?rotationx@matrix44@Math@@SA?AV12@M@Z 004036e0 f i forestviewerapplication.obj
 0001:00002720       ?translation@matrix44@Math@@SA?AV12@MMM@Z 00403720 f i forestviewerapplication.obj
 0001:000027e0       ??4String@Util@@QAEXPBD@Z  004037e0 f i forestviewerapplication.obj
 0001:00002800       ?IsOpen@Application@App@@QBE_NXZ 00403800 f i forestviewerapplication.obj
 0001:00002820       ?AddRef@RefCounted@Core@@QAEXXZ 00403820 f i forestviewerapplication.obj
 0001:00002840       ??0StringAtom@Util@@QAE@PBD@Z 00403840 f i forestviewerapplication.obj
 0001:00002870       ??4StringAtom@Util@@QAEXABV01@@Z 00403870 f i forestviewerapplication.obj
 0001:00002890       ??0bbox@Math@@QAE@ABVpoint@1@ABVvector@1@@Z 00403890 f i forestviewerapplication.obj
 0001:00002aa0       ?SetThreadId@RenderDebugView@Debug@@QAEXABK@Z 00403aa0 f i forestviewerapplication.obj
 0001:00002ae0       ?SetEnableDebugRendering@RenderDebugView@Debug@@QAEX_N@Z 00403ae0 f i forestviewerapplication.obj
 0001:00002b20       ?Instance@GraphicsInterface@Graphics@@SAPAV12@XZ 00403b20 f i forestviewerapplication.obj
 0001:00002b50       ?SetVerticalSyncEnabled@DisplaySettings@Graphics@@QAEX_N@Z 00403b50 f i forestviewerapplication.obj
 0001:00002b70       ?Settings@Display@Graphics@@QAEAAVDisplaySettings@2@XZ 00403b70 f i forestviewerapplication.obj
 0001:00002b90       ?GetDefaultKeyboard@InputServerBase@Base@@QBEABV?$Ptr@VKeyboard@Input@@@@XZ 00403b90 f i forestviewerapplication.obj
 0001:00002bd0       ?Instance@InputServer@Input@@SAPAV12@XZ 00403bd0 f i forestviewerapplication.obj
 0001:00002c00       ?GetFrameTime@RenderApplication@App@@IBENXZ 00403c00 f i forestviewerapplication.obj
 0001:00002c20       ?SetOrbitButton@MayaCameraUtil@RenderUtil@@QAEX_N@Z 00403c20 f i forestviewerapplication.obj
 0001:00002c40       ?GetCameraTransform@MayaCameraUtil@RenderUtil@@QBEABVmatrix44@Math@@XZ 00403c40 f i forestviewerapplication.obj
 0001:00002c60       ?SetOrbiting@MayaCameraUtil@RenderUtil@@QAEXABVfloat2@Math@@@Z 00403c60 f i forestviewerapplication.obj
 0001:00002c90       ?Instance@DebugTextRenderer@Debug@@SAPAV12@XZ 00403c90 f i forestviewerapplication.obj
 0001:00002cd0       ?SetResourceId@ModelEntity@Graphics@@QAEXABVStringAtom@Util@@@Z 00403cd0 f i forestviewerapplication.obj
 0001:00002cf0       ?KeyDown@KeyboardBase@Base@@QBE_NW4Code@Key@Input@@@Z 00403cf0 f i forestviewerapplication.obj
 0001:00002d10       ?ButtonDown@GamePadBase@Base@@QBE_NW4Button@12@@Z 00403d10 f i forestviewerapplication.obj
 0001:00002d60       ??0ForestViewerApplication@Tools@@QAE@XZ 00403d60 f   forestviewerapplication.obj
 0001:00002e00       ??_GForestViewerApplication@Tools@@UAEPAXI@Z 00403e00 f i forestviewerapplication.obj
 0001:00002e00       ??_EForestViewerApplication@Tools@@UAEPAXI@Z 00403e00 f i  CIL library: CIL module
 0001:00002e30       ??1ForestViewerApplication@Tools@@UAE@XZ 00403e30 f   forestviewerapplication.obj
 0001:00002eb0       ?Open@ForestViewerApplication@Tools@@UAE_NXZ 00403eb0 f   forestviewerapplication.obj
 0001:00002f70       ?Close@ForestViewerApplication@Tools@@UAEXXZ 00403f70 f   forestviewerapplication.obj
 0001:00002fd0       ?SetupLights@ForestViewerApplication@Tools@@AAEXXZ 00403fd0 f   forestviewerapplication.obj
 0001:000032b0       ?DestroyLights@ForestViewerApplication@Tools@@AAEXXZ 004042b0 f   forestviewerapplication.obj
 0001:000032f0       ?SetupGeometry@ForestViewerApplication@Tools@@AAEXXZ 004042f0 f   forestviewerapplication.obj
 0001:00003b80       ?DestroyGeometry@ForestViewerApplication@Tools@@AAEXXZ 00404b80 f   forestviewerapplication.obj
 0001:00003be0       ?OnConfigureDisplay@ForestViewerApplication@Tools@@EAEXXZ 00404be0 f   forestviewerapplication.obj
 0001:00003c10       ?OnProcessInput@ForestViewerApplication@Tools@@EAEXXZ 00404c10 f   forestviewerapplication.obj
 0001:00003eb0       ?OnUpdateFrame@ForestViewerApplication@Tools@@EAEXXZ 00404eb0 f   forestviewerapplication.obj
 0001:00004450       ??C?$Ptr@VKeyboard@Input@@@@QBEPAVKeyboard@Input@@XZ 00405450 f i forestviewerapplication.obj
 0001:00004490       ??C?$Ptr@VDisplay@Graphics@@@@QBEPAVDisplay@Graphics@@XZ 00405490 f i forestviewerapplication.obj
 0001:000044d0       ??C?$Ptr@VStage@Graphics@@@@QBEPAVStage@Graphics@@XZ 004054d0 f i forestviewerapplication.obj
 0001:00004510       ??C?$Ptr@VCameraEntity@Graphics@@@@QBEPAVCameraEntity@Graphics@@XZ 00405510 f i forestviewerapplication.obj
 0001:00004550       ??0?$Ptr@VModelEntity@Graphics@@@@QAE@XZ 00405550 f i forestviewerapplication.obj
 0001:00004570       ??1?$Ptr@VModelEntity@Graphics@@@@QAE@XZ 00405570 f i forestviewerapplication.obj
 0001:000045a0       ??4?$Ptr@VModelEntity@Graphics@@@@QAEXPAVModelEntity@Graphics@@@Z 004055a0 f i forestviewerapplication.obj
 0001:00004600       ??C?$Ptr@VModelEntity@Graphics@@@@QBEPAVModelEntity@Graphics@@XZ 00405600 f i forestviewerapplication.obj
 0001:00004640       ??0?$Array@V?$Ptr@VModelEntity@Graphics@@@@@Util@@QAE@XZ 00405640 f i forestviewerapplication.obj
 0001:00004680       ??1?$Array@V?$Ptr@VModelEntity@Graphics@@@@@Util@@QAE@XZ 00405680 f i forestviewerapplication.obj
 0001:000046a0       ??0?$Ptr@VGlobalLightEntity@Graphics@@@@QAE@XZ 004056a0 f i forestviewerapplication.obj
 0001:000046c0       ??1?$Ptr@VGlobalLightEntity@Graphics@@@@QAE@XZ 004056c0 f i forestviewerapplication.obj
 0001:000046f0       ??4?$Ptr@VGlobalLightEntity@Graphics@@@@QAEXPAVGlobalLightEntity@Graphics@@@Z 004056f0 f i forestviewerapplication.obj
 0001:00004750       ??C?$Ptr@VGlobalLightEntity@Graphics@@@@QBEPAVGlobalLightEntity@Graphics@@XZ 00405750 f i forestviewerapplication.obj
 0001:00004790       ??0?$Array@N@Util@@QAE@XZ  00405790 f i forestviewerapplication.obj
 0001:000047d0       ??1?$Array@N@Util@@QAE@XZ  004057d0 f i forestviewerapplication.obj
 0001:000047f0       ??A?$Array@N@Util@@QBEAANH@Z 004057f0 f i forestviewerapplication.obj
 0001:00004840       ?Append@?$Array@N@Util@@QAEXABN@Z 00405840 f i forestviewerapplication.obj
 0001:000048b0       ?Size@?$Array@N@Util@@QBEHXZ 004058b0 f i forestviewerapplication.obj
 0001:000048d0       ??0?$Ptr@VForestRenderModule@Forest@@@@QAE@XZ 004058d0 f i forestviewerapplication.obj
 0001:000048f0       ??1?$Ptr@VForestRenderModule@Forest@@@@QAE@XZ 004058f0 f i forestviewerapplication.obj
 0001:00004920       ??4?$Ptr@VForestRenderModule@Forest@@@@QAEXPAVForestRenderModule@Forest@@@Z 00405920 f i forestviewerapplication.obj
 0001:00004980       ??C?$Ptr@VForestRenderModule@Forest@@@@QBEPAVForestRenderModule@Forest@@XZ 00405980 f i forestviewerapplication.obj
 0001:000049c0       ??A?$FixedArray@VKeyState@KeyboardBase@Base@@@Util@@QBEAAVKeyState@KeyboardBase@Base@@H@Z 004059c0 f i forestviewerapplication.obj
 0001:00004a10       ??A?$FixedArray@UButtonState@GamePadBase@Base@@@Util@@QBEAAUButtonState@GamePadBase@Base@@H@Z 00405a10 f i forestviewerapplication.obj
 0001:00004a60       ??$cast@VGraphicsEntity@Graphics@@@?$Ptr@VGlobalLightEntity@Graphics@@@@QBEABV?$Ptr@VGraphicsEntity@Graphics@@@@XZ 00405a60 f i forestviewerapplication.obj
 0001:00004a70       ??$cast@VGraphicsEntity@Graphics@@@?$Ptr@VModelEntity@Graphics@@@@QBEABV?$Ptr@VGraphicsEntity@Graphics@@@@XZ 00405a70 f i forestviewerapplication.obj
 0001:00004a80       ??1?$Ptr@VGamePad@Input@@@@QAE@XZ 00405a80 f i forestviewerapplication.obj
 0001:00004ab0       ??C?$Ptr@VGamePad@Input@@@@QBEPAVGamePad@Input@@XZ 00405ab0 f i forestviewerapplication.obj
 0001:00004af0       ?isvalid@?$Ptr@VGamePad@Input@@@@QBE_NXZ 00405af0 f i forestviewerapplication.obj
 0001:00004b10       ??0?$Ptr@VRenderDebugView@Debug@@@@QAE@PAVRenderDebugView@Debug@@@Z 00405b10 f i forestviewerapplication.obj
 0001:00004b50       ??1?$Ptr@VRenderDebugView@Debug@@@@QAE@XZ 00405b50 f i forestviewerapplication.obj
 0001:00004b80       ??C?$Ptr@VRenderDebugView@Debug@@@@QBEPAVRenderDebugView@Debug@@XZ 00405b80 f i forestviewerapplication.obj
 0001:00004bc0       ??$cast@VMessage@Messaging@@@?$Ptr@VRenderDebugView@Debug@@@@QBEABV?$Ptr@VMessage@Messaging@@@@XZ 00405bc0 f i forestviewerapplication.obj
 0001:00004bd0       ?Delete@?$Array@V?$Ptr@VModelEntity@Graphics@@@@@Util@@AAEXXZ 00405bd0 f i forestviewerapplication.obj
 0001:00004c40       ?Delete@?$Array@N@Util@@AAEXXZ 00405c40 f i forestviewerapplication.obj
 0001:00004ca0       ?Grow@?$Array@N@Util@@AAEXXZ 00405ca0 f i forestviewerapplication.obj
 0001:00004d20       ??_E?$Ptr@VModelEntity@Graphics@@@@QAEPAXI@Z 00405d20 f i forestviewerapplication.obj
 0001:00004dc0       ?GrowTo@?$Array@N@Util@@AAEXH@Z 00405dc0 f i forestviewerapplication.obj
 0001:00004e70       ?XMMatrixTranslation@@YA?AU_XMMATRIX@@MMM@Z 00405e70 f i forestviewerapplication.obj
 0001:00004f10       ?XMMatrixRotationX@@YA?AU_XMMATRIX@@M@Z 00405f10 f i forestviewerapplication.obj
 0001:00005090       ??4_XMMATRIX@@QAEAAU0@ABU0@@Z 00406090 f i forestviewerapplication.obj
 0001:000050f0       ??0_XMMATRIX@@QAE@XZ       004060f0 f i forestviewerapplication.obj
 0001:00005100       ?XMMatrixIdentity@@YA?AU_XMMATRIX@@XZ 00406100 f i forestviewerapplication.obj
 0001:00005190       ??BXMVECTORF32@@QBE?AT__m128@@XZ 00406190 f i forestviewerapplication.obj
 0001:000051c0       ?XMVectorSubtract@@YA?AT__m128@@T1@0@Z 004061c0 f i forestviewerapplication.obj
 0001:000051f0       ?XMVectorAdd@@YA?AT__m128@@T1@0@Z 004061f0 f i forestviewerapplication.obj
 0001:00005220       ?XMVectorSet@@YA?AT__m128@@MMMM@Z 00406220 f i forestviewerapplication.obj
 0001:00005260       _cosf                      00406260 f i forestviewerapplication.obj
 0001:00005280       _sinf                      00406280 f i forestviewerapplication.obj
 0001:000052a0       ?Instance@Console@IO@@SAPAV12@XZ 004062a0 f i foundation_win32.release:debug.obj
 0001:000052d0       ?HasInstance@Console@IO@@SA_NXZ 004062d0 f i foundation_win32.release:debug.obj
 0001:000052f0       ?n_barf@@YAXPBD0H@Z        004062f0 f   foundation_win32.release:debug.obj
 0001:00005390       ?n_barf2@@YAXPBD00H@Z      00406390 f   foundation_win32.release:debug.obj
 0001:00005430       ?n_error@@YAXPBDZZ         00406430 f   foundation_win32.release:debug.obj
 0001:000054f0       ?n_warning@@YAXPBDZZ       004064f0 f   foundation_win32.release:debug.obj
 0001:000055b0       ?n_confirm@@YAXPBDZZ       004065b0 f   foundation_win32.release:debug.obj
 0001:00005670       ?n_printf@@YAXPBDZZ        00406670 f   foundation_win32.release:debug.obj
 0001:000056c0       ?n_dbgout@@YAXPBDZZ        004066c0 f   foundation_win32.release:debug.obj
 0001:00005710       ?n_sleep@@YAXN@Z           00406710 f   foundation_win32.release:debug.obj
 0001:00005730       ?__HeapAlignPointerAndWritePadding16@Memory@@YAPAEPAE@Z 00406730 f i foundation_win32.release:win360memory.obj
 0001:00005760       ?__HeapAlloc16@Memory@@YAPAXPAXKK@Z 00406760 f i foundation_win32.release:win360memory.obj
 0001:000057b0       ?__HeapReAlloc16@Memory@@YAPAXPAXK0K@Z 004067b0 f i foundation_win32.release:win360memory.obj
 0001:000058d0       ?Copy@Memory@@YAXPBXPAXI@Z 004068d0 f i foundation_win32.release:win360memory.obj
 0001:00005940       ?Alloc@Memory@@YAPAXW4HeapType@1@I@Z 00406940 f   foundation_win32.release:win360memory.obj
 0001:00005a30       ?Realloc@Memory@@YAPAXW4HeapType@1@PAXI@Z 00406a30 f   foundation_win32.release:win360memory.obj
 0001:00005be0       ?Free@Memory@@YAXW4HeapType@1@PAX@Z 00406be0 f   foundation_win32.release:win360memory.obj
 0001:00005c70       ?DuplicateCString@Memory@@YAPADPBD@Z 00406c70 f   foundation_win32.release:win360memory.obj
 0001:00005d50       ?IsOverlapping@Memory@@YA_NPBEI0I@Z 00406d50 f   foundation_win32.release:win360memory.obj
 0001:00005d90       ?GetTotalMemoryStatus@Memory@@YA?AUTotalMemoryStatus@1@XZ 00406d90 f   foundation_win32.release:win360memory.obj
 0001:00005e00       ?DumpTotalMemoryStatus@Memory@@YAXXZ 00406e00 f   foundation_win32.release:win360memory.obj
 0001:00005e20       ??0matrix44@Math@@QAE@ABVfloat4@1@000@Z 00406e20 f i foundation_win32.release:string.obj
 0001:00005e70       ?Alloc@String@Util@@AAEXH@Z 00406e70 f i foundation_win32.release:string.obj
 0001:00005f10       ?Realloc@String@Util@@AAEXH@Z 00406f10 f i foundation_win32.release:string.obj
 0001:00006060       ?Reserve@String@Util@@QAEXH@Z 00407060 f i foundation_win32.release:string.obj
 0001:00006090       ??0String@Util@@QAE@ABV01@@Z 00407090 f i foundation_win32.release:string.obj
 0001:000060f0       ?Append@String@Util@@QAEXABV12@@Z 004070f0 f i foundation_win32.release:string.obj
 0001:00006130       ??AString@Util@@QBEDH@Z    00407130 f i foundation_win32.release:string.obj
 0001:00006190       ??AString@Util@@QAEAADH@Z  00407190 f i foundation_win32.release:string.obj
 0001:000061f0       ?Length@String@Util@@QBEHXZ 004071f0 f i foundation_win32.release:string.obj
 0001:00006210       ?IsValid@String@Util@@QBE_NXZ 00407210 f i foundation_win32.release:string.obj
 0001:000062d0       ?CopyToBuffer@String@Util@@QBE_NPADH@Z 004072d0 f   foundation_win32.release:string.obj
 0001:00006380       ?Format@String@Util@@QAAXPBDZZ 00407380 f   foundation_win32.release:string.obj
 0001:00006410       ?FormatArgList@String@Util@@QAAXPBDPAD@Z 00407410 f   foundation_win32.release:string.obj
 0001:00006480       ?Set@String@Util@@QAEXPBDH@Z 00407480 f   foundation_win32.release:string.obj
 0001:000066f0       ?AppendRange@String@Util@@QAEXPBDH@Z 004076f0 f   foundation_win32.release:string.obj
 0001:00006910       ?Tokenize@String@Util@@QBEHABV12@AAV?$Array@VString@Util@@@2@@Z 00407910 f   foundation_win32.release:string.obj
 0001:00006a40       ?Tokenize@String@Util@@QBE?AV?$Array@VString@Util@@@2@ABV12@@Z 00407a40 f   foundation_win32.release:string.obj
 0001:00006a80       ?Tokenize@String@Util@@QBEHABV12@DAAV?$Array@VString@Util@@@2@@Z 00407a80 f   foundation_win32.release:string.obj
 0001:00006dd0       ?Tokenize@String@Util@@QBE?AV?$Array@VString@Util@@@2@ABV12@D@Z 00407dd0 f   foundation_win32.release:string.obj
 0001:00006e20       ?ExtractRange@String@Util@@QBE?AV12@HH@Z 00407e20 f   foundation_win32.release:string.obj
 0001:00006ee0       ?ExtractToEnd@String@Util@@QBE?AV12@H@Z 00407ee0 f   foundation_win32.release:string.obj
 0001:00006f10       ?Strip@String@Util@@QAEXABV12@@Z 00407f10 f   foundation_win32.release:string.obj
 0001:00006fd0       ?FindStringIndex@String@Util@@QBEHABV12@H@Z 00407fd0 f   foundation_win32.release:string.obj
 0001:000070c0       ?FindCharIndex@String@Util@@QBEHDH@Z 004080c0 f   foundation_win32.release:string.obj
 0001:00007170       ?TrimLeft@String@Util@@QAEXABV12@@Z 00408170 f   foundation_win32.release:string.obj
 0001:00007350       ?TrimRight@String@Util@@QAEXABV12@@Z 00408350 f   foundation_win32.release:string.obj
 0001:00007530       ?Trim@String@Util@@QAEXABV12@@Z 00408530 f   foundation_win32.release:string.obj
 0001:00007560       ?SubstituteString@String@Util@@QAEXABV12@0@Z 00408560 f   foundation_win32.release:string.obj
 0001:000076b0       ?ExtractLastDirName@String@Util@@QBE?AV12@XZ 004086b0 f   foundation_win32.release:string.obj
 0001:000077e0       ?ExtractDirName@String@Util@@QBE?AV12@XZ 004087e0 f   foundation_win32.release:string.obj
 0001:000078d0       ?MatchPattern@String@Util@@SA_NABV12@0@Z 004088d0 f   foundation_win32.release:string.obj
 0001:00007be0       ?ReplaceChars@String@Util@@QAEXABV12@D@Z 00408be0 f   foundation_win32.release:string.obj
 0001:00007c90       ?AsMatrix44@String@Util@@QBE?AVmatrix44@Math@@XZ 00408c90 f   foundation_win32.release:string.obj
 0001:000080e0       ?Concatenate@String@Util@@SA?AV12@ABV?$Array@VString@Util@@@2@ABV12@@Z 004090e0 f   foundation_win32.release:string.obj
 0001:000081e0       ?SetCharPtr@String@Util@@QAEXPBD@Z 004091e0 f   foundation_win32.release:string.obj
 0001:00008240       ?Append@String@Util@@QAEXPBD@Z 00409240 f   foundation_win32.release:string.obj
 0001:000082b0       ?TerminateAtIndex@String@Util@@QAEXH@Z 004092b0 f   foundation_win32.release:string.obj
 0001:00008340       ?StripFileExtension@String@Util@@QAEXXZ 00409340 f   foundation_win32.release:string.obj
 0001:000083e0       ??8Util@@YA_NABVString@0@0@Z 004093e0 f   foundation_win32.release:string.obj
 0001:00008490       ??8Util@@YA_NABVString@0@PBD@Z 00409490 f   foundation_win32.release:string.obj
 0001:00008540       ??8Util@@YA_NPBDABVString@0@@Z 00409540 f   foundation_win32.release:string.obj
 0001:000085f0       ??9Util@@YA_NABVString@0@0@Z 004095f0 f   foundation_win32.release:string.obj
 0001:000086a0       ??MUtil@@YA_NABVString@0@0@Z 004096a0 f   foundation_win32.release:string.obj
 0001:00008750       ??OUtil@@YA_NABVString@0@0@Z 00409750 f   foundation_win32.release:string.obj
 0001:00008800       ??NUtil@@YA_NABVString@0@0@Z 00409800 f   foundation_win32.release:string.obj
 0001:000088b0       ??PUtil@@YA_NABVString@0@0@Z 004098b0 f   foundation_win32.release:string.obj
 0001:00008960       ?ToLower@String@Util@@QAEXXZ 00409960 f   foundation_win32.release:string.obj
 0001:000089c0       ?ToUpper@String@Util@@QAEXXZ 004099c0 f   foundation_win32.release:string.obj
 0001:00008a20       ?FirstCharToUpper@String@Util@@QAEXXZ 00409a20 f   foundation_win32.release:string.obj
 0001:00008a60       ?ContainsCharFromSet@String@Util@@QBE_NABV12@@Z 00409a60 f   foundation_win32.release:string.obj
 0001:00008ad0       ?GetFileExtension@String@Util@@QBE?AV12@XZ 00409ad0 f   foundation_win32.release:string.obj
 0001:00008b90       ?GetLastSlash@String@Util@@ABEPADXZ 00409b90 f   foundation_win32.release:string.obj
 0001:00008c00       ?IsValidBool@String@Util@@QBE_NXZ 00409c00 f   foundation_win32.release:string.obj
 0001:00008c70       ?AsInt@String@Util@@QBEHXZ 00409c70 f   foundation_win32.release:string.obj
 0001:00008cb0       ?AsFloat@String@Util@@QBEMXZ 00409cb0 f   foundation_win32.release:string.obj
 0001:00008cf0       ?AsBool@String@Util@@QBE_NXZ 00409cf0 f   foundation_win32.release:string.obj
 0001:00008d80       ?IsDigit@String@Util@@SA_ND@Z 00409d80 f   foundation_win32.release:string.obj
 0001:00008da0       ?IsAlpha@String@Util@@SA_ND@Z 00409da0 f   foundation_win32.release:string.obj
 0001:00008dc0       ?IsAlNum@String@Util@@SA_ND@Z 00409dc0 f   foundation_win32.release:string.obj
 0001:00008de0       ?IsLower@String@Util@@SA_ND@Z 00409de0 f   foundation_win32.release:string.obj
 0001:00008e00       ?IsUpper@String@Util@@SA_ND@Z 00409e00 f   foundation_win32.release:string.obj
 0001:00008e20       ?StrCmp@String@Util@@SAHPBD0@Z 00409e20 f   foundation_win32.release:string.obj
 0001:00008eb0       ?StrLen@String@Util@@SAHPBD@Z 00409eb0 f   foundation_win32.release:string.obj
 0001:00008f10       ?StrChr@String@Util@@SAPBDPBDH@Z 00409f10 f   foundation_win32.release:string.obj
 0001:00008f50       ?ParseKeyValuePairs@String@Util@@SA?AV?$Dictionary@VString@Util@@V12@@2@ABV12@@Z 00409f50 f   foundation_win32.release:string.obj
 0001:00009050       ??1?$Dictionary@VString@Util@@V12@@Util@@QAE@XZ 0040a050 f i foundation_win32.release:string.obj
 0001:00009070       ?ChangeFileExtension@String@Util@@QAEXABV12@@Z 0040a070 f   foundation_win32.release:string.obj
 0001:00009150       ??0?$Array@VString@Util@@@Util@@QAE@ABV01@@Z 0040a150 f i foundation_win32.release:string.obj
 0001:000091a0       ??0?$Array@VString@Util@@@Util@@QAE@HH@Z 0040a1a0 f i foundation_win32.release:string.obj
 0001:000092b0       ??0?$Array@VString@Util@@@Util@@QAE@XZ 0040a2b0 f i foundation_win32.release:string.obj
 0001:000092f0       ??A?$Array@VString@Util@@@Util@@QBEAAVString@1@H@Z 0040a2f0 f i foundation_win32.release:string.obj
 0001:00009340       ?Append@?$Array@VString@Util@@@Util@@QAEXABVString@2@@Z 0040a340 f i foundation_win32.release:string.obj
 0001:000093e0       ?Size@?$Array@VString@Util@@@Util@@QBEHXZ 0040a3e0 f i foundation_win32.release:string.obj
 0001:00009400       ?Clear@?$Array@VString@Util@@@Util@@QAEXXZ 0040a400 f i foundation_win32.release:string.obj
 0001:00009450       ??1?$Array@V?$KeyValuePair@VString@Util@@V12@@Util@@@Util@@QAE@XZ 0040a450 f i foundation_win32.release:string.obj
 0001:00009470       ??0?$Dictionary@VString@Util@@V12@@Util@@QAE@ABV01@@Z 0040a470 f i foundation_win32.release:string.obj
 0001:000094c0       ??0?$Dictionary@VString@Util@@V12@@Util@@QAE@XZ 0040a4c0 f i foundation_win32.release:string.obj
 0001:000094e0       ?Add@?$Dictionary@VString@Util@@V12@@Util@@QAEXABVString@2@0@Z 0040a4e0 f i foundation_win32.release:string.obj
 0001:00009530       ??1?$KeyValuePair@VString@Util@@V12@@Util@@QAE@XZ 0040a530 f i foundation_win32.release:string.obj
 0001:000095c0       ?Grow@?$Array@VString@Util@@@Util@@AAEXXZ 0040a5c0 f i foundation_win32.release:string.obj
 0001:00009640       ??0?$Array@V?$KeyValuePair@VString@Util@@V12@@Util@@@Util@@QAE@ABV01@@Z 0040a640 f i foundation_win32.release:string.obj
 0001:00009690       ??0?$Array@V?$KeyValuePair@VString@Util@@V12@@Util@@@Util@@QAE@XZ 0040a690 f i foundation_win32.release:string.obj
 0001:000096d0       ?Append@?$Array@V?$KeyValuePair@VString@Util@@V12@@Util@@@Util@@QAEXABV?$KeyValuePair@VString@Util@@V12@@2@@Z 0040a6d0 f i foundation_win32.release:string.obj
 0001:00009750       ?InsertSorted@?$Array@V?$KeyValuePair@VString@Util@@V12@@Util@@@Util@@QAEHABV?$KeyValuePair@VString@Util@@V12@@2@@Z 0040a750 f i foundation_win32.release:string.obj
 0001:000099c0       ?Delete@?$Array@V?$KeyValuePair@VString@Util@@V12@@Util@@@Util@@AAEXXZ 0040a9c0 f i foundation_win32.release:string.obj
 0001:00009a30       ??0?$KeyValuePair@VString@Util@@V12@@Util@@QAE@ABVString@1@0@Z 0040aa30 f i foundation_win32.release:string.obj
 0001:00009af0       ??_E?$KeyValuePair@VString@Util@@V12@@Util@@QAEPAXI@Z 0040aaf0 f i foundation_win32.release:string.obj
 0001:00009b90       ?GrowTo@?$Array@VString@Util@@@Util@@AAEXH@Z 0040ab90 f i foundation_win32.release:string.obj
 0001:00009d00       ?Size@?$Array@V?$KeyValuePair@VString@Util@@V12@@Util@@@Util@@QBEHXZ 0040ad00 f i foundation_win32.release:string.obj
 0001:00009d20       ?Insert@?$Array@V?$KeyValuePair@VString@Util@@V12@@Util@@@Util@@QAEXHABV?$KeyValuePair@VString@Util@@V12@@2@@Z 0040ad20 f i foundation_win32.release:string.obj
 0001:00009d90       ?InsertAtEndOfIdenticalRange@?$Array@V?$KeyValuePair@VString@Util@@V12@@Util@@@Util@@QAEHHABV?$KeyValuePair@VString@Util@@V12@@2@@Z 0040ad90 f i foundation_win32.release:string.obj
 0001:00009e10       ?Copy@?$Array@V?$KeyValuePair@VString@Util@@V12@@Util@@@Util@@AAEXABV12@@Z 0040ae10 f i foundation_win32.release:string.obj
 0001:00009f40       ?Grow@?$Array@V?$KeyValuePair@VString@Util@@V12@@Util@@@Util@@AAEXXZ 0040af40 f i foundation_win32.release:string.obj
 0001:00009fc0       ??4?$KeyValuePair@VString@Util@@V12@@Util@@QAEXABV01@@Z 0040afc0 f i foundation_win32.release:string.obj
 0001:0000a050       ??O?$KeyValuePair@VString@Util@@V12@@Util@@QBE_NABV01@@Z 0040b050 f i foundation_win32.release:string.obj
 0001:0000a070       ??M?$KeyValuePair@VString@Util@@V12@@Util@@QBE_NABV01@@Z 0040b070 f i foundation_win32.release:string.obj
 0001:0000a090       ?GrowTo@?$Array@V?$KeyValuePair@VString@Util@@V12@@Util@@@Util@@AAEXH@Z 0040b090 f i foundation_win32.release:string.obj
 0001:0000a1b0       ?Move@?$Array@V?$KeyValuePair@VString@Util@@V12@@Util@@@Util@@AAEXHH@Z 0040b1b0 f i foundation_win32.release:string.obj
 0001:0000a340       ??0?$KeyValuePair@VString@Util@@V12@@Util@@QAE@XZ 0040b340 f i foundation_win32.release:string.obj
 0001:0000a3b0       ??9?$KeyValuePair@VString@Util@@V12@@Util@@QBE_NABV01@@Z 0040b3b0 f i foundation_win32.release:string.obj
 0001:0000a3d0       ?Destroy@?$Array@V?$KeyValuePair@VString@Util@@V12@@Util@@@Util@@AAEXPAV?$KeyValuePair@VString@Util@@V12@@2@@Z 0040b3d0 f i foundation_win32.release:string.obj
 0001:0000a400       ??_G?$KeyValuePair@VString@Util@@V12@@Util@@QAEPAXI@Z 0040b400 f i foundation_win32.release:string.obj
 0001:0000a430       ?strrchr@@YAPADPADH@Z      0040b430 f i foundation_win32.release:string.obj
 0001:0000a450       ?strpbrk@@YAPADPADPBD@Z    0040b450 f i foundation_win32.release:string.obj
 0001:0000a470       ?strchr@@YAPADPADH@Z       0040b470 f i foundation_win32.release:string.obj
 0001:0000a540       ?StringCchVPrintfA@@YGJPADIPBD0@Z 0040b540 f i foundation_win32.release:string.obj
 0001:0000a760       ?StringCchCopyA@@YGJPADIPBD@Z 0040b760 f i foundation_win32.release:string.obj
 0001:0000a7b0       ?BinaryCompare@Blob@Util@@ABEHABV12@@Z 0040b7b0 f   foundation_win32.release:blob.obj
 0001:0000a860       ?AsFloat4@String@Util@@QBE?AVfloat4@Math@@XZ 0040b860 f i foundation_win32.release:commandlineargs.obj
 0001:0000a9e0       ??0CommandLineArgs@Util@@QAE@XZ 0040b9e0 f   foundation_win32.release:commandlineargs.obj
 0001:0000aa00       ??0CommandLineArgs@Util@@QAE@ABVString@1@@Z 0040ba00 f   foundation_win32.release:commandlineargs.obj
 0001:0000aa90       ??0CommandLineArgs@Util@@QAE@HPAPBD@Z 0040ba90 f   foundation_win32.release:commandlineargs.obj
 0001:0000ab30       ?Error@CommandLineArgs@Util@@ABEXABVString@2@@Z 0040bb30 f   foundation_win32.release:commandlineargs.obj
 0001:0000ab70       ?GetCmdName@CommandLineArgs@Util@@QBEABVString@2@XZ 0040bb70 f   foundation_win32.release:commandlineargs.obj
 0001:0000abb0       ?HasArg@CommandLineArgs@Util@@QBE_NABVString@2@@Z 0040bbb0 f   foundation_win32.release:commandlineargs.obj
 0001:0000abe0       ?FindArgIndex@CommandLineArgs@Util@@ABEHABVString@2@@Z 0040bbe0 f   foundation_win32.release:commandlineargs.obj
 0001:0000ac40       ?GetString@CommandLineArgs@Util@@QBEABVString@2@ABV32@0@Z 0040bc40 f   foundation_win32.release:commandlineargs.obj
 0001:0000ac80       ?GetInt@CommandLineArgs@Util@@QBEHABVString@2@H@Z 0040bc80 f   foundation_win32.release:commandlineargs.obj
 0001:0000acd0       ?GetFloat@CommandLineArgs@Util@@QBEMABVString@2@M@Z 0040bcd0 f   foundation_win32.release:commandlineargs.obj
 0001:0000ad20       ?GetBool@CommandLineArgs@Util@@QBE_NABVString@2@_N@Z 0040bd20 f   foundation_win32.release:commandlineargs.obj
 0001:0000ad70       ?GetBoolFlag@CommandLineArgs@Util@@QBE_NABVString@2@@Z 0040bd70 f   foundation_win32.release:commandlineargs.obj
 0001:0000ad90       ?GetFloat4@CommandLineArgs@Util@@QBE?AVfloat4@Math@@ABVString@2@ABV34@@Z 0040bd90 f   foundation_win32.release:commandlineargs.obj
 0001:0000ae00       ?GetMatrix44@CommandLineArgs@Util@@QBE?AVmatrix44@Math@@ABVString@2@ABV34@@Z 0040be00 f   foundation_win32.release:commandlineargs.obj
 0001:0000ae60       ?GetNumArgs@CommandLineArgs@Util@@QBEHXZ 0040be60 f   foundation_win32.release:commandlineargs.obj
 0001:0000aea0       ?GetStringAtIndex@CommandLineArgs@Util@@QBEABVString@2@H@Z 0040bea0 f   foundation_win32.release:commandlineargs.obj
 0001:0000aec0       ?GetIntAtIndex@CommandLineArgs@Util@@QBEHH@Z 0040bec0 f   foundation_win32.release:commandlineargs.obj
 0001:0000aef0       ?GetFloatAtIndex@CommandLineArgs@Util@@QBEMH@Z 0040bef0 f   foundation_win32.release:commandlineargs.obj
 0001:0000af20       ?GetBoolAtIndex@CommandLineArgs@Util@@QBE_NH@Z 0040bf20 f   foundation_win32.release:commandlineargs.obj
 0001:0000af50       ?GetFloat4AtIndex@CommandLineArgs@Util@@QBE?AVfloat4@Math@@H@Z 0040bf50 f   foundation_win32.release:commandlineargs.obj
 0001:0000af80       ?GetMatrix44AtIndex@CommandLineArgs@Util@@QBE?AVmatrix44@Math@@H@Z 0040bf80 f   foundation_win32.release:commandlineargs.obj
 0001:0000afb0       ?AppendCommandString@CommandLineArgs@Util@@QAEXABV12@@Z 0040bfb0 f   foundation_win32.release:commandlineargs.obj
 0001:0000b000       ?FindIndex@?$Array@VString@Util@@@Util@@QBEHABVString@2@@Z 0040c000 f i foundation_win32.release:commandlineargs.obj
 0001:0000b060       ??0Application@App@@QAE@XZ 0040c060 f   foundation_win32.release:application.obj
 0001:0000b1d0       ??_EApplication@App@@UAEPAXI@Z 0040c1d0 f i  CIL library: CIL module
 0001:0000b1d0       ??_GApplication@App@@UAEPAXI@Z 0040c1d0 f i foundation_win32.release:application.obj
 0001:0000b200       ??1Application@App@@UAE@XZ 0040c200 f   foundation_win32.release:application.obj
 0001:0000b360       ?Open@Application@App@@UAE_NXZ 0040c360 f   foundation_win32.release:application.obj
 0001:0000b3a0       ?Close@Application@App@@UAEXXZ 0040c3a0 f   foundation_win32.release:application.obj
 0001:0000b3e0       ?Run@Application@App@@UAEXXZ 0040c3e0 f   foundation_win32.release:application.obj
 0001:0000b3f0       ?Exit@Application@App@@UAEXXZ 0040c3f0 f   foundation_win32.release:application.obj
 0001:0000b410       ?Instance@LocalStringAtomTable@Util@@SAPAV12@XZ 0040c410 f i foundation_win32.release:stringatom.obj
 0001:0000b450       ?Instance@GlobalStringAtomTable@Util@@SAPAV12@XZ 0040c450 f i foundation_win32.release:stringatom.obj
 0001:0000b480       ?Setup@StringAtom@Util@@AAEXPBD@Z 0040c480 f   foundation_win32.release:stringatom.obj
 0001:0000b550       ??8StringAtom@Util@@QBE_NPBD@Z 0040c550 f   foundation_win32.release:stringatom.obj
 0001:0000b5d0       ??9StringAtom@Util@@QBE_NPBD@Z 0040c5d0 f   foundation_win32.release:stringatom.obj
 0001:0000b650       ??0FourCC@Util@@QAE@I@Z    0040c650 f i foundation_win32.release:win360thread.obj
 0001:0000b670       ??3RefCounted@Core@@SAXPAX@Z 0040c670 f i foundation_win32.release:win360thread.obj
 0001:0000b690       ??0RefCounted@Core@@QAE@XZ 0040c690 f i foundation_win32.release:win360thread.obj
 0001:0000b6c0       ??_ERefCounted@Core@@MAEPAXI@Z 0040c6c0 f i  CIL library: CIL module
 0001:0000b6c0       ??_GRefCounted@Core@@MAEPAXI@Z 0040c6c0 f i foundation_win32.release:win360thread.obj
 0001:0000b6f0       ??0Win360Event@Win360@@QAE@_N@Z 0040c6f0 f i foundation_win32.release:win360thread.obj
 0001:0000b740       ??1Win360Event@Win360@@QAE@XZ 0040c740 f i foundation_win32.release:win360thread.obj
 0001:0000b760       ?Signal@Win360Event@Win360@@QAEXXZ 0040c760 f i foundation_win32.release:win360thread.obj
 0001:0000b780       ?Wait@Win360Event@Win360@@QBEXXZ 0040c780 f i foundation_win32.release:win360thread.obj
 0001:0000b7a0       ??2Win360Thread@Win360@@SAPAXI@Z 0040c7a0 f i foundation_win32.release:win360thread.obj
 0001:0000b7b0       ??3Win360Thread@Win360@@SAXPAX@Z 0040c7b0 f i foundation_win32.release:win360thread.obj
 0001:0000b7d0       ?GetName@Win360Thread@Win360@@QBEABVString@Util@@XZ 0040c7d0 f i foundation_win32.release:win360thread.obj
 0001:0000b7f0       ??1Rtti@Core@@QAE@XZ       0040c7f0 f i foundation_win32.release:win360thread.obj
 0001:0000b840       ?GetRtti@Win360Thread@Win360@@UBEPAVRtti@Core@@XZ 0040c840 f   foundation_win32.release:win360thread.obj
 0001:0000b850       ?FactoryCreator@Win360Thread@Win360@@SAPAVRefCounted@Core@@XZ 0040c850 f   foundation_win32.release:win360thread.obj
 0001:0000b860       ?Create@Win360Thread@Win360@@SAPAV12@XZ 0040c860 f   foundation_win32.release:win360thread.obj
 0001:0000b8a0       ?RegisterWithFactory@Win360Thread@Win360@@SA_NXZ 0040c8a0 f   foundation_win32.release:win360thread.obj
 0001:0000b9a0       ??0Win360Thread@Win360@@QAE@XZ 0040c9a0 f   foundation_win32.release:win360thread.obj
 0001:0000baa0       ??_EWin360Thread@Win360@@UAEPAXI@Z 0040caa0 f i  CIL library: CIL module
 0001:0000baa0       ??_GWin360Thread@Win360@@UAEPAXI@Z 0040caa0 f i foundation_win32.release:win360thread.obj
 0001:0000bad0       ??1Win360Thread@Win360@@UAE@XZ 0040cad0 f   foundation_win32.release:win360thread.obj
 0001:0000bb90       ?Start@Win360Thread@Win360@@QAEXXZ 0040cb90 f   foundation_win32.release:win360thread.obj
 0001:0000bc90       ?EmitWakeupSignal@Win360Thread@Win360@@MAEXXZ 0040cc90 f   foundation_win32.release:win360thread.obj
 0001:0000bca0       ?Stop@Win360Thread@Win360@@QAEXXZ 0040cca0 f   foundation_win32.release:win360thread.obj
 0001:0000bd40       ?IsRunning@Win360Thread@Win360@@QBE_NXZ 0040cd40 f   foundation_win32.release:win360thread.obj
 0001:0000bd90       ?DoWork@Win360Thread@Win360@@MAEXXZ 0040cd90 f   foundation_win32.release:win360thread.obj
 0001:0000bda0       ?ThreadProc@Win360Thread@Win360@@CGKPAX@Z 0040cda0 f   foundation_win32.release:win360thread.obj
 0001:0000be40       ?SetMyThreadName@Win360Thread@Win360@@SAXPBD@Z 0040ce40 f   foundation_win32.release:win360thread.obj
 0001:0000bee0       ?GetMyThreadName@Win360Thread@Win360@@SAPBDXZ 0040cee0 f   foundation_win32.release:win360thread.obj
 0001:0000bf00       ?GetMyThreadId@Win360Thread@Win360@@SAKXZ 0040cf00 f   foundation_win32.release:win360thread.obj
 0001:0000bf10       ?YieldThread@Win360Thread@Win360@@SAXXZ 0040cf10 f   foundation_win32.release:win360thread.obj
 0001:0000bf20       ?WaiterPlus@Win360CriticalSection@Win360@@ABEXXZ 0040cf20 f i foundation_win32.release:console.obj
 0001:0000bf40       ?WaiterMinus@Win360CriticalSection@Win360@@ABEXXZ 0040cf40 f i foundation_win32.release:console.obj
 0001:0000bf60       ?PerfLockImmediate@Win360CriticalSection@Win360@@ABE_NK@Z 0040cf60 f i foundation_win32.release:console.obj
 0001:0000bf90       ?Enter@Win360CriticalSection@Win360@@QBEXXZ 0040cf90 f i foundation_win32.release:console.obj
 0001:0000c000       ?AllocateKernelSemaphore@Win360CriticalSection@Win360@@ABEXXZ 0040d000 f i foundation_win32.release:console.obj
 0001:0000c070       ?PerfLock@Win360CriticalSection@Win360@@ABE_NK@Z 0040d070 f i foundation_win32.release:console.obj
 0001:0000c0f0       ?PerfLockKernel@Win360CriticalSection@Win360@@ABE_NK@Z 0040d0f0 f i foundation_win32.release:console.obj
 0001:0000c190       ?Leave@Win360CriticalSection@Win360@@QBEXXZ 0040d190 f i foundation_win32.release:console.obj
 0001:0000c1c0       ?PerfUnlock@Win360CriticalSection@Win360@@ABEXXZ 0040d1c0 f i foundation_win32.release:console.obj
 0001:0000c200       ??2Console@IO@@SAPAXI@Z    0040d200 f i foundation_win32.release:console.obj
 0001:0000c210       ??3Console@IO@@SAXPAX@Z    0040d210 f i foundation_win32.release:console.obj
 0001:0000c230       ?IsOpen@Console@IO@@QBE_NXZ 0040d230 f i foundation_win32.release:console.obj
 0001:0000c250       ?GetRtti@Console@IO@@UBEPAVRtti@Core@@XZ 0040d250 f   foundation_win32.release:console.obj
 0001:0000c260       ?FactoryCreator@Console@IO@@SAPAVRefCounted@Core@@XZ 0040d260 f   foundation_win32.release:console.obj
 0001:0000c270       ?Create@Console@IO@@SAPAV12@XZ 0040d270 f   foundation_win32.release:console.obj
 0001:0000c2b0       ?RegisterWithFactory@Console@IO@@SA_NXZ 0040d2b0 f   foundation_win32.release:console.obj
 0001:0000c3b0       ??0Console@IO@@QAE@XZ      0040d3b0 f   foundation_win32.release:console.obj
 0001:0000c430       ??_GConsole@IO@@UAEPAXI@Z  0040d430 f i foundation_win32.release:console.obj
 0001:0000c430       ??_EConsole@IO@@UAEPAXI@Z  0040d430 f i  CIL library: CIL module
 0001:0000c460       ??0CriticalSection@Threading@@QAE@XZ 0040d460 f i foundation_win32.release:console.obj
 0001:0000c480       ??1CriticalSection@Threading@@QAE@XZ 0040d480 f i foundation_win32.release:console.obj
 0001:0000c4a0       ??1Console@IO@@UAE@XZ      0040d4a0 f   foundation_win32.release:console.obj
 0001:0000c550       ?Open@Console@IO@@QAEXXZ   0040d550 f   foundation_win32.release:console.obj
 0001:0000c5e0       ?Close@Console@IO@@QAEXXZ  0040d5e0 f   foundation_win32.release:console.obj
 0001:0000c680       ?Update@Console@IO@@QAEXXZ 0040d680 f   foundation_win32.release:console.obj
 0001:0000c730       ?AttachHandler@Console@IO@@QAEXABV?$Ptr@VConsoleHandler@IO@@@@@Z 0040d730 f   foundation_win32.release:console.obj
 0001:0000c7c0       ?RemoveHandler@Console@IO@@QAEXABV?$Ptr@VConsoleHandler@IO@@@@@Z 0040d7c0 f   foundation_win32.release:console.obj
 0001:0000c890       ?HasInput@Console@IO@@QBE_NXZ 0040d890 f   foundation_win32.release:console.obj
 0001:0000c960       ?GetInput@Console@IO@@QBE?AVString@Util@@XZ 0040d960 f   foundation_win32.release:console.obj
 0001:0000caf0       ?Print@Console@IO@@QAAXPBDZZ 0040daf0 f   foundation_win32.release:console.obj
 0001:0000cb50       ?Print@Console@IO@@QAAXPBDPAD@Z 0040db50 f   foundation_win32.release:console.obj
 0001:0000cc40       ?Print@Console@IO@@QAEXABVString@Util@@@Z 0040dc40 f   foundation_win32.release:console.obj
 0001:0000cd00       ?Error@Console@IO@@QAAXPBDZZ 0040dd00 f   foundation_win32.release:console.obj
 0001:0000cd60       ?Error@Console@IO@@QAAXPBDPAD@Z 0040dd60 f   foundation_win32.release:console.obj
 0001:0000ce50       ?DebugOut@Console@IO@@QAAXPBDZZ 0040de50 f   foundation_win32.release:console.obj
 0001:0000ceb0       ?DebugOut@Console@IO@@QAAXPBDPAD@Z 0040deb0 f   foundation_win32.release:console.obj
 0001:0000cfa0       ?Warning@Console@IO@@QAAXPBDZZ 0040dfa0 f   foundation_win32.release:console.obj
 0001:0000d000       ?Warning@Console@IO@@QAAXPBDPAD@Z 0040e000 f   foundation_win32.release:console.obj
 0001:0000d0f0       ?Confirm@Console@IO@@QAAXPBDZZ 0040e0f0 f   foundation_win32.release:console.obj
 0001:0000d150       ?Confirm@Console@IO@@QAAXPBDPAD@Z 0040e150 f   foundation_win32.release:console.obj
 0001:0000d240       ??0?$Array@V?$Ptr@VConsoleHandler@IO@@@@@Util@@QAE@XZ 0040e240 f i foundation_win32.release:console.obj
 0001:0000d280       ??1?$Array@V?$Ptr@VConsoleHandler@IO@@@@@Util@@QAE@XZ 0040e280 f i foundation_win32.release:console.obj
 0001:0000d2a0       ??A?$Array@V?$Ptr@VConsoleHandler@IO@@@@@Util@@QBEAAV?$Ptr@VConsoleHandler@IO@@@@H@Z 0040e2a0 f i foundation_win32.release:console.obj
 0001:0000d2f0       ?Size@?$Array@V?$Ptr@VConsoleHandler@IO@@@@@Util@@QBEHXZ 0040e2f0 f i foundation_win32.release:console.obj
 0001:0000d310       ?EraseIndex@?$Array@V?$Ptr@VConsoleHandler@IO@@@@@Util@@QAEXH@Z 0040e310 f i foundation_win32.release:console.obj
 0001:0000d390       ?Insert@?$Array@V?$Ptr@VConsoleHandler@IO@@@@@Util@@QAEXHABV?$Ptr@VConsoleHandler@IO@@@@@Z 0040e390 f i foundation_win32.release:console.obj
 0001:0000d400       ?FindIndex@?$Array@V?$Ptr@VConsoleHandler@IO@@@@@Util@@QBEHABV?$Ptr@VConsoleHandler@IO@@@@@Z 0040e400 f i foundation_win32.release:console.obj
 0001:0000d460       ??0?$Ptr@VConsoleHandler@IO@@@@QAE@PAVConsoleHandler@IO@@@Z 0040e460 f i foundation_win32.release:console.obj
 0001:0000d4a0       ??C?$Ptr@VConsoleHandler@IO@@@@QBEPAVConsoleHandler@IO@@XZ 0040e4a0 f i foundation_win32.release:console.obj
 0001:0000d4e0       ?isvalid@?$Ptr@VConsoleHandler@IO@@@@QBE_NXZ 0040e4e0 f i foundation_win32.release:console.obj
 0001:0000d500       ?Append@?$Array@V?$Ptr@VConsoleHandler@IO@@@@@Util@@QAEXABV?$Ptr@VConsoleHandler@IO@@@@@Z 0040e500 f i foundation_win32.release:console.obj
 0001:0000d580       ?Destroy@?$Array@V?$Ptr@VConsoleHandler@IO@@@@@Util@@AAEXPAV?$Ptr@VConsoleHandler@IO@@@@@Z 0040e580 f i foundation_win32.release:console.obj
 0001:0000d5b0       ?Delete@?$Array@V?$Ptr@VConsoleHandler@IO@@@@@Util@@AAEXXZ 0040e5b0 f i foundation_win32.release:console.obj
 0001:0000d620       ?Move@?$Array@V?$Ptr@VConsoleHandler@IO@@@@@Util@@AAEXHH@Z 0040e620 f i foundation_win32.release:console.obj
 0001:0000d7b0       ??4?$Ptr@VConsoleHandler@IO@@@@QAEXABV0@@Z 0040e7b0 f i foundation_win32.release:console.obj
 0001:0000d810       ??8?$Ptr@VConsoleHandler@IO@@@@QBE_NABV0@@Z 0040e810 f i foundation_win32.release:console.obj
 0001:0000d830       ??_G?$Ptr@VConsoleHandler@IO@@@@QAEPAXI@Z 0040e830 f i foundation_win32.release:console.obj
 0001:0000d860       ?Grow@?$Array@V?$Ptr@VConsoleHandler@IO@@@@@Util@@AAEXXZ 0040e860 f i foundation_win32.release:console.obj
 0001:0000d8e0       ??0?$Ptr@VConsoleHandler@IO@@@@QAE@XZ 0040e8e0 f i foundation_win32.release:console.obj
 0001:0000d900       ?GrowTo@?$Array@V?$Ptr@VConsoleHandler@IO@@@@@Util@@AAEXH@Z 0040e900 f i foundation_win32.release:console.obj
 0001:0000da20       ___InlineInterlockedCompareExchangePointer 0040ea20 f i foundation_win32.release:console.obj
 0001:0000da40       ?Setup@Blob@Util@@SAXXZ    0040ea40 f i foundation_win32.release:win32sysfunc.obj
 0001:0000dab0       ?Shutdown@Blob@Util@@SAXXZ 0040eab0 f i foundation_win32.release:win32sysfunc.obj
 0001:0000db30       ??_GWin360Heap@Win360@@QAEPAXI@Z 0040eb30 f i foundation_win32.release:win32sysfunc.obj
 0001:0000db60       ??0SystemInfo@System@@QAE@XZ 0040eb60 f i foundation_win32.release:win32sysfunc.obj
 0001:0000db80       ?Setup@SysFunc@Win32@@SAXXZ 0040eb80 f   foundation_win32.release:win32sysfunc.obj
 0001:0000dc40       ?Exit@SysFunc@Win32@@SAXH@Z 0040ec40 f   foundation_win32.release:win32sysfunc.obj
 0001:0000dd20       ??_GGlobalStringAtomTable@Util@@QAEPAXI@Z 0040ed20 f i foundation_win32.release:win32sysfunc.obj
 0001:0000dd50       ??_GLocalStringAtomTable@Util@@QAEPAXI@Z 0040ed50 f i foundation_win32.release:win32sysfunc.obj
 0001:0000dd80       ?Error@SysFunc@Win32@@SAXPBD@Z 0040ed80 f   foundation_win32.release:win32sysfunc.obj
 0001:0000ddb0       ?MessageBoxA@SysFunc@Win32@@SAXPBD@Z 0040edb0 f   foundation_win32.release:win32sysfunc.obj
 0001:0000ddf0       ?Sleep@SysFunc@Win32@@SAXN@Z 0040edf0 f   foundation_win32.release:win32sysfunc.obj
 0001:0000de20       ?DebugOut@SysFunc@Win32@@SAXPBD@Z 0040ee20 f   foundation_win32.release:win32sysfunc.obj
 0001:0000de30       ?RegisterExitHandler@SysFunc@Win32@@CAPBVExitHandler@Core@@PBV34@@Z 0040ee30 f   foundation_win32.release:win32sysfunc.obj
 0001:0000de50       ?GetSystemInfo@SysFunc@Win32@@SAPBVSystemInfo@System@@XZ 0040ee50 f   foundation_win32.release:win32sysfunc.obj
 0001:0000de60       ?XMVerifyCPUSupport@@YAHXZ 0040ee60 f i foundation_win32.release:win32sysfunc.obj
 0001:0000dea0       ?SetupHeaps@Memory@@YAXXZ  0040eea0 f   foundation_win32.release:win360memoryconfig.obj
 0001:0000e000       ?GetHeapTypeName@Memory@@YAPBDW4HeapType@1@@Z 0040f000 f   foundation_win32.release:win360memoryconfig.obj
 0001:0000e0c0       ??0LocalStringAtomTable@Util@@QAE@XZ 0040f0c0 f   foundation_win32.release:localstringatomtable.obj
 0001:0000e110       ??1LocalStringAtomTable@Util@@QAE@XZ 0040f110 f   foundation_win32.release:localstringatomtable.obj
 0001:0000e160       ?Add@LocalStringAtomTable@Util@@AAEXPBD@Z 0040f160 f   foundation_win32.release:localstringatomtable.obj
 0001:0000e190       ?InsertSorted@?$Array@UStaticString@StringAtomTableBase@Util@@@Util@@QAEHABUStaticString@StringAtomTableBase@2@@Z 0040f190 f i foundation_win32.release:localstringatomtable.obj
 0001:0000e400       ?Append@?$Array@UStaticString@StringAtomTableBase@Util@@@Util@@QAEXABUStaticString@StringAtomTableBase@2@@Z 0040f400 f i foundation_win32.release:localstringatomtable.obj
 0001:0000e470       ?Size@?$Array@UStaticString@StringAtomTableBase@Util@@@Util@@QBEHXZ 0040f470 f i foundation_win32.release:localstringatomtable.obj
 0001:0000e490       ?Insert@?$Array@UStaticString@StringAtomTableBase@Util@@@Util@@QAEXHABUStaticString@StringAtomTableBase@2@@Z 0040f490 f i foundation_win32.release:localstringatomtable.obj
 0001:0000e500       ?InsertAtEndOfIdenticalRange@?$Array@UStaticString@StringAtomTableBase@Util@@@Util@@QAEHHABUStaticString@StringAtomTableBase@2@@Z 0040f500 f i foundation_win32.release:localstringatomtable.obj
 0001:0000e580       ?Grow@?$Array@UStaticString@StringAtomTableBase@Util@@@Util@@AAEXXZ 0040f580 f i foundation_win32.release:localstringatomtable.obj
 0001:0000e600       ?Move@?$Array@UStaticString@StringAtomTableBase@Util@@@Util@@AAEXHH@Z 0040f600 f i foundation_win32.release:localstringatomtable.obj
 0001:0000e780       ?Destroy@?$Array@UStaticString@StringAtomTableBase@Util@@@Util@@AAEXPAUStaticString@StringAtomTableBase@2@@Z 0040f780 f i foundation_win32.release:localstringatomtable.obj
 0001:0000e790       ?GrowTo@?$Array@UStaticString@StringAtomTableBase@Util@@@Util@@AAEXH@Z 0040f790 f i foundation_win32.release:localstringatomtable.obj
 0001:0000e840       ?GetNumChunks@StringBuffer@Util@@QBEHXZ 0040f840 f i foundation_win32.release:globalstringatomtable.obj
 0001:0000e860       ??0GlobalStringAtomTable@Util@@QAE@XZ 0040f860 f   foundation_win32.release:globalstringatomtable.obj
 0001:0000e8d0       ??1GlobalStringAtomTable@Util@@QAE@XZ 0040f8d0 f   foundation_win32.release:globalstringatomtable.obj
 0001:0000e970       ?Lock@GlobalStringAtomTable@Util@@AAEXXZ 0040f970 f   foundation_win32.release:globalstringatomtable.obj
 0001:0000e990       ?Unlock@GlobalStringAtomTable@Util@@AAEXXZ 0040f990 f   foundation_win32.release:globalstringatomtable.obj
 0001:0000e9d0       ?Add@GlobalStringAtomTable@Util@@AAEPBDPBD@Z 0040f9d0 f   foundation_win32.release:globalstringatomtable.obj
 0001:0000ea00       ?GetDebugInfo@GlobalStringAtomTable@Util@@QBE?AUDebugInfo@12@XZ 0040fa00 f   foundation_win32.release:globalstringatomtable.obj
 0001:0000eb20       ??0DebugInfo@GlobalStringAtomTable@Util@@QAE@XZ 0040fb20 f i foundation_win32.release:globalstringatomtable.obj
 0001:0000eb40       ??1DebugInfo@GlobalStringAtomTable@Util@@QAE@XZ 0040fb40 f i foundation_win32.release:globalstringatomtable.obj
 0001:0000eb60       ??0DebugInfo@GlobalStringAtomTable@Util@@QAE@ABU012@@Z 0040fb60 f i foundation_win32.release:globalstringatomtable.obj
 0001:0000ebc0       ??A?$Array@UStaticString@StringAtomTableBase@Util@@@Util@@QBEAAUStaticString@StringAtomTableBase@1@H@Z 0040fbc0 f i foundation_win32.release:globalstringatomtable.obj
 0001:0000ec10       ?Size@?$Array@PAD@Util@@QBEHXZ 0040fc10 f i foundation_win32.release:globalstringatomtable.obj
 0001:0000ec30       ??0?$Array@PBD@Util@@QAE@ABV01@@Z 0040fc30 f i foundation_win32.release:globalstringatomtable.obj
 0001:0000ec80       ??0?$Array@PBD@Util@@QAE@XZ 0040fc80 f i foundation_win32.release:globalstringatomtable.obj
 0001:0000ecc0       ??1?$Array@PBD@Util@@QAE@XZ 0040fcc0 f i foundation_win32.release:globalstringatomtable.obj
 0001:0000ece0       ?Append@?$Array@PBD@Util@@QAEXABQBD@Z 0040fce0 f i foundation_win32.release:globalstringatomtable.obj
 0001:0000ed50       ?Reserve@?$Array@PBD@Util@@QAEXH@Z 0040fd50 f i foundation_win32.release:globalstringatomtable.obj
 0001:0000eda0       ?Copy@?$Array@PBD@Util@@AAEXABV12@@Z 0040fda0 f i foundation_win32.release:globalstringatomtable.obj
 0001:0000ee70       ?Delete@?$Array@PBD@Util@@AAEXXZ 0040fe70 f i foundation_win32.release:globalstringatomtable.obj
 0001:0000eed0       ?Grow@?$Array@PBD@Util@@AAEXXZ 0040fed0 f i foundation_win32.release:globalstringatomtable.obj
 0001:0000ef50       ?GrowTo@?$Array@PBD@Util@@AAEXH@Z 0040ff50 f i foundation_win32.release:globalstringatomtable.obj
 0001:0000f000       ??0StringAtomTableBase@Util@@QAE@XZ 00410000 f   foundation_win32.release:stringatomtablebase.obj
 0001:0000f020       ??1StringAtomTableBase@Util@@QAE@XZ 00410020 f   foundation_win32.release:stringatomtablebase.obj
 0001:0000f040       ?Find@StringAtomTableBase@Util@@IBEPBDPBD@Z 00410040 f   foundation_win32.release:stringatomtablebase.obj
 0001:0000f080       ??8StaticString@StringAtomTableBase@Util@@QBE_NABU012@@Z 00410080 f   foundation_win32.release:stringatomtablebase.obj
 0001:0000f100       ??9StaticString@StringAtomTableBase@Util@@QBE_NABU012@@Z 00410100 f   foundation_win32.release:stringatomtablebase.obj
 0001:0000f180       ??MStaticString@StringAtomTableBase@Util@@QBE_NABU012@@Z 00410180 f   foundation_win32.release:stringatomtablebase.obj
 0001:0000f200       ??OStaticString@StringAtomTableBase@Util@@QBE_NABU012@@Z 00410200 f   foundation_win32.release:stringatomtablebase.obj
 0001:0000f280       ??0?$Array@UStaticString@StringAtomTableBase@Util@@@Util@@QAE@XZ 00410280 f i foundation_win32.release:stringatomtablebase.obj
 0001:0000f2c0       ??1?$Array@UStaticString@StringAtomTableBase@Util@@@Util@@QAE@XZ 004102c0 f i foundation_win32.release:stringatomtablebase.obj
 0001:0000f2e0       ?BinarySearchIndex@?$Array@UStaticString@StringAtomTableBase@Util@@@Util@@QBEHABUStaticString@StringAtomTableBase@2@@Z 004102e0 f i foundation_win32.release:stringatomtablebase.obj
 0001:0000f410       ?Delete@?$Array@UStaticString@StringAtomTableBase@Util@@@Util@@AAEXXZ 00410410 f i foundation_win32.release:stringatomtablebase.obj
 0001:0000f470       ??0FourCC@Util@@QAE@XZ     00410470 f i foundation_win32.release:rtti.obj
 0001:0000f490       ??8FourCC@Util@@QBE_NABV01@@Z 00410490 f i foundation_win32.release:rtti.obj
 0001:0000f4b0       ?IsValid@FourCC@Util@@QBE_NXZ 004104b0 f i foundation_win32.release:rtti.obj
 0001:0000f4d0       ?GetParent@Rtti@Core@@QBEPBV12@XZ 004104d0 f i foundation_win32.release:rtti.obj
 0001:0000f4f0       ?Construct@Rtti@Core@@AAEXPBDVFourCC@Util@@P6APAVRefCounted@2@XZPBV12@H@Z 004104f0 f   foundation_win32.release:rtti.obj
 0001:0000f5e0       ??0Rtti@Core@@QAE@PBDVFourCC@Util@@P6APAVRefCounted@1@XZPBV01@H@Z 004105e0 f   foundation_win32.release:rtti.obj
 0001:0000f650       ??0Rtti@Core@@QAE@PBDP6APAVRefCounted@1@XZPBV01@H@Z 00410650 f   foundation_win32.release:rtti.obj
 0001:0000f6c0       ?Create@Rtti@Core@@QBEPAVRefCounted@2@XZ 004106c0 f   foundation_win32.release:rtti.obj
 0001:0000f720       ?IsDerivedFrom@Rtti@Core@@QBE_NABV12@@Z 00410720 f   foundation_win32.release:rtti.obj
 0001:0000f760       ?IsDerivedFrom@Rtti@Core@@QBE_NABVString@Util@@@Z 00410760 f   foundation_win32.release:rtti.obj
 0001:0000f7b0       ?IsDerivedFrom@Rtti@Core@@QBE_NABVFourCC@Util@@@Z 004107b0 f   foundation_win32.release:rtti.obj
 0001:0000f800       ?AllocInstanceMemory@Rtti@Core@@QAEPAXXZ 00410800 f   foundation_win32.release:rtti.obj
 0001:0000f830       ?FreeInstanceMemory@Rtti@Core@@QAEXPAX@Z 00410830 f   foundation_win32.release:rtti.obj
 0001:0000f850       ??2RefCounted@Core@@SAPAXI@Z 00410850 f i foundation_win32.release:refcounted.obj
 0001:0000f860       ?GetRtti@RefCounted@Core@@UBEPAVRtti@2@XZ 00410860 f   foundation_win32.release:refcounted.obj
 0001:0000f870       ?FactoryCreator@RefCounted@Core@@SAPAV12@XZ 00410870 f   foundation_win32.release:refcounted.obj
 0001:0000f880       ?Create@RefCounted@Core@@SAPAV12@XZ 00410880 f   foundation_win32.release:refcounted.obj
 0001:0000f8d0       ?RegisterWithFactory@RefCounted@Core@@SA_NXZ 004108d0 f   foundation_win32.release:refcounted.obj
 0001:0000f9d0       ??1RefCounted@Core@@MAE@XZ 004109d0 f   foundation_win32.release:refcounted.obj
 0001:0000fa10       ?DumpRefCountingLeaks@RefCounted@Core@@SAXXZ 00410a10 f   foundation_win32.release:refcounted.obj
 0001:0000fa20       ?HashCode@String@Util@@QBEHXZ 00410a20 f i foundation_win32.release:factory.obj
 0001:0000fad0       ??9FourCC@Util@@QBE_NABV01@@Z 00410ad0 f i foundation_win32.release:factory.obj
 0001:0000faf0       ??OFourCC@Util@@QBE_NABV01@@Z 00410af0 f i foundation_win32.release:factory.obj
 0001:0000fb10       ??MFourCC@Util@@QBE_NABV01@@Z 00410b10 f i foundation_win32.release:factory.obj
 0001:0000fb30       ?AsString@FourCC@Util@@QBE?AVString@2@XZ 00410b30 f i foundation_win32.release:factory.obj
 0001:0000fb60       ?ToString@FourCC@Util@@SA?AVString@2@ABV12@@Z 00410b60 f i foundation_win32.release:factory.obj
 0001:0000fcf0       ?Instance@Factory@Core@@SAPAV12@XZ 00410cf0 f   foundation_win32.release:factory.obj
 0001:0000fd60       ?Destroy@Factory@Core@@SAXXZ 00410d60 f   foundation_win32.release:factory.obj
 0001:0000fdc0       ??_GFactory@Core@@AAEPAXI@Z 00410dc0 f i foundation_win32.release:factory.obj
 0001:0000fdf0       ??0Factory@Core@@AAE@XZ    00410df0 f   foundation_win32.release:factory.obj
 0001:0000fe20       ??1?$HashTable@VString@Util@@PBVRtti@Core@@@Util@@QAE@XZ 00410e20 f i foundation_win32.release:factory.obj
 0001:0000fe40       ??1?$Dictionary@VFourCC@Util@@PBVRtti@Core@@@Util@@QAE@XZ 00410e40 f i foundation_win32.release:factory.obj
 0001:0000fe60       ??1Factory@Core@@AAE@XZ    00410e60 f   foundation_win32.release:factory.obj
 0001:0000fea0       ?Register@Factory@Core@@QAEXPBVRtti@2@ABVString@Util@@ABVFourCC@5@@Z 00410ea0 f   foundation_win32.release:factory.obj
 0001:00010090       ?Register@Factory@Core@@QAEXPBVRtti@2@ABVString@Util@@@Z 00411090 f   foundation_win32.release:factory.obj
 0001:00010160       ?ClassExists@Factory@Core@@QBE_NABVString@Util@@@Z 00411160 f   foundation_win32.release:factory.obj
 0001:000101b0       ?ClassExists@Factory@Core@@QBE_NVFourCC@Util@@@Z 004111b0 f   foundation_win32.release:factory.obj
 0001:00010200       ?GetClassRtti@Factory@Core@@QBEPBVRtti@2@ABVString@Util@@@Z 00411200 f   foundation_win32.release:factory.obj
 0001:00010270       ?GetClassRtti@Factory@Core@@QBEPBVRtti@2@ABVFourCC@Util@@@Z 00411270 f   foundation_win32.release:factory.obj
 0001:000102f0       ?Create@Factory@Core@@QBEPAVRefCounted@2@ABVString@Util@@@Z 004112f0 f   foundation_win32.release:factory.obj
 0001:00010400       ?Create@Factory@Core@@QBEPAVRefCounted@2@VFourCC@Util@@@Z 00411400 f   foundation_win32.release:factory.obj
 0001:00010550       ??1?$FixedArray@V?$Array@V?$KeyValuePair@VString@Util@@PBVRtti@Core@@@Util@@@Util@@@Util@@QAE@XZ 00411550 f i foundation_win32.release:factory.obj
 0001:00010570       ??0?$HashTable@VString@Util@@PBVRtti@Core@@@Util@@QAE@H@Z 00411570 f i foundation_win32.release:factory.obj
 0001:000105a0       ??A?$HashTable@VString@Util@@PBVRtti@Core@@@Util@@QBEAAPBVRtti@Core@@ABVString@1@@Z 004115a0 f i foundation_win32.release:factory.obj
 0001:000106a0       ?Clear@?$HashTable@VString@Util@@PBVRtti@Core@@@Util@@QAEXXZ 004116a0 f i foundation_win32.release:factory.obj
 0001:00010700       ?Add@?$HashTable@VString@Util@@PBVRtti@Core@@@Util@@QAEXABVString@2@ABQBVRtti@Core@@@Z 00411700 f i foundation_win32.release:factory.obj
 0001:00010740       ?Contains@?$HashTable@VString@Util@@PBVRtti@Core@@@Util@@QBE_NABVString@2@@Z 00411740 f i foundation_win32.release:factory.obj
 0001:000107e0       ??1?$Array@V?$KeyValuePair@VFourCC@Util@@PBVRtti@Core@@@Util@@@Util@@QAE@XZ 004117e0 f i foundation_win32.release:factory.obj
 0001:00010800       ??0?$Dictionary@VFourCC@Util@@PBVRtti@Core@@@Util@@QAE@XZ 00411800 f i foundation_win32.release:factory.obj
 0001:00010820       ??A?$Dictionary@VFourCC@Util@@PBVRtti@Core@@@Util@@QBEABQBVRtti@Core@@ABVFourCC@1@@Z 00411820 f i foundation_win32.release:factory.obj
 0001:00010870       ?Clear@?$Dictionary@VFourCC@Util@@PBVRtti@Core@@@Util@@QAEXXZ 00411870 f i foundation_win32.release:factory.obj
 0001:000108b0       ?Add@?$Dictionary@VFourCC@Util@@PBVRtti@Core@@@Util@@QAEXABVFourCC@2@ABQBVRtti@Core@@@Z 004118b0 f i foundation_win32.release:factory.obj
 0001:00010900       ?Contains@?$Dictionary@VFourCC@Util@@PBVRtti@Core@@@Util@@QBE_NABVFourCC@2@@Z 00411900 f i foundation_win32.release:factory.obj
 0001:00010960       ??1?$KeyValuePair@VString@Util@@PBVRtti@Core@@@Util@@QAE@XZ 00411960 f i foundation_win32.release:factory.obj
 0001:000109b0       ??0?$FixedArray@V?$Array@V?$KeyValuePair@VString@Util@@PBVRtti@Core@@@Util@@@Util@@@Util@@QAE@H@Z 004119b0 f i foundation_win32.release:factory.obj
 0001:000109e0       ??A?$FixedArray@V?$Array@V?$KeyValuePair@VString@Util@@PBVRtti@Core@@@Util@@@Util@@@Util@@QBEAAV?$Array@V?$KeyValuePair@VString@Util@@PBVRtti@Core@@@Util@@@1@H@Z 004119e0 f i foundation_win32.release:factory.obj
 0001:00010a30       ?Size@?$FixedArray@V?$Array@V?$KeyValuePair@VString@Util@@PBVRtti@Core@@@Util@@@Util@@@Util@@QBEHXZ 00411a30 f i foundation_win32.release:factory.obj
 0001:00010a40       ?Delete@?$FixedArray@V?$Array@V?$KeyValuePair@VString@Util@@PBVRtti@Core@@@Util@@@Util@@@Util@@AAEXXZ 00411a40 f i foundation_win32.release:factory.obj
 0001:00010aa0       ?Add@?$HashTable@VString@Util@@PBVRtti@Core@@@Util@@QAEXABV?$KeyValuePair@VString@Util@@PBVRtti@Core@@@2@@Z 00411aa0 f i foundation_win32.release:factory.obj
 0001:00010b30       ??A?$Array@V?$KeyValuePair@VString@Util@@PBVRtti@Core@@@Util@@@Util@@QBEAAV?$KeyValuePair@VString@Util@@PBVRtti@Core@@@1@H@Z 00411b30 f i foundation_win32.release:factory.obj
 0001:00010b80       ?Size@?$Array@V?$KeyValuePair@VString@Util@@PBVRtti@Core@@@Util@@@Util@@QBEHXZ 00411b80 f i foundation_win32.release:factory.obj
 0001:00010ba0       ?Clear@?$Array@V?$KeyValuePair@VString@Util@@PBVRtti@Core@@@Util@@@Util@@QAEXXZ 00411ba0 f i foundation_win32.release:factory.obj
 0001:00010bf0       ?BinarySearchIndex@?$Array@V?$KeyValuePair@VString@Util@@PBVRtti@Core@@@Util@@@Util@@QBEHABV?$KeyValuePair@VString@Util@@PBVRtti@Core@@@2@@Z 00411bf0 f i foundation_win32.release:factory.obj
 0001:00010d20       ??0?$KeyValuePair@VString@Util@@PBVRtti@Core@@@Util@@QAE@ABVString@1@@Z 00411d20 f i foundation_win32.release:factory.obj
 0001:00010d80       ??0?$KeyValuePair@VString@Util@@PBVRtti@Core@@@Util@@QAE@ABVString@1@ABQBVRtti@Core@@@Z 00411d80 f i foundation_win32.release:factory.obj
 0001:00010df0       ?Value@?$KeyValuePair@VString@Util@@PBVRtti@Core@@@Util@@QAEAAPBVRtti@Core@@XZ 00411df0 f i foundation_win32.release:factory.obj
 0001:00010e10       ??0?$Array@V?$KeyValuePair@VFourCC@Util@@PBVRtti@Core@@@Util@@@Util@@QAE@XZ 00411e10 f i foundation_win32.release:factory.obj
 0001:00010e50       ??A?$Array@V?$KeyValuePair@VFourCC@Util@@PBVRtti@Core@@@Util@@@Util@@QBEAAV?$KeyValuePair@VFourCC@Util@@PBVRtti@Core@@@1@H@Z 00411e50 f i foundation_win32.release:factory.obj
 0001:00010ea0       ?Append@?$Array@V?$KeyValuePair@VFourCC@Util@@PBVRtti@Core@@@Util@@@Util@@QAEXABV?$KeyValuePair@VFourCC@Util@@PBVRtti@Core@@@2@@Z 00411ea0 f i foundation_win32.release:factory.obj
 0001:00010f20       ?InsertSorted@?$Array@V?$KeyValuePair@VFourCC@Util@@PBVRtti@Core@@@Util@@@Util@@QAEHABV?$KeyValuePair@VFourCC@Util@@PBVRtti@Core@@@2@@Z 00411f20 f i foundation_win32.release:factory.obj
 0001:00011190       ?Clear@?$Array@V?$KeyValuePair@VFourCC@Util@@PBVRtti@Core@@@Util@@@Util@@QAEXXZ 00412190 f i foundation_win32.release:factory.obj
 0001:000111e0       ?BinarySearchIndex@?$Array@V?$KeyValuePair@VFourCC@Util@@PBVRtti@Core@@@Util@@@Util@@QBEHABV?$KeyValuePair@VFourCC@Util@@PBVRtti@Core@@@2@@Z 004121e0 f i foundation_win32.release:factory.obj
 0001:00011310       ?Delete@?$Array@V?$KeyValuePair@VFourCC@Util@@PBVRtti@Core@@@Util@@@Util@@AAEXXZ 00412310 f i foundation_win32.release:factory.obj
 0001:00011370       ?FindIndex@?$Dictionary@VFourCC@Util@@PBVRtti@Core@@@Util@@QBEHABVFourCC@2@@Z 00412370 f i foundation_win32.release:factory.obj
 0001:000113c0       ??0?$KeyValuePair@VFourCC@Util@@PBVRtti@Core@@@Util@@QAE@ABVFourCC@1@@Z 004123c0 f i foundation_win32.release:factory.obj
 0001:000113e0       ??0?$KeyValuePair@VFourCC@Util@@PBVRtti@Core@@@Util@@QAE@ABVFourCC@1@ABQBVRtti@Core@@@Z 004123e0 f i foundation_win32.release:factory.obj
 0001:00011410       ?Value@?$KeyValuePair@VFourCC@Util@@PBVRtti@Core@@@Util@@QAEAAPBVRtti@Core@@XZ 00412410 f i foundation_win32.release:factory.obj
 0001:00011430       ??_E?$Array@V?$KeyValuePair@VString@Util@@PBVRtti@Core@@@Util@@@Util@@QAEPAXI@Z 00412430 f i foundation_win32.release:factory.obj
 0001:000114d0       ?Alloc@?$FixedArray@V?$Array@V?$KeyValuePair@VString@Util@@PBVRtti@Core@@@Util@@@Util@@@Util@@AAEXH@Z 004124d0 f i foundation_win32.release:factory.obj
 0001:000115a0       ??1?$Array@V?$KeyValuePair@VString@Util@@PBVRtti@Core@@@Util@@@Util@@QAE@XZ 004125a0 f i foundation_win32.release:factory.obj
 0001:000115c0       ?InsertSorted@?$Array@V?$KeyValuePair@VString@Util@@PBVRtti@Core@@@Util@@@Util@@QAEHABV?$KeyValuePair@VString@Util@@PBVRtti@Core@@@2@@Z 004125c0 f i foundation_win32.release:factory.obj
 0001:00011830       ?Destroy@?$Array@V?$KeyValuePair@VString@Util@@PBVRtti@Core@@@Util@@@Util@@AAEXPAV?$KeyValuePair@VString@Util@@PBVRtti@Core@@@2@@Z 00412830 f i foundation_win32.release:factory.obj
 0001:00011850       ??9?$KeyValuePair@VString@Util@@PBVRtti@Core@@@Util@@QBE_NABV01@@Z 00412850 f i foundation_win32.release:factory.obj
 0001:00011870       ??O?$KeyValuePair@VString@Util@@PBVRtti@Core@@@Util@@QBE_NABV01@@Z 00412870 f i foundation_win32.release:factory.obj
 0001:00011890       ??M?$KeyValuePair@VString@Util@@PBVRtti@Core@@@Util@@QBE_NABV01@@Z 00412890 f i foundation_win32.release:factory.obj
 0001:000118b0       ?Key@?$KeyValuePair@VString@Util@@PBVRtti@Core@@@Util@@QBEABVString@2@XZ 004128b0 f i foundation_win32.release:factory.obj
 0001:000118c0       ?Size@?$Array@V?$KeyValuePair@VFourCC@Util@@PBVRtti@Core@@@Util@@@Util@@QBEHXZ 004128c0 f i foundation_win32.release:factory.obj
 0001:000118e0       ?Insert@?$Array@V?$KeyValuePair@VFourCC@Util@@PBVRtti@Core@@@Util@@@Util@@QAEXHABV?$KeyValuePair@VFourCC@Util@@PBVRtti@Core@@@2@@Z 004128e0 f i foundation_win32.release:factory.obj
 0001:00011950       ?InsertAtEndOfIdenticalRange@?$Array@V?$KeyValuePair@VFourCC@Util@@PBVRtti@Core@@@Util@@@Util@@QAEHHABV?$KeyValuePair@VFourCC@Util@@PBVRtti@Core@@@2@@Z 00412950 f i foundation_win32.release:factory.obj
 0001:000119d0       ?Destroy@?$Array@V?$KeyValuePair@VFourCC@Util@@PBVRtti@Core@@@Util@@@Util@@AAEXPAV?$KeyValuePair@VFourCC@Util@@PBVRtti@Core@@@2@@Z 004129d0 f i foundation_win32.release:factory.obj
 0001:000119e0       ?Grow@?$Array@V?$KeyValuePair@VFourCC@Util@@PBVRtti@Core@@@Util@@@Util@@AAEXXZ 004129e0 f i foundation_win32.release:factory.obj
 0001:00011a60       ??4?$KeyValuePair@VFourCC@Util@@PBVRtti@Core@@@Util@@QAEXABV01@@Z 00412a60 f i foundation_win32.release:factory.obj
 0001:00011a90       ??9?$KeyValuePair@VFourCC@Util@@PBVRtti@Core@@@Util@@QBE_NABV01@@Z 00412a90 f i foundation_win32.release:factory.obj
 0001:00011ab0       ??O?$KeyValuePair@VFourCC@Util@@PBVRtti@Core@@@Util@@QBE_NABV01@@Z 00412ab0 f i foundation_win32.release:factory.obj
 0001:00011ad0       ??M?$KeyValuePair@VFourCC@Util@@PBVRtti@Core@@@Util@@QBE_NABV01@@Z 00412ad0 f i foundation_win32.release:factory.obj
 0001:00011af0       ??_G?$KeyValuePair@VString@Util@@PBVRtti@Core@@@Util@@QAEPAXI@Z 00412af0 f i foundation_win32.release:factory.obj
 0001:00011b60       ??0?$Array@V?$KeyValuePair@VString@Util@@PBVRtti@Core@@@Util@@@Util@@QAE@XZ 00412b60 f i foundation_win32.release:factory.obj
 0001:00011ba0       ?Append@?$Array@V?$KeyValuePair@VString@Util@@PBVRtti@Core@@@Util@@@Util@@QAEXABV?$KeyValuePair@VString@Util@@PBVRtti@Core@@@2@@Z 00412ba0 f i foundation_win32.release:factory.obj
 0001:00011c20       ?Insert@?$Array@V?$KeyValuePair@VString@Util@@PBVRtti@Core@@@Util@@@Util@@QAEXHABV?$KeyValuePair@VString@Util@@PBVRtti@Core@@@2@@Z 00412c20 f i foundation_win32.release:factory.obj
 0001:00011c90       ?InsertAtEndOfIdenticalRange@?$Array@V?$KeyValuePair@VString@Util@@PBVRtti@Core@@@Util@@@Util@@QAEHHABV?$KeyValuePair@VString@Util@@PBVRtti@Core@@@2@@Z 00412c90 f i foundation_win32.release:factory.obj
 0001:00011d10       ?Delete@?$Array@V?$KeyValuePair@VString@Util@@PBVRtti@Core@@@Util@@@Util@@AAEXXZ 00412d10 f i foundation_win32.release:factory.obj
 0001:00011d80       ?GrowTo@?$Array@V?$KeyValuePair@VFourCC@Util@@PBVRtti@Core@@@Util@@@Util@@AAEXH@Z 00412d80 f i foundation_win32.release:factory.obj
 0001:00011e70       ?Move@?$Array@V?$KeyValuePair@VFourCC@Util@@PBVRtti@Core@@@Util@@@Util@@AAEXHH@Z 00412e70 f i foundation_win32.release:factory.obj
 0001:00012000       ??_E?$KeyValuePair@VString@Util@@PBVRtti@Core@@@Util@@QAEPAXI@Z 00413000 f i foundation_win32.release:factory.obj
 0001:00012110       ?Grow@?$Array@V?$KeyValuePair@VString@Util@@PBVRtti@Core@@@Util@@@Util@@AAEXXZ 00413110 f i foundation_win32.release:factory.obj
 0001:00012190       ?Move@?$Array@V?$KeyValuePair@VString@Util@@PBVRtti@Core@@@Util@@@Util@@AAEXHH@Z 00413190 f i foundation_win32.release:factory.obj
 0001:00012320       ??4?$KeyValuePair@VString@Util@@PBVRtti@Core@@@Util@@QAEXABV01@@Z 00413320 f i foundation_win32.release:factory.obj
 0001:00012370       ??0?$KeyValuePair@VFourCC@Util@@PBVRtti@Core@@@Util@@QAE@XZ 00413370 f i foundation_win32.release:factory.obj
 0001:00012390       ?GrowTo@?$Array@V?$KeyValuePair@VString@Util@@PBVRtti@Core@@@Util@@@Util@@AAEXH@Z 00413390 f i foundation_win32.release:factory.obj
 0001:000124b0       ??0?$KeyValuePair@VString@Util@@PBVRtti@Core@@@Util@@QAE@XZ 004134b0 f i foundation_win32.release:factory.obj
 0001:000124f0       ?GetNumCpuCores@SystemInfoBase@Base@@QBEHXZ 004134f0 f i foundation_win32.release:win360criticalsection.obj
 0001:00012510       ??0Win360CriticalSection@Win360@@QAE@XZ 00413510 f   foundation_win32.release:win360criticalsection.obj
 0001:00012580       ??1Win360CriticalSection@Win360@@QAE@XZ 00413580 f   foundation_win32.release:win360criticalsection.obj
 0001:000125b0       ??2Win32ConsoleHandler@Win32@@SAPAXI@Z 004135b0 f i foundation_win32.release:win32consolehandler.obj
 0001:000125c0       ??3Win32ConsoleHandler@Win32@@SAXPAX@Z 004135c0 f i foundation_win32.release:win32consolehandler.obj
 0001:000125e0       ?Value@StringAtom@Util@@QBEPBDXZ 004135e0 f i foundation_win32.release:win32consolehandler.obj
 0001:000125f0       ?Instance@CoreServer@Core@@SAPAV12@XZ 004135f0 f i foundation_win32.release:win32consolehandler.obj
 0001:00012630       ?HasInstance@CoreServer@Core@@SA_NXZ 00413630 f i foundation_win32.release:win32consolehandler.obj
 0001:00012650       ?GetAppName@CoreServer@Core@@QBEABVStringAtom@Util@@XZ 00413650 f i foundation_win32.release:win32consolehandler.obj
 0001:00012670       ?GetRtti@Win32ConsoleHandler@Win32@@UBEPAVRtti@Core@@XZ 00413670 f   foundation_win32.release:win32consolehandler.obj
 0001:00012680       ?FactoryCreator@Win32ConsoleHandler@Win32@@SAPAVRefCounted@Core@@XZ 00413680 f   foundation_win32.release:win32consolehandler.obj
 0001:00012690       ?Create@Win32ConsoleHandler@Win32@@SAPAV12@XZ 00413690 f   foundation_win32.release:win32consolehandler.obj
 0001:000126d0       ?RegisterWithFactory@Win32ConsoleHandler@Win32@@SA_NXZ 004136d0 f   foundation_win32.release:win32consolehandler.obj
 0001:000127d0       ??0Win32ConsoleHandler@Win32@@QAE@XZ 004137d0 f   foundation_win32.release:win32consolehandler.obj
 0001:00012870       ??_EWin32ConsoleHandler@Win32@@UAEPAXI@Z 00413870 f i  CIL library: CIL module
 0001:00012870       ??_GWin32ConsoleHandler@Win32@@UAEPAXI@Z 00413870 f i foundation_win32.release:win32consolehandler.obj
 0001:000128a0       ??1Win32ConsoleHandler@Win32@@UAE@XZ 004138a0 f i foundation_win32.release:win32consolehandler.obj
 0001:000128c0       ?Print@Win32ConsoleHandler@Win32@@UAEXABVString@Util@@@Z 004138c0 f   foundation_win32.release:win32consolehandler.obj
 0001:00012990       ?DebugOut@Win32ConsoleHandler@Win32@@UAEXABVString@Util@@@Z 00413990 f   foundation_win32.release:win32consolehandler.obj
 0001:000129d0       ?Error@Win32ConsoleHandler@Win32@@UAEXABVString@Util@@@Z 004139d0 f   foundation_win32.release:win32consolehandler.obj
 0001:00012b10       ?Warning@Win32ConsoleHandler@Win32@@UAEXABVString@Util@@@Z 00413b10 f   foundation_win32.release:win32consolehandler.obj
 0001:00012b60       ?Confirm@Win32ConsoleHandler@Win32@@UAEXABVString@Util@@@Z 00413b60 f   foundation_win32.release:win32consolehandler.obj
 0001:00012be0       ?HasInput@Win32ConsoleHandler@Win32@@UAE_NXZ 00413be0 f   foundation_win32.release:win32consolehandler.obj
 0001:00012c90       ?GetInput@Win32ConsoleHandler@Win32@@UAE?AVString@Util@@XZ 00413c90 f   foundation_win32.release:win32consolehandler.obj
 0001:00012dd0       ?Setup@Win360Heap@Win360@@SAXXZ 00413dd0 f   foundation_win32.release:win360heap.obj
 0001:00012de0       ??0Win360Heap@Win360@@QAE@PBDII@Z 00413de0 f   foundation_win32.release:win360heap.obj
 0001:00012e70       ??1Win360Heap@Win360@@QAE@XZ 00413e70 f   foundation_win32.release:win360heap.obj
 0001:00012eb0       ??0Win32SystemInfo@Win32@@QAE@XZ 00413eb0 f   foundation_win32.release:win32systeminfo.obj
 0001:00012f30       ??2Win360Socket@Win360@@SAPAXI@Z 00413f30 f i foundation_win32.release:win360socket.obj
 0001:00012f40       ??3Win360Socket@Win360@@SAXPAX@Z 00413f40 f i foundation_win32.release:win360socket.obj
 0001:00012f60       ?IsOpen@Win360Socket@Win360@@QBE_NXZ 00413f60 f i foundation_win32.release:win360socket.obj
 0001:00012f80       ?IsBound@Win360Socket@Win360@@QBE_NXZ 00413f80 f i foundation_win32.release:win360socket.obj
 0001:00012fa0       ?SetAddress@Win360Socket@Win360@@QAEXABVWin360IpAddress@2@@Z 00413fa0 f i foundation_win32.release:win360socket.obj
 0001:00012fc0       ??4Win360IpAddress@Win360@@QAEAAV01@ABV01@@Z 00413fc0 f i foundation_win32.release:win360socket.obj
 0001:00013070       ?GetBlocking@Win360Socket@Win360@@QBE_NXZ 00414070 f i foundation_win32.release:win360socket.obj
 0001:00013090       ?GetRtti@Win360Socket@Win360@@UBEPAVRtti@Core@@XZ 00414090 f   foundation_win32.release:win360socket.obj
 0001:000130a0       ?FactoryCreator@Win360Socket@Win360@@SAPAVRefCounted@Core@@XZ 004140a0 f   foundation_win32.release:win360socket.obj
 0001:000130b0       ?Create@Win360Socket@Win360@@SAPAV12@XZ 004140b0 f   foundation_win32.release:win360socket.obj
 0001:000130f0       ?RegisterWithFactory@Win360Socket@Win360@@SA_NXZ 004140f0 f   foundation_win32.release:win360socket.obj
 0001:000131f0       ??0Win360Socket@Win360@@QAE@XZ 004141f0 f   foundation_win32.release:win360socket.obj
 0001:00013270       ??_EWin360Socket@Win360@@UAEPAXI@Z 00414270 f i  CIL library: CIL module
 0001:00013270       ??_GWin360Socket@Win360@@UAEPAXI@Z 00414270 f i foundation_win32.release:win360socket.obj
 0001:000132a0       ??1Win360IpAddress@Win360@@QAE@XZ 004142a0 f i foundation_win32.release:win360socket.obj
 0001:00013330       ??1Win360Socket@Win360@@UAE@XZ 00414330 f   foundation_win32.release:win360socket.obj
 0001:00013380       ?InitNetwork@Win360Socket@Win360@@SAXXZ 00414380 f   foundation_win32.release:win360socket.obj
 0001:00013480       ?Open@Win360Socket@Win360@@QAE_NW4Protocol@12@@Z 00414480 f   foundation_win32.release:win360socket.obj
 0001:00013550       ?OpenWithExistingSocket@Win360Socket@Win360@@AAEXI@Z 00414550 f   foundation_win32.release:win360socket.obj
 0001:000135b0       ?Close@Win360Socket@Win360@@QAEXXZ 004145b0 f   foundation_win32.release:win360socket.obj
 0001:00013730       ?SetBoolOption@Win360Socket@Win360@@AAEXH_N@Z 00414730 f   foundation_win32.release:win360socket.obj
 0001:00013830       ?GetBoolOption@Win360Socket@Win360@@AAE_NH@Z 00414830 f   foundation_win32.release:win360socket.obj
 0001:00013960       ?SetIntOption@Win360Socket@Win360@@AAEXHH@Z 00414960 f   foundation_win32.release:win360socket.obj
 0001:00013a40       ?GetIntOption@Win360Socket@Win360@@AAEHH@Z 00414a40 f   foundation_win32.release:win360socket.obj
 0001:00013b50       ?SetBlocking@Win360Socket@Win360@@QAEX_N@Z 00414b50 f   foundation_win32.release:win360socket.obj
 0001:00013c40       ?Bind@Win360Socket@Win360@@QAE_NXZ 00414c40 f   foundation_win32.release:win360socket.obj
 0001:00013d50       ?Listen@Win360Socket@Win360@@QAE_NXZ 00414d50 f   foundation_win32.release:win360socket.obj
 0001:00013e50       ?Accept@Win360Socket@Win360@@QAE_NAAV?$Ptr@VSocket@Net@@@@@Z 00414e50 f   foundation_win32.release:win360socket.obj
 0001:00014020       ?Connect@Win360Socket@Win360@@QAE?AW4Result@12@XZ 00415020 f   foundation_win32.release:win360socket.obj
 0001:00014190       ?IsConnected@Win360Socket@Win360@@QAE_NXZ 00415190 f   foundation_win32.release:win360socket.obj
 0001:000142f0       ?Send@Win360Socket@Win360@@QAE?AW4Result@12@PBXHAAH@Z 004152f0 f   foundation_win32.release:win360socket.obj
 0001:00014420       ?HasRecvData@Win360Socket@Win360@@QAE_NXZ 00415420 f   foundation_win32.release:win360socket.obj
 0001:00014580       ?Recv@Win360Socket@Win360@@QAE?AW4Result@12@PAXHAAH@Z 00415580 f   foundation_win32.release:win360socket.obj
 0001:000146f0       ?SendTo@Win360Socket@Win360@@QAE?AW4Result@12@PBXHIGAAH@Z 004156f0 f   foundation_win32.release:win360socket.obj
 0001:00014710       ?RecvFrom@Win360Socket@Win360@@QAE?AW4Result@12@PAXHIGAAH@Z 00415710 f   foundation_win32.release:win360socket.obj
 0001:00014730       ?ClearError@Win360Socket@Win360@@AAEXXZ 00415730 f   foundation_win32.release:win360socket.obj
 0001:00014750       ?SetToLastWSAError@Win360Socket@Win360@@AAEXXZ 00415750 f   foundation_win32.release:win360socket.obj
 0001:00014770       ?SetWSAError@Win360Socket@Win360@@AAEXH@Z 00415770 f   foundation_win32.release:win360socket.obj
 0001:00014790       ?WSAErrorToErrorCode@Win360Socket@Win360@@CA?AW4ErrorCode@12@H@Z 00415790 f   foundation_win32.release:win360socket.obj
 0001:00014b50       ?ErrorAsString@Win360Socket@Win360@@CA?AVString@Util@@W4ErrorCode@12@@Z 00415b50 f   foundation_win32.release:win360socket.obj
 0001:000155b0       ?WSAErrorToString@Win360Socket@Win360@@CA?AVString@Util@@H@Z 004165b0 f   foundation_win32.release:win360socket.obj
 0001:000155e0       ?GetErrorString@Win360Socket@Win360@@QBE?AVString@Util@@XZ 004165e0 f   foundation_win32.release:win360socket.obj
 0001:00015610       ?IsNetworkInitialized@Win360Socket@Win360@@SA_NXZ 00416610 f   foundation_win32.release:win360socket.obj
 0001:00015620       ??4?$Ptr@VSocket@Net@@@@QAEXPAVSocket@Net@@@Z 00416620 f i foundation_win32.release:win360socket.obj
 0001:00015680       ??C?$Ptr@VSocket@Net@@@@QBEPAVSocket@Net@@XZ 00416680 f i foundation_win32.release:win360socket.obj
 0001:000156c0       ?Clear@Memory@@YAXPAXI@Z   004166c0 f i foundation_win32.release:win32minidump.obj
 0001:000156e0       ?ExtractFileName@String@Util@@QBE?AV12@XZ 004166e0 f i foundation_win32.release:win32minidump.obj
 0001:00015780       ?ExtractToLastSlash@String@Util@@QBE?AV12@XZ 00416780 f i foundation_win32.release:win32minidump.obj
 0001:00015810       ?Setup@Win32MiniDump@Win32@@SAXXZ 00416810 f   foundation_win32.release:win32minidump.obj
 0001:00015820       ?WriteMiniDump@Win32MiniDump@Win32@@SA_NXZ 00416820 f   foundation_win32.release:win32minidump.obj
 0001:00015830       ?WriteMiniDumpInternal@Win32MiniDump@Win32@@CA_NPAU_EXCEPTION_POINTERS@@@Z 00416830 f   foundation_win32.release:win32minidump.obj
 0001:00015950       ?BuildMiniDumpFilename@Win32MiniDump@Win32@@CA?AVString@Util@@XZ 00416950 f   foundation_win32.release:win32minidump.obj
 0001:00015bf0       ?ExceptionCallback@Win32MiniDump@Win32@@CGJPAU_EXCEPTION_POINTERS@@@Z 00416bf0 f   foundation_win32.release:win32minidump.obj
 0001:00015c10       ??0ExitHandler@Core@@QAE@XZ 00416c10 f   foundation_win32.release:exithandler.obj
 0001:00015c40       ??_GExitHandler@Core@@UAEPAXI@Z 00416c40 f i foundation_win32.release:exithandler.obj
 0001:00015c40       ??_EExitHandler@Core@@UAEPAXI@Z 00416c40 f i  CIL library: CIL module
 0001:00015c70       ??1ExitHandler@Core@@UAE@XZ 00416c70 f   foundation_win32.release:exithandler.obj
 0001:00015c90       ?Next@ExitHandler@Core@@QBEPBV12@XZ 00416c90 f   foundation_win32.release:exithandler.obj
 0001:00015cb0       ?OnExit@ExitHandler@Core@@UBEXXZ 00416cb0 f   foundation_win32.release:exithandler.obj
 0001:00015cc0       ?IsValid@StringBuffer@Util@@QBE_NXZ 00416cc0 f i foundation_win32.release:stringbuffer.obj
 0001:00015ce0       ??0StringBuffer@Util@@QAE@XZ 00416ce0 f   foundation_win32.release:stringbuffer.obj
 0001:00015d10       ??1StringBuffer@Util@@QAE@XZ 00416d10 f   foundation_win32.release:stringbuffer.obj
 0001:00015d40       ?Setup@StringBuffer@Util@@QAEXH@Z 00416d40 f   foundation_win32.release:stringbuffer.obj
 0001:00015da0       ?Discard@StringBuffer@Util@@QAEXXZ 00416da0 f   foundation_win32.release:stringbuffer.obj
 0001:00015e40       ?AllocNewChunk@StringBuffer@Util@@AAEXXZ 00416e40 f   foundation_win32.release:stringbuffer.obj
 0001:00015e80       ?AddString@StringBuffer@Util@@QAEPBDPBD@Z 00416e80 f   foundation_win32.release:stringbuffer.obj
 0001:00015fa0       ??0?$Array@PAD@Util@@QAE@XZ 00416fa0 f i foundation_win32.release:stringbuffer.obj
 0001:00015fe0       ??1?$Array@PAD@Util@@QAE@XZ 00416fe0 f i foundation_win32.release:stringbuffer.obj
 0001:00016000       ??A?$Array@PAD@Util@@QBEAAPADH@Z 00417000 f i foundation_win32.release:stringbuffer.obj
 0001:00016050       ?Append@?$Array@PAD@Util@@QAEXABQAD@Z 00417050 f i foundation_win32.release:stringbuffer.obj
 0001:000160c0       ?Back@?$Array@PAD@Util@@QBEAAPADXZ 004170c0 f i foundation_win32.release:stringbuffer.obj
 0001:00016110       ?Clear@?$Array@PAD@Util@@QAEXXZ 00417110 f i foundation_win32.release:stringbuffer.obj
 0001:00016160       ?Destroy@?$Array@PAD@Util@@AAEXPAPAD@Z 00417160 f i foundation_win32.release:stringbuffer.obj
 0001:00016170       ?Delete@?$Array@PAD@Util@@AAEXXZ 00417170 f i foundation_win32.release:stringbuffer.obj
 0001:000161d0       ?Grow@?$Array@PAD@Util@@AAEXXZ 004171d0 f i foundation_win32.release:stringbuffer.obj
 0001:00016250       ?GrowTo@?$Array@PAD@Util@@AAEXH@Z 00417250 f i foundation_win32.release:stringbuffer.obj
 0001:00016300       ??2ConsoleHandler@IO@@SAPAXI@Z 00417300 f i foundation_win32.release:consolehandler.obj
 0001:00016310       ??3ConsoleHandler@IO@@SAXPAX@Z 00417310 f i foundation_win32.release:consolehandler.obj
 0001:00016330       ?IsOpen@ConsoleHandler@IO@@QBE_NXZ 00417330 f i foundation_win32.release:consolehandler.obj
 0001:00016350       ?GetRtti@ConsoleHandler@IO@@UBEPAVRtti@Core@@XZ 00417350 f   foundation_win32.release:consolehandler.obj
 0001:00016360       ?FactoryCreator@ConsoleHandler@IO@@SAPAVRefCounted@Core@@XZ 00417360 f   foundation_win32.release:consolehandler.obj
 0001:00016370       ?Create@ConsoleHandler@IO@@SAPAV12@XZ 00417370 f   foundation_win32.release:consolehandler.obj
 0001:000163b0       ?RegisterWithFactory@ConsoleHandler@IO@@SA_NXZ 004173b0 f   foundation_win32.release:consolehandler.obj
 0001:000164b0       ??0ConsoleHandler@IO@@QAE@XZ 004174b0 f   foundation_win32.release:consolehandler.obj
 0001:000164f0       ??_EConsoleHandler@IO@@UAEPAXI@Z 004174f0 f i  CIL library: CIL module
 0001:000164f0       ??_GConsoleHandler@IO@@UAEPAXI@Z 004174f0 f i foundation_win32.release:consolehandler.obj
 0001:00016520       ??1ConsoleHandler@IO@@UAE@XZ 00417520 f   foundation_win32.release:consolehandler.obj
 0001:00016560       ?Open@ConsoleHandler@IO@@UAEXXZ 00417560 f   foundation_win32.release:consolehandler.obj
 0001:000165a0       ?Close@ConsoleHandler@IO@@UAEXXZ 004175a0 f   foundation_win32.release:consolehandler.obj
 0001:000165e0       ?Update@ConsoleHandler@IO@@UAEXXZ 004175e0 f   foundation_win32.release:consolehandler.obj
 0001:00016620       ?Print@ConsoleHandler@IO@@UAEXABVString@Util@@@Z 00417620 f   foundation_win32.release:consolehandler.obj
 0001:00016630       ?Error@ConsoleHandler@IO@@UAEXABVString@Util@@@Z 00417630 f   foundation_win32.release:consolehandler.obj
 0001:00016640       ?Warning@ConsoleHandler@IO@@UAEXABVString@Util@@@Z 00417640 f   foundation_win32.release:consolehandler.obj
 0001:00016650       ?Confirm@ConsoleHandler@IO@@UAEXABVString@Util@@@Z 00417650 f   foundation_win32.release:consolehandler.obj
 0001:00016660       ?DebugOut@ConsoleHandler@IO@@UAEXABVString@Util@@@Z 00417660 f   foundation_win32.release:consolehandler.obj
 0001:00016670       ?HasInput@ConsoleHandler@IO@@UAE_NXZ 00417670 f   foundation_win32.release:consolehandler.obj
 0001:00016680       ?GetInput@ConsoleHandler@IO@@UAE?AVString@Util@@XZ 00417680 f   foundation_win32.release:consolehandler.obj
 0001:000166d0       ??2CoreServer@Core@@SAPAXI@Z 004176d0 f i foundation_win32.release:coreserver.obj
 0001:000166e0       ??3CoreServer@Core@@SAXPAX@Z 004176e0 f i foundation_win32.release:coreserver.obj
 0001:00016700       ?IsOpen@CoreServer@Core@@QBE_NXZ 00417700 f i foundation_win32.release:coreserver.obj
 0001:00016720       ?GetRtti@CoreServer@Core@@UBEPAVRtti@2@XZ 00417720 f   foundation_win32.release:coreserver.obj
 0001:00016730       ?FactoryCreator@CoreServer@Core@@SAPAVRefCounted@2@XZ 00417730 f   foundation_win32.release:coreserver.obj
 0001:00016740       ?Create@CoreServer@Core@@SAPAV12@XZ 00417740 f   foundation_win32.release:coreserver.obj
 0001:00016780       ?RegisterWithFactory@CoreServer@Core@@SA_NXZ 00417780 f   foundation_win32.release:coreserver.obj
 0001:00016880       ??0CoreServer@Core@@QAE@XZ 00417880 f   foundation_win32.release:coreserver.obj
 0001:00016970       ??_ECoreServer@Core@@UAEPAXI@Z 00417970 f i  CIL library: CIL module
 0001:00016970       ??_GCoreServer@Core@@UAEPAXI@Z 00417970 f i foundation_win32.release:coreserver.obj
 0001:000169a0       ??1CoreServer@Core@@UAE@XZ 004179a0 f   foundation_win32.release:coreserver.obj
 0001:00016a20       ?Open@CoreServer@Core@@QAEXXZ 00417a20 f   foundation_win32.release:coreserver.obj
 0001:00016a80       ?Close@CoreServer@Core@@QAEXXZ 00417a80 f   foundation_win32.release:coreserver.obj
 0001:00016ad0       ?Trigger@CoreServer@Core@@QAEXXZ 00417ad0 f   foundation_win32.release:coreserver.obj
 0001:00016af0       ??0?$Ptr@VConsole@IO@@@@QAE@XZ 00417af0 f i foundation_win32.release:coreserver.obj
 0001:00016b10       ??1?$Ptr@VConsole@IO@@@@QAE@XZ 00417b10 f i foundation_win32.release:coreserver.obj
 0001:00016b40       ??4?$Ptr@VConsole@IO@@@@QAEXPAVConsole@IO@@@Z 00417b40 f i foundation_win32.release:coreserver.obj
 0001:00016ba0       ??C?$Ptr@VConsole@IO@@@@QBEPAVConsole@IO@@XZ 00417ba0 f i foundation_win32.release:coreserver.obj
 0001:00016be0       ??0SystemInfoBase@Base@@QAE@XZ 00417be0 f   foundation_win32.release:systeminfobase.obj
 0001:00016c20       ?PlatformAsString@SystemInfoBase@Base@@SA?AVString@Util@@W4Platform@12@@Z 00417c20 f   foundation_win32.release:systeminfobase.obj
 0001:00016d70       ?CpuTypeAsString@SystemInfoBase@Base@@SA?AVString@Util@@W4CpuType@12@@Z 00417d70 f   foundation_win32.release:systeminfobase.obj
 0001:00016f00       ?CheckValidCharSet@String@Util@@QBE_NABV12@@Z 00417f00 f i foundation_win32.release:win360ipaddress.obj
 0001:00016fa0       ?Host@URI@IO@@QBEABVString@Util@@XZ 00417fa0 f i foundation_win32.release:win360ipaddress.obj
 0001:00016fc0       ?Port@URI@IO@@QBEABVString@Util@@XZ 00417fc0 f i foundation_win32.release:win360ipaddress.obj
 0001:00016fe0       ??0Win360IpAddress@Win360@@QAE@XZ 00417fe0 f   foundation_win32.release:win360ipaddress.obj
 0001:00017070       ??0Win360IpAddress@Win360@@QAE@ABV01@@Z 00418070 f   foundation_win32.release:win360ipaddress.obj
 0001:00017150       ??0Win360IpAddress@Win360@@QAE@ABVString@Util@@G@Z 00418150 f   foundation_win32.release:win360ipaddress.obj
 0001:000171f0       ??0Win360IpAddress@Win360@@QAE@ABVURI@IO@@@Z 004181f0 f   foundation_win32.release:win360ipaddress.obj
 0001:00017280       ??0Win360IpAddress@Win360@@AAE@ABUsockaddr_in@@@Z 00418280 f   foundation_win32.release:win360ipaddress.obj
 0001:00017310       ?SetSockAddr@Win360IpAddress@Win360@@AAEXABUsockaddr_in@@@Z 00418310 f   foundation_win32.release:win360ipaddress.obj
 0001:000173b0       ?GetSockAddr@Win360IpAddress@Win360@@ABEABUsockaddr_in@@XZ 004183b0 f   foundation_win32.release:win360ipaddress.obj
 0001:000173d0       ?ExtractFromUri@Win360IpAddress@Win360@@QAEXABVURI@IO@@@Z 004183d0 f   foundation_win32.release:win360ipaddress.obj
 0001:00017490       ?SetPort@Win360IpAddress@Win360@@QAEXG@Z 00418490 f   foundation_win32.release:win360ipaddress.obj
 0001:000174b0       ?GetPort@Win360IpAddress@Win360@@QBEGXZ 004184b0 f   foundation_win32.release:win360ipaddress.obj
 0001:000174d0       ?SetHostName@Win360IpAddress@Win360@@QAEXABVString@Util@@@Z 004184d0 f   foundation_win32.release:win360ipaddress.obj
 0001:00017590       ?GetHostName@Win360IpAddress@Win360@@QBEABVString@Util@@XZ 00418590 f   foundation_win32.release:win360ipaddress.obj
 0001:000175a0       ?GetHostAddr@Win360IpAddress@Win360@@QBEABVString@Util@@XZ 004185a0 f   foundation_win32.release:win360ipaddress.obj
 0001:000175c0       ?GetHostByName@Win360IpAddress@Win360@@CA_NABVString@Util@@AAUin_addr@@@Z 004185c0 f   foundation_win32.release:win360ipaddress.obj
 0001:000178b0       ?IsInetAddr@Win360IpAddress@Win360@@CA_NPBUin_addr@@@Z 004188b0 f   foundation_win32.release:win360ipaddress.obj
 0001:00017ab0       ??2Socket@Net@@SAPAXI@Z    00418ab0 f i foundation_win32.release:socket.obj
 0001:00017ac0       ??3Socket@Net@@SAXPAX@Z    00418ac0 f i foundation_win32.release:socket.obj
 0001:00017ae0       ?GetRtti@Socket@Net@@UBEPAVRtti@Core@@XZ 00418ae0 f   foundation_win32.release:socket.obj
 0001:00017af0       ?FactoryCreator@Socket@Net@@SAPAVRefCounted@Core@@XZ 00418af0 f   foundation_win32.release:socket.obj
 0001:00017b00       ?Create@Socket@Net@@SAPAV12@XZ 00418b00 f   foundation_win32.release:socket.obj
 0001:00017b40       ??0Socket@Net@@QAE@XZ      00418b40 f i foundation_win32.release:socket.obj
 0001:00017b60       ??_ESocket@Net@@UAEPAXI@Z  00418b60 f i  CIL library: CIL module
 0001:00017b60       ??_GSocket@Net@@UAEPAXI@Z  00418b60 f i foundation_win32.release:socket.obj
 0001:00017b90       ??1Socket@Net@@UAE@XZ      00418b90 f i foundation_win32.release:socket.obj
 0001:00017bb0       ?RegisterWithFactory@Socket@Net@@SA_NXZ 00418bb0 f   foundation_win32.release:socket.obj
 0001:00017cb0       ??0StringAtom@Util@@QAE@ABVString@1@@Z 00418cb0 f i render_win32.release:renderapplication.obj
 0001:00017cf0       ?Start@DebugTimer@Debug@@QAEXXZ 00418cf0 f i render_win32.release:renderapplication.obj
 0001:00017d10       ?Stop@DebugTimer@Debug@@QAEXXZ 00418d10 f i render_win32.release:renderapplication.obj
 0001:00017d90       ?GetAppTitle@Application@App@@QBEABVString@Util@@XZ 00418d90 f i render_win32.release:renderapplication.obj
 0001:00017db0       ?GetAppID@Application@App@@QBEABVString@Util@@XZ 00418db0 f i render_win32.release:renderapplication.obj
 0001:00017dd0       ?GetAppVersion@Application@App@@QBEABVString@Util@@XZ 00418dd0 f i render_win32.release:renderapplication.obj
 0001:00017df0       ?SetCompanyName@CoreServer@Core@@QAEXABVStringAtom@Util@@@Z 00418df0 f i render_win32.release:renderapplication.obj
 0001:00017e10       ?SetAppName@CoreServer@Core@@QAEXABVStringAtom@Util@@@Z 00418e10 f i render_win32.release:renderapplication.obj
 0001:00017e30       ?SetRootDirectory@CoreServer@Core@@QAEXABVStringAtom@Util@@@Z 00418e30 f i render_win32.release:renderapplication.obj
 0001:00017e50       ??0DisplayMode@CoreGraphics@@QAE@XZ 00418e50 f i render_win32.release:renderapplication.obj
 0001:00017ea0       ?SetXPos@DisplayMode@CoreGraphics@@QAEXI@Z 00418ea0 f i render_win32.release:renderapplication.obj
 0001:00017ec0       ?SetYPos@DisplayMode@CoreGraphics@@QAEXI@Z 00418ec0 f i render_win32.release:renderapplication.obj
 0001:00017ee0       ?SetWidth@DisplayMode@CoreGraphics@@QAEXI@Z 00418ee0 f i render_win32.release:renderapplication.obj
 0001:00017f00       ?GetWidth@DisplayMode@CoreGraphics@@QBEIXZ 00418f00 f i render_win32.release:renderapplication.obj
 0001:00017f20       ?SetHeight@DisplayMode@CoreGraphics@@QAEXI@Z 00418f20 f i render_win32.release:renderapplication.obj
 0001:00017f40       ?GetHeight@DisplayMode@CoreGraphics@@QBEIXZ 00418f40 f i render_win32.release:renderapplication.obj
 0001:00017f60       ?SetAspectRatio@DisplayMode@CoreGraphics@@QAEXM@Z 00418f60 f i render_win32.release:renderapplication.obj
 0001:00017f80       ?IsAttachedToResourceManager@ResourceMapper@Resources@@QBE_NXZ 00418f80 f i render_win32.release:renderapplication.obj
 0001:00017fa0       ?SetPlaceholderResourceId@ResourceMapper@Resources@@QAEXABVStringAtom@Util@@@Z 00418fa0 f i render_win32.release:renderapplication.obj
 0001:00017fe0       ?GetTime@FrameSyncTimer@FrameSync@@QBENXZ 00418fe0 f i render_win32.release:renderapplication.obj
 0001:00018000       ?GetFrameTime@FrameSyncTimer@FrameSync@@QBENXZ 00419000 f i render_win32.release:renderapplication.obj
 0001:00018020       ?DisplayMode@DisplaySettings@Graphics@@QAEAAV0CoreGraphics@@XZ 00419020 f i render_win32.release:renderapplication.obj
 0001:00018040       ?SetAntiAliasQuality@DisplaySettings@Graphics@@QAEXW4Code@AntiAliasQuality@CoreGraphics@@@Z 00419040 f i render_win32.release:renderapplication.obj
 0001:00018060       ?SetAdapter@DisplaySettings@Graphics@@QAEXW4Code@Adapter@CoreGraphics@@@Z 00419060 f i render_win32.release:renderapplication.obj
 0001:00018080       ?SetFullscreen@DisplaySettings@Graphics@@QAEX_N@Z 00419080 f i render_win32.release:renderapplication.obj
 0001:000180a0       ?SetAlwaysOnTop@DisplaySettings@Graphics@@QAEX_N@Z 004190a0 f i render_win32.release:renderapplication.obj
 0001:000180c0       ?SetParentWindow@Display@Graphics@@QAEXPAX@Z 004190c0 f i render_win32.release:renderapplication.obj
 0001:000180e0       ?SetResourceMappers@Display@Graphics@@QAEXABV?$Array@V?$Ptr@VResourceMapper@Resources@@@@@Util@@@Z 004190e0 f i render_win32.release:renderapplication.obj
 0001:00018100       ?IsQuitRequested@InputServerBase@Base@@QBE_NXZ 00419100 f i render_win32.release:renderapplication.obj
 0001:00018120       ?SetTitle@GameContentServerBase@Base@@QAEXABVString@Util@@@Z 00419120 f i render_win32.release:renderapplication.obj
 0001:00018170       ?SetTitleId@GameContentServerBase@Base@@QAEXABVString@Util@@@Z 00419170 f i render_win32.release:renderapplication.obj
 0001:000181c0       ?SetVersion@GameContentServerBase@Base@@QAEXABVString@Util@@@Z 004191c0 f i render_win32.release:renderapplication.obj
 0001:00018210       ?IsQuitRequested@RenderApplication@App@@IBE_NXZ 00419210 f i render_win32.release:renderapplication.obj
 0001:00018230       ?SetResourceClass@SimpleResourceMapper@Resources@@QAEXABVRtti@Core@@@Z 00419230 f i render_win32.release:renderapplication.obj
 0001:00018270       ?SetResourceLoaderClass@SimpleResourceMapper@Resources@@QAEXABVRtti@Core@@@Z 00419270 f i render_win32.release:renderapplication.obj
 0001:000182b0       ?SetManagedResourceClass@SimpleResourceMapper@Resources@@QAEXABVRtti@Core@@@Z 004192b0 f i render_win32.release:renderapplication.obj
 0001:000182f0       ??0RenderApplication@App@@QAE@XZ 004192f0 f   render_win32.release:renderapplication.obj
 0001:00018450       ??_GRenderApplication@App@@UAEPAXI@Z 00419450 f i render_win32.release:renderapplication.obj
 0001:00018450       ??_ERenderApplication@App@@UAEPAXI@Z 00419450 f i  CIL library: CIL module
 0001:00018480       ??1RenderApplication@App@@UAE@XZ 00419480 f   render_win32.release:renderapplication.obj
 0001:000185e0       ?LookupProjectDirectory@RenderApplication@App@@IAE?AVString@Util@@XZ 004195e0 f   render_win32.release:renderapplication.obj
 0001:00018880       ?Open@RenderApplication@App@@UAE_NXZ 00419880 f   render_win32.release:renderapplication.obj
 0001:00019170       ?OnConfigureDisplay@RenderApplication@App@@MAEXXZ 0041a170 f   render_win32.release:renderapplication.obj
 0001:00019bb0       ?OnSetupResourceMappers@RenderApplication@App@@MAEXXZ 0041abb0 f   render_win32.release:renderapplication.obj
 0001:00019f50       ?Close@RenderApplication@App@@UAEXXZ 0041af50 f   render_win32.release:renderapplication.obj
 0001:0001a1e0       ?Run@RenderApplication@App@@UAEXXZ 0041b1e0 f   render_win32.release:renderapplication.obj
 0001:0001a3e0       ?OnProcessInput@RenderApplication@App@@MAEXXZ 0041b3e0 f   render_win32.release:renderapplication.obj
 0001:0001a3f0       ?OnUpdateFrame@RenderApplication@App@@MAEXXZ 0041b3f0 f   render_win32.release:renderapplication.obj
 0001:0001a400       ?UpdateTime@RenderApplication@App@@QAEXXZ 0041b400 f   render_win32.release:renderapplication.obj
 0001:0001a460       ?Add@?$RingBuffer@N@Util@@QAEXABN@Z 0041b460 f i render_win32.release:renderapplication.obj
 0001:0001a510       ??0?$Ptr@VDebugTimer@Debug@@@@QAE@XZ 0041b510 f i render_win32.release:renderapplication.obj
 0001:0001a530       ??1?$Ptr@VDebugTimer@Debug@@@@QAE@XZ 0041b530 f i render_win32.release:renderapplication.obj
 0001:0001a560       ??4?$Ptr@VDebugTimer@Debug@@@@QAEXPAVDebugTimer@Debug@@@Z 0041b560 f i render_win32.release:renderapplication.obj
 0001:0001a5c0       ??C?$Ptr@VDebugTimer@Debug@@@@QBEPAVDebugTimer@Debug@@XZ 0041b5c0 f i render_win32.release:renderapplication.obj
 0001:0001a600       ??0?$Array@V?$Ptr@VResourceMapper@Resources@@@@@Util@@QAE@XZ 0041b600 f i render_win32.release:renderapplication.obj
 0001:0001a640       ??1?$Array@V?$Ptr@VResourceMapper@Resources@@@@@Util@@QAE@XZ 0041b640 f i render_win32.release:renderapplication.obj
 0001:0001a660       ??4?$Array@V?$Ptr@VResourceMapper@Resources@@@@@Util@@QAEXABV01@@Z 0041b660 f i render_win32.release:renderapplication.obj
 0001:0001a750       ?Append@?$Array@V?$Ptr@VResourceMapper@Resources@@@@@Util@@QAEXABV?$Ptr@VResourceMapper@Resources@@@@@Z 0041b750 f i render_win32.release:renderapplication.obj
 0001:0001a7d0       ??4?$Ptr@VResourceMapper@Resources@@@@QAEXABV0@@Z 0041b7d0 f i render_win32.release:renderapplication.obj
 0001:0001a830       ??0?$Ptr@VFrameSyncTimer@FrameSync@@@@QAE@XZ 0041b830 f i render_win32.release:renderapplication.obj
 0001:0001a850       ??1?$Ptr@VFrameSyncTimer@FrameSync@@@@QAE@XZ 0041b850 f i render_win32.release:renderapplication.obj
 0001:0001a880       ??4?$Ptr@VFrameSyncTimer@FrameSync@@@@QAEXPAVFrameSyncTimer@FrameSync@@@Z 0041b880 f i render_win32.release:renderapplication.obj
 0001:0001a8e0       ??C?$Ptr@VFrameSyncTimer@FrameSync@@@@QBEPAVFrameSyncTimer@FrameSync@@XZ 0041b8e0 f i render_win32.release:renderapplication.obj
 0001:0001a920       ??0?$Ptr@VIoServer@IO@@@@QAE@XZ 0041b920 f i render_win32.release:renderapplication.obj
 0001:0001a940       ??1?$Ptr@VIoServer@IO@@@@QAE@XZ 0041b940 f i render_win32.release:renderapplication.obj
 0001:0001a970       ??4?$Ptr@VIoServer@IO@@@@QAEXPAVIoServer@IO@@@Z 0041b970 f i render_win32.release:renderapplication.obj
 0001:0001a9d0       ??C?$Ptr@VIoServer@IO@@@@QBEPAVIoServer@IO@@XZ 0041b9d0 f i render_win32.release:renderapplication.obj
 0001:0001aa10       ??0?$Ptr@VHttpServerProxy@Http@@@@QAE@XZ 0041ba10 f i render_win32.release:renderapplication.obj
 0001:0001aa30       ??1?$Ptr@VHttpServerProxy@Http@@@@QAE@XZ 0041ba30 f i render_win32.release:renderapplication.obj
 0001:0001aa60       ??4?$Ptr@VHttpServerProxy@Http@@@@QAEXPAVHttpServerProxy@Http@@@Z 0041ba60 f i render_win32.release:renderapplication.obj
 0001:0001aac0       ??C?$Ptr@VHttpServerProxy@Http@@@@QBEPAVHttpServerProxy@Http@@XZ 0041bac0 f i render_win32.release:renderapplication.obj
 0001:0001ab00       ??0?$Ptr@VHttpClientRegistry@Http@@@@QAE@XZ 0041bb00 f i render_win32.release:renderapplication.obj
 0001:0001ab20       ??1?$Ptr@VHttpClientRegistry@Http@@@@QAE@XZ 0041bb20 f i render_win32.release:renderapplication.obj
 0001:0001ab50       ??4?$Ptr@VHttpClientRegistry@Http@@@@QAEXPAVHttpClientRegistry@Http@@@Z 0041bb50 f i render_win32.release:renderapplication.obj
 0001:0001abb0       ??C?$Ptr@VHttpClientRegistry@Http@@@@QBEPAVHttpClientRegistry@Http@@XZ 0041bbb0 f i render_win32.release:renderapplication.obj
 0001:0001abf0       ??0?$Ptr@VCoreServer@Core@@@@QAE@XZ 0041bbf0 f i render_win32.release:renderapplication.obj
 0001:0001ac10       ??1?$Ptr@VCoreServer@Core@@@@QAE@XZ 0041bc10 f i render_win32.release:renderapplication.obj
 0001:0001ac40       ??4?$Ptr@VCoreServer@Core@@@@QAEXPAVCoreServer@Core@@@Z 0041bc40 f i render_win32.release:renderapplication.obj
 0001:0001aca0       ??C?$Ptr@VCoreServer@Core@@@@QBEPAVCoreServer@Core@@XZ 0041bca0 f i render_win32.release:renderapplication.obj
 0001:0001ace0       ??0?$Ptr@VJobSystem@Jobs@@@@QAE@XZ 0041bce0 f i render_win32.release:renderapplication.obj
 0001:0001ad00       ??1?$Ptr@VJobSystem@Jobs@@@@QAE@XZ 0041bd00 f i render_win32.release:renderapplication.obj
 0001:0001ad30       ??4?$Ptr@VJobSystem@Jobs@@@@QAEXPAVJobSystem@Jobs@@@Z 0041bd30 f i render_win32.release:renderapplication.obj
 0001:0001ad90       ??C?$Ptr@VJobSystem@Jobs@@@@QBEPAVJobSystem@Jobs@@XZ 0041bd90 f i render_win32.release:renderapplication.obj
 0001:0001add0       ??0?$Ptr@VGameContentServer@IO@@@@QAE@XZ 0041bdd0 f i render_win32.release:renderapplication.obj
 0001:0001adf0       ??1?$Ptr@VGameContentServer@IO@@@@QAE@XZ 0041bdf0 f i render_win32.release:renderapplication.obj
 0001:0001ae20       ??4?$Ptr@VGameContentServer@IO@@@@QAEXPAVGameContentServer@IO@@@Z 0041be20 f i render_win32.release:renderapplication.obj
 0001:0001ae80       ??C?$Ptr@VGameContentServer@IO@@@@QBEPAVGameContentServer@IO@@XZ 0041be80 f i render_win32.release:renderapplication.obj
 0001:0001aec0       ??0?$Ptr@VIoInterface@IO@@@@QAE@XZ 0041bec0 f i render_win32.release:renderapplication.obj
 0001:0001aee0       ??1?$Ptr@VIoInterface@IO@@@@QAE@XZ 0041bee0 f i render_win32.release:renderapplication.obj
 0001:0001af10       ??4?$Ptr@VIoInterface@IO@@@@QAEXPAVIoInterface@IO@@@Z 0041bf10 f i render_win32.release:renderapplication.obj
 0001:0001af70       ??C?$Ptr@VIoInterface@IO@@@@QBEPAVIoInterface@IO@@XZ 0041bf70 f i render_win32.release:renderapplication.obj
 0001:0001afb0       ??0?$Ptr@VGraphicsInterface@Graphics@@@@QAE@XZ 0041bfb0 f i render_win32.release:renderapplication.obj
 0001:0001afd0       ??1?$Ptr@VGraphicsInterface@Graphics@@@@QAE@XZ 0041bfd0 f i render_win32.release:renderapplication.obj
 0001:0001b000       ??4?$Ptr@VGraphicsInterface@Graphics@@@@QAEXPAVGraphicsInterface@Graphics@@@Z 0041c000 f i render_win32.release:renderapplication.obj
 0001:0001b060       ??C?$Ptr@VGraphicsInterface@Graphics@@@@QBEPAVGraphicsInterface@Graphics@@XZ 0041c060 f i render_win32.release:renderapplication.obj
 0001:0001b0a0       ??0?$Ptr@VDisplay@Graphics@@@@QAE@XZ 0041c0a0 f i render_win32.release:renderapplication.obj
 0001:0001b0c0       ??1?$Ptr@VDisplay@Graphics@@@@QAE@XZ 0041c0c0 f i render_win32.release:renderapplication.obj
 0001:0001b0f0       ??4?$Ptr@VDisplay@Graphics@@@@QAEXPAVDisplay@Graphics@@@Z 0041c0f0 f i render_win32.release:renderapplication.obj
 0001:0001b150       ??0?$Ptr@VInputServer@Input@@@@QAE@XZ 0041c150 f i render_win32.release:renderapplication.obj
 0001:0001b170       ??1?$Ptr@VInputServer@Input@@@@QAE@XZ 0041c170 f i render_win32.release:renderapplication.obj
 0001:0001b1a0       ??4?$Ptr@VInputServer@Input@@@@QAEXPAVInputServer@Input@@@Z 0041c1a0 f i render_win32.release:renderapplication.obj
 0001:0001b200       ??C?$Ptr@VInputServer@Input@@@@QBEPAVInputServer@Input@@XZ 0041c200 f i render_win32.release:renderapplication.obj
 0001:0001b240       ??0?$Ptr@VDebugInterface@Debug@@@@QAE@XZ 0041c240 f i render_win32.release:renderapplication.obj
 0001:0001b260       ??1?$Ptr@VDebugInterface@Debug@@@@QAE@XZ 0041c260 f i render_win32.release:renderapplication.obj
 0001:0001b290       ??4?$Ptr@VDebugInterface@Debug@@@@QAEXPAVDebugInterface@Debug@@@Z 0041c290 f i render_win32.release:renderapplication.obj
 0001:0001b2f0       ??C?$Ptr@VDebugInterface@Debug@@@@QBEPAVDebugInterface@Debug@@XZ 0041c2f0 f i render_win32.release:renderapplication.obj
 0001:0001b330       ??0?$Ptr@VHttpInterface@Http@@@@QAE@XZ 0041c330 f i render_win32.release:renderapplication.obj
 0001:0001b350       ??1?$Ptr@VHttpInterface@Http@@@@QAE@XZ 0041c350 f i render_win32.release:renderapplication.obj
 0001:0001b380       ??4?$Ptr@VHttpInterface@Http@@@@QAEXPAVHttpInterface@Http@@@Z 0041c380 f i render_win32.release:renderapplication.obj
 0001:0001b3e0       ??C?$Ptr@VHttpInterface@Http@@@@QBEPAVHttpInterface@Http@@XZ 0041c3e0 f i render_win32.release:renderapplication.obj
 0001:0001b420       ??0?$Ptr@VLogFileConsoleHandler@IO@@@@QAE@PAVLogFileConsoleHandler@IO@@@Z 0041c420 f i render_win32.release:renderapplication.obj
 0001:0001b460       ??1?$Ptr@VLogFileConsoleHandler@IO@@@@QAE@XZ 0041c460 f i render_win32.release:renderapplication.obj
 0001:0001b490       ??$upcast@VConsoleHandler@IO@@@?$Ptr@VLogFileConsoleHandler@IO@@@@QBEABV?$Ptr@VConsoleHandler@IO@@@@XZ 0041c490 f i render_win32.release:renderapplication.obj
 0001:0001b4a0       ??0?$Ptr@VHttpRequestHandler@Http@@@@QAE@PAVHttpRequestHandler@Http@@@Z 0041c4a0 f i render_win32.release:renderapplication.obj
 0001:0001b4e0       ??1?$Ptr@VHttpRequestHandler@Http@@@@QAE@XZ 0041c4e0 f i render_win32.release:renderapplication.obj
 0001:0001b510       ??0?$Ptr@VSimpleResourceMapper@Resources@@@@QAE@PAVSimpleResourceMapper@Resources@@@Z 0041c510 f i render_win32.release:renderapplication.obj
 0001:0001b550       ??1?$Ptr@VSimpleResourceMapper@Resources@@@@QAE@XZ 0041c550 f i render_win32.release:renderapplication.obj
 0001:0001b580       ??C?$Ptr@VSimpleResourceMapper@Resources@@@@QBEPAVSimpleResourceMapper@Resources@@XZ 0041c580 f i render_win32.release:renderapplication.obj
 0001:0001b5c0       ??$upcast@VResourceMapper@Resources@@@?$Ptr@VSimpleResourceMapper@Resources@@@@QBEABV?$Ptr@VResourceMapper@Resources@@@@XZ 0041c5c0 f i render_win32.release:renderapplication.obj
 0001:0001b5d0       ?Destroy@?$Array@V?$Ptr@VResourceMapper@Resources@@@@@Util@@AAEXPAV?$Ptr@VResourceMapper@Resources@@@@@Z 0041c5d0 f i render_win32.release:renderapplication.obj
 0001:0001b600       ?Copy@?$Array@V?$Ptr@VResourceMapper@Resources@@@@@Util@@AAEXABV12@@Z 0041c600 f i render_win32.release:renderapplication.obj
 0001:0001b730       ?Delete@?$Array@V?$Ptr@VResourceMapper@Resources@@@@@Util@@AAEXXZ 0041c730 f i render_win32.release:renderapplication.obj
 0001:0001b7a0       ?Grow@?$Array@V?$Ptr@VResourceMapper@Resources@@@@@Util@@AAEXXZ 0041c7a0 f i render_win32.release:renderapplication.obj
 0001:0001b820       ??_G?$Ptr@VResourceMapper@Resources@@@@QAEPAXI@Z 0041c820 f i render_win32.release:renderapplication.obj
 0001:0001b850       ?GrowTo@?$Array@V?$Ptr@VResourceMapper@Resources@@@@@Util@@AAEXH@Z 0041c850 f i render_win32.release:renderapplication.obj
 0001:0001b970       ??0?$Ptr@VResourceMapper@Resources@@@@QAE@XZ 0041c970 f i render_win32.release:renderapplication.obj
 0001:0001b990       ?SetStackSize@Win360Thread@Win360@@QAEXH@Z 0041c990 f i render_win32.release:graphicsinterface.obj
 0001:0001b9b0       ?SetName@Win360Thread@Win360@@QAEXABVString@Util@@@Z 0041c9b0 f i render_win32.release:graphicsinterface.obj
 0001:0001ba30       ?SetCoreId@Win360Thread@Win360@@QAEXK@Z 0041ca30 f i render_win32.release:graphicsinterface.obj
 0001:0001ba50       ??0Event@Threading@@QAE@_N@Z 0041ca50 f i render_win32.release:graphicsinterface.obj
 0001:0001baa0       ?SetHandlerThread@AsyncPort@Messaging@@QAEXABV?$Ptr@VHandlerThreadBase@Messaging@@@@@Z 0041caa0 f i render_win32.release:graphicsinterface.obj
 0001:0001baf0       ?IsOpen@AsyncPort@Messaging@@QBE_NXZ 0041caf0 f i render_win32.release:graphicsinterface.obj
 0001:0001bb10       ??2GraphicsInterface@Graphics@@SAPAXI@Z 0041cb10 f i render_win32.release:graphicsinterface.obj
 0001:0001bb20       ??3GraphicsInterface@Graphics@@SAXPAX@Z 0041cb20 f i render_win32.release:graphicsinterface.obj
 0001:0001bb40       ?GetRtti@GraphicsInterface@Graphics@@UBEPAVRtti@Core@@XZ 0041cb40 f   render_win32.release:graphicsinterface.obj
 0001:0001bb50       ?FactoryCreator@GraphicsInterface@Graphics@@SAPAVRefCounted@Core@@XZ 0041cb50 f   render_win32.release:graphicsinterface.obj
 0001:0001bb60       ?Create@GraphicsInterface@Graphics@@SAPAV12@XZ 0041cb60 f   render_win32.release:graphicsinterface.obj
 0001:0001bba0       ?RegisterWithFactory@GraphicsInterface@Graphics@@SA_NXZ 0041cba0 f   render_win32.release:graphicsinterface.obj
 0001:0001bca0       ??0GraphicsInterface@Graphics@@QAE@XZ 0041cca0 f   render_win32.release:graphicsinterface.obj
 0001:0001bd50       ??_EGraphicsInterface@Graphics@@UAEPAXI@Z 0041cd50 f i  CIL library: CIL module
 0001:0001bd50       ??_GGraphicsInterface@Graphics@@UAEPAXI@Z 0041cd50 f i render_win32.release:graphicsinterface.obj
 0001:0001bd80       ??1Event@Threading@@QAE@XZ 0041cd80 f i render_win32.release:graphicsinterface.obj
 0001:0001bda0       ??1GraphicsInterface@Graphics@@UAE@XZ 0041cda0 f   render_win32.release:graphicsinterface.obj
 0001:0001be30       ?Open@GraphicsInterface@Graphics@@UAEXXZ 0041ce30 f   render_win32.release:graphicsinterface.obj
 0001:0001bfa0       ?Close@GraphicsInterface@Graphics@@UAEXXZ 0041cfa0 f   render_win32.release:graphicsinterface.obj
 0001:0001bfe0       ?EnterLockStepMode@GraphicsInterface@Graphics@@QAEXXZ 0041cfe0 f   render_win32.release:graphicsinterface.obj
 0001:0001c020       ?LeaveLockStepMode@GraphicsInterface@Graphics@@QAEXXZ 0041d020 f   render_win32.release:graphicsinterface.obj
 0001:0001c060       ?GameThreadWaitForFrameSync@GraphicsInterface@Graphics@@QAEXXZ 0041d060 f   render_win32.release:graphicsinterface.obj
 0001:0001c0a0       ?WaitForPendingResources@GraphicsInterface@Graphics@@QAEXXZ 0041d0a0 f   render_win32.release:graphicsinterface.obj
 0001:0001c0c0       ?SendBatched@GraphicsInterface@Graphics@@QAEXABV?$Ptr@VMessage@Messaging@@@@@Z 0041d0c0 f   render_win32.release:graphicsinterface.obj
 0001:0001c0f0       ?FlushBatchedMessages@GraphicsInterface@Graphics@@QAEXXZ 0041d0f0 f   render_win32.release:graphicsinterface.obj
 0001:0001c150       ?Size@?$Array@V?$Ptr@VMessage@Messaging@@@@@Util@@QBEHXZ 0041d150 f i render_win32.release:graphicsinterface.obj
 0001:0001c170       ??4?$Ptr@VHandlerThreadBase@Messaging@@@@QAEXABV0@@Z 0041d170 f i render_win32.release:graphicsinterface.obj
 0001:0001c1d0       ??0?$Ptr@VFrameSyncHandlerThread@FrameSync@@@@QAE@XZ 0041d1d0 f i render_win32.release:graphicsinterface.obj
 0001:0001c1f0       ??1?$Ptr@VFrameSyncHandlerThread@FrameSync@@@@QAE@XZ 0041d1f0 f i render_win32.release:graphicsinterface.obj
 0001:0001c220       ??4?$Ptr@VFrameSyncHandlerThread@FrameSync@@@@QAEXPAVFrameSyncHandlerThread@FrameSync@@@Z 0041d220 f i render_win32.release:graphicsinterface.obj
 0001:0001c280       ??C?$Ptr@VFrameSyncHandlerThread@FrameSync@@@@QBEPAVFrameSyncHandlerThread@FrameSync@@XZ 0041d280 f i render_win32.release:graphicsinterface.obj
 0001:0001c2c0       ??0?$Ptr@VGraphicsHandler@Graphics@@@@QAE@XZ 0041d2c0 f i render_win32.release:graphicsinterface.obj
 0001:0001c2e0       ??1?$Ptr@VGraphicsHandler@Graphics@@@@QAE@XZ 0041d2e0 f i render_win32.release:graphicsinterface.obj
 0001:0001c310       ??4?$Ptr@VGraphicsHandler@Graphics@@@@QAEXPAVGraphicsHandler@Graphics@@@Z 0041d310 f i render_win32.release:graphicsinterface.obj
 0001:0001c370       ??C?$Ptr@VGraphicsHandler@Graphics@@@@QBEPAVGraphicsHandler@Graphics@@XZ 0041d370 f i render_win32.release:graphicsinterface.obj
 0001:0001c3b0       ??0?$Ptr@VBatchMessage@Messaging@@@@QAE@XZ 0041d3b0 f i render_win32.release:graphicsinterface.obj
 0001:0001c3d0       ??1?$Ptr@VBatchMessage@Messaging@@@@QAE@XZ 0041d3d0 f i render_win32.release:graphicsinterface.obj
 0001:0001c400       ??4?$Ptr@VBatchMessage@Messaging@@@@QAEXPAVBatchMessage@Messaging@@@Z 0041d400 f i render_win32.release:graphicsinterface.obj
 0001:0001c460       ??C?$Ptr@VBatchMessage@Messaging@@@@QBEPAVBatchMessage@Messaging@@XZ 0041d460 f i render_win32.release:graphicsinterface.obj
 0001:0001c4a0       ??$cast@VHandler@Messaging@@@?$Ptr@VGraphicsHandler@Graphics@@@@QBEABV?$Ptr@VHandler@Messaging@@@@XZ 0041d4a0 f i render_win32.release:graphicsinterface.obj
 0001:0001c4b0       ??0?$Ptr@VHandler@Messaging@@@@QAE@PAVHandler@Messaging@@@Z 0041d4b0 f i render_win32.release:graphicsinterface.obj
 0001:0001c4f0       ??1?$Ptr@VHandler@Messaging@@@@QAE@XZ 0041d4f0 f i render_win32.release:graphicsinterface.obj
 0001:0001c520       ??$cast@VHandlerThreadBase@Messaging@@@?$Ptr@VFrameSyncHandlerThread@FrameSync@@@@QBEABV?$Ptr@VHandlerThreadBase@Messaging@@@@XZ 0041d520 f i render_win32.release:graphicsinterface.obj
 0001:0001c530       ??$cast@VMessage@Messaging@@@?$Ptr@VBatchMessage@Messaging@@@@QBEABV?$Ptr@VMessage@Messaging@@@@XZ 0041d530 f i render_win32.release:graphicsinterface.obj
 0001:0001c540       ??$Send@VMessage@Messaging@@@AsyncPort@Messaging@@QAEXABV?$Ptr@VMessage@Messaging@@@@@Z 0041d540 f i render_win32.release:graphicsinterface.obj
 0001:0001c560       ??2InputServer@Input@@SAPAXI@Z 0041d560 f i render_win32.release:inputserver.obj
 0001:0001c570       ??3InputServer@Input@@SAXPAX@Z 0041d570 f i render_win32.release:inputserver.obj
 0001:0001c590       ?GetRtti@InputServer@Input@@UBEPAVRtti@Core@@XZ 0041d590 f   render_win32.release:inputserver.obj
 0001:0001c5a0       ?FactoryCreator@InputServer@Input@@SAPAVRefCounted@Core@@XZ 0041d5a0 f   render_win32.release:inputserver.obj
 0001:0001c5b0       ?Create@InputServer@Input@@SAPAV12@XZ 0041d5b0 f   render_win32.release:inputserver.obj
 0001:0001c5f0       ?RegisterWithFactory@InputServer@Input@@SA_NXZ 0041d5f0 f   render_win32.release:inputserver.obj
 0001:0001c6f0       ??0InputServer@Input@@QAE@XZ 0041d6f0 f   render_win32.release:inputserver.obj
 0001:0001c740       ??_GInputServer@Input@@UAEPAXI@Z 0041d740 f i render_win32.release:inputserver.obj
 0001:0001c740       ??_EInputServer@Input@@UAEPAXI@Z 0041d740 f i  CIL library: CIL module
 0001:0001c770       ??1InputServer@Input@@UAE@XZ 0041d770 f   render_win32.release:inputserver.obj
 0001:0001c7c0       ??4float4@Math@@QAEXABV01@@Z 0041d7c0 f i render_win32.release:debugtextrenderer.obj
 0001:0001c7e0       ?x@float4@Math@@QAEAAMXZ   0041d7e0 f i render_win32.release:debugtextrenderer.obj
 0001:0001c7f0       ?y@float4@Math@@QAEAAMXZ   0041d7f0 f i render_win32.release:debugtextrenderer.obj
 0001:0001c810       ?w@float4@Math@@QAEAAMXZ   0041d810 f i render_win32.release:debugtextrenderer.obj
 0001:0001c830       ?transform@matrix44@Math@@SA?AVfloat4@2@ABV32@ABV12@@Z 0041d830 f i render_win32.release:debugtextrenderer.obj
 0001:0001ca20       ??2DebugTextRenderer@Debug@@SAPAXI@Z 0041da20 f i render_win32.release:debugtextrenderer.obj
 0001:0001ca30       ??3DebugTextRenderer@Debug@@SAXPAX@Z 0041da30 f i render_win32.release:debugtextrenderer.obj
 0001:0001ca50       ?SetThreadId@RenderDebugText@Debug@@QAEXABK@Z 0041da50 f i render_win32.release:debugtextrenderer.obj
 0001:0001ca90       ?SetTextElements@RenderDebugText@Debug@@QAEXABV?$Array@VTextElement@CoreGraphics@@@Util@@@Z 0041da90 f i render_win32.release:debugtextrenderer.obj
 0001:0001cad0       ?GetViewProjTransform@CameraSettings@Shared@@QBEABVmatrix44@Math@@XZ 0041dad0 f i render_win32.release:debugtextrenderer.obj
 0001:0001cb00       ?Instance@GraphicsServer@Graphics@@SAPAV12@XZ 0041db00 f i render_win32.release:debugtextrenderer.obj
 0001:0001cb40       ?GetViewProjTransform@CameraEntity@Graphics@@QBEABVmatrix44@Math@@XZ 0041db40 f i render_win32.release:debugtextrenderer.obj
 0001:0001cb80       ?GetRtti@DebugTextRenderer@Debug@@UBEPAVRtti@Core@@XZ 0041db80 f   render_win32.release:debugtextrenderer.obj
 0001:0001cb90       ?FactoryCreator@DebugTextRenderer@Debug@@SAPAVRefCounted@Core@@XZ 0041db90 f   render_win32.release:debugtextrenderer.obj
 0001:0001cba0       ?Create@DebugTextRenderer@Debug@@SAPAV12@XZ 0041dba0 f   render_win32.release:debugtextrenderer.obj
 0001:0001cbe0       ?RegisterWithFactory@DebugTextRenderer@Debug@@SA_NXZ 0041dbe0 f   render_win32.release:debugtextrenderer.obj
 0001:0001cce0       ??0DebugTextRenderer@Debug@@QAE@XZ 0041dce0 f   render_win32.release:debugtextrenderer.obj
 0001:0001cd50       ??_EDebugTextRenderer@Debug@@UAEPAXI@Z 0041dd50 f i  CIL library: CIL module
 0001:0001cd50       ??_GDebugTextRenderer@Debug@@UAEPAXI@Z 0041dd50 f i render_win32.release:debugtextrenderer.obj
 0001:0001cd80       ??1DebugTextRenderer@Debug@@UAE@XZ 0041dd80 f   render_win32.release:debugtextrenderer.obj
 0001:0001cde0       ?DrawTextA@DebugTextRenderer@Debug@@QAEXABVString@Util@@ABVfloat4@Math@@ABVfloat2@6@@Z 0041dde0 f   render_win32.release:debugtextrenderer.obj
 0001:0001ce30       ?DrawText3D@DebugTextRenderer@Debug@@QAEXABVString@Util@@ABVfloat4@Math@@ABVpoint@6@@Z 0041de30 f   render_win32.release:debugtextrenderer.obj
 0001:0001d1a0       ?OnFrame@DebugTextRenderer@Debug@@QAEXXZ 0041e1a0 f   render_win32.release:debugtextrenderer.obj
 0001:0001d280       ??0?$Array@VTextElement@CoreGraphics@@@Util@@QAE@XZ 0041e280 f i render_win32.release:debugtextrenderer.obj
 0001:0001d2c0       ??1?$Array@VTextElement@CoreGraphics@@@Util@@QAE@XZ 0041e2c0 f i render_win32.release:debugtextrenderer.obj
 0001:0001d2e0       ??4?$Array@VTextElement@CoreGraphics@@@Util@@QAEXABV01@@Z 0041e2e0 f i render_win32.release:debugtextrenderer.obj
 0001:0001d3d0       ?Append@?$Array@VTextElement@CoreGraphics@@@Util@@QAEXABVTextElement@CoreGraphics@@@Z 0041e3d0 f i render_win32.release:debugtextrenderer.obj
 0001:0001d450       ?Clear@?$Array@VTextElement@CoreGraphics@@@Util@@QAEXXZ 0041e450 f i render_win32.release:debugtextrenderer.obj
 0001:0001d4a0       ??0?$Ptr@VCameraEntity@Graphics@@@@QAE@ABV0@@Z 0041e4a0 f i render_win32.release:debugtextrenderer.obj
 0001:0001d4e0       ??1?$Ptr@VCameraEntity@Graphics@@@@QAE@XZ 0041e4e0 f i render_win32.release:debugtextrenderer.obj
 0001:0001d510       ??C?$Ptr@VView@Graphics@@@@QBEPAVView@Graphics@@XZ 0041e510 f i render_win32.release:debugtextrenderer.obj
 0001:0001d550       ??0?$Ptr@VRenderDebugText@Debug@@@@QAE@PAVRenderDebugText@Debug@@@Z 0041e550 f i render_win32.release:debugtextrenderer.obj
 0001:0001d590       ??1?$Ptr@VRenderDebugText@Debug@@@@QAE@XZ 0041e590 f i render_win32.release:debugtextrenderer.obj
 0001:0001d5c0       ??C?$Ptr@VRenderDebugText@Debug@@@@QBEPAVRenderDebugText@Debug@@XZ 0041e5c0 f i render_win32.release:debugtextrenderer.obj
 0001:0001d600       ??$cast@VMessage@Messaging@@@?$Ptr@VRenderDebugText@Debug@@@@QBEABV?$Ptr@VMessage@Messaging@@@@XZ 0041e600 f i render_win32.release:debugtextrenderer.obj
 0001:0001d610       ??4TextElement@CoreGraphics@@QAEAAV01@ABV01@@Z 0041e610 f i render_win32.release:debugtextrenderer.obj
 0001:0001d6c0       ?Destroy@?$Array@VTextElement@CoreGraphics@@@Util@@AAEXPAVTextElement@CoreGraphics@@@Z 0041e6c0 f i render_win32.release:debugtextrenderer.obj
 0001:0001d6f0       ?Copy@?$Array@VTextElement@CoreGraphics@@@Util@@AAEXABV12@@Z 0041e6f0 f i render_win32.release:debugtextrenderer.obj
 0001:0001d820       ?Delete@?$Array@VTextElement@CoreGraphics@@@Util@@AAEXXZ 0041e820 f i render_win32.release:debugtextrenderer.obj
 0001:0001d890       ?Grow@?$Array@VTextElement@CoreGraphics@@@Util@@AAEXXZ 0041e890 f i render_win32.release:debugtextrenderer.obj
 0001:0001d910       ??_GTextElement@CoreGraphics@@QAEPAXI@Z 0041e910 f i render_win32.release:debugtextrenderer.obj
 0001:0001d940       ?GrowTo@?$Array@VTextElement@CoreGraphics@@@Util@@AAEXH@Z 0041e940 f i render_win32.release:debugtextrenderer.obj
 0001:0001da60       ?XMVector4Transform@@YA?AT__m128@@T1@ABU_XMMATRIX@@@Z 0041ea60 f i render_win32.release:debugtextrenderer.obj
 0001:0001dc20       ?x@float2@Math@@QAEAAMXZ   0041ec20 f i render_win32.release:viewerapplication.obj
 0001:0001dc30       ?y@float2@Math@@QAEAAMXZ   0041ec30 f i render_win32.release:viewerapplication.obj
 0001:0001dc50       ??4bbox@Math@@QAEAAV01@ABV01@@Z 0041ec50 f i render_win32.release:viewerapplication.obj
 0001:0001dc90       ?GetDefaultMouse@InputServerBase@Base@@QBEABV?$Ptr@VMouse@Input@@@@XZ 0041ec90 f i render_win32.release:viewerapplication.obj
 0001:0001dcd0       ?Instance@Win32InputServer@Win32@@SAPAV12@XZ 0041ecd0 f i render_win32.release:viewerapplication.obj
 0001:0001dd10       ?GetMouseMovement@Win32InputServer@Win32@@IBEABVfloat2@Math@@XZ 0041ed10 f i render_win32.release:viewerapplication.obj
 0001:0001dd30       ?SetQuitRequested@RenderApplication@App@@IAEX_N@Z 0041ed30 f i render_win32.release:viewerapplication.obj
 0001:0001dd50       ?SetPanButton@MayaCameraUtil@RenderUtil@@QAEX_N@Z 0041ed50 f i render_win32.release:viewerapplication.obj
 0001:0001dd70       ?SetZoomButton@MayaCameraUtil@RenderUtil@@QAEX_N@Z 0041ed70 f i render_win32.release:viewerapplication.obj
 0001:0001dd90       ?SetZoomInButton@MayaCameraUtil@RenderUtil@@QAEX_N@Z 0041ed90 f i render_win32.release:viewerapplication.obj
 0001:0001ddb0       ?SetZoomOutButton@MayaCameraUtil@RenderUtil@@QAEX_N@Z 0041edb0 f i render_win32.release:viewerapplication.obj
 0001:0001ddd0       ?SetMouseMovement@MayaCameraUtil@RenderUtil@@QAEXABVfloat2@Math@@@Z 0041edd0 f i render_win32.release:viewerapplication.obj
 0001:0001de00       ?SetZoomIn@MayaCameraUtil@RenderUtil@@QAEXM@Z 0041ee00 f i render_win32.release:viewerapplication.obj
 0001:0001de20       ?SetZoomOut@MayaCameraUtil@RenderUtil@@QAEXM@Z 0041ee20 f i render_win32.release:viewerapplication.obj
 0001:0001de40       ?SetPanning@MayaCameraUtil@RenderUtil@@QAEXABVfloat2@Math@@@Z 0041ee40 f i render_win32.release:viewerapplication.obj
 0001:0001de70       ?SetQuadTreeSettings@VisibilityQuadtree@Visibility@@QAEXEABVbbox@Math@@@Z 0041ee70 f i render_win32.release:viewerapplication.obj
 0001:0001dec0       ?KeyPressed@KeyboardBase@Base@@QBE_NW4Code@Key@Input@@@Z 0041eec0 f i render_win32.release:viewerapplication.obj
 0001:0001dee0       ?ButtonPressed@MouseBase@Base@@QBE_NW4Code@MouseButton@Input@@@Z 0041eee0 f i render_win32.release:viewerapplication.obj
 0001:0001df00       ?WheelForward@MouseBase@Base@@QBE_NXZ 0041ef00 f i render_win32.release:viewerapplication.obj
 0001:0001df20       ?WheelBackward@MouseBase@Base@@QBE_NXZ 0041ef20 f i render_win32.release:viewerapplication.obj
 0001:0001df40       ?GetMovement@Win32Mouse@Win32@@QBEABVfloat2@Math@@XZ 0041ef40 f i render_win32.release:viewerapplication.obj
 0001:0001df90       ?IsConnected@GamePadBase@Base@@QBE_NXZ 0041ef90 f i render_win32.release:viewerapplication.obj
 0001:0001dfd0       ?GetAxisValue@GamePadBase@Base@@QBEMW4Axis@12@@Z 0041efd0 f i render_win32.release:viewerapplication.obj
 0001:0001e020       ??0ViewerApplication@App@@QAE@XZ 0041f020 f   render_win32.release:viewerapplication.obj
 0001:0001e0b0       ??_GViewerApplication@App@@UAEPAXI@Z 0041f0b0 f i render_win32.release:viewerapplication.obj
 0001:0001e0b0       ??_EViewerApplication@App@@UAEPAXI@Z 0041f0b0 f i  CIL library: CIL module
 0001:0001e0e0       ??1ViewerApplication@App@@UAE@XZ 0041f0e0 f   render_win32.release:viewerapplication.obj
 0001:0001e180       ?Open@ViewerApplication@App@@UAE_NXZ 0041f180 f   render_win32.release:viewerapplication.obj
 0001:0001e7e0       ?Close@ViewerApplication@App@@UAEXXZ 0041f7e0 f   render_win32.release:viewerapplication.obj
 0001:0001e8d0       ?OnProcessInput@ViewerApplication@App@@MAEXXZ 0041f8d0 f   render_win32.release:viewerapplication.obj
 0001:0001f0d0       ?OnUpdateFrame@ViewerApplication@App@@MAEXXZ 004200d0 f   render_win32.release:viewerapplication.obj
 0001:0001f120       ??0?$Array@V?$Ptr@VVisibilitySystemBase@Visibility@@@@@Util@@QAE@XZ 00420120 f i render_win32.release:viewerapplication.obj
 0001:0001f160       ??1?$Array@V?$Ptr@VVisibilitySystemBase@Visibility@@@@@Util@@QAE@XZ 00420160 f i render_win32.release:viewerapplication.obj
 0001:0001f180       ?Append@?$Array@V?$Ptr@VVisibilitySystemBase@Visibility@@@@@Util@@QAEXABV?$Ptr@VVisibilitySystemBase@Visibility@@@@@Z 00420180 f i render_win32.release:viewerapplication.obj
 0001:0001f200       ??C?$Ptr@VMouse@Input@@@@QBEPAVMouse@Input@@XZ 00420200 f i render_win32.release:viewerapplication.obj
 0001:0001f240       ??0?$Ptr@VStage@Graphics@@@@QAE@XZ 00420240 f i render_win32.release:viewerapplication.obj
 0001:0001f260       ??1?$Ptr@VStage@Graphics@@@@QAE@XZ 00420260 f i render_win32.release:viewerapplication.obj
 0001:0001f290       ??4?$Ptr@VStage@Graphics@@@@QAEXPAVStage@Graphics@@@Z 00420290 f i render_win32.release:viewerapplication.obj
 0001:0001f2f0       ??4?$Ptr@VStage@Graphics@@@@QAEXABV0@@Z 004202f0 f i render_win32.release:viewerapplication.obj
 0001:0001f350       ?isvalid@?$Ptr@VStage@Graphics@@@@QBE_NXZ 00420350 f i render_win32.release:viewerapplication.obj
 0001:0001f370       ??0?$Ptr@VCameraEntity@Graphics@@@@QAE@XZ 00420370 f i render_win32.release:viewerapplication.obj
 0001:0001f390       ??4?$Ptr@VCameraEntity@Graphics@@@@QAEXPAVCameraEntity@Graphics@@@Z 00420390 f i render_win32.release:viewerapplication.obj
 0001:0001f3f0       ??0?$Ptr@VView@Graphics@@@@QAE@XZ 004203f0 f i render_win32.release:viewerapplication.obj
 0001:0001f410       ??1?$Ptr@VView@Graphics@@@@QAE@XZ 00420410 f i render_win32.release:viewerapplication.obj
 0001:0001f440       ??4?$Ptr@VView@Graphics@@@@QAEXPAVView@Graphics@@@Z 00420440 f i render_win32.release:viewerapplication.obj
 0001:0001f4a0       ??4?$Ptr@VView@Graphics@@@@QAEXABV0@@Z 004204a0 f i render_win32.release:viewerapplication.obj
 0001:0001f500       ??0?$Ptr@VGraphicsServer@Graphics@@@@QAE@XZ 00420500 f i render_win32.release:viewerapplication.obj
 0001:0001f520       ??1?$Ptr@VGraphicsServer@Graphics@@@@QAE@XZ 00420520 f i render_win32.release:viewerapplication.obj
 0001:0001f550       ??4?$Ptr@VGraphicsServer@Graphics@@@@QAEXPAVGraphicsServer@Graphics@@@Z 00420550 f i render_win32.release:viewerapplication.obj
 0001:0001f5b0       ??C?$Ptr@VGraphicsServer@Graphics@@@@QBEPAVGraphicsServer@Graphics@@XZ 004205b0 f i render_win32.release:viewerapplication.obj
 0001:0001f5f0       ??0?$Ptr@VDebugShapeRenderer@Debug@@@@QAE@XZ 004205f0 f i render_win32.release:viewerapplication.obj
 0001:0001f610       ??1?$Ptr@VDebugShapeRenderer@Debug@@@@QAE@XZ 00420610 f i render_win32.release:viewerapplication.obj
 0001:0001f640       ??4?$Ptr@VDebugShapeRenderer@Debug@@@@QAEXPAVDebugShapeRenderer@Debug@@@Z 00420640 f i render_win32.release:viewerapplication.obj
 0001:0001f6a0       ??C?$Ptr@VDebugShapeRenderer@Debug@@@@QBEPAVDebugShapeRenderer@Debug@@XZ 004206a0 f i render_win32.release:viewerapplication.obj
 0001:0001f6e0       ??0?$Ptr@VDebugTextRenderer@Debug@@@@QAE@XZ 004206e0 f i render_win32.release:viewerapplication.obj
 0001:0001f700       ??1?$Ptr@VDebugTextRenderer@Debug@@@@QAE@XZ 00420700 f i render_win32.release:viewerapplication.obj
 0001:0001f730       ??4?$Ptr@VDebugTextRenderer@Debug@@@@QAEXPAVDebugTextRenderer@Debug@@@Z 00420730 f i render_win32.release:viewerapplication.obj
 0001:0001f790       ??C?$Ptr@VDebugTextRenderer@Debug@@@@QBEPAVDebugTextRenderer@Debug@@XZ 00420790 f i render_win32.release:viewerapplication.obj
 0001:0001f7d0       ??A?$FixedArray@UButtonState@MouseBase@Base@@@Util@@QBEAAUButtonState@MouseBase@Base@@H@Z 004207d0 f i render_win32.release:viewerapplication.obj
 0001:0001f820       ??A?$FixedArray@M@Util@@QBEAAMH@Z 00420820 f i render_win32.release:viewerapplication.obj
 0001:0001f870       ??0?$Ptr@VVisibilityQuadtree@Visibility@@@@QAE@PAVVisibilityQuadtree@Visibility@@@Z 00420870 f i render_win32.release:viewerapplication.obj
 0001:0001f8b0       ??1?$Ptr@VVisibilityQuadtree@Visibility@@@@QAE@XZ 004208b0 f i render_win32.release:viewerapplication.obj
 0001:0001f8e0       ??C?$Ptr@VVisibilityQuadtree@Visibility@@@@QBEPAVVisibilityQuadtree@Visibility@@XZ 004208e0 f i render_win32.release:viewerapplication.obj
 0001:0001f920       ??0?$Ptr@VVisibilityClusterSystem@Visibility@@@@QAE@PAVVisibilityClusterSystem@Visibility@@@Z 00420920 f i render_win32.release:viewerapplication.obj
 0001:0001f960       ??1?$Ptr@VVisibilityClusterSystem@Visibility@@@@QAE@XZ 00420960 f i render_win32.release:viewerapplication.obj
 0001:0001f990       ??0?$Ptr@VVisibilityBoxSystem@Visibility@@@@QAE@PAVVisibilityBoxSystem@Visibility@@@Z 00420990 f i render_win32.release:viewerapplication.obj
 0001:0001f9d0       ??1?$Ptr@VVisibilityBoxSystem@Visibility@@@@QAE@XZ 004209d0 f i render_win32.release:viewerapplication.obj
 0001:0001fa00       ??$cast@VVisibilitySystemBase@Visibility@@@?$Ptr@VVisibilityQuadtree@Visibility@@@@QBEABV?$Ptr@VVisibilitySystemBase@Visibility@@@@XZ 00420a00 f i render_win32.release:viewerapplication.obj
 0001:0001fa10       ??$cast@VGraphicsEntity@Graphics@@@?$Ptr@VCameraEntity@Graphics@@@@QBEABV?$Ptr@VGraphicsEntity@Graphics@@@@XZ 00420a10 f i render_win32.release:viewerapplication.obj
 0001:0001fa20       ?Delete@?$Array@V?$Ptr@VVisibilitySystemBase@Visibility@@@@@Util@@AAEXXZ 00420a20 f i render_win32.release:viewerapplication.obj
 0001:0001fa90       ?Grow@?$Array@V?$Ptr@VVisibilitySystemBase@Visibility@@@@@Util@@AAEXXZ 00420a90 f i render_win32.release:viewerapplication.obj
 0001:0001fb10       ??4?$Ptr@VVisibilitySystemBase@Visibility@@@@QAEXABV0@@Z 00420b10 f i render_win32.release:viewerapplication.obj
 0001:0001fb70       ??_E?$Ptr@VVisibilityContext@Visibility@@@@QAEPAXI@Z 00420b70 f i render_win32.release:viewerapplication.obj
 0001:0001fc10       ?GrowTo@?$Array@V?$Ptr@VVisibilitySystemBase@Visibility@@@@@Util@@AAEXH@Z 00420c10 f i render_win32.release:viewerapplication.obj
 0001:0001fd30       ??0?$Ptr@VVisibilitySystemBase@Visibility@@@@QAE@XZ 00420d30 f i render_win32.release:viewerapplication.obj
 0001:0001fd50       ??1?$Ptr@VVisibilityContext@Visibility@@@@QAE@XZ 00420d50 f i render_win32.release:viewerapplication.obj
 0001:0001fd80       ??_E?$Ptr@VInternalView@InternalGraphics@@@@QAEPAXI@Z 00420d80 f i render_win32.release:viewerapplication.obj
 0001:0001fe20       ??1?$Ptr@VInternalView@InternalGraphics@@@@QAE@XZ 00420e20 f i render_win32.release:viewerapplication.obj
 0001:0001fe50       ?SetStageName@CreateGraphicsEntity@Graphics@@QAEXABVStringAtom@Util@@@Z 00420e50 f i render_win32.release:globallightentity.obj
 0001:0001fe90       ?SetTransform@CreateGraphicsEntity@Graphics@@QAEXABVmatrix44@Math@@@Z 00420e90 f i render_win32.release:globallightentity.obj
 0001:0001ff10       ?SetVisible@CreateGraphicsEntity@Graphics@@QAEX_N@Z 00420f10 f i render_win32.release:globallightentity.obj
 0001:0001ff50       ?SetLightColor@CreateGlobalLightEntity@Graphics@@QAEXABVfloat4@Math@@@Z 00420f50 f i render_win32.release:globallightentity.obj
 0001:0001ffa0       ?SetProjMapUvOffsetAndScale@CreateGlobalLightEntity@Graphics@@QAEXABVfloat4@Math@@@Z 00420fa0 f i render_win32.release:globallightentity.obj
 0001:0001fff0       ?SetCastShadows@CreateGlobalLightEntity@Graphics@@QAEX_N@Z 00420ff0 f i render_win32.release:globallightentity.obj
 0001:00020030       ?SetBackLightColor@CreateGlobalLightEntity@Graphics@@QAEXABVfloat4@Math@@@Z 00421030 f i render_win32.release:globallightentity.obj
 0001:00020080       ?SetAmbientLightColor@CreateGlobalLightEntity@Graphics@@QAEXABVfloat4@Math@@@Z 00421080 f i render_win32.release:globallightentity.obj
 0001:000200d0       ?SetBackLightOffset@CreateGlobalLightEntity@Graphics@@QAEXM@Z 004210d0 f i render_win32.release:globallightentity.obj
 0001:00020110       ?SetColor@SetGlobalBackLightColor@Graphics@@QAEXABVfloat4@Math@@@Z 00421110 f i render_win32.release:globallightentity.obj
 0001:00020160       ?SetColor@SetGlobalAmbientLightColor@Graphics@@QAEXABVfloat4@Math@@@Z 00421160 f i render_win32.release:globallightentity.obj
 0001:000201b0       ?SetOffset@SetGlobalBackLightOffset@Graphics@@QAEXM@Z 004211b0 f i render_win32.release:globallightentity.obj
 0001:000201f0       ?SetLightColor@SetGlobalLightParams@Graphics@@QAEXABVfloat4@Math@@@Z 004211f0 f i render_win32.release:globallightentity.obj
 0001:00020240       ?SetBackLightColor@SetGlobalLightParams@Graphics@@QAEXABVfloat4@Math@@@Z 00421240 f i render_win32.release:globallightentity.obj
 0001:00020290       ?SetAmbientLightColor@SetGlobalLightParams@Graphics@@QAEXABVfloat4@Math@@@Z 00421290 f i render_win32.release:globallightentity.obj
 0001:000202e0       ?SetBackLightOffset@SetGlobalLightParams@Graphics@@QAEXM@Z 004212e0 f i render_win32.release:globallightentity.obj
 0001:00020320       ?SetCastShadows@SetGlobalLightParams@Graphics@@QAEX_N@Z 00421320 f i render_win32.release:globallightentity.obj
 0001:00020360       ?SetLightType@AbstractLightEntity@Graphics@@IAEXW4Code@LightType@Lighting@@@Z 00421360 f i render_win32.release:globallightentity.obj
 0001:00020380       ??2GlobalLightEntity@Graphics@@SAPAXI@Z 00421380 f i render_win32.release:globallightentity.obj
 0001:00020390       ??3GlobalLightEntity@Graphics@@SAXPAX@Z 00421390 f i render_win32.release:globallightentity.obj
 0001:000203b0       ?GetName@Stage@Graphics@@QBEABVStringAtom@Util@@XZ 004213b0 f i render_win32.release:globallightentity.obj
 0001:000203d0       ?GetRtti@GlobalLightEntity@Graphics@@UBEPAVRtti@Core@@XZ 004213d0 f   render_win32.release:globallightentity.obj
 0001:000203e0       ?FactoryCreator@GlobalLightEntity@Graphics@@SAPAVRefCounted@Core@@XZ 004213e0 f   render_win32.release:globallightentity.obj
 0001:000203f0       ?Create@GlobalLightEntity@Graphics@@SAPAV12@XZ 004213f0 f   render_win32.release:globallightentity.obj
 0001:00020430       ?RegisterWithFactory@GlobalLightEntity@Graphics@@SA_NXZ 00421430 f   render_win32.release:globallightentity.obj
 0001:00020530       ??0GlobalLightEntity@Graphics@@QAE@XZ 00421530 f   render_win32.release:globallightentity.obj
 0001:00020680       ??_GGlobalLightEntity@Graphics@@UAEPAXI@Z 00421680 f i render_win32.release:globallightentity.obj
 0001:00020680       ??_EGlobalLightEntity@Graphics@@UAEPAXI@Z 00421680 f i  CIL library: CIL module
 0001:000206b0       ??1GlobalLightEntity@Graphics@@UAE@XZ 004216b0 f i render_win32.release:globallightentity.obj
 0001:000206d0       ?Setup@GlobalLightEntity@Graphics@@EAEXABV?$Ptr@VStage@Graphics@@@@@Z 004216d0 f   render_win32.release:globallightentity.obj
 0001:00020970       ?SetBackLightColor@GlobalLightEntity@Graphics@@QAEXABVfloat4@Math@@@Z 00421970 f   render_win32.release:globallightentity.obj
 0001:00020a10       ?SetAmbientLightColor@GlobalLightEntity@Graphics@@QAEXABVfloat4@Math@@@Z 00421a10 f   render_win32.release:globallightentity.obj
 0001:00020ab0       ?SetBackLightOffset@GlobalLightEntity@Graphics@@QAEXM@Z 00421ab0 f   render_win32.release:globallightentity.obj
 0001:00020b40       ?SetAllParams@GlobalLightEntity@Graphics@@QAEXABVfloat4@Math@@00M_N@Z 00421b40 f   render_win32.release:globallightentity.obj
 0001:00020d10       ??0?$Ptr@VCreateGlobalLightEntity@Graphics@@@@QAE@PAVCreateGlobalLightEntity@Graphics@@@Z 00421d10 f i render_win32.release:globallightentity.obj
 0001:00020d50       ??1?$Ptr@VCreateGlobalLightEntity@Graphics@@@@QAE@XZ 00421d50 f i render_win32.release:globallightentity.obj
 0001:00020d80       ??C?$Ptr@VCreateGlobalLightEntity@Graphics@@@@QBEPAVCreateGlobalLightEntity@Graphics@@XZ 00421d80 f i render_win32.release:globallightentity.obj
 0001:00020dc0       ??$cast@VCreateGraphicsEntity@Graphics@@@?$Ptr@VCreateGlobalLightEntity@Graphics@@@@QBEABV?$Ptr@VCreateGraphicsEntity@Graphics@@@@XZ 00421dc0 f i render_win32.release:globallightentity.obj
 0001:00020dd0       ??0?$Ptr@VSetGlobalBackLightColor@Graphics@@@@QAE@PAVSetGlobalBackLightColor@Graphics@@@Z 00421dd0 f i render_win32.release:globallightentity.obj
 0001:00020e10       ??1?$Ptr@VSetGlobalBackLightColor@Graphics@@@@QAE@XZ 00421e10 f i render_win32.release:globallightentity.obj
 0001:00020e40       ??C?$Ptr@VSetGlobalBackLightColor@Graphics@@@@QBEPAVSetGlobalBackLightColor@Graphics@@XZ 00421e40 f i render_win32.release:globallightentity.obj
 0001:00020e80       ??$cast@VGraphicsEntityMessage@Graphics@@@?$Ptr@VSetGlobalBackLightColor@Graphics@@@@QBEABV?$Ptr@VGraphicsEntityMessage@Graphics@@@@XZ 00421e80 f i render_win32.release:globallightentity.obj
 0001:00020e90       ??0?$Ptr@VSetGlobalAmbientLightColor@Graphics@@@@QAE@PAVSetGlobalAmbientLightColor@Graphics@@@Z 00421e90 f i render_win32.release:globallightentity.obj
 0001:00020ed0       ??1?$Ptr@VSetGlobalAmbientLightColor@Graphics@@@@QAE@XZ 00421ed0 f i render_win32.release:globallightentity.obj
 0001:00020f00       ??C?$Ptr@VSetGlobalAmbientLightColor@Graphics@@@@QBEPAVSetGlobalAmbientLightColor@Graphics@@XZ 00421f00 f i render_win32.release:globallightentity.obj
 0001:00020f40       ??$cast@VGraphicsEntityMessage@Graphics@@@?$Ptr@VSetGlobalAmbientLightColor@Graphics@@@@QBEABV?$Ptr@VGraphicsEntityMessage@Graphics@@@@XZ 00421f40 f i render_win32.release:globallightentity.obj
 0001:00020f50       ??0?$Ptr@VSetGlobalBackLightOffset@Graphics@@@@QAE@PAVSetGlobalBackLightOffset@Graphics@@@Z 00421f50 f i render_win32.release:globallightentity.obj
 0001:00020f90       ??1?$Ptr@VSetGlobalBackLightOffset@Graphics@@@@QAE@XZ 00421f90 f i render_win32.release:globallightentity.obj
 0001:00020fc0       ??C?$Ptr@VSetGlobalBackLightOffset@Graphics@@@@QBEPAVSetGlobalBackLightOffset@Graphics@@XZ 00421fc0 f i render_win32.release:globallightentity.obj
 0001:00021000       ??$cast@VGraphicsEntityMessage@Graphics@@@?$Ptr@VSetGlobalBackLightOffset@Graphics@@@@QBEABV?$Ptr@VGraphicsEntityMessage@Graphics@@@@XZ 00422000 f i render_win32.release:globallightentity.obj
 0001:00021010       ??0?$Ptr@VSetGlobalLightParams@Graphics@@@@QAE@PAVSetGlobalLightParams@Graphics@@@Z 00422010 f i render_win32.release:globallightentity.obj
 0001:00021050       ??1?$Ptr@VSetGlobalLightParams@Graphics@@@@QAE@XZ 00422050 f i render_win32.release:globallightentity.obj
 0001:00021080       ??C?$Ptr@VSetGlobalLightParams@Graphics@@@@QBEPAVSetGlobalLightParams@Graphics@@XZ 00422080 f i render_win32.release:globallightentity.obj
 0001:000210c0       ??$cast@VGraphicsEntityMessage@Graphics@@@?$Ptr@VSetGlobalLightParams@Graphics@@@@QBEABV?$Ptr@VGraphicsEntityMessage@Graphics@@@@XZ 004220c0 f i render_win32.release:globallightentity.obj
 0001:000210d0       ??0bbox@Math@@QAE@XZ       004220d0 f i render_win32.release:graphicsentity.obj
 0001:000211e0       ??0GraphicsEntityShared@Shared@@QAE@XZ 004221e0 f i render_win32.release:graphicsentity.obj
 0001:00021240       ?IsValid@ObjectRef@Threading@@QBE_NXZ 00422240 f i render_win32.release:graphicsentity.obj
 0001:00021260       ?SetObjectRef@CreateGraphicsEntity@Graphics@@QAEXABV?$Ptr@VObjectRef@Threading@@@@@Z 00422260 f i render_win32.release:graphicsentity.obj
 0001:000212a0       ?SetSharedData@CreateGraphicsEntity@Graphics@@QAEXABV?$Ptr@VFrameSyncSharedData@FrameSync@@@@@Z 004222a0 f i render_win32.release:graphicsentity.obj
 0001:000212e0       ?SetObjectRef@GraphicsEntityMessage@Graphics@@QAEXABV?$Ptr@VObjectRef@Threading@@@@@Z 004222e0 f i render_win32.release:graphicsentity.obj
 0001:00021320       ?SetTransform@UpdateTransform@Graphics@@QAEXABVmatrix44@Math@@@Z 00422320 f i render_win32.release:graphicsentity.obj
 0001:000213a0       ?SetVisible@SetVisibility@Graphics@@QAEX_N@Z 004223a0 f i render_win32.release:graphicsentity.obj
 0001:000213e0       ??2GraphicsEntity@Graphics@@SAPAXI@Z 004223e0 f i render_win32.release:graphicsentity.obj
 0001:000213f0       ??3GraphicsEntity@Graphics@@SAXPAX@Z 004223f0 f i render_win32.release:graphicsentity.obj
 0001:00021410       ?IsObjectRefValid@GraphicsEntity@Graphics@@QBE_NXZ 00422410 f i render_win32.release:graphicsentity.obj
 0001:00021440       ?GetRtti@GraphicsEntity@Graphics@@UBEPAVRtti@Core@@XZ 00422440 f   render_win32.release:graphicsentity.obj
 0001:00021450       ?FactoryCreator@GraphicsEntity@Graphics@@SAPAVRefCounted@Core@@XZ 00422450 f   render_win32.release:graphicsentity.obj
 0001:00021460       ?Create@GraphicsEntity@Graphics@@SAPAV12@XZ 00422460 f   render_win32.release:graphicsentity.obj
 0001:000214a0       ?RegisterWithFactory@GraphicsEntity@Graphics@@SA_NXZ 004224a0 f   render_win32.release:graphicsentity.obj
 0001:000215a0       ??0GraphicsEntity@Graphics@@QAE@XZ 004225a0 f   render_win32.release:graphicsentity.obj
 0001:000216f0       ??_GGraphicsEntity@Graphics@@UAEPAXI@Z 004226f0 f i render_win32.release:graphicsentity.obj
 0001:000216f0       ??_EGraphicsEntity@Graphics@@UAEPAXI@Z 004226f0 f i  CIL library: CIL module
 0001:00021720       ??1GraphicsEntity@Graphics@@UAE@XZ 00422720 f   render_win32.release:graphicsentity.obj
 0001:00021780       ?IsValid@GraphicsEntity@Graphics@@QBE_NXZ 00422780 f   render_win32.release:graphicsentity.obj
 0001:000217a0       ?GetStage@GraphicsEntity@Graphics@@QBEABV?$Ptr@VStage@Graphics@@@@XZ 004227a0 f   render_win32.release:graphicsentity.obj
 0001:000217c0       ?Setup@GraphicsEntity@Graphics@@MAEXABV?$Ptr@VStage@Graphics@@@@@Z 004227c0 f   render_win32.release:graphicsentity.obj
 0001:00021870       ?Discard@GraphicsEntity@Graphics@@MAEXXZ 00422870 f   render_win32.release:graphicsentity.obj
 0001:00021960       ?OnSetupSharedData@GraphicsEntity@Graphics@@MAEXXZ 00422960 f   render_win32.release:graphicsentity.obj
 0001:000219d0       ?OnDiscardSharedData@GraphicsEntity@Graphics@@MAEXXZ 004229d0 f   render_win32.release:graphicsentity.obj
 0001:00021a30       ?SendMsg@GraphicsEntity@Graphics@@QAEXABV?$Ptr@VGraphicsEntityMessage@Graphics@@@@@Z 00422a30 f   render_win32.release:graphicsentity.obj
 0001:00021ae0       ?SendCreateMsg@GraphicsEntity@Graphics@@IAEXABV?$Ptr@VCreateGraphicsEntity@Graphics@@@@@Z 00422ae0 f   render_win32.release:graphicsentity.obj
 0001:00021be0       ?SetTransform@GraphicsEntity@Graphics@@QAEXABVmatrix44@Math@@@Z 00422be0 f   render_win32.release:graphicsentity.obj
 0001:00021c50       ?OnTransformChanged@GraphicsEntity@Graphics@@MAEXXZ 00422c50 f   render_win32.release:graphicsentity.obj
 0001:00021cb0       ?SetVisible@GraphicsEntity@Graphics@@QAEX_N@Z 00422cb0 f   render_win32.release:graphicsentity.obj
 0001:00021d40       ??0?$Ptr@VFrameSyncSharedData@FrameSync@@@@QAE@XZ 00422d40 f i render_win32.release:graphicsentity.obj
 0001:00021d60       ??1?$Ptr@VFrameSyncSharedData@FrameSync@@@@QAE@XZ 00422d60 f i render_win32.release:graphicsentity.obj
 0001:00021d90       ??4?$Ptr@VFrameSyncSharedData@FrameSync@@@@QAEXPAVFrameSyncSharedData@FrameSync@@@Z 00422d90 f i render_win32.release:graphicsentity.obj
 0001:00021df0       ??4?$Ptr@VFrameSyncSharedData@FrameSync@@@@QAEXABV0@@Z 00422df0 f i render_win32.release:graphicsentity.obj
 0001:00021e50       ??C?$Ptr@VFrameSyncSharedData@FrameSync@@@@QBEPAVFrameSyncSharedData@FrameSync@@XZ 00422e50 f i render_win32.release:graphicsentity.obj
 0001:00021e90       ?isvalid@?$Ptr@VFrameSyncSharedData@FrameSync@@@@QBE_NXZ 00422e90 f i render_win32.release:graphicsentity.obj
 0001:00021eb0       ??0?$Ptr@VObjectRef@Threading@@@@QAE@XZ 00422eb0 f i render_win32.release:graphicsentity.obj
 0001:00021ed0       ??1?$Ptr@VObjectRef@Threading@@@@QAE@XZ 00422ed0 f i render_win32.release:graphicsentity.obj
 0001:00021f00       ??4?$Ptr@VObjectRef@Threading@@@@QAEXPAVObjectRef@Threading@@@Z 00422f00 f i render_win32.release:graphicsentity.obj
 0001:00021f60       ??4?$Ptr@VObjectRef@Threading@@@@QAEXABV0@@Z 00422f60 f i render_win32.release:graphicsentity.obj
 0001:00021fc0       ??C?$Ptr@VObjectRef@Threading@@@@QBEPAVObjectRef@Threading@@XZ 00422fc0 f i render_win32.release:graphicsentity.obj
 0001:00022000       ?isvalid@?$Ptr@VObjectRef@Threading@@@@QBE_NXZ 00423000 f i render_win32.release:graphicsentity.obj
 0001:00022020       ??0?$Ptr@VDiscardGraphicsEntity@Graphics@@@@QAE@PAVDiscardGraphicsEntity@Graphics@@@Z 00423020 f i render_win32.release:graphicsentity.obj
 0001:00022060       ??1?$Ptr@VDiscardGraphicsEntity@Graphics@@@@QAE@XZ 00423060 f i render_win32.release:graphicsentity.obj
 0001:00022090       ??C?$Ptr@VDiscardGraphicsEntity@Graphics@@@@QBEPAVDiscardGraphicsEntity@Graphics@@XZ 00423090 f i render_win32.release:graphicsentity.obj
 0001:000220d0       ??$cast@VMessage@Messaging@@@?$Ptr@VDiscardGraphicsEntity@Graphics@@@@QBEABV?$Ptr@VMessage@Messaging@@@@XZ 004230d0 f i render_win32.release:graphicsentity.obj
 0001:000220e0       ??$OwnerSetup@VGraphicsEntityShared@Shared@@@FrameSyncSharedData@FrameSync@@QAEXPAVGraphicsEntityShared@Shared@@@Z 004230e0 f i render_win32.release:graphicsentity.obj
 0001:00022190       ??$OwnerDiscard@VGraphicsEntityShared@Shared@@@FrameSyncSharedData@FrameSync@@QAEXPAVGraphicsEntityShared@Shared@@@Z 00423190 f i render_win32.release:graphicsentity.obj
 0001:000221f0       ??C?$Ptr@VGraphicsEntityMessage@Graphics@@@@QBEPAVGraphicsEntityMessage@Graphics@@XZ 004231f0 f i render_win32.release:graphicsentity.obj
 0001:00022230       ??$cast@VMessage@Messaging@@@?$Ptr@VGraphicsEntityMessage@Graphics@@@@QBEABV?$Ptr@VMessage@Messaging@@@@XZ 00423230 f i render_win32.release:graphicsentity.obj
 0001:00022240       ??C?$Ptr@VCreateGraphicsEntity@Graphics@@@@QBEPAVCreateGraphicsEntity@Graphics@@XZ 00423240 f i render_win32.release:graphicsentity.obj
 0001:00022280       ??$cast@VMessage@Messaging@@@?$Ptr@VCreateGraphicsEntity@Graphics@@@@QBEABV?$Ptr@VMessage@Messaging@@@@XZ 00423280 f i render_win32.release:graphicsentity.obj
 0001:00022290       ??0?$Ptr@VUpdateTransform@Graphics@@@@QAE@PAVUpdateTransform@Graphics@@@Z 00423290 f i render_win32.release:graphicsentity.obj
 0001:000222d0       ??1?$Ptr@VUpdateTransform@Graphics@@@@QAE@XZ 004232d0 f i render_win32.release:graphicsentity.obj
 0001:00022300       ??C?$Ptr@VUpdateTransform@Graphics@@@@QBEPAVUpdateTransform@Graphics@@XZ 00423300 f i render_win32.release:graphicsentity.obj
 0001:00022340       ??$cast@VGraphicsEntityMessage@Graphics@@@?$Ptr@VUpdateTransform@Graphics@@@@QBEABV?$Ptr@VGraphicsEntityMessage@Graphics@@@@XZ 00423340 f i render_win32.release:graphicsentity.obj
 0001:00022350       ??0?$Ptr@VSetVisibility@Graphics@@@@QAE@PAVSetVisibility@Graphics@@@Z 00423350 f i render_win32.release:graphicsentity.obj
 0001:00022390       ??1?$Ptr@VSetVisibility@Graphics@@@@QAE@XZ 00423390 f i render_win32.release:graphicsentity.obj
 0001:000223c0       ??C?$Ptr@VSetVisibility@Graphics@@@@QBEPAVSetVisibility@Graphics@@XZ 004233c0 f i render_win32.release:graphicsentity.obj
 0001:00022400       ??$cast@VGraphicsEntityMessage@Graphics@@@?$Ptr@VSetVisibility@Graphics@@@@QBEABV?$Ptr@VGraphicsEntityMessage@Graphics@@@@XZ 00423400 f i render_win32.release:graphicsentity.obj
 0001:00022410       ??$CreateDataObjects@VGraphicsEntityShared@Shared@@@FrameSyncSharedData@FrameSync@@AAEXPAVGraphicsEntityShared@Shared@@@Z 00423410 f i render_win32.release:graphicsentity.obj
 0001:00022500       ??$DestroyDataObjects@VGraphicsEntityShared@Shared@@@FrameSyncSharedData@FrameSync@@AAEXPAVGraphicsEntityShared@Shared@@@Z 00423500 f i render_win32.release:graphicsentity.obj
 0001:000225c0       ?SetColor@SetLightColor@Graphics@@QAEXABVfloat4@Math@@@Z 004235c0 f i render_win32.release:abstractlightentity.obj
 0001:00022610       ?SetCastShadows@SetLightCastShadows@Graphics@@QAEX_N@Z 00423610 f i render_win32.release:abstractlightentity.obj
 0001:00022650       ?SetType@GraphicsEntity@Graphics@@IAEXW4Code@InternalGraphicsEntityType@InternalGraphics@@@Z 00423650 f i render_win32.release:abstractlightentity.obj
 0001:00022670       ??2AbstractLightEntity@Graphics@@SAPAXI@Z 00423670 f i render_win32.release:abstractlightentity.obj
 0001:00022680       ??3AbstractLightEntity@Graphics@@SAXPAX@Z 00423680 f i render_win32.release:abstractlightentity.obj
 0001:000226a0       ?GetRtti@AbstractLightEntity@Graphics@@UBEPAVRtti@Core@@XZ 004236a0 f   render_win32.release:abstractlightentity.obj
 0001:000226b0       ?FactoryCreator@AbstractLightEntity@Graphics@@SAPAVRefCounted@Core@@XZ 004236b0 f   render_win32.release:abstractlightentity.obj
 0001:000226c0       ?Create@AbstractLightEntity@Graphics@@SAPAV12@XZ 004236c0 f   render_win32.release:abstractlightentity.obj
 0001:00022700       ?RegisterWithFactory@AbstractLightEntity@Graphics@@SA_NXZ 00423700 f   render_win32.release:abstractlightentity.obj
 0001:00022800       ??0AbstractLightEntity@Graphics@@QAE@XZ 00423800 f   render_win32.release:abstractlightentity.obj
 0001:00022960       ??_GAbstractLightEntity@Graphics@@UAEPAXI@Z 00423960 f i render_win32.release:abstractlightentity.obj
 0001:00022960       ??_EAbstractLightEntity@Graphics@@UAEPAXI@Z 00423960 f i  CIL library: CIL module
 0001:00022990       ??1AbstractLightEntity@Graphics@@UAE@XZ 00423990 f   render_win32.release:abstractlightentity.obj
 0001:000229b0       ?SetColor@AbstractLightEntity@Graphics@@QAEXABVfloat4@Math@@@Z 004239b0 f   render_win32.release:abstractlightentity.obj
 0001:00022a50       ?SetCastShadows@AbstractLightEntity@Graphics@@QAEX_N@Z 00423a50 f   render_win32.release:abstractlightentity.obj
 0001:00022ae0       ??0?$Ptr@VSetLightColor@Graphics@@@@QAE@PAVSetLightColor@Graphics@@@Z 00423ae0 f i render_win32.release:abstractlightentity.obj
 0001:00022b20       ??1?$Ptr@VSetLightColor@Graphics@@@@QAE@XZ 00423b20 f i render_win32.release:abstractlightentity.obj
 0001:00022b50       ??C?$Ptr@VSetLightColor@Graphics@@@@QBEPAVSetLightColor@Graphics@@XZ 00423b50 f i render_win32.release:abstractlightentity.obj
 0001:00022b90       ??$cast@VGraphicsEntityMessage@Graphics@@@?$Ptr@VSetLightColor@Graphics@@@@QBEABV?$Ptr@VGraphicsEntityMessage@Graphics@@@@XZ 00423b90 f i render_win32.release:abstractlightentity.obj
 0001:00022ba0       ??0?$Ptr@VSetLightCastShadows@Graphics@@@@QAE@PAVSetLightCastShadows@Graphics@@@Z 00423ba0 f i render_win32.release:abstractlightentity.obj
 0001:00022be0       ??1?$Ptr@VSetLightCastShadows@Graphics@@@@QAE@XZ 00423be0 f i render_win32.release:abstractlightentity.obj
 0001:00022c10       ??C?$Ptr@VSetLightCastShadows@Graphics@@@@QBEPAVSetLightCastShadows@Graphics@@XZ 00423c10 f i render_win32.release:abstractlightentity.obj
 0001:00022c50       ??$cast@VGraphicsEntityMessage@Graphics@@@?$Ptr@VSetLightCastShadows@Graphics@@@@QBEABV?$Ptr@VGraphicsEntityMessage@Graphics@@@@XZ 00423c50 f i render_win32.release:abstractlightentity.obj
 0001:00022c60       ??0StringAtom@Util@@QAE@XZ 00423c60 f i render_win32.release:stage.obj
 0001:00022c80       ?IsValid@StringAtom@Util@@QBE_NXZ 00423c80 f i render_win32.release:stage.obj
 0001:00022cc0       ?Handled@Message@Messaging@@QBE_NXZ 00423cc0 f i render_win32.release:stage.obj
 0001:00022ce0       ?SetName@CreateGraphicsStage@Graphics@@QAEXABVStringAtom@Util@@@Z 00423ce0 f i render_win32.release:stage.obj
 0001:00022d20       ?SetVisibleSystems@CreateGraphicsStage@Graphics@@QAEXABV?$Array@V?$Ptr@VVisibilitySystemBase@Visibility@@@@@Util@@@Z 00423d20 f i render_win32.release:stage.obj
 0001:00022d60       ?SetObjectRef@CreateGraphicsStage@Graphics@@QAEXABV?$Ptr@VObjectRef@Threading@@@@@Z 00423d60 f i render_win32.release:stage.obj
 0001:00022da0       ?SetObjectRef@DiscardGraphicsStage@Graphics@@QAEXABV?$Ptr@VObjectRef@Threading@@@@@Z 00423da0 f i render_win32.release:stage.obj
 0001:00022de0       ?GetType@GraphicsEntity@Graphics@@QBE?AW4Code@InternalGraphicsEntityType@InternalGraphics@@XZ 00423de0 f i render_win32.release:stage.obj
 0001:00022e00       ??2Stage@Graphics@@SAPAXI@Z 00423e00 f i render_win32.release:stage.obj
 0001:00022e10       ??3Stage@Graphics@@SAXPAX@Z 00423e10 f i render_win32.release:stage.obj
 0001:00022e30       ?IsValid@Stage@Graphics@@QBE_NXZ 00423e30 f i render_win32.release:stage.obj
 0001:00022e50       ?GetRtti@Stage@Graphics@@UBEPAVRtti@Core@@XZ 00423e50 f   render_win32.release:stage.obj
 0001:00022e60       ?FactoryCreator@Stage@Graphics@@SAPAVRefCounted@Core@@XZ 00423e60 f   render_win32.release:stage.obj
 0001:00022e70       ?Create@Stage@Graphics@@SAPAV12@XZ 00423e70 f   render_win32.release:stage.obj
 0001:00022eb0       ?RegisterWithFactory@Stage@Graphics@@SA_NXZ 00423eb0 f   render_win32.release:stage.obj
 0001:00022fb0       ??0Stage@Graphics@@QAE@XZ  00423fb0 f   render_win32.release:stage.obj
 0001:00023040       ??_GStage@Graphics@@UAEPAXI@Z 00424040 f i render_win32.release:stage.obj
 0001:00023040       ??_EStage@Graphics@@UAEPAXI@Z 00424040 f i  CIL library: CIL module
 0001:00023070       ??1Stage@Graphics@@UAE@XZ  00424070 f   render_win32.release:stage.obj
 0001:00023120       ?Setup@Stage@Graphics@@AAEXABV?$Array@V?$Ptr@VVisibilitySystemBase@Visibility@@@@@Util@@@Z 00424120 f   render_win32.release:stage.obj
 0001:00023320       ?Discard@Stage@Graphics@@AAEXXZ 00424320 f   render_win32.release:stage.obj
 0001:00023430       ?AttachEntity@Stage@Graphics@@QAEXABV?$Ptr@VGraphicsEntity@Graphics@@@@@Z 00424430 f   render_win32.release:stage.obj
 0001:00023500       ?RemoveEntity@Stage@Graphics@@QAEXABV?$Ptr@VGraphicsEntity@Graphics@@@@@Z 00424500 f   render_win32.release:stage.obj
 0001:00023690       ?OnFrame@Stage@Graphics@@AAEXXZ 00424690 f   render_win32.release:stage.obj
 0001:000236d0       ??4?$Array@V?$Ptr@VVisibilitySystemBase@Visibility@@@@@Util@@QAEXABV01@@Z 004246d0 f i render_win32.release:stage.obj
 0001:000237c0       ??0?$Ptr@VStage@Graphics@@@@QAE@PAVStage@Graphics@@@Z 004247c0 f i render_win32.release:stage.obj
 0001:00023800       ?get@?$Ptr@VStage@Graphics@@@@QBEPAVStage@Graphics@@XZ 00424800 f i render_win32.release:stage.obj
 0001:00023840       ??0?$Array@V?$Ptr@VGraphicsEntity@Graphics@@@@@Util@@QAE@XZ 00424840 f i render_win32.release:stage.obj
 0001:00023880       ??1?$Array@V?$Ptr@VGraphicsEntity@Graphics@@@@@Util@@QAE@XZ 00424880 f i render_win32.release:stage.obj
 0001:000238a0       ?Append@?$Array@V?$Ptr@VGraphicsEntity@Graphics@@@@@Util@@QAEXABV?$Ptr@VGraphicsEntity@Graphics@@@@@Z 004248a0 f i render_win32.release:stage.obj
 0001:00023920       ?EraseIndex@?$Array@V?$Ptr@VGraphicsEntity@Graphics@@@@@Util@@QAEXH@Z 00424920 f i render_win32.release:stage.obj
 0001:000239a0       ?Clear@?$Array@V?$Ptr@VGraphicsEntity@Graphics@@@@@Util@@QAEXXZ 004249a0 f i render_win32.release:stage.obj
 0001:000239f0       ?FindIndex@?$Array@V?$Ptr@VGraphicsEntity@Graphics@@@@@Util@@QBEHABV?$Ptr@VGraphicsEntity@Graphics@@@@@Z 004249f0 f i render_win32.release:stage.obj
 0001:00023a50       ??0?$Ptr@VCreateGraphicsStage@Graphics@@@@QAE@PAVCreateGraphicsStage@Graphics@@@Z 00424a50 f i render_win32.release:stage.obj
 0001:00023a90       ??1?$Ptr@VCreateGraphicsStage@Graphics@@@@QAE@XZ 00424a90 f i render_win32.release:stage.obj
 0001:00023ac0       ??C?$Ptr@VCreateGraphicsStage@Graphics@@@@QBEPAVCreateGraphicsStage@Graphics@@XZ 00424ac0 f i render_win32.release:stage.obj
 0001:00023b00       ??$cast@VMessage@Messaging@@@?$Ptr@VCreateGraphicsStage@Graphics@@@@QBEABV?$Ptr@VMessage@Messaging@@@@XZ 00424b00 f i render_win32.release:stage.obj
 0001:00023b10       ??$SendWait@VMessage@Messaging@@@AsyncPort@Messaging@@QAEXABV?$Ptr@VMessage@Messaging@@@@@Z 00424b10 f i render_win32.release:stage.obj
 0001:00023b30       ??0?$Ptr@VDiscardGraphicsStage@Graphics@@@@QAE@PAVDiscardGraphicsStage@Graphics@@@Z 00424b30 f i render_win32.release:stage.obj
 0001:00023b70       ??1?$Ptr@VDiscardGraphicsStage@Graphics@@@@QAE@XZ 00424b70 f i render_win32.release:stage.obj
 0001:00023ba0       ??C?$Ptr@VDiscardGraphicsStage@Graphics@@@@QBEPAVDiscardGraphicsStage@Graphics@@XZ 00424ba0 f i render_win32.release:stage.obj
 0001:00023be0       ??$cast@VMessage@Messaging@@@?$Ptr@VDiscardGraphicsStage@Graphics@@@@QBEABV?$Ptr@VMessage@Messaging@@@@XZ 00424be0 f i render_win32.release:stage.obj
 0001:00023bf0       ??C?$Ptr@VGraphicsEntity@Graphics@@@@QBEPAVGraphicsEntity@Graphics@@XZ 00424bf0 f i render_win32.release:stage.obj
 0001:00023c30       ?Destroy@?$Array@V?$Ptr@VVisibilitySystemBase@Visibility@@@@@Util@@AAEXPAV?$Ptr@VVisibilitySystemBase@Visibility@@@@@Z 00424c30 f i render_win32.release:stage.obj
 0001:00023c60       ?Copy@?$Array@V?$Ptr@VVisibilitySystemBase@Visibility@@@@@Util@@AAEXABV12@@Z 00424c60 f i render_win32.release:stage.obj
 0001:00023d90       ?Destroy@?$Array@V?$Ptr@VGraphicsEntity@Graphics@@@@@Util@@AAEXPAV?$Ptr@VGraphicsEntity@Graphics@@@@@Z 00424d90 f i render_win32.release:stage.obj
 0001:00023dc0       ?Delete@?$Array@V?$Ptr@VGraphicsEntity@Graphics@@@@@Util@@AAEXXZ 00424dc0 f i render_win32.release:stage.obj
 0001:00023e30       ?Grow@?$Array@V?$Ptr@VGraphicsEntity@Graphics@@@@@Util@@AAEXXZ 00424e30 f i render_win32.release:stage.obj
 0001:00023eb0       ?Move@?$Array@V?$Ptr@VGraphicsEntity@Graphics@@@@@Util@@AAEXHH@Z 00424eb0 f i render_win32.release:stage.obj
 0001:00024040       ??4?$Ptr@VGraphicsEntity@Graphics@@@@QAEXABV0@@Z 00425040 f i render_win32.release:stage.obj
 0001:000240a0       ??8?$Ptr@VGraphicsEntity@Graphics@@@@QBE_NABV0@@Z 004250a0 f i render_win32.release:stage.obj
 0001:000240c0       ??_G?$Ptr@VVisibilitySystemBase@Visibility@@@@QAEPAXI@Z 004250c0 f i render_win32.release:stage.obj
 0001:000240f0       ??_G?$Ptr@VGraphicsEntity@Graphics@@@@QAEPAXI@Z 004250f0 f i render_win32.release:stage.obj
 0001:00024120       ??_E?$Ptr@VGraphicsEntity@Graphics@@@@QAEPAXI@Z 00425120 f i render_win32.release:stage.obj
 0001:000241c0       ?GrowTo@?$Array@V?$Ptr@VGraphicsEntity@Graphics@@@@@Util@@AAEXH@Z 004251c0 f i render_win32.release:stage.obj
 0001:000242e0       ??1?$Ptr@VGraphicsEntity@Graphics@@@@QAE@XZ 004252e0 f i render_win32.release:stage.obj
 0001:00024310       ??0?$Ptr@VGraphicsEntity@Graphics@@@@QAE@XZ 00425310 f i render_win32.release:stage.obj
 0001:00024330       ?Alloc@Win360Heap@Win360@@QAEPAXI@Z 00425330 f i render_win32.release:modelentity.obj
 0001:00024390       ??0float4@Math@@QAE@XZ     00425390 f i render_win32.release:modelentity.obj
 0001:000243a0       ?nullvec@vector@Math@@SA?AV12@XZ 004253a0 f i render_win32.release:modelentity.obj
 0001:00024430       ??0matrix44@Math@@QAE@XZ   00425430 f i render_win32.release:modelentity.obj
 0001:000244d0       ??2String@Util@@SAPAXI@Z   004254d0 f i render_win32.release:modelentity.obj
 0001:000244f0       ??2Win32Guid@Win32@@SAPAXI@Z 004254f0 f i render_win32.release:modelentity.obj
 0001:00024510       ??3Win32Guid@Win32@@SAXPAX@Z 00425510 f i render_win32.release:modelentity.obj
 0001:00024530       ??0Win32Guid@Win32@@QAE@XZ 00425530 f i render_win32.release:modelentity.obj
 0001:00024550       ??0Win32Guid@Win32@@QAE@ABV01@@Z 00425550 f i render_win32.release:modelentity.obj
 0001:00024580       ??2Blob@Util@@SAPAXI@Z     00425580 f i render_win32.release:modelentity.obj
 0001:000245a0       ??0Blob@Util@@QAE@XZ       004255a0 f i render_win32.release:modelentity.obj
 0001:000245d0       ?Allocate@Blob@Util@@AAEXH@Z 004255d0 f i render_win32.release:modelentity.obj
 0001:000246a0       ?Copy@Blob@Util@@AAEXPBXH@Z 004256a0 f i render_win32.release:modelentity.obj
 0001:00024780       ??0Blob@Util@@QAE@ABV01@@Z 00425780 f i render_win32.release:modelentity.obj
 0001:000247e0       ??4Blob@Util@@QAEXABV01@@Z 004257e0 f i render_win32.release:modelentity.obj
 0001:00024820       ??8StringAtom@Util@@QBE_NABV01@@Z 00425820 f i render_win32.release:modelentity.obj
 0001:00024840       ?Delete@Variant@Util@@AAEXXZ 00425840 f i render_win32.release:modelentity.obj
 0001:00024e00       ??_GBlob@Util@@QAEPAXI@Z   00425e00 f i render_win32.release:modelentity.obj
 0001:00024e30       ??_G?$Array@H@Util@@QAEPAXI@Z 00425e30 f i render_win32.release:modelentity.obj
 0001:00024e60       ??_G?$Array@M@Util@@QAEPAXI@Z 00425e60 f i render_win32.release:modelentity.obj
 0001:00024e90       ??_G?$Array@_N@Util@@QAEPAXI@Z 00425e90 f i render_win32.release:modelentity.obj
 0001:00024ec0       ??_G?$Array@Vfloat4@Math@@@Util@@QAEPAXI@Z 00425ec0 f i render_win32.release:modelentity.obj
 0001:00024ef0       ??_G?$Array@Vmatrix44@Math@@@Util@@QAEPAXI@Z 00425ef0 f i render_win32.release:modelentity.obj
 0001:00024f20       ??_G?$Array@VString@Util@@@Util@@QAEPAXI@Z 00425f20 f i render_win32.release:modelentity.obj
 0001:00024f50       ??_G?$Array@VWin32Guid@Win32@@@Util@@QAEPAXI@Z 00425f50 f i render_win32.release:modelentity.obj
 0001:00024f80       ??_G?$Array@VBlob@Util@@@Util@@QAEPAXI@Z 00425f80 f i render_win32.release:modelentity.obj
 0001:00024fb0       ?Copy@Variant@Util@@AAEXABV12@@Z 00425fb0 f i render_win32.release:modelentity.obj
 0001:00025490       ??4Variant@Util@@QAEXABV01@@Z 00426490 f i render_win32.release:modelentity.obj
 0001:000254c0       ?GetFrameCount@FrameSyncHandlerThread@FrameSync@@QBEHXZ 004264c0 f i render_win32.release:modelentity.obj
 0001:000254e0       ?SetResourceId@CreateModelEntity@Graphics@@QAEXABVStringAtom@Util@@@Z 004264e0 f i render_win32.release:modelentity.obj
 0001:00025520       ?SetRootNodePath@CreateModelEntity@Graphics@@QAEXABVStringAtom@Util@@@Z 00426520 f i render_win32.release:modelentity.obj
 0001:00025560       ?SetAnimDrivenMotionEnabled@CreateModelEntity@Graphics@@QAEX_N@Z 00426560 f i render_win32.release:modelentity.obj
 0001:000255a0       ?SetAnimDrivenMotionJointName@CreateModelEntity@Graphics@@QAEXABVStringAtom@Util@@@Z 004265a0 f i render_win32.release:modelentity.obj
 0001:000255e0       ?SetAnimEventsEnabled@CreateModelEntity@Graphics@@QAEX_N@Z 004265e0 f i render_win32.release:modelentity.obj
 0001:00025620       ?SetAnimEventsOnlyDominatingClip@CreateModelEntity@Graphics@@QAEX_N@Z 00426620 f i render_win32.release:modelentity.obj
 0001:00025660       ?SetCharJointTrackingEnabled@CreateModelEntity@Graphics@@QAEX_N@Z 00426660 f i render_win32.release:modelentity.obj
 0001:000256a0       ?SetTrackedCharJointNames@CreateModelEntity@Graphics@@QAEXABV?$Array@VStringAtom@Util@@@Util@@@Z 004266a0 f i render_win32.release:modelentity.obj
 0001:000256e0       ?SetJointName@AddTrackedCharJoint@Graphics@@QAEXABVStringAtom@Util@@@Z 004266e0 f i render_win32.release:modelentity.obj
 0001:00025720       ?SetModelNodeInstanceName@UpdModelNodeInstanceShaderVariable@Graphics@@QAEXABVStringAtom@Util@@@Z 00426720 f i render_win32.release:modelentity.obj
 0001:00025760       ?SetSemantic@UpdModelNodeInstanceShaderVariable@Graphics@@QAEXABVStringAtom@Util@@@Z 00426760 f i render_win32.release:modelentity.obj
 0001:000257a0       ?SetValue@UpdModelNodeInstanceShaderVariable@Graphics@@QAEXABVVariant@Util@@@Z 004267a0 f i render_win32.release:modelentity.obj
 0001:000257f0       ?SetModelNodeInstanceName@UpdModelNodeInstanceVisibility@Graphics@@QAEXABVStringAtom@Util@@@Z 004267f0 f i render_win32.release:modelentity.obj
 0001:00025830       ?SetVisible@UpdModelNodeInstanceVisibility@Graphics@@QAEX_N@Z 00426830 f i render_win32.release:modelentity.obj
 0001:00025870       ?GetJointName@CharJointInfo@Shared@@QBEABVStringAtom@Util@@XZ 00426870 f i render_win32.release:modelentity.obj
 0001:00025890       ??0ModelEntityShared@Shared@@QAE@XZ 00426890 f i render_win32.release:modelentity.obj
 0001:00025960       ??2ModelEntity@Graphics@@SAPAXI@Z 00426960 f i render_win32.release:modelentity.obj
 0001:00025970       ??3ModelEntity@Graphics@@SAXPAX@Z 00426970 f i render_win32.release:modelentity.obj
 0001:00025990       ?GetRtti@ModelEntity@Graphics@@UBEPAVRtti@Core@@XZ 00426990 f   render_win32.release:modelentity.obj
 0001:000259a0       ?FactoryCreator@ModelEntity@Graphics@@SAPAVRefCounted@Core@@XZ 004269a0 f   render_win32.release:modelentity.obj
 0001:000259b0       ?Create@ModelEntity@Graphics@@SAPAV12@XZ 004269b0 f   render_win32.release:modelentity.obj
 0001:000259f0       ?RegisterWithFactory@ModelEntity@Graphics@@SA_NXZ 004269f0 f   render_win32.release:modelentity.obj
 0001:00025af0       ??0ModelEntity@Graphics@@QAE@XZ 00426af0 f   render_win32.release:modelentity.obj
 0001:00025c70       ??_EModelEntity@Graphics@@UAEPAXI@Z 00426c70 f i  CIL library: CIL module
 0001:00025c70       ??_GModelEntity@Graphics@@UAEPAXI@Z 00426c70 f i render_win32.release:modelentity.obj
 0001:00025ca0       ??1ModelEntity@Graphics@@UAE@XZ 00426ca0 f   render_win32.release:modelentity.obj
 0001:00025cf0       ?ConfigureAnimDrivenMotionTracking@ModelEntity@Graphics@@QAEX_NABVStringAtom@Util@@@Z 00426cf0 f   render_win32.release:modelentity.obj
 0001:00025d20       ?ConfigureAnimEventTracking@ModelEntity@Graphics@@QAEX_N0@Z 00426d20 f   render_win32.release:modelentity.obj
 0001:00025d50       ?ConfigureCharJointTracking@ModelEntity@Graphics@@QAEX_NABV?$Array@VStringAtom@Util@@@Util@@@Z 00426d50 f   render_win32.release:modelentity.obj
 0001:00025d80       ?Setup@ModelEntity@Graphics@@EAEXABV?$Ptr@VStage@Graphics@@@@@Z 00426d80 f   render_win32.release:modelentity.obj
 0001:000260b0       ?OnSetupSharedData@ModelEntity@Graphics@@EAEXXZ 004270b0 f   render_win32.release:modelentity.obj
 0001:000260f0       ?OnDiscardSharedData@ModelEntity@Graphics@@EAEXXZ 004270f0 f   render_win32.release:modelentity.obj
 0001:00026120       ?UpdateModelNodeInstanceShaderVariable@ModelEntity@Graphics@@QAEXABVStringAtom@Util@@0ABVVariant@4@@Z 00427120 f   render_win32.release:modelentity.obj
 0001:00026200       ?UpdateModelNodeInstanceVisibility@ModelEntity@Graphics@@QAEXABVStringAtom@Util@@_N@Z 00427200 f   render_win32.release:modelentity.obj
 0001:000262d0       ?AddTrackedCharJoint@ModelEntity@Graphics@@QAEXABVStringAtom@Util@@@Z 004272d0 f   render_win32.release:modelentity.obj
 0001:000263b0       ?GetTrackedCharJointInfo@ModelEntity@Graphics@@QBEPBVCharJointInfo@Shared@@ABVStringAtom@Util@@@Z 004273b0 f   render_win32.release:modelentity.obj
 0001:00026460       ??0?$Array@H@Util@@QAE@ABV01@@Z 00427460 f i render_win32.release:modelentity.obj
 0001:000264b0       ??1?$Array@H@Util@@QAE@XZ  004274b0 f i render_win32.release:modelentity.obj
 0001:000264d0       ??0?$Array@M@Util@@QAE@ABV01@@Z 004274d0 f i render_win32.release:modelentity.obj
 0001:00026520       ??1?$Array@M@Util@@QAE@XZ  00427520 f i render_win32.release:modelentity.obj
 0001:00026540       ??0?$Array@_N@Util@@QAE@ABV01@@Z 00427540 f i render_win32.release:modelentity.obj
 0001:00026590       ??1?$Array@_N@Util@@QAE@XZ 00427590 f i render_win32.release:modelentity.obj
 0001:000265b0       ??0?$Array@Vfloat4@Math@@@Util@@QAE@ABV01@@Z 004275b0 f i render_win32.release:modelentity.obj
 0001:00026600       ??1?$Array@Vfloat4@Math@@@Util@@QAE@XZ 00427600 f i render_win32.release:modelentity.obj
 0001:00026620       ??0?$Array@Vmatrix44@Math@@@Util@@QAE@ABV01@@Z 00427620 f i render_win32.release:modelentity.obj
 0001:00026670       ??1?$Array@Vmatrix44@Math@@@Util@@QAE@XZ 00427670 f i render_win32.release:modelentity.obj
 0001:00026690       ??0?$Array@VWin32Guid@Win32@@@Util@@QAE@ABV01@@Z 00427690 f i render_win32.release:modelentity.obj
 0001:000266e0       ??1?$Array@VWin32Guid@Win32@@@Util@@QAE@XZ 004276e0 f i render_win32.release:modelentity.obj
 0001:00026700       ??0?$Array@VBlob@Util@@@Util@@QAE@ABV01@@Z 00427700 f i render_win32.release:modelentity.obj
 0001:00026750       ??1?$Array@VBlob@Util@@@Util@@QAE@XZ 00427750 f i render_win32.release:modelentity.obj
 0001:00026770       ??0?$Array@VStringAtom@Util@@@Util@@QAE@XZ 00427770 f i render_win32.release:modelentity.obj
 0001:000267b0       ??1?$Array@VStringAtom@Util@@@Util@@QAE@XZ 004277b0 f i render_win32.release:modelentity.obj
 0001:000267d0       ??4?$Array@VStringAtom@Util@@@Util@@QAEXABV01@@Z 004277d0 f i render_win32.release:modelentity.obj
 0001:000268d0       ?Append@?$Array@VStringAtom@Util@@@Util@@QAEXABVStringAtom@2@@Z 004278d0 f i render_win32.release:modelentity.obj
 0001:00026940       ?FindIndex@?$Array@VStringAtom@Util@@@Util@@QBEHABVStringAtom@2@@Z 00427940 f i render_win32.release:modelentity.obj
 0001:000269a0       ??0?$Array@VAnimEventInfo@Animation@@@Util@@QAE@XZ 004279a0 f i render_win32.release:modelentity.obj
 0001:000269e0       ??1?$Array@VAnimEventInfo@Animation@@@Util@@QAE@XZ 004279e0 f i render_win32.release:modelentity.obj
 0001:00026a00       ??0?$Array@VCharJointInfo@Shared@@@Util@@QAE@XZ 00427a00 f i render_win32.release:modelentity.obj
 0001:00026a40       ??1?$Array@VCharJointInfo@Shared@@@Util@@QAE@XZ 00427a40 f i render_win32.release:modelentity.obj
 0001:00026a60       ??A?$Array@VCharJointInfo@Shared@@@Util@@QBEAAVCharJointInfo@Shared@@H@Z 00427a60 f i render_win32.release:modelentity.obj
 0001:00026ab0       ?Size@?$Array@VCharJointInfo@Shared@@@Util@@QBEHXZ 00427ab0 f i render_win32.release:modelentity.obj
 0001:00026ad0       ??$Owner@VModelEntityShared@Shared@@@FrameSyncSharedData@FrameSync@@QAEAAVModelEntityShared@Shared@@XZ 00427ad0 f i render_win32.release:modelentity.obj
 0001:00026b40       ??0?$Ptr@VCreateModelEntity@Graphics@@@@QAE@PAVCreateModelEntity@Graphics@@@Z 00427b40 f i render_win32.release:modelentity.obj
 0001:00026b80       ??1?$Ptr@VCreateModelEntity@Graphics@@@@QAE@XZ 00427b80 f i render_win32.release:modelentity.obj
 0001:00026bb0       ??C?$Ptr@VCreateModelEntity@Graphics@@@@QBEPAVCreateModelEntity@Graphics@@XZ 00427bb0 f i render_win32.release:modelentity.obj
 0001:00026bf0       ??$cast@VCreateGraphicsEntity@Graphics@@@?$Ptr@VCreateModelEntity@Graphics@@@@QBEABV?$Ptr@VCreateGraphicsEntity@Graphics@@@@XZ 00427bf0 f i render_win32.release:modelentity.obj
 0001:00026c00       ??$OwnerSetup@VModelEntityShared@Shared@@@FrameSyncSharedData@FrameSync@@QAEXPAVModelEntityShared@Shared@@@Z 00427c00 f i render_win32.release:modelentity.obj
 0001:00026cb0       ??$OwnerDiscard@VModelEntityShared@Shared@@@FrameSyncSharedData@FrameSync@@QAEXPAVModelEntityShared@Shared@@@Z 00427cb0 f i render_win32.release:modelentity.obj
 0001:00026d10       ??0?$Ptr@VUpdModelNodeInstanceShaderVariable@Graphics@@@@QAE@PAVUpdModelNodeInstanceShaderVariable@Graphics@@@Z 00427d10 f i render_win32.release:modelentity.obj
 0001:00026d50       ??1?$Ptr@VUpdModelNodeInstanceShaderVariable@Graphics@@@@QAE@XZ 00427d50 f i render_win32.release:modelentity.obj
 0001:00026d80       ??C?$Ptr@VUpdModelNodeInstanceShaderVariable@Graphics@@@@QBEPAVUpdModelNodeInstanceShaderVariable@Graphics@@XZ 00427d80 f i render_win32.release:modelentity.obj
 0001:00026dc0       ??$cast@VGraphicsEntityMessage@Graphics@@@?$Ptr@VUpdModelNodeInstanceShaderVariable@Graphics@@@@QBEABV?$Ptr@VGraphicsEntityMessage@Graphics@@@@XZ 00427dc0 f i render_win32.release:modelentity.obj
 0001:00026dd0       ??0?$Ptr@VUpdModelNodeInstanceVisibility@Graphics@@@@QAE@PAVUpdModelNodeInstanceVisibility@Graphics@@@Z 00427dd0 f i render_win32.release:modelentity.obj
 0001:00026e10       ??1?$Ptr@VUpdModelNodeInstanceVisibility@Graphics@@@@QAE@XZ 00427e10 f i render_win32.release:modelentity.obj
 0001:00026e40       ??C?$Ptr@VUpdModelNodeInstanceVisibility@Graphics@@@@QBEPAVUpdModelNodeInstanceVisibility@Graphics@@XZ 00427e40 f i render_win32.release:modelentity.obj
 0001:00026e80       ??$cast@VGraphicsEntityMessage@Graphics@@@?$Ptr@VUpdModelNodeInstanceVisibility@Graphics@@@@QBEABV?$Ptr@VGraphicsEntityMessage@Graphics@@@@XZ 00427e80 f i render_win32.release:modelentity.obj
 0001:00026e90       ??0?$Ptr@VAddTrackedCharJoint@Graphics@@@@QAE@PAVAddTrackedCharJoint@Graphics@@@Z 00427e90 f i render_win32.release:modelentity.obj
 0001:00026ed0       ??1?$Ptr@VAddTrackedCharJoint@Graphics@@@@QAE@XZ 00427ed0 f i render_win32.release:modelentity.obj
 0001:00026f00       ??C?$Ptr@VAddTrackedCharJoint@Graphics@@@@QBEPAVAddTrackedCharJoint@Graphics@@XZ 00427f00 f i render_win32.release:modelentity.obj
 0001:00026f40       ??$cast@VGraphicsEntityMessage@Graphics@@@?$Ptr@VAddTrackedCharJoint@Graphics@@@@QBEABV?$Ptr@VGraphicsEntityMessage@Graphics@@@@XZ 00427f40 f i render_win32.release:modelentity.obj
 0001:00026f50       ?Copy@?$Array@H@Util@@AAEXABV12@@Z 00427f50 f i render_win32.release:modelentity.obj
 0001:00027020       ?Delete@?$Array@H@Util@@AAEXXZ 00428020 f i render_win32.release:modelentity.obj
 0001:00027080       ?Copy@?$Array@M@Util@@AAEXABV12@@Z 00428080 f i render_win32.release:modelentity.obj
 0001:00027150       ?Delete@?$Array@M@Util@@AAEXXZ 00428150 f i render_win32.release:modelentity.obj
 0001:000271b0       ?Copy@?$Array@_N@Util@@AAEXABV12@@Z 004281b0 f i render_win32.release:modelentity.obj
 0001:00027270       ?Delete@?$Array@_N@Util@@AAEXXZ 00428270 f i render_win32.release:modelentity.obj
 0001:000272d0       ?Copy@?$Array@Vfloat4@Math@@@Util@@AAEXABV12@@Z 004282d0 f i render_win32.release:modelentity.obj
 0001:00027410       ?Delete@?$Array@Vfloat4@Math@@@Util@@AAEXXZ 00428410 f i render_win32.release:modelentity.obj
 0001:00027470       ?Copy@?$Array@Vmatrix44@Math@@@Util@@AAEXABV12@@Z 00428470 f i render_win32.release:modelentity.obj
 0001:000276c0       ?Delete@?$Array@Vmatrix44@Math@@@Util@@AAEXXZ 004286c0 f i render_win32.release:modelentity.obj
 0001:00027720       ?Copy@?$Array@VWin32Guid@Win32@@@Util@@AAEXABV12@@Z 00428720 f i render_win32.release:modelentity.obj
 0001:00027840       ?Delete@?$Array@VWin32Guid@Win32@@@Util@@AAEXXZ 00428840 f i render_win32.release:modelentity.obj
 0001:000278a0       ?Copy@?$Array@VBlob@Util@@@Util@@AAEXABV12@@Z 004288a0 f i render_win32.release:modelentity.obj
 0001:00027a10       ?Delete@?$Array@VBlob@Util@@@Util@@AAEXXZ 00428a10 f i render_win32.release:modelentity.obj
 0001:00027a80       ?Destroy@?$Array@VStringAtom@Util@@@Util@@AAEXPAVStringAtom@2@@Z 00428a80 f i render_win32.release:modelentity.obj
 0001:00027a90       ?Copy@?$Array@VStringAtom@Util@@@Util@@AAEXABV12@@Z 00428a90 f i render_win32.release:modelentity.obj
 0001:00027bb0       ?Delete@?$Array@VStringAtom@Util@@@Util@@AAEXXZ 00428bb0 f i render_win32.release:modelentity.obj
 0001:00027c10       ?Grow@?$Array@VStringAtom@Util@@@Util@@AAEXXZ 00428c10 f i render_win32.release:modelentity.obj
 0001:00027c90       ?Delete@?$Array@VAnimEventInfo@Animation@@@Util@@AAEXXZ 00428c90 f i render_win32.release:modelentity.obj
 0001:00027cf0       ?Delete@?$Array@VCharJointInfo@Shared@@@Util@@AAEXXZ 00428cf0 f i render_win32.release:modelentity.obj
 0001:00027d50       ??$CreateDataObjects@VModelEntityShared@Shared@@@FrameSyncSharedData@FrameSync@@AAEXPAVModelEntityShared@Shared@@@Z 00428d50 f i render_win32.release:modelentity.obj
 0001:00027e40       ??$DestroyDataObjects@VModelEntityShared@Shared@@@FrameSyncSharedData@FrameSync@@AAEXPAVModelEntityShared@Shared@@@Z 00428e40 f i render_win32.release:modelentity.obj
 0001:00027f80       ??_GModelEntityShared@Shared@@QAEPAXI@Z 00428f80 f i render_win32.release:modelentity.obj
 0001:00027fc0       ??1ModelEntityShared@Shared@@QAE@XZ 00428fc0 f i render_win32.release:modelentity.obj
 0001:00027ff0       ?GrowTo@?$Array@VStringAtom@Util@@@Util@@AAEXH@Z 00428ff0 f i render_win32.release:modelentity.obj
 0001:000280e0       ??0float2@Math@@QAE@XZ     004290e0 f i render_win32.release:inputserverbase.obj
 0001:000280f0       ??0InputEvent@Input@@QAE@XZ 004290f0 f i render_win32.release:inputserverbase.obj
 0001:00028130       ?SetType@InputEvent@Input@@QAEXW4Type@12@@Z 00429130 f i render_win32.release:inputserverbase.obj
 0001:00028150       ?GetType@InputEvent@Input@@QBE?AW4Type@12@XZ 00429150 f i render_win32.release:inputserverbase.obj
 0001:00028160       ??2InputServerBase@Base@@SAPAXI@Z 00429160 f i render_win32.release:inputserverbase.obj
 0001:00028170       ??3InputServerBase@Base@@SAXPAX@Z 00429170 f i render_win32.release:inputserverbase.obj
 0001:00028190       ?IsOpen@InputServerBase@Base@@QBE_NXZ 00429190 f i render_win32.release:inputserverbase.obj
 0001:000281b0       ?GetMaxNumPlayers@GamePadBase@Base@@SAHXZ 004291b0 f i render_win32.release:inputserverbase.obj
 0001:000281c0       ?GetRtti@InputServerBase@Base@@UBEPAVRtti@Core@@XZ 004291c0 f   render_win32.release:inputserverbase.obj
 0001:000281d0       ?FactoryCreator@InputServerBase@Base@@SAPAVRefCounted@Core@@XZ 004291d0 f   render_win32.release:inputserverbase.obj
 0001:000281e0       ?Create@InputServerBase@Base@@SAPAV12@XZ 004291e0 f   render_win32.release:inputserverbase.obj
 0001:00028220       ?RegisterWithFactory@InputServerBase@Base@@SA_NXZ 00429220 f   render_win32.release:inputserverbase.obj
 0001:00028320       ??0InputServerBase@Base@@QAE@XZ 00429320 f   render_win32.release:inputserverbase.obj
 0001:000283e0       ??_EInputServerBase@Base@@UAEPAXI@Z 004293e0 f i  CIL library: CIL module
 0001:000283e0       ??_GInputServerBase@Base@@UAEPAXI@Z 004293e0 f i render_win32.release:inputserverbase.obj
 0001:00028410       ??1InputServerBase@Base@@UAE@XZ 00429410 f   render_win32.release:inputserverbase.obj
 0001:000284a0       ?SetMaxNumLocalPlayers@InputServerBase@Base@@QAEXH@Z 004294a0 f   render_win32.release:inputserverbase.obj
 0001:000284f0       ?Open@InputServerBase@Base@@UAEXXZ 004294f0 f   render_win32.release:inputserverbase.obj
 0001:00028540       ?Close@InputServerBase@Base@@UAEXXZ 00429540 f   render_win32.release:inputserverbase.obj
 0001:00028630       ?Reset@InputServerBase@Base@@QAEXXZ 00429630 f   render_win32.release:inputserverbase.obj
 0001:000286c0       ?AttachInputHandler@InputServerBase@Base@@QAEXW4Code@InputPriority@Input@@ABV?$Ptr@VInputHandler@Input@@@@@Z 004296c0 f   render_win32.release:inputserverbase.obj
 0001:00028790       ??1?$KeyValuePair@W4Code@InputPriority@Input@@V?$Ptr@VInputHandler@Input@@@@@Util@@QAE@XZ 00429790 f i render_win32.release:inputserverbase.obj
 0001:000287b0       ?RemoveInputHandler@InputServerBase@Base@@QAEXABV?$Ptr@VInputHandler@Input@@@@@Z 004297b0 f   render_win32.release:inputserverbase.obj
 0001:000288d0       ?BeginFrame@InputServerBase@Base@@UAEXXZ 004298d0 f   render_win32.release:inputserverbase.obj
 0001:00028980       ?OnFrame@InputServerBase@Base@@UAEXXZ 00429980 f   render_win32.release:inputserverbase.obj
 0001:00028990       ?EndFrame@InputServerBase@Base@@QAEXXZ 00429990 f   render_win32.release:inputserverbase.obj
 0001:00028a40       ?PutEvent@InputServerBase@Base@@QAEXABVInputEvent@Input@@@Z 00429a40 f   render_win32.release:inputserverbase.obj
 0001:00028c10       ?ObtainMouseCapture@InputServerBase@Base@@QAEXABV?$Ptr@VInputHandler@Input@@@@@Z 00429c10 f   render_win32.release:inputserverbase.obj
 0001:00028c90       ?ReleaseMouseCapture@InputServerBase@Base@@QAEXABV?$Ptr@VInputHandler@Input@@@@@Z 00429c90 f   render_win32.release:inputserverbase.obj
 0001:00028cf0       ?GetMouseCaptureHandler@InputServerBase@Base@@QBEABV?$Ptr@VInputHandler@Input@@@@XZ 00429cf0 f   render_win32.release:inputserverbase.obj
 0001:00028d10       ?ClearMouseCapture@InputServerBase@Base@@QAEXXZ 00429d10 f   render_win32.release:inputserverbase.obj
 0001:00028d60       ?ClearKeyboardCapture@InputServerBase@Base@@QAEXXZ 00429d60 f   render_win32.release:inputserverbase.obj
 0001:00028db0       ?ClearCapture@InputServerBase@Base@@QAEXXZ 00429db0 f   render_win32.release:inputserverbase.obj
 0001:00028dd0       ?ObtainKeyboardCapture@InputServerBase@Base@@QAEXABV?$Ptr@VInputHandler@Input@@@@@Z 00429dd0 f   render_win32.release:inputserverbase.obj
 0001:00028e50       ?ReleaseKeyboardCapture@InputServerBase@Base@@QAEXABV?$Ptr@VInputHandler@Input@@@@@Z 00429e50 f   render_win32.release:inputserverbase.obj
 0001:00028eb0       ?GetKeyboardCaptureHandler@InputServerBase@Base@@QBEABV?$Ptr@VInputHandler@Input@@@@XZ 00429eb0 f   render_win32.release:inputserverbase.obj
 0001:00028ed0       ?GetDefaultGamePad@InputServerBase@Base@@QBE?AV?$Ptr@VGamePad@Input@@@@H@Z 00429ed0 f   render_win32.release:inputserverbase.obj
 0001:00028f70       ??0?$Array@V?$KeyValuePair@W4Code@InputPriority@Input@@V?$Ptr@VInputHandler@Input@@@@@Util@@@Util@@QAE@XZ 00429f70 f i render_win32.release:inputserverbase.obj
 0001:00028fb0       ??1?$Array@V?$KeyValuePair@W4Code@InputPriority@Input@@V?$Ptr@VInputHandler@Input@@@@@Util@@@Util@@QAE@XZ 00429fb0 f i render_win32.release:inputserverbase.obj
 0001:00028fd0       ??A?$Array@V?$KeyValuePair@W4Code@InputPriority@Input@@V?$Ptr@VInputHandler@Input@@@@@Util@@@Util@@QBEAAV?$KeyValuePair@W4Code@InputPriority@Input@@V?$Ptr@VInputHandler@Input@@@@@1@H@Z 00429fd0 f i render_win32.release:inputserverbase.obj
 0001:00029020       ?Size@?$Array@V?$KeyValuePair@W4Code@InputPriority@Input@@V?$Ptr@VInputHandler@Input@@@@@Util@@@Util@@QBEHXZ 0042a020 f i render_win32.release:inputserverbase.obj
 0001:00029040       ?EraseIndex@?$Array@V?$KeyValuePair@W4Code@InputPriority@Input@@V?$Ptr@VInputHandler@Input@@@@@Util@@@Util@@QAEXH@Z 0042a040 f i render_win32.release:inputserverbase.obj
 0001:000290c0       ?InsertSorted@?$Array@V?$KeyValuePair@W4Code@InputPriority@Input@@V?$Ptr@VInputHandler@Input@@@@@Util@@@Util@@QAEHABV?$KeyValuePair@W4Code@InputPriority@Input@@V?$Ptr@VInputHandler@Input@@@@@2@@Z 0042a0c0 f i render_win32.release:inputserverbase.obj
 0001:00029330       ?Clear@?$Array@V?$KeyValuePair@W4Code@InputPriority@Input@@V?$Ptr@VInputHandler@Input@@@@@Util@@@Util@@QAEXXZ 0042a330 f i render_win32.release:inputserverbase.obj
 0001:00029380       ??0?$Ptr@VInputHandler@Input@@@@QAE@XZ 0042a380 f i render_win32.release:inputserverbase.obj
 0001:000293a0       ??1?$Ptr@VInputHandler@Input@@@@QAE@XZ 0042a3a0 f i render_win32.release:inputserverbase.obj
 0001:000293d0       ??4?$Ptr@VInputHandler@Input@@@@QAEXPAVInputHandler@Input@@@Z 0042a3d0 f i render_win32.release:inputserverbase.obj
 0001:00029430       ??4?$Ptr@VInputHandler@Input@@@@QAEXABV0@@Z 0042a430 f i render_win32.release:inputserverbase.obj
 0001:00029490       ??8?$Ptr@VInputHandler@Input@@@@QBE_NABV0@@Z 0042a490 f i render_win32.release:inputserverbase.obj
 0001:000294b0       ??9?$Ptr@VInputHandler@Input@@@@QBE_NABV0@@Z 0042a4b0 f i render_win32.release:inputserverbase.obj
 0001:000294d0       ??C?$Ptr@VInputHandler@Input@@@@QBEPAVInputHandler@Input@@XZ 0042a4d0 f i render_win32.release:inputserverbase.obj
 0001:00029510       ?isvalid@?$Ptr@VInputHandler@Input@@@@QBE_NXZ 0042a510 f i render_win32.release:inputserverbase.obj
 0001:00029530       ??0?$Ptr@VKeyboard@Input@@@@QAE@XZ 0042a530 f i render_win32.release:inputserverbase.obj
 0001:00029550       ??1?$Ptr@VKeyboard@Input@@@@QAE@XZ 0042a550 f i render_win32.release:inputserverbase.obj
 0001:00029580       ??4?$Ptr@VKeyboard@Input@@@@QAEXPAVKeyboard@Input@@@Z 0042a580 f i render_win32.release:inputserverbase.obj
 0001:000295e0       ??0?$Ptr@VMouse@Input@@@@QAE@XZ 0042a5e0 f i render_win32.release:inputserverbase.obj
 0001:00029600       ??1?$Ptr@VMouse@Input@@@@QAE@XZ 0042a600 f i render_win32.release:inputserverbase.obj
 0001:00029630       ??4?$Ptr@VMouse@Input@@@@QAEXPAVMouse@Input@@@Z 0042a630 f i render_win32.release:inputserverbase.obj
 0001:00029690       ??0?$FixedArray@V?$Ptr@VGamePad@Input@@@@@Util@@QAE@H@Z 0042a690 f i render_win32.release:inputserverbase.obj
 0001:000296c0       ??1?$FixedArray@V?$Ptr@VGamePad@Input@@@@@Util@@QAE@XZ 0042a6c0 f i render_win32.release:inputserverbase.obj
 0001:000296e0       ??A?$FixedArray@V?$Ptr@VGamePad@Input@@@@@Util@@QBEAAV?$Ptr@VGamePad@Input@@@@H@Z 0042a6e0 f i render_win32.release:inputserverbase.obj
 0001:00029730       ?Fill@?$FixedArray@V?$Ptr@VGamePad@Input@@@@@Util@@QAEXABV?$Ptr@VGamePad@Input@@@@@Z 0042a730 f i render_win32.release:inputserverbase.obj
 0001:00029780       ??0?$KeyValuePair@W4Code@InputPriority@Input@@V?$Ptr@VInputHandler@Input@@@@@Util@@QAE@ABW4Code@InputPriority@Input@@ABV?$Ptr@VInputHandler@Input@@@@@Z 0042a780 f i render_win32.release:inputserverbase.obj
 0001:000297b0       ?Value@?$KeyValuePair@W4Code@InputPriority@Input@@V?$Ptr@VInputHandler@Input@@@@@Util@@QAEAAV?$Ptr@VInputHandler@Input@@@@XZ 0042a7b0 f i render_win32.release:inputserverbase.obj
 0001:000297d0       ??0?$Ptr@VGamePad@Input@@@@QAE@ABV0@@Z 0042a7d0 f i render_win32.release:inputserverbase.obj
 0001:00029810       ??0?$Ptr@VGamePad@Input@@@@QAE@PAVGamePad@Input@@@Z 0042a810 f i render_win32.release:inputserverbase.obj
 0001:00029850       ?Append@?$Array@V?$KeyValuePair@W4Code@InputPriority@Input@@V?$Ptr@VInputHandler@Input@@@@@Util@@@Util@@QAEXABV?$KeyValuePair@W4Code@InputPriority@Input@@V?$Ptr@VInputHandler@Input@@@@@2@@Z 0042a850 f i render_win32.release:inputserverbase.obj
 0001:000298d0       ?Insert@?$Array@V?$KeyValuePair@W4Code@InputPriority@Input@@V?$Ptr@VInputHandler@Input@@@@@Util@@@Util@@QAEXHABV?$KeyValuePair@W4Code@InputPriority@Input@@V?$Ptr@VInputHandler@Input@@@@@2@@Z 0042a8d0 f i render_win32.release:inputserverbase.obj
 0001:00029940       ?InsertAtEndOfIdenticalRange@?$Array@V?$KeyValuePair@W4Code@InputPriority@Input@@V?$Ptr@VInputHandler@Input@@@@@Util@@@Util@@QAEHHABV?$KeyValuePair@W4Code@InputPriority@Input@@V?$Ptr@VInputHandler@Input@@@@@2@@Z 0042a940 f i render_win32.release:inputserverbase.obj
 0001:000299c0       ?Destroy@?$Array@V?$KeyValuePair@W4Code@InputPriority@Input@@V?$Ptr@VInputHandler@Input@@@@@Util@@@Util@@AAEXPAV?$KeyValuePair@W4Code@InputPriority@Input@@V?$Ptr@VInputHandler@Input@@@@@2@@Z 0042a9c0 f i render_win32.release:inputserverbase.obj
 0001:000299f0       ?Delete@?$Array@V?$KeyValuePair@W4Code@InputPriority@Input@@V?$Ptr@VInputHandler@Input@@@@@Util@@@Util@@AAEXXZ 0042a9f0 f i render_win32.release:inputserverbase.obj
 0001:00029a60       ?Move@?$Array@V?$KeyValuePair@W4Code@InputPriority@Input@@V?$Ptr@VInputHandler@Input@@@@@Util@@@Util@@AAEXHH@Z 0042aa60 f i render_win32.release:inputserverbase.obj
 0001:00029bf0       ??O?$KeyValuePair@W4Code@InputPriority@Input@@V?$Ptr@VInputHandler@Input@@@@@Util@@QBE_NABV01@@Z 0042abf0 f i render_win32.release:inputserverbase.obj
 0001:00029c10       ??M?$KeyValuePair@W4Code@InputPriority@Input@@V?$Ptr@VInputHandler@Input@@@@@Util@@QBE_NABV01@@Z 0042ac10 f i render_win32.release:inputserverbase.obj
 0001:00029c30       ??0?$Ptr@VInputHandler@Input@@@@QAE@ABV0@@Z 0042ac30 f i render_win32.release:inputserverbase.obj
 0001:00029c70       ?Delete@?$FixedArray@V?$Ptr@VGamePad@Input@@@@@Util@@AAEXXZ 0042ac70 f i render_win32.release:inputserverbase.obj
 0001:00029cd0       ?Alloc@?$FixedArray@V?$Ptr@VGamePad@Input@@@@@Util@@AAEXH@Z 0042acd0 f i render_win32.release:inputserverbase.obj
 0001:00029da0       ??4?$Ptr@VGamePad@Input@@@@QAEXABV0@@Z 0042ada0 f i render_win32.release:inputserverbase.obj
 0001:00029e00       ??_G?$KeyValuePair@W4Code@InputPriority@Input@@V?$Ptr@VInputHandler@Input@@@@@Util@@QAEPAXI@Z 0042ae00 f i render_win32.release:inputserverbase.obj
 0001:00029e40       ??_E?$KeyValuePair@W4Code@InputPriority@Input@@V?$Ptr@VInputHandler@Input@@@@@Util@@QAEPAXI@Z 0042ae40 f i render_win32.release:inputserverbase.obj
 0001:00029ee0       ??_E?$Ptr@VGamePad@Input@@@@QAEPAXI@Z 0042aee0 f i render_win32.release:inputserverbase.obj
 0001:00029f80       ?Grow@?$Array@V?$KeyValuePair@W4Code@InputPriority@Input@@V?$Ptr@VInputHandler@Input@@@@@Util@@@Util@@AAEXXZ 0042af80 f i render_win32.release:inputserverbase.obj
 0001:0002a000       ??4?$KeyValuePair@W4Code@InputPriority@Input@@V?$Ptr@VInputHandler@Input@@@@@Util@@QAEXABV01@@Z 0042b000 f i render_win32.release:inputserverbase.obj
 0001:0002a030       ??9?$KeyValuePair@W4Code@InputPriority@Input@@V?$Ptr@VInputHandler@Input@@@@@Util@@QBE_NABV01@@Z 0042b030 f i render_win32.release:inputserverbase.obj
 0001:0002a050       ??0?$Ptr@VGamePad@Input@@@@QAE@XZ 0042b050 f i render_win32.release:inputserverbase.obj
 0001:0002a070       ?GrowTo@?$Array@V?$KeyValuePair@W4Code@InputPriority@Input@@V?$Ptr@VInputHandler@Input@@@@@Util@@@Util@@AAEXH@Z 0042b070 f i render_win32.release:inputserverbase.obj
 0001:0002a190       ??0?$KeyValuePair@W4Code@InputPriority@Input@@V?$Ptr@VInputHandler@Input@@@@@Util@@QAE@XZ 0042b190 f i render_win32.release:inputserverbase.obj
 0001:0002a1b0       ??0Id@Messaging@@QAE@XZ    0042b1b0 f i render_win32.release:debugrenderprotocol.obj
 0001:0002a1c0       ??2RenderDebugText@Debug@@SAPAXI@Z 0042b1c0 f i render_win32.release:debugrenderprotocol.obj
 0001:0002a1d0       ??3RenderDebugText@Debug@@SAXPAX@Z 0042b1d0 f i render_win32.release:debugrenderprotocol.obj
 0001:0002a1f0       ??0RenderDebugText@Debug@@QAE@XZ 0042b1f0 f i render_win32.release:debugrenderprotocol.obj
 0001:0002a220       ??_ERenderDebugText@Debug@@UAEPAXI@Z 0042b220 f i  CIL library: CIL module
 0001:0002a220       ??_GRenderDebugText@Debug@@UAEPAXI@Z 0042b220 f i render_win32.release:debugrenderprotocol.obj
 0001:0002a260       ??1Message@Messaging@@UAE@XZ 0042b260 f i render_win32.release:debugrenderprotocol.obj
 0001:0002a280       ??1RenderDebugText@Debug@@UAE@XZ 0042b280 f i render_win32.release:debugrenderprotocol.obj
 0001:0002a2a0       ??2RenderDebugShapes@Debug@@SAPAXI@Z 0042b2a0 f i render_win32.release:debugrenderprotocol.obj
 0001:0002a2b0       ??3RenderDebugShapes@Debug@@SAXPAX@Z 0042b2b0 f i render_win32.release:debugrenderprotocol.obj
 0001:0002a2d0       ??0RenderDebugShapes@Debug@@QAE@XZ 0042b2d0 f i render_win32.release:debugrenderprotocol.obj
 0001:0002a300       ??_ERenderDebugShapes@Debug@@UAEPAXI@Z 0042b300 f i  CIL library: CIL module
 0001:0002a300       ??_GRenderDebugShapes@Debug@@UAEPAXI@Z 0042b300 f i render_win32.release:debugrenderprotocol.obj
 0001:0002a340       ??1RenderDebugShapes@Debug@@UAE@XZ 0042b340 f i render_win32.release:debugrenderprotocol.obj
 0001:0002a360       ??2RenderDebugView@Debug@@SAPAXI@Z 0042b360 f i render_win32.release:debugrenderprotocol.obj
 0001:0002a370       ??3RenderDebugView@Debug@@SAXPAX@Z 0042b370 f i render_win32.release:debugrenderprotocol.obj
 0001:0002a390       ??0RenderDebugView@Debug@@QAE@XZ 0042b390 f i render_win32.release:debugrenderprotocol.obj
 0001:0002a3b0       ??_ERenderDebugView@Debug@@UAEPAXI@Z 0042b3b0 f i  CIL library: CIL module
 0001:0002a3b0       ??_GRenderDebugView@Debug@@UAEPAXI@Z 0042b3b0 f i render_win32.release:debugrenderprotocol.obj
 0001:0002a3e0       ??1RenderDebugView@Debug@@UAE@XZ 0042b3e0 f i render_win32.release:debugrenderprotocol.obj
 0001:0002a400       ??2IncrDebugShaderLayer@Debug@@SAPAXI@Z 0042b400 f i render_win32.release:debugrenderprotocol.obj
 0001:0002a410       ??3IncrDebugShaderLayer@Debug@@SAXPAX@Z 0042b410 f i render_win32.release:debugrenderprotocol.obj
 0001:0002a430       ??0IncrDebugShaderLayer@Debug@@QAE@XZ 0042b430 f i render_win32.release:debugrenderprotocol.obj
 0001:0002a450       ??_EIncrDebugShaderLayer@Debug@@UAEPAXI@Z 0042b450 f i  CIL library: CIL module
 0001:0002a450       ??_GIncrDebugShaderLayer@Debug@@UAEPAXI@Z 0042b450 f i render_win32.release:debugrenderprotocol.obj
 0001:0002a480       ??1IncrDebugShaderLayer@Debug@@UAE@XZ 0042b480 f i render_win32.release:debugrenderprotocol.obj
 0001:0002a4a0       ??2SetFloatShaderVariable@Debug@@SAPAXI@Z 0042b4a0 f i render_win32.release:debugrenderprotocol.obj
 0001:0002a4b0       ??3SetFloatShaderVariable@Debug@@SAXPAX@Z 0042b4b0 f i render_win32.release:debugrenderprotocol.obj
 0001:0002a4d0       ??0SetFloatShaderVariable@Debug@@QAE@XZ 0042b4d0 f i render_win32.release:debugrenderprotocol.obj
 0001:0002a510       ??_ESetFloatShaderVariable@Debug@@UAEPAXI@Z 0042b510 f i  CIL library: CIL module
 0001:0002a510       ??_GSetFloatShaderVariable@Debug@@UAEPAXI@Z 0042b510 f i render_win32.release:debugrenderprotocol.obj
 0001:0002a540       ??1SetFloatShaderVariable@Debug@@UAE@XZ 0042b540 f i render_win32.release:debugrenderprotocol.obj
 0001:0002a560       ??2ControlPerfHUD@Debug@@SAPAXI@Z 0042b560 f i render_win32.release:debugrenderprotocol.obj
 0001:0002a570       ??3ControlPerfHUD@Debug@@SAXPAX@Z 0042b570 f i render_win32.release:debugrenderprotocol.obj
 0001:0002a590       ??0ControlPerfHUD@Debug@@QAE@XZ 0042b590 f i render_win32.release:debugrenderprotocol.obj
 0001:0002a5c0       ??_EControlPerfHUD@Debug@@UAEPAXI@Z 0042b5c0 f i  CIL library: CIL module
 0001:0002a5c0       ??_GControlPerfHUD@Debug@@UAEPAXI@Z 0042b5c0 f i render_win32.release:debugrenderprotocol.obj
 0001:0002a5f0       ??1ControlPerfHUD@Debug@@UAE@XZ 0042b5f0 f i render_win32.release:debugrenderprotocol.obj
 0001:0002a610       ?GetRtti@RenderDebugText@Debug@@UBEPAVRtti@Core@@XZ 0042b610 f   render_win32.release:debugrenderprotocol.obj
 0001:0002a620       ?FactoryCreator@RenderDebugText@Debug@@SAPAVRefCounted@Core@@XZ 0042b620 f   render_win32.release:debugrenderprotocol.obj
 0001:0002a630       ?Create@RenderDebugText@Debug@@SAPAV12@XZ 0042b630 f   render_win32.release:debugrenderprotocol.obj
 0001:0002a680       ?RegisterWithFactory@RenderDebugText@Debug@@SA_NXZ 0042b680 f   render_win32.release:debugrenderprotocol.obj
 0001:0002a780       ?GetId@RenderDebugText@Debug@@UBEABVId@Messaging@@XZ 0042b780 f   render_win32.release:debugrenderprotocol.obj
 0001:0002a790       ?GetRtti@RenderDebugShapes@Debug@@UBEPAVRtti@Core@@XZ 0042b790 f   render_win32.release:debugrenderprotocol.obj
 0001:0002a7a0       ?FactoryCreator@RenderDebugShapes@Debug@@SAPAVRefCounted@Core@@XZ 0042b7a0 f   render_win32.release:debugrenderprotocol.obj
 0001:0002a7b0       ?Create@RenderDebugShapes@Debug@@SAPAV12@XZ 0042b7b0 f   render_win32.release:debugrenderprotocol.obj
 0001:0002a800       ?RegisterWithFactory@RenderDebugShapes@Debug@@SA_NXZ 0042b800 f   render_win32.release:debugrenderprotocol.obj
 0001:0002a900       ?GetId@RenderDebugShapes@Debug@@UBEABVId@Messaging@@XZ 0042b900 f   render_win32.release:debugrenderprotocol.obj
 0001:0002a910       ?GetRtti@RenderDebugView@Debug@@UBEPAVRtti@Core@@XZ 0042b910 f   render_win32.release:debugrenderprotocol.obj
 0001:0002a920       ?FactoryCreator@RenderDebugView@Debug@@SAPAVRefCounted@Core@@XZ 0042b920 f   render_win32.release:debugrenderprotocol.obj
 0001:0002a930       ?Create@RenderDebugView@Debug@@SAPAV12@XZ 0042b930 f   render_win32.release:debugrenderprotocol.obj
 0001:0002a970       ?RegisterWithFactory@RenderDebugView@Debug@@SA_NXZ 0042b970 f   render_win32.release:debugrenderprotocol.obj
 0001:0002aa70       ?GetId@RenderDebugView@Debug@@UBEABVId@Messaging@@XZ 0042ba70 f   render_win32.release:debugrenderprotocol.obj
 0001:0002aa80       ?GetRtti@IncrDebugShaderLayer@Debug@@UBEPAVRtti@Core@@XZ 0042ba80 f   render_win32.release:debugrenderprotocol.obj
 0001:0002aa90       ?FactoryCreator@IncrDebugShaderLayer@Debug@@SAPAVRefCounted@Core@@XZ 0042ba90 f   render_win32.release:debugrenderprotocol.obj
 0001:0002aaa0       ?Create@IncrDebugShaderLayer@Debug@@SAPAV12@XZ 0042baa0 f   render_win32.release:debugrenderprotocol.obj
 0001:0002aae0       ?RegisterWithFactory@IncrDebugShaderLayer@Debug@@SA_NXZ 0042bae0 f   render_win32.release:debugrenderprotocol.obj
 0001:0002abe0       ?GetId@IncrDebugShaderLayer@Debug@@UBEABVId@Messaging@@XZ 0042bbe0 f   render_win32.release:debugrenderprotocol.obj
 0001:0002abf0       ?GetRtti@SetFloatShaderVariable@Debug@@UBEPAVRtti@Core@@XZ 0042bbf0 f   render_win32.release:debugrenderprotocol.obj
 0001:0002ac00       ?FactoryCreator@SetFloatShaderVariable@Debug@@SAPAVRefCounted@Core@@XZ 0042bc00 f   render_win32.release:debugrenderprotocol.obj
 0001:0002ac10       ?Create@SetFloatShaderVariable@Debug@@SAPAV12@XZ 0042bc10 f   render_win32.release:debugrenderprotocol.obj
 0001:0002ac70       ?RegisterWithFactory@SetFloatShaderVariable@Debug@@SA_NXZ 0042bc70 f   render_win32.release:debugrenderprotocol.obj
 0001:0002ad70       ?GetId@SetFloatShaderVariable@Debug@@UBEABVId@Messaging@@XZ 0042bd70 f   render_win32.release:debugrenderprotocol.obj
 0001:0002ad80       ?GetRtti@ControlPerfHUD@Debug@@UBEPAVRtti@Core@@XZ 0042bd80 f   render_win32.release:debugrenderprotocol.obj
 0001:0002ad90       ?FactoryCreator@ControlPerfHUD@Debug@@SAPAVRefCounted@Core@@XZ 0042bd90 f   render_win32.release:debugrenderprotocol.obj
 0001:0002ada0       ?Create@ControlPerfHUD@Debug@@SAPAV12@XZ 0042bda0 f   render_win32.release:debugrenderprotocol.obj
 0001:0002adf0       ?RegisterWithFactory@ControlPerfHUD@Debug@@SA_NXZ 0042bdf0 f   render_win32.release:debugrenderprotocol.obj
 0001:0002aef0       ?GetId@ControlPerfHUD@Debug@@UBEABVId@Messaging@@XZ 0042bef0 f   render_win32.release:debugrenderprotocol.obj
 0001:0002af00       ??0?$Array@VRenderShape@CoreGraphics@@@Util@@QAE@XZ 0042bf00 f i render_win32.release:debugrenderprotocol.obj
 0001:0002af40       ??1?$Array@VRenderShape@CoreGraphics@@@Util@@QAE@XZ 0042bf40 f i render_win32.release:debugrenderprotocol.obj
 0001:0002af60       ?Delete@?$Array@VRenderShape@CoreGraphics@@@Util@@AAEXXZ 0042bf60 f i render_win32.release:debugrenderprotocol.obj
 0001:0002afd0       ?n_asin@Math@@YAMM@Z       0042bfd0 f i render_win32.release:mayacamerautil.obj
 0001:0002aff0       ?n_acos@Math@@YAMM@Z       0042bff0 f i render_win32.release:mayacamerautil.obj
 0001:0002b010       ?n_sqrt@Math@@YAMM@Z       0042c010 f i render_win32.release:mayacamerautil.obj
 0001:0002b030       ?n_max@Math@@YAMMM@Z       0042c030 f i render_win32.release:mayacamerautil.obj
 0001:0002b060       ??Dfloat4@Math@@QBE?AV01@M@Z 0042c060 f i render_win32.release:mayacamerautil.obj
 0001:0002b0c0       ?z@float4@Math@@QAEAAMXZ   0042c0c0 f i render_win32.release:mayacamerautil.obj
 0001:0002b0e0       ?set_w@float4@Math@@QAEXM@Z 0042c0e0 f i render_win32.release:mayacamerautil.obj
 0001:0002b190       ?length@float4@Math@@QBEMXZ 0042c190 f i render_win32.release:mayacamerautil.obj
 0001:0002b310       ?normalize@float4@Math@@SA?AV12@ABV12@@Z 0042c310 f i render_win32.release:mayacamerautil.obj
 0001:0002b750       ?equal3_all@float4@Math@@SA_NABV12@0@Z 0042c750 f i render_win32.release:mayacamerautil.obj
 0001:0002b7e0       ?unpack_x@float4@Math@@SAMT__m128@@@Z 0042c7e0 f i render_win32.release:mayacamerautil.obj
 0001:0002b810       ??0vector@Math@@QAE@ABVfloat4@1@@Z 0042c810 f i render_win32.release:mayacamerautil.obj
 0001:0002b900       ??0vector@Math@@QAE@T__m128@@@Z 0042c900 f i render_win32.release:mayacamerautil.obj
 0001:0002b930       ??4vector@Math@@QAEXABV01@@Z 0042c930 f i render_win32.release:mayacamerautil.obj
 0001:0002b950       ??Hvector@Math@@QBE?AV01@ABV01@@Z 0042c950 f i render_win32.release:mayacamerautil.obj
 0001:0002b9b0       ??Ypoint@Math@@QAEXABVvector@1@@Z 0042c9b0 f i render_win32.release:mayacamerautil.obj
 0001:0002ba00       ??Zpoint@Math@@QAEXABVvector@1@@Z 0042ca00 f i render_win32.release:mayacamerautil.obj
 0001:0002ba50       ??Gpoint@Math@@QBE?AVvector@1@ABV01@@Z 0042ca50 f i render_win32.release:mayacamerautil.obj
 0001:0002bab0       ?getrow0@matrix44@Math@@QBEABVfloat4@2@XZ 0042cab0 f i render_win32.release:mayacamerautil.obj
 0001:0002bac0       ?getrow1@matrix44@Math@@QBEABVfloat4@2@XZ 0042cac0 f i render_win32.release:mayacamerautil.obj
 0001:0002bae0       ?getrow2@matrix44@Math@@QBEABVfloat4@2@XZ 0042cae0 f i render_win32.release:mayacamerautil.obj
 0001:0002bb00       ?multiply@matrix44@Math@@SA?AV12@ABV12@0@Z 0042cb00 f i render_win32.release:mayacamerautil.obj
 0001:0002c300       ?rotationy@matrix44@Math@@SA?AV12@M@Z 0042d300 f i render_win32.release:mayacamerautil.obj
 0001:0002c340       ?translation@matrix44@Math@@SA?AV12@ABVfloat4@2@@Z 0042d340 f i render_win32.release:mayacamerautil.obj
 0001:0002c460       ?set@float2@Math@@QAEXMM@Z 0042d460 f i render_win32.release:mayacamerautil.obj
 0001:0002c480       ?length@float2@Math@@QBEMXZ 0042d480 f i render_win32.release:mayacamerautil.obj
 0001:0002c4c0       ?normalize@float2@Math@@SA?AV12@ABV12@@Z 0042d4c0 f i render_win32.release:mayacamerautil.obj
 0001:0002c550       ??0polar@Math@@QAE@XZ      0042d550 f i render_win32.release:mayacamerautil.obj
 0001:0002c570       ?set@polar@Math@@QAEXABVvector@2@@Z 0042d570 f i render_win32.release:mayacamerautil.obj
 0001:0002cd20       ??0MayaCameraUtil@RenderUtil@@QAE@XZ 0042dd20 f   render_win32.release:mayacamerautil.obj
 0001:0002d370       ?Setup@MayaCameraUtil@RenderUtil@@QAEXABVpoint@Math@@0ABVvector@4@@Z 0042e370 f   render_win32.release:mayacamerautil.obj
 0001:0002d3c0       ?Reset@MayaCameraUtil@RenderUtil@@QAEXXZ 0042e3c0 f   render_win32.release:mayacamerautil.obj
 0001:0002dca0       ?Update@MayaCameraUtil@RenderUtil@@QAEXXZ 0042eca0 f   render_win32.release:mayacamerautil.obj
 0001:00030380       ?XMMatrixTranslationFromVector@@YA?AU_XMMATRIX@@T__m128@@@Z 00431380 f i render_win32.release:mayacamerautil.obj
 0001:00030470       ?XMMatrixRotationY@@YA?AU_XMMATRIX@@M@Z 00431470 f i render_win32.release:mayacamerautil.obj
 0001:000305f0       ?XMMatrixMultiply@@YA?AU_XMMATRIX@@ABU1@0@Z 004315f0 f i render_win32.release:mayacamerautil.obj
 0001:00030dd0       ?XMVectorGetXPtr@@YAXPAMT__m128@@@Z 00431dd0 f i render_win32.release:mayacamerautil.obj
 0001:00030df0       ?XMVector3EqualR@@YAIT__m128@@0@Z 00431df0 f i render_win32.release:mayacamerautil.obj
 0001:00030e60       ?XMVector4Normalize@@YA?AT__m128@@T1@@Z 00431e60 f i render_win32.release:mayacamerautil.obj
 0001:00031110       ??BXMVECTORI32@@QBE?AT__m128@@XZ 00432110 f i render_win32.release:mayacamerautil.obj
 0001:00031140       ?XMVector4Length@@YA?AT__m128@@T1@@Z 00432140 f i render_win32.release:mayacamerautil.obj
 0001:00031280       ?XMVectorSetWPtr@@YA?AT__m128@@T1@PBM@Z 00432280 f i render_win32.release:mayacamerautil.obj
 0001:00031310       ?XMVectorScale@@YA?AT__m128@@T1@M@Z 00432310 f i render_win32.release:mayacamerautil.obj
 0001:00031350       _sqrtf                     00432350 f i render_win32.release:mayacamerautil.obj
 0001:00031370       _acosf                     00432370 f i render_win32.release:mayacamerautil.obj
 0001:00031390       ?XMScalarACos@@YAMM@Z      00432390 f i render_win32.release:mayacamerautil.obj
 0001:000313b0       _asinf                     004323b0 f i render_win32.release:mayacamerautil.obj
 0001:000313d0       ?XMScalarASin@@YAMM@Z      004323d0 f i render_win32.release:mayacamerautil.obj
 0001:000313f0       ??2Resource@Resources@@SAPAXI@Z 004323f0 f i render_win32.release:resource.obj
 0001:00031400       ??3Resource@Resources@@SAXPAX@Z 00432400 f i render_win32.release:resource.obj
 0001:00031420       ?SetState@Resource@Resources@@QAEXW4State@12@@Z 00432420 f i render_win32.release:resource.obj
 0001:00031440       ?IsLoaded@Resource@Resources@@QBE_NXZ 00432440 f i render_win32.release:resource.obj
 0001:00031460       ?IsPending@Resource@Resources@@QBE_NXZ 00432460 f i render_win32.release:resource.obj
 0001:00031480       ?GetState@ResourceLoader@Resources@@QBE?AW4State@Resource@2@XZ 00432480 f i render_win32.release:resource.obj
 0001:000314a0       ?GetRtti@Resource@Resources@@UBEPAVRtti@Core@@XZ 004324a0 f   render_win32.release:resource.obj
 0001:000314b0       ?FactoryCreator@Resource@Resources@@SAPAVRefCounted@Core@@XZ 004324b0 f   render_win32.release:resource.obj
 0001:000314c0       ?Create@Resource@Resources@@SAPAV12@XZ 004324c0 f   render_win32.release:resource.obj
 0001:00031500       ?RegisterWithFactory@Resource@Resources@@SA_NXZ 00432500 f   render_win32.release:resource.obj
 0001:00031600       ??0Resource@Resources@@QAE@XZ 00432600 f   render_win32.release:resource.obj
 0001:00031680       ??_EResource@Resources@@UAEPAXI@Z 00432680 f i  CIL library: CIL module
 0001:00031680       ??_GResource@Resources@@UAEPAXI@Z 00432680 f i render_win32.release:resource.obj
 0001:000316b0       ??1Resource@Resources@@UAE@XZ 004326b0 f   render_win32.release:resource.obj
 0001:00031780       ?Load@Resource@Resources@@UAE?AW4State@12@XZ 00432780 f   render_win32.release:resource.obj
 0001:00031870       ?Unload@Resource@Resources@@UAEXXZ 00432870 f   render_win32.release:resource.obj
 0001:000318c0       ?Save@Resource@Resources@@UAE_NXZ 004328c0 f   render_win32.release:resource.obj
 0001:00031940       ?SetLoader@Resource@Resources@@QAEXABV?$Ptr@VResourceLoader@Resources@@@@@Z 00432940 f   render_win32.release:resource.obj
 0001:000319e0       ?GetLoader@Resource@Resources@@QBEABV?$Ptr@VResourceLoader@Resources@@@@XZ 004329e0 f   render_win32.release:resource.obj
 0001:00031a00       ?SetSaver@Resource@Resources@@QAEXABV?$Ptr@VResourceSaver@Resources@@@@@Z 00432a00 f   render_win32.release:resource.obj
 0001:00031aa0       ?GetSaver@Resource@Resources@@QBEABV?$Ptr@VResourceSaver@Resources@@@@XZ 00432aa0 f   render_win32.release:resource.obj
 0001:00031ac0       ??0?$Ptr@VResourceLoader@Resources@@@@QAE@XZ 00432ac0 f i render_win32.release:resource.obj
 0001:00031ae0       ??1?$Ptr@VResourceLoader@Resources@@@@QAE@XZ 00432ae0 f i render_win32.release:resource.obj
 0001:00031b10       ??4?$Ptr@VResourceLoader@Resources@@@@QAEXPAVResourceLoader@Resources@@@Z 00432b10 f i render_win32.release:resource.obj
 0001:00031b70       ??4?$Ptr@VResourceLoader@Resources@@@@QAEXABV0@@Z 00432b70 f i render_win32.release:resource.obj
 0001:00031bd0       ??C?$Ptr@VResourceLoader@Resources@@@@QBEPAVResourceLoader@Resources@@XZ 00432bd0 f i render_win32.release:resource.obj
 0001:00031c10       ?isvalid@?$Ptr@VResourceLoader@Resources@@@@QBE_NXZ 00432c10 f i render_win32.release:resource.obj
 0001:00031c30       ??0?$Ptr@VResourceSaver@Resources@@@@QAE@XZ 00432c30 f i render_win32.release:resource.obj
 0001:00031c50       ??1?$Ptr@VResourceSaver@Resources@@@@QAE@XZ 00432c50 f i render_win32.release:resource.obj
 0001:00031c80       ??4?$Ptr@VResourceSaver@Resources@@@@QAEXPAVResourceSaver@Resources@@@Z 00432c80 f i render_win32.release:resource.obj
 0001:00031ce0       ??4?$Ptr@VResourceSaver@Resources@@@@QAEXABV0@@Z 00432ce0 f i render_win32.release:resource.obj
 0001:00031d40       ??C?$Ptr@VResourceSaver@Resources@@@@QBEPAVResourceSaver@Resources@@XZ 00432d40 f i render_win32.release:resource.obj
 0001:00031d80       ?isvalid@?$Ptr@VResourceSaver@Resources@@@@QBE_NXZ 00432d80 f i render_win32.release:resource.obj
 0001:00031da0       ??0?$Ptr@VResource@Resources@@@@QAE@PAVResource@Resources@@@Z 00432da0 f i render_win32.release:resource.obj
 0001:00031de0       ??1?$Ptr@VResource@Resources@@@@QAE@XZ 00432de0 f i render_win32.release:resource.obj
 0001:00031e10       ??2Texture@CoreGraphics@@SAPAXI@Z 00432e10 f i render_win32.release:texture.obj
 0001:00031e20       ??3Texture@CoreGraphics@@SAXPAX@Z 00432e20 f i render_win32.release:texture.obj
 0001:00031e40       ?GetRtti@Texture@CoreGraphics@@UBEPAVRtti@Core@@XZ 00432e40 f   render_win32.release:texture.obj
 0001:00031e50       ?FactoryCreator@Texture@CoreGraphics@@SAPAVRefCounted@Core@@XZ 00432e50 f   render_win32.release:texture.obj
 0001:00031e60       ?Create@Texture@CoreGraphics@@SAPAV12@XZ 00432e60 f   render_win32.release:texture.obj
 0001:00031ea0       ??0Texture@CoreGraphics@@QAE@XZ 00432ea0 f i render_win32.release:texture.obj
 0001:00031ec0       ??_ETexture@CoreGraphics@@UAEPAXI@Z 00432ec0 f i  CIL library: CIL module
 0001:00031ec0       ??_GTexture@CoreGraphics@@UAEPAXI@Z 00432ec0 f i render_win32.release:texture.obj
 0001:00031ef0       ??1Texture@CoreGraphics@@UAE@XZ 00432ef0 f i render_win32.release:texture.obj
 0001:00031f10       ?RegisterWithFactory@Texture@CoreGraphics@@SA_NXZ 00432f10 f   render_win32.release:texture.obj
 0001:00032010       ?maximize@float2@Math@@SA?AV12@ABV12@0@Z 00433010 f i render_win32.release:managedresource.obj
 0001:00032090       ??2ManagedResource@Resources@@SAPAXI@Z 00433090 f i render_win32.release:managedresource.obj
 0001:000320a0       ??3ManagedResource@Resources@@SAXPAX@Z 004330a0 f i render_win32.release:managedresource.obj
 0001:000320c0       ?GetRtti@ManagedResource@Resources@@UBEPAVRtti@Core@@XZ 004330c0 f   render_win32.release:managedresource.obj
 0001:000320d0       ?FactoryCreator@ManagedResource@Resources@@SAPAVRefCounted@Core@@XZ 004330d0 f   render_win32.release:managedresource.obj
 0001:000320e0       ?Create@ManagedResource@Resources@@SAPAV12@XZ 004330e0 f   render_win32.release:managedresource.obj
 0001:00032120       ?RegisterWithFactory@ManagedResource@Resources@@SA_NXZ 00433120 f   render_win32.release:managedresource.obj
 0001:00032220       ??0ManagedResource@Resources@@QAE@XZ 00433220 f   render_win32.release:managedresource.obj
 0001:000322b0       ??_GManagedResource@Resources@@UAEPAXI@Z 004332b0 f i render_win32.release:managedresource.obj
 0001:000322b0       ??_EManagedResource@Resources@@UAEPAXI@Z 004332b0 f i  CIL library: CIL module
 0001:000322e0       ??1ManagedResource@Resources@@UAE@XZ 004332e0 f   render_win32.release:managedresource.obj
 0001:00032320       ?ClearRenderStats@ManagedResource@Resources@@QAEXXZ 00433320 f   render_win32.release:managedresource.obj
 0001:00032360       ?UpdateRenderStats@ManagedResource@Resources@@QAEXM@Z 00433360 f   render_win32.release:managedresource.obj
 0001:000323a0       ?UpdateRenderStats@ManagedResource@Resources@@QAEXABVfloat2@Math@@@Z 004333a0 f   render_win32.release:managedresource.obj
 0001:00032450       ??0?$Ptr@VResource@Resources@@@@QAE@XZ 00433450 f i render_win32.release:managedresource.obj
 0001:00032470       ??2ManagedTexture@Resources@@SAPAXI@Z 00433470 f i render_win32.release:managedtexture.obj
 0001:00032480       ??3ManagedTexture@Resources@@SAXPAX@Z 00433480 f i render_win32.release:managedtexture.obj
 0001:000324a0       ?GetRtti@ManagedTexture@Resources@@UBEPAVRtti@Core@@XZ 004334a0 f   render_win32.release:managedtexture.obj
 0001:000324b0       ?FactoryCreator@ManagedTexture@Resources@@SAPAVRefCounted@Core@@XZ 004334b0 f   render_win32.release:managedtexture.obj
 0001:000324c0       ?Create@ManagedTexture@Resources@@SAPAV12@XZ 004334c0 f   render_win32.release:managedtexture.obj
 0001:00032500       ??0ManagedTexture@Resources@@QAE@XZ 00433500 f i render_win32.release:managedtexture.obj
 0001:00032520       ??_GManagedTexture@Resources@@UAEPAXI@Z 00433520 f i render_win32.release:managedtexture.obj
 0001:00032520       ??_EManagedTexture@Resources@@UAEPAXI@Z 00433520 f i  CIL library: CIL module
 0001:00032550       ??1ManagedTexture@Resources@@UAE@XZ 00433550 f i render_win32.release:managedtexture.obj
 0001:00032570       ?RegisterWithFactory@ManagedTexture@Resources@@SA_NXZ 00433570 f   render_win32.release:managedtexture.obj
 0001:00032670       ??2Mesh@CoreGraphics@@SAPAXI@Z 00433670 f i render_win32.release:mesh.obj
 0001:00032680       ??3Mesh@CoreGraphics@@SAXPAX@Z 00433680 f i render_win32.release:mesh.obj
 0001:000326a0       ?GetRtti@Mesh@CoreGraphics@@UBEPAVRtti@Core@@XZ 004336a0 f   render_win32.release:mesh.obj
 0001:000326b0       ?FactoryCreator@Mesh@CoreGraphics@@SAPAVRefCounted@Core@@XZ 004336b0 f   render_win32.release:mesh.obj
 0001:000326c0       ?Create@Mesh@CoreGraphics@@SAPAV12@XZ 004336c0 f   render_win32.release:mesh.obj
 0001:00032700       ??0Mesh@CoreGraphics@@QAE@XZ 00433700 f i render_win32.release:mesh.obj
 0001:00032720       ??_GMesh@CoreGraphics@@UAEPAXI@Z 00433720 f i render_win32.release:mesh.obj
 0001:00032720       ??_EMesh@CoreGraphics@@UAEPAXI@Z 00433720 f i  CIL library: CIL module
 0001:00032750       ??1Mesh@CoreGraphics@@UAE@XZ 00433750 f i render_win32.release:mesh.obj
 0001:00032770       ?RegisterWithFactory@Mesh@CoreGraphics@@SA_NXZ 00433770 f   render_win32.release:mesh.obj
 0001:00032870       ??2ManagedMesh@Resources@@SAPAXI@Z 00433870 f i render_win32.release:managedmesh.obj
 0001:00032880       ??3ManagedMesh@Resources@@SAXPAX@Z 00433880 f i render_win32.release:managedmesh.obj
 0001:000328a0       ?GetRtti@ManagedMesh@Resources@@UBEPAVRtti@Core@@XZ 004338a0 f   render_win32.release:managedmesh.obj
 0001:000328b0       ?FactoryCreator@ManagedMesh@Resources@@SAPAVRefCounted@Core@@XZ 004338b0 f   render_win32.release:managedmesh.obj
 0001:000328c0       ?Create@ManagedMesh@Resources@@SAPAV12@XZ 004338c0 f   render_win32.release:managedmesh.obj
 0001:00032900       ??0ManagedMesh@Resources@@QAE@XZ 00433900 f i render_win32.release:managedmesh.obj
 0001:00032920       ??_GManagedMesh@Resources@@UAEPAXI@Z 00433920 f i render_win32.release:managedmesh.obj
 0001:00032920       ??_EManagedMesh@Resources@@UAEPAXI@Z 00433920 f i  CIL library: CIL module
 0001:00032950       ??1ManagedMesh@Resources@@UAE@XZ 00433950 f i render_win32.release:managedmesh.obj
 0001:00032970       ?RegisterWithFactory@ManagedMesh@Resources@@SA_NXZ 00433970 f   render_win32.release:managedmesh.obj
 0001:00032a70       ??2ResourceLoader@Resources@@SAPAXI@Z 00433a70 f i render_win32.release:resourceloader.obj
 0001:00032a80       ??3ResourceLoader@Resources@@SAXPAX@Z 00433a80 f i render_win32.release:resourceloader.obj
 0001:00032aa0       ?SetState@ResourceLoader@Resources@@IAEXW4State@Resource@2@@Z 00433aa0 f i render_win32.release:resourceloader.obj
 0001:00032ac0       ?GetRtti@ResourceLoader@Resources@@UBEPAVRtti@Core@@XZ 00433ac0 f   render_win32.release:resourceloader.obj
 0001:00032ad0       ?FactoryCreator@ResourceLoader@Resources@@SAPAVRefCounted@Core@@XZ 00433ad0 f   render_win32.release:resourceloader.obj
 0001:00032ae0       ?Create@ResourceLoader@Resources@@SAPAV12@XZ 00433ae0 f   render_win32.release:resourceloader.obj
 0001:00032b20       ?RegisterWithFactory@ResourceLoader@Resources@@SA_NXZ 00433b20 f   render_win32.release:resourceloader.obj
 0001:00032c20       ??0ResourceLoader@Resources@@QAE@XZ 00433c20 f   render_win32.release:resourceloader.obj
 0001:00032c60       ??_EResourceLoader@Resources@@UAEPAXI@Z 00433c60 f i  CIL library: CIL module
 0001:00032c60       ??_GResourceLoader@Resources@@UAEPAXI@Z 00433c60 f i render_win32.release:resourceloader.obj
 0001:00032c90       ??1ResourceLoader@Resources@@UAE@XZ 00433c90 f   render_win32.release:resourceloader.obj
 0001:00032ce0       ?OnAttachToResource@ResourceLoader@Resources@@UAEXABV?$Ptr@VResource@Resources@@@@@Z 00433ce0 f   render_win32.release:resourceloader.obj
 0001:00032d20       ?OnRemoveFromResource@ResourceLoader@Resources@@UAEXXZ 00433d20 f   render_win32.release:resourceloader.obj
 0001:00032d80       ?IsAttachedToResource@ResourceLoader@Resources@@QBE_NXZ 00433d80 f   render_win32.release:resourceloader.obj
 0001:00032da0       ?GetResource@ResourceLoader@Resources@@QBEABV?$Ptr@VResource@Resources@@@@XZ 00433da0 f   render_win32.release:resourceloader.obj
 0001:00032dc0       ?CanLoadAsync@ResourceLoader@Resources@@UBE_NXZ 00433dc0 f   render_win32.release:resourceloader.obj
 0001:00032dd0       ?OnLoadRequested@ResourceLoader@Resources@@UAE_NXZ 00433dd0 f   render_win32.release:resourceloader.obj
 0001:00032de0       ?OnLoadCancelled@ResourceLoader@Resources@@UAEXXZ 00433de0 f   render_win32.release:resourceloader.obj
 0001:00032e00       ?OnPending@ResourceLoader@Resources@@UAE_NXZ 00433e00 f   render_win32.release:resourceloader.obj
 0001:00032e10       ?Reset@ResourceLoader@Resources@@UAEXXZ 00433e10 f   render_win32.release:resourceloader.obj
 0001:00032e40       ??4?$Ptr@VResource@Resources@@@@QAEXPAVResource@Resources@@@Z 00433e40 f i render_win32.release:resourceloader.obj
 0001:00032ea0       ??4?$Ptr@VResource@Resources@@@@QAEXABV0@@Z 00433ea0 f i render_win32.release:resourceloader.obj
 0001:00032f00       ?isvalid@?$Ptr@VResource@Resources@@@@QBE_NXZ 00433f00 f i render_win32.release:resourceloader.obj
 0001:00032f20       ??0StringAtom@Util@@QAE@ABV01@@Z 00433f20 f i render_win32.release:animresource.obj
 0001:00032f40       ??9StringAtom@Util@@QBE_NABV01@@Z 00433f40 f i render_win32.release:animresource.obj
 0001:00032f60       ??OStringAtom@Util@@QBE_NABV01@@Z 00433f60 f i render_win32.release:animresource.obj
 0001:00032f80       ??MStringAtom@Util@@QBE_NABV01@@Z 00433f80 f i render_win32.release:animresource.obj
 0001:00032fa0       ?GetKeySliceFirstKeyIndex@AnimClip@CoreAnimation@@QBEHXZ 00433fa0 f i render_win32.release:animresource.obj
 0001:00032fc0       ?GetKeySliceByteSize@AnimClip@CoreAnimation@@QBEHXZ 00433fc0 f i render_win32.release:animresource.obj
 0001:00032fe0       ?AreKeySliceValuesValid@AnimClip@CoreAnimation@@QBE_NXZ 00433fe0 f i render_win32.release:animresource.obj
 0001:00033000       ?GetName@AnimClip@CoreAnimation@@QBEABVStringAtom@Util@@XZ 00434000 f i render_win32.release:animresource.obj
 0001:00033010       ?GetKeyStride@AnimClip@CoreAnimation@@QBEHXZ 00434010 f i render_win32.release:animresource.obj
 0001:00033030       ?GetKeyBufferPointer@AnimKeyBuffer@CoreAnimation@@QBEPAVfloat4@Math@@XZ 00434030 f i render_win32.release:animresource.obj
 0001:00033050       ??2AnimResource@CoreAnimation@@SAPAXI@Z 00434050 f i render_win32.release:animresource.obj
 0001:00033060       ??3AnimResource@CoreAnimation@@SAXPAX@Z 00434060 f i render_win32.release:animresource.obj
 0001:00033080       ?GetRtti@AnimResource@CoreAnimation@@UBEPAVRtti@Core@@XZ 00434080 f   render_win32.release:animresource.obj
 0001:00033090       ?FactoryCreator@AnimResource@CoreAnimation@@SAPAVRefCounted@Core@@XZ 00434090 f   render_win32.release:animresource.obj
 0001:000330a0       ?Create@AnimResource@CoreAnimation@@SAPAV12@XZ 004340a0 f   render_win32.release:animresource.obj
 0001:000330e0       ?RegisterWithFactory@AnimResource@CoreAnimation@@SA_NXZ 004340e0 f   render_win32.release:animresource.obj
 0001:000331e0       ??0AnimResource@CoreAnimation@@QAE@XZ 004341e0 f   render_win32.release:animresource.obj
 0001:00033220       ??_GAnimResource@CoreAnimation@@UAEPAXI@Z 00434220 f i render_win32.release:animresource.obj
 0001:00033220       ??_EAnimResource@CoreAnimation@@UAEPAXI@Z 00434220 f i  CIL library: CIL module
 0001:00033250       ??1?$Dictionary@VStringAtom@Util@@H@Util@@QAE@XZ 00434250 f i render_win32.release:animresource.obj
 0001:00033270       ??1AnimResource@CoreAnimation@@UAE@XZ 00434270 f   render_win32.release:animresource.obj
 0001:000332e0       ?Unload@AnimResource@CoreAnimation@@UAEXXZ 004342e0 f   render_win32.release:animresource.obj
 0001:00033340       ?SetupKeyBuffer@AnimResource@CoreAnimation@@AAEABV?$Ptr@VAnimKeyBuffer@CoreAnimation@@@@H@Z 00434340 f   render_win32.release:animresource.obj
 0001:000333a0       ?BeginSetupClips@AnimResource@CoreAnimation@@AAEXH@Z 004343a0 f   render_win32.release:animresource.obj
 0001:00033410       ?Clip@AnimResource@CoreAnimation@@AAEAAVAnimClip@2@H@Z 00434410 f   render_win32.release:animresource.obj
 0001:00033430       ?EndSetupClips@AnimResource@CoreAnimation@@AAEXXZ 00434430 f   render_win32.release:animresource.obj
 0001:000334b0       ?BuildClipIndexMap@AnimResource@CoreAnimation@@AAEXXZ 004344b0 f   render_win32.release:animresource.obj
 0001:000335b0       ?ComputeKeySlicePointerAndSize@AnimResource@CoreAnimation@@QBEPBVfloat4@Math@@HHAAH@Z 004345b0 f   render_win32.release:animresource.obj
 0001:00033670       ??1?$Array@V?$KeyValuePair@VStringAtom@Util@@H@Util@@@Util@@QAE@XZ 00434670 f i render_win32.release:animresource.obj
 0001:00033690       ??0?$Dictionary@VStringAtom@Util@@H@Util@@QAE@XZ 00434690 f i render_win32.release:animresource.obj
 0001:000336b0       ?Clear@?$Dictionary@VStringAtom@Util@@H@Util@@QAEXXZ 004346b0 f i render_win32.release:animresource.obj
 0001:000336f0       ?IsEmpty@?$Dictionary@VStringAtom@Util@@H@Util@@QBE_NXZ 004346f0 f i render_win32.release:animresource.obj
 0001:00033710       ?Reserve@?$Dictionary@VStringAtom@Util@@H@Util@@QAEXH@Z 00434710 f i render_win32.release:animresource.obj
 0001:00033730       ?BeginBulkAdd@?$Dictionary@VStringAtom@Util@@H@Util@@QAEXXZ 00434730 f i render_win32.release:animresource.obj
 0001:00033770       ?Add@?$Dictionary@VStringAtom@Util@@H@Util@@QAEXABVStringAtom@2@ABH@Z 00434770 f i render_win32.release:animresource.obj
 0001:000337c0       ?EndBulkAdd@?$Dictionary@VStringAtom@Util@@H@Util@@QAEXXZ 004347c0 f i render_win32.release:animresource.obj
 0001:00033800       ??0?$FixedArray@VAnimClip@CoreAnimation@@@Util@@QAE@XZ 00434800 f i render_win32.release:animresource.obj
 0001:00033830       ??1?$FixedArray@VAnimClip@CoreAnimation@@@Util@@QAE@XZ 00434830 f i render_win32.release:animresource.obj
 0001:00033850       ??A?$FixedArray@VAnimClip@CoreAnimation@@@Util@@QBEAAVAnimClip@CoreAnimation@@H@Z 00434850 f i render_win32.release:animresource.obj
 0001:000338a0       ?SetSize@?$FixedArray@VAnimClip@CoreAnimation@@@Util@@QAEXH@Z 004348a0 f i render_win32.release:animresource.obj
 0001:000338d0       ?Size@?$FixedArray@VAnimClip@CoreAnimation@@@Util@@QBEHXZ 004348d0 f i render_win32.release:animresource.obj
 0001:000338e0       ?IsEmpty@?$FixedArray@VAnimClip@CoreAnimation@@@Util@@QBE_NXZ 004348e0 f i render_win32.release:animresource.obj
 0001:00033900       ?Clear@?$FixedArray@VAnimClip@CoreAnimation@@@Util@@QAEXXZ 00434900 f i render_win32.release:animresource.obj
 0001:00033920       ??0?$Ptr@VAnimKeyBuffer@CoreAnimation@@@@QAE@XZ 00434920 f i render_win32.release:animresource.obj
 0001:00033940       ??1?$Ptr@VAnimKeyBuffer@CoreAnimation@@@@QAE@XZ 00434940 f i render_win32.release:animresource.obj
 0001:00033970       ??4?$Ptr@VAnimKeyBuffer@CoreAnimation@@@@QAEXPAVAnimKeyBuffer@CoreAnimation@@@Z 00434970 f i render_win32.release:animresource.obj
 0001:000339d0       ??C?$Ptr@VAnimKeyBuffer@CoreAnimation@@@@QBEPAVAnimKeyBuffer@CoreAnimation@@XZ 004349d0 f i render_win32.release:animresource.obj
 0001:00033a10       ?isvalid@?$Ptr@VAnimKeyBuffer@CoreAnimation@@@@QBE_NXZ 00434a10 f i render_win32.release:animresource.obj
 0001:00033a30       ??0?$Array@V?$KeyValuePair@VStringAtom@Util@@H@Util@@@Util@@QAE@XZ 00434a30 f i render_win32.release:animresource.obj
 0001:00033a70       ?Append@?$Array@V?$KeyValuePair@VStringAtom@Util@@H@Util@@@Util@@QAEXABV?$KeyValuePair@VStringAtom@Util@@H@2@@Z 00434a70 f i render_win32.release:animresource.obj
 0001:00033af0       ?Reserve@?$Array@V?$KeyValuePair@VStringAtom@Util@@H@Util@@@Util@@QAEXH@Z 00434af0 f i render_win32.release:animresource.obj
 0001:00033b40       ?Size@?$Array@V?$KeyValuePair@VStringAtom@Util@@H@Util@@@Util@@QBEHXZ 00434b40 f i render_win32.release:animresource.obj
 0001:00033b60       ?InsertSorted@?$Array@V?$KeyValuePair@VStringAtom@Util@@H@Util@@@Util@@QAEHABV?$KeyValuePair@VStringAtom@Util@@H@2@@Z 00434b60 f i render_win32.release:animresource.obj
 0001:00033dd0       ?Clear@?$Array@V?$KeyValuePair@VStringAtom@Util@@H@Util@@@Util@@QAEXXZ 00434dd0 f i render_win32.release:animresource.obj
 0001:00033e20       ?Sort@?$Array@V?$KeyValuePair@VStringAtom@Util@@H@Util@@@Util@@QAEXXZ 00434e20 f i render_win32.release:animresource.obj
 0001:00033e90       ?Delete@?$Array@V?$KeyValuePair@VStringAtom@Util@@H@Util@@@Util@@AAEXXZ 00434e90 f i render_win32.release:animresource.obj
 0001:00033ef0       ??0?$KeyValuePair@VStringAtom@Util@@H@Util@@QAE@ABVStringAtom@1@ABH@Z 00434ef0 f i render_win32.release:animresource.obj
 0001:00033f20       ?Delete@?$FixedArray@VAnimClip@CoreAnimation@@@Util@@AAEXXZ 00434f20 f i render_win32.release:animresource.obj
 0001:00033f80       ?Alloc@?$FixedArray@VAnimClip@CoreAnimation@@@Util@@AAEXH@Z 00434f80 f i render_win32.release:animresource.obj
 0001:00034050       ??_EAnimClip@CoreAnimation@@QAEPAXI@Z 00435050 f i render_win32.release:animresource.obj
 0001:00034120       ??1AnimClip@CoreAnimation@@QAE@XZ 00435120 f i render_win32.release:animresource.obj
 0001:00034150       ?Insert@?$Array@V?$KeyValuePair@VStringAtom@Util@@H@Util@@@Util@@QAEXHABV?$KeyValuePair@VStringAtom@Util@@H@2@@Z 00435150 f i render_win32.release:animresource.obj
 0001:000341c0       ?InsertAtEndOfIdenticalRange@?$Array@V?$KeyValuePair@VStringAtom@Util@@H@Util@@@Util@@QAEHHABV?$KeyValuePair@VStringAtom@Util@@H@2@@Z 004351c0 f i render_win32.release:animresource.obj
 0001:00034240       ?Begin@?$Array@V?$KeyValuePair@VStringAtom@Util@@H@Util@@@Util@@QBEPAV?$KeyValuePair@VStringAtom@Util@@H@2@XZ 00435240 f i render_win32.release:animresource.obj
 0001:00034260       ?End@?$Array@V?$KeyValuePair@VStringAtom@Util@@H@Util@@@Util@@QBEPAV?$KeyValuePair@VStringAtom@Util@@H@2@XZ 00435260 f i render_win32.release:animresource.obj
 0001:00034280       ?Destroy@?$Array@V?$KeyValuePair@VStringAtom@Util@@H@Util@@@Util@@AAEXPAV?$KeyValuePair@VStringAtom@Util@@H@2@@Z 00435280 f i render_win32.release:animresource.obj
 0001:00034290       ?Grow@?$Array@V?$KeyValuePair@VStringAtom@Util@@H@Util@@@Util@@AAEXXZ 00435290 f i render_win32.release:animresource.obj
 0001:00034310       ?GrowTo@?$Array@V?$KeyValuePair@VStringAtom@Util@@H@Util@@@Util@@AAEXH@Z 00435310 f i render_win32.release:animresource.obj
 0001:00034400       ??4?$KeyValuePair@VStringAtom@Util@@H@Util@@QAEXABV01@@Z 00435400 f i render_win32.release:animresource.obj
 0001:00034430       ??9?$KeyValuePair@VStringAtom@Util@@H@Util@@QBE_NABV01@@Z 00435430 f i render_win32.release:animresource.obj
 0001:00034450       ??O?$KeyValuePair@VStringAtom@Util@@H@Util@@QBE_NABV01@@Z 00435450 f i render_win32.release:animresource.obj
 0001:00034470       ??M?$KeyValuePair@VStringAtom@Util@@H@Util@@QBE_NABV01@@Z 00435470 f i render_win32.release:animresource.obj
 0001:00034490       ??$sort@PAV?$KeyValuePair@VStringAtom@Util@@H@Util@@@std@@YAXPAV?$KeyValuePair@VStringAtom@Util@@H@Util@@0@Z 00435490 f i render_win32.release:animresource.obj
 0001:000344c0       ??1?$FixedArray@VAnimCurve@CoreAnimation@@@Util@@QAE@XZ 004354c0 f i render_win32.release:animresource.obj
 0001:000344e0       ??1?$Array@VAnimEvent@CoreAnimation@@@Util@@QAE@XZ 004354e0 f i render_win32.release:animresource.obj
 0001:00034500       ?Move@?$Array@V?$KeyValuePair@VStringAtom@Util@@H@Util@@@Util@@AAEXHH@Z 00435500 f i render_win32.release:animresource.obj
 0001:00034690       ??0?$KeyValuePair@VStringAtom@Util@@H@Util@@QAE@XZ 00435690 f i render_win32.release:animresource.obj
 0001:000346b0       ??$_Checked_base@PAV?$KeyValuePair@VStringAtom@Util@@H@Util@@@std@@YAPAV?$KeyValuePair@VStringAtom@Util@@H@Util@@AAPAV12@@Z 004356b0 f i render_win32.release:animresource.obj
 0001:000346d0       ??$_Sort@PAV?$KeyValuePair@VStringAtom@Util@@H@Util@@H@std@@YAXPAV?$KeyValuePair@VStringAtom@Util@@H@Util@@0H@Z 004356d0 f i render_win32.release:animresource.obj
 0001:00034800       ?Delete@?$FixedArray@VAnimCurve@CoreAnimation@@@Util@@AAEXXZ 00435800 f i render_win32.release:animresource.obj
 0001:00034840       ?Delete@?$Array@VAnimEvent@CoreAnimation@@@Util@@AAEXXZ 00435840 f i render_win32.release:animresource.obj
 0001:000348a0       ??$_Checked_base@PAV?$KeyValuePair@VStringAtom@Util@@H@Util@@@std@@YAPAV?$KeyValuePair@VStringAtom@Util@@H@Util@@AAPAV12@U_Unchanged_checked_iterator_base_type_tag@0@@Z 004358a0 f i render_win32.release:animresource.obj
 0001:000348b0       ??$_Unguarded_partition@PAV?$KeyValuePair@VStringAtom@Util@@H@Util@@@std@@YA?AU?$pair@PAV?$KeyValuePair@VStringAtom@Util@@H@Util@@PAV12@@0@PAV?$KeyValuePair@VStringAtom@Util@@H@Util@@0@Z 004358b0 f i render_win32.release:animresource.obj
 0001:00034c40       ??$make_heap@PAV?$KeyValuePair@VStringAtom@Util@@H@Util@@@std@@YAXPAV?$KeyValuePair@VStringAtom@Util@@H@Util@@0@Z 00435c40 f i render_win32.release:animresource.obj
 0001:00034c80       ??$sort_heap@PAV?$KeyValuePair@VStringAtom@Util@@H@Util@@@std@@YAXPAV?$KeyValuePair@VStringAtom@Util@@H@Util@@0@Z 00435c80 f i render_win32.release:animresource.obj
 0001:00034ca0       ??$_Insertion_sort@PAV?$KeyValuePair@VStringAtom@Util@@H@Util@@@std@@YAXPAV?$KeyValuePair@VStringAtom@Util@@H@Util@@0@Z 00435ca0 f i render_win32.release:animresource.obj
 0001:00034cc0       ??0?$pair@PAV?$KeyValuePair@VStringAtom@Util@@H@Util@@PAV12@@std@@QAE@ABQAV?$KeyValuePair@VStringAtom@Util@@H@Util@@0@Z 00435cc0 f i render_win32.release:animresource.obj
 0001:00034cf0       ??$_Median@PAV?$KeyValuePair@VStringAtom@Util@@H@Util@@@std@@YAXPAV?$KeyValuePair@VStringAtom@Util@@H@Util@@00@Z 00435cf0 f i render_win32.release:animresource.obj
 0001:00034dd0       ??$iter_swap@PAV?$KeyValuePair@VStringAtom@Util@@H@Util@@PAV12@@std@@YAXPAV?$KeyValuePair@VStringAtom@Util@@H@Util@@0@Z 00435dd0 f i render_win32.release:animresource.obj
 0001:00034e10       ??$_Dist_type@PAV?$KeyValuePair@VStringAtom@Util@@H@Util@@@std@@YAPAHPAV?$KeyValuePair@VStringAtom@Util@@H@Util@@@Z 00435e10 f i render_win32.release:animresource.obj
 0001:00034e20       ??$_Val_type@PAV?$KeyValuePair@VStringAtom@Util@@H@Util@@@std@@YAPAV?$KeyValuePair@VStringAtom@Util@@H@Util@@PAV12@@Z 00435e20 f i render_win32.release:animresource.obj
 0001:00034e30       ??$_Make_heap@PAV?$KeyValuePair@VStringAtom@Util@@H@Util@@HV12@@std@@YAXPAV?$KeyValuePair@VStringAtom@Util@@H@Util@@0PAH0@Z 00435e30 f i render_win32.release:animresource.obj
 0001:00034e90       ??$_Sort_heap@PAV?$KeyValuePair@VStringAtom@Util@@H@Util@@@std@@YAXPAV?$KeyValuePair@VStringAtom@Util@@H@Util@@0@Z 00435e90 f i render_win32.release:animresource.obj
 0001:00034ef0       ??$_Insertion_sort1@PAV?$KeyValuePair@VStringAtom@Util@@H@Util@@V12@@std@@YAXPAV?$KeyValuePair@VStringAtom@Util@@H@Util@@00@Z 00435ef0 f i render_win32.release:animresource.obj
 0001:00034fc0       ??$_Med3@PAV?$KeyValuePair@VStringAtom@Util@@H@Util@@@std@@YAXPAV?$KeyValuePair@VStringAtom@Util@@H@Util@@00@Z 00435fc0 f i render_win32.release:animresource.obj
 0001:00035090       ??$swap@V?$KeyValuePair@VStringAtom@Util@@H@Util@@@std@@YAXAAV?$KeyValuePair@VStringAtom@Util@@H@Util@@0@Z 00436090 f i render_win32.release:animresource.obj
 0001:000350d0       ??$_Adjust_heap@PAV?$KeyValuePair@VStringAtom@Util@@H@Util@@HV12@@std@@YAXPAV?$KeyValuePair@VStringAtom@Util@@H@Util@@HHV12@@Z 004360d0 f i render_win32.release:animresource.obj
 0001:000351a0       ??0?$KeyValuePair@VStringAtom@Util@@H@Util@@QAE@ABV01@@Z 004361a0 f i render_win32.release:animresource.obj
 0001:000351d0       ??$pop_heap@PAV?$KeyValuePair@VStringAtom@Util@@H@Util@@@std@@YAXPAV?$KeyValuePair@VStringAtom@Util@@H@Util@@0@Z 004361d0 f i render_win32.release:animresource.obj
 0001:00035200       ??$unchecked_copy_backward@PAV?$KeyValuePair@VStringAtom@Util@@H@Util@@PAV12@@stdext@@YAPAV?$KeyValuePair@VStringAtom@Util@@H@Util@@PAV12@00@Z 00436200 f i render_win32.release:animresource.obj
 0001:000352a0       ??$_Push_heap@PAV?$KeyValuePair@VStringAtom@Util@@H@Util@@HV12@@std@@YAXPAV?$KeyValuePair@VStringAtom@Util@@H@Util@@HHV12@@Z 004362a0 f i render_win32.release:animresource.obj
 0001:00035320       ??$_Pop_heap_0@PAV?$KeyValuePair@VStringAtom@Util@@H@Util@@V12@@std@@YAXPAV?$KeyValuePair@VStringAtom@Util@@H@Util@@00@Z 00436320 f i render_win32.release:animresource.obj
 0001:00035380       ??$_Iter_random@PAV?$KeyValuePair@VStringAtom@Util@@H@Util@@PAV12@@std@@YA?AUrandom_access_iterator_tag@0@ABQAV?$KeyValuePair@VStringAtom@Util@@H@Util@@0@Z 00436380 f i render_win32.release:animresource.obj
 0001:00035390       ??$_Ptr_cat@PAV?$KeyValuePair@VStringAtom@Util@@H@Util@@PAV12@@std@@YA?AU_Nonscalar_ptr_iterator_tag@0@AAPAV?$KeyValuePair@VStringAtom@Util@@H@Util@@0@Z 00436390 f i render_win32.release:animresource.obj
 0001:000353a0       ??$_Copy_backward_opt@PAV?$KeyValuePair@VStringAtom@Util@@H@Util@@PAV12@@std@@YAPAV?$KeyValuePair@VStringAtom@Util@@H@Util@@PAV12@00Urandom_access_iterator_tag@0@U_Nonscalar_ptr_iterator_tag@0@U_Range_checked_iterator_tag@0@@Z 004363a0 f i render_win32.release:animresource.obj
 0001:00035410       ??$_Pop_heap@PAV?$KeyValuePair@VStringAtom@Util@@H@Util@@HV12@@std@@YAXPAV?$KeyValuePair@VStringAtom@Util@@H@Util@@00V12@PAH@Z 00436410 f i render_win32.release:animresource.obj
 0001:00035450       ??$_Copy_backward_opt@PAV?$KeyValuePair@VStringAtom@Util@@H@Util@@PAV12@Uforward_iterator_tag@std@@@std@@YAPAV?$KeyValuePair@VStringAtom@Util@@H@Util@@PAV12@00Uforward_iterator_tag@0@U_Nonscalar_ptr_iterator_tag@0@U_Range_checked_iterator_tag@0@@Z 00436450 f i render_win32.release:animresource.obj
 0001:00035480       ??2ManagedAnimResource@CoreAnimation@@SAPAXI@Z 00436480 f i render_win32.release:managedanimresource.obj
 0001:00035490       ??3ManagedAnimResource@CoreAnimation@@SAXPAX@Z 00436490 f i render_win32.release:managedanimresource.obj
 0001:000354b0       ?GetRtti@ManagedAnimResource@CoreAnimation@@UBEPAVRtti@Core@@XZ 004364b0 f   render_win32.release:managedanimresource.obj
 0001:000354c0       ?FactoryCreator@ManagedAnimResource@CoreAnimation@@SAPAVRefCounted@Core@@XZ 004364c0 f   render_win32.release:managedanimresource.obj
 0001:000354d0       ?Create@ManagedAnimResource@CoreAnimation@@SAPAV12@XZ 004364d0 f   render_win32.release:managedanimresource.obj
 0001:00035510       ??0ManagedAnimResource@CoreAnimation@@QAE@XZ 00436510 f i render_win32.release:managedanimresource.obj
 0001:00035530       ??_EManagedAnimResource@CoreAnimation@@UAEPAXI@Z 00436530 f i  CIL library: CIL module
 0001:00035530       ??_GManagedAnimResource@CoreAnimation@@UAEPAXI@Z 00436530 f i render_win32.release:managedanimresource.obj
 0001:00035560       ??1ManagedAnimResource@CoreAnimation@@UAE@XZ 00436560 f i render_win32.release:managedanimresource.obj
 0001:00035580       ?RegisterWithFactory@ManagedAnimResource@CoreAnimation@@SA_NXZ 00436580 f   render_win32.release:managedanimresource.obj
 0001:00035680       ?storeu@float4@Math@@QBEXPAM@Z 00436680 f i render_win32.release:animatornodeinstance.obj
 0001:000356b0       ??Hfloat4@Math@@QBE?AV01@ABV01@@Z 004366b0 f i render_win32.release:animatornodeinstance.obj
 0001:00035710       ??Gfloat4@Math@@QBE?AV01@ABV01@@Z 00436710 f i render_win32.release:animatornodeinstance.obj
 0001:00035770       ?x@float4@Math@@QBEMXZ     00436770 f i render_win32.release:animatornodeinstance.obj
 0001:000357a0       ?y@float4@Math@@QBEMXZ     004367a0 f i render_win32.release:animatornodeinstance.obj
 0001:000357f0       ?z@float4@Math@@QBEMXZ     004367f0 f i render_win32.release:animatornodeinstance.obj
 0001:00035840       ?multiply@float4@Math@@SA?AV12@ABV12@0@Z 00436840 f i render_win32.release:animatornodeinstance.obj
 0001:00035890       ?unpack_y@float4@Math@@SAMT__m128@@@Z 00436890 f i render_win32.release:animatornodeinstance.obj
 0001:000358d0       ?unpack_z@float4@Math@@SAMT__m128@@@Z 004368d0 f i render_win32.release:animatornodeinstance.obj
 0001:00035910       ??0vector@Math@@QAE@XZ     00436910 f i render_win32.release:animatornodeinstance.obj
 0001:000359a0       ??Gvector@Math@@QBE?AV01@ABV01@@Z 004369a0 f i render_win32.release:animatornodeinstance.obj
 0001:00035a00       ??Dvector@Math@@QBE?AV01@M@Z 00436a00 f i render_win32.release:animatornodeinstance.obj
 0001:00035a60       ??0point@Math@@QAE@ABVfloat4@1@@Z 00436a60 f i render_win32.release:animatornodeinstance.obj
 0001:00035b50       ??0quaternion@Math@@QAE@ABVfloat4@1@@Z 00436b50 f i render_win32.release:animatornodeinstance.obj
 0001:00035b80       ??0quaternion@Math@@QAE@T__m128@@@Z 00436b80 f i render_win32.release:animatornodeinstance.obj
 0001:00035bb0       ??4quaternion@Math@@QAEXABV01@@Z 00436bb0 f i render_win32.release:animatornodeinstance.obj
 0001:00035bd0       ?rotationyawpitchroll@quaternion@Math@@SA?AV12@MMM@Z 00436bd0 f i render_win32.release:animatornodeinstance.obj
 0001:00036450       ?set_position@matrix44@Math@@QAEXABVfloat4@2@@Z 00437450 f i render_win32.release:animatornodeinstance.obj
 0001:00036480       ?scale@matrix44@Math@@QAEXABVfloat4@2@@Z 00437480 f i render_win32.release:animatornodeinstance.obj
 0001:000367c0       ?rotationyawpitchroll@matrix44@Math@@SA?AV12@MMM@Z 004377c0 f i render_win32.release:animatornodeinstance.obj
 0001:00036810       ?IsA@RefCounted@Core@@QBE_NABVRtti@2@@Z 00437810 f i render_win32.release:animatornodeinstance.obj
 0001:00036840       ?SecondsToTicks@Timing@@YAHN@Z 00437840 f i render_win32.release:animatornodeinstance.obj
 0001:00036860       ?GetType@Variant@Util@@QBE?AW4Type@12@XZ 00437860 f i render_win32.release:animatornodeinstance.obj
 0001:00036870       ??4Variant@Util@@QAEXH@Z   00437870 f i render_win32.release:animatornodeinstance.obj
 0001:000368a0       ??4Variant@Util@@QAEXM@Z   004378a0 f i render_win32.release:animatornodeinstance.obj
 0001:000368d0       ??4Variant@Util@@QAEXABVfloat4@Math@@@Z 004378d0 f i render_win32.release:animatornodeinstance.obj
 0001:00036910       ??4Variant@Util@@QAEXABVmatrix44@Math@@@Z 00437910 f i render_win32.release:animatornodeinstance.obj
 0001:000369d0       ?SetInt@ShaderVariableInstanceBase@Base@@QAEXH@Z 004379d0 f i render_win32.release:animatornodeinstance.obj
 0001:00036a30       ?SetFloat@ShaderVariableInstanceBase@Base@@QAEXM@Z 00437a30 f i render_win32.release:animatornodeinstance.obj
 0001:00036a90       ?SetFloat4@ShaderVariableInstanceBase@Base@@QAEXABVfloat4@Math@@@Z 00437a90 f i render_win32.release:animatornodeinstance.obj
 0001:00036b00       ?SetMatrix@ShaderVariableInstanceBase@Base@@QAEXABVmatrix44@Math@@@Z 00437b00 f i render_win32.release:animatornodeinstance.obj
 0001:00036b50       ??2AnimatorNodeInstance@Models@@SAPAXI@Z 00437b50 f i render_win32.release:animatornodeinstance.obj
 0001:00036b60       ??3AnimatorNodeInstance@Models@@SAXPAX@Z 00437b60 f i render_win32.release:animatornodeinstance.obj
 0001:00036b80       ?OverwriteAnimationTime@AnimatorNodeInstance@Models@@UAEXN@Z 00437b80 f i render_win32.release:animatornodeinstance.obj
 0001:00036ba0       ?setposition@transform44@Math@@QAEXABVpoint@2@@Z 00437ba0 f i render_win32.release:animatornodeinstance.obj
 0001:00036bd0       ?setrotate@transform44@Math@@QAEXABVquaternion@2@@Z 00437bd0 f i render_win32.release:animatornodeinstance.obj
 0001:00036c00       ?setscale@transform44@Math@@QAEXABVvector@2@@Z 00437c00 f i render_win32.release:animatornodeinstance.obj
 0001:00036c30       ?SetPosition@TransformNodeInstance@Models@@QAEXABVpoint@Math@@@Z 00437c30 f i render_win32.release:animatornodeinstance.obj
 0001:00036c70       ?SetRotate@TransformNodeInstance@Models@@QAEXABVquaternion@Math@@@Z 00437c70 f i render_win32.release:animatornodeinstance.obj
 0001:00036cb0       ?SetScale@TransformNodeInstance@Models@@QAEXABVvector@Math@@@Z 00437cb0 f i render_win32.release:animatornodeinstance.obj
 0001:00036cf0       ?GetLoadedResource@ManagedResource@Resources@@QBEABV?$Ptr@VResource@Resources@@@@XZ 00437cf0 f i render_win32.release:animatornodeinstance.obj
 0001:00036d20       ?GetStartTime@AnimClip@CoreAnimation@@QBEHXZ 00437d20 f i render_win32.release:animatornodeinstance.obj
 0001:00036d40       ?GetClipByIndex@AnimResource@CoreAnimation@@QBEABVAnimClip@2@H@Z 00437d40 f i render_win32.release:animatornodeinstance.obj
 0001:00036d60       ?GetAnimResource@ManagedAnimResource@CoreAnimation@@QBEABV?$Ptr@VAnimResource@CoreAnimation@@@@XZ 00437d60 f i render_win32.release:animatornodeinstance.obj
 0001:00036da0       ?GetLoopType@AnimatorNode@Models@@QBEAAW4Type@AnimLoopType@2@H@Z 00437da0 f i render_win32.release:animatornodeinstance.obj
 0001:00036dd0       ?GetShaderVariableSemantic@AnimatorNode@Models@@QBEABVStringAtom@Util@@H@Z 00437dd0 f i render_win32.release:animatornodeinstance.obj
 0001:00036e00       ?GetAnimationGroup@AnimatorNode@Models@@QAEHH@Z 00437e00 f i render_win32.release:animatornodeinstance.obj
 0001:00036e30       ?GetManagedAnimResource@AnimatorNode@Models@@QAEAAV?$Ptr@VManagedAnimResource@CoreAnimation@@@@H@Z 00437e30 f i render_win32.release:animatornodeinstance.obj
 0001:00036e60       ?GetFloat4KeyArray@AnimatorNode@Models@@QAEAAV?$AnimKeyArray@V?$AnimKey@Vfloat4@Math@@@Models@@@2@H@Z 00437e60 f i render_win32.release:animatornodeinstance.obj
 0001:00036e90       ?GetFloatKeyArray@AnimatorNode@Models@@QAEAAV?$AnimKeyArray@V?$AnimKey@M@Models@@@2@H@Z 00437e90 f i render_win32.release:animatornodeinstance.obj
 0001:00036ec0       ?GetIntKeyArray@AnimatorNode@Models@@QAEAAV?$AnimKeyArray@V?$AnimKey@H@Models@@@2@H@Z 00437ec0 f i render_win32.release:animatornodeinstance.obj
 0001:00036ef0       ?GetAnimationNodeType@AnimatorNode@Models@@QAE?AW4NodeType@12@H@Z 00437ef0 f i render_win32.release:animatornodeinstance.obj
 0001:00036f20       ?GetAllAnimatedNodesPaths@AnimatorNode@Models@@QAE?AV?$Array@VString@Util@@@Util@@H@Z 00437f20 f i render_win32.release:animatornodeinstance.obj
 0001:00036f50       ?GetPosArray@AnimatorNode@Models@@QAEAAV?$AnimKeyArray@V?$AnimKey@Vvector@Math@@@Models@@@2@H@Z 00437f50 f i render_win32.release:animatornodeinstance.obj
 0001:00036f80       ?GetEulerArray@AnimatorNode@Models@@QAEAAV?$AnimKeyArray@V?$AnimKey@Vvector@Math@@@Models@@@2@H@Z 00437f80 f i render_win32.release:animatornodeinstance.obj
 0001:00036fb0       ?GetScaleArray@AnimatorNode@Models@@QAEAAV?$AnimKeyArray@V?$AnimKey@Vvector@Math@@@Models@@@2@H@Z 00437fb0 f i render_win32.release:animatornodeinstance.obj
 0001:00036fe0       ?GetNumAnimSections@AnimatorNode@Models@@QBEHXZ 00437fe0 f i render_win32.release:animatornodeinstance.obj
 0001:00037000       ?GetNumSamples@AnimSampleBuffer@CoreAnimation@@QBEHXZ 00438000 f i render_win32.release:animatornodeinstance.obj
 0001:00037020       ?GetSamplesPointer@AnimSampleBuffer@CoreAnimation@@QBEPAVfloat4@Math@@XZ 00438020 f i render_win32.release:animatornodeinstance.obj
 0001:00037040       ?GetRtti@AnimatorNodeInstance@Models@@UBEPAVRtti@Core@@XZ 00438040 f   render_win32.release:animatornodeinstance.obj
 0001:00037050       ?FactoryCreator@AnimatorNodeInstance@Models@@SAPAVRefCounted@Core@@XZ 00438050 f   render_win32.release:animatornodeinstance.obj
 0001:00037060       ?Create@AnimatorNodeInstance@Models@@SAPAV12@XZ 00438060 f   render_win32.release:animatornodeinstance.obj
 0001:000370a0       ?RegisterWithFactory@AnimatorNodeInstance@Models@@SA_NXZ 004380a0 f   render_win32.release:animatornodeinstance.obj
 0001:000371a0       ??0AnimatorNodeInstance@Models@@QAE@XZ 004381a0 f   render_win32.release:animatornodeinstance.obj
 0001:000371f0       ??_EAnimatorNodeInstance@Models@@UAEPAXI@Z 004381f0 f i  CIL library: CIL module
 0001:000371f0       ??_GAnimatorNodeInstance@Models@@UAEPAXI@Z 004381f0 f i render_win32.release:animatornodeinstance.obj
 0001:00037220       ??1AnimatorNodeInstance@Models@@UAE@XZ 00438220 f   render_win32.release:animatornodeinstance.obj
 0001:00037250       ?Setup@AnimatorNodeInstance@Models@@UAEXABV?$Ptr@VModelInstance@Models@@@@ABV?$Ptr@VModelNode@Models@@@@ABV?$Ptr@VModelNodeInstance@Models@@@@@Z 00438250 f   render_win32.release:animatornodeinstance.obj
 0001:00037550       ??0AnimatedNode@AnimatorNodeInstance@Models@@QAE@XZ 00438550 f i render_win32.release:animatornodeinstance.obj
 0001:00037580       ??1AnimatedNode@AnimatorNodeInstance@Models@@QAE@XZ 00438580 f i render_win32.release:animatornodeinstance.obj
 0001:000375a0       ?OnShow@AnimatorNodeInstance@Models@@EAEXN@Z 004385a0 f   render_win32.release:animatornodeinstance.obj
 0001:000375e0       ?OnNotifyCullingVisible@AnimatorNodeInstance@Models@@UAEXHN@Z 004385e0 f   render_win32.release:animatornodeinstance.obj
 0001:00037640       ?Animate@AnimatorNodeInstance@Models@@AAEXN@Z 00438640 f   render_win32.release:animatornodeinstance.obj
 0001:00039e70       ??C?$Ptr@VModelInstance@Models@@@@QBEPAVModelInstance@Models@@XZ 0043ae70 f i render_win32.release:animatornodeinstance.obj
 0001:00039eb0       ??0?$Ptr@VModelNodeInstance@Models@@@@QAE@XZ 0043aeb0 f i render_win32.release:animatornodeinstance.obj
 0001:00039ed0       ??1?$Ptr@VModelNodeInstance@Models@@@@QAE@XZ 0043aed0 f i render_win32.release:animatornodeinstance.obj
 0001:00039f00       ??4?$Ptr@VModelNodeInstance@Models@@@@QAEXABV0@@Z 0043af00 f i render_win32.release:animatornodeinstance.obj
 0001:00039f60       ??C?$Ptr@VModelNodeInstance@Models@@@@QBEPAVModelNodeInstance@Models@@XZ 0043af60 f i render_win32.release:animatornodeinstance.obj
 0001:00039fa0       ?isvalid@?$Ptr@VModelNodeInstance@Models@@@@QBE_NXZ 0043afa0 f i render_win32.release:animatornodeinstance.obj
 0001:00039fc0       ??0?$Ptr@VShaderVariableInstance@CoreGraphics@@@@QAE@XZ 0043afc0 f i render_win32.release:animatornodeinstance.obj
 0001:00039fe0       ??4?$Ptr@VShaderVariableInstance@CoreGraphics@@@@QAEXABV0@@Z 0043afe0 f i render_win32.release:animatornodeinstance.obj
 0001:0003a040       ??C?$Ptr@VShaderVariableInstance@CoreGraphics@@@@QBEPAVShaderVariableInstance@CoreGraphics@@XZ 0043b040 f i render_win32.release:animatornodeinstance.obj
 0001:0003a080       ?isvalid@?$Ptr@VShaderVariableInstance@CoreGraphics@@@@QBE_NXZ 0043b080 f i render_win32.release:animatornodeinstance.obj
 0001:0003a0a0       ??0?$Array@V?$Array@UAnimatedNode@AnimatorNodeInstance@Models@@@Util@@@Util@@QAE@XZ 0043b0a0 f i render_win32.release:animatornodeinstance.obj
 0001:0003a0e0       ??1?$Array@V?$Array@UAnimatedNode@AnimatorNodeInstance@Models@@@Util@@@Util@@QAE@XZ 0043b0e0 f i render_win32.release:animatornodeinstance.obj
 0001:0003a100       ??A?$Array@V?$Array@UAnimatedNode@AnimatorNodeInstance@Models@@@Util@@@Util@@QBEAAV?$Array@UAnimatedNode@AnimatorNodeInstance@Models@@@1@H@Z 0043b100 f i render_win32.release:animatornodeinstance.obj
 0001:0003a150       ?Append@?$Array@V?$Array@UAnimatedNode@AnimatorNodeInstance@Models@@@Util@@@Util@@QAEXABV?$Array@UAnimatedNode@AnimatorNodeInstance@Models@@@2@@Z 0043b150 f i render_win32.release:animatornodeinstance.obj
 0001:0003a1d0       ??0?$Ptr@VTransformNodeInstance@Models@@@@QAE@ABV0@@Z 0043b1d0 f i render_win32.release:animatornodeinstance.obj
 0001:0003a210       ??1?$Ptr@VTransformNodeInstance@Models@@@@QAE@XZ 0043b210 f i render_win32.release:animatornodeinstance.obj
 0001:0003a240       ??C?$Ptr@VTransformNodeInstance@Models@@@@QBEPAVTransformNodeInstance@Models@@XZ 0043b240 f i render_win32.release:animatornodeinstance.obj
 0001:0003a280       ??$downcast@VAnimResource@CoreAnimation@@@?$Ptr@VResource@Resources@@@@QBEABV?$Ptr@VAnimResource@CoreAnimation@@@@XZ 0043b280 f i render_win32.release:animatornodeinstance.obj
 0001:0003a290       ?Sample@?$AnimKeyArray@V?$AnimKey@Vvector@Math@@@Models@@@Models@@QAE_NMW4Type@AnimLoopType@2@AAV?$AnimKey@Vvector@Math@@@2@@Z 0043b290 f i render_win32.release:animatornodeinstance.obj
 0001:0003a460       ?Sample@?$AnimKeyArray@V?$AnimKey@Vfloat4@Math@@@Models@@@Models@@QAE_NMW4Type@AnimLoopType@2@AAV?$AnimKey@Vfloat4@Math@@@2@@Z 0043b460 f i render_win32.release:animatornodeinstance.obj
 0001:0003a630       ?Sample@?$AnimKeyArray@V?$AnimKey@M@Models@@@Models@@QAE_NMW4Type@AnimLoopType@2@AAV?$AnimKey@M@2@@Z 0043b630 f i render_win32.release:animatornodeinstance.obj
 0001:0003a800       ?Sample@?$AnimKeyArray@V?$AnimKey@H@Models@@@Models@@QAE_NMW4Type@AnimLoopType@2@AAV?$AnimKey@H@2@@Z 0043b800 f i render_win32.release:animatornodeinstance.obj
 0001:0003a9d0       ??C?$Ptr@VManagedAnimResource@CoreAnimation@@@@QBEPAVManagedAnimResource@CoreAnimation@@XZ 0043b9d0 f i render_win32.release:animatornodeinstance.obj
 0001:0003aa10       ??A?$Array@UAnimSection@AnimatorNode@Models@@@Util@@QBEAAUAnimSection@AnimatorNode@Models@@H@Z 0043ba10 f i render_win32.release:animatornodeinstance.obj
 0001:0003aa60       ?Size@?$Array@UAnimSection@AnimatorNode@Models@@@Util@@QBEHXZ 0043ba60 f i render_win32.release:animatornodeinstance.obj
 0001:0003aa80       ??C?$Ptr@VAnimResource@CoreAnimation@@@@QBEPAVAnimResource@CoreAnimation@@XZ 0043ba80 f i render_win32.release:animatornodeinstance.obj
 0001:0003aac0       ?isvalid@?$Ptr@VAnimResource@CoreAnimation@@@@QBE_NXZ 0043bac0 f i render_win32.release:animatornodeinstance.obj
 0001:0003aae0       ??0?$Ptr@VAnimSampleBuffer@CoreAnimation@@@@QAE@PAVAnimSampleBuffer@CoreAnimation@@@Z 0043bae0 f i render_win32.release:animatornodeinstance.obj
 0001:0003ab20       ??1?$Ptr@VAnimSampleBuffer@CoreAnimation@@@@QAE@XZ 0043bb20 f i render_win32.release:animatornodeinstance.obj
 0001:0003ab50       ??C?$Ptr@VAnimSampleBuffer@CoreAnimation@@@@QBEPAVAnimSampleBuffer@CoreAnimation@@XZ 0043bb50 f i render_win32.release:animatornodeinstance.obj
 0001:0003ab90       ??$cast@VAnimatorNode@Models@@@?$Ptr@VModelNode@Models@@@@QBEABV?$Ptr@VAnimatorNode@Models@@@@XZ 0043bb90 f i render_win32.release:animatornodeinstance.obj
 0001:0003aba0       ??C?$Ptr@VAnimatorNode@Models@@@@QBEPAVAnimatorNode@Models@@XZ 0043bba0 f i render_win32.release:animatornodeinstance.obj
 0001:0003abe0       ??0?$Array@UAnimatedNode@AnimatorNodeInstance@Models@@@Util@@QAE@XZ 0043bbe0 f i render_win32.release:animatornodeinstance.obj
 0001:0003ac20       ??1?$Array@UAnimatedNode@AnimatorNodeInstance@Models@@@Util@@QAE@XZ 0043bc20 f i render_win32.release:animatornodeinstance.obj
 0001:0003ac40       ??A?$Array@UAnimatedNode@AnimatorNodeInstance@Models@@@Util@@QBEAAUAnimatedNode@AnimatorNodeInstance@Models@@H@Z 0043bc40 f i render_win32.release:animatornodeinstance.obj
 0001:0003ac90       ?Append@?$Array@UAnimatedNode@AnimatorNodeInstance@Models@@@Util@@QAEXABUAnimatedNode@AnimatorNodeInstance@Models@@@Z 0043bc90 f i render_win32.release:animatornodeinstance.obj
 0001:0003ad20       ?Size@?$Array@UAnimatedNode@AnimatorNodeInstance@Models@@@Util@@QBEHXZ 0043bd20 f i render_win32.release:animatornodeinstance.obj
 0001:0003ad40       ??0?$Ptr@VStateNodeInstance@Models@@@@QAE@ABV0@@Z 0043bd40 f i render_win32.release:animatornodeinstance.obj
 0001:0003ad80       ??1?$Ptr@VStateNodeInstance@Models@@@@QAE@XZ 0043bd80 f i render_win32.release:animatornodeinstance.obj
 0001:0003adb0       ??C?$Ptr@VStateNodeInstance@Models@@@@QBEPAVStateNodeInstance@Models@@XZ 0043bdb0 f i render_win32.release:animatornodeinstance.obj
 0001:0003adf0       ??$cast@VStateNodeInstance@Models@@@?$Ptr@VModelNodeInstance@Models@@@@QBEABV?$Ptr@VStateNodeInstance@Models@@@@XZ 0043bdf0 f i render_win32.release:animatornodeinstance.obj
 0001:0003ae00       ??$downcast@VStateNodeInstance@Models@@@?$Ptr@VModelNodeInstance@Models@@@@QBEABV?$Ptr@VStateNodeInstance@Models@@@@XZ 0043be00 f i render_win32.release:animatornodeinstance.obj
 0001:0003ae10       ??$downcast@VTransformNodeInstance@Models@@@?$Ptr@VModelNodeInstance@Models@@@@QBEABV?$Ptr@VTransformNodeInstance@Models@@@@XZ 0043be10 f i render_win32.release:animatornodeinstance.obj
 0001:0003ae20       ??0?$AnimKey@Vfloat4@Math@@@Models@@QAE@XZ 0043be20 f i render_win32.release:animatornodeinstance.obj
 0001:0003ae40       ?GetValue@?$AnimKey@Vfloat4@Math@@@Models@@QBEABVfloat4@Math@@XZ 0043be40 f i render_win32.release:animatornodeinstance.obj
 0001:0003ae60       ??0?$AnimKey@M@Models@@QAE@XZ 0043be60 f i render_win32.release:animatornodeinstance.obj
 0001:0003ae80       ?GetValue@?$AnimKey@M@Models@@QBEABMXZ 0043be80 f i render_win32.release:animatornodeinstance.obj
 0001:0003aea0       ??0?$AnimKey@H@Models@@QAE@XZ 0043bea0 f i render_win32.release:animatornodeinstance.obj
 0001:0003aec0       ?GetValue@?$AnimKey@H@Models@@QBEABHXZ 0043bec0 f i render_win32.release:animatornodeinstance.obj
 0001:0003aee0       ??0?$AnimKey@Vvector@Math@@@Models@@QAE@XZ 0043bee0 f i render_win32.release:animatornodeinstance.obj
 0001:0003af80       ?GetValue@?$AnimKey@Vvector@Math@@@Models@@QBEABVvector@Math@@XZ 0043bf80 f i render_win32.release:animatornodeinstance.obj
 0001:0003afa0       ??4AnimatedNode@AnimatorNodeInstance@Models@@QAEAAU012@ABU012@@Z 0043bfa0 f i render_win32.release:animatornodeinstance.obj
 0001:0003afd0       ?Delete@?$Array@V?$Array@UAnimatedNode@AnimatorNodeInstance@Models@@@Util@@@Util@@AAEXXZ 0043bfd0 f i render_win32.release:animatornodeinstance.obj
 0001:0003b040       ?Grow@?$Array@V?$Array@UAnimatedNode@AnimatorNodeInstance@Models@@@Util@@@Util@@AAEXXZ 0043c040 f i render_win32.release:animatornodeinstance.obj
 0001:0003b0c0       ??4?$Array@UAnimatedNode@AnimatorNodeInstance@Models@@@Util@@QAEXABV01@@Z 0043c0c0 f i render_win32.release:animatornodeinstance.obj
 0001:0003b1d0       ?Delete@?$Array@UAnimatedNode@AnimatorNodeInstance@Models@@@Util@@AAEXXZ 0043c1d0 f i render_win32.release:animatornodeinstance.obj
 0001:0003b240       ?Grow@?$Array@UAnimatedNode@AnimatorNodeInstance@Models@@@Util@@AAEXXZ 0043c240 f i render_win32.release:animatornodeinstance.obj
 0001:0003b2c0       ??A?$Array@V?$AnimKey@Vvector@Math@@@Models@@@Util@@QBEAAV?$AnimKey@Vvector@Math@@@Models@@H@Z 0043c2c0 f i render_win32.release:animatornodeinstance.obj
 0001:0003b310       ?Size@?$Array@V?$AnimKey@Vvector@Math@@@Models@@@Util@@QBEHXZ 0043c310 f i render_win32.release:animatornodeinstance.obj
 0001:0003b330       ?Front@?$Array@V?$AnimKey@Vvector@Math@@@Models@@@Util@@QBEAAV?$AnimKey@Vvector@Math@@@Models@@XZ 0043c330 f i render_win32.release:animatornodeinstance.obj
 0001:0003b370       ?Back@?$Array@V?$AnimKey@Vvector@Math@@@Models@@@Util@@QBEAAV?$AnimKey@Vvector@Math@@@Models@@XZ 0043c370 f i render_win32.release:animatornodeinstance.obj
 0001:0003b3c0       ?SetTime@?$AnimKey@Vvector@Math@@@Models@@QAEXM@Z 0043c3c0 f i render_win32.release:animatornodeinstance.obj
 0001:0003b3e0       ?GetTime@?$AnimKey@Vvector@Math@@@Models@@QBEMXZ 0043c3e0 f i render_win32.release:animatornodeinstance.obj
 0001:0003b3f0       ?Lerp@?$AnimKey@Vvector@Math@@@Models@@QAEXABVvector@Math@@0M@Z 0043c3f0 f i render_win32.release:animatornodeinstance.obj
 0001:0003b510       ??A?$Array@V?$AnimKey@Vfloat4@Math@@@Models@@@Util@@QBEAAV?$AnimKey@Vfloat4@Math@@@Models@@H@Z 0043c510 f i render_win32.release:animatornodeinstance.obj
 0001:0003b560       ?Size@?$Array@V?$AnimKey@Vfloat4@Math@@@Models@@@Util@@QBEHXZ 0043c560 f i render_win32.release:animatornodeinstance.obj
 0001:0003b580       ?Front@?$Array@V?$AnimKey@Vfloat4@Math@@@Models@@@Util@@QBEAAV?$AnimKey@Vfloat4@Math@@@Models@@XZ 0043c580 f i render_win32.release:animatornodeinstance.obj
 0001:0003b5c0       ?Back@?$Array@V?$AnimKey@Vfloat4@Math@@@Models@@@Util@@QBEAAV?$AnimKey@Vfloat4@Math@@@Models@@XZ 0043c5c0 f i render_win32.release:animatornodeinstance.obj
 0001:0003b610       ?SetTime@?$AnimKey@Vfloat4@Math@@@Models@@QAEXM@Z 0043c610 f i render_win32.release:animatornodeinstance.obj
 0001:0003b630       ?GetTime@?$AnimKey@Vfloat4@Math@@@Models@@QBEMXZ 0043c630 f i render_win32.release:animatornodeinstance.obj
 0001:0003b640       ?Lerp@?$AnimKey@Vfloat4@Math@@@Models@@QAEXABVfloat4@Math@@0M@Z 0043c640 f i render_win32.release:animatornodeinstance.obj
 0001:0003b760       ??A?$Array@V?$AnimKey@M@Models@@@Util@@QBEAAV?$AnimKey@M@Models@@H@Z 0043c760 f i render_win32.release:animatornodeinstance.obj
 0001:0003b7b0       ?Size@?$Array@V?$AnimKey@M@Models@@@Util@@QBEHXZ 0043c7b0 f i render_win32.release:animatornodeinstance.obj
 0001:0003b7d0       ?Front@?$Array@V?$AnimKey@M@Models@@@Util@@QBEAAV?$AnimKey@M@Models@@XZ 0043c7d0 f i render_win32.release:animatornodeinstance.obj
 0001:0003b810       ?Back@?$Array@V?$AnimKey@M@Models@@@Util@@QBEAAV?$AnimKey@M@Models@@XZ 0043c810 f i render_win32.release:animatornodeinstance.obj
 0001:0003b860       ?SetTime@?$AnimKey@M@Models@@QAEXM@Z 0043c860 f i render_win32.release:animatornodeinstance.obj
 0001:0003b880       ?GetTime@?$AnimKey@M@Models@@QBEMXZ 0043c880 f i render_win32.release:animatornodeinstance.obj
 0001:0003b890       ?Lerp@?$AnimKey@M@Models@@QAEXABM0M@Z 0043c890 f i render_win32.release:animatornodeinstance.obj
 0001:0003b8c0       ??A?$Array@V?$AnimKey@H@Models@@@Util@@QBEAAV?$AnimKey@H@Models@@H@Z 0043c8c0 f i render_win32.release:animatornodeinstance.obj
 0001:0003b910       ?Size@?$Array@V?$AnimKey@H@Models@@@Util@@QBEHXZ 0043c910 f i render_win32.release:animatornodeinstance.obj
 0001:0003b930       ?Front@?$Array@V?$AnimKey@H@Models@@@Util@@QBEAAV?$AnimKey@H@Models@@XZ 0043c930 f i render_win32.release:animatornodeinstance.obj
 0001:0003b970       ?Back@?$Array@V?$AnimKey@H@Models@@@Util@@QBEAAV?$AnimKey@H@Models@@XZ 0043c970 f i render_win32.release:animatornodeinstance.obj
 0001:0003b9c0       ?SetTime@?$AnimKey@H@Models@@QAEXM@Z 0043c9c0 f i render_win32.release:animatornodeinstance.obj
 0001:0003b9e0       ?GetTime@?$AnimKey@H@Models@@QBEMXZ 0043c9e0 f i render_win32.release:animatornodeinstance.obj
 0001:0003b9f0       ?Lerp@?$AnimKey@H@Models@@QAEXABH0M@Z 0043c9f0 f i render_win32.release:animatornodeinstance.obj
 0001:0003ba30       ??_E?$Array@UAnimatedNode@AnimatorNodeInstance@Models@@@Util@@QAEPAXI@Z 0043ca30 f i render_win32.release:animatornodeinstance.obj
 0001:0003bad0       ??_EAnimatedNode@AnimatorNodeInstance@Models@@QAEPAXI@Z 0043cad0 f i render_win32.release:animatornodeinstance.obj
 0001:0003bb80       ?GrowTo@?$Array@V?$Array@UAnimatedNode@AnimatorNodeInstance@Models@@@Util@@@Util@@AAEXH@Z 0043cb80 f i render_win32.release:animatornodeinstance.obj
 0001:0003bca0       ?Destroy@?$Array@UAnimatedNode@AnimatorNodeInstance@Models@@@Util@@AAEXPAUAnimatedNode@AnimatorNodeInstance@Models@@@Z 0043cca0 f i render_win32.release:animatornodeinstance.obj
 0001:0003bce0       ?Copy@?$Array@UAnimatedNode@AnimatorNodeInstance@Models@@@Util@@AAEXABV12@@Z 0043cce0 f i render_win32.release:animatornodeinstance.obj
 0001:0003be40       ?GrowTo@?$Array@UAnimatedNode@AnimatorNodeInstance@Models@@@Util@@AAEXH@Z 0043ce40 f i render_win32.release:animatornodeinstance.obj
 0001:0003bf90       ??_GAnimatedNode@AnimatorNodeInstance@Models@@QAEPAXI@Z 0043cf90 f i render_win32.release:animatornodeinstance.obj
 0001:0003bfd0       ?floor@@YAMM@Z             0043cfd0 f i render_win32.release:animatornodeinstance.obj
 0001:0003bff0       ?XMMatrixRotationQuaternion@@YA?AU_XMMATRIX@@T__m128@@@Z 0043cff0 f i render_win32.release:animatornodeinstance.obj
 0001:0003c4c0       ?XMMatrixRotationRollPitchYawFromVector@@YA?AU_XMMATRIX@@T__m128@@@Z 0043d4c0 f i render_win32.release:animatornodeinstance.obj
 0001:0003d220       ?XMMatrixRotationRollPitchYaw@@YA?AU_XMMATRIX@@MMM@Z 0043e220 f i render_win32.release:animatornodeinstance.obj
 0001:0003d2f0       ?XMQuaternionRotationRollPitchYawFromVector@@YA?AT__m128@@T1@@Z 0043e2f0 f i render_win32.release:animatornodeinstance.obj
 0001:0003dae0       ?XMQuaternionRotationRollPitchYaw@@YA?AT__m128@@MMM@Z 0043eae0 f i render_win32.release:animatornodeinstance.obj
 0001:0003e350       ?XMVectorMultiplyAdd@@YA?AT__m128@@T1@00@Z 0043f350 f i render_win32.release:animatornodeinstance.obj
 0001:0003e3a0       ?XMVectorSinCos@@YAXPAT__m128@@0T1@@Z 0043f3a0 f i render_win32.release:animatornodeinstance.obj
 0001:0003f6c0       ??BXMVECTORI32@@QBE?AT__m128i@@XZ 004406c0 f i render_win32.release:animatornodeinstance.obj
 0001:0003f6e0       ??BXMVECTORF32@@QBE?AT__m128i@@XZ 004406e0 f i render_win32.release:animatornodeinstance.obj
 0001:0003f700       ?XMVectorRound@@YA?AT__m128@@T1@@Z 00440700 f i render_win32.release:animatornodeinstance.obj
 0001:0003f840       ?XMVectorModAngles@@YA?AT__m128@@T1@@Z 00440840 f i render_win32.release:animatornodeinstance.obj
 0001:0003fa40       ??BXMVECTORU8@@QBE?AT__m128@@XZ 00440a40 f i render_win32.release:animatornodeinstance.obj
 0001:0003fa70       ?XMVectorPermute@@YA?AT__m128@@T1@00@Z 00440a70 f i render_win32.release:animatornodeinstance.obj
 0001:0003fb20       ?XMVectorGetZPtr@@YAXPAMT__m128@@@Z 00440b20 f i render_win32.release:animatornodeinstance.obj
 0001:0003fb60       ?XMVectorGetYPtr@@YAXPAMT__m128@@@Z 00440b60 f i render_win32.release:animatornodeinstance.obj
 0001:0003fba0       ?XMVectorMultiply@@YA?AT__m128@@T1@0@Z 00440ba0 f i render_win32.release:animatornodeinstance.obj
 0001:0003fbd0       ?XMStoreFloat4@@YAXPAU_XMFLOAT4@@T__m128@@@Z 00440bd0 f i render_win32.release:animatornodeinstance.obj
 0001:0003fbf0       _floorf                    00440bf0 f i render_win32.release:animatornodeinstance.obj
 0001:0003fc10       ?AsString@URI@IO@@QBE?AVString@Util@@XZ 00440c10 f i render_win32.release:modelnode.obj
 0001:0003fc30       ??2ModelNode@Models@@SAPAXI@Z 00440c30 f i render_win32.release:modelnode.obj
 0001:0003fc40       ??3ModelNode@Models@@SAXPAX@Z 00440c40 f i render_win32.release:modelnode.obj
 0001:0003fc60       ?SetType@ModelNode@Models@@QAEXH@Z 00440c60 f i render_win32.release:modelnode.obj
 0001:0003fc80       ?GetName@ModelNode@Models@@QBEABVStringAtom@Util@@XZ 00440c80 f i render_win32.release:modelnode.obj
 0001:0003fca0       ?SetBoundingBox@ModelNode@Models@@QAEXABVbbox@Math@@@Z 00440ca0 f i render_win32.release:modelnode.obj
 0001:0003fce0       ?HasStringAttr@ModelNode@Models@@QBE_NABVStringAtom@Util@@@Z 00440ce0 f i render_win32.release:modelnode.obj
 0001:0003fd00       ?SetStringAttr@ModelNode@Models@@QAEXABVStringAtom@Util@@0@Z 00440d00 f i render_win32.release:modelnode.obj
 0001:0003fd60       ?GetRtti@ModelNode@Models@@UBEPAVRtti@Core@@XZ 00440d60 f   render_win32.release:modelnode.obj
 0001:0003fd70       ?FactoryCreator@ModelNode@Models@@SAPAVRefCounted@Core@@XZ 00440d70 f   render_win32.release:modelnode.obj
 0001:0003fd80       ?Create@ModelNode@Models@@SAPAV12@XZ 00440d80 f   render_win32.release:modelnode.obj
 0001:0003fdc0       ?RegisterWithFactory@ModelNode@Models@@SA_NXZ 00440dc0 f   render_win32.release:modelnode.obj
 0001:0003fec0       ??0ModelNode@Models@@QAE@XZ 00440ec0 f   render_win32.release:modelnode.obj
 0001:0003ffa0       ??_EModelNode@Models@@UAEPAXI@Z 00440fa0 f i  CIL library: CIL module
 0001:0003ffa0       ??_GModelNode@Models@@UAEPAXI@Z 00440fa0 f i render_win32.release:modelnode.obj
 0001:0003ffd0       ??1?$VisResolveContainer@VModelNodeInstance@Models@@@Models@@QAE@XZ 00440fd0 f i render_win32.release:modelnode.obj
 0001:0003fff0       ??1?$Dictionary@VStringAtom@Util@@V12@@Util@@QAE@XZ 00440ff0 f i render_win32.release:modelnode.obj
 0001:00040010       ??1ModelNode@Models@@UAE@XZ 00441010 f   render_win32.release:modelnode.obj
 0001:000400c0       ?IsAttachedToModel@ModelNode@Models@@QBE_NXZ 004410c0 f   render_win32.release:modelnode.obj
 0001:000400e0       ?GetModel@ModelNode@Models@@QBEABV?$Ptr@VModel@Models@@@@XZ 004410e0 f   render_win32.release:modelnode.obj
 0001:00040100       ?CreateNodeInstance@ModelNode@Models@@UBE?AV?$Ptr@VModelNodeInstance@Models@@@@XZ 00441100 f   render_win32.release:modelnode.obj
 0001:00040130       ?CreateNodeInstanceHierarchy@ModelNode@Models@@QAE?AV?$Ptr@VModelNodeInstance@Models@@@@ABV?$Ptr@VModelInstance@Models@@@@@Z 00441130 f   render_win32.release:modelnode.obj
 0001:00040170       ?RecurseCreateNodeInstanceHierarchy@ModelNode@Models@@MAE?AV?$Ptr@VModelNodeInstance@Models@@@@ABV?$Ptr@VModelInstance@Models@@@@ABV3@@Z 00441170 f   render_win32.release:modelnode.obj
 0001:00040240       ?OnAttachToModel@ModelNode@Models@@UAEXABV?$Ptr@VModel@Models@@@@@Z 00441240 f   render_win32.release:modelnode.obj
 0001:00040280       ?OnRemoveFromModel@ModelNode@Models@@UAEXXZ 00441280 f   render_win32.release:modelnode.obj
 0001:00040310       ?LoadResources@ModelNode@Models@@UAEXXZ 00441310 f   render_win32.release:modelnode.obj
 0001:00040350       ?UnloadResources@ModelNode@Models@@UAEXXZ 00441350 f   render_win32.release:modelnode.obj
 0001:00040390       ?GetResourceState@ModelNode@Models@@UBE?AW4State@Resource@Resources@@XZ 00441390 f   render_win32.release:modelnode.obj
 0001:000403a0       ?OnResourcesLoaded@ModelNode@Models@@UAEXXZ 004413a0 f   render_win32.release:modelnode.obj
 0001:000403b0       ?ApplySharedState@ModelNode@Models@@UAEXH@Z 004413b0 f   render_win32.release:modelnode.obj
 0001:000403c0       ?AddVisibleNodeInstance@ModelNode@Models@@QAEXHABV?$Ptr@VModelNodeInstance@Models@@@@@Z 004413c0 f   render_win32.release:modelnode.obj
 0001:00040450       ?BeginParseDataTags@ModelNode@Models@@UAEXXZ 00441450 f   render_win32.release:modelnode.obj
 0001:00040460       ?ParseDataTag@ModelNode@Models@@UAE_NABVFourCC@Util@@ABV?$Ptr@VBinaryReader@IO@@@@@Z 00441460 f   render_win32.release:modelnode.obj
 0001:00040a40       ?EndParseDataTags@ModelNode@Models@@UAEXXZ 00441a40 f   render_win32.release:modelnode.obj
 0001:00040a50       ?AddChild@ModelNode@Models@@QAEXABV?$Ptr@VModelNode@Models@@@@@Z 00441a50 f   render_win32.release:modelnode.obj
 0001:00040ae0       ?HasChild@ModelNode@Models@@QBE_NABVStringAtom@Util@@@Z 00441ae0 f   render_win32.release:modelnode.obj
 0001:00040b00       ?LookupChild@ModelNode@Models@@QBEABV?$Ptr@VModelNode@Models@@@@ABVStringAtom@Util@@@Z 00441b00 f   render_win32.release:modelnode.obj
 0001:00040b30       ??A?$Dictionary@VStringAtom@Util@@H@Util@@QBEABHABVStringAtom@1@@Z 00441b30 f i render_win32.release:modelnode.obj
 0001:00040b80       ?Contains@?$Dictionary@VStringAtom@Util@@H@Util@@QBE_NABVStringAtom@2@@Z 00441b80 f i render_win32.release:modelnode.obj
 0001:00040be0       ??C?$Ptr@VStream@IO@@@@QBEPAVStream@IO@@XZ 00441be0 f i render_win32.release:modelnode.obj
 0001:00040c20       ??0?$Ptr@VModel@Models@@@@QAE@XZ 00441c20 f i render_win32.release:modelnode.obj
 0001:00040c40       ??4?$Ptr@VModel@Models@@@@QAEXPAVModel@Models@@@Z 00441c40 f i render_win32.release:modelnode.obj
 0001:00040ca0       ??4?$Ptr@VModel@Models@@@@QAEXABV0@@Z 00441ca0 f i render_win32.release:modelnode.obj
 0001:00040d00       ??C?$Ptr@VModel@Models@@@@QBEPAVModel@Models@@XZ 00441d00 f i render_win32.release:modelnode.obj
 0001:00040d40       ?isvalid@?$Ptr@VModel@Models@@@@QBE_NXZ 00441d40 f i render_win32.release:modelnode.obj
 0001:00040d60       ??0?$Ptr@VModelNode@Models@@@@QAE@PAVModelNode@Models@@@Z 00441d60 f i render_win32.release:modelnode.obj
 0001:00040da0       ??0?$Ptr@VModelNode@Models@@@@QAE@XZ 00441da0 f i render_win32.release:modelnode.obj
 0001:00040dc0       ??1?$Ptr@VModelNode@Models@@@@QAE@XZ 00441dc0 f i render_win32.release:modelnode.obj
 0001:00040df0       ??4?$Ptr@VModelNode@Models@@@@QAEXPAVModelNode@Models@@@Z 00441df0 f i render_win32.release:modelnode.obj
 0001:00040e50       ??4?$Ptr@VModelNode@Models@@@@QAEXABV0@@Z 00441e50 f i render_win32.release:modelnode.obj
 0001:00040eb0       ??C?$Ptr@VModelNode@Models@@@@QBEPAVModelNode@Models@@XZ 00441eb0 f i render_win32.release:modelnode.obj
 0001:00040ef0       ??0?$Array@V?$Ptr@VModelNode@Models@@@@@Util@@QAE@XZ 00441ef0 f i render_win32.release:modelnode.obj
 0001:00040f30       ??1?$Array@V?$Ptr@VModelNode@Models@@@@@Util@@QAE@XZ 00441f30 f i render_win32.release:modelnode.obj
 0001:00040f50       ??A?$Array@V?$Ptr@VModelNode@Models@@@@@Util@@QBEAAV?$Ptr@VModelNode@Models@@@@H@Z 00441f50 f i render_win32.release:modelnode.obj
 0001:00040fa0       ?Append@?$Array@V?$Ptr@VModelNode@Models@@@@@Util@@QAEXABV?$Ptr@VModelNode@Models@@@@@Z 00441fa0 f i render_win32.release:modelnode.obj
 0001:00041020       ?Size@?$Array@V?$Ptr@VModelNode@Models@@@@@Util@@QBEHXZ 00442020 f i render_win32.release:modelnode.obj
 0001:00041040       ?Clear@?$Array@V?$Ptr@VModelNode@Models@@@@@Util@@QAEXXZ 00442040 f i render_win32.release:modelnode.obj
 0001:00041090       ??1?$FixedArray@UEntry@?$VisResolveContainer@VModelNodeInstance@Models@@@Models@@@Util@@QAE@XZ 00442090 f i render_win32.release:modelnode.obj
 0001:000410b0       ??0?$VisResolveContainer@VModelNodeInstance@Models@@@Models@@QAE@XZ 004420b0 f i render_win32.release:modelnode.obj
 0001:000410e0       ?Reset@?$VisResolveContainer@VModelNodeInstance@Models@@@Models@@QAEXXZ 004420e0 f i render_win32.release:modelnode.obj
 0001:00041130       ?SetResolved@?$VisResolveContainer@VModelNodeInstance@Models@@@Models@@QAEXH_N@Z 00442130 f i render_win32.release:modelnode.obj
 0001:00041150       ?IsResolved@?$VisResolveContainer@VModelNodeInstance@Models@@@Models@@QBE_NH@Z 00442150 f i render_win32.release:modelnode.obj
 0001:00041170       ?Add@?$VisResolveContainer@VModelNodeInstance@Models@@@Models@@QAEXHHABV?$Ptr@VModelNodeInstance@Models@@@@@Z 00442170 f i render_win32.release:modelnode.obj
 0001:000411b0       ??1?$Array@V?$KeyValuePair@VStringAtom@Util@@V12@@Util@@@Util@@QAE@XZ 004421b0 f i render_win32.release:modelnode.obj
 0001:000411d0       ??0?$Dictionary@VStringAtom@Util@@V12@@Util@@QAE@XZ 004421d0 f i render_win32.release:modelnode.obj
 0001:000411f0       ??A?$Dictionary@VStringAtom@Util@@V12@@Util@@QAEAAVStringAtom@1@ABV21@@Z 004421f0 f i render_win32.release:modelnode.obj
 0001:00041240       ?Add@?$Dictionary@VStringAtom@Util@@V12@@Util@@QAEXABVStringAtom@2@0@Z 00442240 f i render_win32.release:modelnode.obj
 0001:00041290       ?Contains@?$Dictionary@VStringAtom@Util@@V12@@Util@@QBE_NABVStringAtom@2@@Z 00442290 f i render_win32.release:modelnode.obj
 0001:000412f0       ??0?$Ptr@VModelNodeInstance@Models@@@@QAE@ABV0@@Z 004422f0 f i render_win32.release:modelnode.obj
 0001:00041330       ??0?$Ptr@VModelNodeInstance@Models@@@@QAE@PAVModelNodeInstance@Models@@@Z 00442330 f i render_win32.release:modelnode.obj
 0001:00041370       ??C?$Ptr@VBinaryReader@IO@@@@QBEPAVBinaryReader@IO@@XZ 00442370 f i render_win32.release:modelnode.obj
 0001:000413b0       ??A?$Array@V?$KeyValuePair@VStringAtom@Util@@H@Util@@@Util@@QBEAAV?$KeyValuePair@VStringAtom@Util@@H@1@H@Z 004423b0 f i render_win32.release:modelnode.obj
 0001:00041400       ?BinarySearchIndex@?$Array@V?$KeyValuePair@VStringAtom@Util@@H@Util@@@Util@@QBEHABV?$KeyValuePair@VStringAtom@Util@@H@2@@Z 00442400 f i render_win32.release:modelnode.obj
 0001:00041530       ?FindIndex@?$Dictionary@VStringAtom@Util@@H@Util@@QBEHABVStringAtom@2@@Z 00442530 f i render_win32.release:modelnode.obj
 0001:00041580       ??0?$KeyValuePair@VStringAtom@Util@@H@Util@@QAE@ABVStringAtom@1@@Z 00442580 f i render_win32.release:modelnode.obj
 0001:000415a0       ?Value@?$KeyValuePair@VStringAtom@Util@@H@Util@@QAEAAHXZ 004425a0 f i render_win32.release:modelnode.obj
 0001:000415c0       ?Destroy@?$Array@V?$Ptr@VModelNode@Models@@@@@Util@@AAEXPAV?$Ptr@VModelNode@Models@@@@@Z 004425c0 f i render_win32.release:modelnode.obj
 0001:000415f0       ?Delete@?$Array@V?$Ptr@VModelNode@Models@@@@@Util@@AAEXXZ 004425f0 f i render_win32.release:modelnode.obj
 0001:00041660       ?Grow@?$Array@V?$Ptr@VModelNode@Models@@@@@Util@@AAEXXZ 00442660 f i render_win32.release:modelnode.obj
 0001:000416e0       ??0?$FixedArray@UEntry@?$VisResolveContainer@VModelNodeInstance@Models@@@Models@@@Util@@QAE@H@Z 004426e0 f i render_win32.release:modelnode.obj
 0001:00041710       ??A?$FixedArray@UEntry@?$VisResolveContainer@VModelNodeInstance@Models@@@Models@@@Util@@QBEAAUEntry@?$VisResolveContainer@VModelNodeInstance@Models@@@Models@@H@Z 00442710 f i render_win32.release:modelnode.obj
 0001:00041760       ?Delete@?$FixedArray@UEntry@?$VisResolveContainer@VModelNodeInstance@Models@@@Models@@@Util@@AAEXXZ 00442760 f i render_win32.release:modelnode.obj
 0001:000417c0       ?Append@?$Array@V?$Ptr@VModelNodeInstance@Models@@@@@Util@@QAEXABV?$Ptr@VModelNodeInstance@Models@@@@@Z 004427c0 f i render_win32.release:modelnode.obj
 0001:00041840       ?Clear@?$Array@V?$Ptr@VModelNodeInstance@Models@@@@@Util@@QAEXXZ 00442840 f i render_win32.release:modelnode.obj
 0001:00041890       ??0?$Array@V?$KeyValuePair@VStringAtom@Util@@V12@@Util@@@Util@@QAE@XZ 00442890 f i render_win32.release:modelnode.obj
 0001:000418d0       ??A?$Array@V?$KeyValuePair@VStringAtom@Util@@V12@@Util@@@Util@@QBEAAV?$KeyValuePair@VStringAtom@Util@@V12@@1@H@Z 004428d0 f i render_win32.release:modelnode.obj
 0001:00041920       ?Append@?$Array@V?$KeyValuePair@VStringAtom@Util@@V12@@Util@@@Util@@QAEXABV?$KeyValuePair@VStringAtom@Util@@V12@@2@@Z 00442920 f i render_win32.release:modelnode.obj
 0001:000419a0       ?InsertSorted@?$Array@V?$KeyValuePair@VStringAtom@Util@@V12@@Util@@@Util@@QAEHABV?$KeyValuePair@VStringAtom@Util@@V12@@2@@Z 004429a0 f i render_win32.release:modelnode.obj
 0001:00041c10       ?BinarySearchIndex@?$Array@V?$KeyValuePair@VStringAtom@Util@@V12@@Util@@@Util@@QBEHABV?$KeyValuePair@VStringAtom@Util@@V12@@2@@Z 00442c10 f i render_win32.release:modelnode.obj
 0001:00041d40       ?Delete@?$Array@V?$KeyValuePair@VStringAtom@Util@@V12@@Util@@@Util@@AAEXXZ 00442d40 f i render_win32.release:modelnode.obj
 0001:00041da0       ?FindIndex@?$Dictionary@VStringAtom@Util@@V12@@Util@@QBEHABVStringAtom@2@@Z 00442da0 f i render_win32.release:modelnode.obj
 0001:00041df0       ??0?$KeyValuePair@VStringAtom@Util@@V12@@Util@@QAE@ABVStringAtom@1@@Z 00442df0 f i render_win32.release:modelnode.obj
 0001:00041e20       ??0?$KeyValuePair@VStringAtom@Util@@V12@@Util@@QAE@ABVStringAtom@1@0@Z 00442e20 f i render_win32.release:modelnode.obj
 0001:00041e50       ?Value@?$KeyValuePair@VStringAtom@Util@@V12@@Util@@QAEAAVStringAtom@2@XZ 00442e50 f i render_win32.release:modelnode.obj
 0001:00041e70       ??_G?$Ptr@VModelNode@Models@@@@QAEPAXI@Z 00442e70 f i render_win32.release:modelnode.obj
 0001:00041ea0       ??_E?$Ptr@VModelNode@Models@@@@QAEPAXI@Z 00442ea0 f i render_win32.release:modelnode.obj
 0001:00041f40       ??_EEntry@?$VisResolveContainer@VModelNodeInstance@Models@@@Models@@QAEPAXI@Z 00442f40 f i render_win32.release:modelnode.obj
 0001:00041fe0       ??1Entry@?$VisResolveContainer@VModelNodeInstance@Models@@@Models@@QAE@XZ 00442fe0 f i render_win32.release:modelnode.obj
 0001:00042000       ?GrowTo@?$Array@V?$Ptr@VModelNode@Models@@@@@Util@@AAEXH@Z 00443000 f i render_win32.release:modelnode.obj
 0001:00042120       ?Alloc@?$FixedArray@UEntry@?$VisResolveContainer@VModelNodeInstance@Models@@@Models@@@Util@@AAEXH@Z 00443120 f i render_win32.release:modelnode.obj
 0001:00042200       ??1?$Array@V?$Ptr@VModelNodeInstance@Models@@@@@Util@@QAE@XZ 00443200 f i render_win32.release:modelnode.obj
 0001:00042220       ?Destroy@?$Array@V?$Ptr@VModelNodeInstance@Models@@@@@Util@@AAEXPAV?$Ptr@VModelNodeInstance@Models@@@@@Z 00443220 f i render_win32.release:modelnode.obj
 0001:00042250       ?Grow@?$Array@V?$Ptr@VModelNodeInstance@Models@@@@@Util@@AAEXXZ 00443250 f i render_win32.release:modelnode.obj
 0001:000422d0       ?Size@?$Array@V?$KeyValuePair@VStringAtom@Util@@V12@@Util@@@Util@@QBEHXZ 004432d0 f i render_win32.release:modelnode.obj
 0001:000422f0       ?Insert@?$Array@V?$KeyValuePair@VStringAtom@Util@@V12@@Util@@@Util@@QAEXHABV?$KeyValuePair@VStringAtom@Util@@V12@@2@@Z 004432f0 f i render_win32.release:modelnode.obj
 0001:00042360       ?InsertAtEndOfIdenticalRange@?$Array@V?$KeyValuePair@VStringAtom@Util@@V12@@Util@@@Util@@QAEHHABV?$KeyValuePair@VStringAtom@Util@@V12@@2@@Z 00443360 f i render_win32.release:modelnode.obj
 0001:000423e0       ?Grow@?$Array@V?$KeyValuePair@VStringAtom@Util@@V12@@Util@@@Util@@AAEXXZ 004433e0 f i render_win32.release:modelnode.obj
 0001:00042460       ??4?$KeyValuePair@VStringAtom@Util@@V12@@Util@@QAEXABV01@@Z 00443460 f i render_win32.release:modelnode.obj
 0001:00042490       ??9?$KeyValuePair@VStringAtom@Util@@V12@@Util@@QBE_NABV01@@Z 00443490 f i render_win32.release:modelnode.obj
 0001:000424b0       ??O?$KeyValuePair@VStringAtom@Util@@V12@@Util@@QBE_NABV01@@Z 004434b0 f i render_win32.release:modelnode.obj
 0001:000424d0       ??M?$KeyValuePair@VStringAtom@Util@@V12@@Util@@QBE_NABV01@@Z 004434d0 f i render_win32.release:modelnode.obj
 0001:000424f0       ??_G?$Ptr@VModelNodeInstance@Models@@@@QAEPAXI@Z 004434f0 f i render_win32.release:modelnode.obj
 0001:00042520       ??0Entry@?$VisResolveContainer@VModelNodeInstance@Models@@@Models@@QAE@XZ 00443520 f i render_win32.release:modelnode.obj
 0001:00042540       ??0?$Array@V?$Ptr@VModelNodeInstance@Models@@@@@Util@@QAE@XZ 00443540 f i render_win32.release:modelnode.obj
 0001:00042580       ?Delete@?$Array@V?$Ptr@VModelNodeInstance@Models@@@@@Util@@AAEXXZ 00443580 f i render_win32.release:modelnode.obj
 0001:000425f0       ?GrowTo@?$Array@V?$Ptr@VModelNodeInstance@Models@@@@@Util@@AAEXH@Z 004435f0 f i render_win32.release:modelnode.obj
 0001:00042710       ?GrowTo@?$Array@V?$KeyValuePair@VStringAtom@Util@@V12@@Util@@@Util@@AAEXH@Z 00443710 f i render_win32.release:modelnode.obj
 0001:00042800       ?Move@?$Array@V?$KeyValuePair@VStringAtom@Util@@V12@@Util@@@Util@@AAEXHH@Z 00443800 f i render_win32.release:modelnode.obj
 0001:00042990       ??_E?$Ptr@VModelNodeInstance@Models@@@@QAEPAXI@Z 00443990 f i render_win32.release:modelnode.obj
 0001:00042a30       ?Destroy@?$Array@V?$KeyValuePair@VStringAtom@Util@@V12@@Util@@@Util@@AAEXPAV?$KeyValuePair@VStringAtom@Util@@V12@@2@@Z 00443a30 f i render_win32.release:modelnode.obj
 0001:00042a40       ??0?$KeyValuePair@VStringAtom@Util@@V12@@Util@@QAE@XZ 00443a40 f i render_win32.release:modelnode.obj
 0001:00042a70       ?GetState@Resource@Resources@@QBE?AW4State@12@XZ 00443a70 f i render_win32.release:shapenode.obj
 0001:00042a90       ?GetState@ManagedResource@Resources@@QBE?AW4State@Resource@2@XZ 00443a90 f i render_win32.release:shapenode.obj
 0001:00042ae0       ?GetMesh@ManagedMesh@Resources@@QBEABV?$Ptr@VMesh@CoreGraphics@@@@XZ 00443ae0 f i render_win32.release:shapenode.obj
 0001:00042b20       ??2ShapeNode@Models@@SAPAXI@Z 00443b20 f i render_win32.release:shapenode.obj
 0001:00042b30       ??3ShapeNode@Models@@SAXPAX@Z 00443b30 f i render_win32.release:shapenode.obj
 0001:00042b50       ?SetMeshResourceId@ShapeNode@Models@@QAEXABVStringAtom@Util@@@Z 00443b50 f i render_win32.release:shapenode.obj
 0001:00042b70       ?SetPrimitiveGroupIndex@ShapeNode@Models@@QAEXH@Z 00443b70 f i render_win32.release:shapenode.obj
 0001:00042b90       ?Instance@ResourceManager@Resources@@SAPAV12@XZ 00443b90 f i render_win32.release:shapenode.obj
 0001:00042bd0       ?GetRtti@ShapeNode@Models@@UBEPAVRtti@Core@@XZ 00443bd0 f   render_win32.release:shapenode.obj
 0001:00042be0       ?FactoryCreator@ShapeNode@Models@@SAPAVRefCounted@Core@@XZ 00443be0 f   render_win32.release:shapenode.obj
 0001:00042bf0       ?Create@ShapeNode@Models@@SAPAV12@XZ 00443bf0 f   render_win32.release:shapenode.obj
 0001:00042c30       ?RegisterWithFactory@ShapeNode@Models@@SA_NXZ 00443c30 f   render_win32.release:shapenode.obj
 0001:00042d30       ??0ShapeNode@Models@@QAE@XZ 00443d30 f   render_win32.release:shapenode.obj
 0001:00042d90       ??_GShapeNode@Models@@UAEPAXI@Z 00443d90 f i render_win32.release:shapenode.obj
 0001:00042d90       ??_EShapeNode@Models@@UAEPAXI@Z 00443d90 f i  CIL library: CIL module
 0001:00042dc0       ??1ShapeNode@Models@@UAE@XZ 00443dc0 f   render_win32.release:shapenode.obj
 0001:00042e30       ?CreateNodeInstance@ShapeNode@Models@@UBE?AV?$Ptr@VModelNodeInstance@Models@@@@XZ 00443e30 f   render_win32.release:shapenode.obj
 0001:00042e70       ?ParseDataTag@ShapeNode@Models@@UAE_NABVFourCC@Util@@ABV?$Ptr@VBinaryReader@IO@@@@@Z 00443e70 f   render_win32.release:shapenode.obj
 0001:00042f70       ?GetResourceState@ShapeNode@Models@@UBE?AW4State@Resource@Resources@@XZ 00443f70 f   render_win32.release:shapenode.obj
 0001:00042fc0       ?LoadResources@ShapeNode@Models@@UAEXXZ 00443fc0 f   render_win32.release:shapenode.obj
 0001:00043100       ?UnloadResources@ShapeNode@Models@@UAEXXZ 00444100 f   render_win32.release:shapenode.obj
 0001:000431a0       ?ApplySharedState@ShapeNode@Models@@UAEXH@Z 004441a0 f   render_win32.release:shapenode.obj
 0001:00043270       ??C?$Ptr@VResource@Resources@@@@QBEPAVResource@Resources@@XZ 00444270 f i render_win32.release:shapenode.obj
 0001:000432b0       ??$downcast@VMesh@CoreGraphics@@@?$Ptr@VResource@Resources@@@@QBEABV?$Ptr@VMesh@CoreGraphics@@@@XZ 004442b0 f i render_win32.release:shapenode.obj
 0001:000432c0       ??0?$Ptr@VManagedMesh@Resources@@@@QAE@XZ 004442c0 f i render_win32.release:shapenode.obj
 0001:000432e0       ??1?$Ptr@VManagedMesh@Resources@@@@QAE@XZ 004442e0 f i render_win32.release:shapenode.obj
 0001:00043310       ??4?$Ptr@VManagedMesh@Resources@@@@QAEXPAVManagedMesh@Resources@@@Z 00444310 f i render_win32.release:shapenode.obj
 0001:00043370       ??4?$Ptr@VManagedMesh@Resources@@@@QAEXABV0@@Z 00444370 f i render_win32.release:shapenode.obj
 0001:000433d0       ??C?$Ptr@VManagedMesh@Resources@@@@QBEPAVManagedMesh@Resources@@XZ 004443d0 f i render_win32.release:shapenode.obj
 0001:00043410       ?isvalid@?$Ptr@VManagedMesh@Resources@@@@QBE_NXZ 00444410 f i render_win32.release:shapenode.obj
 0001:00043430       ??1?$Ptr@VManagedResource@Resources@@@@QAE@XZ 00444430 f i render_win32.release:shapenode.obj
 0001:00043460       ??$downcast@VManagedMesh@Resources@@@?$Ptr@VManagedResource@Resources@@@@QBEABV?$Ptr@VManagedMesh@Resources@@@@XZ 00444460 f i render_win32.release:shapenode.obj
 0001:00043470       ??$upcast@VManagedResource@Resources@@@?$Ptr@VManagedMesh@Resources@@@@QBEABV?$Ptr@VManagedResource@Resources@@@@XZ 00444470 f i render_win32.release:shapenode.obj
 0001:00043480       ??C?$Ptr@VMesh@CoreGraphics@@@@QBEPAVMesh@CoreGraphics@@XZ 00444480 f i render_win32.release:shapenode.obj
 0001:000434c0       ?n_isdenormal@Math@@YA_NM@Z 004444c0 f i render_win32.release:characternode.obj
 0001:000434e0       ?n_undenormalize@Math@@YAMM@Z 004444e0 f i render_win32.release:characternode.obj
 0001:00043510       ?set_x@quaternion@Math@@QAEXM@Z 00444510 f i render_win32.release:characternode.obj
 0001:00043580       ?set_y@quaternion@Math@@QAEXM@Z 00444580 f i render_win32.release:characternode.obj
 0001:00043630       ?set_z@quaternion@Math@@QAEXM@Z 00444630 f i render_win32.release:characternode.obj
 0001:000436e0       ?set_w@quaternion@Math@@QAEXM@Z 004446e0 f i render_win32.release:characternode.obj
 0001:00043790       ?x@quaternion@Math@@QAEAAMXZ 00444790 f i render_win32.release:characternode.obj
 0001:000437a0       ?y@quaternion@Math@@QAEAAMXZ 004447a0 f i render_win32.release:characternode.obj
 0001:000437c0       ?z@quaternion@Math@@QAEAAMXZ 004447c0 f i render_win32.release:characternode.obj
 0001:000437e0       ?w@quaternion@Math@@QAEAAMXZ 004447e0 f i render_win32.release:characternode.obj
 0001:00043800       ?undenormalize@quaternion@Math@@QAEXXZ 00444800 f i render_win32.release:characternode.obj
 0001:000439e0       ??4StringAtom@Util@@QAEXABVString@1@@Z 004449e0 f i render_win32.release:characternode.obj
 0001:00043a20       ?Skeleton@Character@Characters@@QAEAAVCharacterSkeleton@2@XZ 00444a20 f i render_win32.release:characternode.obj
 0001:00043a40       ?SkinLibrary@Character@Characters@@QAEAAVCharacterSkinLibrary@2@XZ 00444a40 f i render_win32.release:characternode.obj
 0001:00043a60       ?AnimationLibrary@Character@Characters@@QAEAAVCharacterAnimationLibrary@2@XZ 00444a60 f i render_win32.release:characternode.obj
 0001:00043a80       ?VariationLibrary@Character@Characters@@QAEAAVCharacterVariationLibrary@2@XZ 00444a80 f i render_win32.release:characternode.obj
 0001:00043aa0       ??2CharacterNode@Characters@@SAPAXI@Z 00444aa0 f i render_win32.release:characternode.obj
 0001:00043ab0       ??3CharacterNode@Characters@@SAXPAX@Z 00444ab0 f i render_win32.release:characternode.obj
 0001:00043ad0       ?GetRtti@CharacterNode@Characters@@UBEPAVRtti@Core@@XZ 00444ad0 f   render_win32.release:characternode.obj
 0001:00043ae0       ?FactoryCreator@CharacterNode@Characters@@SAPAVRefCounted@Core@@XZ 00444ae0 f   render_win32.release:characternode.obj
 0001:00043af0       ?Create@CharacterNode@Characters@@SAPAV12@XZ 00444af0 f   render_win32.release:characternode.obj
 0001:00043b30       ?RegisterWithFactory@CharacterNode@Characters@@SA_NXZ 00444b30 f   render_win32.release:characternode.obj
 0001:00043c30       ??0CharacterNode@Characters@@QAE@XZ 00444c30 f   render_win32.release:characternode.obj
 0001:00043cb0       ??_ECharacterNode@Characters@@UAEPAXI@Z 00444cb0 f i  CIL library: CIL module
 0001:00043cb0       ??_GCharacterNode@Characters@@UAEPAXI@Z 00444cb0 f i render_win32.release:characternode.obj
 0001:00043ce0       ??1CharacterNode@Characters@@UAE@XZ 00444ce0 f   render_win32.release:characternode.obj
 0001:00043db0       ?CreateNodeInstance@CharacterNode@Characters@@UBE?AV?$Ptr@VModelNodeInstance@Models@@@@XZ 00444db0 f   render_win32.release:characternode.obj
 0001:00043df0       ?RecurseCreateNodeInstanceHierarchy@CharacterNode@Characters@@EAE?AV?$Ptr@VModelNodeInstance@Models@@@@ABV?$Ptr@VModelInstance@Models@@@@ABV3@@Z 00444df0 f   render_win32.release:characternode.obj
 0001:00043e60       ?OnAttachToModel@CharacterNode@Characters@@UAEXABV?$Ptr@VModel@Models@@@@@Z 00444e60 f   render_win32.release:characternode.obj
 0001:00043ed0       ?OnRemoveFromModel@CharacterNode@Characters@@UAEXXZ 00444ed0 f   render_win32.release:characternode.obj
 0001:00043f40       ?LoadResources@CharacterNode@Characters@@UAEXXZ 00444f40 f   render_win32.release:characternode.obj
 0001:00044230       ?UnloadResources@CharacterNode@Characters@@UAEXXZ 00445230 f   render_win32.release:characternode.obj
 0001:00044340       ?GetResourceState@CharacterNode@Characters@@UBE?AW4State@Resource@Resources@@XZ 00445340 f   render_win32.release:characternode.obj
 0001:000443e0       ?OnResourcesLoaded@CharacterNode@Characters@@UAEXXZ 004453e0 f   render_win32.release:characternode.obj
 0001:000444f0       ?ParseDataTag@CharacterNode@Characters@@UAE_NABVFourCC@Util@@ABV?$Ptr@VBinaryReader@IO@@@@@Z 004454f0 f   render_win32.release:characternode.obj
 0001:00045070       ??0?$Ptr@VResourceLoader@Resources@@@@QAE@PAVResourceLoader@Resources@@@Z 00446070 f i render_win32.release:characternode.obj
 0001:000450b0       ??0?$Ptr@VCharacter@Characters@@@@QAE@XZ 004460b0 f i render_win32.release:characternode.obj
 0001:000450d0       ??1?$Ptr@VCharacter@Characters@@@@QAE@XZ 004460d0 f i render_win32.release:characternode.obj
 0001:00045100       ??4?$Ptr@VCharacter@Characters@@@@QAEXPAVCharacter@Characters@@@Z 00446100 f i render_win32.release:characternode.obj
 0001:00045160       ??C?$Ptr@VCharacter@Characters@@@@QBEPAVCharacter@Characters@@XZ 00446160 f i render_win32.release:characternode.obj
 0001:000451a0       ?isvalid@?$Ptr@VCharacter@Characters@@@@QBE_NXZ 004461a0 f i render_win32.release:characternode.obj
 0001:000451c0       ??0?$Ptr@VManagedAnimResource@CoreAnimation@@@@QAE@XZ 004461c0 f i render_win32.release:characternode.obj
 0001:000451e0       ??1?$Ptr@VManagedAnimResource@CoreAnimation@@@@QAE@XZ 004461e0 f i render_win32.release:characternode.obj
 0001:00045210       ??4?$Ptr@VManagedAnimResource@CoreAnimation@@@@QAEXPAVManagedAnimResource@CoreAnimation@@@Z 00446210 f i render_win32.release:characternode.obj
 0001:00045270       ??4?$Ptr@VManagedAnimResource@CoreAnimation@@@@QAEXABV0@@Z 00446270 f i render_win32.release:characternode.obj
 0001:000452d0       ?isvalid@?$Ptr@VManagedAnimResource@CoreAnimation@@@@QBE_NXZ 004462d0 f i render_win32.release:characternode.obj
 0001:000452f0       ??$downcast@VManagedAnimResource@CoreAnimation@@@?$Ptr@VManagedResource@Resources@@@@QBEABV?$Ptr@VManagedAnimResource@CoreAnimation@@@@XZ 004462f0 f i render_win32.release:characternode.obj
 0001:00045300       ??$upcast@VManagedResource@Resources@@@?$Ptr@VManagedAnimResource@CoreAnimation@@@@QBEABV?$Ptr@VManagedResource@Resources@@@@XZ 00446300 f i render_win32.release:characternode.obj
 0001:00045310       ?XMVectorSetZPtr@@YA?AT__m128@@T1@PBM@Z 00446310 f i render_win32.release:characternode.obj
 0001:000453a0       ?XMVectorSetYPtr@@YA?AT__m128@@T1@PBM@Z 004463a0 f i render_win32.release:characternode.obj
 0001:00045430       ?XMVectorSetXPtr@@YA?AT__m128@@T1@PBM@Z 00446430 f i render_win32.release:characternode.obj
 0001:00045480       ??2CharacterSkinNode@Characters@@SAPAXI@Z 00446480 f i render_win32.release:characterskinnode.obj
 0001:00045490       ??3CharacterSkinNode@Characters@@SAXPAX@Z 00446490 f i render_win32.release:characterskinnode.obj
 0001:000454b0       ??0Fragment@CharacterSkinNode@Characters@@QAE@XZ 004464b0 f i render_win32.release:characterskinnode.obj
 0001:000454e0       ?FeatureStringToMask@ShaderServerBase@Base@@QAEIABVString@Util@@@Z 004464e0 f i render_win32.release:characterskinnode.obj
 0001:00045500       ?SetFeatureBits@ShaderServerBase@Base@@QAEXI@Z 00446500 f i render_win32.release:characterskinnode.obj
 0001:00045520       ?Instance@ShaderServer@CoreGraphics@@SAPAV12@XZ 00446520 f i render_win32.release:characterskinnode.obj
 0001:00045560       ?GetRtti@CharacterSkinNode@Characters@@UBEPAVRtti@Core@@XZ 00446560 f   render_win32.release:characterskinnode.obj
 0001:00045570       ?FactoryCreator@CharacterSkinNode@Characters@@SAPAVRefCounted@Core@@XZ 00446570 f   render_win32.release:characterskinnode.obj
 0001:00045580       ?Create@CharacterSkinNode@Characters@@SAPAV12@XZ 00446580 f   render_win32.release:characterskinnode.obj
 0001:000455c0       ?RegisterWithFactory@CharacterSkinNode@Characters@@SA_NXZ 004465c0 f   render_win32.release:characterskinnode.obj
 0001:000456c0       ??0CharacterSkinNode@Characters@@QAE@XZ 004466c0 f   render_win32.release:characterskinnode.obj
 0001:00045790       ??_GCharacterSkinNode@Characters@@UAEPAXI@Z 00446790 f i render_win32.release:characterskinnode.obj
 0001:00045790       ??_ECharacterSkinNode@Characters@@UAEPAXI@Z 00446790 f i  CIL library: CIL module
 0001:000457c0       ??1CharacterSkinNode@Characters@@UAE@XZ 004467c0 f   render_win32.release:characterskinnode.obj
 0001:000457f0       ?CreateNodeInstance@CharacterSkinNode@Characters@@UBE?AV?$Ptr@VModelNodeInstance@Models@@@@XZ 004467f0 f   render_win32.release:characterskinnode.obj
 0001:00045830       ?ParseDataTag@CharacterSkinNode@Characters@@UAE_NABVFourCC@Util@@ABV?$Ptr@VBinaryReader@IO@@@@@Z 00446830 f   render_win32.release:characterskinnode.obj
 0001:00045940       ?ReserveFragments@CharacterSkinNode@Characters@@QAEXH@Z 00446940 f   render_win32.release:characterskinnode.obj
 0001:00045970       ?AddFragment@CharacterSkinNode@Characters@@QAEXHABV?$Array@H@Util@@@Z 00446970 f   render_win32.release:characterskinnode.obj
 0001:000459e0       ??1Fragment@CharacterSkinNode@Characters@@QAE@XZ 004469e0 f i render_win32.release:characterskinnode.obj
 0001:00045a00       ?ApplySharedState@CharacterSkinNode@Characters@@UAEXH@Z 00446a00 f   render_win32.release:characterskinnode.obj
 0001:00045aa0       ??0?$Array@H@Util@@QAE@XZ  00446aa0 f i render_win32.release:characterskinnode.obj
 0001:00045ae0       ??4?$Array@H@Util@@QAEXABV01@@Z 00446ae0 f i render_win32.release:characterskinnode.obj
 0001:00045bd0       ?Append@?$Array@H@Util@@QAEXABH@Z 00446bd0 f i render_win32.release:characterskinnode.obj
 0001:00045c40       ?Reserve@?$Array@H@Util@@QAEXH@Z 00446c40 f i render_win32.release:characterskinnode.obj
 0001:00045c90       ??0?$Array@VFragment@CharacterSkinNode@Characters@@@Util@@QAE@XZ 00446c90 f i render_win32.release:characterskinnode.obj
 0001:00045cd0       ??1?$Array@VFragment@CharacterSkinNode@Characters@@@Util@@QAE@XZ 00446cd0 f i render_win32.release:characterskinnode.obj
 0001:00045cf0       ?Append@?$Array@VFragment@CharacterSkinNode@Characters@@@Util@@QAEXABVFragment@CharacterSkinNode@Characters@@@Z 00446cf0 f i render_win32.release:characterskinnode.obj
 0001:00045d80       ?Reserve@?$Array@VFragment@CharacterSkinNode@Characters@@@Util@@QAEXH@Z 00446d80 f i render_win32.release:characterskinnode.obj
 0001:00045dd0       ?Back@?$Array@VFragment@CharacterSkinNode@Characters@@@Util@@QBEAAVFragment@CharacterSkinNode@Characters@@XZ 00446dd0 f i render_win32.release:characterskinnode.obj
 0001:00045e20       ?Clear@?$Array@VFragment@CharacterSkinNode@Characters@@@Util@@QAEXXZ 00446e20 f i render_win32.release:characterskinnode.obj
 0001:00045e70       ??4Fragment@CharacterSkinNode@Characters@@QAEAAV012@ABV012@@Z 00446e70 f i render_win32.release:characterskinnode.obj
 0001:00045ea0       ?Destroy@?$Array@H@Util@@AAEXPAH@Z 00446ea0 f i render_win32.release:characterskinnode.obj
 0001:00045eb0       ?Grow@?$Array@H@Util@@AAEXXZ 00446eb0 f i render_win32.release:characterskinnode.obj
 0001:00045f30       ?GrowTo@?$Array@H@Util@@AAEXH@Z 00446f30 f i render_win32.release:characterskinnode.obj
 0001:00045fe0       ?Destroy@?$Array@VFragment@CharacterSkinNode@Characters@@@Util@@AAEXPAVFragment@CharacterSkinNode@Characters@@@Z 00446fe0 f i render_win32.release:characterskinnode.obj
 0001:00046010       ?Delete@?$Array@VFragment@CharacterSkinNode@Characters@@@Util@@AAEXXZ 00447010 f i render_win32.release:characterskinnode.obj
 0001:00046080       ?Grow@?$Array@VFragment@CharacterSkinNode@Characters@@@Util@@AAEXXZ 00447080 f i render_win32.release:characterskinnode.obj
 0001:00046100       ?GrowTo@?$Array@VFragment@CharacterSkinNode@Characters@@@Util@@AAEXH@Z 00447100 f i render_win32.release:characterskinnode.obj
 0001:00046250       ??_GFragment@CharacterSkinNode@Characters@@QAEPAXI@Z 00447250 f i render_win32.release:characterskinnode.obj
 0001:00046290       ??_EFragment@CharacterSkinNode@Characters@@QAEPAXI@Z 00447290 f i render_win32.release:characterskinnode.obj
 0001:00046330       ?SetFloat@EmitterAttrs@Particles@@QAEXW4FloatAttr@12@M@Z 00447330 f i render_win32.release:particlesystemnode.obj
 0001:00046350       ?SetBool@EmitterAttrs@Particles@@QAEXW4BoolAttr@12@_N@Z 00447350 f i render_win32.release:particlesystemnode.obj
 0001:00046370       ?SetInt@EmitterAttrs@Particles@@QAEXW4IntAttr@12@H@Z 00447370 f i render_win32.release:particlesystemnode.obj
 0001:00046390       ?SetEnvelope@EmitterAttrs@Particles@@QAEXW4EnvelopeAttr@12@ABVEnvelopeCurve@2@@Z 00447390 f i render_win32.release:particlesystemnode.obj
 0001:000463c0       ?IsValid@ParticleSystem@Particles@@QBE_NXZ 004473c0 f i render_win32.release:particlesystemnode.obj
 0001:000463e0       ??2ParticleSystemNode@Particles@@SAPAXI@Z 004473e0 f i render_win32.release:particlesystemnode.obj
 0001:000463f0       ??3ParticleSystemNode@Particles@@SAXPAX@Z 004473f0 f i render_win32.release:particlesystemnode.obj
 0001:00046410       ?SetEmitterMeshResourceId@ParticleSystemNode@Particles@@QAEXABVStringAtom@Util@@@Z 00447410 f i render_win32.release:particlesystemnode.obj
 0001:00046430       ?SetPrimitiveGroupIndex@ParticleSystemNode@Particles@@QAEXH@Z 00447430 f i render_win32.release:particlesystemnode.obj
 0001:00046450       ?SetUsage@D3D9StreamMeshLoader@Win360@@QAEXW4Usage@ResourceBase@Base@@@Z 00447450 f i render_win32.release:particlesystemnode.obj
 0001:00046470       ?SetAccess@D3D9StreamMeshLoader@Win360@@QAEXW4Access@ResourceBase@Base@@@Z 00447470 f i render_win32.release:particlesystemnode.obj
 0001:00046490       ?GetRtti@ParticleSystemNode@Particles@@UBEPAVRtti@Core@@XZ 00447490 f   render_win32.release:particlesystemnode.obj
 0001:000464a0       ?FactoryCreator@ParticleSystemNode@Particles@@SAPAVRefCounted@Core@@XZ 004474a0 f   render_win32.release:particlesystemnode.obj
 0001:000464b0       ?Create@ParticleSystemNode@Particles@@SAPAV12@XZ 004474b0 f   render_win32.release:particlesystemnode.obj
 0001:000464f0       ?RegisterWithFactory@ParticleSystemNode@Particles@@SA_NXZ 004474f0 f   render_win32.release:particlesystemnode.obj
 0001:000465f0       ??0ParticleSystemNode@Particles@@QAE@XZ 004475f0 f   render_win32.release:particlesystemnode.obj
 0001:00046660       ??_EParticleSystemNode@Particles@@UAEPAXI@Z 00447660 f i  CIL library: CIL module
 0001:00046660       ??_GParticleSystemNode@Particles@@UAEPAXI@Z 00447660 f i render_win32.release:particlesystemnode.obj
 0001:00046690       ??1ParticleSystemNode@Particles@@UAE@XZ 00447690 f   render_win32.release:particlesystemnode.obj
 0001:00046720       ?CreateNodeInstance@ParticleSystemNode@Particles@@UBE?AV?$Ptr@VModelNodeInstance@Models@@@@XZ 00447720 f   render_win32.release:particlesystemnode.obj
 0001:00046760       ?OnAttachToModel@ParticleSystemNode@Particles@@UAEXABV?$Ptr@VModel@Models@@@@@Z 00447760 f   render_win32.release:particlesystemnode.obj
 0001:000467c0       ?OnRemoveFromModel@ParticleSystemNode@Particles@@UAEXXZ 004477c0 f   render_win32.release:particlesystemnode.obj
 0001:00046840       ?LoadResources@ParticleSystemNode@Particles@@UAEXXZ 00447840 f   render_win32.release:particlesystemnode.obj
 0001:00046980       ?UnloadResources@ParticleSystemNode@Particles@@UAEXXZ 00447980 f   render_win32.release:particlesystemnode.obj
 0001:00046a30       ?GetResourceState@ParticleSystemNode@Particles@@UBE?AW4State@Resource@Resources@@XZ 00447a30 f   render_win32.release:particlesystemnode.obj
 0001:00046a80       ?OnResourcesLoaded@ParticleSystemNode@Particles@@UAEXXZ 00447a80 f   render_win32.release:particlesystemnode.obj
 0001:00046b40       ?ParseEnvelopeCurveData@ParticleSystemNode@Particles@@ABE?AVEnvelopeCurve@2@ABV?$Ptr@VBinaryReader@IO@@@@@Z 00447b40 f   render_win32.release:particlesystemnode.obj
 0001:00046c60       ?ParseDataTag@ParticleSystemNode@Particles@@UAE_NABVFourCC@Util@@ABV?$Ptr@VBinaryReader@IO@@@@@Z 00447c60 f   render_win32.release:particlesystemnode.obj
 0001:000479c0       ??0?$Ptr@VParticleSystem@Particles@@@@QAE@XZ 004489c0 f i render_win32.release:particlesystemnode.obj
 0001:000479e0       ??1?$Ptr@VParticleSystem@Particles@@@@QAE@XZ 004489e0 f i render_win32.release:particlesystemnode.obj
 0001:00047a10       ??4?$Ptr@VParticleSystem@Particles@@@@QAEXPAVParticleSystem@Particles@@@Z 00448a10 f i render_win32.release:particlesystemnode.obj
 0001:00047a70       ??C?$Ptr@VParticleSystem@Particles@@@@QBEPAVParticleSystem@Particles@@XZ 00448a70 f i render_win32.release:particlesystemnode.obj
 0001:00047ab0       ?isvalid@?$Ptr@VParticleSystem@Particles@@@@QBE_NXZ 00448ab0 f i render_win32.release:particlesystemnode.obj
 0001:00047ad0       ??0?$Ptr@VStreamMeshLoader@CoreGraphics@@@@QAE@PAVStreamMeshLoader@CoreGraphics@@@Z 00448ad0 f i render_win32.release:particlesystemnode.obj
 0001:00047b10       ??1?$Ptr@VStreamMeshLoader@CoreGraphics@@@@QAE@XZ 00448b10 f i render_win32.release:particlesystemnode.obj
 0001:00047b40       ??C?$Ptr@VStreamMeshLoader@CoreGraphics@@@@QBEPAVStreamMeshLoader@CoreGraphics@@XZ 00448b40 f i render_win32.release:particlesystemnode.obj
 0001:00047b80       ??$upcast@VResourceLoader@Resources@@@?$Ptr@VStreamMeshLoader@CoreGraphics@@@@QBEABV?$Ptr@VResourceLoader@Resources@@@@XZ 00448b80 f i render_win32.release:particlesystemnode.obj
 0001:00047b90       ?SetClearColor@RenderTargetBase@Base@@QAEXABVfloat4@Math@@@Z 00448b90 f i render_win32.release:framepass.obj
 0001:00047bc0       ?SetClearDepth@RenderTargetBase@Base@@QAEXM@Z 00448bc0 f i render_win32.release:framepass.obj
 0001:00047be0       ?SetClearStencil@RenderTargetBase@Base@@QAEXE@Z 00448be0 f i render_win32.release:framepass.obj
 0001:00047c00       ?SetClearFlags@RenderTargetBase@Base@@QAEXI@Z 00448c00 f i render_win32.release:framepass.obj
 0001:00047c20       ??2FramePass@Frame@@SAPAXI@Z 00448c20 f i render_win32.release:framepass.obj
 0001:00047c30       ??3FramePass@Frame@@SAXPAX@Z 00448c30 f i render_win32.release:framepass.obj
 0001:00047c50       ?Instance@RenderDevice@CoreGraphics@@SAPAV12@XZ 00448c50 f i render_win32.release:framepass.obj
 0001:00047c90       ?GetRtti@FramePass@Frame@@UBEPAVRtti@Core@@XZ 00448c90 f   render_win32.release:framepass.obj
 0001:00047ca0       ?FactoryCreator@FramePass@Frame@@SAPAVRefCounted@Core@@XZ 00448ca0 f   render_win32.release:framepass.obj
 0001:00047cb0       ?Create@FramePass@Frame@@SAPAV12@XZ 00448cb0 f   render_win32.release:framepass.obj
 0001:00047cf0       ?RegisterWithFactory@FramePass@Frame@@SA_NXZ 00448cf0 f   render_win32.release:framepass.obj
 0001:00047df0       ??0FramePass@Frame@@QAE@XZ 00448df0 f   render_win32.release:framepass.obj
 0001:00047e20       ??_GFramePass@Frame@@UAEPAXI@Z 00448e20 f i render_win32.release:framepass.obj
 0001:00047e20       ??_EFramePass@Frame@@UAEPAXI@Z 00448e20 f i  CIL library: CIL module
 0001:00047e50       ??1FramePass@Frame@@UAE@XZ 00448e50 f   render_win32.release:framepass.obj
 0001:00047e80       ?Discard@FramePass@Frame@@UAEXXZ 00448e80 f   render_win32.release:framepass.obj
 0001:00047ec0       ?Render@FramePass@Frame@@UAEXXZ 00448ec0 f   render_win32.release:framepass.obj
 0001:00048160       ?SetFramePassDebugTimer@FramePass@Frame@@QAEXABVString@Util@@@Z 00449160 f   render_win32.release:framepass.obj
 0001:000481c0       ??C?$Ptr@VRenderTarget@CoreGraphics@@@@QBEPAVRenderTarget@CoreGraphics@@XZ 004491c0 f i render_win32.release:framepass.obj
 0001:00048200       ?isvalid@?$Ptr@VRenderTarget@CoreGraphics@@@@QBE_NXZ 00449200 f i render_win32.release:framepass.obj
 0001:00048220       ??A?$Array@V?$Ptr@VShaderVariableInstance@CoreGraphics@@@@@Util@@QBEAAV?$Ptr@VShaderVariableInstance@CoreGraphics@@@@H@Z 00449220 f i render_win32.release:framepass.obj
 0001:00048270       ?Size@?$Array@V?$Ptr@VShaderVariableInstance@CoreGraphics@@@@@Util@@QBEHXZ 00449270 f i render_win32.release:framepass.obj
 0001:00048290       ?isvalid@?$Ptr@VMultipleRenderTarget@CoreGraphics@@@@QBE_NXZ 00449290 f i render_win32.release:framepass.obj
 0001:000482b0       ??A?$Array@V?$Ptr@VFrameBatch@Frame@@@@@Util@@QBEAAV?$Ptr@VFrameBatch@Frame@@@@H@Z 004492b0 f i render_win32.release:framepass.obj
 0001:00048300       ?Size@?$Array@V?$Ptr@VFrameBatch@Frame@@@@@Util@@QBEHXZ 00449300 f i render_win32.release:framepass.obj
 0001:00048320       ??C?$Ptr@VFrameBatch@Frame@@@@QBEPAVFrameBatch@Frame@@XZ 00449320 f i render_win32.release:framepass.obj
 0001:00048360       ??3D3D9StreamTextureLoader@Direct3D9@@SAXPAX@Z 00449360 f i render_win32.release:streamtextureloader.obj
 0001:00048380       ??2StreamTextureLoader@CoreGraphics@@SAPAXI@Z 00449380 f i render_win32.release:streamtextureloader.obj
 0001:00048390       ??3StreamTextureLoader@CoreGraphics@@SAXPAX@Z 00449390 f i render_win32.release:streamtextureloader.obj
 0001:000483b0       ?GetRtti@StreamTextureLoader@CoreGraphics@@UBEPAVRtti@Core@@XZ 004493b0 f   render_win32.release:streamtextureloader.obj
 0001:000483c0       ?FactoryCreator@StreamTextureLoader@CoreGraphics@@SAPAVRefCounted@Core@@XZ 004493c0 f   render_win32.release:streamtextureloader.obj
 0001:000483d0       ?Create@StreamTextureLoader@CoreGraphics@@SAPAV12@XZ 004493d0 f   render_win32.release:streamtextureloader.obj
 0001:00048420       ??0StreamTextureLoader@CoreGraphics@@QAE@XZ 00449420 f i render_win32.release:streamtextureloader.obj
 0001:00048450       ??_EStreamTextureLoader@CoreGraphics@@UAEPAXI@Z 00449450 f i  CIL library: CIL module
 0001:00048450       ??_GStreamTextureLoader@CoreGraphics@@UAEPAXI@Z 00449450 f i render_win32.release:streamtextureloader.obj
 0001:00048480       ??0D3D9StreamTextureLoader@Direct3D9@@QAE@XZ 00449480 f i render_win32.release:streamtextureloader.obj
 0001:000484a0       ??1D3D9StreamTextureLoader@Direct3D9@@UAE@XZ 004494a0 f i render_win32.release:streamtextureloader.obj
 0001:000484c0       ??1StreamTextureLoader@CoreGraphics@@UAE@XZ 004494c0 f i render_win32.release:streamtextureloader.obj
 0001:000484e0       ??_GD3D9StreamTextureLoader@Direct3D9@@UAEPAXI@Z 004494e0 f i render_win32.release:streamtextureloader.obj
 0001:000484e0       ??_ED3D9StreamTextureLoader@Direct3D9@@UAEPAXI@Z 004494e0 f i  CIL library: CIL module
 0001:00048510       ?RegisterWithFactory@StreamTextureLoader@CoreGraphics@@SA_NXZ 00449510 f   render_win32.release:streamtextureloader.obj
 0001:00048610       ??2StreamMeshLoader@CoreGraphics@@SAPAXI@Z 00449610 f i render_win32.release:streammeshloader.obj
 0001:00048620       ??3StreamMeshLoader@CoreGraphics@@SAXPAX@Z 00449620 f i render_win32.release:streammeshloader.obj
 0001:00048640       ?GetRtti@StreamMeshLoader@CoreGraphics@@UBEPAVRtti@Core@@XZ 00449640 f   render_win32.release:streammeshloader.obj
 0001:00048650       ?FactoryCreator@StreamMeshLoader@CoreGraphics@@SAPAVRefCounted@Core@@XZ 00449650 f   render_win32.release:streammeshloader.obj
 0001:00048660       ?Create@StreamMeshLoader@CoreGraphics@@SAPAV12@XZ 00449660 f   render_win32.release:streammeshloader.obj
 0001:000486a0       ??0StreamMeshLoader@CoreGraphics@@QAE@XZ 004496a0 f i render_win32.release:streammeshloader.obj
 0001:000486c0       ??_GStreamMeshLoader@CoreGraphics@@UAEPAXI@Z 004496c0 f i render_win32.release:streammeshloader.obj
 0001:000486c0       ??_EStreamMeshLoader@CoreGraphics@@UAEPAXI@Z 004496c0 f i  CIL library: CIL module
 0001:000486f0       ??1D3D9StreamMeshLoader@Win360@@UAE@XZ 004496f0 f i render_win32.release:streammeshloader.obj
 0001:00048710       ??1StreamMeshLoader@CoreGraphics@@UAE@XZ 00449710 f i render_win32.release:streammeshloader.obj
 0001:00048730       ?RegisterWithFactory@StreamMeshLoader@CoreGraphics@@SA_NXZ 00449730 f   render_win32.release:streammeshloader.obj
 0001:00048830       ??0StringAtom@Util@@QAE@PAD@Z 00449830 f i render_win32.release:streamanimationloader.obj
 0001:00048860       ??2StreamAnimationLoader@CoreAnimation@@SAPAXI@Z 00449860 f i render_win32.release:streamanimationloader.obj
 0001:00048870       ??3StreamAnimationLoader@CoreAnimation@@SAXPAX@Z 00449870 f i render_win32.release:streamanimationloader.obj
 0001:00048890       ?SetActive@AnimCurve@CoreAnimation@@QAEX_N@Z 00449890 f i render_win32.release:streamanimationloader.obj
 0001:000488b0       ?SetStatic@AnimCurve@CoreAnimation@@QAEX_N@Z 004498b0 f i render_win32.release:streamanimationloader.obj
 0001:000488d0       ?SetStaticKey@AnimCurve@CoreAnimation@@QAEXABVfloat4@Math@@@Z 004498d0 f i render_win32.release:streamanimationloader.obj
 0001:000488f0       ?SetFirstKeyIndex@AnimCurve@CoreAnimation@@QAEXH@Z 004498f0 f i render_win32.release:streamanimationloader.obj
 0001:00048910       ?SetCurveType@AnimCurve@CoreAnimation@@QAEXW4Code@CurveType@2@@Z 00449910 f i render_win32.release:streamanimationloader.obj
 0001:00048930       ??0AnimEvent@CoreAnimation@@QAE@ABVStringAtom@Util@@0H@Z 00449930 f i render_win32.release:streamanimationloader.obj
 0001:00048970       ?SetName@AnimClip@CoreAnimation@@QAEXABVStringAtom@Util@@@Z 00449970 f i render_win32.release:streamanimationloader.obj
 0001:00048990       ?SetNumKeys@AnimClip@CoreAnimation@@QAEXH@Z 00449990 f i render_win32.release:streamanimationloader.obj
 0001:000489b0       ?SetKeyStride@AnimClip@CoreAnimation@@QAEXH@Z 004499b0 f i render_win32.release:streamanimationloader.obj
 0001:000489d0       ?SetKeyDuration@AnimClip@CoreAnimation@@QAEXH@Z 004499d0 f i render_win32.release:streamanimationloader.obj
 0001:000489f0       ?GetKeyDuration@AnimClip@CoreAnimation@@QBEHXZ 004499f0 f i render_win32.release:streamanimationloader.obj
 0001:00048a10       ?SetPreInfinityType@AnimClip@CoreAnimation@@QAEXW4Code@InfinityType@2@@Z 00449a10 f i render_win32.release:streamanimationloader.obj
 0001:00048a30       ?SetPostInfinityType@AnimClip@CoreAnimation@@QAEXW4Code@InfinityType@2@@Z 00449a30 f i render_win32.release:streamanimationloader.obj
 0001:00048a50       ?SetStartKeyIndex@AnimClip@CoreAnimation@@QAEXH@Z 00449a50 f i render_win32.release:streamanimationloader.obj
 0001:00048a70       ?GetByteSize@AnimKeyBuffer@CoreAnimation@@QBEHXZ 00449a70 f i render_win32.release:streamanimationloader.obj
 0001:00048a90       ?GetRtti@StreamAnimationLoader@CoreAnimation@@UBEPAVRtti@Core@@XZ 00449a90 f   render_win32.release:streamanimationloader.obj
 0001:00048aa0       ?FactoryCreator@StreamAnimationLoader@CoreAnimation@@SAPAVRefCounted@Core@@XZ 00449aa0 f   render_win32.release:streamanimationloader.obj
 0001:00048ab0       ?Create@StreamAnimationLoader@CoreAnimation@@SAPAV12@XZ 00449ab0 f   render_win32.release:streamanimationloader.obj
 0001:00048af0       ??0StreamAnimationLoader@CoreAnimation@@QAE@XZ 00449af0 f i render_win32.release:streamanimationloader.obj
 0001:00048b10       ??_EStreamAnimationLoader@CoreAnimation@@UAEPAXI@Z 00449b10 f i  CIL library: CIL module
 0001:00048b10       ??_GStreamAnimationLoader@CoreAnimation@@UAEPAXI@Z 00449b10 f i render_win32.release:streamanimationloader.obj
 0001:00048b40       ??1StreamAnimationLoader@CoreAnimation@@UAE@XZ 00449b40 f i render_win32.release:streamanimationloader.obj
 0001:00048b60       ?RegisterWithFactory@StreamAnimationLoader@CoreAnimation@@SA_NXZ 00449b60 f   render_win32.release:streamanimationloader.obj
 0001:00048c60       ?SetupResourceFromStream@StreamAnimationLoader@CoreAnimation@@MAE_NABV?$Ptr@VStream@IO@@@@@Z 00449c60 f   render_win32.release:streamanimationloader.obj
 0001:00048cd0       ?SetupFromNax3@StreamAnimationLoader@CoreAnimation@@IAE_NABV?$Ptr@VStream@IO@@@@@Z 00449cd0 f   render_win32.release:streamanimationloader.obj
 0001:00049490       ?isvalid@?$Ptr@VStream@IO@@@@QBE_NXZ 0044a490 f i render_win32.release:streamanimationloader.obj
 0001:000494b0       ?GetAntiAliasQuality@DisplaySettings@Graphics@@QBE?AW4Code@AntiAliasQuality@CoreGraphics@@XZ 0044a4b0 f i render_win32.release:display.obj
 0001:000494d0       ?GetAdapter@DisplaySettings@Graphics@@QBE?AW4Code@Adapter@CoreGraphics@@XZ 0044a4d0 f i render_win32.release:display.obj
 0001:000494e0       ?IsAutoAdjustSize@DisplaySettings@Graphics@@QBE_NXZ 0044a4e0 f i render_win32.release:display.obj
 0001:00049500       ?IsFullscreen@DisplaySettings@Graphics@@QBE_NXZ 0044a500 f i render_win32.release:display.obj
 0001:00049520       ?IsDisplayModeSwitchEnabled@DisplaySettings@Graphics@@QBE_NXZ 0044a520 f i render_win32.release:display.obj
 0001:00049540       ?IsTripleBufferingEnabled@DisplaySettings@Graphics@@QBE_NXZ 0044a540 f i render_win32.release:display.obj
 0001:00049560       ?IsAlwaysOnTop@DisplaySettings@Graphics@@QBE_NXZ 0044a560 f i render_win32.release:display.obj
 0001:00049580       ?IsVerticalSyncEnabled@DisplaySettings@Graphics@@QBE_NXZ 0044a580 f i render_win32.release:display.obj
 0001:000495a0       ?GetIconName@DisplaySettings@Graphics@@QBEABVString@Util@@XZ 0044a5a0 f i render_win32.release:display.obj
 0001:000495c0       ?GetWindowTitle@DisplaySettings@Graphics@@QBEABVString@Util@@XZ 0044a5c0 f i render_win32.release:display.obj
 0001:000495e0       ??2Display@Graphics@@SAPAXI@Z 0044a5e0 f i render_win32.release:display.obj
 0001:000495f0       ??3Display@Graphics@@SAXPAX@Z 0044a5f0 f i render_win32.release:display.obj
 0001:00049610       ?SetAdapter@SetupGraphics@Graphics@@QAEXABW4Code@Adapter@CoreGraphics@@@Z 0044a610 f i render_win32.release:display.obj
 0001:00049650       ?SetDisplayMode@SetupGraphics@Graphics@@QAEXABVDisplayMode@CoreGraphics@@@Z 0044a650 f i render_win32.release:display.obj
 0001:000496b0       ?SetAntiAliasQuality@SetupGraphics@Graphics@@QAEXABW4Code@AntiAliasQuality@CoreGraphics@@@Z 0044a6b0 f i render_win32.release:display.obj
 0001:000496f0       ?SetFullscreen@SetupGraphics@Graphics@@QAEX_N@Z 0044a6f0 f i render_win32.release:display.obj
 0001:00049730       ?SetAutoAdjustSize@SetupGraphics@Graphics@@QAEX_N@Z 0044a730 f i render_win32.release:display.obj
 0001:00049770       ?SetDisplayModeSwitchEnabled@SetupGraphics@Graphics@@QAEX_N@Z 0044a770 f i render_win32.release:display.obj
 0001:000497b0       ?SetTripleBufferingEnabled@SetupGraphics@Graphics@@QAEX_N@Z 0044a7b0 f i render_win32.release:display.obj
 0001:000497f0       ?SetAlwaysOnTop@SetupGraphics@Graphics@@QAEX_N@Z 0044a7f0 f i render_win32.release:display.obj
 0001:00049830       ?SetVerticalSyncEnabled@SetupGraphics@Graphics@@QAEX_N@Z 0044a830 f i render_win32.release:display.obj
 0001:00049870       ?SetIconName@SetupGraphics@Graphics@@QAEXABVString@Util@@@Z 0044a870 f i render_win32.release:display.obj
 0001:000498e0       ?SetWindowTitle@SetupGraphics@Graphics@@QAEXABVString@Util@@@Z 0044a8e0 f i render_win32.release:display.obj
 0001:00049950       ?SetParentWindow@SetupGraphics@Graphics@@QAEXPAX@Z 0044a950 f i render_win32.release:display.obj
 0001:00049990       ?SetResourceMappers@SetupGraphics@Graphics@@QAEXABV?$Array@V?$Ptr@VResourceMapper@Resources@@@@@Util@@@Z 0044a990 f i render_win32.release:display.obj
 0001:000499d0       ?GetActualDisplayMode@SetupGraphics@Graphics@@QBEABVDisplayMode@CoreGraphics@@XZ 0044a9d0 f i render_win32.release:display.obj
 0001:00049a10       ?GetActualFullscreen@SetupGraphics@Graphics@@QBE_NXZ 0044aa10 f i render_win32.release:display.obj
 0001:00049a50       ?GetActualAdapter@SetupGraphics@Graphics@@QBEABW4Code@Adapter@CoreGraphics@@XZ 0044aa50 f i render_win32.release:display.obj
 0001:00049a90       ?SetAdapter@AdapterExists@Graphics@@QAEXABW4Code@Adapter@CoreGraphics@@@Z 0044aa90 f i render_win32.release:display.obj
 0001:00049ad0       ?GetResult@AdapterExists@Graphics@@QBE_NXZ 0044aad0 f i render_win32.release:display.obj
 0001:00049b10       ?SetAdapter@GetAvailableDisplayModes@Graphics@@QAEXABW4Code@Adapter@CoreGraphics@@@Z 0044ab10 f i render_win32.release:display.obj
 0001:00049b50       ?SetPixelFormat@GetAvailableDisplayModes@Graphics@@QAEXABW4Code@PixelFormat@CoreGraphics@@@Z 0044ab50 f i render_win32.release:display.obj
 0001:00049b90       ?GetResult@GetAvailableDisplayModes@Graphics@@QBEABV?$Array@VDisplayMode@CoreGraphics@@@Util@@XZ 0044ab90 f i render_win32.release:display.obj
 0001:00049bd0       ?SetAdapter@SupportsDisplayMode@Graphics@@QAEXABW4Code@Adapter@CoreGraphics@@@Z 0044abd0 f i render_win32.release:display.obj
 0001:00049c10       ?SetDisplayMode@SupportsDisplayMode@Graphics@@QAEXABVDisplayMode@CoreGraphics@@@Z 0044ac10 f i render_win32.release:display.obj
 0001:00049c70       ?GetResult@SupportsDisplayMode@Graphics@@QBE_NXZ 0044ac70 f i render_win32.release:display.obj
 0001:00049cb0       ?SetAdapter@GetCurrentAdapterDisplayMode@Graphics@@QAEXABW4Code@Adapter@CoreGraphics@@@Z 0044acb0 f i render_win32.release:display.obj
 0001:00049cf0       ?GetResult@GetCurrentAdapterDisplayMode@Graphics@@QBEABVDisplayMode@CoreGraphics@@XZ 0044acf0 f i render_win32.release:display.obj
 0001:00049d30       ?SetAdapter@GetAdapterInfo@Graphics@@QAEXABW4Code@Adapter@CoreGraphics@@@Z 0044ad30 f i render_win32.release:display.obj
 0001:00049d70       ?GetResult@GetAdapterInfo@Graphics@@QBEABVAdapterInfo@CoreGraphics@@XZ 0044ad70 f i render_win32.release:display.obj
 0001:00049db0       ??1AdapterInfo@CoreGraphics@@QAE@XZ 0044adb0 f i render_win32.release:display.obj
 0001:00049e90       ?SetHandler@AttachDisplayEventHandler@Graphics@@QAEXABV?$Ptr@VThreadSafeDisplayEventHandler@CoreGraphics@@@@@Z 0044ae90 f i render_win32.release:display.obj
 0001:00049ed0       ?SetHandler@RemoveDisplayEventHandler@Graphics@@QAEXABV?$Ptr@VThreadSafeDisplayEventHandler@CoreGraphics@@@@@Z 0044aed0 f i render_win32.release:display.obj
 0001:00049f10       ?SetHandler@AttachRenderEventHandler@Graphics@@QAEXABV?$Ptr@VThreadSafeRenderEventHandler@CoreGraphics@@@@@Z 0044af10 f i render_win32.release:display.obj
 0001:00049f50       ?SetHandler@RemoveRenderEventHandler@Graphics@@QAEXABV?$Ptr@VThreadSafeRenderEventHandler@CoreGraphics@@@@@Z 0044af50 f i render_win32.release:display.obj
 0001:00049f90       ?GetRtti@Display@Graphics@@UBEPAVRtti@Core@@XZ 0044af90 f   render_win32.release:display.obj
 0001:00049fa0       ?FactoryCreator@Display@Graphics@@SAPAVRefCounted@Core@@XZ 0044afa0 f   render_win32.release:display.obj
 0001:00049fb0       ?Create@Display@Graphics@@SAPAV12@XZ 0044afb0 f   render_win32.release:display.obj
 0001:00049ff0       ?RegisterWithFactory@Display@Graphics@@SA_NXZ 0044aff0 f   render_win32.release:display.obj
 0001:0004a0f0       ??0Display@Graphics@@QAE@XZ 0044b0f0 f   render_win32.release:display.obj
 0001:0004a180       ??_EDisplay@Graphics@@UAEPAXI@Z 0044b180 f i  CIL library: CIL module
 0001:0004a180       ??_GDisplay@Graphics@@UAEPAXI@Z 0044b180 f i render_win32.release:display.obj
 0001:0004a1b0       ??1DisplaySettings@Graphics@@QAE@XZ 0044b1b0 f i render_win32.release:display.obj
 0001:0004a250       ??1Display@Graphics@@UAE@XZ 0044b250 f   render_win32.release:display.obj
 0001:0004a2e0       ?Open@Display@Graphics@@QAEXXZ 0044b2e0 f   render_win32.release:display.obj
 0001:0004a7e0       ?Close@Display@Graphics@@QAEXXZ 0044b7e0 f   render_win32.release:display.obj
 0001:0004a820       ?AdapterExists@Display@Graphics@@QAE_NW4Code@Adapter@CoreGraphics@@@Z 0044b820 f   render_win32.release:display.obj
 0001:0004a920       ?GetAvailableDisplayModes@Display@Graphics@@QAE?AV?$Array@VDisplayMode@CoreGraphics@@@Util@@W4Code@Adapter@CoreGraphics@@W45PixelFormat@7@@Z 0044b920 f   render_win32.release:display.obj
 0001:0004aa60       ?SupportsDisplayMode@Display@Graphics@@QAE_NW4Code@Adapter@CoreGraphics@@ABVDisplayMode@5@@Z 0044ba60 f   render_win32.release:display.obj
 0001:0004abc0       ?AdjustSize@Display@Graphics@@QAEXXZ 0044bbc0 f   render_win32.release:display.obj
 0001:0004ac20       ?GetCurrentAdapterDisplayMode@Display@Graphics@@QAE?AVDisplayMode@CoreGraphics@@W4Code@Adapter@4@@Z 0044bc20 f   render_win32.release:display.obj
 0001:0004ad50       ?GetAdapterInfo@Display@Graphics@@QAE?AVAdapterInfo@CoreGraphics@@W4Code@Adapter@4@@Z 0044bd50 f   render_win32.release:display.obj
 0001:0004ae60       ??0AdapterInfo@CoreGraphics@@QAE@ABV01@@Z 0044be60 f i render_win32.release:display.obj
 0001:0004aff0       ?AttachDisplayEventHandler@Display@Graphics@@QAEXABV?$Ptr@VThreadSafeDisplayEventHandler@CoreGraphics@@@@@Z 0044bff0 f   render_win32.release:display.obj
 0001:0004b0b0       ?RemoveDisplayEventHandler@Display@Graphics@@QAEXABV?$Ptr@VThreadSafeDisplayEventHandler@CoreGraphics@@@@@Z 0044c0b0 f   render_win32.release:display.obj
 0001:0004b170       ?AttachRenderEventHandler@Display@Graphics@@QAEXABV?$Ptr@VThreadSafeRenderEventHandler@CoreGraphics@@@@@Z 0044c170 f   render_win32.release:display.obj
 0001:0004b230       ?RemoveRenderEventHandler@Display@Graphics@@QAEXABV?$Ptr@VThreadSafeRenderEventHandler@CoreGraphics@@@@@Z 0044c230 f   render_win32.release:display.obj
 0001:0004b2f0       ?IsEmpty@?$Array@V?$Ptr@VResourceMapper@Resources@@@@@Util@@QBE_NXZ 0044c2f0 f i render_win32.release:display.obj
 0001:0004b310       ?Clear@?$Array@V?$Ptr@VResourceMapper@Resources@@@@@Util@@QAEXXZ 0044c310 f i render_win32.release:display.obj
 0001:0004b360       ??0?$Array@VDisplayMode@CoreGraphics@@@Util@@QAE@ABV01@@Z 0044c360 f i render_win32.release:display.obj
 0001:0004b3b0       ??1?$Array@VDisplayMode@CoreGraphics@@@Util@@QAE@XZ 0044c3b0 f i render_win32.release:display.obj
 0001:0004b3d0       ??4?$Ptr@VThreadSafeDisplayEventHandler@CoreGraphics@@@@QAEXABV0@@Z 0044c3d0 f i render_win32.release:display.obj
 0001:0004b430       ??4?$Ptr@VThreadSafeRenderEventHandler@CoreGraphics@@@@QAEXABV0@@Z 0044c430 f i render_win32.release:display.obj
 0001:0004b490       ??0?$Ptr@VSetupGraphics@Graphics@@@@QAE@PAVSetupGraphics@Graphics@@@Z 0044c490 f i render_win32.release:display.obj
 0001:0004b4d0       ??1?$Ptr@VSetupGraphics@Graphics@@@@QAE@XZ 0044c4d0 f i render_win32.release:display.obj
 0001:0004b500       ??C?$Ptr@VSetupGraphics@Graphics@@@@QBEPAVSetupGraphics@Graphics@@XZ 0044c500 f i render_win32.release:display.obj
 0001:0004b540       ??$cast@VMessage@Messaging@@@?$Ptr@VSetupGraphics@Graphics@@@@QBEABV?$Ptr@VMessage@Messaging@@@@XZ 0044c540 f i render_win32.release:display.obj
 0001:0004b550       ??0?$Ptr@VAdapterExists@Graphics@@@@QAE@PAVAdapterExists@Graphics@@@Z 0044c550 f i render_win32.release:display.obj
 0001:0004b590       ??1?$Ptr@VAdapterExists@Graphics@@@@QAE@XZ 0044c590 f i render_win32.release:display.obj
 0001:0004b5c0       ??C?$Ptr@VAdapterExists@Graphics@@@@QBEPAVAdapterExists@Graphics@@XZ 0044c5c0 f i render_win32.release:display.obj
 0001:0004b600       ??$cast@VMessage@Messaging@@@?$Ptr@VAdapterExists@Graphics@@@@QBEABV?$Ptr@VMessage@Messaging@@@@XZ 0044c600 f i render_win32.release:display.obj
 0001:0004b610       ??0?$Ptr@VGetAvailableDisplayModes@Graphics@@@@QAE@PAVGetAvailableDisplayModes@Graphics@@@Z 0044c610 f i render_win32.release:display.obj
 0001:0004b650       ??1?$Ptr@VGetAvailableDisplayModes@Graphics@@@@QAE@XZ 0044c650 f i render_win32.release:display.obj
 0001:0004b680       ??C?$Ptr@VGetAvailableDisplayModes@Graphics@@@@QBEPAVGetAvailableDisplayModes@Graphics@@XZ 0044c680 f i render_win32.release:display.obj
 0001:0004b6c0       ??$cast@VMessage@Messaging@@@?$Ptr@VGetAvailableDisplayModes@Graphics@@@@QBEABV?$Ptr@VMessage@Messaging@@@@XZ 0044c6c0 f i render_win32.release:display.obj
 0001:0004b6d0       ??0?$Ptr@VSupportsDisplayMode@Graphics@@@@QAE@PAVSupportsDisplayMode@Graphics@@@Z 0044c6d0 f i render_win32.release:display.obj
 0001:0004b710       ??1?$Ptr@VSupportsDisplayMode@Graphics@@@@QAE@XZ 0044c710 f i render_win32.release:display.obj
 0001:0004b740       ??C?$Ptr@VSupportsDisplayMode@Graphics@@@@QBEPAVSupportsDisplayMode@Graphics@@XZ 0044c740 f i render_win32.release:display.obj
 0001:0004b780       ??$cast@VMessage@Messaging@@@?$Ptr@VSupportsDisplayMode@Graphics@@@@QBEABV?$Ptr@VMessage@Messaging@@@@XZ 0044c780 f i render_win32.release:display.obj
 0001:0004b790       ??0?$Ptr@VAdjustDisplaySize@Graphics@@@@QAE@PAVAdjustDisplaySize@Graphics@@@Z 0044c790 f i render_win32.release:display.obj
 0001:0004b7d0       ??1?$Ptr@VAdjustDisplaySize@Graphics@@@@QAE@XZ 0044c7d0 f i render_win32.release:display.obj
 0001:0004b800       ??$cast@VMessage@Messaging@@@?$Ptr@VAdjustDisplaySize@Graphics@@@@QBEABV?$Ptr@VMessage@Messaging@@@@XZ 0044c800 f i render_win32.release:display.obj
 0001:0004b810       ??0?$Ptr@VGetCurrentAdapterDisplayMode@Graphics@@@@QAE@PAVGetCurrentAdapterDisplayMode@Graphics@@@Z 0044c810 f i render_win32.release:display.obj
 0001:0004b850       ??1?$Ptr@VGetCurrentAdapterDisplayMode@Graphics@@@@QAE@XZ 0044c850 f i render_win32.release:display.obj
 0001:0004b880       ??C?$Ptr@VGetCurrentAdapterDisplayMode@Graphics@@@@QBEPAVGetCurrentAdapterDisplayMode@Graphics@@XZ 0044c880 f i render_win32.release:display.obj
 0001:0004b8c0       ??$cast@VMessage@Messaging@@@?$Ptr@VGetCurrentAdapterDisplayMode@Graphics@@@@QBEABV?$Ptr@VMessage@Messaging@@@@XZ 0044c8c0 f i render_win32.release:display.obj
 0001:0004b8d0       ??0?$Ptr@VGetAdapterInfo@Graphics@@@@QAE@PAVGetAdapterInfo@Graphics@@@Z 0044c8d0 f i render_win32.release:display.obj
 0001:0004b910       ??1?$Ptr@VGetAdapterInfo@Graphics@@@@QAE@XZ 0044c910 f i render_win32.release:display.obj
 0001:0004b940       ??C?$Ptr@VGetAdapterInfo@Graphics@@@@QBEPAVGetAdapterInfo@Graphics@@XZ 0044c940 f i render_win32.release:display.obj
 0001:0004b980       ??$cast@VMessage@Messaging@@@?$Ptr@VGetAdapterInfo@Graphics@@@@QBEABV?$Ptr@VMessage@Messaging@@@@XZ 0044c980 f i render_win32.release:display.obj
 0001:0004b990       ??0?$Ptr@VAttachDisplayEventHandler@Graphics@@@@QAE@PAVAttachDisplayEventHandler@Graphics@@@Z 0044c990 f i render_win32.release:display.obj
 0001:0004b9d0       ??1?$Ptr@VAttachDisplayEventHandler@Graphics@@@@QAE@XZ 0044c9d0 f i render_win32.release:display.obj
 0001:0004ba00       ??C?$Ptr@VAttachDisplayEventHandler@Graphics@@@@QBEPAVAttachDisplayEventHandler@Graphics@@XZ 0044ca00 f i render_win32.release:display.obj
 0001:0004ba40       ??$cast@VMessage@Messaging@@@?$Ptr@VAttachDisplayEventHandler@Graphics@@@@QBEABV?$Ptr@VMessage@Messaging@@@@XZ 0044ca40 f i render_win32.release:display.obj
 0001:0004ba50       ??0?$Ptr@VRemoveDisplayEventHandler@Graphics@@@@QAE@PAVRemoveDisplayEventHandler@Graphics@@@Z 0044ca50 f i render_win32.release:display.obj
 0001:0004ba90       ??1?$Ptr@VRemoveDisplayEventHandler@Graphics@@@@QAE@XZ 0044ca90 f i render_win32.release:display.obj
 0001:0004bac0       ??C?$Ptr@VRemoveDisplayEventHandler@Graphics@@@@QBEPAVRemoveDisplayEventHandler@Graphics@@XZ 0044cac0 f i render_win32.release:display.obj
 0001:0004bb00       ??$cast@VMessage@Messaging@@@?$Ptr@VRemoveDisplayEventHandler@Graphics@@@@QBEABV?$Ptr@VMessage@Messaging@@@@XZ 0044cb00 f i render_win32.release:display.obj
 0001:0004bb10       ??0?$Ptr@VAttachRenderEventHandler@Graphics@@@@QAE@PAVAttachRenderEventHandler@Graphics@@@Z 0044cb10 f i render_win32.release:display.obj
 0001:0004bb50       ??1?$Ptr@VAttachRenderEventHandler@Graphics@@@@QAE@XZ 0044cb50 f i render_win32.release:display.obj
 0001:0004bb80       ??C?$Ptr@VAttachRenderEventHandler@Graphics@@@@QBEPAVAttachRenderEventHandler@Graphics@@XZ 0044cb80 f i render_win32.release:display.obj
 0001:0004bbc0       ??$cast@VMessage@Messaging@@@?$Ptr@VAttachRenderEventHandler@Graphics@@@@QBEABV?$Ptr@VMessage@Messaging@@@@XZ 0044cbc0 f i render_win32.release:display.obj
 0001:0004bbd0       ??0?$Ptr@VRemoveRenderEventHandler@Graphics@@@@QAE@PAVRemoveRenderEventHandler@Graphics@@@Z 0044cbd0 f i render_win32.release:display.obj
 0001:0004bc10       ??1?$Ptr@VRemoveRenderEventHandler@Graphics@@@@QAE@XZ 0044cc10 f i render_win32.release:display.obj
 0001:0004bc40       ??C?$Ptr@VRemoveRenderEventHandler@Graphics@@@@QBEPAVRemoveRenderEventHandler@Graphics@@XZ 0044cc40 f i render_win32.release:display.obj
 0001:0004bc80       ??$cast@VMessage@Messaging@@@?$Ptr@VRemoveRenderEventHandler@Graphics@@@@QBEABV?$Ptr@VMessage@Messaging@@@@XZ 0044cc80 f i render_win32.release:display.obj
 0001:0004bc90       ?Copy@?$Array@VDisplayMode@CoreGraphics@@@Util@@AAEXABV12@@Z 0044cc90 f i render_win32.release:display.obj
 0001:0004be00       ?Delete@?$Array@VDisplayMode@CoreGraphics@@@Util@@AAEXXZ 0044ce00 f i render_win32.release:display.obj
 0001:0004be60       ?FromString@Adapter@CoreGraphics@@SA?AW4Code@12@ABVString@Util@@@Z 0044ce60 f   render_win32.release:adapter.obj
 0001:0004bf00       ?ToString@Adapter@CoreGraphics@@SA?AVString@Util@@W4Code@12@@Z 0044cf00 f   render_win32.release:adapter.obj
 0001:0004c010       ?FromString@AntiAliasQuality@CoreGraphics@@SA?AW4Code@12@ABVString@Util@@@Z 0044d010 f   render_win32.release:antialiasquality.obj
 0001:0004c0d0       ?ToString@AntiAliasQuality@CoreGraphics@@SA?AVString@Util@@W4Code@12@@Z 0044d0d0 f   render_win32.release:antialiasquality.obj
 0001:0004c230       ?GetName@Rtti@Core@@QBEABVString@Util@@XZ 0044d230 f i render_win32.release:simpleresourcemapper.obj
 0001:0004c240       ?IsInstanceOf@RefCounted@Core@@QBE_NABVRtti@2@@Z 0044d240 f i render_win32.release:simpleresourcemapper.obj
 0001:0004c270       ?SetAsyncEnabled@Resource@Resources@@QAEX_N@Z 0044d270 f i render_win32.release:simpleresourcemapper.obj
 0001:0004c290       ?GetUseCount@Resource@Resources@@QBEHXZ 0044d290 f i render_win32.release:simpleresourcemapper.obj
 0001:0004c2b0       ?SetResourceId@Resource@Resources@@QAEXABVStringAtom@Util@@@Z 0044d2b0 f i render_win32.release:simpleresourcemapper.obj
 0001:0004c2d0       ?GetResourceId@Resource@Resources@@QBEABVStringAtom@Util@@XZ 0044d2d0 f i render_win32.release:simpleresourcemapper.obj
 0001:0004c2f0       ?LoadFailed@Resource@Resources@@QBE_NXZ 0044d2f0 f i render_win32.release:simpleresourcemapper.obj
 0001:0004c310       ?SetResourceId@ManagedResource@Resources@@QAEXABVStringAtom@Util@@@Z 0044d310 f i render_win32.release:simpleresourcemapper.obj
 0001:0004c330       ?GetResourceId@ManagedResource@Resources@@QBEABVStringAtom@Util@@XZ 0044d330 f i render_win32.release:simpleresourcemapper.obj
 0001:0004c350       ?SetResourceType@ManagedResource@Resources@@QAEXPBVRtti@Core@@@Z 0044d350 f i render_win32.release:simpleresourcemapper.obj
 0001:0004c390       ?GetResourceType@ManagedResource@Resources@@QBEPBVRtti@Core@@XZ 0044d390 f i render_win32.release:simpleresourcemapper.obj
 0001:0004c3d0       ?IncrClientCount@ManagedResource@Resources@@QAEXXZ 0044d3d0 f i render_win32.release:simpleresourcemapper.obj
 0001:0004c3f0       ?DecrClientCount@ManagedResource@Resources@@QAEXXZ 0044d3f0 f i render_win32.release:simpleresourcemapper.obj
 0001:0004c430       ?GetClientCount@ManagedResource@Resources@@QBEHXZ 0044d430 f i render_win32.release:simpleresourcemapper.obj
 0001:0004c450       ?SetResource@ManagedResource@Resources@@QAEXABV?$Ptr@VResource@Resources@@@@@Z 0044d450 f i render_win32.release:simpleresourcemapper.obj
 0001:0004c470       ?SetPlaceholder@ManagedResource@Resources@@QAEXABV?$Ptr@VResource@Resources@@@@@Z 0044d470 f i render_win32.release:simpleresourcemapper.obj
 0001:0004c490       ?GetResource@ManagedResource@Resources@@QBEABV?$Ptr@VResource@Resources@@@@XZ 0044d490 f i render_win32.release:simpleresourcemapper.obj
 0001:0004c4b0       ?Clear@ManagedResource@Resources@@QAEXXZ 0044d4b0 f i render_win32.release:simpleresourcemapper.obj
 0001:0004c4e0       ??2SimpleResourceMapper@Resources@@SAPAXI@Z 0044d4e0 f i render_win32.release:simpleresourcemapper.obj
 0001:0004c4f0       ??3SimpleResourceMapper@Resources@@SAXPAX@Z 0044d4f0 f i render_win32.release:simpleresourcemapper.obj
 0001:0004c510       ?GetRtti@SimpleResourceMapper@Resources@@UBEPAVRtti@Core@@XZ 0044d510 f   render_win32.release:simpleresourcemapper.obj
 0001:0004c520       ?FactoryCreator@SimpleResourceMapper@Resources@@SAPAVRefCounted@Core@@XZ 0044d520 f   render_win32.release:simpleresourcemapper.obj
 0001:0004c530       ?Create@SimpleResourceMapper@Resources@@SAPAV12@XZ 0044d530 f   render_win32.release:simpleresourcemapper.obj
 0001:0004c570       ?RegisterWithFactory@SimpleResourceMapper@Resources@@SA_NXZ 0044d570 f   render_win32.release:simpleresourcemapper.obj
 0001:0004c670       ??0SimpleResourceMapper@Resources@@QAE@XZ 0044d670 f   render_win32.release:simpleresourcemapper.obj
 0001:0004c6d0       ??_ESimpleResourceMapper@Resources@@UAEPAXI@Z 0044d6d0 f i  CIL library: CIL module
 0001:0004c6d0       ??_GSimpleResourceMapper@Resources@@UAEPAXI@Z 0044d6d0 f i render_win32.release:simpleresourcemapper.obj
 0001:0004c700       ??1?$Dictionary@VStringAtom@Util@@V?$Ptr@VManagedResource@Resources@@@@@Util@@QAE@XZ 0044d700 f i render_win32.release:simpleresourcemapper.obj
 0001:0004c720       ??1?$Dictionary@VStringAtom@Util@@V?$Ptr@VResource@Resources@@@@@Util@@QAE@XZ 0044d720 f i render_win32.release:simpleresourcemapper.obj
 0001:0004c740       ??1SimpleResourceMapper@Resources@@UAE@XZ 0044d740 f   render_win32.release:simpleresourcemapper.obj
 0001:0004c7b0       ?GetResourceType@SimpleResourceMapper@Resources@@UBEABVRtti@Core@@XZ 0044d7b0 f   render_win32.release:simpleresourcemapper.obj
 0001:0004c7f0       ?OnAttachToResourceManager@SimpleResourceMapper@Resources@@UAEXXZ 0044d7f0 f   render_win32.release:simpleresourcemapper.obj
 0001:0004c9f0       ?OnRemoveFromResourceManager@SimpleResourceMapper@Resources@@UAEXXZ 0044d9f0 f   render_win32.release:simpleresourcemapper.obj
 0001:0004caf0       ?OnCreateManagedResource@SimpleResourceMapper@Resources@@UAE?AV?$Ptr@VManagedResource@Resources@@@@ABVRtti@Core@@ABVStringAtom@Util@@ABV?$Ptr@VResourceLoader@Resources@@@@@Z 0044daf0 f   render_win32.release:simpleresourcemapper.obj
 0001:0004ce40       ?OnDiscardManagedResource@SimpleResourceMapper@Resources@@UAEXABV?$Ptr@VManagedResource@Resources@@@@@Z 0044de40 f   render_win32.release:simpleresourcemapper.obj
 0001:0004d110       ?OnPrepare@SimpleResourceMapper@Resources@@UAEX_N@Z 0044e110 f   render_win32.release:simpleresourcemapper.obj
 0001:0004d3c0       ?OnUpdate@SimpleResourceMapper@Resources@@UAEXH@Z 0044e3c0 f   render_win32.release:simpleresourcemapper.obj
 0001:0004d3d0       ?GetNumPendingResources@SimpleResourceMapper@Resources@@UBEHXZ 0044e3d0 f   render_win32.release:simpleresourcemapper.obj
 0001:0004d3f0       ??0?$Ptr@VResourceSaver@Resources@@@@QAE@PAVResourceSaver@Resources@@@Z 0044e3f0 f i render_win32.release:simpleresourcemapper.obj
 0001:0004d430       ??1?$Array@V?$KeyValuePair@VStringAtom@Util@@V?$Ptr@VManagedResource@Resources@@@@@Util@@@Util@@QAE@XZ 0044e430 f i render_win32.release:simpleresourcemapper.obj
 0001:0004d450       ??0?$Dictionary@VStringAtom@Util@@V?$Ptr@VManagedResource@Resources@@@@@Util@@QAE@XZ 0044e450 f i render_win32.release:simpleresourcemapper.obj
 0001:0004d470       ??A?$Dictionary@VStringAtom@Util@@V?$Ptr@VManagedResource@Resources@@@@@Util@@QAEAAV?$Ptr@VManagedResource@Resources@@@@ABVStringAtom@1@@Z 0044e470 f i render_win32.release:simpleresourcemapper.obj
 0001:0004d4c0       ?Size@?$Dictionary@VStringAtom@Util@@V?$Ptr@VManagedResource@Resources@@@@@Util@@QBEHXZ 0044e4c0 f i render_win32.release:simpleresourcemapper.obj
 0001:0004d4e0       ?IsEmpty@?$Dictionary@VStringAtom@Util@@V?$Ptr@VManagedResource@Resources@@@@@Util@@QBE_NXZ 0044e4e0 f i render_win32.release:simpleresourcemapper.obj
 0001:0004d500       ?Add@?$Dictionary@VStringAtom@Util@@V?$Ptr@VManagedResource@Resources@@@@@Util@@QAEXABVStringAtom@2@ABV?$Ptr@VManagedResource@Resources@@@@@Z 0044e500 f i render_win32.release:simpleresourcemapper.obj
 0001:0004d550       ?Erase@?$Dictionary@VStringAtom@Util@@V?$Ptr@VManagedResource@Resources@@@@@Util@@QAEXABVStringAtom@2@@Z 0044e550 f i render_win32.release:simpleresourcemapper.obj
 0001:0004d5d0       ?Contains@?$Dictionary@VStringAtom@Util@@V?$Ptr@VManagedResource@Resources@@@@@Util@@QBE_NABVStringAtom@2@@Z 0044e5d0 f i render_win32.release:simpleresourcemapper.obj
 0001:0004d630       ?ValueAtIndex@?$Dictionary@VStringAtom@Util@@V?$Ptr@VManagedResource@Resources@@@@@Util@@QAEAAV?$Ptr@VManagedResource@Resources@@@@H@Z 0044e630 f i render_win32.release:simpleresourcemapper.obj
 0001:0004d680       ??1?$Array@V?$KeyValuePair@VStringAtom@Util@@V?$Ptr@VResource@Resources@@@@@Util@@@Util@@QAE@XZ 0044e680 f i render_win32.release:simpleresourcemapper.obj
 0001:0004d6a0       ??0?$Dictionary@VStringAtom@Util@@V?$Ptr@VResource@Resources@@@@@Util@@QAE@XZ 0044e6a0 f i render_win32.release:simpleresourcemapper.obj
 0001:0004d6c0       ?Size@?$Dictionary@VStringAtom@Util@@V?$Ptr@VResource@Resources@@@@@Util@@QBEHXZ 0044e6c0 f i render_win32.release:simpleresourcemapper.obj
 0001:0004d6e0       ?IsEmpty@?$Dictionary@VStringAtom@Util@@V?$Ptr@VResource@Resources@@@@@Util@@QBE_NXZ 0044e6e0 f i render_win32.release:simpleresourcemapper.obj
 0001:0004d700       ?Add@?$Dictionary@VStringAtom@Util@@V?$Ptr@VResource@Resources@@@@@Util@@QAEXABVStringAtom@2@ABV?$Ptr@VResource@Resources@@@@@Z 0044e700 f i render_win32.release:simpleresourcemapper.obj
 0001:0004d750       ?Erase@?$Dictionary@VStringAtom@Util@@V?$Ptr@VResource@Resources@@@@@Util@@QAEXABVStringAtom@2@@Z 0044e750 f i render_win32.release:simpleresourcemapper.obj
 0001:0004d7d0       ?EraseAtIndex@?$Dictionary@VStringAtom@Util@@V?$Ptr@VResource@Resources@@@@@Util@@QAEXH@Z 0044e7d0 f i render_win32.release:simpleresourcemapper.obj
 0001:0004d810       ?Contains@?$Dictionary@VStringAtom@Util@@V?$Ptr@VResource@Resources@@@@@Util@@QBE_NABVStringAtom@2@@Z 0044e810 f i render_win32.release:simpleresourcemapper.obj
 0001:0004d870       ?ValueAtIndex@?$Dictionary@VStringAtom@Util@@V?$Ptr@VResource@Resources@@@@@Util@@QAEAAV?$Ptr@VResource@Resources@@@@H@Z 0044e870 f i render_win32.release:simpleresourcemapper.obj
 0001:0004d8c0       ??0?$Ptr@VManagedResource@Resources@@@@QAE@ABV0@@Z 0044e8c0 f i render_win32.release:simpleresourcemapper.obj
 0001:0004d900       ??0?$Ptr@VManagedResource@Resources@@@@QAE@PAVManagedResource@Resources@@@Z 0044e900 f i render_win32.release:simpleresourcemapper.obj
 0001:0004d940       ??C?$Ptr@VManagedResource@Resources@@@@QBEPAVManagedResource@Resources@@XZ 0044e940 f i render_win32.release:simpleresourcemapper.obj
 0001:0004d980       ??0?$Ptr@VResourceManager@Resources@@@@QAE@PAVResourceManager@Resources@@@Z 0044e980 f i render_win32.release:simpleresourcemapper.obj
 0001:0004d9c0       ??1?$Ptr@VResourceManager@Resources@@@@QAE@XZ 0044e9c0 f i render_win32.release:simpleresourcemapper.obj
 0001:0004d9f0       ??1?$KeyValuePair@VStringAtom@Util@@V?$Ptr@VManagedResource@Resources@@@@@Util@@QAE@XZ 0044e9f0 f i render_win32.release:simpleresourcemapper.obj
 0001:0004da10       ??1?$KeyValuePair@VStringAtom@Util@@V?$Ptr@VResource@Resources@@@@@Util@@QAE@XZ 0044ea10 f i render_win32.release:simpleresourcemapper.obj
 0001:0004da30       ??0?$Array@V?$KeyValuePair@VStringAtom@Util@@V?$Ptr@VManagedResource@Resources@@@@@Util@@@Util@@QAE@XZ 0044ea30 f i render_win32.release:simpleresourcemapper.obj
 0001:0004da70       ??A?$Array@V?$KeyValuePair@VStringAtom@Util@@V?$Ptr@VManagedResource@Resources@@@@@Util@@@Util@@QBEAAV?$KeyValuePair@VStringAtom@Util@@V?$Ptr@VManagedResource@Resources@@@@@1@H@Z 0044ea70 f i render_win32.release:simpleresourcemapper.obj
 0001:0004dac0       ?Append@?$Array@V?$KeyValuePair@VStringAtom@Util@@V?$Ptr@VManagedResource@Resources@@@@@Util@@@Util@@QAEXABV?$KeyValuePair@VStringAtom@Util@@V?$Ptr@VManagedResource@Resources@@@@@2@@Z 0044eac0 f i render_win32.release:simpleresourcemapper.obj
 0001:0004db40       ?Size@?$Array@V?$KeyValuePair@VStringAtom@Util@@V?$Ptr@VManagedResource@Resources@@@@@Util@@@Util@@QBEHXZ 0044eb40 f i render_win32.release:simpleresourcemapper.obj
 0001:0004db60       ?EraseIndex@?$Array@V?$KeyValuePair@VStringAtom@Util@@V?$Ptr@VManagedResource@Resources@@@@@Util@@@Util@@QAEXH@Z 0044eb60 f i render_win32.release:simpleresourcemapper.obj
 0001:0004dbe0       ?InsertSorted@?$Array@V?$KeyValuePair@VStringAtom@Util@@V?$Ptr@VManagedResource@Resources@@@@@Util@@@Util@@QAEHABV?$KeyValuePair@VStringAtom@Util@@V?$Ptr@VManagedResource@Resources@@@@@2@@Z 0044ebe0 f i render_win32.release:simpleresourcemapper.obj
 0001:0004de50       ?BinarySearchIndex@?$Array@V?$KeyValuePair@VStringAtom@Util@@V?$Ptr@VManagedResource@Resources@@@@@Util@@@Util@@QBEHABV?$KeyValuePair@VStringAtom@Util@@V?$Ptr@VManagedResource@Resources@@@@@2@@Z 0044ee50 f i render_win32.release:simpleresourcemapper.obj
 0001:0004df80       ?Delete@?$Array@V?$KeyValuePair@VStringAtom@Util@@V?$Ptr@VManagedResource@Resources@@@@@Util@@@Util@@AAEXXZ 0044ef80 f i render_win32.release:simpleresourcemapper.obj
 0001:0004dff0       ?FindIndex@?$Dictionary@VStringAtom@Util@@V?$Ptr@VManagedResource@Resources@@@@@Util@@QBEHABVStringAtom@2@@Z 0044eff0 f i render_win32.release:simpleresourcemapper.obj
 0001:0004e050       ??0?$KeyValuePair@VStringAtom@Util@@V?$Ptr@VManagedResource@Resources@@@@@Util@@QAE@ABVStringAtom@1@@Z 0044f050 f i render_win32.release:simpleresourcemapper.obj
 0001:0004e080       ??0?$KeyValuePair@VStringAtom@Util@@V?$Ptr@VManagedResource@Resources@@@@@Util@@QAE@ABVStringAtom@1@ABV?$Ptr@VManagedResource@Resources@@@@@Z 0044f080 f i render_win32.release:simpleresourcemapper.obj
 0001:0004e0b0       ?Value@?$KeyValuePair@VStringAtom@Util@@V?$Ptr@VManagedResource@Resources@@@@@Util@@QAEAAV?$Ptr@VManagedResource@Resources@@@@XZ 0044f0b0 f i render_win32.release:simpleresourcemapper.obj
 0001:0004e0d0       ??0?$Array@V?$KeyValuePair@VStringAtom@Util@@V?$Ptr@VResource@Resources@@@@@Util@@@Util@@QAE@XZ 0044f0d0 f i render_win32.release:simpleresourcemapper.obj
 0001:0004e110       ??A?$Array@V?$KeyValuePair@VStringAtom@Util@@V?$Ptr@VResource@Resources@@@@@Util@@@Util@@QBEAAV?$KeyValuePair@VStringAtom@Util@@V?$Ptr@VResource@Resources@@@@@1@H@Z 0044f110 f i render_win32.release:simpleresourcemapper.obj
 0001:0004e160       ?Append@?$Array@V?$KeyValuePair@VStringAtom@Util@@V?$Ptr@VResource@Resources@@@@@Util@@@Util@@QAEXABV?$KeyValuePair@VStringAtom@Util@@V?$Ptr@VResource@Resources@@@@@2@@Z 0044f160 f i render_win32.release:simpleresourcemapper.obj
 0001:0004e1e0       ?Size@?$Array@V?$KeyValuePair@VStringAtom@Util@@V?$Ptr@VResource@Resources@@@@@Util@@@Util@@QBEHXZ 0044f1e0 f i render_win32.release:simpleresourcemapper.obj
 0001:0004e200       ?EraseIndex@?$Array@V?$KeyValuePair@VStringAtom@Util@@V?$Ptr@VResource@Resources@@@@@Util@@@Util@@QAEXH@Z 0044f200 f i render_win32.release:simpleresourcemapper.obj
 0001:0004e280       ?InsertSorted@?$Array@V?$KeyValuePair@VStringAtom@Util@@V?$Ptr@VResource@Resources@@@@@Util@@@Util@@QAEHABV?$KeyValuePair@VStringAtom@Util@@V?$Ptr@VResource@Resources@@@@@2@@Z 0044f280 f i render_win32.release:simpleresourcemapper.obj
 0001:0004e4f0       ?BinarySearchIndex@?$Array@V?$KeyValuePair@VStringAtom@Util@@V?$Ptr@VResource@Resources@@@@@Util@@@Util@@QBEHABV?$KeyValuePair@VStringAtom@Util@@V?$Ptr@VResource@Resources@@@@@2@@Z 0044f4f0 f i render_win32.release:simpleresourcemapper.obj
 0001:0004e620       ?Delete@?$Array@V?$KeyValuePair@VStringAtom@Util@@V?$Ptr@VResource@Resources@@@@@Util@@@Util@@AAEXXZ 0044f620 f i render_win32.release:simpleresourcemapper.obj
 0001:0004e690       ??0?$KeyValuePair@VStringAtom@Util@@V?$Ptr@VResource@Resources@@@@@Util@@QAE@ABVStringAtom@1@@Z 0044f690 f i render_win32.release:simpleresourcemapper.obj
 0001:0004e6c0       ??0?$KeyValuePair@VStringAtom@Util@@V?$Ptr@VResource@Resources@@@@@Util@@QAE@ABVStringAtom@1@ABV?$Ptr@VResource@Resources@@@@@Z 0044f6c0 f i render_win32.release:simpleresourcemapper.obj
 0001:0004e6f0       ?Value@?$KeyValuePair@VStringAtom@Util@@V?$Ptr@VResource@Resources@@@@@Util@@QAEAAV?$Ptr@VResource@Resources@@@@XZ 0044f6f0 f i render_win32.release:simpleresourcemapper.obj
 0001:0004e710       ??_E?$KeyValuePair@VStringAtom@Util@@V?$Ptr@VManagedResource@Resources@@@@@Util@@QAEPAXI@Z 0044f710 f i render_win32.release:simpleresourcemapper.obj
 0001:0004e7b0       ??_E?$KeyValuePair@VStringAtom@Util@@V?$Ptr@VResource@Resources@@@@@Util@@QAEPAXI@Z 0044f7b0 f i render_win32.release:simpleresourcemapper.obj
 0001:0004e850       ?Insert@?$Array@V?$KeyValuePair@VStringAtom@Util@@V?$Ptr@VManagedResource@Resources@@@@@Util@@@Util@@QAEXHABV?$KeyValuePair@VStringAtom@Util@@V?$Ptr@VManagedResource@Resources@@@@@2@@Z 0044f850 f i render_win32.release:simpleresourcemapper.obj
 0001:0004e8c0       ?InsertAtEndOfIdenticalRange@?$Array@V?$KeyValuePair@VStringAtom@Util@@V?$Ptr@VManagedResource@Resources@@@@@Util@@@Util@@QAEHHABV?$KeyValuePair@VStringAtom@Util@@V?$Ptr@VManagedResource@Resources@@@@@2@@Z 0044f8c0 f i render_win32.release:simpleresourcemapper.obj
 0001:0004e940       ?Destroy@?$Array@V?$KeyValuePair@VStringAtom@Util@@V?$Ptr@VManagedResource@Resources@@@@@Util@@@Util@@AAEXPAV?$KeyValuePair@VStringAtom@Util@@V?$Ptr@VManagedResource@Resources@@@@@2@@Z 0044f940 f i render_win32.release:simpleresourcemapper.obj
 0001:0004e970       ?Grow@?$Array@V?$KeyValuePair@VStringAtom@Util@@V?$Ptr@VManagedResource@Resources@@@@@Util@@@Util@@AAEXXZ 0044f970 f i render_win32.release:simpleresourcemapper.obj
 0001:0004e9f0       ?Move@?$Array@V?$KeyValuePair@VStringAtom@Util@@V?$Ptr@VManagedResource@Resources@@@@@Util@@@Util@@AAEXHH@Z 0044f9f0 f i render_win32.release:simpleresourcemapper.obj
 0001:0004eb80       ??4?$KeyValuePair@VStringAtom@Util@@V?$Ptr@VManagedResource@Resources@@@@@Util@@QAEXABV01@@Z 0044fb80 f i render_win32.release:simpleresourcemapper.obj
 0001:0004ebb0       ??9?$KeyValuePair@VStringAtom@Util@@V?$Ptr@VManagedResource@Resources@@@@@Util@@QBE_NABV01@@Z 0044fbb0 f i render_win32.release:simpleresourcemapper.obj
 0001:0004ebd0       ??O?$KeyValuePair@VStringAtom@Util@@V?$Ptr@VManagedResource@Resources@@@@@Util@@QBE_NABV01@@Z 0044fbd0 f i render_win32.release:simpleresourcemapper.obj
 0001:0004ebf0       ??M?$KeyValuePair@VStringAtom@Util@@V?$Ptr@VManagedResource@Resources@@@@@Util@@QBE_NABV01@@Z 0044fbf0 f i render_win32.release:simpleresourcemapper.obj
 0001:0004ec10       ??0?$Ptr@VManagedResource@Resources@@@@QAE@XZ 0044fc10 f i render_win32.release:simpleresourcemapper.obj
 0001:0004ec30       ?Insert@?$Array@V?$KeyValuePair@VStringAtom@Util@@V?$Ptr@VResource@Resources@@@@@Util@@@Util@@QAEXHABV?$KeyValuePair@VStringAtom@Util@@V?$Ptr@VResource@Resources@@@@@2@@Z 0044fc30 f i render_win32.release:simpleresourcemapper.obj
 0001:0004eca0       ?InsertAtEndOfIdenticalRange@?$Array@V?$KeyValuePair@VStringAtom@Util@@V?$Ptr@VResource@Resources@@@@@Util@@@Util@@QAEHHABV?$KeyValuePair@VStringAtom@Util@@V?$Ptr@VResource@Resources@@@@@2@@Z 0044fca0 f i render_win32.release:simpleresourcemapper.obj
 0001:0004ed20       ?Destroy@?$Array@V?$KeyValuePair@VStringAtom@Util@@V?$Ptr@VResource@Resources@@@@@Util@@@Util@@AAEXPAV?$KeyValuePair@VStringAtom@Util@@V?$Ptr@VResource@Resources@@@@@2@@Z 0044fd20 f i render_win32.release:simpleresourcemapper.obj
 0001:0004ed50       ?Grow@?$Array@V?$KeyValuePair@VStringAtom@Util@@V?$Ptr@VResource@Resources@@@@@Util@@@Util@@AAEXXZ 0044fd50 f i render_win32.release:simpleresourcemapper.obj
 0001:0004edd0       ?Move@?$Array@V?$KeyValuePair@VStringAtom@Util@@V?$Ptr@VResource@Resources@@@@@Util@@@Util@@AAEXHH@Z 0044fdd0 f i render_win32.release:simpleresourcemapper.obj
 0001:0004ef60       ??4?$KeyValuePair@VStringAtom@Util@@V?$Ptr@VResource@Resources@@@@@Util@@QAEXABV01@@Z 0044ff60 f i render_win32.release:simpleresourcemapper.obj
 0001:0004ef90       ??9?$KeyValuePair@VStringAtom@Util@@V?$Ptr@VResource@Resources@@@@@Util@@QBE_NABV01@@Z 0044ff90 f i render_win32.release:simpleresourcemapper.obj
 0001:0004efb0       ??O?$KeyValuePair@VStringAtom@Util@@V?$Ptr@VResource@Resources@@@@@Util@@QBE_NABV01@@Z 0044ffb0 f i render_win32.release:simpleresourcemapper.obj
 0001:0004efd0       ??M?$KeyValuePair@VStringAtom@Util@@V?$Ptr@VResource@Resources@@@@@Util@@QBE_NABV01@@Z 0044ffd0 f i render_win32.release:simpleresourcemapper.obj
 0001:0004eff0       ??0?$Ptr@VResource@Resources@@@@QAE@ABV0@@Z 0044fff0 f i render_win32.release:simpleresourcemapper.obj
 0001:0004f030       ??_G?$KeyValuePair@VStringAtom@Util@@V?$Ptr@VManagedResource@Resources@@@@@Util@@QAEPAXI@Z 00450030 f i render_win32.release:simpleresourcemapper.obj
 0001:0004f070       ??_G?$KeyValuePair@VStringAtom@Util@@V?$Ptr@VResource@Resources@@@@@Util@@QAEPAXI@Z 00450070 f i render_win32.release:simpleresourcemapper.obj
 0001:0004f0b0       ?GrowTo@?$Array@V?$KeyValuePair@VStringAtom@Util@@V?$Ptr@VManagedResource@Resources@@@@@Util@@@Util@@AAEXH@Z 004500b0 f i render_win32.release:simpleresourcemapper.obj
 0001:0004f1d0       ??4?$Ptr@VManagedResource@Resources@@@@QAEXABV0@@Z 004501d0 f i render_win32.release:simpleresourcemapper.obj
 0001:0004f230       ?GrowTo@?$Array@V?$KeyValuePair@VStringAtom@Util@@V?$Ptr@VResource@Resources@@@@@Util@@@Util@@AAEXH@Z 00450230 f i render_win32.release:simpleresourcemapper.obj
 0001:0004f350       ??0?$KeyValuePair@VStringAtom@Util@@V?$Ptr@VManagedResource@Resources@@@@@Util@@QAE@XZ 00450350 f i render_win32.release:simpleresourcemapper.obj
 0001:0004f380       ??0?$KeyValuePair@VStringAtom@Util@@V?$Ptr@VResource@Resources@@@@@Util@@QAE@XZ 00450380 f i render_win32.release:simpleresourcemapper.obj
 0001:0004f3b0       ?Exchange@Win360Interlocked@Win360@@SAHPCHH@Z 004503b0 f i render_win32.release:graphicshandler.obj
 0001:0004f3c0       ??8Id@Messaging@@QBE_NABV01@@Z 004503c0 f i render_win32.release:graphicshandler.obj
 0001:0004f3e0       ?CheckId@Message@Messaging@@QBE_NABVId@2@@Z 004503e0 f i render_win32.release:graphicshandler.obj
 0001:0004f410       ?IsOpen@Handler@Messaging@@QBE_NXZ 00450410 f i render_win32.release:graphicshandler.obj
 0001:0004f430       ?IsOpen@AttachmentServer@InternalGraphics@@QBE_NXZ 00450430 f i render_win32.release:graphicshandler.obj
 0001:0004f450       ?GetAdapter@SetupGraphics@Graphics@@QBEABW4Code@Adapter@CoreGraphics@@XZ 00450450 f i render_win32.release:graphicshandler.obj
 0001:0004f470       ?GetDisplayMode@SetupGraphics@Graphics@@QBEABVDisplayMode@CoreGraphics@@XZ 00450470 f i render_win32.release:graphicshandler.obj
 0001:0004f490       ?GetAntiAliasQuality@SetupGraphics@Graphics@@QBEABW4Code@AntiAliasQuality@CoreGraphics@@XZ 00450490 f i render_win32.release:graphicshandler.obj
 0001:0004f4b0       ?GetFullscreen@SetupGraphics@Graphics@@QBE_NXZ 004504b0 f i render_win32.release:graphicshandler.obj
 0001:0004f4d0       ?GetAutoAdjustSize@SetupGraphics@Graphics@@QBE_NXZ 004504d0 f i render_win32.release:graphicshandler.obj
 0001:0004f4f0       ?GetDisplayModeSwitchEnabled@SetupGraphics@Graphics@@QBE_NXZ 004504f0 f i render_win32.release:graphicshandler.obj
 0001:0004f510       ?GetTripleBufferingEnabled@SetupGraphics@Graphics@@QBE_NXZ 00450510 f i render_win32.release:graphicshandler.obj
 0001:0004f530       ?GetAlwaysOnTop@SetupGraphics@Graphics@@QBE_NXZ 00450530 f i render_win32.release:graphicshandler.obj
 0001:0004f550       ?GetVerticalSyncEnabled@SetupGraphics@Graphics@@QBE_NXZ 00450550 f i render_win32.release:graphicshandler.obj
 0001:0004f570       ?GetIconName@SetupGraphics@Graphics@@QBEABVString@Util@@XZ 00450570 f i render_win32.release:graphicshandler.obj
 0001:0004f590       ?GetWindowTitle@SetupGraphics@Graphics@@QBEABVString@Util@@XZ 00450590 f i render_win32.release:graphicshandler.obj
 0001:0004f5b0       ?GetParentWindow@SetupGraphics@Graphics@@QBEPAXXZ 004505b0 f i render_win32.release:graphicshandler.obj
 0001:0004f5d0       ?GetResourceMappers@SetupGraphics@Graphics@@QBEABV?$Array@V?$Ptr@VResourceMapper@Resources@@@@@Util@@XZ 004505d0 f i render_win32.release:graphicshandler.obj
 0001:0004f5f0       ?SetActualDisplayMode@SetupGraphics@Graphics@@QAEXABVDisplayMode@CoreGraphics@@@Z 004505f0 f i render_win32.release:graphicshandler.obj
 0001:0004f650       ?SetActualFullscreen@SetupGraphics@Graphics@@QAEX_N@Z 00450650 f i render_win32.release:graphicshandler.obj
 0001:0004f690       ?SetActualAdapter@SetupGraphics@Graphics@@QAEXABW4Code@Adapter@CoreGraphics@@@Z 00450690 f i render_win32.release:graphicshandler.obj
 0001:0004f6d0       ?GetObjectRef@GraphicsEntityMessage@Graphics@@QBEABV?$Ptr@VObjectRef@Threading@@@@XZ 004506d0 f i render_win32.release:graphicshandler.obj
 0001:0004f6f0       ?IsOpen@ShapeRendererBase@Base@@QBE_NXZ 004506f0 f i render_win32.release:graphicshandler.obj
 0001:0004f710       ?IsOpen@DisplayDeviceBase@Base@@QBE_NXZ 00450710 f i render_win32.release:graphicshandler.obj
 0001:0004f730       ?SetDisplayMode@DisplayDeviceBase@Base@@QAEXABVDisplayMode@CoreGraphics@@@Z 00450730 f i render_win32.release:graphicshandler.obj
 0001:0004f770       ?GetDisplayMode@DisplayDeviceBase@Base@@QBEABVDisplayMode@CoreGraphics@@XZ 00450770 f i render_win32.release:graphicshandler.obj
 0001:0004f790       ?SetAntiAliasQuality@DisplayDeviceBase@Base@@QAEXW4Code@AntiAliasQuality@CoreGraphics@@@Z 00450790 f i render_win32.release:graphicshandler.obj
 0001:0004f7b0       ?SetAdapter@DisplayDeviceBase@Base@@QAEXW4Code@Adapter@CoreGraphics@@@Z 004507b0 f i render_win32.release:graphicshandler.obj
 0001:0004f7d0       ?GetAdapter@DisplayDeviceBase@Base@@QBE?AW4Code@Adapter@CoreGraphics@@XZ 004507d0 f i render_win32.release:graphicshandler.obj
 0001:0004f7f0       ?SetFullscreen@DisplayDeviceBase@Base@@QAEX_N@Z 004507f0 f i render_win32.release:graphicshandler.obj
 0001:0004f810       ?IsFullscreen@DisplayDeviceBase@Base@@QBE_NXZ 00450810 f i render_win32.release:graphicshandler.obj
 0001:0004f830       ?SetAutoAdjustSize@DisplayDeviceBase@Base@@QAEX_N@Z 00450830 f i render_win32.release:graphicshandler.obj
 0001:0004f850       ?SetDisplayModeSwitchEnabled@DisplayDeviceBase@Base@@QAEX_N@Z 00450850 f i render_win32.release:graphicshandler.obj
 0001:0004f870       ?SetTripleBufferingEnabled@DisplayDeviceBase@Base@@QAEX_N@Z 00450870 f i render_win32.release:graphicshandler.obj
 0001:0004f890       ?SetAlwaysOnTop@DisplayDeviceBase@Base@@QAEX_N@Z 00450890 f i render_win32.release:graphicshandler.obj
 0001:0004f8b0       ?SetVerticalSyncEnabled@DisplayDeviceBase@Base@@QAEX_N@Z 004508b0 f i render_win32.release:graphicshandler.obj
 0001:0004f8d0       ?SetIconName@DisplayDeviceBase@Base@@QAEXABVString@Util@@@Z 004508d0 f i render_win32.release:graphicshandler.obj
 0001:0004f920       ?SetParentWindow@DisplayDeviceBase@Base@@QAEXPAX@Z 00450920 f i render_win32.release:graphicshandler.obj
 0001:0004f940       ?IsOpen@TransformDeviceBase@Base@@QBE_NXZ 00450940 f i render_win32.release:graphicshandler.obj
 0001:0004f960       ?IsOpen@ShaderServerBase@Base@@QBE_NXZ 00450960 f i render_win32.release:graphicshandler.obj
 0001:0004f980       ?IsOpen@VertexLayoutServerBase@Base@@QBE_NXZ 00450980 f i render_win32.release:graphicshandler.obj
 0001:0004f9a0       ?IsOpen@ResourceManager@Resources@@QBE_NXZ 004509a0 f i render_win32.release:graphicshandler.obj
 0001:0004f9c0       ?IsOpen@ModelServer@Models@@QBE_NXZ 004509c0 f i render_win32.release:graphicshandler.obj
 0001:0004f9e0       ?IsOpen@InternalGraphicsServer@InternalGraphics@@QBE_NXZ 004509e0 f i render_win32.release:graphicshandler.obj
 0001:0004fa00       ?IsOpen@LightServerBase@Lighting@@QBE_NXZ 00450a00 f i render_win32.release:graphicshandler.obj
 0001:0004fa20       ?IsOpen@ShadowServerBase@Lighting@@QBE_NXZ 00450a20 f i render_win32.release:graphicshandler.obj
 0001:0004fa40       ?IsOpen@FrameServer@Frame@@QBE_NXZ 00450a40 f i render_win32.release:graphicshandler.obj
 0001:0004fa60       ??0SafeFlag@Threading@@QAE@XZ 00450a60 f i render_win32.release:graphicshandler.obj
 0001:0004fa80       ?Set@SafeFlag@Threading@@QAEXXZ 00450a80 f i render_win32.release:graphicshandler.obj
 0001:0004faa0       ?Clear@SafeFlag@Threading@@QAEXXZ 00450aa0 f i render_win32.release:graphicshandler.obj
 0001:0004fac0       ?Test@SafeFlag@Threading@@QBE_NXZ 00450ac0 f i render_win32.release:graphicshandler.obj
 0001:0004fae0       ?IsValid@CharacterServer@Characters@@QBE_NXZ 00450ae0 f i render_win32.release:graphicshandler.obj
 0001:0004fb00       ?GetTimeFactor@FrameSyncTimer@FrameSync@@QBENXZ 00450b00 f i render_win32.release:graphicshandler.obj
 0001:0004fb20       ?GetScaledTime@FrameSyncTimer@FrameSync@@QBENXZ 00450b20 f i render_win32.release:graphicshandler.obj
 0001:0004fb40       ??2GraphicsHandler@Graphics@@SAPAXI@Z 00450b40 f i render_win32.release:graphicshandler.obj
 0001:0004fb50       ??3GraphicsHandler@Graphics@@SAXPAX@Z 00450b50 f i render_win32.release:graphicshandler.obj
 0001:0004fb70       ?GetRtti@GraphicsHandler@Graphics@@UBEPAVRtti@Core@@XZ 00450b70 f   render_win32.release:graphicshandler.obj
 0001:0004fb80       ?FactoryCreator@GraphicsHandler@Graphics@@SAPAVRefCounted@Core@@XZ 00450b80 f   render_win32.release:graphicshandler.obj
 0001:0004fb90       ?Create@GraphicsHandler@Graphics@@SAPAV12@XZ 00450b90 f   render_win32.release:graphicshandler.obj
 0001:0004fbd0       ?RegisterWithFactory@GraphicsHandler@Graphics@@SA_NXZ 00450bd0 f   render_win32.release:graphicshandler.obj
 0001:0004fcd0       ??0GraphicsHandler@Graphics@@QAE@XZ 00450cd0 f   render_win32.release:graphicshandler.obj
 0001:0004fe40       ??_GGraphicsHandler@Graphics@@UAEPAXI@Z 00450e40 f i render_win32.release:graphicshandler.obj
 0001:0004fe40       ??_EGraphicsHandler@Graphics@@UAEPAXI@Z 00450e40 f i  CIL library: CIL module
 0001:0004fe70       ??1InterfaceHandlerBase@Interface@@UAE@XZ 00450e70 f i render_win32.release:graphicshandler.obj
 0001:0004fe90       ??1GraphicsHandler@Graphics@@UAE@XZ 00450e90 f   render_win32.release:graphicshandler.obj
 0001:0004ffd0       ?WaitForPendingResources@GraphicsHandler@Graphics@@QAEXXZ 00450fd0 f   render_win32.release:graphicshandler.obj
 0001:00050000       ?Open@GraphicsHandler@Graphics@@UAEXXZ 00451000 f   render_win32.release:graphicshandler.obj
 0001:00050360       ?Close@GraphicsHandler@Graphics@@UAEXXZ 00451360 f   render_win32.release:graphicshandler.obj
 0001:00050530       ?SetupGraphicsRuntime@GraphicsHandler@Graphics@@AAEXABV?$Ptr@VSetupGraphics@Graphics@@@@@Z 00451530 f   render_win32.release:graphicshandler.obj
 0001:00050c60       ?ShutdownGraphicsRuntime@GraphicsHandler@Graphics@@AAEXXZ 00451c60 f   render_win32.release:graphicshandler.obj
 0001:00050dc0       ?HandleMessage@GraphicsHandler@Graphics@@UAE_NABV?$Ptr@VMessage@Messaging@@@@@Z 00451dc0 f   render_win32.release:graphicshandler.obj
 0001:000518c0       ?DoWork@GraphicsHandler@Graphics@@UAEXXZ 004528c0 f   render_win32.release:graphicshandler.obj
 0001:00051a40       ?OnSetupGraphics@GraphicsHandler@Graphics@@AAEXABV?$Ptr@VSetupGraphics@Graphics@@@@@Z 00452a40 f   render_win32.release:graphicshandler.obj
 0001:00051d20       ??0?$Ptr@VInternalGraphicsEntity@InternalGraphics@@@@QAE@PAVInternalGraphicsEntity@InternalGraphics@@@Z 00452d20 f i render_win32.release:graphicshandler.obj
 0001:00051d60       ??C?$Ptr@VInternalGraphicsEntity@InternalGraphics@@@@QBEPAVInternalGraphicsEntity@InternalGraphics@@XZ 00452d60 f i render_win32.release:graphicshandler.obj
 0001:00051da0       ??A?$Array@V?$Ptr@VResourceMapper@Resources@@@@@Util@@QBEAAV?$Ptr@VResourceMapper@Resources@@@@H@Z 00452da0 f i render_win32.release:graphicshandler.obj
 0001:00051df0       ?Size@?$Array@V?$Ptr@VResourceMapper@Resources@@@@@Util@@QBEHXZ 00452df0 f i render_win32.release:graphicshandler.obj
 0001:00051e10       ??4?$Ptr@VPoolResourceMapper@Resources@@@@QAEXABV0@@Z 00452e10 f i render_win32.release:graphicshandler.obj
 0001:00051e70       ??C?$Ptr@VResourceMapper@Resources@@@@QBEPAVResourceMapper@Resources@@XZ 00452e70 f i render_win32.release:graphicshandler.obj
 0001:00051eb0       ??0?$Ptr@VRenderDevice@CoreGraphics@@@@QAE@XZ 00452eb0 f i render_win32.release:graphicshandler.obj
 0001:00051ed0       ??1?$Ptr@VRenderDevice@CoreGraphics@@@@QAE@XZ 00452ed0 f i render_win32.release:graphicshandler.obj
 0001:00051f00       ??4?$Ptr@VRenderDevice@CoreGraphics@@@@QAEXPAVRenderDevice@CoreGraphics@@@Z 00452f00 f i render_win32.release:graphicshandler.obj
 0001:00051f60       ??C?$Ptr@VRenderDevice@CoreGraphics@@@@QBEPAVRenderDevice@CoreGraphics@@XZ 00452f60 f i render_win32.release:graphicshandler.obj
 0001:00051fa0       ??0?$Ptr@VDisplayDevice@CoreGraphics@@@@QAE@XZ 00452fa0 f i render_win32.release:graphicshandler.obj
 0001:00051fc0       ??1?$Ptr@VDisplayDevice@CoreGraphics@@@@QAE@XZ 00452fc0 f i render_win32.release:graphicshandler.obj
 0001:00051ff0       ??4?$Ptr@VDisplayDevice@CoreGraphics@@@@QAEXPAVDisplayDevice@CoreGraphics@@@Z 00452ff0 f i render_win32.release:graphicshandler.obj
 0001:00052050       ??C?$Ptr@VDisplayDevice@CoreGraphics@@@@QBEPAVDisplayDevice@CoreGraphics@@XZ 00453050 f i render_win32.release:graphicshandler.obj
 0001:00052090       ??B?$Ptr@VDisplayDevice@CoreGraphics@@@@QBEPAVDisplayDevice@CoreGraphics@@XZ 00453090 f i render_win32.release:graphicshandler.obj
 0001:000520d0       ??0?$Ptr@VTransformDevice@CoreGraphics@@@@QAE@XZ 004530d0 f i render_win32.release:graphicshandler.obj
 0001:000520f0       ??1?$Ptr@VTransformDevice@CoreGraphics@@@@QAE@XZ 004530f0 f i render_win32.release:graphicshandler.obj
 0001:00052120       ??4?$Ptr@VTransformDevice@CoreGraphics@@@@QAEXPAVTransformDevice@CoreGraphics@@@Z 00453120 f i render_win32.release:graphicshandler.obj
 0001:00052180       ??C?$Ptr@VTransformDevice@CoreGraphics@@@@QBEPAVTransformDevice@CoreGraphics@@XZ 00453180 f i render_win32.release:graphicshandler.obj
 0001:000521c0       ??0?$Ptr@VShaderServer@CoreGraphics@@@@QAE@XZ 004531c0 f i render_win32.release:graphicshandler.obj
 0001:000521e0       ??1?$Ptr@VShaderServer@CoreGraphics@@@@QAE@XZ 004531e0 f i render_win32.release:graphicshandler.obj
 0001:00052210       ??4?$Ptr@VShaderServer@CoreGraphics@@@@QAEXPAVShaderServer@CoreGraphics@@@Z 00453210 f i render_win32.release:graphicshandler.obj
 0001:00052270       ??C?$Ptr@VShaderServer@CoreGraphics@@@@QBEPAVShaderServer@CoreGraphics@@XZ 00453270 f i render_win32.release:graphicshandler.obj
 0001:000522b0       ??0?$Ptr@VShapeRenderer@CoreGraphics@@@@QAE@XZ 004532b0 f i render_win32.release:graphicshandler.obj
 0001:000522d0       ??1?$Ptr@VShapeRenderer@CoreGraphics@@@@QAE@XZ 004532d0 f i render_win32.release:graphicshandler.obj
 0001:00052300       ??4?$Ptr@VShapeRenderer@CoreGraphics@@@@QAEXPAVShapeRenderer@CoreGraphics@@@Z 00453300 f i render_win32.release:graphicshandler.obj
 0001:00052360       ??C?$Ptr@VShapeRenderer@CoreGraphics@@@@QBEPAVShapeRenderer@CoreGraphics@@XZ 00453360 f i render_win32.release:graphicshandler.obj
 0001:000523a0       ??0?$Ptr@VVertexLayoutServer@CoreGraphics@@@@QAE@XZ 004533a0 f i render_win32.release:graphicshandler.obj
 0001:000523c0       ??1?$Ptr@VVertexLayoutServer@CoreGraphics@@@@QAE@XZ 004533c0 f i render_win32.release:graphicshandler.obj
 0001:000523f0       ??4?$Ptr@VVertexLayoutServer@CoreGraphics@@@@QAEXPAVVertexLayoutServer@CoreGraphics@@@Z 004533f0 f i render_win32.release:graphicshandler.obj
 0001:00052450       ??C?$Ptr@VVertexLayoutServer@CoreGraphics@@@@QBEPAVVertexLayoutServer@CoreGraphics@@XZ 00453450 f i render_win32.release:graphicshandler.obj
 0001:00052490       ??0?$Ptr@VTextRenderer@CoreGraphics@@@@QAE@XZ 00453490 f i render_win32.release:graphicshandler.obj
 0001:000524b0       ??1?$Ptr@VTextRenderer@CoreGraphics@@@@QAE@XZ 004534b0 f i render_win32.release:graphicshandler.obj
 0001:000524e0       ??4?$Ptr@VTextRenderer@CoreGraphics@@@@QAEXPAVTextRenderer@CoreGraphics@@@Z 004534e0 f i render_win32.release:graphicshandler.obj
 0001:00052540       ??C?$Ptr@VTextRenderer@CoreGraphics@@@@QBEPAVTextRenderer@CoreGraphics@@XZ 00453540 f i render_win32.release:graphicshandler.obj
 0001:00052580       ??0?$Ptr@VMouseRenderDevice@CoreGraphics@@@@QAE@XZ 00453580 f i render_win32.release:graphicshandler.obj
 0001:000525a0       ??1?$Ptr@VMouseRenderDevice@CoreGraphics@@@@QAE@XZ 004535a0 f i render_win32.release:graphicshandler.obj
 0001:000525d0       ??4?$Ptr@VMouseRenderDevice@CoreGraphics@@@@QAEXPAVMouseRenderDevice@CoreGraphics@@@Z 004535d0 f i render_win32.release:graphicshandler.obj
 0001:00052630       ??C?$Ptr@VMouseRenderDevice@CoreGraphics@@@@QBEPAVMouseRenderDevice@CoreGraphics@@XZ 00453630 f i render_win32.release:graphicshandler.obj
 0001:00052670       ??0?$Ptr@VResourceManager@Resources@@@@QAE@XZ 00453670 f i render_win32.release:graphicshandler.obj
 0001:00052690       ??4?$Ptr@VResourceManager@Resources@@@@QAEXPAVResourceManager@Resources@@@Z 00453690 f i render_win32.release:graphicshandler.obj
 0001:000526f0       ??C?$Ptr@VResourceManager@Resources@@@@QBEPAVResourceManager@Resources@@XZ 004536f0 f i render_win32.release:graphicshandler.obj
 0001:00052730       ??0?$Ptr@VModelServer@Models@@@@QAE@XZ 00453730 f i render_win32.release:graphicshandler.obj
 0001:00052750       ??1?$Ptr@VModelServer@Models@@@@QAE@XZ 00453750 f i render_win32.release:graphicshandler.obj
 0001:00052780       ??4?$Ptr@VModelServer@Models@@@@QAEXPAVModelServer@Models@@@Z 00453780 f i render_win32.release:graphicshandler.obj
 0001:000527e0       ??C?$Ptr@VModelServer@Models@@@@QBEPAVModelServer@Models@@XZ 004537e0 f i render_win32.release:graphicshandler.obj
 0001:00052820       ??0?$Ptr@VInternalGraphicsServer@InternalGraphics@@@@QAE@XZ 00453820 f i render_win32.release:graphicshandler.obj
 0001:00052840       ??1?$Ptr@VInternalGraphicsServer@InternalGraphics@@@@QAE@XZ 00453840 f i render_win32.release:graphicshandler.obj
 0001:00052870       ??4?$Ptr@VInternalGraphicsServer@InternalGraphics@@@@QAEXPAVInternalGraphicsServer@InternalGraphics@@@Z 00453870 f i render_win32.release:graphicshandler.obj
 0001:000528d0       ??C?$Ptr@VInternalGraphicsServer@InternalGraphics@@@@QBEPAVInternalGraphicsServer@InternalGraphics@@XZ 004538d0 f i render_win32.release:graphicshandler.obj
 0001:00052910       ??0?$Ptr@VAttachmentServer@InternalGraphics@@@@QAE@XZ 00453910 f i render_win32.release:graphicshandler.obj
 0001:00052930       ??1?$Ptr@VAttachmentServer@InternalGraphics@@@@QAE@XZ 00453930 f i render_win32.release:graphicshandler.obj
 0001:00052960       ??4?$Ptr@VAttachmentServer@InternalGraphics@@@@QAEXPAVAttachmentServer@InternalGraphics@@@Z 00453960 f i render_win32.release:graphicshandler.obj
 0001:000529c0       ??C?$Ptr@VAttachmentServer@InternalGraphics@@@@QBEPAVAttachmentServer@InternalGraphics@@XZ 004539c0 f i render_win32.release:graphicshandler.obj
 0001:00052a00       ??0?$Ptr@VLightServer@Lighting@@@@QAE@XZ 00453a00 f i render_win32.release:graphicshandler.obj
 0001:00052a20       ??1?$Ptr@VLightServer@Lighting@@@@QAE@XZ 00453a20 f i render_win32.release:graphicshandler.obj
 0001:00052a50       ??4?$Ptr@VLightServer@Lighting@@@@QAEXPAVLightServer@Lighting@@@Z 00453a50 f i render_win32.release:graphicshandler.obj
 0001:00052ab0       ??C?$Ptr@VLightServer@Lighting@@@@QBEPAVLightServer@Lighting@@XZ 00453ab0 f i render_win32.release:graphicshandler.obj
 0001:00052af0       ??0?$Ptr@VShadowServer@Lighting@@@@QAE@XZ 00453af0 f i render_win32.release:graphicshandler.obj
 0001:00052b10       ??1?$Ptr@VShadowServer@Lighting@@@@QAE@XZ 00453b10 f i render_win32.release:graphicshandler.obj
 0001:00052b40       ??4?$Ptr@VShadowServer@Lighting@@@@QAEXPAVShadowServer@Lighting@@@Z 00453b40 f i render_win32.release:graphicshandler.obj
 0001:00052ba0       ??C?$Ptr@VShadowServer@Lighting@@@@QBEPAVShadowServer@Lighting@@XZ 00453ba0 f i render_win32.release:graphicshandler.obj
 0001:00052be0       ??0?$Ptr@VFrameServer@Frame@@@@QAE@XZ 00453be0 f i render_win32.release:graphicshandler.obj
 0001:00052c00       ??1?$Ptr@VFrameServer@Frame@@@@QAE@XZ 00453c00 f i render_win32.release:graphicshandler.obj
 0001:00052c30       ??4?$Ptr@VFrameServer@Frame@@@@QAEXPAVFrameServer@Frame@@@Z 00453c30 f i render_win32.release:graphicshandler.obj
 0001:00052c90       ??C?$Ptr@VFrameServer@Frame@@@@QBEPAVFrameServer@Frame@@XZ 00453c90 f i render_win32.release:graphicshandler.obj
 0001:00052cd0       ??0?$Ptr@VAnimEventServer@Animation@@@@QAE@XZ 00453cd0 f i render_win32.release:graphicshandler.obj
 0001:00052cf0       ??1?$Ptr@VAnimEventServer@Animation@@@@QAE@XZ 00453cf0 f i render_win32.release:graphicshandler.obj
 0001:00052d20       ??4?$Ptr@VAnimEventServer@Animation@@@@QAEXPAVAnimEventServer@Animation@@@Z 00453d20 f i render_win32.release:graphicshandler.obj
 0001:00052d80       ??C?$Ptr@VAnimEventServer@Animation@@@@QBEPAVAnimEventServer@Animation@@XZ 00453d80 f i render_win32.release:graphicshandler.obj
 0001:00052dc0       ??0?$Ptr@VCharacterServer@Characters@@@@QAE@XZ 00453dc0 f i render_win32.release:graphicshandler.obj
 0001:00052de0       ??1?$Ptr@VCharacterServer@Characters@@@@QAE@XZ 00453de0 f i render_win32.release:graphicshandler.obj
 0001:00052e10       ??4?$Ptr@VCharacterServer@Characters@@@@QAEXPAVCharacterServer@Characters@@@Z 00453e10 f i render_win32.release:graphicshandler.obj
 0001:00052e70       ??C?$Ptr@VCharacterServer@Characters@@@@QBEPAVCharacterServer@Characters@@XZ 00453e70 f i render_win32.release:graphicshandler.obj
 0001:00052eb0       ??0?$Ptr@VParticleServer@Particles@@@@QAE@XZ 00453eb0 f i render_win32.release:graphicshandler.obj
 0001:00052ed0       ??1?$Ptr@VParticleServer@Particles@@@@QAE@XZ 00453ed0 f i render_win32.release:graphicshandler.obj
 0001:00052f00       ??4?$Ptr@VParticleServer@Particles@@@@QAEXPAVParticleServer@Particles@@@Z 00453f00 f i render_win32.release:graphicshandler.obj
 0001:00052f60       ??C?$Ptr@VParticleServer@Particles@@@@QBEPAVParticleServer@Particles@@XZ 00453f60 f i render_win32.release:graphicshandler.obj
 0001:00052fa0       ??$downcast@VPoolResourceMapper@Resources@@@?$Ptr@VResourceMapper@Resources@@@@QBEABV?$Ptr@VPoolResourceMapper@Resources@@@@XZ 00453fa0 f i render_win32.release:graphicshandler.obj
 0001:00052fb0       ??C?$Ptr@VMessage@Messaging@@@@QBEPAVMessage@Messaging@@XZ 00453fb0 f i render_win32.release:graphicshandler.obj
 0001:00052ff0       ?isvalid@?$Ptr@VMessage@Messaging@@@@QBE_NXZ 00453ff0 f i render_win32.release:graphicshandler.obj
 0001:00053010       ??$cast@VGraphicsEntityMessage@Graphics@@@?$Ptr@VMessage@Messaging@@@@QBEABV?$Ptr@VGraphicsEntityMessage@Graphics@@@@XZ 00454010 f i render_win32.release:graphicshandler.obj
 0001:00053020       ??$Ref@VInternalGraphicsEntity@InternalGraphics@@@ObjectRef@Threading@@QBEPAVInternalGraphicsEntity@InternalGraphics@@XZ 00454020 f i render_win32.release:graphicshandler.obj
 0001:00053090       ??$cast@VSetupGraphics@Graphics@@@?$Ptr@VMessage@Messaging@@@@QBEABV?$Ptr@VSetupGraphics@Graphics@@@@XZ 00454090 f i render_win32.release:graphicshandler.obj
 0001:000530a0       ??$downcast@VCreateModelEntity@Graphics@@@?$Ptr@VMessage@Messaging@@@@QBEABV?$Ptr@VCreateModelEntity@Graphics@@@@XZ 004540a0 f i render_win32.release:graphicshandler.obj
 0001:000530b0       ??$downcast@VCreateCameraEntity@Graphics@@@?$Ptr@VMessage@Messaging@@@@QBEABV?$Ptr@VCreateCameraEntity@Graphics@@@@XZ 004540b0 f i render_win32.release:graphicshandler.obj
 0001:000530c0       ??$downcast@VCreateGlobalLightEntity@Graphics@@@?$Ptr@VMessage@Messaging@@@@QBEABV?$Ptr@VCreateGlobalLightEntity@Graphics@@@@XZ 004540c0 f i render_win32.release:graphicshandler.obj
 0001:000530d0       ??$downcast@VCreatePointLightEntity@Graphics@@@?$Ptr@VMessage@Messaging@@@@QBEABV?$Ptr@VCreatePointLightEntity@Graphics@@@@XZ 004540d0 f i render_win32.release:graphicshandler.obj
 0001:000530e0       ??$downcast@VCreateSpotLightEntity@Graphics@@@?$Ptr@VMessage@Messaging@@@@QBEABV?$Ptr@VCreateSpotLightEntity@Graphics@@@@XZ 004540e0 f i render_win32.release:graphicshandler.obj
 0001:000530f0       ??$downcast@VAdapterExists@Graphics@@@?$Ptr@VMessage@Messaging@@@@QBEABV?$Ptr@VAdapterExists@Graphics@@@@XZ 004540f0 f i render_win32.release:graphicshandler.obj
 0001:00053100       ??$downcast@VGetAvailableDisplayModes@Graphics@@@?$Ptr@VMessage@Messaging@@@@QBEABV?$Ptr@VGetAvailableDisplayModes@Graphics@@@@XZ 00454100 f i render_win32.release:graphicshandler.obj
 0001:00053110       ??$downcast@VGetCurrentAdapterDisplayMode@Graphics@@@?$Ptr@VMessage@Messaging@@@@QBEABV?$Ptr@VGetCurrentAdapterDisplayMode@Graphics@@@@XZ 00454110 f i render_win32.release:graphicshandler.obj
 0001:00053120       ??$downcast@VAdjustDisplaySize@Graphics@@@?$Ptr@VMessage@Messaging@@@@QBEABV?$Ptr@VAdjustDisplaySize@Graphics@@@@XZ 00454120 f i render_win32.release:graphicshandler.obj
 0001:00053130       ??$downcast@VGetAdapterInfo@Graphics@@@?$Ptr@VMessage@Messaging@@@@QBEABV?$Ptr@VGetAdapterInfo@Graphics@@@@XZ 00454130 f i render_win32.release:graphicshandler.obj
 0001:00053140       ??$downcast@VAttachDisplayEventHandler@Graphics@@@?$Ptr@VMessage@Messaging@@@@QBEABV?$Ptr@VAttachDisplayEventHandler@Graphics@@@@XZ 00454140 f i render_win32.release:graphicshandler.obj
 0001:00053150       ??$downcast@VRemoveDisplayEventHandler@Graphics@@@?$Ptr@VMessage@Messaging@@@@QBEABV?$Ptr@VRemoveDisplayEventHandler@Graphics@@@@XZ 00454150 f i render_win32.release:graphicshandler.obj
 0001:00053160       ??$downcast@VAttachRenderEventHandler@Graphics@@@?$Ptr@VMessage@Messaging@@@@QBEABV?$Ptr@VAttachRenderEventHandler@Graphics@@@@XZ 00454160 f i render_win32.release:graphicshandler.obj
 0001:00053170       ??$downcast@VRemoveRenderEventHandler@Graphics@@@?$Ptr@VMessage@Messaging@@@@QBEABV?$Ptr@VRemoveRenderEventHandler@Graphics@@@@XZ 00454170 f i render_win32.release:graphicshandler.obj
 0001:00053180       ??$downcast@VCreateGraphicsStage@Graphics@@@?$Ptr@VMessage@Messaging@@@@QBEABV?$Ptr@VCreateGraphicsStage@Graphics@@@@XZ 00454180 f i render_win32.release:graphicshandler.obj
 0001:00053190       ??$downcast@VDiscardGraphicsStage@Graphics@@@?$Ptr@VMessage@Messaging@@@@QBEABV?$Ptr@VDiscardGraphicsStage@Graphics@@@@XZ 00454190 f i render_win32.release:graphicshandler.obj
 0001:000531a0       ??$downcast@VCreateGraphicsView@Graphics@@@?$Ptr@VMessage@Messaging@@@@QBEABV?$Ptr@VCreateGraphicsView@Graphics@@@@XZ 004541a0 f i render_win32.release:graphicshandler.obj
 0001:000531b0       ??$downcast@VDiscardGraphicsView@Graphics@@@?$Ptr@VMessage@Messaging@@@@QBEABV?$Ptr@VDiscardGraphicsView@Graphics@@@@XZ 004541b0 f i render_win32.release:graphicshandler.obj
 0001:000531c0       ??$downcast@VSetDefaultGraphicsView@Graphics@@@?$Ptr@VMessage@Messaging@@@@QBEABV?$Ptr@VSetDefaultGraphicsView@Graphics@@@@XZ 004541c0 f i render_win32.release:graphicshandler.obj
 0001:000531d0       ??$downcast@VUpdateSharedShaderVariable@Graphics@@@?$Ptr@VMessage@Messaging@@@@QBEABV?$Ptr@VUpdateSharedShaderVariable@Graphics@@@@XZ 004541d0 f i render_win32.release:graphicshandler.obj
 0001:000531e0       ??$downcast@VRegisterAnimEventHandler@Graphics@@@?$Ptr@VMessage@Messaging@@@@QBEABV?$Ptr@VRegisterAnimEventHandler@Graphics@@@@XZ 004541e0 f i render_win32.release:graphicshandler.obj
 0001:000531f0       ??$downcast@VUnregisterAnimEventHandler@Graphics@@@?$Ptr@VMessage@Messaging@@@@QBEABV?$Ptr@VUnregisterAnimEventHandler@Graphics@@@@XZ 004541f0 f i render_win32.release:graphicshandler.obj
 0001:00053200       ??$downcast@VPreloadMousePointerTextures@Graphics@@@?$Ptr@VMessage@Messaging@@@@QBEABV?$Ptr@VPreloadMousePointerTextures@Graphics@@@@XZ 00454200 f i render_win32.release:graphicshandler.obj
 0001:00053210       ??$downcast@VUpdateMousePointers@Graphics@@@?$Ptr@VMessage@Messaging@@@@QBEABV?$Ptr@VUpdateMousePointers@Graphics@@@@XZ 00454210 f i render_win32.release:graphicshandler.obj
 0001:00053220       ??$downcast@VRegisterRTPlugin@Graphics@@@?$Ptr@VMessage@Messaging@@@@QBEABV?$Ptr@VRegisterRTPlugin@Graphics@@@@XZ 00454220 f i render_win32.release:graphicshandler.obj
 0001:00053230       ??$downcast@VUnregisterRTPlugin@Graphics@@@?$Ptr@VMessage@Messaging@@@@QBEABV?$Ptr@VUnregisterRTPlugin@Graphics@@@@XZ 00454230 f i render_win32.release:graphicshandler.obj
 0001:00053240       ??$downcast@VHoldSharedResources@Graphics@@@?$Ptr@VMessage@Messaging@@@@QBEABV?$Ptr@VHoldSharedResources@Graphics@@@@XZ 00454240 f i render_win32.release:graphicshandler.obj
 0001:00053250       ??$downcast@VReleaseSharedResources@Graphics@@@?$Ptr@VMessage@Messaging@@@@QBEABV?$Ptr@VReleaseSharedResources@Graphics@@@@XZ 00454250 f i render_win32.release:graphicshandler.obj
 0001:00053260       ??$downcast@VSetTimeFactor@Graphics@@@?$Ptr@VMessage@Messaging@@@@QBEABV?$Ptr@VSetTimeFactor@Graphics@@@@XZ 00454260 f i render_win32.release:graphicshandler.obj
 0001:00053270       ??$downcast@VSetShadowPointOfInterest@Graphics@@@?$Ptr@VMessage@Messaging@@@@QBEABV?$Ptr@VSetShadowPointOfInterest@Graphics@@@@XZ 00454270 f i render_win32.release:graphicshandler.obj
 0001:00053280       ??$downcast@VCreateVisibilityCluster@Visibility@@@?$Ptr@VMessage@Messaging@@@@QBEABV?$Ptr@VCreateVisibilityCluster@Visibility@@@@XZ 00454280 f i render_win32.release:graphicshandler.obj
 0001:00053290       ??$downcast@VCreateVisibilityBoxes@Visibility@@@?$Ptr@VMessage@Messaging@@@@QBEABV?$Ptr@VCreateVisibilityBoxes@Visibility@@@@XZ 00454290 f i render_win32.release:graphicshandler.obj
 0001:000532a0       ?SetInt@D3D9ShaderVariable@Direct3D9@@QAEXH@Z 004542a0 f i render_win32.release:debuggraphicshandler.obj
 0001:000532d0       ?SetFloat@D3D9ShaderVariable@Direct3D9@@QAEXM@Z 004542d0 f i render_win32.release:debuggraphicshandler.obj
 0001:00053300       ?Instance@ShapeRenderer@CoreGraphics@@SAPAV12@XZ 00454300 f i render_win32.release:debuggraphicshandler.obj
 0001:00053340       ?GetThreadId@RenderDebugText@Debug@@QBEABKXZ 00454340 f i render_win32.release:debuggraphicshandler.obj
 0001:00053360       ?GetTextElements@RenderDebugText@Debug@@QBEABV?$Array@VTextElement@CoreGraphics@@@Util@@XZ 00454360 f i render_win32.release:debuggraphicshandler.obj
 0001:00053380       ?GetThreadId@RenderDebugShapes@Debug@@QBEABKXZ 00454380 f i render_win32.release:debuggraphicshandler.obj
 0001:000533a0       ?GetShapes@RenderDebugShapes@Debug@@QBEABV?$Array@VRenderShape@CoreGraphics@@@Util@@XZ 004543a0 f i render_win32.release:debuggraphicshandler.obj
 0001:000533c0       ?GetEnableDebugRendering@RenderDebugView@Debug@@QBE_NXZ 004543c0 f i render_win32.release:debuggraphicshandler.obj
 0001:000533e0       ?GetSemantic@SetFloatShaderVariable@Debug@@QBEABVStringAtom@Util@@XZ 004543e0 f i render_win32.release:debuggraphicshandler.obj
 0001:00053400       ?GetValue@SetFloatShaderVariable@Debug@@QBEMXZ 00454400 f i render_win32.release:debuggraphicshandler.obj
 0001:00053420       ?GetToggle@ControlPerfHUD@Debug@@QBE_NXZ 00454420 f i render_win32.release:debuggraphicshandler.obj
 0001:00053440       ?GetEnable@ControlPerfHUD@Debug@@QBE_NXZ 00454440 f i render_win32.release:debuggraphicshandler.obj
 0001:00053460       ??2DebugGraphicsHandler@Debug@@SAPAXI@Z 00454460 f i render_win32.release:debuggraphicshandler.obj
 0001:00053470       ??3DebugGraphicsHandler@Debug@@SAXPAX@Z 00454470 f i render_win32.release:debuggraphicshandler.obj
 0001:00053490       ?SetPerfHUDEnabled@DebugGraphicsHandler@Debug@@QAEX_N@Z 00454490 f i render_win32.release:debuggraphicshandler.obj
 0001:000534b0       ?TogglePerfHUD@DebugGraphicsHandler@Debug@@QAEXXZ 004544b0 f i render_win32.release:debuggraphicshandler.obj
 0001:000534d0       ?Instance@TextRenderer@CoreGraphics@@SAPAV12@XZ 004544d0 f i render_win32.release:debuggraphicshandler.obj
 0001:00053510       ?GetSharedVariableBySemantic@ShaderServerBase@Base@@QBEABV?$Ptr@VShaderVariable@CoreGraphics@@@@ABVStringAtom@Util@@@Z 00454510 f i render_win32.release:debuggraphicshandler.obj
 0001:00053560       ?Instance@InternalGraphicsServer@InternalGraphics@@SAPAV12@XZ 00454560 f i render_win32.release:debuggraphicshandler.obj
 0001:000535a0       ?SetRenderDebug@InternalGraphicsServer@InternalGraphics@@QAEX_N@Z 004545a0 f i render_win32.release:debuggraphicshandler.obj
 0001:000535c0       ?Instance@DebugServer@Debug@@SAPAV12@XZ 004545c0 f i render_win32.release:debuggraphicshandler.obj
 0001:000535f0       ?GetRtti@DebugGraphicsHandler@Debug@@UBEPAVRtti@Core@@XZ 004545f0 f   render_win32.release:debuggraphicshandler.obj
 0001:00053600       ?FactoryCreator@DebugGraphicsHandler@Debug@@SAPAVRefCounted@Core@@XZ 00454600 f   render_win32.release:debuggraphicshandler.obj
 0001:00053610       ?Create@DebugGraphicsHandler@Debug@@SAPAV12@XZ 00454610 f   render_win32.release:debuggraphicshandler.obj
 0001:00053650       ?RegisterWithFactory@DebugGraphicsHandler@Debug@@SA_NXZ 00454650 f   render_win32.release:debuggraphicshandler.obj
 0001:00053750       ??0DebugGraphicsHandler@Debug@@QAE@XZ 00454750 f   render_win32.release:debuggraphicshandler.obj
 0001:000537e0       ??_GDebugGraphicsHandler@Debug@@UAEPAXI@Z 004547e0 f i render_win32.release:debuggraphicshandler.obj
 0001:000537e0       ??_EDebugGraphicsHandler@Debug@@UAEPAXI@Z 004547e0 f i  CIL library: CIL module
 0001:00053810       ??1DebugGraphicsHandler@Debug@@UAE@XZ 00454810 f   render_win32.release:debuggraphicshandler.obj
 0001:00053890       ?HandleMessage@DebugGraphicsHandler@Debug@@UAE_NABV?$Ptr@VMessage@Messaging@@@@@Z 00454890 f   render_win32.release:debuggraphicshandler.obj
 0001:00053a60       ?DoWork@DebugGraphicsHandler@Debug@@UAEXXZ 00454a60 f   render_win32.release:debuggraphicshandler.obj
 0001:00053dd0       ?OnRenderDebugText@DebugGraphicsHandler@Debug@@AAEXABV?$Ptr@VRenderDebugText@Debug@@@@@Z 00454dd0 f   render_win32.release:debuggraphicshandler.obj
 0001:00053e80       ?OnRenderDebugShapes@DebugGraphicsHandler@Debug@@AAEXABV?$Ptr@VRenderDebugShapes@Debug@@@@@Z 00454e80 f   render_win32.release:debuggraphicshandler.obj
 0001:00053f30       ?OnRenderDebugView@DebugGraphicsHandler@Debug@@AAEXABV?$Ptr@VRenderDebugView@Debug@@@@@Z 00454f30 f   render_win32.release:debuggraphicshandler.obj
 0001:00053fa0       ?OnIncrDebugShaderLayer@DebugGraphicsHandler@Debug@@AAEXABV?$Ptr@VIncrDebugShaderLayer@Debug@@@@@Z 00454fa0 f   render_win32.release:debuggraphicshandler.obj
 0001:00054090       ?OnSetFloatShaderVariable@DebugGraphicsHandler@Debug@@AAEXABV?$Ptr@VSetFloatShaderVariable@Debug@@@@@Z 00455090 f   render_win32.release:debuggraphicshandler.obj
 0001:00054160       ?OnControlPerfHUD@DebugGraphicsHandler@Debug@@AAEXABV?$Ptr@VControlPerfHUD@Debug@@@@@Z 00455160 f   render_win32.release:debuggraphicshandler.obj
 0001:000541c0       ??C?$Ptr@VShaderInstance@CoreGraphics@@@@QBEPAVShaderInstance@CoreGraphics@@XZ 004551c0 f i render_win32.release:debuggraphicshandler.obj
 0001:00054200       ?isvalid@?$Ptr@VShaderInstance@CoreGraphics@@@@QBE_NXZ 00455200 f i render_win32.release:debuggraphicshandler.obj
 0001:00054220       ??C?$Ptr@VShaderVariable@CoreGraphics@@@@QBEPAVShaderVariable@CoreGraphics@@XZ 00455220 f i render_win32.release:debuggraphicshandler.obj
 0001:00054260       ?isvalid@?$Ptr@VShaderVariable@CoreGraphics@@@@QBE_NXZ 00455260 f i render_win32.release:debuggraphicshandler.obj
 0001:00054280       ??0?$Ptr@VDebugCounter@Debug@@@@QAE@XZ 00455280 f i render_win32.release:debuggraphicshandler.obj
 0001:000542a0       ??1?$Ptr@VDebugCounter@Debug@@@@QAE@XZ 004552a0 f i render_win32.release:debuggraphicshandler.obj
 0001:000542d0       ??4?$Ptr@VDebugCounter@Debug@@@@QAEXABV0@@Z 004552d0 f i render_win32.release:debuggraphicshandler.obj
 0001:00054330       ??C?$Ptr@VDebugCounter@Debug@@@@QBEPAVDebugCounter@Debug@@XZ 00455330 f i render_win32.release:debuggraphicshandler.obj
 0001:00054370       ?isvalid@?$Ptr@VDebugCounter@Debug@@@@QBE_NXZ 00455370 f i render_win32.release:debuggraphicshandler.obj
 0001:00054390       ??4?$Ptr@VDebugTimer@Debug@@@@QAEXABV0@@Z 00455390 f i render_win32.release:debuggraphicshandler.obj
 0001:000543f0       ?isvalid@?$Ptr@VDebugTimer@Debug@@@@QBE_NXZ 004553f0 f i render_win32.release:debuggraphicshandler.obj
 0001:00054410       ??$cast@VRenderDebugText@Debug@@@?$Ptr@VMessage@Messaging@@@@QBEABV?$Ptr@VRenderDebugText@Debug@@@@XZ 00455410 f i render_win32.release:debuggraphicshandler.obj
 0001:00054420       ??$cast@VRenderDebugShapes@Debug@@@?$Ptr@VMessage@Messaging@@@@QBEABV?$Ptr@VRenderDebugShapes@Debug@@@@XZ 00455420 f i render_win32.release:debuggraphicshandler.obj
 0001:00054430       ??$cast@VRenderDebugView@Debug@@@?$Ptr@VMessage@Messaging@@@@QBEABV?$Ptr@VRenderDebugView@Debug@@@@XZ 00455430 f i render_win32.release:debuggraphicshandler.obj
 0001:00054440       ??$cast@VIncrDebugShaderLayer@Debug@@@?$Ptr@VMessage@Messaging@@@@QBEABV?$Ptr@VIncrDebugShaderLayer@Debug@@@@XZ 00455440 f i render_win32.release:debuggraphicshandler.obj
 0001:00054450       ??$cast@VSetFloatShaderVariable@Debug@@@?$Ptr@VMessage@Messaging@@@@QBEABV?$Ptr@VSetFloatShaderVariable@Debug@@@@XZ 00455450 f i render_win32.release:debuggraphicshandler.obj
 0001:00054460       ??$cast@VControlPerfHUD@Debug@@@?$Ptr@VMessage@Messaging@@@@QBEABV?$Ptr@VControlPerfHUD@Debug@@@@XZ 00455460 f i render_win32.release:debuggraphicshandler.obj
 0001:00054470       ??C?$Ptr@VRenderDebugShapes@Debug@@@@QBEPAVRenderDebugShapes@Debug@@XZ 00455470 f i render_win32.release:debuggraphicshandler.obj
 0001:000544b0       ??C?$Ptr@VSetFloatShaderVariable@Debug@@@@QBEPAVSetFloatShaderVariable@Debug@@XZ 004554b0 f i render_win32.release:debuggraphicshandler.obj
 0001:000544f0       ??C?$Ptr@VControlPerfHUD@Debug@@@@QBEPAVControlPerfHUD@Debug@@XZ 004554f0 f i render_win32.release:debuggraphicshandler.obj
 0001:00054530       ??2Win32InputServer@Win32@@SAPAXI@Z 00455530 f i render_win32.release:win32inputserver.obj
 0001:00054540       ??3Win32InputServer@Win32@@SAXPAX@Z 00455540 f i render_win32.release:win32inputserver.obj
 0001:00054560       ?SetPlayerIndex@GamePadBase@Base@@QAEXH@Z 00455560 f i render_win32.release:win32inputserver.obj
 0001:000545a0       ?Instance@Display@Graphics@@SAPAV12@XZ 004555a0 f i render_win32.release:win32inputserver.obj
 0001:000545e0       ?GetRtti@Win32InputServer@Win32@@UBEPAVRtti@Core@@XZ 004555e0 f   render_win32.release:win32inputserver.obj
 0001:000545f0       ?FactoryCreator@Win32InputServer@Win32@@SAPAVRefCounted@Core@@XZ 004555f0 f   render_win32.release:win32inputserver.obj
 0001:00054600       ?Create@Win32InputServer@Win32@@SAPAV12@XZ 00455600 f   render_win32.release:win32inputserver.obj
 0001:00054640       ?RegisterWithFactory@Win32InputServer@Win32@@SA_NXZ 00455640 f   render_win32.release:win32inputserver.obj
 0001:00054740       ??0Win32InputServer@Win32@@QAE@XZ 00455740 f   render_win32.release:win32inputserver.obj
 0001:000547c0       ??_GWin32InputServer@Win32@@UAEPAXI@Z 004557c0 f i render_win32.release:win32inputserver.obj
 0001:000547c0       ??_EWin32InputServer@Win32@@UAEPAXI@Z 004557c0 f i  CIL library: CIL module
 0001:000547f0       ??1Win32InputServer@Win32@@UAE@XZ 004557f0 f   render_win32.release:win32inputserver.obj
 0001:00054870       ?Open@Win32InputServer@Win32@@UAEXXZ 00455870 f   render_win32.release:win32inputserver.obj
 0001:00054a00       ?Close@Win32InputServer@Win32@@UAEXXZ 00455a00 f   render_win32.release:win32inputserver.obj
 0001:00054a90       ?OnFrame@Win32InputServer@Win32@@UAEXXZ 00455a90 f   render_win32.release:win32inputserver.obj
 0001:00054ac0       ?OpenDInputMouse@Win32InputServer@Win32@@IAE_NXZ 00455ac0 f   render_win32.release:win32inputserver.obj
 0001:00054d00       ?CloseDInputMouse@Win32InputServer@Win32@@IAEXXZ 00455d00 f   render_win32.release:win32inputserver.obj
 0001:00054da0       ?ReadDInputMouse@Win32InputServer@Win32@@IAEXXZ 00455da0 f   render_win32.release:win32inputserver.obj
 0001:00054f30       ??0?$Ptr@VWin32InputDisplayEventHandler@Win32@@@@QAE@XZ 00455f30 f i render_win32.release:win32inputserver.obj
 0001:00054f50       ??1?$Ptr@VWin32InputDisplayEventHandler@Win32@@@@QAE@XZ 00455f50 f i render_win32.release:win32inputserver.obj
 0001:00054f80       ??4?$Ptr@VWin32InputDisplayEventHandler@Win32@@@@QAEXPAVWin32InputDisplayEventHandler@Win32@@@Z 00455f80 f i render_win32.release:win32inputserver.obj
 0001:00054ff0       ??C?$Ptr@VWin32InputDisplayEventHandler@Win32@@@@QBEPAVWin32InputDisplayEventHandler@Win32@@XZ 00455ff0 f i render_win32.release:win32inputserver.obj
 0001:00055030       ??$upcast@VThreadSafeDisplayEventHandler@CoreGraphics@@@?$Ptr@VWin32InputDisplayEventHandler@Win32@@@@QBEABV?$Ptr@VThreadSafeDisplayEventHandler@CoreGraphics@@@@XZ 00456030 f i render_win32.release:win32inputserver.obj
 0001:00055040       ??$upcast@VInputHandler@Input@@@?$Ptr@VKeyboard@Input@@@@QBEABV?$Ptr@VInputHandler@Input@@@@XZ 00456040 f i render_win32.release:win32inputserver.obj
 0001:00055050       ??$upcast@VInputHandler@Input@@@?$Ptr@VMouse@Input@@@@QBEABV?$Ptr@VInputHandler@Input@@@@XZ 00456050 f i render_win32.release:win32inputserver.obj
 0001:00055060       ??4?$Ptr@VGamePad@Input@@@@QAEXPAVGamePad@Input@@@Z 00456060 f i render_win32.release:win32inputserver.obj
 0001:000550c0       ??$upcast@VInputHandler@Input@@@?$Ptr@VGamePad@Input@@@@QBEABV?$Ptr@VInputHandler@Input@@@@XZ 004560c0 f i render_win32.release:win32inputserver.obj
 0001:000550d0       ?n_tan@Math@@YAMM@Z        004560d0 f i render_win32.release:camerasettings.obj
 0001:000550f0       ??Xfloat4@Math@@QAEXM@Z    004560f0 f i render_win32.release:camerasettings.obj
 0001:00055150       ?set@float4@Math@@QAEXMMMM@Z 00456150 f i render_win32.release:camerasettings.obj
 0001:000551a0       ?set@point@Math@@QAEXMMM@Z 004561a0 f i render_win32.release:camerasettings.obj
 0001:00055200       ??0plane@Math@@QAE@XZ      00456200 f i render_win32.release:camerasettings.obj
 0001:00055210       ?setup_from_points@plane@Math@@QAEXABVfloat4@2@00@Z 00456210 f i render_win32.release:camerasettings.obj
 0001:000558d0       ?inverse@matrix44@Math@@SA?AV12@ABV12@@Z 004568d0 f i render_win32.release:camerasettings.obj
 0001:00055910       ?orthorh@matrix44@Math@@SA?AV12@MMMM@Z 00456910 f i render_win32.release:camerasettings.obj
 0001:00055b20       ?perspfovrh@matrix44@Math@@SA?AV12@MMMM@Z 00456b20 f i render_win32.release:camerasettings.obj
 0001:00055d90       ??0frustum@Math@@QAE@XZ    00456d90 f i render_win32.release:camerasettings.obj
 0001:00055dd0       ?set@frustum@Math@@QAEXABVmatrix44@2@@Z 00456dd0 f i render_win32.release:camerasettings.obj
 0001:00056920       ??0CameraSettings@Shared@@QAE@XZ 00457920 f   render_win32.release:camerasettings.obj
 0001:00056c70       ?SetupPerspectiveFov@CameraSettings@Shared@@QAEXMMMM@Z 00457c70 f   render_win32.release:camerasettings.obj
 0001:00057200       ?SetupOrthogonal@CameraSettings@Shared@@QAEXMMMM@Z 00458200 f   render_win32.release:camerasettings.obj
 0001:000575e0       ?UpdateViewProjMatrix@CameraSettings@Shared@@ABEXXZ 004585e0 f   render_win32.release:camerasettings.obj
 0001:00057ee0       ?UpdateViewFrustum@CameraSettings@Shared@@ABEXXZ 00458ee0 f   render_win32.release:camerasettings.obj
 0001:00057f80       ?XMMatrixPerspectiveFovRH@@YA?AU_XMMATRIX@@MMMM@Z 00458f80 f i render_win32.release:camerasettings.obj
 0001:000581d0       ?XMScalarSinCos@@YAXPAM0M@Z 004591d0 f i render_win32.release:camerasettings.obj
 0001:00058200       ?XMMatrixOrthographicRH@@YA?AU_XMMATRIX@@MMMM@Z 00459200 f i render_win32.release:camerasettings.obj
 0001:000583e0       ?XMMatrixTranspose@@YA?AU_XMMATRIX@@ABU1@@Z 004593e0 f i render_win32.release:camerasettings.obj
 0001:00058540       ?XMMatrixInverse@@YA?AU_XMMATRIX@@PAT__m128@@ABU1@@Z 00459540 f i render_win32.release:camerasettings.obj
 0001:00059760       ?XMVector3Normalize@@YA?AT__m128@@T1@@Z 0045a760 f i render_win32.release:camerasettings.obj
 0001:000599e0       ?XMPlaneDotNormal@@YA?AT__m128@@T1@0@Z 0045a9e0 f i render_win32.release:camerasettings.obj
 0001:00059ac0       ?XMPlaneFromPoints@@YA?AT__m128@@T1@00@Z 0045aac0 f i render_win32.release:camerasettings.obj
 0001:0005a140       ?XMVector3Dot@@YA?AT__m128@@T1@0@Z 0045b140 f i render_win32.release:camerasettings.obj
 0001:0005a210       ?XMVector3Cross@@YA?AT__m128@@T1@0@Z 0045b210 f i render_win32.release:camerasettings.obj
 0001:0005a360       ?XMVector4Dot@@YA?AT__m128@@T1@0@Z 0045b360 f i render_win32.release:camerasettings.obj
 0001:0005a440       _tanf                      0045b440 f i render_win32.release:camerasettings.obj
 0001:0005a460       ?SetName@Stage@Graphics@@AAEXABVStringAtom@Util@@@Z 0045b460 f i render_win32.release:graphicsserver.obj
 0001:0005a480       ?SetName@View@Graphics@@AAEXABVStringAtom@Util@@@Z 0045b480 f i render_win32.release:graphicsserver.obj
 0001:0005a4a0       ?GetName@View@Graphics@@QBEABVStringAtom@Util@@XZ 0045b4a0 f i render_win32.release:graphicsserver.obj
 0001:0005a4c0       ?SetViewClass@View@Graphics@@AAEXABVRtti@Core@@@Z 0045b4c0 f i render_win32.release:graphicsserver.obj
 0001:0005a4e0       ?SetStageName@View@Graphics@@AAEXABVStringAtom@Util@@@Z 0045b4e0 f i render_win32.release:graphicsserver.obj
 0001:0005a500       ?SetFrameShaderName@View@Graphics@@AAEXABVStringAtom@Util@@@Z 0045b500 f i render_win32.release:graphicsserver.obj
 0001:0005a520       ??2GraphicsServer@Graphics@@SAPAXI@Z 0045b520 f i render_win32.release:graphicsserver.obj
 0001:0005a530       ??3GraphicsServer@Graphics@@SAXPAX@Z 0045b530 f i render_win32.release:graphicsserver.obj
 0001:0005a550       ?GetRtti@GraphicsServer@Graphics@@UBEPAVRtti@Core@@XZ 0045b550 f   render_win32.release:graphicsserver.obj
 0001:0005a560       ?FactoryCreator@GraphicsServer@Graphics@@SAPAVRefCounted@Core@@XZ 0045b560 f   render_win32.release:graphicsserver.obj
 0001:0005a570       ?Create@GraphicsServer@Graphics@@SAPAV12@XZ 0045b570 f   render_win32.release:graphicsserver.obj
 0001:0005a5b0       ?RegisterWithFactory@GraphicsServer@Graphics@@SA_NXZ 0045b5b0 f   render_win32.release:graphicsserver.obj
 0001:0005a6b0       ??0GraphicsServer@Graphics@@QAE@XZ 0045b6b0 f   render_win32.release:graphicsserver.obj
 0001:0005a760       ??_GGraphicsServer@Graphics@@UAEPAXI@Z 0045b760 f i render_win32.release:graphicsserver.obj
 0001:0005a760       ??_EGraphicsServer@Graphics@@UAEPAXI@Z 0045b760 f i  CIL library: CIL module
 0001:0005a790       ??1GraphicsServer@Graphics@@UAE@XZ 0045b790 f   render_win32.release:graphicsserver.obj
 0001:0005a8e0       ?Open@GraphicsServer@Graphics@@QAEXXZ 0045b8e0 f   render_win32.release:graphicsserver.obj
 0001:0005a920       ?Close@GraphicsServer@Graphics@@QAEXXZ 0045b920 f   render_win32.release:graphicsserver.obj
 0001:0005a970       ?CreateStage@GraphicsServer@Graphics@@QAE?AV?$Ptr@VStage@Graphics@@@@ABVStringAtom@Util@@ABV?$Array@V?$Ptr@VVisibilitySystemBase@Visibility@@@@@5@@Z 0045b970 f   render_win32.release:graphicsserver.obj
 0001:0005aa50       ?DiscardStage@GraphicsServer@Graphics@@QAEXABV?$Ptr@VStage@Graphics@@@@@Z 0045ba50 f   render_win32.release:graphicsserver.obj
 0001:0005aaf0       ?DiscardAllStages@GraphicsServer@Graphics@@QAEXXZ 0045baf0 f   render_win32.release:graphicsserver.obj
 0001:0005ab60       ?HasStage@GraphicsServer@Graphics@@QBE_NABVStringAtom@Util@@@Z 0045bb60 f   render_win32.release:graphicsserver.obj
 0001:0005ab80       ?GetStageByName@GraphicsServer@Graphics@@QBEABV?$Ptr@VStage@Graphics@@@@ABVStringAtom@Util@@@Z 0045bb80 f   render_win32.release:graphicsserver.obj
 0001:0005abb0       ?GetStages@GraphicsServer@Graphics@@QBEABV?$Array@V?$Ptr@VStage@Graphics@@@@@Util@@XZ 0045bbb0 f   render_win32.release:graphicsserver.obj
 0001:0005abd0       ?CreateView@GraphicsServer@Graphics@@QAE?AV?$Ptr@VView@Graphics@@@@ABVRtti@Core@@ABVStringAtom@Util@@11_N@Z 0045bbd0 f   render_win32.release:graphicsserver.obj
 0001:0005ad20       ?DiscardView@GraphicsServer@Graphics@@QAEXABV?$Ptr@VView@Graphics@@@@@Z 0045bd20 f   render_win32.release:graphicsserver.obj
 0001:0005ae10       ?SetDefaultView@GraphicsServer@Graphics@@QAEXABV?$Ptr@VView@Graphics@@@@@Z 0045be10 f   render_win32.release:graphicsserver.obj
 0001:0005aed0       ?DiscardAllViews@GraphicsServer@Graphics@@QAEXXZ 0045bed0 f   render_win32.release:graphicsserver.obj
 0001:0005af70       ?HasView@GraphicsServer@Graphics@@QBE_NABVStringAtom@Util@@@Z 0045bf70 f   render_win32.release:graphicsserver.obj
 0001:0005af90       ?GetViewByName@GraphicsServer@Graphics@@QBEABV?$Ptr@VView@Graphics@@@@ABVStringAtom@Util@@@Z 0045bf90 f   render_win32.release:graphicsserver.obj
 0001:0005afc0       ?GetViews@GraphicsServer@Graphics@@QBEABV?$Array@V?$Ptr@VView@Graphics@@@@@Util@@XZ 0045bfc0 f   render_win32.release:graphicsserver.obj
 0001:0005afe0       ?GetDefaultView@GraphicsServer@Graphics@@QBEABV?$Ptr@VView@Graphics@@@@XZ 0045bfe0 f   render_win32.release:graphicsserver.obj
 0001:0005b000       ?OnFrame@GraphicsServer@Graphics@@QAEXXZ 0045c000 f   render_win32.release:graphicsserver.obj
 0001:0005b0b0       ?RegisterRenderModule@GraphicsServer@Graphics@@QAEXABV?$Ptr@VRenderModule@RenderModules@@@@@Z 0045c0b0 f   render_win32.release:graphicsserver.obj
 0001:0005b100       ?UnregisterRenderModule@GraphicsServer@Graphics@@QAEXABV?$Ptr@VRenderModule@RenderModules@@@@@Z 0045c100 f   render_win32.release:graphicsserver.obj
 0001:0005b150       ?GetRenderModules@GraphicsServer@Graphics@@QBEABV?$Array@V?$Ptr@VRenderModule@RenderModules@@@@@Util@@XZ 0045c150 f   render_win32.release:graphicsserver.obj
 0001:0005b170       ??0?$Ptr@VStage@Graphics@@@@QAE@ABV0@@Z 0045c170 f i render_win32.release:graphicsserver.obj
 0001:0005b1b0       ??0?$Array@V?$Ptr@VStage@Graphics@@@@@Util@@QAE@XZ 0045c1b0 f i render_win32.release:graphicsserver.obj
 0001:0005b1f0       ??1?$Array@V?$Ptr@VStage@Graphics@@@@@Util@@QAE@XZ 0045c1f0 f i render_win32.release:graphicsserver.obj
 0001:0005b210       ??A?$Array@V?$Ptr@VStage@Graphics@@@@@Util@@QBEAAV?$Ptr@VStage@Graphics@@@@H@Z 0045c210 f i render_win32.release:graphicsserver.obj
 0001:0005b260       ?Append@?$Array@V?$Ptr@VStage@Graphics@@@@@Util@@QAEXABV?$Ptr@VStage@Graphics@@@@@Z 0045c260 f i render_win32.release:graphicsserver.obj
 0001:0005b2e0       ?Size@?$Array@V?$Ptr@VStage@Graphics@@@@@Util@@QBEHXZ 0045c2e0 f i render_win32.release:graphicsserver.obj
 0001:0005b300       ?IsEmpty@?$Array@V?$Ptr@VStage@Graphics@@@@@Util@@QBE_NXZ 0045c300 f i render_win32.release:graphicsserver.obj
 0001:0005b320       ?EraseIndex@?$Array@V?$Ptr@VStage@Graphics@@@@@Util@@QAEXH@Z 0045c320 f i render_win32.release:graphicsserver.obj
 0001:0005b3a0       ?Clear@?$Array@V?$Ptr@VStage@Graphics@@@@@Util@@QAEXXZ 0045c3a0 f i render_win32.release:graphicsserver.obj
 0001:0005b3f0       ??A?$Dictionary@VStringAtom@Util@@H@Util@@QAEAAHABVStringAtom@1@@Z 0045c3f0 f i render_win32.release:graphicsserver.obj
 0001:0005b440       ?Erase@?$Dictionary@VStringAtom@Util@@H@Util@@QAEXABVStringAtom@2@@Z 0045c440 f i render_win32.release:graphicsserver.obj
 0001:0005b4c0       ??0?$Array@V?$Ptr@VView@Graphics@@@@@Util@@QAE@XZ 0045c4c0 f i render_win32.release:graphicsserver.obj
 0001:0005b500       ??1?$Array@V?$Ptr@VView@Graphics@@@@@Util@@QAE@XZ 0045c500 f i render_win32.release:graphicsserver.obj
 0001:0005b520       ??A?$Array@V?$Ptr@VView@Graphics@@@@@Util@@QBEAAV?$Ptr@VView@Graphics@@@@H@Z 0045c520 f i render_win32.release:graphicsserver.obj
 0001:0005b570       ?Append@?$Array@V?$Ptr@VView@Graphics@@@@@Util@@QAEXABV?$Ptr@VView@Graphics@@@@@Z 0045c570 f i render_win32.release:graphicsserver.obj
 0001:0005b5f0       ?Size@?$Array@V?$Ptr@VView@Graphics@@@@@Util@@QBEHXZ 0045c5f0 f i render_win32.release:graphicsserver.obj
 0001:0005b610       ?IsEmpty@?$Array@V?$Ptr@VView@Graphics@@@@@Util@@QBE_NXZ 0045c610 f i render_win32.release:graphicsserver.obj
 0001:0005b630       ?EraseIndex@?$Array@V?$Ptr@VView@Graphics@@@@@Util@@QAEXH@Z 0045c630 f i render_win32.release:graphicsserver.obj
 0001:0005b6b0       ?Clear@?$Array@V?$Ptr@VView@Graphics@@@@@Util@@QAEXXZ 0045c6b0 f i render_win32.release:graphicsserver.obj
 0001:0005b700       ??0?$Ptr@VView@Graphics@@@@QAE@ABV0@@Z 0045c700 f i render_win32.release:graphicsserver.obj
 0001:0005b740       ??0?$Ptr@VView@Graphics@@@@QAE@PAVView@Graphics@@@Z 0045c740 f i render_win32.release:graphicsserver.obj
 0001:0005b780       ??8?$Ptr@VView@Graphics@@@@QBE_NABV0@@Z 0045c780 f i render_win32.release:graphicsserver.obj
 0001:0005b7a0       ??9?$Ptr@VView@Graphics@@@@QBE_NABV0@@Z 0045c7a0 f i render_win32.release:graphicsserver.obj
 0001:0005b7c0       ??0?$Array@V?$Ptr@VRenderModule@RenderModules@@@@@Util@@QAE@XZ 0045c7c0 f i render_win32.release:graphicsserver.obj
 0001:0005b800       ??1?$Array@V?$Ptr@VRenderModule@RenderModules@@@@@Util@@QAE@XZ 0045c800 f i render_win32.release:graphicsserver.obj
 0001:0005b820       ??A?$Array@V?$Ptr@VRenderModule@RenderModules@@@@@Util@@QBEAAV?$Ptr@VRenderModule@RenderModules@@@@H@Z 0045c820 f i render_win32.release:graphicsserver.obj
 0001:0005b870       ?Append@?$Array@V?$Ptr@VRenderModule@RenderModules@@@@@Util@@QAEXABV?$Ptr@VRenderModule@RenderModules@@@@@Z 0045c870 f i render_win32.release:graphicsserver.obj
 0001:0005b8f0       ?Size@?$Array@V?$Ptr@VRenderModule@RenderModules@@@@@Util@@QBEHXZ 0045c8f0 f i render_win32.release:graphicsserver.obj
 0001:0005b910       ?EraseIndex@?$Array@V?$Ptr@VRenderModule@RenderModules@@@@@Util@@QAEXH@Z 0045c910 f i render_win32.release:graphicsserver.obj
 0001:0005b990       ?Clear@?$Array@V?$Ptr@VRenderModule@RenderModules@@@@@Util@@QAEXXZ 0045c990 f i render_win32.release:graphicsserver.obj
 0001:0005b9e0       ?FindIndex@?$Array@V?$Ptr@VRenderModule@RenderModules@@@@@Util@@QBEHABV?$Ptr@VRenderModule@RenderModules@@@@@Z 0045c9e0 f i render_win32.release:graphicsserver.obj
 0001:0005ba40       ??C?$Ptr@VRenderModule@RenderModules@@@@QBEPAVRenderModule@RenderModules@@XZ 0045ca40 f i render_win32.release:graphicsserver.obj
 0001:0005ba80       ?Destroy@?$Array@V?$Ptr@VStage@Graphics@@@@@Util@@AAEXPAV?$Ptr@VStage@Graphics@@@@@Z 0045ca80 f i render_win32.release:graphicsserver.obj
 0001:0005bab0       ?Delete@?$Array@V?$Ptr@VStage@Graphics@@@@@Util@@AAEXXZ 0045cab0 f i render_win32.release:graphicsserver.obj
 0001:0005bb20       ?Grow@?$Array@V?$Ptr@VStage@Graphics@@@@@Util@@AAEXXZ 0045cb20 f i render_win32.release:graphicsserver.obj
 0001:0005bba0       ?Move@?$Array@V?$Ptr@VStage@Graphics@@@@@Util@@AAEXHH@Z 0045cba0 f i render_win32.release:graphicsserver.obj
 0001:0005bd30       ?EraseIndex@?$Array@V?$KeyValuePair@VStringAtom@Util@@H@Util@@@Util@@QAEXH@Z 0045cd30 f i render_win32.release:graphicsserver.obj
 0001:0005bdb0       ?Destroy@?$Array@V?$Ptr@VView@Graphics@@@@@Util@@AAEXPAV?$Ptr@VView@Graphics@@@@@Z 0045cdb0 f i render_win32.release:graphicsserver.obj
 0001:0005bde0       ?Delete@?$Array@V?$Ptr@VView@Graphics@@@@@Util@@AAEXXZ 0045cde0 f i render_win32.release:graphicsserver.obj
 0001:0005be50       ?Grow@?$Array@V?$Ptr@VView@Graphics@@@@@Util@@AAEXXZ 0045ce50 f i render_win32.release:graphicsserver.obj
 0001:0005bed0       ?Move@?$Array@V?$Ptr@VView@Graphics@@@@@Util@@AAEXHH@Z 0045ced0 f i render_win32.release:graphicsserver.obj
 0001:0005c060       ?Destroy@?$Array@V?$Ptr@VRenderModule@RenderModules@@@@@Util@@AAEXPAV?$Ptr@VRenderModule@RenderModules@@@@@Z 0045d060 f i render_win32.release:graphicsserver.obj
 0001:0005c090       ?Delete@?$Array@V?$Ptr@VRenderModule@RenderModules@@@@@Util@@AAEXXZ 0045d090 f i render_win32.release:graphicsserver.obj
 0001:0005c100       ?Grow@?$Array@V?$Ptr@VRenderModule@RenderModules@@@@@Util@@AAEXXZ 0045d100 f i render_win32.release:graphicsserver.obj
 0001:0005c180       ?Move@?$Array@V?$Ptr@VRenderModule@RenderModules@@@@@Util@@AAEXHH@Z 0045d180 f i render_win32.release:graphicsserver.obj
 0001:0005c310       ??4?$Ptr@VRenderModule@RenderModules@@@@QAEXABV0@@Z 0045d310 f i render_win32.release:graphicsserver.obj
 0001:0005c370       ??8?$Ptr@VRenderModule@RenderModules@@@@QBE_NABV0@@Z 0045d370 f i render_win32.release:graphicsserver.obj
 0001:0005c390       ??_G?$Ptr@VStage@Graphics@@@@QAEPAXI@Z 0045d390 f i render_win32.release:graphicsserver.obj
 0001:0005c3c0       ??_E?$Ptr@VStage@Graphics@@@@QAEPAXI@Z 0045d3c0 f i render_win32.release:graphicsserver.obj
 0001:0005c460       ??_G?$Ptr@VView@Graphics@@@@QAEPAXI@Z 0045d460 f i render_win32.release:graphicsserver.obj
 0001:0005c490       ??_E?$Ptr@VView@Graphics@@@@QAEPAXI@Z 0045d490 f i render_win32.release:graphicsserver.obj
 0001:0005c530       ??_G?$Ptr@VRenderModule@RenderModules@@@@QAEPAXI@Z 0045d530 f i render_win32.release:graphicsserver.obj
 0001:0005c560       ??_E?$Ptr@VRenderModule@RenderModules@@@@QAEPAXI@Z 0045d560 f i render_win32.release:graphicsserver.obj
 0001:0005c600       ?GrowTo@?$Array@V?$Ptr@VStage@Graphics@@@@@Util@@AAEXH@Z 0045d600 f i render_win32.release:graphicsserver.obj
 0001:0005c720       ?GrowTo@?$Array@V?$Ptr@VView@Graphics@@@@@Util@@AAEXH@Z 0045d720 f i render_win32.release:graphicsserver.obj
 0001:0005c840       ?GrowTo@?$Array@V?$Ptr@VRenderModule@RenderModules@@@@@Util@@AAEXH@Z 0045d840 f i render_win32.release:graphicsserver.obj
 0001:0005c960       ??1?$Ptr@VRenderModule@RenderModules@@@@QAE@XZ 0045d960 f i render_win32.release:graphicsserver.obj
 0001:0005c990       ??0?$Ptr@VRenderModule@RenderModules@@@@QAE@XZ 0045d990 f i render_win32.release:graphicsserver.obj
 0001:0005c9b0       ??0float2@Math@@QAE@ABV01@@Z 0045d9b0 f i render_win32.release:textelement.obj
 0001:0005c9e0       ??0TextElement@CoreGraphics@@QAE@XZ 0045d9e0 f   render_win32.release:textelement.obj
 0001:0005cad0       ??0TextElement@CoreGraphics@@QAE@KABVString@Util@@ABVfloat4@Math@@ABVfloat2@5@@Z 0045dad0 f   render_win32.release:textelement.obj
 0001:0005cb80       ??2View@Graphics@@SAPAXI@Z 0045db80 f i render_win32.release:view.obj
 0001:0005cb90       ??3View@Graphics@@SAXPAX@Z 0045db90 f i render_win32.release:view.obj
 0001:0005cbb0       ?IsValid@View@Graphics@@QBE_NXZ 0045dbb0 f i render_win32.release:view.obj
 0001:0005cbd0       ?SetViewClass@CreateGraphicsView@Graphics@@QAEXPBVRtti@Core@@@Z 0045dbd0 f i render_win32.release:view.obj
 0001:0005cc10       ?SetName@CreateGraphicsView@Graphics@@QAEXABVStringAtom@Util@@@Z 0045dc10 f i render_win32.release:view.obj
 0001:0005cc50       ?SetStageName@CreateGraphicsView@Graphics@@QAEXABVStringAtom@Util@@@Z 0045dc50 f i render_win32.release:view.obj
 0001:0005cc90       ?SetFrameShaderName@CreateGraphicsView@Graphics@@QAEXABVStringAtom@Util@@@Z 0045dc90 f i render_win32.release:view.obj
 0001:0005ccd0       ?SetDefaultView@CreateGraphicsView@Graphics@@QAEX_N@Z 0045dcd0 f i render_win32.release:view.obj
 0001:0005cd10       ?SetObjectRef@CreateGraphicsView@Graphics@@QAEXABV?$Ptr@VObjectRef@Threading@@@@@Z 0045dd10 f i render_win32.release:view.obj
 0001:0005cd50       ?SetObjectRef@DiscardGraphicsView@Graphics@@QAEXABV?$Ptr@VObjectRef@Threading@@@@@Z 0045dd50 f i render_win32.release:view.obj
 0001:0005cd90       ?SetObjectRef@SetDefaultGraphicsView@Graphics@@QAEXABV?$Ptr@VObjectRef@Threading@@@@@Z 0045dd90 f i render_win32.release:view.obj
 0001:0005cdd0       ?GetRtti@View@Graphics@@UBEPAVRtti@Core@@XZ 0045ddd0 f   render_win32.release:view.obj
 0001:0005cde0       ?FactoryCreator@View@Graphics@@SAPAVRefCounted@Core@@XZ 0045dde0 f   render_win32.release:view.obj
 0001:0005cdf0       ?Create@View@Graphics@@SAPAV12@XZ 0045ddf0 f   render_win32.release:view.obj
 0001:0005ce30       ?RegisterWithFactory@View@Graphics@@SA_NXZ 0045de30 f   render_win32.release:view.obj
 0001:0005cf30       ??0View@Graphics@@QAE@XZ   0045df30 f   render_win32.release:view.obj
 0001:0005cfc0       ??_GView@Graphics@@UAEPAXI@Z 0045dfc0 f i render_win32.release:view.obj
 0001:0005cfc0       ??_EView@Graphics@@UAEPAXI@Z 0045dfc0 f i  CIL library: CIL module
 0001:0005cff0       ??1View@Graphics@@UAE@XZ   0045dff0 f   render_win32.release:view.obj
 0001:0005d070       ?Setup@View@Graphics@@AAEXXZ 0045e070 f   render_win32.release:view.obj
 0001:0005d3d0       ?Discard@View@Graphics@@AAEXXZ 0045e3d0 f   render_win32.release:view.obj
 0001:0005d4f0       ?SetCameraEntity@View@Graphics@@QAEXABV?$Ptr@VCameraEntity@Graphics@@@@@Z 0045e4f0 f   render_win32.release:view.obj
 0001:0005d590       ?GetCameraEntity@View@Graphics@@QBEABV?$Ptr@VCameraEntity@Graphics@@@@XZ 0045e590 f   render_win32.release:view.obj
 0001:0005d5b0       ?SetDefaultView@View@Graphics@@AAEX_N@Z 0045e5b0 f   render_win32.release:view.obj
 0001:0005d680       ??4?$Ptr@VCameraEntity@Graphics@@@@QAEXABV0@@Z 0045e680 f i render_win32.release:view.obj
 0001:0005d6e0       ?isvalid@?$Ptr@VCameraEntity@Graphics@@@@QBE_NXZ 0045e6e0 f i render_win32.release:view.obj
 0001:0005d700       ??0?$Ptr@VCreateGraphicsView@Graphics@@@@QAE@PAVCreateGraphicsView@Graphics@@@Z 0045e700 f i render_win32.release:view.obj
 0001:0005d740       ??1?$Ptr@VCreateGraphicsView@Graphics@@@@QAE@XZ 0045e740 f i render_win32.release:view.obj
 0001:0005d770       ??C?$Ptr@VCreateGraphicsView@Graphics@@@@QBEPAVCreateGraphicsView@Graphics@@XZ 0045e770 f i render_win32.release:view.obj
 0001:0005d7b0       ??$cast@VMessage@Messaging@@@?$Ptr@VCreateGraphicsView@Graphics@@@@QBEABV?$Ptr@VMessage@Messaging@@@@XZ 0045e7b0 f i render_win32.release:view.obj
 0001:0005d7c0       ??0?$Ptr@VDiscardGraphicsView@Graphics@@@@QAE@PAVDiscardGraphicsView@Graphics@@@Z 0045e7c0 f i render_win32.release:view.obj
 0001:0005d800       ??1?$Ptr@VDiscardGraphicsView@Graphics@@@@QAE@XZ 0045e800 f i render_win32.release:view.obj
 0001:0005d830       ??C?$Ptr@VDiscardGraphicsView@Graphics@@@@QBEPAVDiscardGraphicsView@Graphics@@XZ 0045e830 f i render_win32.release:view.obj
 0001:0005d870       ??$cast@VMessage@Messaging@@@?$Ptr@VDiscardGraphicsView@Graphics@@@@QBEABV?$Ptr@VMessage@Messaging@@@@XZ 0045e870 f i render_win32.release:view.obj
 0001:0005d880       ??0?$Ptr@VSetDefaultGraphicsView@Graphics@@@@QAE@PAVSetDefaultGraphicsView@Graphics@@@Z 0045e880 f i render_win32.release:view.obj
 0001:0005d8c0       ??1?$Ptr@VSetDefaultGraphicsView@Graphics@@@@QAE@XZ 0045e8c0 f i render_win32.release:view.obj
 0001:0005d8f0       ??C?$Ptr@VSetDefaultGraphicsView@Graphics@@@@QBEPAVSetDefaultGraphicsView@Graphics@@XZ 0045e8f0 f i render_win32.release:view.obj
 0001:0005d930       ??$cast@VMessage@Messaging@@@?$Ptr@VSetDefaultGraphicsView@Graphics@@@@QBEABV?$Ptr@VMessage@Messaging@@@@XZ 0045e930 f i render_win32.release:view.obj
 0001:0005d9e0       ?AsString@StringAtom@Util@@QBE?AVString@2@XZ 0045e9e0 f i render_win32.release:internalview.obj
 0001:0005da30       ?GetType@InternalGraphicsEntity@InternalGraphics@@QBE?AW4Code@InternalGraphicsEntityType@2@XZ 0045ea30 f i render_win32.release:internalview.obj
 0001:0005da50       ?GetTransform@InternalGraphicsEntity@InternalGraphics@@QBEABVmatrix44@Math@@XZ 0045ea50 f i render_win32.release:internalview.obj
 0001:0005da70       ?GetLinks@InternalGraphicsEntity@InternalGraphics@@QBEABV?$Array@V?$Ptr@VInternalGraphicsEntity@InternalGraphics@@@@@Util@@W4LinkType@12@@Z 0045ea70 f i render_win32.release:internalview.obj
 0001:0005da90       ?GetProjTransform@CameraSettings@Shared@@QBEABVmatrix44@Math@@XZ 0045ea90 f i render_win32.release:internalview.obj
 0001:0005daa0       ?GetViewTransform@CameraSettings@Shared@@QBEABVmatrix44@Math@@XZ 0045eaa0 f i render_win32.release:internalview.obj
 0001:0005dac0       ?GetFocalLength@CameraSettings@Shared@@QBEABVfloat2@Math@@XZ 0045eac0 f i render_win32.release:internalview.obj
 0001:0005dae0       ?GetCameraSettings@InternalCameraEntity@InternalGraphics@@QBEABVCameraSettings@Shared@@XZ 0045eae0 f i render_win32.release:internalview.obj
 0001:0005db00       ?GetProjTransform@InternalCameraEntity@InternalGraphics@@QBEABVmatrix44@Math@@XZ 0045eb00 f i render_win32.release:internalview.obj
 0001:0005db20       ?GetViewTransform@InternalCameraEntity@InternalGraphics@@QBEABVmatrix44@Math@@XZ 0045eb20 f i render_win32.release:internalview.obj
 0001:0005db40       ??2InternalView@InternalGraphics@@SAPAXI@Z 0045eb40 f i render_win32.release:internalview.obj
 0001:0005db50       ??3InternalView@InternalGraphics@@SAXPAX@Z 0045eb50 f i render_win32.release:internalview.obj
 0001:0005db70       ?IsAttachedToServer@InternalView@InternalGraphics@@QBE_NXZ 0045eb70 f i render_win32.release:internalview.obj
 0001:0005db90       ?GetName@InternalView@InternalGraphics@@QBEABVStringAtom@Util@@XZ 0045eb90 f i render_win32.release:internalview.obj
 0001:0005dbb0       ?Instance@VisResolver@Models@@SAPAV12@XZ 0045ebb0 f i render_win32.release:internalview.obj
 0001:0005dbf0       ?SetFocalLength@TransformDeviceBase@Base@@QAEXABVfloat2@Math@@@Z 0045ebf0 f i render_win32.release:internalview.obj
 0001:0005dc20       ?Instance@TransformDevice@CoreGraphics@@SAPAV12@XZ 0045ec20 f i render_win32.release:internalview.obj
 0001:0005dc60       ?Instance@ModelServer@Models@@SAPAV12@XZ 0045ec60 f i render_win32.release:internalview.obj
 0001:0005dca0       ?Instance@LightServer@Lighting@@SAPAV12@XZ 0045eca0 f i render_win32.release:internalview.obj
 0001:0005dce0       ?Instance@ShadowServer@Lighting@@SAPAV12@XZ 0045ece0 f i render_win32.release:internalview.obj
 0001:0005dd20       ?Instance@ParticleRenderer@Particles@@SAPAV12@XZ 0045ed20 f i render_win32.release:internalview.obj
 0001:0005dd60       ?GetRtti@InternalView@InternalGraphics@@UBEPAVRtti@Core@@XZ 0045ed60 f   render_win32.release:internalview.obj
 0001:0005dd70       ?FactoryCreator@InternalView@InternalGraphics@@SAPAVRefCounted@Core@@XZ 0045ed70 f   render_win32.release:internalview.obj
 0001:0005dd80       ?Create@InternalView@InternalGraphics@@SAPAV12@XZ 0045ed80 f   render_win32.release:internalview.obj
 0001:0005ddc0       ?RegisterWithFactory@InternalView@InternalGraphics@@SA_NXZ 0045edc0 f   render_win32.release:internalview.obj
 0001:0005dec0       ??0InternalView@InternalGraphics@@QAE@XZ 0045eec0 f   render_win32.release:internalview.obj
 0001:0005df60       ??_GInternalView@InternalGraphics@@UAEPAXI@Z 0045ef60 f i render_win32.release:internalview.obj
 0001:0005df60       ??_EInternalView@InternalGraphics@@UAEPAXI@Z 0045ef60 f i  CIL library: CIL module
 0001:0005dfa0       ??1InternalView@InternalGraphics@@UAE@XZ 0045efa0 f   render_win32.release:internalview.obj
 0001:0005e110       ?OnAttachToServer@InternalView@InternalGraphics@@MAEXXZ 0045f110 f   render_win32.release:internalview.obj
 0001:0005e3c0       ?OnRemoveFromServer@InternalView@InternalGraphics@@MAEXXZ 0045f3c0 f   render_win32.release:internalview.obj
 0001:0005e4c0       ?UpdateVisibilityLinks@InternalView@InternalGraphics@@UAEXXZ 0045f4c0 f   render_win32.release:internalview.obj
 0001:0005e520       ?ResolveVisibleLights@InternalView@InternalGraphics@@IAEXXZ 0045f520 f   render_win32.release:internalview.obj
 0001:0005e670       ?ResolveVisibleModelNodeInstances@InternalView@InternalGraphics@@IAEXH@Z 0045f670 f   render_win32.release:internalview.obj
 0001:0005e7b0       ?ApplyCameraSettings@InternalView@InternalGraphics@@QAEXXZ 0045f7b0 f   render_win32.release:internalview.obj
 0001:0005e870       ?Render@InternalView@InternalGraphics@@UAEXH@Z 0045f870 f   render_win32.release:internalview.obj
 0001:0005eab0       ?RenderDebug@InternalView@InternalGraphics@@UAEXXZ 0045fab0 f   render_win32.release:internalview.obj
 0001:0005ebd0       ?SetCameraEntity@InternalView@InternalGraphics@@QAEXABV?$Ptr@VInternalCameraEntity@InternalGraphics@@@@@Z 0045fbd0 f   render_win32.release:internalview.obj
 0001:0005ecc0       ??0?$Ptr@VInternalStage@InternalGraphics@@@@QAE@XZ 0045fcc0 f i render_win32.release:internalview.obj
 0001:0005ece0       ??1?$Ptr@VInternalStage@InternalGraphics@@@@QAE@XZ 0045fce0 f i render_win32.release:internalview.obj
 0001:0005ed10       ??4?$Ptr@VInternalStage@InternalGraphics@@@@QAEXPAVInternalStage@InternalGraphics@@@Z 0045fd10 f i render_win32.release:internalview.obj
 0001:0005ed70       ??C?$Ptr@VInternalStage@InternalGraphics@@@@QBEPAVInternalStage@InternalGraphics@@XZ 0045fd70 f i render_win32.release:internalview.obj
 0001:0005edb0       ?isvalid@?$Ptr@VInternalStage@InternalGraphics@@@@QBE_NXZ 0045fdb0 f i render_win32.release:internalview.obj
 0001:0005edd0       ??A?$FixedArray@V?$Array@V?$Ptr@VInternalGraphicsEntity@InternalGraphics@@@@@Util@@@Util@@QBEAAV?$Array@V?$Ptr@VInternalGraphicsEntity@InternalGraphics@@@@@1@H@Z 0045fdd0 f i render_win32.release:internalview.obj
 0001:0005ee20       ??A?$Array@V?$Ptr@VInternalGraphicsEntity@InternalGraphics@@@@@Util@@QBEAAV?$Ptr@VInternalGraphicsEntity@InternalGraphics@@@@H@Z 0045fe20 f i render_win32.release:internalview.obj
 0001:0005ee70       ?Size@?$Array@V?$Ptr@VInternalGraphicsEntity@InternalGraphics@@@@@Util@@QBEHXZ 0045fe70 f i render_win32.release:internalview.obj
 0001:0005ee90       ??0?$Ptr@VInternalView@InternalGraphics@@@@QAE@PAVInternalView@InternalGraphics@@@Z 0045fe90 f i render_win32.release:internalview.obj
 0001:0005eed0       ??0?$Ptr@VRenderTarget@CoreGraphics@@@@QAE@XZ 0045fed0 f i render_win32.release:internalview.obj
 0001:0005eef0       ??4?$Ptr@VRenderTarget@CoreGraphics@@@@QAEXPAVRenderTarget@CoreGraphics@@@Z 0045fef0 f i render_win32.release:internalview.obj
 0001:0005ef50       ??0?$Ptr@VMultipleRenderTarget@CoreGraphics@@@@QAE@XZ 0045ff50 f i render_win32.release:internalview.obj
 0001:0005ef70       ??4?$Ptr@VMultipleRenderTarget@CoreGraphics@@@@QAEXPAVMultipleRenderTarget@CoreGraphics@@@Z 0045ff70 f i render_win32.release:internalview.obj
 0001:0005efd0       ??0?$Ptr@VInternalCameraEntity@InternalGraphics@@@@QAE@XZ 0045ffd0 f i render_win32.release:internalview.obj
 0001:0005eff0       ??1?$Ptr@VInternalCameraEntity@InternalGraphics@@@@QAE@XZ 0045fff0 f i render_win32.release:internalview.obj
 0001:0005f020       ??4?$Ptr@VInternalCameraEntity@InternalGraphics@@@@QAEXPAVInternalCameraEntity@InternalGraphics@@@Z 00460020 f i render_win32.release:internalview.obj
 0001:0005f080       ??4?$Ptr@VInternalCameraEntity@InternalGraphics@@@@QAEXABV0@@Z 00460080 f i render_win32.release:internalview.obj
 0001:0005f0e0       ??C?$Ptr@VInternalCameraEntity@InternalGraphics@@@@QBEPAVInternalCameraEntity@InternalGraphics@@XZ 004600e0 f i render_win32.release:internalview.obj
 0001:0005f120       ?isvalid@?$Ptr@VInternalCameraEntity@InternalGraphics@@@@QBE_NXZ 00460120 f i render_win32.release:internalview.obj
 0001:0005f140       ??0?$Ptr@VFrameShader@Frame@@@@QAE@XZ 00460140 f i render_win32.release:internalview.obj
 0001:0005f160       ??1?$Ptr@VFrameShader@Frame@@@@QAE@XZ 00460160 f i render_win32.release:internalview.obj
 0001:0005f190       ??4?$Ptr@VFrameShader@Frame@@@@QAEXPAVFrameShader@Frame@@@Z 00460190 f i render_win32.release:internalview.obj
 0001:0005f1f0       ??C?$Ptr@VFrameShader@Frame@@@@QBEPAVFrameShader@Frame@@XZ 004601f0 f i render_win32.release:internalview.obj
 0001:0005f230       ?isvalid@?$Ptr@VFrameShader@Frame@@@@QBE_NXZ 00460230 f i render_win32.release:internalview.obj
 0001:0005f250       ??0?$Array@V?$Ptr@VInternalView@InternalGraphics@@@@@Util@@QAE@XZ 00460250 f i render_win32.release:internalview.obj
 0001:0005f290       ??1?$Array@V?$Ptr@VInternalView@InternalGraphics@@@@@Util@@QAE@XZ 00460290 f i render_win32.release:internalview.obj
 0001:0005f2b0       ?IsEmpty@?$Array@V?$Ptr@VInternalView@InternalGraphics@@@@@Util@@QBE_NXZ 004602b0 f i render_win32.release:internalview.obj
 0001:0005f2d0       ?Clear@?$Array@V?$Ptr@VInternalView@InternalGraphics@@@@@Util@@QAEXXZ 004602d0 f i render_win32.release:internalview.obj
 0001:0005f320       ?Destroy@?$Array@V?$Ptr@VInternalView@InternalGraphics@@@@@Util@@AAEXPAV?$Ptr@VInternalView@InternalGraphics@@@@@Z 00460320 f i render_win32.release:internalview.obj
 0001:0005f350       ?Delete@?$Array@V?$Ptr@VInternalView@InternalGraphics@@@@@Util@@AAEXXZ 00460350 f i render_win32.release:internalview.obj
 0001:0005f3c0       ??_G?$Ptr@VInternalView@InternalGraphics@@@@QAEPAXI@Z 004603c0 f i render_win32.release:internalview.obj
 0001:0005f3f0       ??2DebugShapeRenderer@Debug@@SAPAXI@Z 004603f0 f i render_win32.release:debugshaperenderer.obj
 0001:0005f400       ??3DebugShapeRenderer@Debug@@SAXPAX@Z 00460400 f i render_win32.release:debugshaperenderer.obj
 0001:0005f420       ?SetThreadId@RenderDebugShapes@Debug@@QAEXABK@Z 00460420 f i render_win32.release:debugshaperenderer.obj
 0001:0005f460       ?SetShapes@RenderDebugShapes@Debug@@QAEXABV?$Array@VRenderShape@CoreGraphics@@@Util@@@Z 00460460 f i render_win32.release:debugshaperenderer.obj
 0001:0005f4a0       ?GetRtti@DebugShapeRenderer@Debug@@UBEPAVRtti@Core@@XZ 004604a0 f   render_win32.release:debugshaperenderer.obj
 0001:0005f4b0       ?FactoryCreator@DebugShapeRenderer@Debug@@SAPAVRefCounted@Core@@XZ 004604b0 f   render_win32.release:debugshaperenderer.obj
 0001:0005f4c0       ?Create@DebugShapeRenderer@Debug@@SAPAV12@XZ 004604c0 f   render_win32.release:debugshaperenderer.obj
 0001:0005f500       ?RegisterWithFactory@DebugShapeRenderer@Debug@@SA_NXZ 00460500 f   render_win32.release:debugshaperenderer.obj
 0001:0005f600       ??0DebugShapeRenderer@Debug@@QAE@XZ 00460600 f   render_win32.release:debugshaperenderer.obj
 0001:0005f670       ??_GDebugShapeRenderer@Debug@@UAEPAXI@Z 00460670 f i render_win32.release:debugshaperenderer.obj
 0001:0005f670       ??_EDebugShapeRenderer@Debug@@UAEPAXI@Z 00460670 f i  CIL library: CIL module
 0001:0005f6a0       ??1DebugShapeRenderer@Debug@@UAE@XZ 004606a0 f   render_win32.release:debugshaperenderer.obj
 0001:0005f700       ?DrawBox@DebugShapeRenderer@Debug@@QAEXABVmatrix44@Math@@ABVfloat4@4@@Z 00460700 f   render_win32.release:debugshaperenderer.obj
 0001:0005f750       ?DrawSphere@DebugShapeRenderer@Debug@@QAEXABVmatrix44@Math@@ABVfloat4@4@@Z 00460750 f   render_win32.release:debugshaperenderer.obj
 0001:0005f7a0       ?DrawCylinder@DebugShapeRenderer@Debug@@QAEXABVmatrix44@Math@@ABVfloat4@4@@Z 004607a0 f   render_win32.release:debugshaperenderer.obj
 0001:0005f7f0       ?DrawTorus@DebugShapeRenderer@Debug@@QAEXABVmatrix44@Math@@ABVfloat4@4@@Z 004607f0 f   render_win32.release:debugshaperenderer.obj
 0001:0005f840       ?DrawPrimitives@DebugShapeRenderer@Debug@@QAEXABVmatrix44@Math@@W4Code@PrimitiveTopology@CoreGraphics@@HPBXHABVfloat4@4@@Z 00460840 f   render_win32.release:debugshaperenderer.obj
 0001:0005f8b0       ?DrawIndexedPrimitives@DebugShapeRenderer@Debug@@QAEXABVmatrix44@Math@@W4Code@PrimitiveTopology@CoreGraphics@@HPBXHH2W45IndexType@7@ABVfloat4@4@@Z 004608b0 f   render_win32.release:debugshaperenderer.obj
 0001:0005f930       ?OnFrame@DebugShapeRenderer@Debug@@QAEXXZ 00460930 f   render_win32.release:debugshaperenderer.obj
 0001:0005fa10       ??4?$Array@VRenderShape@CoreGraphics@@@Util@@QAEXABV01@@Z 00460a10 f i render_win32.release:debugshaperenderer.obj
 0001:0005fb10       ?Append@?$Array@VRenderShape@CoreGraphics@@@Util@@QAEXABVRenderShape@CoreGraphics@@@Z 00460b10 f i render_win32.release:debugshaperenderer.obj
 0001:0005fb90       ?Clear@?$Array@VRenderShape@CoreGraphics@@@Util@@QAEXXZ 00460b90 f i render_win32.release:debugshaperenderer.obj
 0001:0005fbe0       ??0?$Ptr@VRenderDebugShapes@Debug@@@@QAE@PAVRenderDebugShapes@Debug@@@Z 00460be0 f i render_win32.release:debugshaperenderer.obj
 0001:0005fc20       ??1?$Ptr@VRenderDebugShapes@Debug@@@@QAE@XZ 00460c20 f i render_win32.release:debugshaperenderer.obj
 0001:0005fc50       ??$cast@VMessage@Messaging@@@?$Ptr@VRenderDebugShapes@Debug@@@@QBEABV?$Ptr@VMessage@Messaging@@@@XZ 00460c50 f i render_win32.release:debugshaperenderer.obj
 0001:0005fc60       ??4RenderShape@CoreGraphics@@QAEAAV01@ABV01@@Z 00460c60 f i render_win32.release:debugshaperenderer.obj
 0001:0005fd60       ??4?$Ptr@VMemoryStream@IO@@@@QAEXABV0@@Z 00460d60 f i render_win32.release:debugshaperenderer.obj
 0001:0005fdc0       ?Destroy@?$Array@VRenderShape@CoreGraphics@@@Util@@AAEXPAVRenderShape@CoreGraphics@@@Z 00460dc0 f i render_win32.release:debugshaperenderer.obj
 0001:0005fdf0       ?Copy@?$Array@VRenderShape@CoreGraphics@@@Util@@AAEXABV12@@Z 00460df0 f i render_win32.release:debugshaperenderer.obj
 0001:0005ff30       ?Grow@?$Array@VRenderShape@CoreGraphics@@@Util@@AAEXXZ 00460f30 f i render_win32.release:debugshaperenderer.obj
 0001:0005ffb0       ??_GRenderShape@CoreGraphics@@QAEPAXI@Z 00460fb0 f i render_win32.release:debugshaperenderer.obj
 0001:0005fff0       ?GrowTo@?$Array@VRenderShape@CoreGraphics@@@Util@@AAEXH@Z 00460ff0 f i render_win32.release:debugshaperenderer.obj
 0001:00060120       ?n_min@Math@@YAHHH@Z       00461120 f i render_win32.release:visibilityquadtree.obj
 0001:00060150       ?set@vector@Math@@QAEXMMM@Z 00461150 f i render_win32.release:visibilityquadtree.obj
 0001:000601b0       ?setrow3@matrix44@Math@@QAEXABVfloat4@2@@Z 004611b0 f i render_win32.release:visibilityquadtree.obj
 0001:000601e0       ?scaling@matrix44@Math@@SA?AV12@ABVfloat4@2@@Z 004611e0 f i render_win32.release:visibilityquadtree.obj
 0001:000602e0       ?center@bbox@Math@@QBE?AVpoint@2@XZ 004612e0 f i render_win32.release:visibilityquadtree.obj
 0001:00060410       ?extents@bbox@Math@@QBE?AVvector@2@XZ 00461410 f i render_win32.release:visibilityquadtree.obj
 0001:000604e0       ?size@bbox@Math@@QBE?AVvector@2@XZ 004614e0 f i render_win32.release:visibilityquadtree.obj
 0001:00060540       ?set@bbox@Math@@QAEXABVpoint@2@ABVvector@2@@Z 00461540 f i render_win32.release:visibilityquadtree.obj
 0001:00060600       ?to_matrix44@bbox@Math@@QBE?AVmatrix44@2@XZ 00461600 f i render_win32.release:visibilityquadtree.obj
 0001:00060850       ?GetGfxEntity@VisibilityContext@Visibility@@QBEABV?$Ptr@VInternalGraphicsEntity@InternalGraphics@@@@XZ 00461850 f i render_win32.release:visibilityquadtree.obj
 0001:00060870       ?GetBoundingBox@VisibilityContext@Visibility@@QBEABVbbox@Math@@XZ 00461870 f i render_win32.release:visibilityquadtree.obj
 0001:00060890       ??0JobUniformDesc@Jobs@@QAE@PAXH0HH@Z 00461890 f i render_win32.release:visibilityquadtree.obj
 0001:000608e0       ??0JobDataDesc@Jobs@@QAE@PAXHH@Z 004618e0 f i render_win32.release:visibilityquadtree.obj
 0001:00060980       ??0JobDataDesc@Jobs@@QAE@PAXHH0HH0HH@Z 00461980 f i render_win32.release:visibilityquadtree.obj
 0001:00060a70       ?Update@JobDataDesc@Jobs@@QAEXHPAXHH@Z 00461a70 f i render_win32.release:visibilityquadtree.obj
 0001:00060af0       ??0TPJobFuncDesc@Jobs@@QAE@P6AXABUJobFuncContext@@@Z@Z 00461af0 f i render_win32.release:visibilityquadtree.obj
 0001:00060b10       ?SetBoundingBox@VisibilityCell@Visibility@@QAEXABVbbox@Math@@@Z 00461b10 f i render_win32.release:visibilityquadtree.obj
 0001:00060b50       ?GetBoundingBox@VisibilityCell@Visibility@@QBEABVbbox@Math@@XZ 00461b50 f i render_win32.release:visibilityquadtree.obj
 0001:00060b70       ?GetChildCells@VisibilityCell@Visibility@@QBEABV?$Array@V?$Ptr@VVisibilityCell@Visibility@@@@@Util@@XZ 00461b70 f i render_win32.release:visibilityquadtree.obj
 0001:00060b90       ?GetEntityContexts@VisibilityCell@Visibility@@QBEABV?$Array@V?$Ptr@VVisibilityContext@Visibility@@@@@Util@@XZ 00461b90 f i render_win32.release:visibilityquadtree.obj
 0001:00060bb0       ?GetNumEntitiesInHierarchy@VisibilityCell@Visibility@@QBEHXZ 00461bb0 f i render_win32.release:visibilityquadtree.obj
 0001:00060bd0       ??2VisibilityQuadtree@Visibility@@SAPAXI@Z 00461bd0 f i render_win32.release:visibilityquadtree.obj
 0001:00060be0       ??3VisibilityQuadtree@Visibility@@SAXPAX@Z 00461be0 f i render_win32.release:visibilityquadtree.obj
 0001:00060c00       ?GetObserverBitMask@VisibilityQuadtree@Visibility@@UBEIXZ 00461c00 f i render_win32.release:visibilityquadtree.obj
 0001:00060c10       ?GetRtti@VisibilityQuadtree@Visibility@@UBEPAVRtti@Core@@XZ 00461c10 f   render_win32.release:visibilityquadtree.obj
 0001:00060c20       ?FactoryCreator@VisibilityQuadtree@Visibility@@SAPAVRefCounted@Core@@XZ 00461c20 f   render_win32.release:visibilityquadtree.obj
 0001:00060c30       ?Create@VisibilityQuadtree@Visibility@@SAPAV12@XZ 00461c30 f   render_win32.release:visibilityquadtree.obj
 0001:00060c70       ?RegisterWithFactory@VisibilityQuadtree@Visibility@@SA_NXZ 00461c70 f   render_win32.release:visibilityquadtree.obj
 0001:00060d70       ??0VisibilityQuadtree@Visibility@@QAE@XZ 00461d70 f   render_win32.release:visibilityquadtree.obj
 0001:00060de0       ??_EVisibilityQuadtree@Visibility@@UAEPAXI@Z 00461de0 f i  CIL library: CIL module
 0001:00060de0       ??_GVisibilityQuadtree@Visibility@@UAEPAXI@Z 00461de0 f i render_win32.release:visibilityquadtree.obj
 0001:00060e10       ??1?$Dictionary@V?$Ptr@VVisibilityContext@Visibility@@@@V?$Ptr@VVisibilityCell@Visibility@@@@@Util@@QAE@XZ 00461e10 f i render_win32.release:visibilityquadtree.obj
 0001:00060e30       ??1VisibilityQuadtree@Visibility@@UAE@XZ 00461e30 f   render_win32.release:visibilityquadtree.obj
 0001:00060e90       ?Open@VisibilityQuadtree@Visibility@@UAEXH@Z 00461e90 f   render_win32.release:visibilityquadtree.obj
 0001:00060f20       ?Close@VisibilityQuadtree@Visibility@@UAEXXZ 00461f20 f   render_win32.release:visibilityquadtree.obj
 0001:00060f80       ?InsertVisibilityContext@VisibilityQuadtree@Visibility@@UAEXABV?$Ptr@VVisibilityContext@Visibility@@@@@Z 00461f80 f   render_win32.release:visibilityquadtree.obj
 0001:00060fe0       ?RemoveVisibilityContext@VisibilityQuadtree@Visibility@@UAEXABV?$Ptr@VVisibilityContext@Visibility@@@@@Z 00461fe0 f   render_win32.release:visibilityquadtree.obj
 0001:00061030       ?UpdateVisibilityContext@VisibilityQuadtree@Visibility@@UAEXABV?$Ptr@VVisibilityContext@Visibility@@@@@Z 00462030 f   render_win32.release:visibilityquadtree.obj
 0001:000610f0       ?CreateQuadTreeCell@VisibilityQuadtree@Visibility@@AAE?AV?$Ptr@VVisibilityCell@Visibility@@@@PAVVisibilityCell@2@EGG@Z 004620f0 f   render_win32.release:visibilityquadtree.obj
 0001:00061280       ?OnRenderDebug@VisibilityQuadtree@Visibility@@UAEXXZ 00462280 f   render_win32.release:visibilityquadtree.obj
 0001:00061330       ?RenderCell@VisibilityQuadtree@Visibility@@AAEXABV?$Ptr@VVisibilityCell@Visibility@@@@ABVfloat4@Math@@@Z 00462330 f   render_win32.release:visibilityquadtree.obj
 0001:000617a0       ?PrepareTreeData@VisibilityQuadtree@Visibility@@AAEXH@Z 004627a0 f   render_win32.release:visibilityquadtree.obj
 0001:000619e0       ?CollectContextPtr@VisibilityQuadtree@Visibility@@AAEXABV?$Ptr@VVisibilityCell@Visibility@@@@PAVNode@?$QuadTree@UCellInfo@VisibilityQuadtree@Visibility@@@Util@@AAH@Z 004629e0 f   render_win32.release:visibilityquadtree.obj
 0001:00061c30       ?CreateVisibilityJob@VisibilityQuadtree@Visibility@@UAE?AV?$Ptr@VJob@Jobs@@@@HABV?$Ptr@VObserverContext@Visibility@@@@AAV?$FixedArray@V?$Ptr@VVisibilityContext@Visibility@@@@@Util@@AAI@Z 00462c30 f   render_win32.release:visibilityquadtree.obj
 0001:00061f50       ?SetDirty@VisibilityQuadtree@Visibility@@AAEXXZ 00462f50 f   render_win32.release:visibilityquadtree.obj
 0001:00061f70       ??0?$Ptr@VJob@Jobs@@@@QAE@ABV0@@Z 00462f70 f i render_win32.release:visibilityquadtree.obj
 0001:00061fb0       ??0?$Ptr@VJob@Jobs@@@@QAE@PAVJob@Jobs@@@Z 00462fb0 f i render_win32.release:visibilityquadtree.obj
 0001:00061ff0       ??1?$Ptr@VJob@Jobs@@@@QAE@XZ 00462ff0 f i render_win32.release:visibilityquadtree.obj
 0001:00062020       ??C?$Ptr@VJob@Jobs@@@@QBEPAVJob@Jobs@@XZ 00463020 f i render_win32.release:visibilityquadtree.obj
 0001:00062060       ??0?$Ptr@VVisibilityCell@Visibility@@@@QAE@ABV0@@Z 00463060 f i render_win32.release:visibilityquadtree.obj
 0001:000620a0       ??0?$Ptr@VVisibilityCell@Visibility@@@@QAE@PAVVisibilityCell@Visibility@@@Z 004630a0 f i render_win32.release:visibilityquadtree.obj
 0001:000620e0       ??0?$Ptr@VVisibilityCell@Visibility@@@@QAE@XZ 004630e0 f i render_win32.release:visibilityquadtree.obj
 0001:00062100       ??1?$Ptr@VVisibilityCell@Visibility@@@@QAE@XZ 00463100 f i render_win32.release:visibilityquadtree.obj
 0001:00062130       ??4?$Ptr@VVisibilityCell@Visibility@@@@QAEXPAVVisibilityCell@Visibility@@@Z 00463130 f i render_win32.release:visibilityquadtree.obj
 0001:00062190       ??4?$Ptr@VVisibilityCell@Visibility@@@@QAEXABV0@@Z 00463190 f i render_win32.release:visibilityquadtree.obj
 0001:000621f0       ??9?$Ptr@VVisibilityCell@Visibility@@@@QBE_NABV0@@Z 004631f0 f i render_win32.release:visibilityquadtree.obj
 0001:00062210       ??C?$Ptr@VVisibilityCell@Visibility@@@@QBEPAVVisibilityCell@Visibility@@XZ 00463210 f i render_win32.release:visibilityquadtree.obj
 0001:00062250       ??B?$Ptr@VVisibilityCell@Visibility@@@@QBEPAVVisibilityCell@Visibility@@XZ 00463250 f i render_win32.release:visibilityquadtree.obj
 0001:00062290       ??A?$Array@V?$Ptr@VVisibilityCell@Visibility@@@@@Util@@QBEAAV?$Ptr@VVisibilityCell@Visibility@@@@H@Z 00463290 f i render_win32.release:visibilityquadtree.obj
 0001:000622e0       ?Size@?$Array@V?$Ptr@VVisibilityCell@Visibility@@@@@Util@@QBEHXZ 004632e0 f i render_win32.release:visibilityquadtree.obj
 0001:00062300       ??A?$Array@V?$Ptr@VVisibilityContext@Visibility@@@@@Util@@QBEAAV?$Ptr@VVisibilityContext@Visibility@@@@H@Z 00463300 f i render_win32.release:visibilityquadtree.obj
 0001:00062350       ?Size@?$Array@V?$Ptr@VVisibilityContext@Visibility@@@@@Util@@QBEHXZ 00463350 f i render_win32.release:visibilityquadtree.obj
 0001:00062370       ??0?$QuadTree@UCellInfo@VisibilityQuadtree@Visibility@@@Util@@QAE@XZ 00463370 f i render_win32.release:visibilityquadtree.obj
 0001:00062430       ??1?$QuadTree@UCellInfo@VisibilityQuadtree@Visibility@@@Util@@QAE@XZ 00463430 f i render_win32.release:visibilityquadtree.obj
 0001:00062450       ?Setup@?$QuadTree@UCellInfo@VisibilityQuadtree@Visibility@@@Util@@QAEXABVbbox@Math@@E@Z 00463450 f i render_win32.release:visibilityquadtree.obj
 0001:00062780       ?GetDepth@?$QuadTree@UCellInfo@VisibilityQuadtree@Visibility@@@Util@@QBEEXZ 00463780 f i render_win32.release:visibilityquadtree.obj
 0001:00062790       ?GetNodeIndex@?$QuadTree@UCellInfo@VisibilityQuadtree@Visibility@@@Util@@QBEHEGG@Z 00463790 f i render_win32.release:visibilityquadtree.obj
 0001:00062820       ?GetNumNodesInTree@?$QuadTree@UCellInfo@VisibilityQuadtree@Visibility@@@Util@@QBEHXZ 00463820 f i render_win32.release:visibilityquadtree.obj
 0001:00062840       ?GetNodeByIndex@?$QuadTree@UCellInfo@VisibilityQuadtree@Visibility@@@Util@@QBEABVNode@12@H@Z 00463840 f i render_win32.release:visibilityquadtree.obj
 0001:00062860       ?NodeByIndex@?$QuadTree@UCellInfo@VisibilityQuadtree@Visibility@@@Util@@QAEAAVNode@12@H@Z 00463860 f i render_win32.release:visibilityquadtree.obj
 0001:00062880       ??0?$FixedArray@UEntityInfo@VisibilityQuadtree@Visibility@@@Util@@QAE@XZ 00463880 f i render_win32.release:visibilityquadtree.obj
 0001:000628b0       ??1?$FixedArray@UEntityInfo@VisibilityQuadtree@Visibility@@@Util@@QAE@XZ 004638b0 f i render_win32.release:visibilityquadtree.obj
 0001:000628d0       ??A?$FixedArray@UEntityInfo@VisibilityQuadtree@Visibility@@@Util@@QBEAAUEntityInfo@VisibilityQuadtree@Visibility@@H@Z 004638d0 f i render_win32.release:visibilityquadtree.obj
 0001:00062920       ?SetSize@?$FixedArray@UEntityInfo@VisibilityQuadtree@Visibility@@@Util@@QAEXH@Z 00463920 f i render_win32.release:visibilityquadtree.obj
 0001:00062950       ?Size@?$FixedArray@UEntityInfo@VisibilityQuadtree@Visibility@@@Util@@QBEHXZ 00463950 f i render_win32.release:visibilityquadtree.obj
 0001:00062960       ?Begin@?$FixedArray@UEntityInfo@VisibilityQuadtree@Visibility@@@Util@@QBEPAUEntityInfo@VisibilityQuadtree@Visibility@@XZ 00463960 f i render_win32.release:visibilityquadtree.obj
 0001:00062980       ??1?$Array@V?$KeyValuePair@V?$Ptr@VVisibilityContext@Visibility@@@@V?$Ptr@VVisibilityCell@Visibility@@@@@Util@@@Util@@QAE@XZ 00463980 f i render_win32.release:visibilityquadtree.obj
 0001:000629a0       ??0?$Dictionary@V?$Ptr@VVisibilityContext@Visibility@@@@V?$Ptr@VVisibilityCell@Visibility@@@@@Util@@QAE@XZ 004639a0 f i render_win32.release:visibilityquadtree.obj
 0001:000629c0       ??A?$Dictionary@V?$Ptr@VVisibilityContext@Visibility@@@@V?$Ptr@VVisibilityCell@Visibility@@@@@Util@@QAEAAV?$Ptr@VVisibilityCell@Visibility@@@@ABV?$Ptr@VVisibilityContext@Visibility@@@@@Z 004639c0 f i render_win32.release:visibilityquadtree.obj
 0001:00062a10       ?Clear@?$Dictionary@V?$Ptr@VVisibilityContext@Visibility@@@@V?$Ptr@VVisibilityCell@Visibility@@@@@Util@@QAEXXZ 00463a10 f i render_win32.release:visibilityquadtree.obj
 0001:00062a50       ?Add@?$Dictionary@V?$Ptr@VVisibilityContext@Visibility@@@@V?$Ptr@VVisibilityCell@Visibility@@@@@Util@@QAEXABV?$Ptr@VVisibilityContext@Visibility@@@@ABV?$Ptr@VVisibilityCell@Visibility@@@@@Z 00463a50 f i render_win32.release:visibilityquadtree.obj
 0001:00062ab0       ?Erase@?$Dictionary@V?$Ptr@VVisibilityContext@Visibility@@@@V?$Ptr@VVisibilityCell@Visibility@@@@@Util@@QAEXABV?$Ptr@VVisibilityContext@Visibility@@@@@Z 00463ab0 f i render_win32.release:visibilityquadtree.obj
 0001:00062b40       ?GetBoundingBox@Node@?$QuadTree@UCellInfo@VisibilityQuadtree@Visibility@@@Util@@QBEABVbbox@Math@@XZ 00463b40 f i render_win32.release:visibilityquadtree.obj
 0001:00062b60       ?GetElement@Node@?$QuadTree@UCellInfo@VisibilityQuadtree@Visibility@@@Util@@QBEABUCellInfo@VisibilityQuadtree@Visibility@@XZ 00463b60 f i render_win32.release:visibilityquadtree.obj
 0001:00062b80       ?GetChildAt@Node@?$QuadTree@UCellInfo@VisibilityQuadtree@Visibility@@@Util@@QAEPAV123@H@Z 00463b80 f i render_win32.release:visibilityquadtree.obj
 0001:00062ba0       ??C?$Ptr@VVisibilityContext@Visibility@@@@QBEPAVVisibilityContext@Visibility@@XZ 00463ba0 f i render_win32.release:visibilityquadtree.obj
 0001:00062be0       ?get@?$Ptr@VVisibilityContext@Visibility@@@@QBEPAVVisibilityContext@Visibility@@XZ 00463be0 f i render_win32.release:visibilityquadtree.obj
 0001:00062c20       ??C?$Ptr@VObserverContext@Visibility@@@@QBEPAVObserverContext@Visibility@@XZ 00463c20 f i render_win32.release:visibilityquadtree.obj
 0001:00062c60       ?Size@?$FixedArray@V?$Ptr@VVisibilityContext@Visibility@@@@@Util@@QBEHXZ 00463c60 f i render_win32.release:visibilityquadtree.obj
 0001:00062c70       ?Begin@?$FixedArray@V?$Ptr@VVisibilityContext@Visibility@@@@@Util@@QBEPAV?$Ptr@VVisibilityContext@Visibility@@@@XZ 00463c70 f i render_win32.release:visibilityquadtree.obj
 0001:00062c90       ??1?$KeyValuePair@V?$Ptr@VVisibilityContext@Visibility@@@@V?$Ptr@VVisibilityCell@Visibility@@@@@Util@@QAE@XZ 00463c90 f i render_win32.release:visibilityquadtree.obj
 0001:00062cb0       ?GetNumNodes@?$QuadTree@UCellInfo@VisibilityQuadtree@Visibility@@@Util@@QBEHE@Z 00463cb0 f i render_win32.release:visibilityquadtree.obj
 0001:00062ce0       ??0?$FixedArray@VNode@?$QuadTree@UCellInfo@VisibilityQuadtree@Visibility@@@Util@@@Util@@QAE@XZ 00463ce0 f i render_win32.release:visibilityquadtree.obj
 0001:00062d10       ??1?$FixedArray@VNode@?$QuadTree@UCellInfo@VisibilityQuadtree@Visibility@@@Util@@@Util@@QAE@XZ 00463d10 f i render_win32.release:visibilityquadtree.obj
 0001:00062d30       ??A?$FixedArray@VNode@?$QuadTree@UCellInfo@VisibilityQuadtree@Visibility@@@Util@@@Util@@QBEAAVNode@?$QuadTree@UCellInfo@VisibilityQuadtree@Visibility@@@1@H@Z 00463d30 f i render_win32.release:visibilityquadtree.obj
 0001:00062d80       ?SetSize@?$FixedArray@VNode@?$QuadTree@UCellInfo@VisibilityQuadtree@Visibility@@@Util@@@Util@@QAEXH@Z 00463d80 f i render_win32.release:visibilityquadtree.obj
 0001:00062db0       ?Size@?$FixedArray@VNode@?$QuadTree@UCellInfo@VisibilityQuadtree@Visibility@@@Util@@@Util@@QBEHXZ 00463db0 f i render_win32.release:visibilityquadtree.obj
 0001:00062dc0       ?Delete@?$FixedArray@UEntityInfo@VisibilityQuadtree@Visibility@@@Util@@AAEXXZ 00463dc0 f i render_win32.release:visibilityquadtree.obj
 0001:00062e00       ?Alloc@?$FixedArray@UEntityInfo@VisibilityQuadtree@Visibility@@@Util@@AAEXH@Z 00463e00 f i render_win32.release:visibilityquadtree.obj
 0001:00062ec0       ??0?$Array@V?$KeyValuePair@V?$Ptr@VVisibilityContext@Visibility@@@@V?$Ptr@VVisibilityCell@Visibility@@@@@Util@@@Util@@QAE@XZ 00463ec0 f i render_win32.release:visibilityquadtree.obj
 0001:00062f00       ??A?$Array@V?$KeyValuePair@V?$Ptr@VVisibilityContext@Visibility@@@@V?$Ptr@VVisibilityCell@Visibility@@@@@Util@@@Util@@QBEAAV?$KeyValuePair@V?$Ptr@VVisibilityContext@Visibility@@@@V?$Ptr@VVisibilityCell@Visibility@@@@@1@H@Z 00463f00 f i render_win32.release:visibilityquadtree.obj
 0001:00062f50       ?Append@?$Array@V?$KeyValuePair@V?$Ptr@VVisibilityContext@Visibility@@@@V?$Ptr@VVisibilityCell@Visibility@@@@@Util@@@Util@@QAEXABV?$KeyValuePair@V?$Ptr@VVisibilityContext@Visibility@@@@V?$Ptr@VVisibilityCell@Visibility@@@@@2@@Z 00463f50 f i render_win32.release:visibilityquadtree.obj
 0001:00062fd0       ?EraseIndex@?$Array@V?$KeyValuePair@V?$Ptr@VVisibilityContext@Visibility@@@@V?$Ptr@VVisibilityCell@Visibility@@@@@Util@@@Util@@QAEXH@Z 00463fd0 f i render_win32.release:visibilityquadtree.obj
 0001:00063050       ?InsertSorted@?$Array@V?$KeyValuePair@V?$Ptr@VVisibilityContext@Visibility@@@@V?$Ptr@VVisibilityCell@Visibility@@@@@Util@@@Util@@QAEHABV?$KeyValuePair@V?$Ptr@VVisibilityContext@Visibility@@@@V?$Ptr@VVisibilityCell@Visibility@@@@@2@@Z 00464050 f i render_win32.release:visibilityquadtree.obj
 0001:000632c0       ?Clear@?$Array@V?$KeyValuePair@V?$Ptr@VVisibilityContext@Visibility@@@@V?$Ptr@VVisibilityCell@Visibility@@@@@Util@@@Util@@QAEXXZ 004642c0 f i render_win32.release:visibilityquadtree.obj
 0001:00063310       ?BinarySearchIndex@?$Array@V?$KeyValuePair@V?$Ptr@VVisibilityContext@Visibility@@@@V?$Ptr@VVisibilityCell@Visibility@@@@@Util@@@Util@@QBEHABV?$KeyValuePair@V?$Ptr@VVisibilityContext@Visibility@@@@V?$Ptr@VVisibilityCell@Visibility@@@@@2@@Z 00464310 f i render_win32.release:visibilityquadtree.obj
 0001:00063440       ?Delete@?$Array@V?$KeyValuePair@V?$Ptr@VVisibilityContext@Visibility@@@@V?$Ptr@VVisibilityCell@Visibility@@@@@Util@@@Util@@AAEXXZ 00464440 f i render_win32.release:visibilityquadtree.obj
 0001:000634b0       ?FindIndex@?$Dictionary@V?$Ptr@VVisibilityContext@Visibility@@@@V?$Ptr@VVisibilityCell@Visibility@@@@@Util@@QBEHABV?$Ptr@VVisibilityContext@Visibility@@@@@Z 004644b0 f i render_win32.release:visibilityquadtree.obj
 0001:00063510       ??0?$KeyValuePair@V?$Ptr@VVisibilityContext@Visibility@@@@V?$Ptr@VVisibilityCell@Visibility@@@@@Util@@QAE@ABV?$Ptr@VVisibilityContext@Visibility@@@@@Z 00464510 f i render_win32.release:visibilityquadtree.obj
 0001:00063540       ??0?$KeyValuePair@V?$Ptr@VVisibilityContext@Visibility@@@@V?$Ptr@VVisibilityCell@Visibility@@@@@Util@@QAE@ABV?$Ptr@VVisibilityContext@Visibility@@@@ABV?$Ptr@VVisibilityCell@Visibility@@@@@Z 00464540 f i render_win32.release:visibilityquadtree.obj
 0001:00063570       ?Value@?$KeyValuePair@V?$Ptr@VVisibilityContext@Visibility@@@@V?$Ptr@VVisibilityCell@Visibility@@@@@Util@@QAEAAV?$Ptr@VVisibilityCell@Visibility@@@@XZ 00464570 f i render_win32.release:visibilityquadtree.obj
 0001:00063590       ?Setup@Node@?$QuadTree@UCellInfo@VisibilityQuadtree@Visibility@@@Util@@QAEXPAV23@EGG@Z 00464590 f i render_win32.release:visibilityquadtree.obj
 0001:00063ea0       ?Level@Node@?$QuadTree@UCellInfo@VisibilityQuadtree@Visibility@@@Util@@QBEDXZ 00464ea0 f i render_win32.release:visibilityquadtree.obj
 0001:00063ec0       ??0EntityInfo@VisibilityQuadtree@Visibility@@QAE@XZ 00464ec0 f i render_win32.release:visibilityquadtree.obj
 0001:00063ee0       ??_E?$KeyValuePair@V?$Ptr@VVisibilityContext@Visibility@@@@V?$Ptr@VVisibilityCell@Visibility@@@@@Util@@QAEPAXI@Z 00464ee0 f i render_win32.release:visibilityquadtree.obj
 0001:00063f90       ?Delete@?$FixedArray@VNode@?$QuadTree@UCellInfo@VisibilityQuadtree@Visibility@@@Util@@@Util@@AAEXXZ 00464f90 f i render_win32.release:visibilityquadtree.obj
 0001:00063ff0       ?Alloc@?$FixedArray@VNode@?$QuadTree@UCellInfo@VisibilityQuadtree@Visibility@@@Util@@@Util@@AAEXH@Z 00464ff0 f i render_win32.release:visibilityquadtree.obj
 0001:000640c0       ?Size@?$Array@V?$KeyValuePair@V?$Ptr@VVisibilityContext@Visibility@@@@V?$Ptr@VVisibilityCell@Visibility@@@@@Util@@@Util@@QBEHXZ 004650c0 f i render_win32.release:visibilityquadtree.obj
 0001:000640e0       ?Insert@?$Array@V?$KeyValuePair@V?$Ptr@VVisibilityContext@Visibility@@@@V?$Ptr@VVisibilityCell@Visibility@@@@@Util@@@Util@@QAEXHABV?$KeyValuePair@V?$Ptr@VVisibilityContext@Visibility@@@@V?$Ptr@VVisibilityCell@Visibility@@@@@2@@Z 004650e0 f i render_win32.release:visibilityquadtree.obj
 0001:00064150       ?InsertAtEndOfIdenticalRange@?$Array@V?$KeyValuePair@V?$Ptr@VVisibilityContext@Visibility@@@@V?$Ptr@VVisibilityCell@Visibility@@@@@Util@@@Util@@QAEHHABV?$KeyValuePair@V?$Ptr@VVisibilityContext@Visibility@@@@V?$Ptr@VVisibilityCell@Visibility@@@@@2@@Z 00465150 f i render_win32.release:visibilityquadtree.obj
 0001:000641d0       ?Destroy@?$Array@V?$KeyValuePair@V?$Ptr@VVisibilityContext@Visibility@@@@V?$Ptr@VVisibilityCell@Visibility@@@@@Util@@@Util@@AAEXPAV?$KeyValuePair@V?$Ptr@VVisibilityContext@Visibility@@@@V?$Ptr@VVisibilityCell@Visibility@@@@@2@@Z 004651d0 f i render_win32.release:visibilityquadtree.obj
 0001:00064210       ?Grow@?$Array@V?$KeyValuePair@V?$Ptr@VVisibilityContext@Visibility@@@@V?$Ptr@VVisibilityCell@Visibility@@@@@Util@@@Util@@AAEXXZ 00465210 f i render_win32.release:visibilityquadtree.obj
 0001:00064290       ?Move@?$Array@V?$KeyValuePair@V?$Ptr@VVisibilityContext@Visibility@@@@V?$Ptr@VVisibilityCell@Visibility@@@@@Util@@@Util@@AAEXHH@Z 00465290 f i render_win32.release:visibilityquadtree.obj
 0001:00064420       ??4?$KeyValuePair@V?$Ptr@VVisibilityContext@Visibility@@@@V?$Ptr@VVisibilityCell@Visibility@@@@@Util@@QAEXABV01@@Z 00465420 f i render_win32.release:visibilityquadtree.obj
 0001:00064450       ??9?$KeyValuePair@V?$Ptr@VVisibilityContext@Visibility@@@@V?$Ptr@VVisibilityCell@Visibility@@@@@Util@@QBE_NABV01@@Z 00465450 f i render_win32.release:visibilityquadtree.obj
 0001:00064470       ??O?$KeyValuePair@V?$Ptr@VVisibilityContext@Visibility@@@@V?$Ptr@VVisibilityCell@Visibility@@@@@Util@@QBE_NABV01@@Z 00465470 f i render_win32.release:visibilityquadtree.obj
 0001:000644a0       ??M?$KeyValuePair@V?$Ptr@VVisibilityContext@Visibility@@@@V?$Ptr@VVisibilityCell@Visibility@@@@@Util@@QBE_NABV01@@Z 004654a0 f i render_win32.release:visibilityquadtree.obj
 0001:000644d0       ??0?$Ptr@VVisibilityContext@Visibility@@@@QAE@ABV0@@Z 004654d0 f i render_win32.release:visibilityquadtree.obj
 0001:00064510       ??_ENode@?$QuadTree@UCellInfo@VisibilityQuadtree@Visibility@@@Util@@QAEPAXI@Z 00465510 f i render_win32.release:visibilityquadtree.obj
 0001:000645b0       ??_G?$KeyValuePair@V?$Ptr@VVisibilityContext@Visibility@@@@V?$Ptr@VVisibilityCell@Visibility@@@@@Util@@QAEPAXI@Z 004655b0 f i render_win32.release:visibilityquadtree.obj
 0001:000645f0       ?GrowTo@?$Array@V?$KeyValuePair@V?$Ptr@VVisibilityContext@Visibility@@@@V?$Ptr@VVisibilityCell@Visibility@@@@@Util@@@Util@@AAEXH@Z 004655f0 f i render_win32.release:visibilityquadtree.obj
 0001:00064710       ??4?$Ptr@VVisibilityContext@Visibility@@@@QAEXABV0@@Z 00465710 f i render_win32.release:visibilityquadtree.obj
 0001:00064770       ??9?$Ptr@VVisibilityContext@Visibility@@@@QBE_NABV0@@Z 00465770 f i render_win32.release:visibilityquadtree.obj
 0001:00064790       ??B?$Ptr@VVisibilityContext@Visibility@@@@QBEPAVVisibilityContext@Visibility@@XZ 00465790 f i render_win32.release:visibilityquadtree.obj
 0001:000647d0       ??0Node@?$QuadTree@UCellInfo@VisibilityQuadtree@Visibility@@@Util@@QAE@XZ 004657d0 f i render_win32.release:visibilityquadtree.obj
 0001:00064830       ??1Node@?$QuadTree@UCellInfo@VisibilityQuadtree@Visibility@@@Util@@QAE@XZ 00465830 f i render_win32.release:visibilityquadtree.obj
 0001:00064840       ??0?$KeyValuePair@V?$Ptr@VVisibilityContext@Visibility@@@@V?$Ptr@VVisibilityCell@Visibility@@@@@Util@@QAE@XZ 00465840 f i render_win32.release:visibilityquadtree.obj
 0001:00064870       ??0?$Ptr@VVisibilityContext@Visibility@@@@QAE@XZ 00465870 f i render_win32.release:visibilityquadtree.obj
 0001:00064890       ?XMMatrixScalingFromVector@@YA?AU_XMMATRIX@@T__m128@@@Z 00465890 f i render_win32.release:visibilityquadtree.obj
 0001:00064970       ?get_position@matrix44@Math@@QBEABVfloat4@2@XZ 00465970 f i render_win32.release:visibilityclustersystem.obj
 0001:00064990       ?GetObserverEntity@ObserverContext@Visibility@@QBEABV?$Ptr@VInternalGraphicsEntity@InternalGraphics@@@@XZ 00465990 f i render_win32.release:visibilityclustersystem.obj
 0001:000649b0       ?GetVisibilityContexts@VisibilityContainer@Visibility@@QBEABV?$Array@V?$Ptr@VVisibilityContext@Visibility@@@@@Util@@XZ 004659b0 f i render_win32.release:visibilityclustersystem.obj
 0001:000649d0       ?SetCameraInside@VisibilityCluster@Visibility@@QAEX_N@Z 004659d0 f i render_win32.release:visibilityclustersystem.obj
 0001:000649f0       ?SetBitIndex@VisibilityCluster@Visibility@@QAEXH@Z 004659f0 f i render_win32.release:visibilityclustersystem.obj
 0001:00064a10       ?GetBitIndex@VisibilityCluster@Visibility@@QBEHXZ 00465a10 f i render_win32.release:visibilityclustersystem.obj
 0001:00064a30       ??2VisibilityClusterSystem@Visibility@@SAPAXI@Z 00465a30 f i render_win32.release:visibilityclustersystem.obj
 0001:00064a40       ??3VisibilityClusterSystem@Visibility@@SAXPAX@Z 00465a40 f i render_win32.release:visibilityclustersystem.obj
 0001:00064a60       ?IncrAcceptedVisChecks@VisibilityClusterSystem@Visibility@@AAEXXZ 00465a60 f i render_win32.release:visibilityclustersystem.obj
 0001:00064a80       ?IncrRejectedVisChecks@VisibilityClusterSystem@Visibility@@AAEXXZ 00465a80 f i render_win32.release:visibilityclustersystem.obj
 0001:00064aa0       ?GetVisibilityClusterBitMask@VisibilityClusterSystem@Visibility@@ABEABV?$BitField@$0EA@@Util@@XZ 00465aa0 f i render_win32.release:visibilityclustersystem.obj
 0001:00064ac0       ?GetObserverBitMask@VisibilityClusterSystem@Visibility@@UBEIXZ 00465ac0 f i render_win32.release:visibilityclustersystem.obj
 0001:00064ad0       ?GetRtti@VisibilityClusterSystem@Visibility@@UBEPAVRtti@Core@@XZ 00465ad0 f   render_win32.release:visibilityclustersystem.obj
 0001:00064ae0       ?FactoryCreator@VisibilityClusterSystem@Visibility@@SAPAVRefCounted@Core@@XZ 00465ae0 f   render_win32.release:visibilityclustersystem.obj
 0001:00064af0       ?Create@VisibilityClusterSystem@Visibility@@SAPAV12@XZ 00465af0 f   render_win32.release:visibilityclustersystem.obj
 0001:00064b30       ?RegisterWithFactory@VisibilityClusterSystem@Visibility@@SA_NXZ 00465b30 f   render_win32.release:visibilityclustersystem.obj
 0001:00064c30       ??0VisibilityClusterSystem@Visibility@@QAE@XZ 00465c30 f   render_win32.release:visibilityclustersystem.obj
 0001:00064c90       ??_GVisibilityClusterSystem@Visibility@@UAEPAXI@Z 00465c90 f i render_win32.release:visibilityclustersystem.obj
 0001:00064c90       ??_EVisibilityClusterSystem@Visibility@@UAEPAXI@Z 00465c90 f i  CIL library: CIL module
 0001:00064cc0       ??1?$Dictionary@V?$Ptr@VVisibilityContext@Visibility@@@@V?$BitField@$0EA@@Util@@@Util@@QAE@XZ 00465cc0 f i render_win32.release:visibilityclustersystem.obj
 0001:00064ce0       ??1VisibilityClusterSystem@Visibility@@UAE@XZ 00465ce0 f   render_win32.release:visibilityclustersystem.obj
 0001:00064d20       ?Open@VisibilityClusterSystem@Visibility@@UAEXH@Z 00465d20 f   render_win32.release:visibilityclustersystem.obj
 0001:00064d60       ?Close@VisibilityClusterSystem@Visibility@@UAEXXZ 00465d60 f   render_win32.release:visibilityclustersystem.obj
 0001:00064d80       ?InsertVisibilityContext@VisibilityClusterSystem@Visibility@@UAEXABV?$Ptr@VVisibilityContext@Visibility@@@@@Z 00465d80 f   render_win32.release:visibilityclustersystem.obj
 0001:00064d90       ?RemoveVisibilityContext@VisibilityClusterSystem@Visibility@@UAEXABV?$Ptr@VVisibilityContext@Visibility@@@@@Z 00465d90 f   render_win32.release:visibilityclustersystem.obj
 0001:00064dd0       ?UpdateVisibilityContext@VisibilityClusterSystem@Visibility@@UAEXABV?$Ptr@VVisibilityContext@Visibility@@@@@Z 00465dd0 f   render_win32.release:visibilityclustersystem.obj
 0001:00064de0       ?CheckVisibility@VisibilityClusterSystem@Visibility@@AAEXABV?$Ptr@VObserverContext@Visibility@@@@AAV?$FixedArray@V?$Ptr@VVisibilityContext@Visibility@@@@@Util@@I@Z 00465de0 f   render_win32.release:visibilityclustersystem.obj
 0001:00065050       ?InsertVisibilityContainer@VisibilityClusterSystem@Visibility@@UAEXABV?$Ptr@VVisibilityContainer@Visibility@@@@@Z 00466050 f   render_win32.release:visibilityclustersystem.obj
 0001:00065220       ?DiscardVisibilityClusters@VisibilityClusterSystem@Visibility@@AAEXXZ 00466220 f   render_win32.release:visibilityclustersystem.obj
 0001:00065280       ?UpdateVisibilityClusters@VisibilityClusterSystem@Visibility@@AAEXABVpoint@Math@@@Z 00466280 f   render_win32.release:visibilityclustersystem.obj
 0001:00065340       ?FindClustersContainingPoint@VisibilityClusterSystem@Visibility@@AAE?AV?$Array@V?$Ptr@VVisibilityCluster@Visibility@@@@@Util@@ABVpoint@Math@@@Z 00466340 f   render_win32.release:visibilityclustersystem.obj
 0001:000653e0       ?OnRenderDebug@VisibilityClusterSystem@Visibility@@UAEXXZ 004663e0 f   render_win32.release:visibilityclustersystem.obj
 0001:00065430       ?CreateVisibilityJob@VisibilityClusterSystem@Visibility@@UAE?AV?$Ptr@VJob@Jobs@@@@HABV?$Ptr@VObserverContext@Visibility@@@@AAV?$FixedArray@V?$Ptr@VVisibilityContext@Visibility@@@@@Util@@AAI@Z 00466430 f   render_win32.release:visibilityclustersystem.obj
 0001:00065480       ??0?$Ptr@VJob@Jobs@@@@QAE@XZ 00466480 f i render_win32.release:visibilityclustersystem.obj
 0001:000654a0       ??A?$FixedArray@V?$Ptr@VVisibilityContext@Visibility@@@@@Util@@QBEAAV?$Ptr@VVisibilityContext@Visibility@@@@H@Z 004664a0 f i render_win32.release:visibilityclustersystem.obj
 0001:000654f0       ??4?$Ptr@VVisibilityContext@Visibility@@@@QAEXPAVVisibilityContext@Visibility@@@Z 004664f0 f i render_win32.release:visibilityclustersystem.obj
 0001:00065550       ??0?$Array@V?$Ptr@VVisibilityCluster@Visibility@@@@@Util@@QAE@ABV01@@Z 00466550 f i render_win32.release:visibilityclustersystem.obj
 0001:000655a0       ??0?$Array@V?$Ptr@VVisibilityCluster@Visibility@@@@@Util@@QAE@XZ 004665a0 f i render_win32.release:visibilityclustersystem.obj
 0001:000655e0       ??1?$Array@V?$Ptr@VVisibilityCluster@Visibility@@@@@Util@@QAE@XZ 004665e0 f i render_win32.release:visibilityclustersystem.obj
 0001:00065600       ??A?$Array@V?$Ptr@VVisibilityCluster@Visibility@@@@@Util@@QBEAAV?$Ptr@VVisibilityCluster@Visibility@@@@H@Z 00466600 f i render_win32.release:visibilityclustersystem.obj
 0001:00065650       ?Append@?$Array@V?$Ptr@VVisibilityCluster@Visibility@@@@@Util@@QAEXABV?$Ptr@VVisibilityCluster@Visibility@@@@@Z 00466650 f i render_win32.release:visibilityclustersystem.obj
 0001:000656d0       ?Size@?$Array@V?$Ptr@VVisibilityCluster@Visibility@@@@@Util@@QBEHXZ 004666d0 f i render_win32.release:visibilityclustersystem.obj
 0001:000656f0       ?Clear@?$Array@V?$Ptr@VVisibilityCluster@Visibility@@@@@Util@@QAEXXZ 004666f0 f i render_win32.release:visibilityclustersystem.obj
 0001:00065740       ??0?$BitField@$0EA@@Util@@QAE@XZ 00466740 f i render_win32.release:visibilityclustersystem.obj
 0001:00065780       ??8?$BitField@$0EA@@Util@@QBE_NABV01@@Z 00466780 f i render_win32.release:visibilityclustersystem.obj
 0001:000657d0       ?Clear@?$BitField@$0EA@@Util@@QAEXXZ 004667d0 f i render_win32.release:visibilityclustersystem.obj
 0001:00065810       ?IsNull@?$BitField@$0EA@@Util@@QBE_NXZ 00466810 f i render_win32.release:visibilityclustersystem.obj
 0001:00065850       ?SetBit@?$BitField@$0EA@@Util@@QAEXH@Z 00466850 f i render_win32.release:visibilityclustersystem.obj
 0001:000658c0       ?And@?$BitField@$0EA@@Util@@SA?AV12@ABV12@0@Z 004668c0 f i render_win32.release:visibilityclustersystem.obj
 0001:00065920       ??1?$Array@V?$KeyValuePair@V?$Ptr@VVisibilityContext@Visibility@@@@V?$BitField@$0EA@@Util@@@Util@@@Util@@QAE@XZ 00466920 f i render_win32.release:visibilityclustersystem.obj
 0001:00065940       ??0?$Dictionary@V?$Ptr@VVisibilityContext@Visibility@@@@V?$BitField@$0EA@@Util@@@Util@@QAE@XZ 00466940 f i render_win32.release:visibilityclustersystem.obj
 0001:00065960       ??A?$Dictionary@V?$Ptr@VVisibilityContext@Visibility@@@@V?$BitField@$0EA@@Util@@@Util@@QAEAAV?$BitField@$0EA@@1@ABV?$Ptr@VVisibilityContext@Visibility@@@@@Z 00466960 f i render_win32.release:visibilityclustersystem.obj
 0001:000659b0       ?Add@?$Dictionary@V?$Ptr@VVisibilityContext@Visibility@@@@V?$BitField@$0EA@@Util@@@Util@@QAEXABV?$Ptr@VVisibilityContext@Visibility@@@@ABV?$BitField@$0EA@@2@@Z 004669b0 f i render_win32.release:visibilityclustersystem.obj
 0001:00065a00       ?Erase@?$Dictionary@V?$Ptr@VVisibilityContext@Visibility@@@@V?$BitField@$0EA@@Util@@@Util@@QAEXABV?$Ptr@VVisibilityContext@Visibility@@@@@Z 00466a00 f i render_win32.release:visibilityclustersystem.obj
 0001:00065a80       ?Contains@?$Dictionary@V?$Ptr@VVisibilityContext@Visibility@@@@V?$BitField@$0EA@@Util@@@Util@@QBE_NABV?$Ptr@VVisibilityContext@Visibility@@@@@Z 00466a80 f i render_win32.release:visibilityclustersystem.obj
 0001:00065ae0       ??C?$Ptr@VVisibilityContainer@Visibility@@@@QBEPAVVisibilityContainer@Visibility@@XZ 00466ae0 f i render_win32.release:visibilityclustersystem.obj
 0001:00065b20       ??$cast@VVisibilityCluster@Visibility@@@?$Ptr@VVisibilityContainer@Visibility@@@@QBEABV?$Ptr@VVisibilityCluster@Visibility@@@@XZ 00466b20 f i render_win32.release:visibilityclustersystem.obj
 0001:00065b30       ??C?$Ptr@VVisibilityCluster@Visibility@@@@QBEPAVVisibilityCluster@Visibility@@XZ 00466b30 f i render_win32.release:visibilityclustersystem.obj
 0001:00065b70       ??1?$KeyValuePair@V?$Ptr@VVisibilityContext@Visibility@@@@V?$BitField@$0EA@@Util@@@Util@@QAE@XZ 00466b70 f i render_win32.release:visibilityclustersystem.obj
 0001:00065b90       ?Destroy@?$Array@V?$Ptr@VVisibilityCluster@Visibility@@@@@Util@@AAEXPAV?$Ptr@VVisibilityCluster@Visibility@@@@@Z 00466b90 f i render_win32.release:visibilityclustersystem.obj
 0001:00065bc0       ?Copy@?$Array@V?$Ptr@VVisibilityCluster@Visibility@@@@@Util@@AAEXABV12@@Z 00466bc0 f i render_win32.release:visibilityclustersystem.obj
 0001:00065cf0       ?Delete@?$Array@V?$Ptr@VVisibilityCluster@Visibility@@@@@Util@@AAEXXZ 00466cf0 f i render_win32.release:visibilityclustersystem.obj
 0001:00065d60       ?Grow@?$Array@V?$Ptr@VVisibilityCluster@Visibility@@@@@Util@@AAEXXZ 00466d60 f i render_win32.release:visibilityclustersystem.obj
 0001:00065de0       ??4?$Ptr@VVisibilityCluster@Visibility@@@@QAEXABV0@@Z 00466de0 f i render_win32.release:visibilityclustersystem.obj
 0001:00065e40       ??0?$BitField@$0EA@@Util@@QAE@ABV01@@Z 00466e40 f i render_win32.release:visibilityclustersystem.obj
 0001:00065e80       ??0?$Array@V?$KeyValuePair@V?$Ptr@VVisibilityContext@Visibility@@@@V?$BitField@$0EA@@Util@@@Util@@@Util@@QAE@XZ 00466e80 f i render_win32.release:visibilityclustersystem.obj
 0001:00065ec0       ??A?$Array@V?$KeyValuePair@V?$Ptr@VVisibilityContext@Visibility@@@@V?$BitField@$0EA@@Util@@@Util@@@Util@@QBEAAV?$KeyValuePair@V?$Ptr@VVisibilityContext@Visibility@@@@V?$BitField@$0EA@@Util@@@1@H@Z 00466ec0 f i render_win32.release:visibilityclustersystem.obj
 0001:00065f10       ?Append@?$Array@V?$KeyValuePair@V?$Ptr@VVisibilityContext@Visibility@@@@V?$BitField@$0EA@@Util@@@Util@@@Util@@QAEXABV?$KeyValuePair@V?$Ptr@VVisibilityContext@Visibility@@@@V?$BitField@$0EA@@Util@@@2@@Z 00466f10 f i render_win32.release:visibilityclustersystem.obj
 0001:00065f90       ?EraseIndex@?$Array@V?$KeyValuePair@V?$Ptr@VVisibilityContext@Visibility@@@@V?$BitField@$0EA@@Util@@@Util@@@Util@@QAEXH@Z 00466f90 f i render_win32.release:visibilityclustersystem.obj
 0001:00066010       ?InsertSorted@?$Array@V?$KeyValuePair@V?$Ptr@VVisibilityContext@Visibility@@@@V?$BitField@$0EA@@Util@@@Util@@@Util@@QAEHABV?$KeyValuePair@V?$Ptr@VVisibilityContext@Visibility@@@@V?$BitField@$0EA@@Util@@@2@@Z 00467010 f i render_win32.release:visibilityclustersystem.obj
 0001:00066280       ?BinarySearchIndex@?$Array@V?$KeyValuePair@V?$Ptr@VVisibilityContext@Visibility@@@@V?$BitField@$0EA@@Util@@@Util@@@Util@@QBEHABV?$KeyValuePair@V?$Ptr@VVisibilityContext@Visibility@@@@V?$BitField@$0EA@@Util@@@2@@Z 00467280 f i render_win32.release:visibilityclustersystem.obj
 0001:000663b0       ?Delete@?$Array@V?$KeyValuePair@V?$Ptr@VVisibilityContext@Visibility@@@@V?$BitField@$0EA@@Util@@@Util@@@Util@@AAEXXZ 004673b0 f i render_win32.release:visibilityclustersystem.obj
 0001:00066420       ?FindIndex@?$Dictionary@V?$Ptr@VVisibilityContext@Visibility@@@@V?$BitField@$0EA@@Util@@@Util@@QBEHABV?$Ptr@VVisibilityContext@Visibility@@@@@Z 00467420 f i render_win32.release:visibilityclustersystem.obj
 0001:00066480       ??0?$KeyValuePair@V?$Ptr@VVisibilityContext@Visibility@@@@V?$BitField@$0EA@@Util@@@Util@@QAE@ABV?$Ptr@VVisibilityContext@Visibility@@@@@Z 00467480 f i render_win32.release:visibilityclustersystem.obj
 0001:000664b0       ??0?$KeyValuePair@V?$Ptr@VVisibilityContext@Visibility@@@@V?$BitField@$0EA@@Util@@@Util@@QAE@ABV?$Ptr@VVisibilityContext@Visibility@@@@ABV?$BitField@$0EA@@1@@Z 004674b0 f i render_win32.release:visibilityclustersystem.obj
 0001:000664e0       ?Value@?$KeyValuePair@V?$Ptr@VVisibilityContext@Visibility@@@@V?$BitField@$0EA@@Util@@@Util@@QAEAAV?$BitField@$0EA@@2@XZ 004674e0 f i render_win32.release:visibilityclustersystem.obj
 0001:00066500       ??_G?$Ptr@VVisibilityCluster@Visibility@@@@QAEPAXI@Z 00467500 f i render_win32.release:visibilityclustersystem.obj
 0001:00066530       ??_E?$Ptr@VVisibilityCluster@Visibility@@@@QAEPAXI@Z 00467530 f i render_win32.release:visibilityclustersystem.obj
 0001:000665d0       ??_E?$KeyValuePair@V?$Ptr@VVisibilityContext@Visibility@@@@V?$BitField@$0EA@@Util@@@Util@@QAEPAXI@Z 004675d0 f i render_win32.release:visibilityclustersystem.obj
 0001:00066670       ?GrowTo@?$Array@V?$Ptr@VVisibilityCluster@Visibility@@@@@Util@@AAEXH@Z 00467670 f i render_win32.release:visibilityclustersystem.obj
 0001:00066790       ??0?$Ptr@VVisibilityCluster@Visibility@@@@QAE@XZ 00467790 f i render_win32.release:visibilityclustersystem.obj
 0001:000667b0       ??1?$Ptr@VVisibilityCluster@Visibility@@@@QAE@XZ 004677b0 f i render_win32.release:visibilityclustersystem.obj
 0001:000667e0       ?Size@?$Array@V?$KeyValuePair@V?$Ptr@VVisibilityContext@Visibility@@@@V?$BitField@$0EA@@Util@@@Util@@@Util@@QBEHXZ 004677e0 f i render_win32.release:visibilityclustersystem.obj
 0001:00066800       ?Insert@?$Array@V?$KeyValuePair@V?$Ptr@VVisibilityContext@Visibility@@@@V?$BitField@$0EA@@Util@@@Util@@@Util@@QAEXHABV?$KeyValuePair@V?$Ptr@VVisibilityContext@Visibility@@@@V?$BitField@$0EA@@Util@@@2@@Z 00467800 f i render_win32.release:visibilityclustersystem.obj
 0001:00066870       ?InsertAtEndOfIdenticalRange@?$Array@V?$KeyValuePair@V?$Ptr@VVisibilityContext@Visibility@@@@V?$BitField@$0EA@@Util@@@Util@@@Util@@QAEHHABV?$KeyValuePair@V?$Ptr@VVisibilityContext@Visibility@@@@V?$BitField@$0EA@@Util@@@2@@Z 00467870 f i render_win32.release:visibilityclustersystem.obj
 0001:000668f0       ?Destroy@?$Array@V?$KeyValuePair@V?$Ptr@VVisibilityContext@Visibility@@@@V?$BitField@$0EA@@Util@@@Util@@@Util@@AAEXPAV?$KeyValuePair@V?$Ptr@VVisibilityContext@Visibility@@@@V?$BitField@$0EA@@Util@@@2@@Z 004678f0 f i render_win32.release:visibilityclustersystem.obj
 0001:00066920       ?Grow@?$Array@V?$KeyValuePair@V?$Ptr@VVisibilityContext@Visibility@@@@V?$BitField@$0EA@@Util@@@Util@@@Util@@AAEXXZ 00467920 f i render_win32.release:visibilityclustersystem.obj
 0001:000669a0       ?Move@?$Array@V?$KeyValuePair@V?$Ptr@VVisibilityContext@Visibility@@@@V?$BitField@$0EA@@Util@@@Util@@@Util@@AAEXHH@Z 004679a0 f i render_win32.release:visibilityclustersystem.obj
 0001:00066b30       ??4?$KeyValuePair@V?$Ptr@VVisibilityContext@Visibility@@@@V?$BitField@$0EA@@Util@@@Util@@QAEXABV01@@Z 00467b30 f i render_win32.release:visibilityclustersystem.obj
 0001:00066b60       ??9?$KeyValuePair@V?$Ptr@VVisibilityContext@Visibility@@@@V?$BitField@$0EA@@Util@@@Util@@QBE_NABV01@@Z 00467b60 f i render_win32.release:visibilityclustersystem.obj
 0001:00066b80       ??O?$KeyValuePair@V?$Ptr@VVisibilityContext@Visibility@@@@V?$BitField@$0EA@@Util@@@Util@@QBE_NABV01@@Z 00467b80 f i render_win32.release:visibilityclustersystem.obj
 0001:00066bb0       ??M?$KeyValuePair@V?$Ptr@VVisibilityContext@Visibility@@@@V?$BitField@$0EA@@Util@@@Util@@QBE_NABV01@@Z 00467bb0 f i render_win32.release:visibilityclustersystem.obj
 0001:00066be0       ??_G?$KeyValuePair@V?$Ptr@VVisibilityContext@Visibility@@@@V?$BitField@$0EA@@Util@@@Util@@QAEPAXI@Z 00467be0 f i render_win32.release:visibilityclustersystem.obj
 0001:00066c10       ?GrowTo@?$Array@V?$KeyValuePair@V?$Ptr@VVisibilityContext@Visibility@@@@V?$BitField@$0EA@@Util@@@Util@@@Util@@AAEXH@Z 00467c10 f i render_win32.release:visibilityclustersystem.obj
 0001:00066d30       ??4?$BitField@$0EA@@Util@@QAEXABV01@@Z 00467d30 f i render_win32.release:visibilityclustersystem.obj
 0001:00066d70       ??0?$KeyValuePair@V?$Ptr@VVisibilityContext@Visibility@@@@V?$BitField@$0EA@@Util@@@Util@@QAE@XZ 00467d70 f i render_win32.release:visibilityclustersystem.obj
 0001:00066da0       ??0JobDataDesc@Jobs@@QAE@PAXHH0HH0HH0HH@Z 00467da0 f i render_win32.release:visibilityboxsystem.obj
 0001:00066eb0       ??0frustum@Math@@QAE@ABVmatrix44@1@@Z 00467eb0 f i render_win32.release:visibilityboxsystem.obj
 0001:00066f10       ?set@frustum@Math@@QAEXABVbbox@2@ABVmatrix44@2@@Z 00467f10 f i render_win32.release:visibilityboxsystem.obj
 0001:00067f80       ?SetVisible@VisibilityBox@Visibility@@AAEX_N@Z 00468f80 f i render_win32.release:visibilityboxsystem.obj
 0001:00067fa0       ?IsVisible@VisibilityBox@Visibility@@QBE_NXZ 00468fa0 f i render_win32.release:visibilityboxsystem.obj
 0001:00067fc0       ?SetCameraBox@VisibilityBox@Visibility@@AAEX_N@Z 00468fc0 f i render_win32.release:visibilityboxsystem.obj
 0001:00067fe0       ?IsCameraBox@VisibilityBox@Visibility@@QBE_NXZ 00468fe0 f i render_win32.release:visibilityboxsystem.obj
 0001:00068000       ?GetNeighbours@VisibilityBox@Visibility@@QBEABV?$Array@H@Util@@XZ 00469000 f i render_win32.release:visibilityboxsystem.obj
 0001:00068020       ?SetProcessed@VisibilityBox@Visibility@@AAEX_N@Z 00469020 f i render_win32.release:visibilityboxsystem.obj
 0001:00068040       ?IsProcessed@VisibilityBox@Visibility@@QBE_NXZ 00469040 f i render_win32.release:visibilityboxsystem.obj
 0001:00068060       ??2VisibilityBoxSystem@Visibility@@SAPAXI@Z 00469060 f i render_win32.release:visibilityboxsystem.obj
 0001:00068070       ??3VisibilityBoxSystem@Visibility@@SAXPAX@Z 00469070 f i render_win32.release:visibilityboxsystem.obj
 0001:00068090       ?GetObserverBitMask@VisibilityBoxSystem@Visibility@@UBEIXZ 00469090 f i render_win32.release:visibilityboxsystem.obj
 0001:000680a0       ?GetRtti@VisibilityBoxSystem@Visibility@@UBEPAVRtti@Core@@XZ 004690a0 f   render_win32.release:visibilityboxsystem.obj
 0001:000680b0       ?FactoryCreator@VisibilityBoxSystem@Visibility@@SAPAVRefCounted@Core@@XZ 004690b0 f   render_win32.release:visibilityboxsystem.obj
 0001:000680c0       ?Create@VisibilityBoxSystem@Visibility@@SAPAV12@XZ 004690c0 f   render_win32.release:visibilityboxsystem.obj
 0001:00068100       ?RegisterWithFactory@VisibilityBoxSystem@Visibility@@SA_NXZ 00469100 f   render_win32.release:visibilityboxsystem.obj
 0001:00068200       ??0VisibilityBoxSystem@Visibility@@QAE@XZ 00469200 f   render_win32.release:visibilityboxsystem.obj
 0001:000682a0       ??_GVisibilityBoxSystem@Visibility@@UAEPAXI@Z 004692a0 f i render_win32.release:visibilityboxsystem.obj
 0001:000682a0       ??_EVisibilityBoxSystem@Visibility@@UAEPAXI@Z 004692a0 f i  CIL library: CIL module
 0001:000682d0       ??1?$Dictionary@V?$Ptr@VVisibilityContext@Visibility@@@@V?$Array@V?$Ptr@VVisibilityBox@Visibility@@@@@Util@@@Util@@QAE@XZ 004692d0 f i render_win32.release:visibilityboxsystem.obj
 0001:000682f0       ??0BoxJobWorkData@VisibilityBoxSystem@Visibility@@QAE@XZ 004692f0 f i render_win32.release:visibilityboxsystem.obj
 0001:00068310       ??1BoxJobWorkData@VisibilityBoxSystem@Visibility@@QAE@XZ 00469310 f i render_win32.release:visibilityboxsystem.obj
 0001:00068330       ??1VisibilityBoxSystem@Visibility@@UAE@XZ 00469330 f   render_win32.release:visibilityboxsystem.obj
 0001:000683c0       ?Open@VisibilityBoxSystem@Visibility@@UAEXH@Z 004693c0 f   render_win32.release:visibilityboxsystem.obj
 0001:00068400       ?Close@VisibilityBoxSystem@Visibility@@UAEXXZ 00469400 f   render_win32.release:visibilityboxsystem.obj
 0001:00068420       ?InsertVisibilityContext@VisibilityBoxSystem@Visibility@@UAEXABV?$Ptr@VVisibilityContext@Visibility@@@@@Z 00469420 f   render_win32.release:visibilityboxsystem.obj
 0001:000684b0       ?RemoveVisibilityContext@VisibilityBoxSystem@Visibility@@UAEXABV?$Ptr@VVisibilityContext@Visibility@@@@@Z 004694b0 f   render_win32.release:visibilityboxsystem.obj
 0001:000684f0       ?UpdateVisibilityContext@VisibilityBoxSystem@Visibility@@UAEXABV?$Ptr@VVisibilityContext@Visibility@@@@@Z 004694f0 f   render_win32.release:visibilityboxsystem.obj
 0001:00068580       ?CheckVisibility@VisibilityBoxSystem@Visibility@@AAEXABV?$Ptr@VObserverContext@Visibility@@@@AAV?$Array@V?$Ptr@VVisibilityContext@Visibility@@@@@Util@@I@Z 00469580 f   render_win32.release:visibilityboxsystem.obj
 0001:00068660       ?InsertVisibilityContainer@VisibilityBoxSystem@Visibility@@UAEXABV?$Ptr@VVisibilityContainer@Visibility@@@@@Z 00469660 f   render_win32.release:visibilityboxsystem.obj
 0001:00068720       ?DiscardVisibilityBoxes@VisibilityBoxSystem@Visibility@@AAEXXZ 00469720 f   render_win32.release:visibilityboxsystem.obj
 0001:00068780       ?UpdateNeighbours@VisibilityBoxSystem@Visibility@@AAEXABV?$Ptr@VVisibilityBox@Visibility@@@@@Z 00469780 f   render_win32.release:visibilityboxsystem.obj
 0001:00068840       ?UpdateVisibilityBoxes@VisibilityBoxSystem@Visibility@@AAEXABV?$Ptr@VObserverContext@Visibility@@@@@Z 00469840 f   render_win32.release:visibilityboxsystem.obj
 0001:00068f00       ?FindOverlappingVisibilityBoxes@VisibilityBoxSystem@Visibility@@ABEHABVbbox@Math@@AAV?$Array@V?$Ptr@VVisibilityBox@Visibility@@@@@Util@@@Z 00469f00 f   render_win32.release:visibilityboxsystem.obj
 0001:00068fb0       ?OnRenderDebug@VisibilityBoxSystem@Visibility@@UAEXXZ 00469fb0 f   render_win32.release:visibilityboxsystem.obj
 0001:00069080       ?EndAttachVisibilityContainer@VisibilityBoxSystem@Visibility@@UAEXXZ 0046a080 f   render_win32.release:visibilityboxsystem.obj
 0001:00069140       ?CreateVisibilityJob@VisibilityBoxSystem@Visibility@@UAE?AV?$Ptr@VJob@Jobs@@@@HABV?$Ptr@VObserverContext@Visibility@@@@AAV?$FixedArray@V?$Ptr@VVisibilityContext@Visibility@@@@@Util@@AAI@Z 0046a140 f   render_win32.release:visibilityboxsystem.obj
 0001:00069380       ?CollectFlattenBoxMapping@VisibilityBoxSystem@Visibility@@AAEXH@Z 0046a380 f   render_win32.release:visibilityboxsystem.obj
 0001:00069520       ??1?$Dictionary@V?$Ptr@VVisibilityContext@Visibility@@@@V?$Array@H@Util@@@Util@@QAE@XZ 0046a520 f i render_win32.release:visibilityboxsystem.obj
 0001:00069540       ?SetDirty@VisibilityBoxSystem@Visibility@@QAEXXZ 0046a540 f   render_win32.release:visibilityboxsystem.obj
 0001:00069560       ?EraseIndex@?$Array@V?$Ptr@VVisibilityContext@Visibility@@@@@Util@@QAEXH@Z 0046a560 f i render_win32.release:visibilityboxsystem.obj
 0001:000695e0       ??A?$Array@H@Util@@QBEAAHH@Z 0046a5e0 f i render_win32.release:visibilityboxsystem.obj
 0001:00069630       ?AppendArray@?$Array@H@Util@@QAEXABV12@@Z 0046a630 f i render_win32.release:visibilityboxsystem.obj
 0001:00069680       ?Size@?$Array@H@Util@@QBEHXZ 0046a680 f i render_win32.release:visibilityboxsystem.obj
 0001:000696a0       ?Clear@?$Array@H@Util@@QAEXXZ 0046a6a0 f i render_win32.release:visibilityboxsystem.obj
 0001:000696f0       ?Begin@?$Array@H@Util@@QBEPAHXZ 0046a6f0 f i render_win32.release:visibilityboxsystem.obj
 0001:00069710       ??0?$Array@V?$Ptr@VVisibilityBox@Visibility@@@@@Util@@QAE@XZ 0046a710 f i render_win32.release:visibilityboxsystem.obj
 0001:00069750       ??1?$Array@V?$Ptr@VVisibilityBox@Visibility@@@@@Util@@QAE@XZ 0046a750 f i render_win32.release:visibilityboxsystem.obj
 0001:00069770       ??A?$Array@V?$Ptr@VVisibilityBox@Visibility@@@@@Util@@QBEAAV?$Ptr@VVisibilityBox@Visibility@@@@H@Z 0046a770 f i render_win32.release:visibilityboxsystem.obj
 0001:000697c0       ?Append@?$Array@V?$Ptr@VVisibilityBox@Visibility@@@@@Util@@QAEXABV?$Ptr@VVisibilityBox@Visibility@@@@@Z 0046a7c0 f i render_win32.release:visibilityboxsystem.obj
 0001:00069840       ?Size@?$Array@V?$Ptr@VVisibilityBox@Visibility@@@@@Util@@QBEHXZ 0046a840 f i render_win32.release:visibilityboxsystem.obj
 0001:00069860       ?IsEmpty@?$Array@V?$Ptr@VVisibilityBox@Visibility@@@@@Util@@QBE_NXZ 0046a860 f i render_win32.release:visibilityboxsystem.obj
 0001:00069880       ?Clear@?$Array@V?$Ptr@VVisibilityBox@Visibility@@@@@Util@@QAEXXZ 0046a880 f i render_win32.release:visibilityboxsystem.obj
 0001:000698d0       ?FindIndex@?$Array@V?$Ptr@VVisibilityBox@Visibility@@@@@Util@@QBEHABV?$Ptr@VVisibilityBox@Visibility@@@@@Z 0046a8d0 f i render_win32.release:visibilityboxsystem.obj
 0001:00069930       ??0?$Array@UVisibilityBoxJobData@VisibilityBox@Visibility@@@Util@@QAE@XZ 0046a930 f i render_win32.release:visibilityboxsystem.obj
 0001:00069970       ??1?$Array@UVisibilityBoxJobData@VisibilityBox@Visibility@@@Util@@QAE@XZ 0046a970 f i render_win32.release:visibilityboxsystem.obj
 0001:00069990       ??A?$Array@UVisibilityBoxJobData@VisibilityBox@Visibility@@@Util@@QBEAAUVisibilityBoxJobData@VisibilityBox@Visibility@@H@Z 0046a990 f i render_win32.release:visibilityboxsystem.obj
 0001:000699e0       ?Append@?$Array@UVisibilityBoxJobData@VisibilityBox@Visibility@@@Util@@QAEXABUVisibilityBoxJobData@VisibilityBox@Visibility@@@Z 0046a9e0 f i render_win32.release:visibilityboxsystem.obj
 0001:00069a60       ?Size@?$Array@UVisibilityBoxJobData@VisibilityBox@Visibility@@@Util@@QBEHXZ 0046aa60 f i render_win32.release:visibilityboxsystem.obj
 0001:00069a80       ?Begin@?$Array@UVisibilityBoxJobData@VisibilityBox@Visibility@@@Util@@QBEPAUVisibilityBoxJobData@VisibilityBox@Visibility@@XZ 0046aa80 f i render_win32.release:visibilityboxsystem.obj
 0001:00069aa0       ??1?$Array@V?$KeyValuePair@V?$Ptr@VVisibilityContext@Visibility@@@@V?$Array@V?$Ptr@VVisibilityBox@Visibility@@@@@Util@@@Util@@@Util@@QAE@XZ 0046aaa0 f i render_win32.release:visibilityboxsystem.obj
 0001:00069ac0       ??0?$Dictionary@V?$Ptr@VVisibilityContext@Visibility@@@@V?$Array@V?$Ptr@VVisibilityBox@Visibility@@@@@Util@@@Util@@QAE@XZ 0046aac0 f i render_win32.release:visibilityboxsystem.obj
 0001:00069ae0       ??A?$Dictionary@V?$Ptr@VVisibilityContext@Visibility@@@@V?$Array@V?$Ptr@VVisibilityBox@Visibility@@@@@Util@@@Util@@QAEAAV?$Array@V?$Ptr@VVisibilityBox@Visibility@@@@@1@ABV?$Ptr@VVisibilityContext@Visibility@@@@@Z 0046aae0 f i render_win32.release:visibilityboxsystem.obj
 0001:00069b30       ?Size@?$Dictionary@V?$Ptr@VVisibilityContext@Visibility@@@@V?$Array@V?$Ptr@VVisibilityBox@Visibility@@@@@Util@@@Util@@QBEHXZ 0046ab30 f i render_win32.release:visibilityboxsystem.obj
 0001:00069b50       ?Add@?$Dictionary@V?$Ptr@VVisibilityContext@Visibility@@@@V?$Array@V?$Ptr@VVisibilityBox@Visibility@@@@@Util@@@Util@@QAEXABV?$Ptr@VVisibilityContext@Visibility@@@@ABV?$Array@V?$Ptr@VVisibilityBox@Visibility@@@@@2@@Z 0046ab50 f i render_win32.release:visibilityboxsystem.obj
 0001:00069bb0       ?Erase@?$Dictionary@V?$Ptr@VVisibilityContext@Visibility@@@@V?$Array@V?$Ptr@VVisibilityBox@Visibility@@@@@Util@@@Util@@QAEXABV?$Ptr@VVisibilityContext@Visibility@@@@@Z 0046abb0 f i render_win32.release:visibilityboxsystem.obj
 0001:00069c40       ?Contains@?$Dictionary@V?$Ptr@VVisibilityContext@Visibility@@@@V?$Array@V?$Ptr@VVisibilityBox@Visibility@@@@@Util@@@Util@@QBE_NABV?$Ptr@VVisibilityContext@Visibility@@@@@Z 0046ac40 f i render_win32.release:visibilityboxsystem.obj
 0001:00069cb0       ?KeyAtIndex@?$Dictionary@V?$Ptr@VVisibilityContext@Visibility@@@@V?$Array@V?$Ptr@VVisibilityBox@Visibility@@@@@Util@@@Util@@QBEABV?$Ptr@VVisibilityContext@Visibility@@@@H@Z 0046acb0 f i render_win32.release:visibilityboxsystem.obj
 0001:00069d00       ?ValueAtIndex@?$Dictionary@V?$Ptr@VVisibilityContext@Visibility@@@@V?$Array@V?$Ptr@VVisibilityBox@Visibility@@@@@Util@@@Util@@QAEAAV?$Array@V?$Ptr@VVisibilityBox@Visibility@@@@@2@H@Z 0046ad00 f i render_win32.release:visibilityboxsystem.obj
 0001:00069d50       ??9?$Ptr@VVisibilityBox@Visibility@@@@QBE_NABV0@@Z 0046ad50 f i render_win32.release:visibilityboxsystem.obj
 0001:00069d70       ??C?$Ptr@VVisibilityBox@Visibility@@@@QBEPAVVisibilityBox@Visibility@@XZ 0046ad70 f i render_win32.release:visibilityboxsystem.obj
 0001:00069db0       ??B?$Ptr@VVisibilityBox@Visibility@@@@QBEPAVVisibilityBox@Visibility@@XZ 0046adb0 f i render_win32.release:visibilityboxsystem.obj
 0001:00069df0       ??$cast@VVisibilityBox@Visibility@@@?$Ptr@VVisibilityContainer@Visibility@@@@QBEABV?$Ptr@VVisibilityBox@Visibility@@@@XZ 0046adf0 f i render_win32.release:visibilityboxsystem.obj
 0001:00069e00       ??1?$Array@V?$KeyValuePair@V?$Ptr@VVisibilityContext@Visibility@@@@V?$Array@H@Util@@@Util@@@Util@@QAE@XZ 0046ae00 f i render_win32.release:visibilityboxsystem.obj
 0001:00069e20       ??0?$Dictionary@V?$Ptr@VVisibilityContext@Visibility@@@@V?$Array@H@Util@@@Util@@QAE@XZ 0046ae20 f i render_win32.release:visibilityboxsystem.obj
 0001:00069e40       ?Size@?$Dictionary@V?$Ptr@VVisibilityContext@Visibility@@@@V?$Array@H@Util@@@Util@@QBEHXZ 0046ae40 f i render_win32.release:visibilityboxsystem.obj
 0001:00069e60       ?BeginBulkAdd@?$Dictionary@V?$Ptr@VVisibilityContext@Visibility@@@@V?$Array@H@Util@@@Util@@QAEXXZ 0046ae60 f i render_win32.release:visibilityboxsystem.obj
 0001:00069ea0       ?Add@?$Dictionary@V?$Ptr@VVisibilityContext@Visibility@@@@V?$Array@H@Util@@@Util@@QAEXABV?$Ptr@VVisibilityContext@Visibility@@@@ABV?$Array@H@2@@Z 0046aea0 f i render_win32.release:visibilityboxsystem.obj
 0001:00069f00       ?EndBulkAdd@?$Dictionary@V?$Ptr@VVisibilityContext@Visibility@@@@V?$Array@H@Util@@@Util@@QAEXXZ 0046af00 f i render_win32.release:visibilityboxsystem.obj
 0001:00069f40       ?KeyAtIndex@?$Dictionary@V?$Ptr@VVisibilityContext@Visibility@@@@V?$Array@H@Util@@@Util@@QBEABV?$Ptr@VVisibilityContext@Visibility@@@@H@Z 0046af40 f i render_win32.release:visibilityboxsystem.obj
 0001:00069f90       ?ValueAtIndex@?$Dictionary@V?$Ptr@VVisibilityContext@Visibility@@@@V?$Array@H@Util@@@Util@@QAEAAV?$Array@H@2@H@Z 0046af90 f i render_win32.release:visibilityboxsystem.obj
 0001:00069fe0       ??4VisibilityBoxJobData@VisibilityBox@Visibility@@QAEAAU012@ABU012@@Z 0046afe0 f i render_win32.release:visibilityboxsystem.obj
 0001:0006a090       ??1?$KeyValuePair@V?$Ptr@VVisibilityContext@Visibility@@@@V?$Array@V?$Ptr@VVisibilityBox@Visibility@@@@@Util@@@Util@@QAE@XZ 0046b090 f i render_win32.release:visibilityboxsystem.obj
 0001:0006a0b0       ??1?$KeyValuePair@V?$Ptr@VVisibilityContext@Visibility@@@@V?$Array@H@Util@@@Util@@QAE@XZ 0046b0b0 f i render_win32.release:visibilityboxsystem.obj
 0001:0006a0d0       ?Destroy@?$Array@V?$Ptr@VVisibilityContext@Visibility@@@@@Util@@AAEXPAV?$Ptr@VVisibilityContext@Visibility@@@@@Z 0046b0d0 f i render_win32.release:visibilityboxsystem.obj
 0001:0006a100       ?Move@?$Array@V?$Ptr@VVisibilityContext@Visibility@@@@@Util@@AAEXHH@Z 0046b100 f i render_win32.release:visibilityboxsystem.obj
 0001:0006a290       ?Destroy@?$Array@V?$Ptr@VVisibilityBox@Visibility@@@@@Util@@AAEXPAV?$Ptr@VVisibilityBox@Visibility@@@@@Z 0046b290 f i render_win32.release:visibilityboxsystem.obj
 0001:0006a2c0       ?Delete@?$Array@V?$Ptr@VVisibilityBox@Visibility@@@@@Util@@AAEXXZ 0046b2c0 f i render_win32.release:visibilityboxsystem.obj
 0001:0006a330       ?Grow@?$Array@V?$Ptr@VVisibilityBox@Visibility@@@@@Util@@AAEXXZ 0046b330 f i render_win32.release:visibilityboxsystem.obj
 0001:0006a3b0       ??4?$Ptr@VVisibilityBox@Visibility@@@@QAEXABV0@@Z 0046b3b0 f i render_win32.release:visibilityboxsystem.obj
 0001:0006a410       ??8?$Ptr@VVisibilityBox@Visibility@@@@QBE_NABV0@@Z 0046b410 f i render_win32.release:visibilityboxsystem.obj
 0001:0006a430       ?Delete@?$Array@UVisibilityBoxJobData@VisibilityBox@Visibility@@@Util@@AAEXXZ 0046b430 f i render_win32.release:visibilityboxsystem.obj
 0001:0006a490       ?Grow@?$Array@UVisibilityBoxJobData@VisibilityBox@Visibility@@@Util@@AAEXXZ 0046b490 f i render_win32.release:visibilityboxsystem.obj
 0001:0006a510       ??0?$Array@V?$KeyValuePair@V?$Ptr@VVisibilityContext@Visibility@@@@V?$Array@V?$Ptr@VVisibilityBox@Visibility@@@@@Util@@@Util@@@Util@@QAE@XZ 0046b510 f i render_win32.release:visibilityboxsystem.obj
 0001:0006a550       ??A?$Array@V?$KeyValuePair@V?$Ptr@VVisibilityContext@Visibility@@@@V?$Array@V?$Ptr@VVisibilityBox@Visibility@@@@@Util@@@Util@@@Util@@QBEAAV?$KeyValuePair@V?$Ptr@VVisibilityContext@Visibility@@@@V?$Array@V?$Ptr@VVisibilityBox@Visibility@@@@@Util@@@1@H@Z 0046b550 f i render_win32.release:visibilityboxsystem.obj
 0001:0006a5a0       ?Append@?$Array@V?$KeyValuePair@V?$Ptr@VVisibilityContext@Visibility@@@@V?$Array@V?$Ptr@VVisibilityBox@Visibility@@@@@Util@@@Util@@@Util@@QAEXABV?$KeyValuePair@V?$Ptr@VVisibilityContext@Visibility@@@@V?$Array@V?$Ptr@VVisibilityBox@Visibility@@@@@Util@@@2@@Z 0046b5a0 f i render_win32.release:visibilityboxsystem.obj
 0001:0006a620       ?Size@?$Array@V?$KeyValuePair@V?$Ptr@VVisibilityContext@Visibility@@@@V?$Array@V?$Ptr@VVisibilityBox@Visibility@@@@@Util@@@Util@@@Util@@QBEHXZ 0046b620 f i render_win32.release:visibilityboxsystem.obj
 0001:0006a640       ?EraseIndex@?$Array@V?$KeyValuePair@V?$Ptr@VVisibilityContext@Visibility@@@@V?$Array@V?$Ptr@VVisibilityBox@Visibility@@@@@Util@@@Util@@@Util@@QAEXH@Z 0046b640 f i render_win32.release:visibilityboxsystem.obj
 0001:0006a6c0       ?InsertSorted@?$Array@V?$KeyValuePair@V?$Ptr@VVisibilityContext@Visibility@@@@V?$Array@V?$Ptr@VVisibilityBox@Visibility@@@@@Util@@@Util@@@Util@@QAEHABV?$KeyValuePair@V?$Ptr@VVisibilityContext@Visibility@@@@V?$Array@V?$Ptr@VVisibilityBox@Visibility@@@@@Util@@@2@@Z 0046b6c0 f i render_win32.release:visibilityboxsystem.obj
 0001:0006a930       ?BinarySearchIndex@?$Array@V?$KeyValuePair@V?$Ptr@VVisibilityContext@Visibility@@@@V?$Array@V?$Ptr@VVisibilityBox@Visibility@@@@@Util@@@Util@@@Util@@QBEHABV?$KeyValuePair@V?$Ptr@VVisibilityContext@Visibility@@@@V?$Array@V?$Ptr@VVisibilityBox@Visibility@@@@@Util@@@2@@Z 0046b930 f i render_win32.release:visibilityboxsystem.obj
 0001:0006aa60       ?Delete@?$Array@V?$KeyValuePair@V?$Ptr@VVisibilityContext@Visibility@@@@V?$Array@V?$Ptr@VVisibilityBox@Visibility@@@@@Util@@@Util@@@Util@@AAEXXZ 0046ba60 f i render_win32.release:visibilityboxsystem.obj
 0001:0006aad0       ?FindIndex@?$Dictionary@V?$Ptr@VVisibilityContext@Visibility@@@@V?$Array@V?$Ptr@VVisibilityBox@Visibility@@@@@Util@@@Util@@QBEHABV?$Ptr@VVisibilityContext@Visibility@@@@@Z 0046bad0 f i render_win32.release:visibilityboxsystem.obj
 0001:0006ab30       ??0?$KeyValuePair@V?$Ptr@VVisibilityContext@Visibility@@@@V?$Array@V?$Ptr@VVisibilityBox@Visibility@@@@@Util@@@Util@@QAE@ABV?$Ptr@VVisibilityContext@Visibility@@@@@Z 0046bb30 f i render_win32.release:visibilityboxsystem.obj
 0001:0006ab60       ??0?$KeyValuePair@V?$Ptr@VVisibilityContext@Visibility@@@@V?$Array@V?$Ptr@VVisibilityBox@Visibility@@@@@Util@@@Util@@QAE@ABV?$Ptr@VVisibilityContext@Visibility@@@@ABV?$Array@V?$Ptr@VVisibilityBox@Visibility@@@@@1@@Z 0046bb60 f i render_win32.release:visibilityboxsystem.obj
 0001:0006ab90       ?Value@?$KeyValuePair@V?$Ptr@VVisibilityContext@Visibility@@@@V?$Array@V?$Ptr@VVisibilityBox@Visibility@@@@@Util@@@Util@@QAEAAV?$Array@V?$Ptr@VVisibilityBox@Visibility@@@@@2@XZ 0046bb90 f i render_win32.release:visibilityboxsystem.obj
 0001:0006abb0       ?Key@?$KeyValuePair@V?$Ptr@VVisibilityContext@Visibility@@@@V?$Array@V?$Ptr@VVisibilityBox@Visibility@@@@@Util@@@Util@@QBEABV?$Ptr@VVisibilityContext@Visibility@@@@XZ 0046bbb0 f i render_win32.release:visibilityboxsystem.obj
 0001:0006abc0       ??0?$Array@V?$KeyValuePair@V?$Ptr@VVisibilityContext@Visibility@@@@V?$Array@H@Util@@@Util@@@Util@@QAE@XZ 0046bbc0 f i render_win32.release:visibilityboxsystem.obj
 0001:0006ac00       ??A?$Array@V?$KeyValuePair@V?$Ptr@VVisibilityContext@Visibility@@@@V?$Array@H@Util@@@Util@@@Util@@QBEAAV?$KeyValuePair@V?$Ptr@VVisibilityContext@Visibility@@@@V?$Array@H@Util@@@1@H@Z 0046bc00 f i render_win32.release:visibilityboxsystem.obj
 0001:0006ac50       ?Append@?$Array@V?$KeyValuePair@V?$Ptr@VVisibilityContext@Visibility@@@@V?$Array@H@Util@@@Util@@@Util@@QAEXABV?$KeyValuePair@V?$Ptr@VVisibilityContext@Visibility@@@@V?$Array@H@Util@@@2@@Z 0046bc50 f i render_win32.release:visibilityboxsystem.obj
 0001:0006acd0       ?Size@?$Array@V?$KeyValuePair@V?$Ptr@VVisibilityContext@Visibility@@@@V?$Array@H@Util@@@Util@@@Util@@QBEHXZ 0046bcd0 f i render_win32.release:visibilityboxsystem.obj
 0001:0006acf0       ?InsertSorted@?$Array@V?$KeyValuePair@V?$Ptr@VVisibilityContext@Visibility@@@@V?$Array@H@Util@@@Util@@@Util@@QAEHABV?$KeyValuePair@V?$Ptr@VVisibilityContext@Visibility@@@@V?$Array@H@Util@@@2@@Z 0046bcf0 f i render_win32.release:visibilityboxsystem.obj
 0001:0006af60       ?Sort@?$Array@V?$KeyValuePair@V?$Ptr@VVisibilityContext@Visibility@@@@V?$Array@H@Util@@@Util@@@Util@@QAEXXZ 0046bf60 f i render_win32.release:visibilityboxsystem.obj
 0001:0006afd0       ?Delete@?$Array@V?$KeyValuePair@V?$Ptr@VVisibilityContext@Visibility@@@@V?$Array@H@Util@@@Util@@@Util@@AAEXXZ 0046bfd0 f i render_win32.release:visibilityboxsystem.obj
 0001:0006b040       ??0?$KeyValuePair@V?$Ptr@VVisibilityContext@Visibility@@@@V?$Array@H@Util@@@Util@@QAE@ABV?$Ptr@VVisibilityContext@Visibility@@@@ABV?$Array@H@1@@Z 0046c040 f i render_win32.release:visibilityboxsystem.obj
 0001:0006b070       ?Value@?$KeyValuePair@V?$Ptr@VVisibilityContext@Visibility@@@@V?$Array@H@Util@@@Util@@QAEAAV?$Array@H@2@XZ 0046c070 f i render_win32.release:visibilityboxsystem.obj
 0001:0006b090       ?Key@?$KeyValuePair@V?$Ptr@VVisibilityContext@Visibility@@@@V?$Array@H@Util@@@Util@@QBEABV?$Ptr@VVisibilityContext@Visibility@@@@XZ 0046c090 f i render_win32.release:visibilityboxsystem.obj
 0001:0006b0a0       ??_G?$Ptr@VVisibilityContext@Visibility@@@@QAEPAXI@Z 0046c0a0 f i render_win32.release:visibilityboxsystem.obj
 0001:0006b0d0       ??_G?$Ptr@VVisibilityBox@Visibility@@@@QAEPAXI@Z 0046c0d0 f i render_win32.release:visibilityboxsystem.obj
 0001:0006b100       ??_E?$Ptr@VVisibilityBox@Visibility@@@@QAEPAXI@Z 0046c100 f i render_win32.release:visibilityboxsystem.obj
 0001:0006b1a0       ??_E?$KeyValuePair@V?$Ptr@VVisibilityContext@Visibility@@@@V?$Array@V?$Ptr@VVisibilityBox@Visibility@@@@@Util@@@Util@@QAEPAXI@Z 0046c1a0 f i render_win32.release:visibilityboxsystem.obj
 0001:0006b250       ??_E?$KeyValuePair@V?$Ptr@VVisibilityContext@Visibility@@@@V?$Array@H@Util@@@Util@@QAEPAXI@Z 0046c250 f i render_win32.release:visibilityboxsystem.obj
 0001:0006b300       ?Grow@?$Array@V?$Ptr@VVisibilityContext@Visibility@@@@@Util@@AAEXXZ 0046c300 f i render_win32.release:visibilityboxsystem.obj
 0001:0006b380       ??0?$Array@V?$Ptr@VVisibilityBox@Visibility@@@@@Util@@QAE@ABV01@@Z 0046c380 f i render_win32.release:visibilityboxsystem.obj
 0001:0006b3d0       ?GrowTo@?$Array@V?$Ptr@VVisibilityBox@Visibility@@@@@Util@@AAEXH@Z 0046c3d0 f i render_win32.release:visibilityboxsystem.obj
 0001:0006b4f0       ??1?$Ptr@VVisibilityBox@Visibility@@@@QAE@XZ 0046c4f0 f i render_win32.release:visibilityboxsystem.obj
 0001:0006b520       ?GrowTo@?$Array@UVisibilityBoxJobData@VisibilityBox@Visibility@@@Util@@AAEXH@Z 0046c520 f i render_win32.release:visibilityboxsystem.obj
 0001:0006b650       ?Insert@?$Array@V?$KeyValuePair@V?$Ptr@VVisibilityContext@Visibility@@@@V?$Array@V?$Ptr@VVisibilityBox@Visibility@@@@@Util@@@Util@@@Util@@QAEXHABV?$KeyValuePair@V?$Ptr@VVisibilityContext@Visibility@@@@V?$Array@V?$Ptr@VVisibilityBox@Visibility@@@@@Util@@@2@@Z 0046c650 f i render_win32.release:visibilityboxsystem.obj
 0001:0006b6c0       ?InsertAtEndOfIdenticalRange@?$Array@V?$KeyValuePair@V?$Ptr@VVisibilityContext@Visibility@@@@V?$Array@V?$Ptr@VVisibilityBox@Visibility@@@@@Util@@@Util@@@Util@@QAEHHABV?$KeyValuePair@V?$Ptr@VVisibilityContext@Visibility@@@@V?$Array@V?$Ptr@VVisibilityBox@Visibility@@@@@Util@@@2@@Z 0046c6c0 f i render_win32.release:visibilityboxsystem.obj
 0001:0006b740       ?Destroy@?$Array@V?$KeyValuePair@V?$Ptr@VVisibilityContext@Visibility@@@@V?$Array@V?$Ptr@VVisibilityBox@Visibility@@@@@Util@@@Util@@@Util@@AAEXPAV?$KeyValuePair@V?$Ptr@VVisibilityContext@Visibility@@@@V?$Array@V?$Ptr@VVisibilityBox@Visibility@@@@@Util@@@2@@Z 0046c740 f i render_win32.release:visibilityboxsystem.obj
 0001:0006b780       ?Grow@?$Array@V?$KeyValuePair@V?$Ptr@VVisibilityContext@Visibility@@@@V?$Array@V?$Ptr@VVisibilityBox@Visibility@@@@@Util@@@Util@@@Util@@AAEXXZ 0046c780 f i render_win32.release:visibilityboxsystem.obj
 0001:0006b800       ?Move@?$Array@V?$KeyValuePair@V?$Ptr@VVisibilityContext@Visibility@@@@V?$Array@V?$Ptr@VVisibilityBox@Visibility@@@@@Util@@@Util@@@Util@@AAEXHH@Z 0046c800 f i render_win32.release:visibilityboxsystem.obj
 0001:0006b990       ??4?$KeyValuePair@V?$Ptr@VVisibilityContext@Visibility@@@@V?$Array@V?$Ptr@VVisibilityBox@Visibility@@@@@Util@@@Util@@QAEXABV01@@Z 0046c990 f i render_win32.release:visibilityboxsystem.obj
 0001:0006b9c0       ??9?$KeyValuePair@V?$Ptr@VVisibilityContext@Visibility@@@@V?$Array@V?$Ptr@VVisibilityBox@Visibility@@@@@Util@@@Util@@QBE_NABV01@@Z 0046c9c0 f i render_win32.release:visibilityboxsystem.obj
 0001:0006b9e0       ??O?$KeyValuePair@V?$Ptr@VVisibilityContext@Visibility@@@@V?$Array@V?$Ptr@VVisibilityBox@Visibility@@@@@Util@@@Util@@QBE_NABV01@@Z 0046c9e0 f i render_win32.release:visibilityboxsystem.obj
 0001:0006ba10       ??M?$KeyValuePair@V?$Ptr@VVisibilityContext@Visibility@@@@V?$Array@V?$Ptr@VVisibilityBox@Visibility@@@@@Util@@@Util@@QBE_NABV01@@Z 0046ca10 f i render_win32.release:visibilityboxsystem.obj
 0001:0006ba40       ?Insert@?$Array@V?$KeyValuePair@V?$Ptr@VVisibilityContext@Visibility@@@@V?$Array@H@Util@@@Util@@@Util@@QAEXHABV?$KeyValuePair@V?$Ptr@VVisibilityContext@Visibility@@@@V?$Array@H@Util@@@2@@Z 0046ca40 f i render_win32.release:visibilityboxsystem.obj
 0001:0006bab0       ?InsertAtEndOfIdenticalRange@?$Array@V?$KeyValuePair@V?$Ptr@VVisibilityContext@Visibility@@@@V?$Array@H@Util@@@Util@@@Util@@QAEHHABV?$KeyValuePair@V?$Ptr@VVisibilityContext@Visibility@@@@V?$Array@H@Util@@@2@@Z 0046cab0 f i render_win32.release:visibilityboxsystem.obj
 0001:0006bb30       ?Begin@?$Array@V?$KeyValuePair@V?$Ptr@VVisibilityContext@Visibility@@@@V?$Array@H@Util@@@Util@@@Util@@QBEPAV?$KeyValuePair@V?$Ptr@VVisibilityContext@Visibility@@@@V?$Array@H@Util@@@2@XZ 0046cb30 f i render_win32.release:visibilityboxsystem.obj
 0001:0006bb50       ?End@?$Array@V?$KeyValuePair@V?$Ptr@VVisibilityContext@Visibility@@@@V?$Array@H@Util@@@Util@@@Util@@QBEPAV?$KeyValuePair@V?$Ptr@VVisibilityContext@Visibility@@@@V?$Array@H@Util@@@2@XZ 0046cb50 f i render_win32.release:visibilityboxsystem.obj
 0001:0006bb70       ?Grow@?$Array@V?$KeyValuePair@V?$Ptr@VVisibilityContext@Visibility@@@@V?$Array@H@Util@@@Util@@@Util@@AAEXXZ 0046cb70 f i render_win32.release:visibilityboxsystem.obj
 0001:0006bbf0       ??4?$KeyValuePair@V?$Ptr@VVisibilityContext@Visibility@@@@V?$Array@H@Util@@@Util@@QAEXABV01@@Z 0046cbf0 f i render_win32.release:visibilityboxsystem.obj
 0001:0006bc20       ??O?$KeyValuePair@V?$Ptr@VVisibilityContext@Visibility@@@@V?$Array@H@Util@@@Util@@QBE_NABV01@@Z 0046cc20 f i render_win32.release:visibilityboxsystem.obj
 0001:0006bc50       ??M?$KeyValuePair@V?$Ptr@VVisibilityContext@Visibility@@@@V?$Array@H@Util@@@Util@@QBE_NABV01@@Z 0046cc50 f i render_win32.release:visibilityboxsystem.obj
 0001:0006bc80       ??$sort@PAV?$KeyValuePair@V?$Ptr@VVisibilityContext@Visibility@@@@V?$Array@H@Util@@@Util@@@std@@YAXPAV?$KeyValuePair@V?$Ptr@VVisibilityContext@Visibility@@@@V?$Array@H@Util@@@Util@@0@Z 0046cc80 f i render_win32.release:visibilityboxsystem.obj
 0001:0006bcc0       ??0VisibilityBoxJobData@VisibilityBox@Visibility@@QAE@XZ 0046ccc0 f i render_win32.release:visibilityboxsystem.obj
 0001:0006bd90       ??_G?$KeyValuePair@V?$Ptr@VVisibilityContext@Visibility@@@@V?$Array@V?$Ptr@VVisibilityBox@Visibility@@@@@Util@@@Util@@QAEPAXI@Z 0046cd90 f i render_win32.release:visibilityboxsystem.obj
 0001:0006bdd0       ?GrowTo@?$Array@V?$Ptr@VVisibilityContext@Visibility@@@@@Util@@AAEXH@Z 0046cdd0 f i render_win32.release:visibilityboxsystem.obj
 0001:0006bef0       ??4?$Array@V?$Ptr@VVisibilityBox@Visibility@@@@@Util@@QAEXABV01@@Z 0046cef0 f i render_win32.release:visibilityboxsystem.obj
 0001:0006bff0       ?Copy@?$Array@V?$Ptr@VVisibilityBox@Visibility@@@@@Util@@AAEXABV12@@Z 0046cff0 f i render_win32.release:visibilityboxsystem.obj
 0001:0006c120       ??0?$Ptr@VVisibilityBox@Visibility@@@@QAE@XZ 0046d120 f i render_win32.release:visibilityboxsystem.obj
 0001:0006c140       ?GrowTo@?$Array@V?$KeyValuePair@V?$Ptr@VVisibilityContext@Visibility@@@@V?$Array@V?$Ptr@VVisibilityBox@Visibility@@@@@Util@@@Util@@@Util@@AAEXH@Z 0046d140 f i render_win32.release:visibilityboxsystem.obj
 0001:0006c260       ?GrowTo@?$Array@V?$KeyValuePair@V?$Ptr@VVisibilityContext@Visibility@@@@V?$Array@H@Util@@@Util@@@Util@@AAEXH@Z 0046d260 f i render_win32.release:visibilityboxsystem.obj
 0001:0006c380       ?Move@?$Array@V?$KeyValuePair@V?$Ptr@VVisibilityContext@Visibility@@@@V?$Array@H@Util@@@Util@@@Util@@AAEXHH@Z 0046d380 f i render_win32.release:visibilityboxsystem.obj
 0001:0006c510       ??9?$KeyValuePair@V?$Ptr@VVisibilityContext@Visibility@@@@V?$Array@H@Util@@@Util@@QBE_NABV01@@Z 0046d510 f i render_win32.release:visibilityboxsystem.obj
 0001:0006c530       ??$_Checked_base@PAV?$KeyValuePair@V?$Ptr@VVisibilityContext@Visibility@@@@V?$Array@H@Util@@@Util@@@std@@YAPAV?$KeyValuePair@V?$Ptr@VVisibilityContext@Visibility@@@@V?$Array@H@Util@@@Util@@AAPAV12@@Z 0046d530 f i render_win32.release:visibilityboxsystem.obj
 0001:0006c550       ??$_Sort@PAV?$KeyValuePair@V?$Ptr@VVisibilityContext@Visibility@@@@V?$Array@H@Util@@@Util@@H@std@@YAXPAV?$KeyValuePair@V?$Ptr@VVisibilityContext@Visibility@@@@V?$Array@H@Util@@@Util@@0H@Z 0046d550 f i render_win32.release:visibilityboxsystem.obj
 0001:0006c6a0       ??0?$KeyValuePair@V?$Ptr@VVisibilityContext@Visibility@@@@V?$Array@V?$Ptr@VVisibilityBox@Visibility@@@@@Util@@@Util@@QAE@XZ 0046d6a0 f i render_win32.release:visibilityboxsystem.obj
 0001:0006c6d0       ?Destroy@?$Array@V?$KeyValuePair@V?$Ptr@VVisibilityContext@Visibility@@@@V?$Array@H@Util@@@Util@@@Util@@AAEXPAV?$KeyValuePair@V?$Ptr@VVisibilityContext@Visibility@@@@V?$Array@H@Util@@@2@@Z 0046d6d0 f i render_win32.release:visibilityboxsystem.obj
 0001:0006c710       ??0?$KeyValuePair@V?$Ptr@VVisibilityContext@Visibility@@@@V?$Array@H@Util@@@Util@@QAE@XZ 0046d710 f i render_win32.release:visibilityboxsystem.obj
 0001:0006c740       ??$_Checked_base@PAV?$KeyValuePair@V?$Ptr@VVisibilityContext@Visibility@@@@V?$Array@H@Util@@@Util@@@std@@YAPAV?$KeyValuePair@V?$Ptr@VVisibilityContext@Visibility@@@@V?$Array@H@Util@@@Util@@AAPAV12@U_Unchanged_checked_iterator_base_type_tag@0@@Z 0046d740 f i render_win32.release:visibilityboxsystem.obj
 0001:0006c750       ??$_Unguarded_partition@PAV?$KeyValuePair@V?$Ptr@VVisibilityContext@Visibility@@@@V?$Array@H@Util@@@Util@@@std@@YA?AU?$pair@PAV?$KeyValuePair@V?$Ptr@VVisibilityContext@Visibility@@@@V?$Array@H@Util@@@Util@@PAV12@@0@PAV?$KeyValuePair@V?$Ptr@VVisibilityContext@Visibility@@@@V?$Array@H@Util@@@Util@@0@Z 0046d750 f i render_win32.release:visibilityboxsystem.obj
 0001:0006ca30       ??$make_heap@PAV?$KeyValuePair@V?$Ptr@VVisibilityContext@Visibility@@@@V?$Array@H@Util@@@Util@@@std@@YAXPAV?$KeyValuePair@V?$Ptr@VVisibilityContext@Visibility@@@@V?$Array@H@Util@@@Util@@0@Z 0046da30 f i render_win32.release:visibilityboxsystem.obj
 0001:0006ca70       ??$sort_heap@PAV?$KeyValuePair@V?$Ptr@VVisibilityContext@Visibility@@@@V?$Array@H@Util@@@Util@@@std@@YAXPAV?$KeyValuePair@V?$Ptr@VVisibilityContext@Visibility@@@@V?$Array@H@Util@@@Util@@0@Z 0046da70 f i render_win32.release:visibilityboxsystem.obj
 0001:0006ca90       ??$_Insertion_sort@PAV?$KeyValuePair@V?$Ptr@VVisibilityContext@Visibility@@@@V?$Array@H@Util@@@Util@@@std@@YAXPAV?$KeyValuePair@V?$Ptr@VVisibilityContext@Visibility@@@@V?$Array@H@Util@@@Util@@0@Z 0046da90 f i render_win32.release:visibilityboxsystem.obj
 0001:0006cab0       ??_G?$KeyValuePair@V?$Ptr@VVisibilityContext@Visibility@@@@V?$Array@H@Util@@@Util@@QAEPAXI@Z 0046dab0 f i render_win32.release:visibilityboxsystem.obj
 0001:0006caf0       ??0?$pair@PAV?$KeyValuePair@V?$Ptr@VVisibilityContext@Visibility@@@@V?$Array@H@Util@@@Util@@PAV12@@std@@QAE@ABQAV?$KeyValuePair@V?$Ptr@VVisibilityContext@Visibility@@@@V?$Array@H@Util@@@Util@@0@Z 0046daf0 f i render_win32.release:visibilityboxsystem.obj
 0001:0006cb20       ??$_Median@PAV?$KeyValuePair@V?$Ptr@VVisibilityContext@Visibility@@@@V?$Array@H@Util@@@Util@@@std@@YAXPAV?$KeyValuePair@V?$Ptr@VVisibilityContext@Visibility@@@@V?$Array@H@Util@@@Util@@00@Z 0046db20 f i render_win32.release:visibilityboxsystem.obj
 0001:0006cc10       ??$iter_swap@PAV?$KeyValuePair@V?$Ptr@VVisibilityContext@Visibility@@@@V?$Array@H@Util@@@Util@@PAV12@@std@@YAXPAV?$KeyValuePair@V?$Ptr@VVisibilityContext@Visibility@@@@V?$Array@H@Util@@@Util@@0@Z 0046dc10 f i render_win32.release:visibilityboxsystem.obj
