 inputtest_win32

 Timestamp is 68d8754e (Sun Sep 28 02:37:50 2025)

 Preferred load address is 00400000

 Start         Length     Name                   Class
 0001:00000000 001ad079H .text                   CODE
 0001:001ad080 0000605fH .text$yc                CODE
 0001:001b30e0 00006a03H .text$yd                CODE
 0002:00000000 00000388H .idata$5                DATA
 0002:00000388 00000004H .CRT$XCA                DATA
 0002:0000038c 00000004H .CRT$XCAA               DATA
 0002:00000390 000006dcH .CRT$XCU                DATA
 0002:00000a6c 00000004H .CRT$XCZ                DATA
 0002:00000a70 00000004H .CRT$XIA                DATA
 0002:00000a74 00000004H .CRT$XIAA               DATA
 0002:00000a78 00000004H .CRT$XIC                DATA
 0002:00000a7c 00000004H .CRT$XIY                DATA
 0002:00000a80 00000004H .CRT$XIZ                DATA
 0002:00000a84 00000004H .CRT$XLA                DATA
 0002:00000a88 00000004H .CRT$XLZ                DATA
 0002:00000a90 0003c1d8H .rdata                  DATA
 0002:0003cc68 00000018H .rdata$T                DATA
 0002:0003cc80 00000041H .rdata$debug            DATA
 0002:0003ccd0 00000008H .rdata$sxdata           DATA
 0002:0003ccd8 00000004H .rtc$IAA                DATA
 0002:0003ccdc 00000004H .rtc$IZZ                DATA
 0002:0003cce0 00000004H .rtc$TAA                DATA
 0002:0003cce4 00000004H .rtc$TZZ                DATA
 0002:0003cce8 00000094H .xdata$x                DATA
 0002:0003cd7c 000000f0H .idata$2                DATA
 0002:0003ce6c 00000014H .idata$3                DATA
 0002:0003ce80 00000388H .idata$4                DATA
 0002:0003d208 00000d16H .idata$6                DATA
 0002:0003df1e 00000000H .edata                  DATA
 0003:00000000 00000280H .data                   DATA
 0003:00000280 00004984H .bss                    DATA
 0004:00000000 00000001H .tls                    DATA
 0004:00000004 0000007cH .stls                   DATA
 0004:00000080 00000054H .tls$                   DATA
 0004:000000d4 00000001H .tls$ZZZ                DATA

  Address         Publics by Value              Rva+Base       Lib:Object

 0000:00000000       __except_list              00000000     <absolute>
 0000:00000002       ___safe_se_handler_count   00000002     <absolute>
 0000:0000002c       __tls_array                0000002c     <absolute>
 0000:00009876       __fltused                  00009876     <absolute>
 0000:00009876       __ldused                   00009876     <absolute>
 0000:00000000       ___ImageBase               00400000     <linker-defined>
 0001:00000000       _IXACT3SoundBank_Destroy@4 00401000 f i stdneb.obj
 0001:00000020       _IXACT3SoundBank_GetCueIndex@8 00401020 f i stdneb.obj
 0001:00000040       _IXACT3SoundBank_GetNumCues@8 00401040 f i stdneb.obj
 0001:00000060       _IXACT3SoundBank_GetCueProperties@12 00401060 f i stdneb.obj
 0001:00000080       _IXACT3SoundBank_Prepare@20 00401080 f i stdneb.obj
 0001:000000b0       _IXACT3SoundBank_Play@20   004010b0 f i stdneb.obj
 0001:000000e0       _IXACT3SoundBank_Stop@12   004010e0 f i stdneb.obj
 0001:00000100       _IXACT3SoundBank_GetState@8 00401100 f i stdneb.obj
 0001:00000120       _IXACT3WaveBank_Destroy@4  00401120 f i stdneb.obj
 0001:00000140       _IXACT3WaveBank_GetNumWaves@8 00401140 f i stdneb.obj
 0001:00000160       _IXACT3WaveBank_GetWaveIndex@8 00401160 f i stdneb.obj
 0001:00000180       _IXACT3WaveBank_GetWaveProperties@12 00401180 f i stdneb.obj
 0001:000001a0       _IXACT3WaveBank_Prepare@24 004011a0 f i stdneb.obj
 0001:000001d0       _IXACT3WaveBank_Play@24    004011d0 f i stdneb.obj
 0001:00000200       _IXACT3WaveBank_Stop@12    00401200 f i stdneb.obj
 0001:00000220       _IXACT3WaveBank_GetState@8 00401220 f i stdneb.obj
 0001:00000240       _IXACT3Wave_Destroy@4      00401240 f i stdneb.obj
 0001:00000260       _IXACT3Wave_Play@4         00401260 f i stdneb.obj
 0001:00000280       _IXACT3Wave_Stop@8         00401280 f i stdneb.obj
 0001:000002a0       _IXACT3Wave_Pause@8        004012a0 f i stdneb.obj
 0001:000002c0       _IXACT3Wave_GetState@8     004012c0 f i stdneb.obj
 0001:000002e0       _IXACT3Wave_SetPitch@8     004012e0 f i stdneb.obj
 0001:00000300       _IXACT3Wave_SetVolume@8    00401300 f i stdneb.obj
 0001:00000320       _IXACT3Wave_SetMatrixCoefficients@16 00401320 f i stdneb.obj
 0001:00000350       _IXACT3Wave_GetProperties@8 00401350 f i stdneb.obj
 0001:00000370       _IXACT3Cue_Play@4          00401370 f i stdneb.obj
 0001:00000390       _IXACT3Cue_Stop@8          00401390 f i stdneb.obj
 0001:000003b0       _IXACT3Cue_GetState@8      004013b0 f i stdneb.obj
 0001:000003d0       _IXACT3Cue_Destroy@4       004013d0 f i stdneb.obj
 0001:000003f0       _IXACT3Cue_SetMatrixCoefficients@16 004013f0 f i stdneb.obj
 0001:00000420       _IXACT3Cue_GetVariableIndex@8 00401420 f i stdneb.obj
 0001:00000440       _IXACT3Cue_SetVariable@12  00401440 f i stdneb.obj
 0001:00000470       _IXACT3Cue_GetVariable@12  00401470 f i stdneb.obj
 0001:00000490       _IXACT3Cue_Pause@8         00401490 f i stdneb.obj
 0001:000004b0       _IXACT3Cue_GetProperties@8 004014b0 f i stdneb.obj
 0001:000004d0       _IXACT3Cue_SetOutputVoices@8 004014d0 f i stdneb.obj
 0001:000004f0       _IXACT3Cue_SetOutputVoiceMatrix@20 004014f0 f i stdneb.obj
 0001:00000520       _IXACT3Engine_AddRef@4     00401520 f i stdneb.obj
 0001:00000540       _IXACT3Engine_Release@4    00401540 f i stdneb.obj
 0001:00000560       _IXACT3Engine_GetRendererCount@8 00401560 f i stdneb.obj
 0001:00000580       _IXACT3Engine_GetRendererDetails@12 00401580 f i stdneb.obj
 0001:000005a0       _IXACT3Engine_GetFinalMixFormat@8 004015a0 f i stdneb.obj
 0001:000005c0       _IXACT3Engine_Initialize@8 004015c0 f i stdneb.obj
 0001:000005e0       _IXACT3Engine_ShutDown@4   004015e0 f i stdneb.obj
 0001:00000600       _IXACT3Engine_DoWork@4     00401600 f i stdneb.obj
 0001:00000620       _IXACT3Engine_CreateSoundBank@24 00401620 f i stdneb.obj
 0001:00000650       _IXACT3Engine_CreateInMemoryWaveBank@24 00401650 f i stdneb.obj
 0001:00000680       _IXACT3Engine_CreateStreamingWaveBank@12 00401680 f i stdneb.obj
 0001:000006a0       _IXACT3Engine_PrepareWave@32 004016a0 f i stdneb.obj
 0001:000006e0       _IXACT3Engine_PrepareInMemoryWave@52 004016e0 f i stdneb.obj
 0001:00000740       _IXACT3Engine_PrepareStreamingWave@68 00401740 f i stdneb.obj
 0001:000007c0       _IXACT3Engine_RegisterNotification@8 004017c0 f i stdneb.obj
 0001:000007e0       _IXACT3Engine_UnRegisterNotification@8 004017e0 f i stdneb.obj
 0001:00000800       _IXACT3Engine_GetCategory@8 00401800 f i stdneb.obj
 0001:00000820       _IXACT3Engine_Stop@12      00401820 f i stdneb.obj
 0001:00000840       _IXACT3Engine_SetVolume@12 00401840 f i stdneb.obj
 0001:00000870       _IXACT3Engine_Pause@12     00401870 f i stdneb.obj
 0001:00000890       _IXACT3Engine_GetGlobalVariableIndex@8 00401890 f i stdneb.obj
 0001:000008b0       _IXACT3Engine_SetGlobalVariable@12 004018b0 f i stdneb.obj
 0001:000008e0       _IXACT3Engine_GetGlobalVariable@12 004018e0 f i stdneb.obj
 0001:00000900       ?Increment@Win360Interlocked@Win360@@SAHACH@Z 00401900 f i inputtest.obj
 0001:00000920       ?Decrement@Win360Interlocked@Win360@@SAHACH@Z 00401920 f i inputtest.obj
 0001:00000940       ??2@YAPAXI@Z               00401940 f i inputtest.obj
 0001:00000960       ??3@YAXPAX@Z               00401960 f i inputtest.obj
 0001:00000980       ??_V@YAXPAX@Z              00401980 f i inputtest.obj
 0001:000009a0       ??3String@Util@@SAXPAX@Z   004019a0 f i inputtest.obj
 0001:000009c0       ?Delete@String@Util@@AAEXXZ 004019c0 f i inputtest.obj
 0001:00000a10       ??1String@Util@@QAE@XZ     00401a10 f i inputtest.obj
 0001:00000a60       ??0String@Util@@QAE@PBD@Z  00401a60 f i inputtest.obj
 0001:00000aa0       ?AddRef@RefCounted@Core@@QAEXXZ 00401aa0 f i inputtest.obj
 0001:00000ac0       ?Release@RefCounted@Core@@QAEXXZ 00401ac0 f i inputtest.obj
 0001:00000b10       ??0StringAtom@Util@@QAE@PBD@Z 00401b10 f i inputtest.obj
 0001:00000b40       ??4StringAtom@Util@@QAEXABV01@@Z 00401b40 f i inputtest.obj
 0001:00000b60       ?SetCompanyName@CoreServer@Core@@QAEXABVStringAtom@Util@@@Z 00401b60 f i inputtest.obj
 0001:00000b80       ?SetAppName@CoreServer@Core@@QAEXABVStringAtom@Util@@@Z 00401b80 f i inputtest.obj
 0001:00000ba0       ?IsConnected@GamePadBase@Base@@QBE_NXZ 00401ba0 f i inputtest.obj
 0001:00000be0       ?GetAxisValue@GamePadBase@Base@@QBEMW4Axis@12@@Z 00401be0 f i inputtest.obj
 0001:00000c30       _WinMain@16                00401c30 f   inputtest.obj
 0001:00000cc0       ??1CommandLineArgs@Util@@QAE@XZ 00401cc0 f i inputtest.obj
 0001:00000ce0       ?NebulaMain@@YAXABVCommandLineArgs@Util@@@Z 00401ce0 f   inputtest.obj
 0001:00000f00       ??1?$Array@VString@Util@@@Util@@QAE@XZ 00401f00 f i inputtest.obj
 0001:00000f20       ??A?$FixedArray@M@Util@@QBEAAMH@Z 00401f20 f i inputtest.obj
 0001:00000f70       ??0?$Ptr@VCoreServer@Core@@@@QAE@PAVCoreServer@Core@@@Z 00401f70 f i inputtest.obj
 0001:00000fb0       ??1?$Ptr@VCoreServer@Core@@@@QAE@XZ 00401fb0 f i inputtest.obj
 0001:00000ff0       ??C?$Ptr@VCoreServer@Core@@@@QBEPAVCoreServer@Core@@XZ 00401ff0 f i inputtest.obj
 0001:00001030       ??0?$Ptr@VInputServer@Input@@@@QAE@PAVInputServer@Input@@@Z 00402030 f i inputtest.obj
 0001:00001070       ??1?$Ptr@VInputServer@Input@@@@QAE@XZ 00402070 f i inputtest.obj
 0001:000010a0       ??4?$Ptr@VInputServer@Input@@@@QAEXPAVInputServer@Input@@@Z 004020a0 f i inputtest.obj
 0001:00001100       ??C?$Ptr@VInputServer@Input@@@@QBEPAVInputServer@Input@@XZ 00402100 f i inputtest.obj
 0001:00001140       ??1?$Ptr@VGamePad@Input@@@@QAE@XZ 00402140 f i inputtest.obj
 0001:00001170       ??C?$Ptr@VGamePad@Input@@@@QBEPAVGamePad@Input@@XZ 00402170 f i inputtest.obj
 0001:000011b0       ??_EString@Util@@QAEPAXI@Z 004021b0 f i inputtest.obj
 0001:000012c0       ??_H@YGXPAXIHP6EPAX0@Z@Z   004022c0 f i inputtest.obj
 0001:000012f0       ??_I@YGXPAXIHP6EX0@Z@Z     004022f0 f i inputtest.obj
 0001:00001320       ?Delete@?$Array@VString@Util@@@Util@@AAEXXZ 00402320 f i inputtest.obj
 0001:00001390       ??_E?$Ptr@VConsoleHandler@IO@@@@QAEPAXI@Z 00402390 f i inputtest.obj
 0001:00001430       ??1?$Ptr@VConsoleHandler@IO@@@@QAE@XZ 00402430 f i inputtest.obj
 0001:00001460       ??0String@Util@@QAE@XZ     00402460 f i foundation_win32.release:debug.obj
 0001:000014a0       ?AsCharPtr@String@Util@@QBEPBDXZ 004024a0 f i foundation_win32.release:debug.obj
 0001:000014d0       ?Instance@Console@IO@@SAPAV12@XZ 004024d0 f i foundation_win32.release:debug.obj
 0001:00001500       ?HasInstance@Console@IO@@SA_NXZ 00402500 f i foundation_win32.release:debug.obj
 0001:00001520       ?n_barf@@YAXPBD0H@Z        00402520 f   foundation_win32.release:debug.obj
 0001:000015c0       ?n_barf2@@YAXPBD00H@Z      004025c0 f   foundation_win32.release:debug.obj
 0001:00001660       ?n_error@@YAXPBDZZ         00402660 f   foundation_win32.release:debug.obj
 0001:00001720       ?n_warning@@YAXPBDZZ       00402720 f   foundation_win32.release:debug.obj
 0001:000017e0       ?n_confirm@@YAXPBDZZ       004027e0 f   foundation_win32.release:debug.obj
 0001:000018a0       ?n_printf@@YAXPBDZZ        004028a0 f   foundation_win32.release:debug.obj
 0001:000018f0       ?n_dbgout@@YAXPBDZZ        004028f0 f   foundation_win32.release:debug.obj
 0001:00001940       ?n_sleep@@YAXN@Z           00402940 f   foundation_win32.release:debug.obj
 0001:00001960       ?__HeapAlignPointerAndWritePadding16@Memory@@YAPAEPAE@Z 00402960 f i foundation_win32.release:win360memory.obj
 0001:00001990       ?__HeapUnalignPointer16@Memory@@YAPAEPAE@Z 00402990 f i foundation_win32.release:win360memory.obj
 0001:000019b0       ?__HeapAlloc16@Memory@@YAPAXPAXKK@Z 004029b0 f i foundation_win32.release:win360memory.obj
 0001:00001a00       ?__HeapReAlloc16@Memory@@YAPAXPAXK0K@Z 00402a00 f i foundation_win32.release:win360memory.obj
 0001:00001b20       ?__HeapFree16@Memory@@YAHPAXK0@Z 00402b20 f i foundation_win32.release:win360memory.obj
 0001:00001b60       ?Copy@Memory@@YAXPBXPAXI@Z 00402b60 f i foundation_win32.release:win360memory.obj
 0001:00001bd0       ?Alloc@Memory@@YAPAXW4HeapType@1@I@Z 00402bd0 f   foundation_win32.release:win360memory.obj
 0001:00001cc0       ?Realloc@Memory@@YAPAXW4HeapType@1@PAXI@Z 00402cc0 f   foundation_win32.release:win360memory.obj
 0001:00001e70       ?Free@Memory@@YAXW4HeapType@1@PAX@Z 00402e70 f   foundation_win32.release:win360memory.obj
 0001:00001f00       ?DuplicateCString@Memory@@YAPADPBD@Z 00402f00 f   foundation_win32.release:win360memory.obj
 0001:00001fe0       ?IsOverlapping@Memory@@YA_NPBEI0I@Z 00402fe0 f   foundation_win32.release:win360memory.obj
 0001:00002020       ?GetTotalMemoryStatus@Memory@@YA?AUTotalMemoryStatus@1@XZ 00403020 f   foundation_win32.release:win360memory.obj
 0001:00002090       ?DumpTotalMemoryStatus@Memory@@YAXXZ 00403090 f   foundation_win32.release:win360memory.obj
 0001:000020b0       ??_U@YAPAXI@Z              004030b0 f i foundation_win32.release:string.obj
 0001:000020d0       ??0float4@Math@@QAE@MMMM@Z 004030d0 f i foundation_win32.release:string.obj
 0001:00002120       ??0matrix44@Math@@QAE@ABVfloat4@1@000@Z 00403120 f i foundation_win32.release:string.obj
 0001:00002170       ?Alloc@String@Util@@AAEXH@Z 00403170 f i foundation_win32.release:string.obj
 0001:00002210       ?Realloc@String@Util@@AAEXH@Z 00403210 f i foundation_win32.release:string.obj
 0001:00002360       ?Reserve@String@Util@@QAEXH@Z 00403360 f i foundation_win32.release:string.obj
 0001:00002390       ??0String@Util@@QAE@ABV01@@Z 00403390 f i foundation_win32.release:string.obj
 0001:000023f0       ??4String@Util@@QAEXABV01@@Z 004033f0 f i foundation_win32.release:string.obj
 0001:00002430       ??4String@Util@@QAEXPBD@Z  00403430 f i foundation_win32.release:string.obj
 0001:00002450       ?Append@String@Util@@QAEXABV12@@Z 00403450 f i foundation_win32.release:string.obj
 0001:00002490       ??AString@Util@@QBEDH@Z    00403490 f i foundation_win32.release:string.obj
 0001:000024f0       ??AString@Util@@QAEAADH@Z  004034f0 f i foundation_win32.release:string.obj
 0001:00002550       ?Length@String@Util@@QBEHXZ 00403550 f i foundation_win32.release:string.obj
 0001:00002570       ?IsValid@String@Util@@QBE_NXZ 00403570 f i foundation_win32.release:string.obj
 0001:00002630       ?CopyToBuffer@String@Util@@QBE_NPADH@Z 00403630 f   foundation_win32.release:string.obj
 0001:000026e0       ?Format@String@Util@@QAAXPBDZZ 004036e0 f   foundation_win32.release:string.obj
 0001:00002770       ?FormatArgList@String@Util@@QAAXPBDPAD@Z 00403770 f   foundation_win32.release:string.obj
 0001:000027e0       ?Set@String@Util@@QAEXPBDH@Z 004037e0 f   foundation_win32.release:string.obj
 0001:00002a50       ?AppendRange@String@Util@@QAEXPBDH@Z 00403a50 f   foundation_win32.release:string.obj
 0001:00002c70       ?Tokenize@String@Util@@QBEHABV12@AAV?$Array@VString@Util@@@2@@Z 00403c70 f   foundation_win32.release:string.obj
 0001:00002da0       ?Tokenize@String@Util@@QBE?AV?$Array@VString@Util@@@2@ABV12@@Z 00403da0 f   foundation_win32.release:string.obj
 0001:00002de0       ?Tokenize@String@Util@@QBEHABV12@DAAV?$Array@VString@Util@@@2@@Z 00403de0 f   foundation_win32.release:string.obj
 0001:00003130       ?Tokenize@String@Util@@QBE?AV?$Array@VString@Util@@@2@ABV12@D@Z 00404130 f   foundation_win32.release:string.obj
 0001:00003180       ?ExtractRange@String@Util@@QBE?AV12@HH@Z 00404180 f   foundation_win32.release:string.obj
 0001:00003240       ?ExtractToEnd@String@Util@@QBE?AV12@H@Z 00404240 f   foundation_win32.release:string.obj
 0001:00003270       ?Strip@String@Util@@QAEXABV12@@Z 00404270 f   foundation_win32.release:string.obj
 0001:00003330       ?FindStringIndex@String@Util@@QBEHABV12@H@Z 00404330 f   foundation_win32.release:string.obj
 0001:00003420       ?FindCharIndex@String@Util@@QBEHDH@Z 00404420 f   foundation_win32.release:string.obj
 0001:000034d0       ?TrimLeft@String@Util@@QAEXABV12@@Z 004044d0 f   foundation_win32.release:string.obj
 0001:000036b0       ?TrimRight@String@Util@@QAEXABV12@@Z 004046b0 f   foundation_win32.release:string.obj
 0001:00003890       ?Trim@String@Util@@QAEXABV12@@Z 00404890 f   foundation_win32.release:string.obj
 0001:000038c0       ?SubstituteString@String@Util@@QAEXABV12@0@Z 004048c0 f   foundation_win32.release:string.obj
 0001:00003a10       ?ExtractLastDirName@String@Util@@QBE?AV12@XZ 00404a10 f   foundation_win32.release:string.obj
 0001:00003b40       ?ExtractDirName@String@Util@@QBE?AV12@XZ 00404b40 f   foundation_win32.release:string.obj
 0001:00003c30       ?MatchPattern@String@Util@@SA_NABV12@0@Z 00404c30 f   foundation_win32.release:string.obj
 0001:00003f40       ?ReplaceChars@String@Util@@QAEXABV12@D@Z 00404f40 f   foundation_win32.release:string.obj
 0001:00003ff0       ?AsMatrix44@String@Util@@QBE?AVmatrix44@Math@@XZ 00404ff0 f   foundation_win32.release:string.obj
 0001:00004440       ?Concatenate@String@Util@@SA?AV12@ABV?$Array@VString@Util@@@2@ABV12@@Z 00405440 f   foundation_win32.release:string.obj
 0001:00004540       ?SetCharPtr@String@Util@@QAEXPBD@Z 00405540 f   foundation_win32.release:string.obj
 0001:000045a0       ?Append@String@Util@@QAEXPBD@Z 004055a0 f   foundation_win32.release:string.obj
 0001:00004610       ?TerminateAtIndex@String@Util@@QAEXH@Z 00405610 f   foundation_win32.release:string.obj
 0001:000046a0       ?StripFileExtension@String@Util@@QAEXXZ 004056a0 f   foundation_win32.release:string.obj
 0001:00004740       ??8Util@@YA_NABVString@0@0@Z 00405740 f   foundation_win32.release:string.obj
 0001:000047f0       ??8Util@@YA_NABVString@0@PBD@Z 004057f0 f   foundation_win32.release:string.obj
 0001:000048a0       ??8Util@@YA_NPBDABVString@0@@Z 004058a0 f   foundation_win32.release:string.obj
 0001:00004950       ??9Util@@YA_NABVString@0@0@Z 00405950 f   foundation_win32.release:string.obj
 0001:00004a00       ??MUtil@@YA_NABVString@0@0@Z 00405a00 f   foundation_win32.release:string.obj
 0001:00004ab0       ??OUtil@@YA_NABVString@0@0@Z 00405ab0 f   foundation_win32.release:string.obj
 0001:00004b60       ??NUtil@@YA_NABVString@0@0@Z 00405b60 f   foundation_win32.release:string.obj
 0001:00004c10       ??PUtil@@YA_NABVString@0@0@Z 00405c10 f   foundation_win32.release:string.obj
 0001:00004cc0       ?ToLower@String@Util@@QAEXXZ 00405cc0 f   foundation_win32.release:string.obj
 0001:00004d20       ?ToUpper@String@Util@@QAEXXZ 00405d20 f   foundation_win32.release:string.obj
 0001:00004d80       ?FirstCharToUpper@String@Util@@QAEXXZ 00405d80 f   foundation_win32.release:string.obj
 0001:00004dc0       ?ContainsCharFromSet@String@Util@@QBE_NABV12@@Z 00405dc0 f   foundation_win32.release:string.obj
 0001:00004e30       ?GetFileExtension@String@Util@@QBE?AV12@XZ 00405e30 f   foundation_win32.release:string.obj
 0001:00004ef0       ?GetLastSlash@String@Util@@ABEPADXZ 00405ef0 f   foundation_win32.release:string.obj
 0001:00004f60       ?IsValidBool@String@Util@@QBE_NXZ 00405f60 f   foundation_win32.release:string.obj
 0001:00004fd0       ?AsInt@String@Util@@QBEHXZ 00405fd0 f   foundation_win32.release:string.obj
 0001:00005010       ?AsFloat@String@Util@@QBEMXZ 00406010 f   foundation_win32.release:string.obj
 0001:00005050       ?AsBool@String@Util@@QBE_NXZ 00406050 f   foundation_win32.release:string.obj
 0001:000050e0       ?IsDigit@String@Util@@SA_ND@Z 004060e0 f   foundation_win32.release:string.obj
 0001:00005100       ?IsAlpha@String@Util@@SA_ND@Z 00406100 f   foundation_win32.release:string.obj
 0001:00005120       ?IsAlNum@String@Util@@SA_ND@Z 00406120 f   foundation_win32.release:string.obj
 0001:00005140       ?IsLower@String@Util@@SA_ND@Z 00406140 f   foundation_win32.release:string.obj
 0001:00005160       ?IsUpper@String@Util@@SA_ND@Z 00406160 f   foundation_win32.release:string.obj
 0001:00005180       ?StrCmp@String@Util@@SAHPBD0@Z 00406180 f   foundation_win32.release:string.obj
 0001:00005210       ?StrLen@String@Util@@SAHPBD@Z 00406210 f   foundation_win32.release:string.obj
 0001:00005270       ?StrChr@String@Util@@SAPBDPBDH@Z 00406270 f   foundation_win32.release:string.obj
 0001:000052b0       ?ParseKeyValuePairs@String@Util@@SA?AV?$Dictionary@VString@Util@@V12@@2@ABV12@@Z 004062b0 f   foundation_win32.release:string.obj
 0001:000053b0       ??1?$Dictionary@VString@Util@@V12@@Util@@QAE@XZ 004063b0 f i foundation_win32.release:string.obj
 0001:000053d0       ?ChangeFileExtension@String@Util@@QAEXABV12@@Z 004063d0 f   foundation_win32.release:string.obj
 0001:000054b0       ??0?$Array@VString@Util@@@Util@@QAE@ABV01@@Z 004064b0 f i foundation_win32.release:string.obj
 0001:00005500       ??0?$Array@VString@Util@@@Util@@QAE@HH@Z 00406500 f i foundation_win32.release:string.obj
 0001:00005610       ??0?$Array@VString@Util@@@Util@@QAE@XZ 00406610 f i foundation_win32.release:string.obj
 0001:00005650       ??A?$Array@VString@Util@@@Util@@QBEAAVString@1@H@Z 00406650 f i foundation_win32.release:string.obj
 0001:000056a0       ?Append@?$Array@VString@Util@@@Util@@QAEXABVString@2@@Z 004066a0 f i foundation_win32.release:string.obj
 0001:00005740       ?Size@?$Array@VString@Util@@@Util@@QBEHXZ 00406740 f i foundation_win32.release:string.obj
 0001:00005760       ?Clear@?$Array@VString@Util@@@Util@@QAEXXZ 00406760 f i foundation_win32.release:string.obj
 0001:000057b0       ??1?$Array@V?$KeyValuePair@VString@Util@@V12@@Util@@@Util@@QAE@XZ 004067b0 f i foundation_win32.release:string.obj
 0001:000057d0       ??0?$Dictionary@VString@Util@@V12@@Util@@QAE@ABV01@@Z 004067d0 f i foundation_win32.release:string.obj
 0001:00005820       ??0?$Dictionary@VString@Util@@V12@@Util@@QAE@XZ 00406820 f i foundation_win32.release:string.obj
 0001:00005840       ?Add@?$Dictionary@VString@Util@@V12@@Util@@QAEXABVString@2@0@Z 00406840 f i foundation_win32.release:string.obj
 0001:00005890       ??1?$KeyValuePair@VString@Util@@V12@@Util@@QAE@XZ 00406890 f i foundation_win32.release:string.obj
 0001:00005920       ?Destroy@?$Array@VString@Util@@@Util@@AAEXPAVString@2@@Z 00406920 f i foundation_win32.release:string.obj
 0001:00005940       ?Copy@?$Array@VString@Util@@@Util@@AAEXABV12@@Z 00406940 f i foundation_win32.release:string.obj
 0001:00005ac0       ?Grow@?$Array@VString@Util@@@Util@@AAEXXZ 00406ac0 f i foundation_win32.release:string.obj
 0001:00005b40       ??0?$Array@V?$KeyValuePair@VString@Util@@V12@@Util@@@Util@@QAE@ABV01@@Z 00406b40 f i foundation_win32.release:string.obj
 0001:00005b90       ??0?$Array@V?$KeyValuePair@VString@Util@@V12@@Util@@@Util@@QAE@XZ 00406b90 f i foundation_win32.release:string.obj
 0001:00005bd0       ?Append@?$Array@V?$KeyValuePair@VString@Util@@V12@@Util@@@Util@@QAEXABV?$KeyValuePair@VString@Util@@V12@@2@@Z 00406bd0 f i foundation_win32.release:string.obj
 0001:00005c50       ?InsertSorted@?$Array@V?$KeyValuePair@VString@Util@@V12@@Util@@@Util@@QAEHABV?$KeyValuePair@VString@Util@@V12@@2@@Z 00406c50 f i foundation_win32.release:string.obj
 0001:00005ec0       ?Delete@?$Array@V?$KeyValuePair@VString@Util@@V12@@Util@@@Util@@AAEXXZ 00406ec0 f i foundation_win32.release:string.obj
 0001:00005f30       ??0?$KeyValuePair@VString@Util@@V12@@Util@@QAE@ABVString@1@0@Z 00406f30 f i foundation_win32.release:string.obj
 0001:00005ff0       ??_GString@Util@@QAEPAXI@Z 00406ff0 f i foundation_win32.release:string.obj
 0001:00006060       ??_E?$KeyValuePair@VString@Util@@V12@@Util@@QAEPAXI@Z 00407060 f i foundation_win32.release:string.obj
 0001:00006100       ?GrowTo@?$Array@VString@Util@@@Util@@AAEXH@Z 00407100 f i foundation_win32.release:string.obj
 0001:00006270       ?Size@?$Array@V?$KeyValuePair@VString@Util@@V12@@Util@@@Util@@QBEHXZ 00407270 f i foundation_win32.release:string.obj
 0001:00006290       ?Insert@?$Array@V?$KeyValuePair@VString@Util@@V12@@Util@@@Util@@QAEXHABV?$KeyValuePair@VString@Util@@V12@@2@@Z 00407290 f i foundation_win32.release:string.obj
 0001:00006300       ?InsertAtEndOfIdenticalRange@?$Array@V?$KeyValuePair@VString@Util@@V12@@Util@@@Util@@QAEHHABV?$KeyValuePair@VString@Util@@V12@@2@@Z 00407300 f i foundation_win32.release:string.obj
 0001:00006380       ?Copy@?$Array@V?$KeyValuePair@VString@Util@@V12@@Util@@@Util@@AAEXABV12@@Z 00407380 f i foundation_win32.release:string.obj
 0001:000064b0       ?Grow@?$Array@V?$KeyValuePair@VString@Util@@V12@@Util@@@Util@@AAEXXZ 004074b0 f i foundation_win32.release:string.obj
 0001:00006530       ??4?$KeyValuePair@VString@Util@@V12@@Util@@QAEXABV01@@Z 00407530 f i foundation_win32.release:string.obj
 0001:000065c0       ??O?$KeyValuePair@VString@Util@@V12@@Util@@QBE_NABV01@@Z 004075c0 f i foundation_win32.release:string.obj
 0001:000065e0       ??M?$KeyValuePair@VString@Util@@V12@@Util@@QBE_NABV01@@Z 004075e0 f i foundation_win32.release:string.obj
 0001:00006600       ?GrowTo@?$Array@V?$KeyValuePair@VString@Util@@V12@@Util@@@Util@@AAEXH@Z 00407600 f i foundation_win32.release:string.obj
 0001:00006720       ?Move@?$Array@V?$KeyValuePair@VString@Util@@V12@@Util@@@Util@@AAEXHH@Z 00407720 f i foundation_win32.release:string.obj
 0001:000068b0       ??0?$KeyValuePair@VString@Util@@V12@@Util@@QAE@XZ 004078b0 f i foundation_win32.release:string.obj
 0001:00006920       ??9?$KeyValuePair@VString@Util@@V12@@Util@@QBE_NABV01@@Z 00407920 f i foundation_win32.release:string.obj
 0001:00006940       ?Destroy@?$Array@V?$KeyValuePair@VString@Util@@V12@@Util@@@Util@@AAEXPAV?$KeyValuePair@VString@Util@@V12@@2@@Z 00407940 f i foundation_win32.release:string.obj
 0001:00006970       ??_G?$KeyValuePair@VString@Util@@V12@@Util@@QAEPAXI@Z 00407970 f i foundation_win32.release:string.obj
 0001:000069a0       ?strrchr@@YAPADPADH@Z      004079a0 f i foundation_win32.release:string.obj
 0001:000069c0       ?strpbrk@@YAPADPADPBD@Z    004079c0 f i foundation_win32.release:string.obj
 0001:000069e0       ?strchr@@YAPADPADH@Z       004079e0 f i foundation_win32.release:string.obj
 0001:00006ab0       ?StringCchVPrintfA@@YGJPADIPBD0@Z 00407ab0 f i foundation_win32.release:string.obj
 0001:00006cd0       ?StringCchCopyA@@YGJPADIPBD@Z 00407cd0 f i foundation_win32.release:string.obj
 0001:00006d20       ??0_XMMATRIX@@QAE@XZ       00407d20 f i foundation_win32.release:string.obj
 0001:00006d30       ?XMVectorSet@@YA?AT__m128@@MMMM@Z 00407d30 f i foundation_win32.release:string.obj
 0001:00006d70       ?Instance@LocalStringAtomTable@Util@@SAPAV12@XZ 00407d70 f i foundation_win32.release:stringatom.obj
 0001:00006db0       ?Instance@GlobalStringAtomTable@Util@@SAPAV12@XZ 00407db0 f i foundation_win32.release:stringatom.obj
 0001:00006de0       ?Setup@StringAtom@Util@@AAEXPBD@Z 00407de0 f   foundation_win32.release:stringatom.obj
 0001:00006eb0       ??8StringAtom@Util@@QBE_NPBD@Z 00407eb0 f   foundation_win32.release:stringatom.obj
 0001:00006f30       ??9StringAtom@Util@@QBE_NPBD@Z 00407f30 f   foundation_win32.release:stringatom.obj
 0001:00006fb0       ??0FourCC@Util@@QAE@I@Z    00407fb0 f i foundation_win32.release:win360thread.obj
 0001:00006fd0       ??3RefCounted@Core@@SAXPAX@Z 00407fd0 f i foundation_win32.release:win360thread.obj
 0001:00006ff0       ??0RefCounted@Core@@QAE@XZ 00407ff0 f i foundation_win32.release:win360thread.obj
 0001:00007020       ??_GRefCounted@Core@@MAEPAXI@Z 00408020 f i foundation_win32.release:win360thread.obj
 0001:00007020       ??_ERefCounted@Core@@MAEPAXI@Z 00408020 f i  CIL library: CIL module
 0001:00007050       ??0Win360Event@Win360@@QAE@_N@Z 00408050 f i foundation_win32.release:win360thread.obj
 0001:000070a0       ??1Win360Event@Win360@@QAE@XZ 004080a0 f i foundation_win32.release:win360thread.obj
 0001:000070c0       ?Signal@Win360Event@Win360@@QAEXXZ 004080c0 f i foundation_win32.release:win360thread.obj
 0001:000070e0       ?Wait@Win360Event@Win360@@QBEXXZ 004080e0 f i foundation_win32.release:win360thread.obj
 0001:00007100       ??2Win360Thread@Win360@@SAPAXI@Z 00408100 f i foundation_win32.release:win360thread.obj
 0001:00007110       ??3Win360Thread@Win360@@SAXPAX@Z 00408110 f i foundation_win32.release:win360thread.obj
 0001:00007130       ?GetName@Win360Thread@Win360@@QBEABVString@Util@@XZ 00408130 f i foundation_win32.release:win360thread.obj
 0001:00007150       ??1Rtti@Core@@QAE@XZ       00408150 f i foundation_win32.release:win360thread.obj
 0001:000071a0       ?GetRtti@Win360Thread@Win360@@UBEPAVRtti@Core@@XZ 004081a0 f   foundation_win32.release:win360thread.obj
 0001:000071b0       ?FactoryCreator@Win360Thread@Win360@@SAPAVRefCounted@Core@@XZ 004081b0 f   foundation_win32.release:win360thread.obj
 0001:000071c0       ?Create@Win360Thread@Win360@@SAPAV12@XZ 004081c0 f   foundation_win32.release:win360thread.obj
 0001:00007200       ?RegisterWithFactory@Win360Thread@Win360@@SA_NXZ 00408200 f   foundation_win32.release:win360thread.obj
 0001:00007300       ??0Win360Thread@Win360@@QAE@XZ 00408300 f   foundation_win32.release:win360thread.obj
 0001:00007400       ??_EWin360Thread@Win360@@UAEPAXI@Z 00408400 f i  CIL library: CIL module
 0001:00007400       ??_GWin360Thread@Win360@@UAEPAXI@Z 00408400 f i foundation_win32.release:win360thread.obj
 0001:00007430       ??1Win360Thread@Win360@@UAE@XZ 00408430 f   foundation_win32.release:win360thread.obj
 0001:000074f0       ?Start@Win360Thread@Win360@@QAEXXZ 004084f0 f   foundation_win32.release:win360thread.obj
 0001:000075f0       ?EmitWakeupSignal@Win360Thread@Win360@@MAEXXZ 004085f0 f   foundation_win32.release:win360thread.obj
 0001:00007600       ?Stop@Win360Thread@Win360@@QAEXXZ 00408600 f   foundation_win32.release:win360thread.obj
 0001:000076a0       ?IsRunning@Win360Thread@Win360@@QBE_NXZ 004086a0 f   foundation_win32.release:win360thread.obj
 0001:000076f0       ?DoWork@Win360Thread@Win360@@MAEXXZ 004086f0 f   foundation_win32.release:win360thread.obj
 0001:00007700       ?ThreadProc@Win360Thread@Win360@@CGKPAX@Z 00408700 f   foundation_win32.release:win360thread.obj
 0001:000077a0       ?SetMyThreadName@Win360Thread@Win360@@SAXPBD@Z 004087a0 f   foundation_win32.release:win360thread.obj
 0001:00007840       ?GetMyThreadName@Win360Thread@Win360@@SAPBDXZ 00408840 f   foundation_win32.release:win360thread.obj
 0001:00007860       ?GetMyThreadId@Win360Thread@Win360@@SAKXZ 00408860 f   foundation_win32.release:win360thread.obj
 0001:00007870       ?YieldThread@Win360Thread@Win360@@SAXXZ 00408870 f   foundation_win32.release:win360thread.obj
 0001:00007880       ?AsFloat4@String@Util@@QBE?AVfloat4@Math@@XZ 00408880 f i foundation_win32.release:commandlineargs.obj
 0001:00007a00       ??0CommandLineArgs@Util@@QAE@XZ 00408a00 f   foundation_win32.release:commandlineargs.obj
 0001:00007a20       ??0CommandLineArgs@Util@@QAE@ABVString@1@@Z 00408a20 f   foundation_win32.release:commandlineargs.obj
 0001:00007ab0       ??0CommandLineArgs@Util@@QAE@HPAPBD@Z 00408ab0 f   foundation_win32.release:commandlineargs.obj
 0001:00007b50       ?Error@CommandLineArgs@Util@@ABEXABVString@2@@Z 00408b50 f   foundation_win32.release:commandlineargs.obj
 0001:00007b90       ?GetCmdName@CommandLineArgs@Util@@QBEABVString@2@XZ 00408b90 f   foundation_win32.release:commandlineargs.obj
 0001:00007bd0       ?HasArg@CommandLineArgs@Util@@QBE_NABVString@2@@Z 00408bd0 f   foundation_win32.release:commandlineargs.obj
 0001:00007c00       ?FindArgIndex@CommandLineArgs@Util@@ABEHABVString@2@@Z 00408c00 f   foundation_win32.release:commandlineargs.obj
 0001:00007c60       ?GetString@CommandLineArgs@Util@@QBEABVString@2@ABV32@0@Z 00408c60 f   foundation_win32.release:commandlineargs.obj
 0001:00007ca0       ?GetInt@CommandLineArgs@Util@@QBEHABVString@2@H@Z 00408ca0 f   foundation_win32.release:commandlineargs.obj
 0001:00007cf0       ?GetFloat@CommandLineArgs@Util@@QBEMABVString@2@M@Z 00408cf0 f   foundation_win32.release:commandlineargs.obj
 0001:00007d40       ?GetBool@CommandLineArgs@Util@@QBE_NABVString@2@_N@Z 00408d40 f   foundation_win32.release:commandlineargs.obj
 0001:00007d90       ?GetBoolFlag@CommandLineArgs@Util@@QBE_NABVString@2@@Z 00408d90 f   foundation_win32.release:commandlineargs.obj
 0001:00007db0       ?GetFloat4@CommandLineArgs@Util@@QBE?AVfloat4@Math@@ABVString@2@ABV34@@Z 00408db0 f   foundation_win32.release:commandlineargs.obj
 0001:00007e20       ?GetMatrix44@CommandLineArgs@Util@@QBE?AVmatrix44@Math@@ABVString@2@ABV34@@Z 00408e20 f   foundation_win32.release:commandlineargs.obj
 0001:00007e80       ?GetNumArgs@CommandLineArgs@Util@@QBEHXZ 00408e80 f   foundation_win32.release:commandlineargs.obj
 0001:00007ec0       ?GetStringAtIndex@CommandLineArgs@Util@@QBEABVString@2@H@Z 00408ec0 f   foundation_win32.release:commandlineargs.obj
 0001:00007ee0       ?GetIntAtIndex@CommandLineArgs@Util@@QBEHH@Z 00408ee0 f   foundation_win32.release:commandlineargs.obj
 0001:00007f10       ?GetFloatAtIndex@CommandLineArgs@Util@@QBEMH@Z 00408f10 f   foundation_win32.release:commandlineargs.obj
 0001:00007f40       ?GetBoolAtIndex@CommandLineArgs@Util@@QBE_NH@Z 00408f40 f   foundation_win32.release:commandlineargs.obj
 0001:00007f70       ?GetFloat4AtIndex@CommandLineArgs@Util@@QBE?AVfloat4@Math@@H@Z 00408f70 f   foundation_win32.release:commandlineargs.obj
 0001:00007fa0       ?GetMatrix44AtIndex@CommandLineArgs@Util@@QBE?AVmatrix44@Math@@H@Z 00408fa0 f   foundation_win32.release:commandlineargs.obj
 0001:00007fd0       ?AppendCommandString@CommandLineArgs@Util@@QAEXABV12@@Z 00408fd0 f   foundation_win32.release:commandlineargs.obj
 0001:00008020       ??4?$Array@VString@Util@@@Util@@QAEXABV01@@Z 00409020 f i foundation_win32.release:commandlineargs.obj
 0001:00008150       ?FindIndex@?$Array@VString@Util@@@Util@@QBEHABVString@2@@Z 00409150 f i foundation_win32.release:commandlineargs.obj
 0001:000081b0       ??2CoreServer@Core@@SAPAXI@Z 004091b0 f i foundation_win32.release:coreserver.obj
 0001:000081c0       ??3CoreServer@Core@@SAXPAX@Z 004091c0 f i foundation_win32.release:coreserver.obj
 0001:000081e0       ?IsOpen@CoreServer@Core@@QBE_NXZ 004091e0 f i foundation_win32.release:coreserver.obj
 0001:00008200       ?GetRtti@CoreServer@Core@@UBEPAVRtti@2@XZ 00409200 f   foundation_win32.release:coreserver.obj
 0001:00008210       ?FactoryCreator@CoreServer@Core@@SAPAVRefCounted@2@XZ 00409210 f   foundation_win32.release:coreserver.obj
 0001:00008220       ?Create@CoreServer@Core@@SAPAV12@XZ 00409220 f   foundation_win32.release:coreserver.obj
 0001:00008260       ?RegisterWithFactory@CoreServer@Core@@SA_NXZ 00409260 f   foundation_win32.release:coreserver.obj
 0001:00008360       ??0CoreServer@Core@@QAE@XZ 00409360 f   foundation_win32.release:coreserver.obj
 0001:00008450       ??_GCoreServer@Core@@UAEPAXI@Z 00409450 f i foundation_win32.release:coreserver.obj
 0001:00008450       ??_ECoreServer@Core@@UAEPAXI@Z 00409450 f i  CIL library: CIL module
 0001:00008480       ??1CoreServer@Core@@UAE@XZ 00409480 f   foundation_win32.release:coreserver.obj
 0001:00008500       ?Open@CoreServer@Core@@QAEXXZ 00409500 f   foundation_win32.release:coreserver.obj
 0001:00008560       ?Close@CoreServer@Core@@QAEXXZ 00409560 f   foundation_win32.release:coreserver.obj
 0001:000085b0       ?Trigger@CoreServer@Core@@QAEXXZ 004095b0 f   foundation_win32.release:coreserver.obj
 0001:000085d0       ??0?$Ptr@VConsole@IO@@@@QAE@XZ 004095d0 f i foundation_win32.release:coreserver.obj
 0001:000085f0       ??1?$Ptr@VConsole@IO@@@@QAE@XZ 004095f0 f i foundation_win32.release:coreserver.obj
 0001:00008620       ??4?$Ptr@VConsole@IO@@@@QAEXPAVConsole@IO@@@Z 00409620 f i foundation_win32.release:coreserver.obj
 0001:00008680       ??C?$Ptr@VConsole@IO@@@@QBEPAVConsole@IO@@XZ 00409680 f i foundation_win32.release:coreserver.obj
 0001:000086c0       ?WaiterPlus@Win360CriticalSection@Win360@@ABEXXZ 004096c0 f i foundation_win32.release:console.obj
 0001:000086e0       ?WaiterMinus@Win360CriticalSection@Win360@@ABEXXZ 004096e0 f i foundation_win32.release:console.obj
 0001:00008700       ?PerfLockImmediate@Win360CriticalSection@Win360@@ABE_NK@Z 00409700 f i foundation_win32.release:console.obj
 0001:00008730       ?Enter@Win360CriticalSection@Win360@@QBEXXZ 00409730 f i foundation_win32.release:console.obj
 0001:000087a0       ?AllocateKernelSemaphore@Win360CriticalSection@Win360@@ABEXXZ 004097a0 f i foundation_win32.release:console.obj
 0001:00008810       ?PerfLock@Win360CriticalSection@Win360@@ABE_NK@Z 00409810 f i foundation_win32.release:console.obj
 0001:00008890       ?PerfLockKernel@Win360CriticalSection@Win360@@ABE_NK@Z 00409890 f i foundation_win32.release:console.obj
 0001:00008930       ?Leave@Win360CriticalSection@Win360@@QBEXXZ 00409930 f i foundation_win32.release:console.obj
 0001:00008960       ?PerfUnlock@Win360CriticalSection@Win360@@ABEXXZ 00409960 f i foundation_win32.release:console.obj
 0001:000089a0       ??2Console@IO@@SAPAXI@Z    004099a0 f i foundation_win32.release:console.obj
 0001:000089b0       ??3Console@IO@@SAXPAX@Z    004099b0 f i foundation_win32.release:console.obj
 0001:000089d0       ?IsOpen@Console@IO@@QBE_NXZ 004099d0 f i foundation_win32.release:console.obj
 0001:000089f0       ?GetRtti@Console@IO@@UBEPAVRtti@Core@@XZ 004099f0 f   foundation_win32.release:console.obj
 0001:00008a00       ?FactoryCreator@Console@IO@@SAPAVRefCounted@Core@@XZ 00409a00 f   foundation_win32.release:console.obj
 0001:00008a10       ?Create@Console@IO@@SAPAV12@XZ 00409a10 f   foundation_win32.release:console.obj
 0001:00008a50       ?RegisterWithFactory@Console@IO@@SA_NXZ 00409a50 f   foundation_win32.release:console.obj
 0001:00008b50       ??0Console@IO@@QAE@XZ      00409b50 f   foundation_win32.release:console.obj
 0001:00008bd0       ??_EConsole@IO@@UAEPAXI@Z  00409bd0 f i  CIL library: CIL module
 0001:00008bd0       ??_GConsole@IO@@UAEPAXI@Z  00409bd0 f i foundation_win32.release:console.obj
 0001:00008c00       ??0CriticalSection@Threading@@QAE@XZ 00409c00 f i foundation_win32.release:console.obj
 0001:00008c20       ??1CriticalSection@Threading@@QAE@XZ 00409c20 f i foundation_win32.release:console.obj
 0001:00008c40       ??1Console@IO@@UAE@XZ      00409c40 f   foundation_win32.release:console.obj
 0001:00008cf0       ?Open@Console@IO@@QAEXXZ   00409cf0 f   foundation_win32.release:console.obj
 0001:00008d80       ?Close@Console@IO@@QAEXXZ  00409d80 f   foundation_win32.release:console.obj
 0001:00008e20       ?Update@Console@IO@@QAEXXZ 00409e20 f   foundation_win32.release:console.obj
 0001:00008ed0       ?AttachHandler@Console@IO@@QAEXABV?$Ptr@VConsoleHandler@IO@@@@@Z 00409ed0 f   foundation_win32.release:console.obj
 0001:00008f60       ?RemoveHandler@Console@IO@@QAEXABV?$Ptr@VConsoleHandler@IO@@@@@Z 00409f60 f   foundation_win32.release:console.obj
 0001:00009030       ?HasInput@Console@IO@@QBE_NXZ 0040a030 f   foundation_win32.release:console.obj
 0001:00009100       ?GetInput@Console@IO@@QBE?AVString@Util@@XZ 0040a100 f   foundation_win32.release:console.obj
 0001:00009290       ?Print@Console@IO@@QAAXPBDZZ 0040a290 f   foundation_win32.release:console.obj
 0001:000092f0       ?Print@Console@IO@@QAAXPBDPAD@Z 0040a2f0 f   foundation_win32.release:console.obj
 0001:000093e0       ?Print@Console@IO@@QAEXABVString@Util@@@Z 0040a3e0 f   foundation_win32.release:console.obj
 0001:000094a0       ?Error@Console@IO@@QAAXPBDZZ 0040a4a0 f   foundation_win32.release:console.obj
 0001:00009500       ?Error@Console@IO@@QAAXPBDPAD@Z 0040a500 f   foundation_win32.release:console.obj
 0001:000095f0       ?DebugOut@Console@IO@@QAAXPBDZZ 0040a5f0 f   foundation_win32.release:console.obj
 0001:00009650       ?DebugOut@Console@IO@@QAAXPBDPAD@Z 0040a650 f   foundation_win32.release:console.obj
 0001:00009740       ?Warning@Console@IO@@QAAXPBDZZ 0040a740 f   foundation_win32.release:console.obj
 0001:000097a0       ?Warning@Console@IO@@QAAXPBDPAD@Z 0040a7a0 f   foundation_win32.release:console.obj
 0001:00009890       ?Confirm@Console@IO@@QAAXPBDZZ 0040a890 f   foundation_win32.release:console.obj
 0001:000098f0       ?Confirm@Console@IO@@QAAXPBDPAD@Z 0040a8f0 f   foundation_win32.release:console.obj
 0001:000099e0       ??0?$Array@V?$Ptr@VConsoleHandler@IO@@@@@Util@@QAE@XZ 0040a9e0 f i foundation_win32.release:console.obj
 0001:00009a20       ??1?$Array@V?$Ptr@VConsoleHandler@IO@@@@@Util@@QAE@XZ 0040aa20 f i foundation_win32.release:console.obj
 0001:00009a40       ??A?$Array@V?$Ptr@VConsoleHandler@IO@@@@@Util@@QBEAAV?$Ptr@VConsoleHandler@IO@@@@H@Z 0040aa40 f i foundation_win32.release:console.obj
 0001:00009a90       ?Size@?$Array@V?$Ptr@VConsoleHandler@IO@@@@@Util@@QBEHXZ 0040aa90 f i foundation_win32.release:console.obj
 0001:00009ab0       ?EraseIndex@?$Array@V?$Ptr@VConsoleHandler@IO@@@@@Util@@QAEXH@Z 0040aab0 f i foundation_win32.release:console.obj
 0001:00009b30       ?Insert@?$Array@V?$Ptr@VConsoleHandler@IO@@@@@Util@@QAEXHABV?$Ptr@VConsoleHandler@IO@@@@@Z 0040ab30 f i foundation_win32.release:console.obj
 0001:00009ba0       ?FindIndex@?$Array@V?$Ptr@VConsoleHandler@IO@@@@@Util@@QBEHABV?$Ptr@VConsoleHandler@IO@@@@@Z 0040aba0 f i foundation_win32.release:console.obj
 0001:00009c00       ??0?$Ptr@VConsoleHandler@IO@@@@QAE@PAVConsoleHandler@IO@@@Z 0040ac00 f i foundation_win32.release:console.obj
 0001:00009c40       ??C?$Ptr@VConsoleHandler@IO@@@@QBEPAVConsoleHandler@IO@@XZ 0040ac40 f i foundation_win32.release:console.obj
 0001:00009c80       ?isvalid@?$Ptr@VConsoleHandler@IO@@@@QBE_NXZ 0040ac80 f i foundation_win32.release:console.obj
 0001:00009ca0       ?Append@?$Array@V?$Ptr@VConsoleHandler@IO@@@@@Util@@QAEXABV?$Ptr@VConsoleHandler@IO@@@@@Z 0040aca0 f i foundation_win32.release:console.obj
 0001:00009d20       ?Destroy@?$Array@V?$Ptr@VConsoleHandler@IO@@@@@Util@@AAEXPAV?$Ptr@VConsoleHandler@IO@@@@@Z 0040ad20 f i foundation_win32.release:console.obj
 0001:00009d50       ?Delete@?$Array@V?$Ptr@VConsoleHandler@IO@@@@@Util@@AAEXXZ 0040ad50 f i foundation_win32.release:console.obj
 0001:00009dc0       ?Move@?$Array@V?$Ptr@VConsoleHandler@IO@@@@@Util@@AAEXHH@Z 0040adc0 f i foundation_win32.release:console.obj
 0001:00009f50       ??4?$Ptr@VConsoleHandler@IO@@@@QAEXABV0@@Z 0040af50 f i foundation_win32.release:console.obj
 0001:00009fb0       ??8?$Ptr@VConsoleHandler@IO@@@@QBE_NABV0@@Z 0040afb0 f i foundation_win32.release:console.obj
 0001:00009fd0       ??_G?$Ptr@VConsoleHandler@IO@@@@QAEPAXI@Z 0040afd0 f i foundation_win32.release:console.obj
 0001:0000a000       ?Grow@?$Array@V?$Ptr@VConsoleHandler@IO@@@@@Util@@AAEXXZ 0040b000 f i foundation_win32.release:console.obj
 0001:0000a080       ??0?$Ptr@VConsoleHandler@IO@@@@QAE@XZ 0040b080 f i foundation_win32.release:console.obj
 0001:0000a0a0       ?GrowTo@?$Array@V?$Ptr@VConsoleHandler@IO@@@@@Util@@AAEXH@Z 0040b0a0 f i foundation_win32.release:console.obj
 0001:0000a1c0       ___InlineInterlockedCompareExchangePointer 0040b1c0 f i foundation_win32.release:console.obj
 0001:0000a1e0       ?Setup@Blob@Util@@SAXXZ    0040b1e0 f i foundation_win32.release:win32sysfunc.obj
 0001:0000a250       ?Shutdown@Blob@Util@@SAXXZ 0040b250 f i foundation_win32.release:win32sysfunc.obj
 0001:0000a2d0       ??_GWin360Heap@Win360@@QAEPAXI@Z 0040b2d0 f i foundation_win32.release:win32sysfunc.obj
 0001:0000a300       ??0SystemInfo@System@@QAE@XZ 0040b300 f i foundation_win32.release:win32sysfunc.obj
 0001:0000a320       ?Setup@SysFunc@Win32@@SAXXZ 0040b320 f   foundation_win32.release:win32sysfunc.obj
 0001:0000a3e0       ?Exit@SysFunc@Win32@@SAXH@Z 0040b3e0 f   foundation_win32.release:win32sysfunc.obj
 0001:0000a4c0       ??_GGlobalStringAtomTable@Util@@QAEPAXI@Z 0040b4c0 f i foundation_win32.release:win32sysfunc.obj
 0001:0000a4f0       ??_GLocalStringAtomTable@Util@@QAEPAXI@Z 0040b4f0 f i foundation_win32.release:win32sysfunc.obj
 0001:0000a520       ?Error@SysFunc@Win32@@SAXPBD@Z 0040b520 f   foundation_win32.release:win32sysfunc.obj
 0001:0000a550       ?MessageBoxA@SysFunc@Win32@@SAXPBD@Z 0040b550 f   foundation_win32.release:win32sysfunc.obj
 0001:0000a590       ?Sleep@SysFunc@Win32@@SAXN@Z 0040b590 f   foundation_win32.release:win32sysfunc.obj
 0001:0000a5c0       ?DebugOut@SysFunc@Win32@@SAXPBD@Z 0040b5c0 f   foundation_win32.release:win32sysfunc.obj
 0001:0000a5d0       ?RegisterExitHandler@SysFunc@Win32@@CAPBVExitHandler@Core@@PBV34@@Z 0040b5d0 f   foundation_win32.release:win32sysfunc.obj
 0001:0000a5f0       ?GetSystemInfo@SysFunc@Win32@@SAPBVSystemInfo@System@@XZ 0040b5f0 f   foundation_win32.release:win32sysfunc.obj
 0001:0000a600       ?XMVerifyCPUSupport@@YAHXZ 0040b600 f i foundation_win32.release:win32sysfunc.obj
 0001:0000a640       ?SetupHeaps@Memory@@YAXXZ  0040b640 f   foundation_win32.release:win360memoryconfig.obj
 0001:0000a7a0       ?GetHeapTypeName@Memory@@YAPBDW4HeapType@1@@Z 0040b7a0 f   foundation_win32.release:win360memoryconfig.obj
 0001:0000a860       ??0LocalStringAtomTable@Util@@QAE@XZ 0040b860 f   foundation_win32.release:localstringatomtable.obj
 0001:0000a8b0       ??1LocalStringAtomTable@Util@@QAE@XZ 0040b8b0 f   foundation_win32.release:localstringatomtable.obj
 0001:0000a900       ?Add@LocalStringAtomTable@Util@@AAEXPBD@Z 0040b900 f   foundation_win32.release:localstringatomtable.obj
 0001:0000a930       ?InsertSorted@?$Array@UStaticString@StringAtomTableBase@Util@@@Util@@QAEHABUStaticString@StringAtomTableBase@2@@Z 0040b930 f i foundation_win32.release:localstringatomtable.obj
 0001:0000aba0       ?Append@?$Array@UStaticString@StringAtomTableBase@Util@@@Util@@QAEXABUStaticString@StringAtomTableBase@2@@Z 0040bba0 f i foundation_win32.release:localstringatomtable.obj
 0001:0000ac10       ?Size@?$Array@UStaticString@StringAtomTableBase@Util@@@Util@@QBEHXZ 0040bc10 f i foundation_win32.release:localstringatomtable.obj
 0001:0000ac30       ?Insert@?$Array@UStaticString@StringAtomTableBase@Util@@@Util@@QAEXHABUStaticString@StringAtomTableBase@2@@Z 0040bc30 f i foundation_win32.release:localstringatomtable.obj
 0001:0000aca0       ?InsertAtEndOfIdenticalRange@?$Array@UStaticString@StringAtomTableBase@Util@@@Util@@QAEHHABUStaticString@StringAtomTableBase@2@@Z 0040bca0 f i foundation_win32.release:localstringatomtable.obj
 0001:0000ad20       ?Grow@?$Array@UStaticString@StringAtomTableBase@Util@@@Util@@AAEXXZ 0040bd20 f i foundation_win32.release:localstringatomtable.obj
 0001:0000ada0       ?Move@?$Array@UStaticString@StringAtomTableBase@Util@@@Util@@AAEXHH@Z 0040bda0 f i foundation_win32.release:localstringatomtable.obj
 0001:0000af20       ?Destroy@?$Array@UStaticString@StringAtomTableBase@Util@@@Util@@AAEXPAUStaticString@StringAtomTableBase@2@@Z 0040bf20 f i foundation_win32.release:localstringatomtable.obj
 0001:0000af30       ?GrowTo@?$Array@UStaticString@StringAtomTableBase@Util@@@Util@@AAEXH@Z 0040bf30 f i foundation_win32.release:localstringatomtable.obj
 0001:0000afe0       ?GetNumChunks@StringBuffer@Util@@QBEHXZ 0040bfe0 f i foundation_win32.release:globalstringatomtable.obj
 0001:0000b000       ??0GlobalStringAtomTable@Util@@QAE@XZ 0040c000 f   foundation_win32.release:globalstringatomtable.obj
 0001:0000b070       ??1GlobalStringAtomTable@Util@@QAE@XZ 0040c070 f   foundation_win32.release:globalstringatomtable.obj
 0001:0000b110       ?Lock@GlobalStringAtomTable@Util@@AAEXXZ 0040c110 f   foundation_win32.release:globalstringatomtable.obj
 0001:0000b130       ?Unlock@GlobalStringAtomTable@Util@@AAEXXZ 0040c130 f   foundation_win32.release:globalstringatomtable.obj
 0001:0000b170       ?Add@GlobalStringAtomTable@Util@@AAEPBDPBD@Z 0040c170 f   foundation_win32.release:globalstringatomtable.obj
 0001:0000b1a0       ?GetDebugInfo@GlobalStringAtomTable@Util@@QBE?AUDebugInfo@12@XZ 0040c1a0 f   foundation_win32.release:globalstringatomtable.obj
 0001:0000b2c0       ??0DebugInfo@GlobalStringAtomTable@Util@@QAE@XZ 0040c2c0 f i foundation_win32.release:globalstringatomtable.obj
 0001:0000b2e0       ??1DebugInfo@GlobalStringAtomTable@Util@@QAE@XZ 0040c2e0 f i foundation_win32.release:globalstringatomtable.obj
 0001:0000b300       ??0DebugInfo@GlobalStringAtomTable@Util@@QAE@ABU012@@Z 0040c300 f i foundation_win32.release:globalstringatomtable.obj
 0001:0000b360       ??A?$Array@UStaticString@StringAtomTableBase@Util@@@Util@@QBEAAUStaticString@StringAtomTableBase@1@H@Z 0040c360 f i foundation_win32.release:globalstringatomtable.obj
 0001:0000b3b0       ?Size@?$Array@PAD@Util@@QBEHXZ 0040c3b0 f i foundation_win32.release:globalstringatomtable.obj
 0001:0000b3d0       ??0?$Array@PBD@Util@@QAE@ABV01@@Z 0040c3d0 f i foundation_win32.release:globalstringatomtable.obj
 0001:0000b420       ??0?$Array@PBD@Util@@QAE@XZ 0040c420 f i foundation_win32.release:globalstringatomtable.obj
 0001:0000b460       ??1?$Array@PBD@Util@@QAE@XZ 0040c460 f i foundation_win32.release:globalstringatomtable.obj
 0001:0000b480       ?Append@?$Array@PBD@Util@@QAEXABQBD@Z 0040c480 f i foundation_win32.release:globalstringatomtable.obj
 0001:0000b4f0       ?Reserve@?$Array@PBD@Util@@QAEXH@Z 0040c4f0 f i foundation_win32.release:globalstringatomtable.obj
 0001:0000b540       ?Copy@?$Array@PBD@Util@@AAEXABV12@@Z 0040c540 f i foundation_win32.release:globalstringatomtable.obj
 0001:0000b610       ?Delete@?$Array@PBD@Util@@AAEXXZ 0040c610 f i foundation_win32.release:globalstringatomtable.obj
 0001:0000b670       ?Grow@?$Array@PBD@Util@@AAEXXZ 0040c670 f i foundation_win32.release:globalstringatomtable.obj
 0001:0000b6f0       ?GrowTo@?$Array@PBD@Util@@AAEXH@Z 0040c6f0 f i foundation_win32.release:globalstringatomtable.obj
 0001:0000b7a0       ??0StringAtomTableBase@Util@@QAE@XZ 0040c7a0 f   foundation_win32.release:stringatomtablebase.obj
 0001:0000b7c0       ??1StringAtomTableBase@Util@@QAE@XZ 0040c7c0 f   foundation_win32.release:stringatomtablebase.obj
 0001:0000b7e0       ?Find@StringAtomTableBase@Util@@IBEPBDPBD@Z 0040c7e0 f   foundation_win32.release:stringatomtablebase.obj
 0001:0000b820       ??8StaticString@StringAtomTableBase@Util@@QBE_NABU012@@Z 0040c820 f   foundation_win32.release:stringatomtablebase.obj
 0001:0000b8a0       ??9StaticString@StringAtomTableBase@Util@@QBE_NABU012@@Z 0040c8a0 f   foundation_win32.release:stringatomtablebase.obj
 0001:0000b920       ??MStaticString@StringAtomTableBase@Util@@QBE_NABU012@@Z 0040c920 f   foundation_win32.release:stringatomtablebase.obj
 0001:0000b9a0       ??OStaticString@StringAtomTableBase@Util@@QBE_NABU012@@Z 0040c9a0 f   foundation_win32.release:stringatomtablebase.obj
 0001:0000ba20       ??0?$Array@UStaticString@StringAtomTableBase@Util@@@Util@@QAE@XZ 0040ca20 f i foundation_win32.release:stringatomtablebase.obj
 0001:0000ba60       ??1?$Array@UStaticString@StringAtomTableBase@Util@@@Util@@QAE@XZ 0040ca60 f i foundation_win32.release:stringatomtablebase.obj
 0001:0000ba80       ?BinarySearchIndex@?$Array@UStaticString@StringAtomTableBase@Util@@@Util@@QBEHABUStaticString@StringAtomTableBase@2@@Z 0040ca80 f i foundation_win32.release:stringatomtablebase.obj
 0001:0000bbb0       ?Delete@?$Array@UStaticString@StringAtomTableBase@Util@@@Util@@AAEXXZ 0040cbb0 f i foundation_win32.release:stringatomtablebase.obj
 0001:0000bc10       ??0FourCC@Util@@QAE@XZ     0040cc10 f i foundation_win32.release:rtti.obj
 0001:0000bc30       ??8FourCC@Util@@QBE_NABV01@@Z 0040cc30 f i foundation_win32.release:rtti.obj
 0001:0000bc50       ?IsValid@FourCC@Util@@QBE_NXZ 0040cc50 f i foundation_win32.release:rtti.obj
 0001:0000bc70       ?GetParent@Rtti@Core@@QBEPBV12@XZ 0040cc70 f i foundation_win32.release:rtti.obj
 0001:0000bc90       ?Construct@Rtti@Core@@AAEXPBDVFourCC@Util@@P6APAVRefCounted@2@XZPBV12@H@Z 0040cc90 f   foundation_win32.release:rtti.obj
 0001:0000bd80       ??0Rtti@Core@@QAE@PBDVFourCC@Util@@P6APAVRefCounted@1@XZPBV01@H@Z 0040cd80 f   foundation_win32.release:rtti.obj
 0001:0000bdf0       ??0Rtti@Core@@QAE@PBDP6APAVRefCounted@1@XZPBV01@H@Z 0040cdf0 f   foundation_win32.release:rtti.obj
 0001:0000be60       ?Create@Rtti@Core@@QBEPAVRefCounted@2@XZ 0040ce60 f   foundation_win32.release:rtti.obj
 0001:0000bec0       ?IsDerivedFrom@Rtti@Core@@QBE_NABV12@@Z 0040cec0 f   foundation_win32.release:rtti.obj
 0001:0000bf00       ?IsDerivedFrom@Rtti@Core@@QBE_NABVString@Util@@@Z 0040cf00 f   foundation_win32.release:rtti.obj
 0001:0000bf50       ?IsDerivedFrom@Rtti@Core@@QBE_NABVFourCC@Util@@@Z 0040cf50 f   foundation_win32.release:rtti.obj
 0001:0000bfa0       ?AllocInstanceMemory@Rtti@Core@@QAEPAXXZ 0040cfa0 f   foundation_win32.release:rtti.obj
 0001:0000bfd0       ?FreeInstanceMemory@Rtti@Core@@QAEXPAX@Z 0040cfd0 f   foundation_win32.release:rtti.obj
 0001:0000bff0       ??2RefCounted@Core@@SAPAXI@Z 0040cff0 f i foundation_win32.release:refcounted.obj
 0001:0000c000       ?GetRtti@RefCounted@Core@@UBEPAVRtti@2@XZ 0040d000 f   foundation_win32.release:refcounted.obj
 0001:0000c010       ?FactoryCreator@RefCounted@Core@@SAPAV12@XZ 0040d010 f   foundation_win32.release:refcounted.obj
 0001:0000c020       ?Create@RefCounted@Core@@SAPAV12@XZ 0040d020 f   foundation_win32.release:refcounted.obj
 0001:0000c070       ?RegisterWithFactory@RefCounted@Core@@SA_NXZ 0040d070 f   foundation_win32.release:refcounted.obj
 0001:0000c170       ??1RefCounted@Core@@MAE@XZ 0040d170 f   foundation_win32.release:refcounted.obj
 0001:0000c1b0       ?DumpRefCountingLeaks@RefCounted@Core@@SAXXZ 0040d1b0 f   foundation_win32.release:refcounted.obj
 0001:0000c1c0       ?HashCode@String@Util@@QBEHXZ 0040d1c0 f i foundation_win32.release:factory.obj
 0001:0000c270       ??9FourCC@Util@@QBE_NABV01@@Z 0040d270 f i foundation_win32.release:factory.obj
 0001:0000c290       ??OFourCC@Util@@QBE_NABV01@@Z 0040d290 f i foundation_win32.release:factory.obj
 0001:0000c2b0       ??MFourCC@Util@@QBE_NABV01@@Z 0040d2b0 f i foundation_win32.release:factory.obj
 0001:0000c2d0       ?AsString@FourCC@Util@@QBE?AVString@2@XZ 0040d2d0 f i foundation_win32.release:factory.obj
 0001:0000c300       ?ToString@FourCC@Util@@SA?AVString@2@ABV12@@Z 0040d300 f i foundation_win32.release:factory.obj
 0001:0000c490       ?Instance@Factory@Core@@SAPAV12@XZ 0040d490 f   foundation_win32.release:factory.obj
 0001:0000c500       ?Destroy@Factory@Core@@SAXXZ 0040d500 f   foundation_win32.release:factory.obj
 0001:0000c560       ??_GFactory@Core@@AAEPAXI@Z 0040d560 f i foundation_win32.release:factory.obj
 0001:0000c590       ??0Factory@Core@@AAE@XZ    0040d590 f   foundation_win32.release:factory.obj
 0001:0000c5c0       ??1?$HashTable@VString@Util@@PBVRtti@Core@@@Util@@QAE@XZ 0040d5c0 f i foundation_win32.release:factory.obj
 0001:0000c5e0       ??1?$Dictionary@VFourCC@Util@@PBVRtti@Core@@@Util@@QAE@XZ 0040d5e0 f i foundation_win32.release:factory.obj
 0001:0000c600       ??1Factory@Core@@AAE@XZ    0040d600 f   foundation_win32.release:factory.obj
 0001:0000c640       ?Register@Factory@Core@@QAEXPBVRtti@2@ABVString@Util@@ABVFourCC@5@@Z 0040d640 f   foundation_win32.release:factory.obj
 0001:0000c830       ?Register@Factory@Core@@QAEXPBVRtti@2@ABVString@Util@@@Z 0040d830 f   foundation_win32.release:factory.obj
 0001:0000c900       ?ClassExists@Factory@Core@@QBE_NABVString@Util@@@Z 0040d900 f   foundation_win32.release:factory.obj
 0001:0000c950       ?ClassExists@Factory@Core@@QBE_NVFourCC@Util@@@Z 0040d950 f   foundation_win32.release:factory.obj
 0001:0000c9a0       ?GetClassRtti@Factory@Core@@QBEPBVRtti@2@ABVString@Util@@@Z 0040d9a0 f   foundation_win32.release:factory.obj
 0001:0000ca10       ?GetClassRtti@Factory@Core@@QBEPBVRtti@2@ABVFourCC@Util@@@Z 0040da10 f   foundation_win32.release:factory.obj
 0001:0000ca90       ?Create@Factory@Core@@QBEPAVRefCounted@2@ABVString@Util@@@Z 0040da90 f   foundation_win32.release:factory.obj
 0001:0000cba0       ?Create@Factory@Core@@QBEPAVRefCounted@2@VFourCC@Util@@@Z 0040dba0 f   foundation_win32.release:factory.obj
 0001:0000ccf0       ??1?$FixedArray@V?$Array@V?$KeyValuePair@VString@Util@@PBVRtti@Core@@@Util@@@Util@@@Util@@QAE@XZ 0040dcf0 f i foundation_win32.release:factory.obj
 0001:0000cd10       ??0?$HashTable@VString@Util@@PBVRtti@Core@@@Util@@QAE@H@Z 0040dd10 f i foundation_win32.release:factory.obj
 0001:0000cd40       ??A?$HashTable@VString@Util@@PBVRtti@Core@@@Util@@QBEAAPBVRtti@Core@@ABVString@1@@Z 0040dd40 f i foundation_win32.release:factory.obj
 0001:0000ce40       ?Clear@?$HashTable@VString@Util@@PBVRtti@Core@@@Util@@QAEXXZ 0040de40 f i foundation_win32.release:factory.obj
 0001:0000cea0       ?Add@?$HashTable@VString@Util@@PBVRtti@Core@@@Util@@QAEXABVString@2@ABQBVRtti@Core@@@Z 0040dea0 f i foundation_win32.release:factory.obj
 0001:0000cee0       ?Contains@?$HashTable@VString@Util@@PBVRtti@Core@@@Util@@QBE_NABVString@2@@Z 0040dee0 f i foundation_win32.release:factory.obj
 0001:0000cf80       ??1?$Array@V?$KeyValuePair@VFourCC@Util@@PBVRtti@Core@@@Util@@@Util@@QAE@XZ 0040df80 f i foundation_win32.release:factory.obj
 0001:0000cfa0       ??0?$Dictionary@VFourCC@Util@@PBVRtti@Core@@@Util@@QAE@XZ 0040dfa0 f i foundation_win32.release:factory.obj
 0001:0000cfc0       ??A?$Dictionary@VFourCC@Util@@PBVRtti@Core@@@Util@@QBEABQBVRtti@Core@@ABVFourCC@1@@Z 0040dfc0 f i foundation_win32.release:factory.obj
 0001:0000d010       ?Clear@?$Dictionary@VFourCC@Util@@PBVRtti@Core@@@Util@@QAEXXZ 0040e010 f i foundation_win32.release:factory.obj
 0001:0000d050       ?Add@?$Dictionary@VFourCC@Util@@PBVRtti@Core@@@Util@@QAEXABVFourCC@2@ABQBVRtti@Core@@@Z 0040e050 f i foundation_win32.release:factory.obj
 0001:0000d0a0       ?Contains@?$Dictionary@VFourCC@Util@@PBVRtti@Core@@@Util@@QBE_NABVFourCC@2@@Z 0040e0a0 f i foundation_win32.release:factory.obj
 0001:0000d100       ??1?$KeyValuePair@VString@Util@@PBVRtti@Core@@@Util@@QAE@XZ 0040e100 f i foundation_win32.release:factory.obj
 0001:0000d150       ??0?$FixedArray@V?$Array@V?$KeyValuePair@VString@Util@@PBVRtti@Core@@@Util@@@Util@@@Util@@QAE@H@Z 0040e150 f i foundation_win32.release:factory.obj
 0001:0000d180       ??A?$FixedArray@V?$Array@V?$KeyValuePair@VString@Util@@PBVRtti@Core@@@Util@@@Util@@@Util@@QBEAAV?$Array@V?$KeyValuePair@VString@Util@@PBVRtti@Core@@@Util@@@1@H@Z 0040e180 f i foundation_win32.release:factory.obj
 0001:0000d1d0       ?Size@?$FixedArray@V?$Array@V?$KeyValuePair@VString@Util@@PBVRtti@Core@@@Util@@@Util@@@Util@@QBEHXZ 0040e1d0 f i foundation_win32.release:factory.obj
 0001:0000d1e0       ?Delete@?$FixedArray@V?$Array@V?$KeyValuePair@VString@Util@@PBVRtti@Core@@@Util@@@Util@@@Util@@AAEXXZ 0040e1e0 f i foundation_win32.release:factory.obj
 0001:0000d240       ?Add@?$HashTable@VString@Util@@PBVRtti@Core@@@Util@@QAEXABV?$KeyValuePair@VString@Util@@PBVRtti@Core@@@2@@Z 0040e240 f i foundation_win32.release:factory.obj
 0001:0000d2d0       ??A?$Array@V?$KeyValuePair@VString@Util@@PBVRtti@Core@@@Util@@@Util@@QBEAAV?$KeyValuePair@VString@Util@@PBVRtti@Core@@@1@H@Z 0040e2d0 f i foundation_win32.release:factory.obj
 0001:0000d320       ?Size@?$Array@V?$KeyValuePair@VString@Util@@PBVRtti@Core@@@Util@@@Util@@QBEHXZ 0040e320 f i foundation_win32.release:factory.obj
 0001:0000d340       ?Clear@?$Array@V?$KeyValuePair@VString@Util@@PBVRtti@Core@@@Util@@@Util@@QAEXXZ 0040e340 f i foundation_win32.release:factory.obj
 0001:0000d390       ?BinarySearchIndex@?$Array@V?$KeyValuePair@VString@Util@@PBVRtti@Core@@@Util@@@Util@@QBEHABV?$KeyValuePair@VString@Util@@PBVRtti@Core@@@2@@Z 0040e390 f i foundation_win32.release:factory.obj
 0001:0000d4c0       ??0?$KeyValuePair@VString@Util@@PBVRtti@Core@@@Util@@QAE@ABVString@1@@Z 0040e4c0 f i foundation_win32.release:factory.obj
 0001:0000d520       ??0?$KeyValuePair@VString@Util@@PBVRtti@Core@@@Util@@QAE@ABVString@1@ABQBVRtti@Core@@@Z 0040e520 f i foundation_win32.release:factory.obj
 0001:0000d590       ?Value@?$KeyValuePair@VString@Util@@PBVRtti@Core@@@Util@@QAEAAPBVRtti@Core@@XZ 0040e590 f i foundation_win32.release:factory.obj
 0001:0000d5b0       ??0?$Array@V?$KeyValuePair@VFourCC@Util@@PBVRtti@Core@@@Util@@@Util@@QAE@XZ 0040e5b0 f i foundation_win32.release:factory.obj
 0001:0000d5f0       ??A?$Array@V?$KeyValuePair@VFourCC@Util@@PBVRtti@Core@@@Util@@@Util@@QBEAAV?$KeyValuePair@VFourCC@Util@@PBVRtti@Core@@@1@H@Z 0040e5f0 f i foundation_win32.release:factory.obj
 0001:0000d640       ?Append@?$Array@V?$KeyValuePair@VFourCC@Util@@PBVRtti@Core@@@Util@@@Util@@QAEXABV?$KeyValuePair@VFourCC@Util@@PBVRtti@Core@@@2@@Z 0040e640 f i foundation_win32.release:factory.obj
 0001:0000d6c0       ?InsertSorted@?$Array@V?$KeyValuePair@VFourCC@Util@@PBVRtti@Core@@@Util@@@Util@@QAEHABV?$KeyValuePair@VFourCC@Util@@PBVRtti@Core@@@2@@Z 0040e6c0 f i foundation_win32.release:factory.obj
 0001:0000d930       ?Clear@?$Array@V?$KeyValuePair@VFourCC@Util@@PBVRtti@Core@@@Util@@@Util@@QAEXXZ 0040e930 f i foundation_win32.release:factory.obj
 0001:0000d980       ?BinarySearchIndex@?$Array@V?$KeyValuePair@VFourCC@Util@@PBVRtti@Core@@@Util@@@Util@@QBEHABV?$KeyValuePair@VFourCC@Util@@PBVRtti@Core@@@2@@Z 0040e980 f i foundation_win32.release:factory.obj
 0001:0000dab0       ?Delete@?$Array@V?$KeyValuePair@VFourCC@Util@@PBVRtti@Core@@@Util@@@Util@@AAEXXZ 0040eab0 f i foundation_win32.release:factory.obj
 0001:0000db10       ?FindIndex@?$Dictionary@VFourCC@Util@@PBVRtti@Core@@@Util@@QBEHABVFourCC@2@@Z 0040eb10 f i foundation_win32.release:factory.obj
 0001:0000db60       ??0?$KeyValuePair@VFourCC@Util@@PBVRtti@Core@@@Util@@QAE@ABVFourCC@1@@Z 0040eb60 f i foundation_win32.release:factory.obj
 0001:0000db80       ??0?$KeyValuePair@VFourCC@Util@@PBVRtti@Core@@@Util@@QAE@ABVFourCC@1@ABQBVRtti@Core@@@Z 0040eb80 f i foundation_win32.release:factory.obj
 0001:0000dbb0       ?Value@?$KeyValuePair@VFourCC@Util@@PBVRtti@Core@@@Util@@QAEAAPBVRtti@Core@@XZ 0040ebb0 f i foundation_win32.release:factory.obj
 0001:0000dbd0       ??_E?$Array@V?$KeyValuePair@VString@Util@@PBVRtti@Core@@@Util@@@Util@@QAEPAXI@Z 0040ebd0 f i foundation_win32.release:factory.obj
 0001:0000dc70       ?Alloc@?$FixedArray@V?$Array@V?$KeyValuePair@VString@Util@@PBVRtti@Core@@@Util@@@Util@@@Util@@AAEXH@Z 0040ec70 f i foundation_win32.release:factory.obj
 0001:0000dd40       ??1?$Array@V?$KeyValuePair@VString@Util@@PBVRtti@Core@@@Util@@@Util@@QAE@XZ 0040ed40 f i foundation_win32.release:factory.obj
 0001:0000dd60       ?InsertSorted@?$Array@V?$KeyValuePair@VString@Util@@PBVRtti@Core@@@Util@@@Util@@QAEHABV?$KeyValuePair@VString@Util@@PBVRtti@Core@@@2@@Z 0040ed60 f i foundation_win32.release:factory.obj
 0001:0000dfd0       ?Destroy@?$Array@V?$KeyValuePair@VString@Util@@PBVRtti@Core@@@Util@@@Util@@AAEXPAV?$KeyValuePair@VString@Util@@PBVRtti@Core@@@2@@Z 0040efd0 f i foundation_win32.release:factory.obj
 0001:0000dff0       ??9?$KeyValuePair@VString@Util@@PBVRtti@Core@@@Util@@QBE_NABV01@@Z 0040eff0 f i foundation_win32.release:factory.obj
 0001:0000e010       ??O?$KeyValuePair@VString@Util@@PBVRtti@Core@@@Util@@QBE_NABV01@@Z 0040f010 f i foundation_win32.release:factory.obj
 0001:0000e030       ??M?$KeyValuePair@VString@Util@@PBVRtti@Core@@@Util@@QBE_NABV01@@Z 0040f030 f i foundation_win32.release:factory.obj
 0001:0000e050       ?Key@?$KeyValuePair@VString@Util@@PBVRtti@Core@@@Util@@QBEABVString@2@XZ 0040f050 f i foundation_win32.release:factory.obj
 0001:0000e060       ?Size@?$Array@V?$KeyValuePair@VFourCC@Util@@PBVRtti@Core@@@Util@@@Util@@QBEHXZ 0040f060 f i foundation_win32.release:factory.obj
 0001:0000e080       ?Insert@?$Array@V?$KeyValuePair@VFourCC@Util@@PBVRtti@Core@@@Util@@@Util@@QAEXHABV?$KeyValuePair@VFourCC@Util@@PBVRtti@Core@@@2@@Z 0040f080 f i foundation_win32.release:factory.obj
 0001:0000e0f0       ?InsertAtEndOfIdenticalRange@?$Array@V?$KeyValuePair@VFourCC@Util@@PBVRtti@Core@@@Util@@@Util@@QAEHHABV?$KeyValuePair@VFourCC@Util@@PBVRtti@Core@@@2@@Z 0040f0f0 f i foundation_win32.release:factory.obj
 0001:0000e170       ?Destroy@?$Array@V?$KeyValuePair@VFourCC@Util@@PBVRtti@Core@@@Util@@@Util@@AAEXPAV?$KeyValuePair@VFourCC@Util@@PBVRtti@Core@@@2@@Z 0040f170 f i foundation_win32.release:factory.obj
 0001:0000e180       ?Grow@?$Array@V?$KeyValuePair@VFourCC@Util@@PBVRtti@Core@@@Util@@@Util@@AAEXXZ 0040f180 f i foundation_win32.release:factory.obj
 0001:0000e200       ??4?$KeyValuePair@VFourCC@Util@@PBVRtti@Core@@@Util@@QAEXABV01@@Z 0040f200 f i foundation_win32.release:factory.obj
 0001:0000e230       ??9?$KeyValuePair@VFourCC@Util@@PBVRtti@Core@@@Util@@QBE_NABV01@@Z 0040f230 f i foundation_win32.release:factory.obj
 0001:0000e250       ??O?$KeyValuePair@VFourCC@Util@@PBVRtti@Core@@@Util@@QBE_NABV01@@Z 0040f250 f i foundation_win32.release:factory.obj
 0001:0000e270       ??M?$KeyValuePair@VFourCC@Util@@PBVRtti@Core@@@Util@@QBE_NABV01@@Z 0040f270 f i foundation_win32.release:factory.obj
 0001:0000e290       ??_G?$KeyValuePair@VString@Util@@PBVRtti@Core@@@Util@@QAEPAXI@Z 0040f290 f i foundation_win32.release:factory.obj
 0001:0000e300       ??0?$Array@V?$KeyValuePair@VString@Util@@PBVRtti@Core@@@Util@@@Util@@QAE@XZ 0040f300 f i foundation_win32.release:factory.obj
 0001:0000e340       ?Append@?$Array@V?$KeyValuePair@VString@Util@@PBVRtti@Core@@@Util@@@Util@@QAEXABV?$KeyValuePair@VString@Util@@PBVRtti@Core@@@2@@Z 0040f340 f i foundation_win32.release:factory.obj
 0001:0000e3c0       ?Insert@?$Array@V?$KeyValuePair@VString@Util@@PBVRtti@Core@@@Util@@@Util@@QAEXHABV?$KeyValuePair@VString@Util@@PBVRtti@Core@@@2@@Z 0040f3c0 f i foundation_win32.release:factory.obj
 0001:0000e430       ?InsertAtEndOfIdenticalRange@?$Array@V?$KeyValuePair@VString@Util@@PBVRtti@Core@@@Util@@@Util@@QAEHHABV?$KeyValuePair@VString@Util@@PBVRtti@Core@@@2@@Z 0040f430 f i foundation_win32.release:factory.obj
 0001:0000e4b0       ?Delete@?$Array@V?$KeyValuePair@VString@Util@@PBVRtti@Core@@@Util@@@Util@@AAEXXZ 0040f4b0 f i foundation_win32.release:factory.obj
 0001:0000e520       ?GrowTo@?$Array@V?$KeyValuePair@VFourCC@Util@@PBVRtti@Core@@@Util@@@Util@@AAEXH@Z 0040f520 f i foundation_win32.release:factory.obj
 0001:0000e610       ?Move@?$Array@V?$KeyValuePair@VFourCC@Util@@PBVRtti@Core@@@Util@@@Util@@AAEXHH@Z 0040f610 f i foundation_win32.release:factory.obj
 0001:0000e7a0       ??_E?$KeyValuePair@VString@Util@@PBVRtti@Core@@@Util@@QAEPAXI@Z 0040f7a0 f i foundation_win32.release:factory.obj
 0001:0000e8b0       ?Grow@?$Array@V?$KeyValuePair@VString@Util@@PBVRtti@Core@@@Util@@@Util@@AAEXXZ 0040f8b0 f i foundation_win32.release:factory.obj
 0001:0000e930       ?Move@?$Array@V?$KeyValuePair@VString@Util@@PBVRtti@Core@@@Util@@@Util@@AAEXHH@Z 0040f930 f i foundation_win32.release:factory.obj
 0001:0000eac0       ??4?$KeyValuePair@VString@Util@@PBVRtti@Core@@@Util@@QAEXABV01@@Z 0040fac0 f i foundation_win32.release:factory.obj
 0001:0000eb10       ??0?$KeyValuePair@VFourCC@Util@@PBVRtti@Core@@@Util@@QAE@XZ 0040fb10 f i foundation_win32.release:factory.obj
 0001:0000eb30       ?GrowTo@?$Array@V?$KeyValuePair@VString@Util@@PBVRtti@Core@@@Util@@@Util@@AAEXH@Z 0040fb30 f i foundation_win32.release:factory.obj
 0001:0000ec50       ??0?$KeyValuePair@VString@Util@@PBVRtti@Core@@@Util@@QAE@XZ 0040fc50 f i foundation_win32.release:factory.obj
 0001:0000ec90       ?GetNumCpuCores@SystemInfoBase@Base@@QBEHXZ 0040fc90 f i foundation_win32.release:win360criticalsection.obj
 0001:0000ecb0       ??0Win360CriticalSection@Win360@@QAE@XZ 0040fcb0 f   foundation_win32.release:win360criticalsection.obj
 0001:0000ed20       ??1Win360CriticalSection@Win360@@QAE@XZ 0040fd20 f   foundation_win32.release:win360criticalsection.obj
 0001:0000ed50       ??2Win32ConsoleHandler@Win32@@SAPAXI@Z 0040fd50 f i foundation_win32.release:win32consolehandler.obj
 0001:0000ed60       ??3Win32ConsoleHandler@Win32@@SAXPAX@Z 0040fd60 f i foundation_win32.release:win32consolehandler.obj
 0001:0000ed80       ?Value@StringAtom@Util@@QBEPBDXZ 0040fd80 f i foundation_win32.release:win32consolehandler.obj
 0001:0000ed90       ?Instance@CoreServer@Core@@SAPAV12@XZ 0040fd90 f i foundation_win32.release:win32consolehandler.obj
 0001:0000edd0       ?HasInstance@CoreServer@Core@@SA_NXZ 0040fdd0 f i foundation_win32.release:win32consolehandler.obj
 0001:0000edf0       ?GetAppName@CoreServer@Core@@QBEABVStringAtom@Util@@XZ 0040fdf0 f i foundation_win32.release:win32consolehandler.obj
 0001:0000ee10       ?GetRtti@Win32ConsoleHandler@Win32@@UBEPAVRtti@Core@@XZ 0040fe10 f   foundation_win32.release:win32consolehandler.obj
 0001:0000ee20       ?FactoryCreator@Win32ConsoleHandler@Win32@@SAPAVRefCounted@Core@@XZ 0040fe20 f   foundation_win32.release:win32consolehandler.obj
 0001:0000ee30       ?Create@Win32ConsoleHandler@Win32@@SAPAV12@XZ 0040fe30 f   foundation_win32.release:win32consolehandler.obj
 0001:0000ee70       ?RegisterWithFactory@Win32ConsoleHandler@Win32@@SA_NXZ 0040fe70 f   foundation_win32.release:win32consolehandler.obj
 0001:0000ef80       ??0Win32ConsoleHandler@Win32@@QAE@XZ 0040ff80 f   foundation_win32.release:win32consolehandler.obj
 0001:0000f020       ??_GWin32ConsoleHandler@Win32@@UAEPAXI@Z 00410020 f i foundation_win32.release:win32consolehandler.obj
 0001:0000f020       ??_EWin32ConsoleHandler@Win32@@UAEPAXI@Z 00410020 f i  CIL library: CIL module
 0001:0000f050       ??1Win32ConsoleHandler@Win32@@UAE@XZ 00410050 f i foundation_win32.release:win32consolehandler.obj
 0001:0000f070       ?Print@Win32ConsoleHandler@Win32@@UAEXABVString@Util@@@Z 00410070 f   foundation_win32.release:win32consolehandler.obj
 0001:0000f140       ?DebugOut@Win32ConsoleHandler@Win32@@UAEXABVString@Util@@@Z 00410140 f   foundation_win32.release:win32consolehandler.obj
 0001:0000f180       ?Error@Win32ConsoleHandler@Win32@@UAEXABVString@Util@@@Z 00410180 f   foundation_win32.release:win32consolehandler.obj
 0001:0000f2c0       ?Warning@Win32ConsoleHandler@Win32@@UAEXABVString@Util@@@Z 004102c0 f   foundation_win32.release:win32consolehandler.obj
 0001:0000f310       ?Confirm@Win32ConsoleHandler@Win32@@UAEXABVString@Util@@@Z 00410310 f   foundation_win32.release:win32consolehandler.obj
 0001:0000f390       ?HasInput@Win32ConsoleHandler@Win32@@UAE_NXZ 00410390 f   foundation_win32.release:win32consolehandler.obj
 0001:0000f440       ?GetInput@Win32ConsoleHandler@Win32@@UAE?AVString@Util@@XZ 00410440 f   foundation_win32.release:win32consolehandler.obj
 0001:0000f580       ?BinaryCompare@Blob@Util@@ABEHABV12@@Z 00410580 f   foundation_win32.release:blob.obj
 0001:0000f630       ?Setup@Win360Heap@Win360@@SAXXZ 00410630 f   foundation_win32.release:win360heap.obj
 0001:0000f640       ??0Win360Heap@Win360@@QAE@PBDII@Z 00410640 f   foundation_win32.release:win360heap.obj
 0001:0000f6d0       ??1Win360Heap@Win360@@QAE@XZ 004106d0 f   foundation_win32.release:win360heap.obj
 0001:0000f710       ??0Win32SystemInfo@Win32@@QAE@XZ 00410710 f   foundation_win32.release:win32systeminfo.obj
 0001:0000f790       ??2Win360Socket@Win360@@SAPAXI@Z 00410790 f i foundation_win32.release:win360socket.obj
 0001:0000f7a0       ??3Win360Socket@Win360@@SAXPAX@Z 004107a0 f i foundation_win32.release:win360socket.obj
 0001:0000f7c0       ?IsOpen@Win360Socket@Win360@@QBE_NXZ 004107c0 f i foundation_win32.release:win360socket.obj
 0001:0000f7e0       ?IsBound@Win360Socket@Win360@@QBE_NXZ 004107e0 f i foundation_win32.release:win360socket.obj
 0001:0000f800       ?SetAddress@Win360Socket@Win360@@QAEXABVWin360IpAddress@2@@Z 00410800 f i foundation_win32.release:win360socket.obj
 0001:0000f820       ??4Win360IpAddress@Win360@@QAEAAV01@ABV01@@Z 00410820 f i foundation_win32.release:win360socket.obj
 0001:0000f8d0       ?GetBlocking@Win360Socket@Win360@@QBE_NXZ 004108d0 f i foundation_win32.release:win360socket.obj
 0001:0000f8f0       ?GetRtti@Win360Socket@Win360@@UBEPAVRtti@Core@@XZ 004108f0 f   foundation_win32.release:win360socket.obj
 0001:0000f900       ?FactoryCreator@Win360Socket@Win360@@SAPAVRefCounted@Core@@XZ 00410900 f   foundation_win32.release:win360socket.obj
 0001:0000f910       ?Create@Win360Socket@Win360@@SAPAV12@XZ 00410910 f   foundation_win32.release:win360socket.obj
 0001:0000f950       ?RegisterWithFactory@Win360Socket@Win360@@SA_NXZ 00410950 f   foundation_win32.release:win360socket.obj
 0001:0000fa50       ??0Win360Socket@Win360@@QAE@XZ 00410a50 f   foundation_win32.release:win360socket.obj
 0001:0000fad0       ??_GWin360Socket@Win360@@UAEPAXI@Z 00410ad0 f i foundation_win32.release:win360socket.obj
 0001:0000fad0       ??_EWin360Socket@Win360@@UAEPAXI@Z 00410ad0 f i  CIL library: CIL module
 0001:0000fb00       ??1Win360IpAddress@Win360@@QAE@XZ 00410b00 f i foundation_win32.release:win360socket.obj
 0001:0000fb90       ??1Win360Socket@Win360@@UAE@XZ 00410b90 f   foundation_win32.release:win360socket.obj
 0001:0000fbe0       ?InitNetwork@Win360Socket@Win360@@SAXXZ 00410be0 f   foundation_win32.release:win360socket.obj
 0001:0000fce0       ?Open@Win360Socket@Win360@@QAE_NW4Protocol@12@@Z 00410ce0 f   foundation_win32.release:win360socket.obj
 0001:0000fdb0       ?OpenWithExistingSocket@Win360Socket@Win360@@AAEXI@Z 00410db0 f   foundation_win32.release:win360socket.obj
 0001:0000fe10       ?Close@Win360Socket@Win360@@QAEXXZ 00410e10 f   foundation_win32.release:win360socket.obj
 0001:0000ff90       ?SetBoolOption@Win360Socket@Win360@@AAEXH_N@Z 00410f90 f   foundation_win32.release:win360socket.obj
 0001:00010090       ?GetBoolOption@Win360Socket@Win360@@AAE_NH@Z 00411090 f   foundation_win32.release:win360socket.obj
 0001:000101c0       ?SetIntOption@Win360Socket@Win360@@AAEXHH@Z 004111c0 f   foundation_win32.release:win360socket.obj
 0001:000102a0       ?GetIntOption@Win360Socket@Win360@@AAEHH@Z 004112a0 f   foundation_win32.release:win360socket.obj
 0001:000103b0       ?SetBlocking@Win360Socket@Win360@@QAEX_N@Z 004113b0 f   foundation_win32.release:win360socket.obj
 0001:000104a0       ?Bind@Win360Socket@Win360@@QAE_NXZ 004114a0 f   foundation_win32.release:win360socket.obj
 0001:000105b0       ?Listen@Win360Socket@Win360@@QAE_NXZ 004115b0 f   foundation_win32.release:win360socket.obj
 0001:000106b0       ?Accept@Win360Socket@Win360@@QAE_NAAV?$Ptr@VSocket@Net@@@@@Z 004116b0 f   foundation_win32.release:win360socket.obj
 0001:00010880       ?Connect@Win360Socket@Win360@@QAE?AW4Result@12@XZ 00411880 f   foundation_win32.release:win360socket.obj
 0001:000109f0       ?IsConnected@Win360Socket@Win360@@QAE_NXZ 004119f0 f   foundation_win32.release:win360socket.obj
 0001:00010b50       ?Send@Win360Socket@Win360@@QAE?AW4Result@12@PBXHAAH@Z 00411b50 f   foundation_win32.release:win360socket.obj
 0001:00010c80       ?HasRecvData@Win360Socket@Win360@@QAE_NXZ 00411c80 f   foundation_win32.release:win360socket.obj
 0001:00010de0       ?Recv@Win360Socket@Win360@@QAE?AW4Result@12@PAXHAAH@Z 00411de0 f   foundation_win32.release:win360socket.obj
 0001:00010f50       ?SendTo@Win360Socket@Win360@@QAE?AW4Result@12@PBXHIGAAH@Z 00411f50 f   foundation_win32.release:win360socket.obj
 0001:00010f70       ?RecvFrom@Win360Socket@Win360@@QAE?AW4Result@12@PAXHIGAAH@Z 00411f70 f   foundation_win32.release:win360socket.obj
 0001:00010f90       ?ClearError@Win360Socket@Win360@@AAEXXZ 00411f90 f   foundation_win32.release:win360socket.obj
 0001:00010fb0       ?SetToLastWSAError@Win360Socket@Win360@@AAEXXZ 00411fb0 f   foundation_win32.release:win360socket.obj
 0001:00010fd0       ?SetWSAError@Win360Socket@Win360@@AAEXH@Z 00411fd0 f   foundation_win32.release:win360socket.obj
 0001:00010ff0       ?WSAErrorToErrorCode@Win360Socket@Win360@@CA?AW4ErrorCode@12@H@Z 00411ff0 f   foundation_win32.release:win360socket.obj
 0001:000113b0       ?ErrorAsString@Win360Socket@Win360@@CA?AVString@Util@@W4ErrorCode@12@@Z 004123b0 f   foundation_win32.release:win360socket.obj
 0001:00011e10       ?WSAErrorToString@Win360Socket@Win360@@CA?AVString@Util@@H@Z 00412e10 f   foundation_win32.release:win360socket.obj
 0001:00011e40       ?GetErrorString@Win360Socket@Win360@@QBE?AVString@Util@@XZ 00412e40 f   foundation_win32.release:win360socket.obj
 0001:00011e70       ?IsNetworkInitialized@Win360Socket@Win360@@SA_NXZ 00412e70 f   foundation_win32.release:win360socket.obj
 0001:00011e80       ??4?$Ptr@VSocket@Net@@@@QAEXPAVSocket@Net@@@Z 00412e80 f i foundation_win32.release:win360socket.obj
 0001:00011ee0       ??C?$Ptr@VSocket@Net@@@@QBEPAVSocket@Net@@XZ 00412ee0 f i foundation_win32.release:win360socket.obj
 0001:00011f20       ?Clear@Memory@@YAXPAXI@Z   00412f20 f i foundation_win32.release:win32minidump.obj
 0001:00011f40       ?ExtractFileName@String@Util@@QBE?AV12@XZ 00412f40 f i foundation_win32.release:win32minidump.obj
 0001:00011fe0       ?ExtractToLastSlash@String@Util@@QBE?AV12@XZ 00412fe0 f i foundation_win32.release:win32minidump.obj
 0001:00012070       ?Setup@Win32MiniDump@Win32@@SAXXZ 00413070 f   foundation_win32.release:win32minidump.obj
 0001:00012080       ?WriteMiniDump@Win32MiniDump@Win32@@SA_NXZ 00413080 f   foundation_win32.release:win32minidump.obj
 0001:00012090       ?WriteMiniDumpInternal@Win32MiniDump@Win32@@CA_NPAU_EXCEPTION_POINTERS@@@Z 00413090 f   foundation_win32.release:win32minidump.obj
 0001:000121b0       ?BuildMiniDumpFilename@Win32MiniDump@Win32@@CA?AVString@Util@@XZ 004131b0 f   foundation_win32.release:win32minidump.obj
 0001:00012450       ?ExceptionCallback@Win32MiniDump@Win32@@CGJPAU_EXCEPTION_POINTERS@@@Z 00413450 f   foundation_win32.release:win32minidump.obj
 0001:00012470       ??0ExitHandler@Core@@QAE@XZ 00413470 f   foundation_win32.release:exithandler.obj
 0001:000124a0       ??_EExitHandler@Core@@UAEPAXI@Z 004134a0 f i  CIL library: CIL module
 0001:000124a0       ??_GExitHandler@Core@@UAEPAXI@Z 004134a0 f i foundation_win32.release:exithandler.obj
 0001:000124d0       ??1ExitHandler@Core@@UAE@XZ 004134d0 f   foundation_win32.release:exithandler.obj
 0001:000124f0       ?Next@ExitHandler@Core@@QBEPBV12@XZ 004134f0 f   foundation_win32.release:exithandler.obj
 0001:00012510       ?OnExit@ExitHandler@Core@@UBEXXZ 00413510 f   foundation_win32.release:exithandler.obj
 0001:00012520       ?IsValid@StringBuffer@Util@@QBE_NXZ 00413520 f i foundation_win32.release:stringbuffer.obj
 0001:00012540       ??0StringBuffer@Util@@QAE@XZ 00413540 f   foundation_win32.release:stringbuffer.obj
 0001:00012570       ??1StringBuffer@Util@@QAE@XZ 00413570 f   foundation_win32.release:stringbuffer.obj
 0001:000125a0       ?Setup@StringBuffer@Util@@QAEXH@Z 004135a0 f   foundation_win32.release:stringbuffer.obj
 0001:00012600       ?Discard@StringBuffer@Util@@QAEXXZ 00413600 f   foundation_win32.release:stringbuffer.obj
 0001:000126a0       ?AllocNewChunk@StringBuffer@Util@@AAEXXZ 004136a0 f   foundation_win32.release:stringbuffer.obj
 0001:000126e0       ?AddString@StringBuffer@Util@@QAEPBDPBD@Z 004136e0 f   foundation_win32.release:stringbuffer.obj
 0001:00012800       ??0?$Array@PAD@Util@@QAE@XZ 00413800 f i foundation_win32.release:stringbuffer.obj
 0001:00012840       ??1?$Array@PAD@Util@@QAE@XZ 00413840 f i foundation_win32.release:stringbuffer.obj
 0001:00012860       ??A?$Array@PAD@Util@@QBEAAPADH@Z 00413860 f i foundation_win32.release:stringbuffer.obj
 0001:000128b0       ?Append@?$Array@PAD@Util@@QAEXABQAD@Z 004138b0 f i foundation_win32.release:stringbuffer.obj
 0001:00012920       ?Back@?$Array@PAD@Util@@QBEAAPADXZ 00413920 f i foundation_win32.release:stringbuffer.obj
 0001:00012970       ?Clear@?$Array@PAD@Util@@QAEXXZ 00413970 f i foundation_win32.release:stringbuffer.obj
 0001:000129c0       ?Destroy@?$Array@PAD@Util@@AAEXPAPAD@Z 004139c0 f i foundation_win32.release:stringbuffer.obj
 0001:000129d0       ?Delete@?$Array@PAD@Util@@AAEXXZ 004139d0 f i foundation_win32.release:stringbuffer.obj
 0001:00012a30       ?Grow@?$Array@PAD@Util@@AAEXXZ 00413a30 f i foundation_win32.release:stringbuffer.obj
 0001:00012ab0       ?GrowTo@?$Array@PAD@Util@@AAEXH@Z 00413ab0 f i foundation_win32.release:stringbuffer.obj
 0001:00012b60       ??2ConsoleHandler@IO@@SAPAXI@Z 00413b60 f i foundation_win32.release:consolehandler.obj
 0001:00012b70       ??3ConsoleHandler@IO@@SAXPAX@Z 00413b70 f i foundation_win32.release:consolehandler.obj
 0001:00012b90       ?IsOpen@ConsoleHandler@IO@@QBE_NXZ 00413b90 f i foundation_win32.release:consolehandler.obj
 0001:00012bb0       ?GetRtti@ConsoleHandler@IO@@UBEPAVRtti@Core@@XZ 00413bb0 f   foundation_win32.release:consolehandler.obj
 0001:00012bc0       ?FactoryCreator@ConsoleHandler@IO@@SAPAVRefCounted@Core@@XZ 00413bc0 f   foundation_win32.release:consolehandler.obj
 0001:00012bd0       ?Create@ConsoleHandler@IO@@SAPAV12@XZ 00413bd0 f   foundation_win32.release:consolehandler.obj
 0001:00012c10       ?RegisterWithFactory@ConsoleHandler@IO@@SA_NXZ 00413c10 f   foundation_win32.release:consolehandler.obj
 0001:00012d10       ??0ConsoleHandler@IO@@QAE@XZ 00413d10 f   foundation_win32.release:consolehandler.obj
 0001:00012d50       ??_GConsoleHandler@IO@@UAEPAXI@Z 00413d50 f i foundation_win32.release:consolehandler.obj
 0001:00012d50       ??_EConsoleHandler@IO@@UAEPAXI@Z 00413d50 f i  CIL library: CIL module
 0001:00012d80       ??1ConsoleHandler@IO@@UAE@XZ 00413d80 f   foundation_win32.release:consolehandler.obj
 0001:00012dc0       ?Open@ConsoleHandler@IO@@UAEXXZ 00413dc0 f   foundation_win32.release:consolehandler.obj
 0001:00012e00       ?Close@ConsoleHandler@IO@@UAEXXZ 00413e00 f   foundation_win32.release:consolehandler.obj
 0001:00012e40       ?Update@ConsoleHandler@IO@@UAEXXZ 00413e40 f   foundation_win32.release:consolehandler.obj
 0001:00012e80       ?Print@ConsoleHandler@IO@@UAEXABVString@Util@@@Z 00413e80 f   foundation_win32.release:consolehandler.obj
 0001:00012e90       ?Error@ConsoleHandler@IO@@UAEXABVString@Util@@@Z 00413e90 f   foundation_win32.release:consolehandler.obj
 0001:00012ea0       ?Warning@ConsoleHandler@IO@@UAEXABVString@Util@@@Z 00413ea0 f   foundation_win32.release:consolehandler.obj
 0001:00012eb0       ?Confirm@ConsoleHandler@IO@@UAEXABVString@Util@@@Z 00413eb0 f   foundation_win32.release:consolehandler.obj
 0001:00012ec0       ?DebugOut@ConsoleHandler@IO@@UAEXABVString@Util@@@Z 00413ec0 f   foundation_win32.release:consolehandler.obj
 0001:00012ed0       ?HasInput@ConsoleHandler@IO@@UAE_NXZ 00413ed0 f   foundation_win32.release:consolehandler.obj
 0001:00012ee0       ?GetInput@ConsoleHandler@IO@@UAE?AVString@Util@@XZ 00413ee0 f   foundation_win32.release:consolehandler.obj
 0001:00012f30       ??0SystemInfoBase@Base@@QAE@XZ 00413f30 f   foundation_win32.release:systeminfobase.obj
 0001:00012f70       ?PlatformAsString@SystemInfoBase@Base@@SA?AVString@Util@@W4Platform@12@@Z 00413f70 f   foundation_win32.release:systeminfobase.obj
 0001:000130c0       ?CpuTypeAsString@SystemInfoBase@Base@@SA?AVString@Util@@W4CpuType@12@@Z 004140c0 f   foundation_win32.release:systeminfobase.obj
 0001:00013250       ?CheckValidCharSet@String@Util@@QBE_NABV12@@Z 00414250 f i foundation_win32.release:win360ipaddress.obj
 0001:000132f0       ?Host@URI@IO@@QBEABVString@Util@@XZ 004142f0 f i foundation_win32.release:win360ipaddress.obj
 0001:00013310       ?Port@URI@IO@@QBEABVString@Util@@XZ 00414310 f i foundation_win32.release:win360ipaddress.obj
 0001:00013330       ??0Win360IpAddress@Win360@@QAE@XZ 00414330 f   foundation_win32.release:win360ipaddress.obj
 0001:000133c0       ??0Win360IpAddress@Win360@@QAE@ABV01@@Z 004143c0 f   foundation_win32.release:win360ipaddress.obj
 0001:000134a0       ??0Win360IpAddress@Win360@@QAE@ABVString@Util@@G@Z 004144a0 f   foundation_win32.release:win360ipaddress.obj
 0001:00013540       ??0Win360IpAddress@Win360@@QAE@ABVURI@IO@@@Z 00414540 f   foundation_win32.release:win360ipaddress.obj
 0001:000135d0       ??0Win360IpAddress@Win360@@AAE@ABUsockaddr_in@@@Z 004145d0 f   foundation_win32.release:win360ipaddress.obj
 0001:00013660       ?SetSockAddr@Win360IpAddress@Win360@@AAEXABUsockaddr_in@@@Z 00414660 f   foundation_win32.release:win360ipaddress.obj
 0001:00013700       ?GetSockAddr@Win360IpAddress@Win360@@ABEABUsockaddr_in@@XZ 00414700 f   foundation_win32.release:win360ipaddress.obj
 0001:00013720       ?ExtractFromUri@Win360IpAddress@Win360@@QAEXABVURI@IO@@@Z 00414720 f   foundation_win32.release:win360ipaddress.obj
 0001:000137e0       ?SetPort@Win360IpAddress@Win360@@QAEXG@Z 004147e0 f   foundation_win32.release:win360ipaddress.obj
 0001:00013800       ?GetPort@Win360IpAddress@Win360@@QBEGXZ 00414800 f   foundation_win32.release:win360ipaddress.obj
 0001:00013820       ?SetHostName@Win360IpAddress@Win360@@QAEXABVString@Util@@@Z 00414820 f   foundation_win32.release:win360ipaddress.obj
 0001:000138e0       ?GetHostName@Win360IpAddress@Win360@@QBEABVString@Util@@XZ 004148e0 f   foundation_win32.release:win360ipaddress.obj
 0001:000138f0       ?GetHostAddr@Win360IpAddress@Win360@@QBEABVString@Util@@XZ 004148f0 f   foundation_win32.release:win360ipaddress.obj
 0001:00013910       ?GetHostByName@Win360IpAddress@Win360@@CA_NABVString@Util@@AAUin_addr@@@Z 00414910 f   foundation_win32.release:win360ipaddress.obj
 0001:00013c00       ?IsInetAddr@Win360IpAddress@Win360@@CA_NPBUin_addr@@@Z 00414c00 f   foundation_win32.release:win360ipaddress.obj
 0001:00013e00       ??2Socket@Net@@SAPAXI@Z    00414e00 f i foundation_win32.release:socket.obj
 0001:00013e10       ??3Socket@Net@@SAXPAX@Z    00414e10 f i foundation_win32.release:socket.obj
 0001:00013e30       ?GetRtti@Socket@Net@@UBEPAVRtti@Core@@XZ 00414e30 f   foundation_win32.release:socket.obj
 0001:00013e40       ?FactoryCreator@Socket@Net@@SAPAVRefCounted@Core@@XZ 00414e40 f   foundation_win32.release:socket.obj
 0001:00013e50       ?Create@Socket@Net@@SAPAV12@XZ 00414e50 f   foundation_win32.release:socket.obj
 0001:00013e90       ??0Socket@Net@@QAE@XZ      00414e90 f i foundation_win32.release:socket.obj
 0001:00013eb0       ??_ESocket@Net@@UAEPAXI@Z  00414eb0 f i  CIL library: CIL module
 0001:00013eb0       ??_GSocket@Net@@UAEPAXI@Z  00414eb0 f i foundation_win32.release:socket.obj
 0001:00013ee0       ??1Socket@Net@@UAE@XZ      00414ee0 f i foundation_win32.release:socket.obj
 0001:00013f00       ?RegisterWithFactory@Socket@Net@@SA_NXZ 00414f00 f   foundation_win32.release:socket.obj
 0001:00014000       ??2InputServer@Input@@SAPAXI@Z 00415000 f i render_win32.release:inputserver.obj
 0001:00014010       ??3InputServer@Input@@SAXPAX@Z 00415010 f i render_win32.release:inputserver.obj
 0001:00014030       ?GetRtti@InputServer@Input@@UBEPAVRtti@Core@@XZ 00415030 f   render_win32.release:inputserver.obj
 0001:00014040       ?FactoryCreator@InputServer@Input@@SAPAVRefCounted@Core@@XZ 00415040 f   render_win32.release:inputserver.obj
 0001:00014050       ?Create@InputServer@Input@@SAPAV12@XZ 00415050 f   render_win32.release:inputserver.obj
 0001:00014090       ?RegisterWithFactory@InputServer@Input@@SA_NXZ 00415090 f   render_win32.release:inputserver.obj
 0001:00014190       ??0InputServer@Input@@QAE@XZ 00415190 f   render_win32.release:inputserver.obj
 0001:000141e0       ??_EInputServer@Input@@UAEPAXI@Z 004151e0 f i  CIL library: CIL module
 0001:000141e0       ??_GInputServer@Input@@UAEPAXI@Z 004151e0 f i render_win32.release:inputserver.obj
 0001:00014210       ??1InputServer@Input@@UAE@XZ 00415210 f   render_win32.release:inputserver.obj
 0001:00014260       ??0float2@Math@@QAE@XZ     00415260 f i render_win32.release:inputserverbase.obj
 0001:00014270       ??0InputEvent@Input@@QAE@XZ 00415270 f i render_win32.release:inputserverbase.obj
 0001:000142b0       ?SetType@InputEvent@Input@@QAEXW4Type@12@@Z 004152b0 f i render_win32.release:inputserverbase.obj
 0001:000142d0       ?GetType@InputEvent@Input@@QBE?AW4Type@12@XZ 004152d0 f i render_win32.release:inputserverbase.obj
 0001:000142e0       ??2InputServerBase@Base@@SAPAXI@Z 004152e0 f i render_win32.release:inputserverbase.obj
 0001:000142f0       ??3InputServerBase@Base@@SAXPAX@Z 004152f0 f i render_win32.release:inputserverbase.obj
 0001:00014310       ?IsOpen@InputServerBase@Base@@QBE_NXZ 00415310 f i render_win32.release:inputserverbase.obj
 0001:00014330       ?GetMaxNumPlayers@GamePadBase@Base@@SAHXZ 00415330 f i render_win32.release:inputserverbase.obj
 0001:00014340       ?GetRtti@InputServerBase@Base@@UBEPAVRtti@Core@@XZ 00415340 f   render_win32.release:inputserverbase.obj
 0001:00014350       ?FactoryCreator@InputServerBase@Base@@SAPAVRefCounted@Core@@XZ 00415350 f   render_win32.release:inputserverbase.obj
 0001:00014360       ?Create@InputServerBase@Base@@SAPAV12@XZ 00415360 f   render_win32.release:inputserverbase.obj
 0001:000143a0       ?RegisterWithFactory@InputServerBase@Base@@SA_NXZ 004153a0 f   render_win32.release:inputserverbase.obj
 0001:000144a0       ??0InputServerBase@Base@@QAE@XZ 004154a0 f   render_win32.release:inputserverbase.obj
 0001:00014560       ??_GInputServerBase@Base@@UAEPAXI@Z 00415560 f i render_win32.release:inputserverbase.obj
 0001:00014560       ??_EInputServerBase@Base@@UAEPAXI@Z 00415560 f i  CIL library: CIL module
 0001:00014590       ??1InputServerBase@Base@@UAE@XZ 00415590 f   render_win32.release:inputserverbase.obj
 0001:00014620       ?SetMaxNumLocalPlayers@InputServerBase@Base@@QAEXH@Z 00415620 f   render_win32.release:inputserverbase.obj
 0001:00014670       ?Open@InputServerBase@Base@@UAEXXZ 00415670 f   render_win32.release:inputserverbase.obj
 0001:000146c0       ?Close@InputServerBase@Base@@UAEXXZ 004156c0 f   render_win32.release:inputserverbase.obj
 0001:000147b0       ?Reset@InputServerBase@Base@@QAEXXZ 004157b0 f   render_win32.release:inputserverbase.obj
 0001:00014840       ?AttachInputHandler@InputServerBase@Base@@QAEXW4Code@InputPriority@Input@@ABV?$Ptr@VInputHandler@Input@@@@@Z 00415840 f   render_win32.release:inputserverbase.obj
 0001:00014910       ??1?$KeyValuePair@W4Code@InputPriority@Input@@V?$Ptr@VInputHandler@Input@@@@@Util@@QAE@XZ 00415910 f i render_win32.release:inputserverbase.obj
 0001:00014930       ?RemoveInputHandler@InputServerBase@Base@@QAEXABV?$Ptr@VInputHandler@Input@@@@@Z 00415930 f   render_win32.release:inputserverbase.obj
 0001:00014a50       ?BeginFrame@InputServerBase@Base@@UAEXXZ 00415a50 f   render_win32.release:inputserverbase.obj
 0001:00014b00       ?OnFrame@InputServerBase@Base@@UAEXXZ 00415b00 f   render_win32.release:inputserverbase.obj
 0001:00014b10       ?EndFrame@InputServerBase@Base@@QAEXXZ 00415b10 f   render_win32.release:inputserverbase.obj
 0001:00014bc0       ?PutEvent@InputServerBase@Base@@QAEXABVInputEvent@Input@@@Z 00415bc0 f   render_win32.release:inputserverbase.obj
 0001:00014d90       ?ObtainMouseCapture@InputServerBase@Base@@QAEXABV?$Ptr@VInputHandler@Input@@@@@Z 00415d90 f   render_win32.release:inputserverbase.obj
 0001:00014e10       ?ReleaseMouseCapture@InputServerBase@Base@@QAEXABV?$Ptr@VInputHandler@Input@@@@@Z 00415e10 f   render_win32.release:inputserverbase.obj
 0001:00014e70       ?GetMouseCaptureHandler@InputServerBase@Base@@QBEABV?$Ptr@VInputHandler@Input@@@@XZ 00415e70 f   render_win32.release:inputserverbase.obj
 0001:00014e90       ?ClearMouseCapture@InputServerBase@Base@@QAEXXZ 00415e90 f   render_win32.release:inputserverbase.obj
 0001:00014ee0       ?ClearKeyboardCapture@InputServerBase@Base@@QAEXXZ 00415ee0 f   render_win32.release:inputserverbase.obj
 0001:00014f30       ?ClearCapture@InputServerBase@Base@@QAEXXZ 00415f30 f   render_win32.release:inputserverbase.obj
 0001:00014f50       ?ObtainKeyboardCapture@InputServerBase@Base@@QAEXABV?$Ptr@VInputHandler@Input@@@@@Z 00415f50 f   render_win32.release:inputserverbase.obj
 0001:00014fd0       ?ReleaseKeyboardCapture@InputServerBase@Base@@QAEXABV?$Ptr@VInputHandler@Input@@@@@Z 00415fd0 f   render_win32.release:inputserverbase.obj
 0001:00015030       ?GetKeyboardCaptureHandler@InputServerBase@Base@@QBEABV?$Ptr@VInputHandler@Input@@@@XZ 00416030 f   render_win32.release:inputserverbase.obj
 0001:00015050       ?GetDefaultGamePad@InputServerBase@Base@@QBE?AV?$Ptr@VGamePad@Input@@@@H@Z 00416050 f   render_win32.release:inputserverbase.obj
 0001:000150f0       ??0?$Array@V?$KeyValuePair@W4Code@InputPriority@Input@@V?$Ptr@VInputHandler@Input@@@@@Util@@@Util@@QAE@XZ 004160f0 f i render_win32.release:inputserverbase.obj
 0001:00015130       ??1?$Array@V?$KeyValuePair@W4Code@InputPriority@Input@@V?$Ptr@VInputHandler@Input@@@@@Util@@@Util@@QAE@XZ 00416130 f i render_win32.release:inputserverbase.obj
 0001:00015150       ??A?$Array@V?$KeyValuePair@W4Code@InputPriority@Input@@V?$Ptr@VInputHandler@Input@@@@@Util@@@Util@@QBEAAV?$KeyValuePair@W4Code@InputPriority@Input@@V?$Ptr@VInputHandler@Input@@@@@1@H@Z 00416150 f i render_win32.release:inputserverbase.obj
 0001:000151a0       ?Size@?$Array@V?$KeyValuePair@W4Code@InputPriority@Input@@V?$Ptr@VInputHandler@Input@@@@@Util@@@Util@@QBEHXZ 004161a0 f i render_win32.release:inputserverbase.obj
 0001:000151c0       ?EraseIndex@?$Array@V?$KeyValuePair@W4Code@InputPriority@Input@@V?$Ptr@VInputHandler@Input@@@@@Util@@@Util@@QAEXH@Z 004161c0 f i render_win32.release:inputserverbase.obj
 0001:00015240       ?InsertSorted@?$Array@V?$KeyValuePair@W4Code@InputPriority@Input@@V?$Ptr@VInputHandler@Input@@@@@Util@@@Util@@QAEHABV?$KeyValuePair@W4Code@InputPriority@Input@@V?$Ptr@VInputHandler@Input@@@@@2@@Z 00416240 f i render_win32.release:inputserverbase.obj
 0001:000154b0       ?Clear@?$Array@V?$KeyValuePair@W4Code@InputPriority@Input@@V?$Ptr@VInputHandler@Input@@@@@Util@@@Util@@QAEXXZ 004164b0 f i render_win32.release:inputserverbase.obj
 0001:00015500       ??0?$Ptr@VInputHandler@Input@@@@QAE@XZ 00416500 f i render_win32.release:inputserverbase.obj
 0001:00015520       ??1?$Ptr@VInputHandler@Input@@@@QAE@XZ 00416520 f i render_win32.release:inputserverbase.obj
 0001:00015550       ??4?$Ptr@VInputHandler@Input@@@@QAEXPAVInputHandler@Input@@@Z 00416550 f i render_win32.release:inputserverbase.obj
 0001:000155b0       ??4?$Ptr@VInputHandler@Input@@@@QAEXABV0@@Z 004165b0 f i render_win32.release:inputserverbase.obj
 0001:00015610       ??8?$Ptr@VInputHandler@Input@@@@QBE_NABV0@@Z 00416610 f i render_win32.release:inputserverbase.obj
 0001:00015630       ??9?$Ptr@VInputHandler@Input@@@@QBE_NABV0@@Z 00416630 f i render_win32.release:inputserverbase.obj
 0001:00015650       ??C?$Ptr@VInputHandler@Input@@@@QBEPAVInputHandler@Input@@XZ 00416650 f i render_win32.release:inputserverbase.obj
 0001:00015690       ?isvalid@?$Ptr@VInputHandler@Input@@@@QBE_NXZ 00416690 f i render_win32.release:inputserverbase.obj
 0001:000156b0       ??0?$Ptr@VKeyboard@Input@@@@QAE@XZ 004166b0 f i render_win32.release:inputserverbase.obj
 0001:000156d0       ??1?$Ptr@VKeyboard@Input@@@@QAE@XZ 004166d0 f i render_win32.release:inputserverbase.obj
 0001:00015700       ??4?$Ptr@VKeyboard@Input@@@@QAEXPAVKeyboard@Input@@@Z 00416700 f i render_win32.release:inputserverbase.obj
 0001:00015760       ??0?$Ptr@VMouse@Input@@@@QAE@XZ 00416760 f i render_win32.release:inputserverbase.obj
 0001:00015780       ??1?$Ptr@VMouse@Input@@@@QAE@XZ 00416780 f i render_win32.release:inputserverbase.obj
 0001:000157b0       ??4?$Ptr@VMouse@Input@@@@QAEXPAVMouse@Input@@@Z 004167b0 f i render_win32.release:inputserverbase.obj
 0001:00015810       ??0?$FixedArray@V?$Ptr@VGamePad@Input@@@@@Util@@QAE@H@Z 00416810 f i render_win32.release:inputserverbase.obj
 0001:00015840       ??1?$FixedArray@V?$Ptr@VGamePad@Input@@@@@Util@@QAE@XZ 00416840 f i render_win32.release:inputserverbase.obj
 0001:00015860       ??A?$FixedArray@V?$Ptr@VGamePad@Input@@@@@Util@@QBEAAV?$Ptr@VGamePad@Input@@@@H@Z 00416860 f i render_win32.release:inputserverbase.obj
 0001:000158b0       ?Fill@?$FixedArray@V?$Ptr@VGamePad@Input@@@@@Util@@QAEXABV?$Ptr@VGamePad@Input@@@@@Z 004168b0 f i render_win32.release:inputserverbase.obj
 0001:00015900       ??0?$KeyValuePair@W4Code@InputPriority@Input@@V?$Ptr@VInputHandler@Input@@@@@Util@@QAE@ABW4Code@InputPriority@Input@@ABV?$Ptr@VInputHandler@Input@@@@@Z 00416900 f i render_win32.release:inputserverbase.obj
 0001:00015930       ?Value@?$KeyValuePair@W4Code@InputPriority@Input@@V?$Ptr@VInputHandler@Input@@@@@Util@@QAEAAV?$Ptr@VInputHandler@Input@@@@XZ 00416930 f i render_win32.release:inputserverbase.obj
 0001:00015950       ??0?$Ptr@VGamePad@Input@@@@QAE@ABV0@@Z 00416950 f i render_win32.release:inputserverbase.obj
 0001:00015990       ??0?$Ptr@VGamePad@Input@@@@QAE@PAVGamePad@Input@@@Z 00416990 f i render_win32.release:inputserverbase.obj
 0001:000159d0       ?Append@?$Array@V?$KeyValuePair@W4Code@InputPriority@Input@@V?$Ptr@VInputHandler@Input@@@@@Util@@@Util@@QAEXABV?$KeyValuePair@W4Code@InputPriority@Input@@V?$Ptr@VInputHandler@Input@@@@@2@@Z 004169d0 f i render_win32.release:inputserverbase.obj
 0001:00015a50       ?Insert@?$Array@V?$KeyValuePair@W4Code@InputPriority@Input@@V?$Ptr@VInputHandler@Input@@@@@Util@@@Util@@QAEXHABV?$KeyValuePair@W4Code@InputPriority@Input@@V?$Ptr@VInputHandler@Input@@@@@2@@Z 00416a50 f i render_win32.release:inputserverbase.obj
 0001:00015ac0       ?InsertAtEndOfIdenticalRange@?$Array@V?$KeyValuePair@W4Code@InputPriority@Input@@V?$Ptr@VInputHandler@Input@@@@@Util@@@Util@@QAEHHABV?$KeyValuePair@W4Code@InputPriority@Input@@V?$Ptr@VInputHandler@Input@@@@@2@@Z 00416ac0 f i render_win32.release:inputserverbase.obj
 0001:00015b40       ?Destroy@?$Array@V?$KeyValuePair@W4Code@InputPriority@Input@@V?$Ptr@VInputHandler@Input@@@@@Util@@@Util@@AAEXPAV?$KeyValuePair@W4Code@InputPriority@Input@@V?$Ptr@VInputHandler@Input@@@@@2@@Z 00416b40 f i render_win32.release:inputserverbase.obj
 0001:00015b70       ?Delete@?$Array@V?$KeyValuePair@W4Code@InputPriority@Input@@V?$Ptr@VInputHandler@Input@@@@@Util@@@Util@@AAEXXZ 00416b70 f i render_win32.release:inputserverbase.obj
 0001:00015be0       ?Move@?$Array@V?$KeyValuePair@W4Code@InputPriority@Input@@V?$Ptr@VInputHandler@Input@@@@@Util@@@Util@@AAEXHH@Z 00416be0 f i render_win32.release:inputserverbase.obj
 0001:00015d70       ??O?$KeyValuePair@W4Code@InputPriority@Input@@V?$Ptr@VInputHandler@Input@@@@@Util@@QBE_NABV01@@Z 00416d70 f i render_win32.release:inputserverbase.obj
 0001:00015d90       ??M?$KeyValuePair@W4Code@InputPriority@Input@@V?$Ptr@VInputHandler@Input@@@@@Util@@QBE_NABV01@@Z 00416d90 f i render_win32.release:inputserverbase.obj
 0001:00015db0       ??0?$Ptr@VInputHandler@Input@@@@QAE@ABV0@@Z 00416db0 f i render_win32.release:inputserverbase.obj
 0001:00015df0       ?Delete@?$FixedArray@V?$Ptr@VGamePad@Input@@@@@Util@@AAEXXZ 00416df0 f i render_win32.release:inputserverbase.obj
 0001:00015e50       ?Alloc@?$FixedArray@V?$Ptr@VGamePad@Input@@@@@Util@@AAEXH@Z 00416e50 f i render_win32.release:inputserverbase.obj
 0001:00015f20       ??4?$Ptr@VGamePad@Input@@@@QAEXABV0@@Z 00416f20 f i render_win32.release:inputserverbase.obj
 0001:00015f80       ??_G?$KeyValuePair@W4Code@InputPriority@Input@@V?$Ptr@VInputHandler@Input@@@@@Util@@QAEPAXI@Z 00416f80 f i render_win32.release:inputserverbase.obj
 0001:00015fc0       ??_E?$KeyValuePair@W4Code@InputPriority@Input@@V?$Ptr@VInputHandler@Input@@@@@Util@@QAEPAXI@Z 00416fc0 f i render_win32.release:inputserverbase.obj
 0001:00016060       ??_E?$Ptr@VGamePad@Input@@@@QAEPAXI@Z 00417060 f i render_win32.release:inputserverbase.obj
 0001:00016100       ?Grow@?$Array@V?$KeyValuePair@W4Code@InputPriority@Input@@V?$Ptr@VInputHandler@Input@@@@@Util@@@Util@@AAEXXZ 00417100 f i render_win32.release:inputserverbase.obj
 0001:00016180       ??4?$KeyValuePair@W4Code@InputPriority@Input@@V?$Ptr@VInputHandler@Input@@@@@Util@@QAEXABV01@@Z 00417180 f i render_win32.release:inputserverbase.obj
 0001:000161b0       ??9?$KeyValuePair@W4Code@InputPriority@Input@@V?$Ptr@VInputHandler@Input@@@@@Util@@QBE_NABV01@@Z 004171b0 f i render_win32.release:inputserverbase.obj
 0001:000161d0       ??0?$Ptr@VGamePad@Input@@@@QAE@XZ 004171d0 f i render_win32.release:inputserverbase.obj
 0001:000161f0       ?GrowTo@?$Array@V?$KeyValuePair@W4Code@InputPriority@Input@@V?$Ptr@VInputHandler@Input@@@@@Util@@@Util@@AAEXH@Z 004171f0 f i render_win32.release:inputserverbase.obj
 0001:00016310       ??0?$KeyValuePair@W4Code@InputPriority@Input@@V?$Ptr@VInputHandler@Input@@@@@Util@@QAE@XZ 00417310 f i render_win32.release:inputserverbase.obj
 0001:00016330       ?set@float2@Math@@QAEXMM@Z 00417330 f i render_win32.release:win32inputserver.obj
 0001:00016350       ?x@float2@Math@@QAEAAMXZ   00417350 f i render_win32.release:win32inputserver.obj
 0001:00016360       ?y@float2@Math@@QAEAAMXZ   00417360 f i render_win32.release:win32inputserver.obj
 0001:00016380       ??2Win32InputServer@Win32@@SAPAXI@Z 00417380 f i render_win32.release:win32inputserver.obj
 0001:00016390       ??3Win32InputServer@Win32@@SAXPAX@Z 00417390 f i render_win32.release:win32inputserver.obj
 0001:000163b0       ?SetPlayerIndex@GamePadBase@Base@@QAEXH@Z 004173b0 f i render_win32.release:win32inputserver.obj
 0001:000163f0       ?Instance@Display@Graphics@@SAPAV12@XZ 004173f0 f i render_win32.release:win32inputserver.obj
 0001:00016430       ?GetRtti@Win32InputServer@Win32@@UBEPAVRtti@Core@@XZ 00417430 f   render_win32.release:win32inputserver.obj
 0001:00016440       ?FactoryCreator@Win32InputServer@Win32@@SAPAVRefCounted@Core@@XZ 00417440 f   render_win32.release:win32inputserver.obj
 0001:00016450       ?Create@Win32InputServer@Win32@@SAPAV12@XZ 00417450 f   render_win32.release:win32inputserver.obj
 0001:00016490       ?RegisterWithFactory@Win32InputServer@Win32@@SA_NXZ 00417490 f   render_win32.release:win32inputserver.obj
 0001:00016590       ??0Win32InputServer@Win32@@QAE@XZ 00417590 f   render_win32.release:win32inputserver.obj
 0001:00016610       ??_GWin32InputServer@Win32@@UAEPAXI@Z 00417610 f i render_win32.release:win32inputserver.obj
 0001:00016610       ??_EWin32InputServer@Win32@@UAEPAXI@Z 00417610 f i  CIL library: CIL module
 0001:00016640       ??1Win32InputServer@Win32@@UAE@XZ 00417640 f   render_win32.release:win32inputserver.obj
 0001:000166c0       ?Open@Win32InputServer@Win32@@UAEXXZ 004176c0 f   render_win32.release:win32inputserver.obj
 0001:00016850       ?Close@Win32InputServer@Win32@@UAEXXZ 00417850 f   render_win32.release:win32inputserver.obj
 0001:000168e0       ?OnFrame@Win32InputServer@Win32@@UAEXXZ 004178e0 f   render_win32.release:win32inputserver.obj
 0001:00016910       ?OpenDInputMouse@Win32InputServer@Win32@@IAE_NXZ 00417910 f   render_win32.release:win32inputserver.obj
 0001:00016b50       ?CloseDInputMouse@Win32InputServer@Win32@@IAEXXZ 00417b50 f   render_win32.release:win32inputserver.obj
 0001:00016bf0       ?ReadDInputMouse@Win32InputServer@Win32@@IAEXXZ 00417bf0 f   render_win32.release:win32inputserver.obj
 0001:00016d80       ??0?$Ptr@VWin32InputDisplayEventHandler@Win32@@@@QAE@XZ 00417d80 f i render_win32.release:win32inputserver.obj
 0001:00016da0       ??1?$Ptr@VWin32InputDisplayEventHandler@Win32@@@@QAE@XZ 00417da0 f i render_win32.release:win32inputserver.obj
 0001:00016dd0       ??4?$Ptr@VWin32InputDisplayEventHandler@Win32@@@@QAEXPAVWin32InputDisplayEventHandler@Win32@@@Z 00417dd0 f i render_win32.release:win32inputserver.obj
 0001:00016e30       ??C?$Ptr@VWin32InputDisplayEventHandler@Win32@@@@QBEPAVWin32InputDisplayEventHandler@Win32@@XZ 00417e30 f i render_win32.release:win32inputserver.obj
 0001:00016e70       ??$upcast@VThreadSafeDisplayEventHandler@CoreGraphics@@@?$Ptr@VWin32InputDisplayEventHandler@Win32@@@@QBEABV?$Ptr@VThreadSafeDisplayEventHandler@CoreGraphics@@@@XZ 00417e70 f i render_win32.release:win32inputserver.obj
 0001:00016e80       ??$upcast@VInputHandler@Input@@@?$Ptr@VKeyboard@Input@@@@QBEABV?$Ptr@VInputHandler@Input@@@@XZ 00417e80 f i render_win32.release:win32inputserver.obj
 0001:00016e90       ??$upcast@VInputHandler@Input@@@?$Ptr@VMouse@Input@@@@QBEABV?$Ptr@VInputHandler@Input@@@@XZ 00417e90 f i render_win32.release:win32inputserver.obj
 0001:00016ea0       ??4?$Ptr@VGamePad@Input@@@@QAEXPAVGamePad@Input@@@Z 00417ea0 f i render_win32.release:win32inputserver.obj
 0001:00016f00       ??$upcast@VInputHandler@Input@@@?$Ptr@VGamePad@Input@@@@QBEABV?$Ptr@VInputHandler@Input@@@@XZ 00417f00 f i render_win32.release:win32inputserver.obj
 0001:00016f10       ??_E?$Ptr@VResourceMapper@Resources@@@@QAEPAXI@Z 00417f10 f i render_win32.release:win32inputserver.obj
 0001:00016fb0       ??1?$Ptr@VResourceMapper@Resources@@@@QAE@XZ 00417fb0 f i render_win32.release:win32inputserver.obj
 0001:00016fe0       ?Free@Win360Heap@Win360@@QAEXPAX@Z 00417fe0 f i render_win32.release:display.obj
 0001:00017060       ??0DisplayMode@CoreGraphics@@QAE@XZ 00418060 f i render_win32.release:display.obj
 0001:000170b0       ??0Win32Guid@Win32@@QAE@ABV01@@Z 004180b0 f i render_win32.release:display.obj
 0001:000170e0       ?DisplayMode@DisplaySettings@Graphics@@QAEAAV0CoreGraphics@@XZ 004180e0 f i render_win32.release:display.obj
 0001:00017100       ?GetAntiAliasQuality@DisplaySettings@Graphics@@QBE?AW4Code@AntiAliasQuality@CoreGraphics@@XZ 00418100 f i render_win32.release:display.obj
 0001:00017120       ?SetAdapter@DisplaySettings@Graphics@@QAEXW4Code@Adapter@CoreGraphics@@@Z 00418120 f i render_win32.release:display.obj
 0001:00017140       ?GetAdapter@DisplaySettings@Graphics@@QBE?AW4Code@Adapter@CoreGraphics@@XZ 00418140 f i render_win32.release:display.obj
 0001:00017150       ?SetFullscreen@DisplaySettings@Graphics@@QAEX_N@Z 00418150 f i render_win32.release:display.obj
 0001:00017170       ?IsAutoAdjustSize@DisplaySettings@Graphics@@QBE_NXZ 00418170 f i render_win32.release:display.obj
 0001:00017190       ?IsFullscreen@DisplaySettings@Graphics@@QBE_NXZ 00418190 f i render_win32.release:display.obj
 0001:000171b0       ?IsDisplayModeSwitchEnabled@DisplaySettings@Graphics@@QBE_NXZ 004181b0 f i render_win32.release:display.obj
 0001:000171d0       ?IsTripleBufferingEnabled@DisplaySettings@Graphics@@QBE_NXZ 004181d0 f i render_win32.release:display.obj
 0001:000171f0       ?IsAlwaysOnTop@DisplaySettings@Graphics@@QBE_NXZ 004181f0 f i render_win32.release:display.obj
 0001:00017210       ?IsVerticalSyncEnabled@DisplaySettings@Graphics@@QBE_NXZ 00418210 f i render_win32.release:display.obj
 0001:00017230       ?GetIconName@DisplaySettings@Graphics@@QBEABVString@Util@@XZ 00418230 f i render_win32.release:display.obj
 0001:00017250       ?GetWindowTitle@DisplaySettings@Graphics@@QBEABVString@Util@@XZ 00418250 f i render_win32.release:display.obj
 0001:00017270       ??2Display@Graphics@@SAPAXI@Z 00418270 f i render_win32.release:display.obj
 0001:00017280       ??3Display@Graphics@@SAXPAX@Z 00418280 f i render_win32.release:display.obj
 0001:000172a0       ??3Blob@Util@@SAXPAX@Z     004182a0 f i render_win32.release:display.obj
 0001:000172c0       ?IsValid@Blob@Util@@QBE_NXZ 004182c0 f i render_win32.release:display.obj
 0001:000172e0       ?Delete@Blob@Util@@AAEXXZ  004182e0 f i render_win32.release:display.obj
 0001:000173c0       ??1Blob@Util@@QAE@XZ       004183c0 f i render_win32.release:display.obj
 0001:000173e0       ?Handled@Message@Messaging@@QBE_NXZ 004183e0 f i render_win32.release:display.obj
 0001:00017400       ?SetAdapter@SetupGraphics@Graphics@@QAEXABW4Code@Adapter@CoreGraphics@@@Z 00418400 f i render_win32.release:display.obj
 0001:00017440       ?SetDisplayMode@SetupGraphics@Graphics@@QAEXABVDisplayMode@CoreGraphics@@@Z 00418440 f i render_win32.release:display.obj
 0001:000174a0       ?SetAntiAliasQuality@SetupGraphics@Graphics@@QAEXABW4Code@AntiAliasQuality@CoreGraphics@@@Z 004184a0 f i render_win32.release:display.obj
 0001:000174e0       ?SetFullscreen@SetupGraphics@Graphics@@QAEX_N@Z 004184e0 f i render_win32.release:display.obj
 0001:00017520       ?SetAutoAdjustSize@SetupGraphics@Graphics@@QAEX_N@Z 00418520 f i render_win32.release:display.obj
 0001:00017560       ?SetDisplayModeSwitchEnabled@SetupGraphics@Graphics@@QAEX_N@Z 00418560 f i render_win32.release:display.obj
 0001:000175a0       ?SetTripleBufferingEnabled@SetupGraphics@Graphics@@QAEX_N@Z 004185a0 f i render_win32.release:display.obj
 0001:000175e0       ?SetAlwaysOnTop@SetupGraphics@Graphics@@QAEX_N@Z 004185e0 f i render_win32.release:display.obj
 0001:00017620       ?SetVerticalSyncEnabled@SetupGraphics@Graphics@@QAEX_N@Z 00418620 f i render_win32.release:display.obj
 0001:00017660       ?SetIconName@SetupGraphics@Graphics@@QAEXABVString@Util@@@Z 00418660 f i render_win32.release:display.obj
 0001:000176d0       ?SetWindowTitle@SetupGraphics@Graphics@@QAEXABVString@Util@@@Z 004186d0 f i render_win32.release:display.obj
 0001:00017740       ?SetParentWindow@SetupGraphics@Graphics@@QAEXPAX@Z 00418740 f i render_win32.release:display.obj
 0001:00017780       ?SetResourceMappers@SetupGraphics@Graphics@@QAEXABV?$Array@V?$Ptr@VResourceMapper@Resources@@@@@Util@@@Z 00418780 f i render_win32.release:display.obj
 0001:000177c0       ?GetActualDisplayMode@SetupGraphics@Graphics@@QBEABVDisplayMode@CoreGraphics@@XZ 004187c0 f i render_win32.release:display.obj
 0001:00017800       ?GetActualFullscreen@SetupGraphics@Graphics@@QBE_NXZ 00418800 f i render_win32.release:display.obj
 0001:00017840       ?GetActualAdapter@SetupGraphics@Graphics@@QBEABW4Code@Adapter@CoreGraphics@@XZ 00418840 f i render_win32.release:display.obj
 0001:00017880       ?SetAdapter@AdapterExists@Graphics@@QAEXABW4Code@Adapter@CoreGraphics@@@Z 00418880 f i render_win32.release:display.obj
 0001:000178c0       ?GetResult@AdapterExists@Graphics@@QBE_NXZ 004188c0 f i render_win32.release:display.obj
 0001:00017900       ?SetAdapter@GetAvailableDisplayModes@Graphics@@QAEXABW4Code@Adapter@CoreGraphics@@@Z 00418900 f i render_win32.release:display.obj
 0001:00017940       ?SetPixelFormat@GetAvailableDisplayModes@Graphics@@QAEXABW4Code@PixelFormat@CoreGraphics@@@Z 00418940 f i render_win32.release:display.obj
 0001:00017980       ?GetResult@GetAvailableDisplayModes@Graphics@@QBEABV?$Array@VDisplayMode@CoreGraphics@@@Util@@XZ 00418980 f i render_win32.release:display.obj
 0001:000179c0       ?SetAdapter@SupportsDisplayMode@Graphics@@QAEXABW4Code@Adapter@CoreGraphics@@@Z 004189c0 f i render_win32.release:display.obj
 0001:00017a00       ?SetDisplayMode@SupportsDisplayMode@Graphics@@QAEXABVDisplayMode@CoreGraphics@@@Z 00418a00 f i render_win32.release:display.obj
 0001:00017a60       ?GetResult@SupportsDisplayMode@Graphics@@QBE_NXZ 00418a60 f i render_win32.release:display.obj
 0001:00017aa0       ?SetAdapter@GetCurrentAdapterDisplayMode@Graphics@@QAEXABW4Code@Adapter@CoreGraphics@@@Z 00418aa0 f i render_win32.release:display.obj
 0001:00017ae0       ?GetResult@GetCurrentAdapterDisplayMode@Graphics@@QBEABVDisplayMode@CoreGraphics@@XZ 00418ae0 f i render_win32.release:display.obj
 0001:00017b20       ?SetAdapter@GetAdapterInfo@Graphics@@QAEXABW4Code@Adapter@CoreGraphics@@@Z 00418b20 f i render_win32.release:display.obj
 0001:00017b60       ?GetResult@GetAdapterInfo@Graphics@@QBEABVAdapterInfo@CoreGraphics@@XZ 00418b60 f i render_win32.release:display.obj
 0001:00017ba0       ??1AdapterInfo@CoreGraphics@@QAE@XZ 00418ba0 f i render_win32.release:display.obj
 0001:00017c80       ?SetHandler@AttachDisplayEventHandler@Graphics@@QAEXABV?$Ptr@VThreadSafeDisplayEventHandler@CoreGraphics@@@@@Z 00418c80 f i render_win32.release:display.obj
 0001:00017cc0       ?SetHandler@RemoveDisplayEventHandler@Graphics@@QAEXABV?$Ptr@VThreadSafeDisplayEventHandler@CoreGraphics@@@@@Z 00418cc0 f i render_win32.release:display.obj
 0001:00017d00       ?SetHandler@AttachRenderEventHandler@Graphics@@QAEXABV?$Ptr@VThreadSafeRenderEventHandler@CoreGraphics@@@@@Z 00418d00 f i render_win32.release:display.obj
 0001:00017d40       ?SetHandler@RemoveRenderEventHandler@Graphics@@QAEXABV?$Ptr@VThreadSafeRenderEventHandler@CoreGraphics@@@@@Z 00418d40 f i render_win32.release:display.obj
 0001:00017d80       ?Instance@GraphicsInterface@Graphics@@SAPAV12@XZ 00418d80 f i render_win32.release:display.obj
 0001:00017db0       ?GetRtti@Display@Graphics@@UBEPAVRtti@Core@@XZ 00418db0 f   render_win32.release:display.obj
 0001:00017dc0       ?FactoryCreator@Display@Graphics@@SAPAVRefCounted@Core@@XZ 00418dc0 f   render_win32.release:display.obj
 0001:00017dd0       ?Create@Display@Graphics@@SAPAV12@XZ 00418dd0 f   render_win32.release:display.obj
 0001:00017e10       ?RegisterWithFactory@Display@Graphics@@SA_NXZ 00418e10 f   render_win32.release:display.obj
 0001:00017f10       ??0Display@Graphics@@QAE@XZ 00418f10 f   render_win32.release:display.obj
 0001:00017fa0       ??_EDisplay@Graphics@@UAEPAXI@Z 00418fa0 f i  CIL library: CIL module
 0001:00017fa0       ??_GDisplay@Graphics@@UAEPAXI@Z 00418fa0 f i render_win32.release:display.obj
 0001:00017fd0       ??1DisplaySettings@Graphics@@QAE@XZ 00418fd0 f i render_win32.release:display.obj
 0001:00018070       ??1Display@Graphics@@UAE@XZ 00419070 f   render_win32.release:display.obj
 0001:00018100       ?Open@Display@Graphics@@QAEXXZ 00419100 f   render_win32.release:display.obj
 0001:00018600       ?Close@Display@Graphics@@QAEXXZ 00419600 f   render_win32.release:display.obj
 0001:00018640       ?AdapterExists@Display@Graphics@@QAE_NW4Code@Adapter@CoreGraphics@@@Z 00419640 f   render_win32.release:display.obj
 0001:00018740       ?GetAvailableDisplayModes@Display@Graphics@@QAE?AV?$Array@VDisplayMode@CoreGraphics@@@Util@@W4Code@Adapter@CoreGraphics@@W45PixelFormat@7@@Z 00419740 f   render_win32.release:display.obj
 0001:00018880       ?SupportsDisplayMode@Display@Graphics@@QAE_NW4Code@Adapter@CoreGraphics@@ABVDisplayMode@5@@Z 00419880 f   render_win32.release:display.obj
 0001:000189e0       ?AdjustSize@Display@Graphics@@QAEXXZ 004199e0 f   render_win32.release:display.obj
 0001:00018a40       ?GetCurrentAdapterDisplayMode@Display@Graphics@@QAE?AVDisplayMode@CoreGraphics@@W4Code@Adapter@4@@Z 00419a40 f   render_win32.release:display.obj
 0001:00018b70       ?GetAdapterInfo@Display@Graphics@@QAE?AVAdapterInfo@CoreGraphics@@W4Code@Adapter@4@@Z 00419b70 f   render_win32.release:display.obj
 0001:00018c80       ??0AdapterInfo@CoreGraphics@@QAE@ABV01@@Z 00419c80 f i render_win32.release:display.obj
 0001:00018e10       ?AttachDisplayEventHandler@Display@Graphics@@QAEXABV?$Ptr@VThreadSafeDisplayEventHandler@CoreGraphics@@@@@Z 00419e10 f   render_win32.release:display.obj
 0001:00018ed0       ?RemoveDisplayEventHandler@Display@Graphics@@QAEXABV?$Ptr@VThreadSafeDisplayEventHandler@CoreGraphics@@@@@Z 00419ed0 f   render_win32.release:display.obj
 0001:00018f90       ?AttachRenderEventHandler@Display@Graphics@@QAEXABV?$Ptr@VThreadSafeRenderEventHandler@CoreGraphics@@@@@Z 00419f90 f   render_win32.release:display.obj
 0001:00019050       ?RemoveRenderEventHandler@Display@Graphics@@QAEXABV?$Ptr@VThreadSafeRenderEventHandler@CoreGraphics@@@@@Z 0041a050 f   render_win32.release:display.obj
 0001:00019110       ??0?$Array@V?$Ptr@VResourceMapper@Resources@@@@@Util@@QAE@XZ 0041a110 f i render_win32.release:display.obj
 0001:00019150       ??1?$Array@V?$Ptr@VResourceMapper@Resources@@@@@Util@@QAE@XZ 0041a150 f i render_win32.release:display.obj
 0001:00019170       ??4?$Array@V?$Ptr@VResourceMapper@Resources@@@@@Util@@QAEXABV01@@Z 0041a170 f i render_win32.release:display.obj
 0001:00019260       ?IsEmpty@?$Array@V?$Ptr@VResourceMapper@Resources@@@@@Util@@QBE_NXZ 0041a260 f i render_win32.release:display.obj
 0001:00019280       ?Clear@?$Array@V?$Ptr@VResourceMapper@Resources@@@@@Util@@QAEXXZ 0041a280 f i render_win32.release:display.obj
 0001:000192d0       ??0?$Array@VDisplayMode@CoreGraphics@@@Util@@QAE@ABV01@@Z 0041a2d0 f i render_win32.release:display.obj
 0001:00019320       ??1?$Array@VDisplayMode@CoreGraphics@@@Util@@QAE@XZ 0041a320 f i render_win32.release:display.obj
 0001:00019340       ??4?$Ptr@VThreadSafeDisplayEventHandler@CoreGraphics@@@@QAEXABV0@@Z 0041a340 f i render_win32.release:display.obj
 0001:000193a0       ??4?$Ptr@VThreadSafeRenderEventHandler@CoreGraphics@@@@QAEXABV0@@Z 0041a3a0 f i render_win32.release:display.obj
 0001:00019400       ??4?$Ptr@VResourceMapper@Resources@@@@QAEXABV0@@Z 0041a400 f i render_win32.release:display.obj
 0001:00019460       ??0?$Ptr@VSetupGraphics@Graphics@@@@QAE@PAVSetupGraphics@Graphics@@@Z 0041a460 f i render_win32.release:display.obj
 0001:000194a0       ??1?$Ptr@VSetupGraphics@Graphics@@@@QAE@XZ 0041a4a0 f i render_win32.release:display.obj
 0001:000194d0       ??C?$Ptr@VSetupGraphics@Graphics@@@@QBEPAVSetupGraphics@Graphics@@XZ 0041a4d0 f i render_win32.release:display.obj
 0001:00019510       ??$cast@VMessage@Messaging@@@?$Ptr@VSetupGraphics@Graphics@@@@QBEABV?$Ptr@VMessage@Messaging@@@@XZ 0041a510 f i render_win32.release:display.obj
 0001:00019520       ??$SendWait@VMessage@Messaging@@@AsyncPort@Messaging@@QAEXABV?$Ptr@VMessage@Messaging@@@@@Z 0041a520 f i render_win32.release:display.obj
 0001:00019540       ??0?$Ptr@VAdapterExists@Graphics@@@@QAE@PAVAdapterExists@Graphics@@@Z 0041a540 f i render_win32.release:display.obj
 0001:00019580       ??1?$Ptr@VAdapterExists@Graphics@@@@QAE@XZ 0041a580 f i render_win32.release:display.obj
 0001:000195b0       ??C?$Ptr@VAdapterExists@Graphics@@@@QBEPAVAdapterExists@Graphics@@XZ 0041a5b0 f i render_win32.release:display.obj
 0001:000195f0       ??$cast@VMessage@Messaging@@@?$Ptr@VAdapterExists@Graphics@@@@QBEABV?$Ptr@VMessage@Messaging@@@@XZ 0041a5f0 f i render_win32.release:display.obj
 0001:00019600       ??0?$Ptr@VGetAvailableDisplayModes@Graphics@@@@QAE@PAVGetAvailableDisplayModes@Graphics@@@Z 0041a600 f i render_win32.release:display.obj
 0001:00019640       ??1?$Ptr@VGetAvailableDisplayModes@Graphics@@@@QAE@XZ 0041a640 f i render_win32.release:display.obj
 0001:00019670       ??C?$Ptr@VGetAvailableDisplayModes@Graphics@@@@QBEPAVGetAvailableDisplayModes@Graphics@@XZ 0041a670 f i render_win32.release:display.obj
 0001:000196b0       ??$cast@VMessage@Messaging@@@?$Ptr@VGetAvailableDisplayModes@Graphics@@@@QBEABV?$Ptr@VMessage@Messaging@@@@XZ 0041a6b0 f i render_win32.release:display.obj
 0001:000196c0       ??0?$Ptr@VSupportsDisplayMode@Graphics@@@@QAE@PAVSupportsDisplayMode@Graphics@@@Z 0041a6c0 f i render_win32.release:display.obj
 0001:00019700       ??1?$Ptr@VSupportsDisplayMode@Graphics@@@@QAE@XZ 0041a700 f i render_win32.release:display.obj
 0001:00019730       ??C?$Ptr@VSupportsDisplayMode@Graphics@@@@QBEPAVSupportsDisplayMode@Graphics@@XZ 0041a730 f i render_win32.release:display.obj
 0001:00019770       ??$cast@VMessage@Messaging@@@?$Ptr@VSupportsDisplayMode@Graphics@@@@QBEABV?$Ptr@VMessage@Messaging@@@@XZ 0041a770 f i render_win32.release:display.obj
 0001:00019780       ??0?$Ptr@VAdjustDisplaySize@Graphics@@@@QAE@PAVAdjustDisplaySize@Graphics@@@Z 0041a780 f i render_win32.release:display.obj
 0001:000197c0       ??1?$Ptr@VAdjustDisplaySize@Graphics@@@@QAE@XZ 0041a7c0 f i render_win32.release:display.obj
 0001:000197f0       ??$cast@VMessage@Messaging@@@?$Ptr@VAdjustDisplaySize@Graphics@@@@QBEABV?$Ptr@VMessage@Messaging@@@@XZ 0041a7f0 f i render_win32.release:display.obj
 0001:00019800       ??$Send@VMessage@Messaging@@@AsyncPort@Messaging@@QAEXABV?$Ptr@VMessage@Messaging@@@@@Z 0041a800 f i render_win32.release:display.obj
 0001:00019820       ??0?$Ptr@VGetCurrentAdapterDisplayMode@Graphics@@@@QAE@PAVGetCurrentAdapterDisplayMode@Graphics@@@Z 0041a820 f i render_win32.release:display.obj
 0001:00019860       ??1?$Ptr@VGetCurrentAdapterDisplayMode@Graphics@@@@QAE@XZ 0041a860 f i render_win32.release:display.obj
 0001:00019890       ??C?$Ptr@VGetCurrentAdapterDisplayMode@Graphics@@@@QBEPAVGetCurrentAdapterDisplayMode@Graphics@@XZ 0041a890 f i render_win32.release:display.obj
 0001:000198d0       ??$cast@VMessage@Messaging@@@?$Ptr@VGetCurrentAdapterDisplayMode@Graphics@@@@QBEABV?$Ptr@VMessage@Messaging@@@@XZ 0041a8d0 f i render_win32.release:display.obj
 0001:000198e0       ??0?$Ptr@VGetAdapterInfo@Graphics@@@@QAE@PAVGetAdapterInfo@Graphics@@@Z 0041a8e0 f i render_win32.release:display.obj
 0001:00019920       ??1?$Ptr@VGetAdapterInfo@Graphics@@@@QAE@XZ 0041a920 f i render_win32.release:display.obj
 0001:00019950       ??C?$Ptr@VGetAdapterInfo@Graphics@@@@QBEPAVGetAdapterInfo@Graphics@@XZ 0041a950 f i render_win32.release:display.obj
 0001:00019990       ??$cast@VMessage@Messaging@@@?$Ptr@VGetAdapterInfo@Graphics@@@@QBEABV?$Ptr@VMessage@Messaging@@@@XZ 0041a990 f i render_win32.release:display.obj
 0001:000199a0       ??0?$Ptr@VAttachDisplayEventHandler@Graphics@@@@QAE@PAVAttachDisplayEventHandler@Graphics@@@Z 0041a9a0 f i render_win32.release:display.obj
 0001:000199e0       ??1?$Ptr@VAttachDisplayEventHandler@Graphics@@@@QAE@XZ 0041a9e0 f i render_win32.release:display.obj
 0001:00019a10       ??C?$Ptr@VAttachDisplayEventHandler@Graphics@@@@QBEPAVAttachDisplayEventHandler@Graphics@@XZ 0041aa10 f i render_win32.release:display.obj
 0001:00019a50       ??$cast@VMessage@Messaging@@@?$Ptr@VAttachDisplayEventHandler@Graphics@@@@QBEABV?$Ptr@VMessage@Messaging@@@@XZ 0041aa50 f i render_win32.release:display.obj
 0001:00019a60       ??0?$Ptr@VRemoveDisplayEventHandler@Graphics@@@@QAE@PAVRemoveDisplayEventHandler@Graphics@@@Z 0041aa60 f i render_win32.release:display.obj
 0001:00019aa0       ??1?$Ptr@VRemoveDisplayEventHandler@Graphics@@@@QAE@XZ 0041aaa0 f i render_win32.release:display.obj
 0001:00019ad0       ??C?$Ptr@VRemoveDisplayEventHandler@Graphics@@@@QBEPAVRemoveDisplayEventHandler@Graphics@@XZ 0041aad0 f i render_win32.release:display.obj
 0001:00019b10       ??$cast@VMessage@Messaging@@@?$Ptr@VRemoveDisplayEventHandler@Graphics@@@@QBEABV?$Ptr@VMessage@Messaging@@@@XZ 0041ab10 f i render_win32.release:display.obj
 0001:00019b20       ??0?$Ptr@VAttachRenderEventHandler@Graphics@@@@QAE@PAVAttachRenderEventHandler@Graphics@@@Z 0041ab20 f i render_win32.release:display.obj
 0001:00019b60       ??1?$Ptr@VAttachRenderEventHandler@Graphics@@@@QAE@XZ 0041ab60 f i render_win32.release:display.obj
 0001:00019b90       ??C?$Ptr@VAttachRenderEventHandler@Graphics@@@@QBEPAVAttachRenderEventHandler@Graphics@@XZ 0041ab90 f i render_win32.release:display.obj
 0001:00019bd0       ??$cast@VMessage@Messaging@@@?$Ptr@VAttachRenderEventHandler@Graphics@@@@QBEABV?$Ptr@VMessage@Messaging@@@@XZ 0041abd0 f i render_win32.release:display.obj
 0001:00019be0       ??0?$Ptr@VRemoveRenderEventHandler@Graphics@@@@QAE@PAVRemoveRenderEventHandler@Graphics@@@Z 0041abe0 f i render_win32.release:display.obj
 0001:00019c20       ??1?$Ptr@VRemoveRenderEventHandler@Graphics@@@@QAE@XZ 0041ac20 f i render_win32.release:display.obj
 0001:00019c50       ??C?$Ptr@VRemoveRenderEventHandler@Graphics@@@@QBEPAVRemoveRenderEventHandler@Graphics@@XZ 0041ac50 f i render_win32.release:display.obj
 0001:00019c90       ??$cast@VMessage@Messaging@@@?$Ptr@VRemoveRenderEventHandler@Graphics@@@@QBEABV?$Ptr@VMessage@Messaging@@@@XZ 0041ac90 f i render_win32.release:display.obj
 0001:00019ca0       ??1?$KeyValuePair@VStringAtom@Util@@V?$Ptr@VRenderTarget@CoreGraphics@@@@@Util@@QAE@XZ 0041aca0 f i render_win32.release:display.obj
 0001:00019cc0       ??1?$KeyValuePair@VStringAtom@Util@@V?$Ptr@VMultipleRenderTarget@CoreGraphics@@@@@Util@@QAE@XZ 0041acc0 f i render_win32.release:display.obj
 0001:00019ce0       ??1?$KeyValuePair@VStringAtom@Util@@V?$Ptr@VManagedTexture@Resources@@@@@Util@@QAE@XZ 0041ace0 f i render_win32.release:display.obj
 0001:00019d00       ?Destroy@?$Array@V?$Ptr@VResourceMapper@Resources@@@@@Util@@AAEXPAV?$Ptr@VResourceMapper@Resources@@@@@Z 0041ad00 f i render_win32.release:display.obj
 0001:00019d30       ?Copy@?$Array@V?$Ptr@VResourceMapper@Resources@@@@@Util@@AAEXABV12@@Z 0041ad30 f i render_win32.release:display.obj
 0001:00019e60       ?Delete@?$Array@V?$Ptr@VResourceMapper@Resources@@@@@Util@@AAEXXZ 0041ae60 f i render_win32.release:display.obj
 0001:00019ed0       ?Copy@?$Array@VDisplayMode@CoreGraphics@@@Util@@AAEXABV12@@Z 0041aed0 f i render_win32.release:display.obj
 0001:0001a040       ?Delete@?$Array@VDisplayMode@CoreGraphics@@@Util@@AAEXXZ 0041b040 f i render_win32.release:display.obj
 0001:0001a0a0       ??1?$Ptr@VRenderTarget@CoreGraphics@@@@QAE@XZ 0041b0a0 f i render_win32.release:display.obj
 0001:0001a0d0       ??1?$Ptr@VMultipleRenderTarget@CoreGraphics@@@@QAE@XZ 0041b0d0 f i render_win32.release:display.obj
 0001:0001a100       ??1?$Ptr@VManagedTexture@Resources@@@@QAE@XZ 0041b100 f i render_win32.release:display.obj
 0001:0001a130       ??_G?$Ptr@VResourceMapper@Resources@@@@QAEPAXI@Z 0041b130 f i render_win32.release:display.obj
 0001:0001a160       ??_EBlob@Util@@QAEPAXI@Z   0041b160 f i render_win32.release:display.obj
 0001:0001a200       ??_E?$Ptr@VVisibilitySystemBase@Visibility@@@@QAEPAXI@Z 0041b200 f i render_win32.release:display.obj
 0001:0001a2a0       ??_ERenderShape@CoreGraphics@@QAEPAXI@Z 0041b2a0 f i render_win32.release:display.obj
 0001:0001a350       ??_ETextElement@CoreGraphics@@QAEPAXI@Z 0041b350 f i render_win32.release:display.obj
 0001:0001a3f0       ??1RenderShape@CoreGraphics@@QAE@XZ 0041b3f0 f i render_win32.release:display.obj
 0001:0001a410       ??1TextElement@CoreGraphics@@QAE@XZ 0041b410 f i render_win32.release:display.obj
 0001:0001a470       ??0?$Ptr@VResourceMapper@Resources@@@@QAE@XZ 0041b470 f i render_win32.release:display.obj
 0001:0001a490       ??1?$Ptr@VVisibilitySystemBase@Visibility@@@@QAE@XZ 0041b490 f i render_win32.release:display.obj
 0001:0001a4c0       ??1?$Ptr@VMemoryStream@IO@@@@QAE@XZ 0041b4c0 f i render_win32.release:display.obj
 0001:0001a4f0       ??_E?$Ptr@VInternalGraphicsEntity@InternalGraphics@@@@QAEPAXI@Z 0041b4f0 f i render_win32.release:display.obj
 0001:0001a590       ??_E?$Ptr@VShaderVariableInstance@CoreGraphics@@@@QAEPAXI@Z 0041b590 f i render_win32.release:display.obj
 0001:0001a630       ??_E?$Ptr@VFrameBatch@Frame@@@@QAEPAXI@Z 0041b630 f i render_win32.release:display.obj
 0001:0001a6d0       ??_E?$Ptr@VFramePassBase@Frame@@@@QAEPAXI@Z 0041b6d0 f i render_win32.release:display.obj
 0001:0001a770       ??1?$Ptr@VInternalGraphicsEntity@InternalGraphics@@@@QAE@XZ 0041b770 f i render_win32.release:display.obj
 0001:0001a7a0       ??1?$Ptr@VShaderVariableInstance@CoreGraphics@@@@QAE@XZ 0041b7a0 f i render_win32.release:display.obj
 0001:0001a7d0       ??1?$Ptr@VFrameBatch@Frame@@@@QAE@XZ 0041b7d0 f i render_win32.release:display.obj
 0001:0001a800       ??1?$Ptr@VFramePassBase@Frame@@@@QAE@XZ 0041b800 f i render_win32.release:display.obj
 0001:0001a830       ??_E?$Ptr@VModel@Models@@@@QAEPAXI@Z 0041b830 f i render_win32.release:display.obj
 0001:0001a8d0       ??_E?$KeyValuePair@VStringAtom@Util@@V?$Ptr@VRenderTarget@CoreGraphics@@@@@Util@@QAEPAXI@Z 0041b8d0 f i render_win32.release:display.obj
 0001:0001a970       ??_E?$KeyValuePair@VStringAtom@Util@@V?$Ptr@VMultipleRenderTarget@CoreGraphics@@@@@Util@@QAEPAXI@Z 0041b970 f i render_win32.release:display.obj
 0001:0001aa10       ??_E?$KeyValuePair@VStringAtom@Util@@V?$Ptr@VManagedTexture@Resources@@@@@Util@@QAEPAXI@Z 0041ba10 f i render_win32.release:display.obj
 0001:0001aab0       ??1?$Ptr@VModel@Models@@@@QAE@XZ 0041bab0 f i render_win32.release:display.obj
 0001:0001aae0       ??4float2@Math@@QAEXABV01@@Z 0041bae0 f i render_win32.release:win32inputdisplayeventhandler.obj
 0001:0001ab10       ?GetEventCode@DisplayEvent@CoreGraphics@@QBE?AW4Code@12@XZ 0041bb10 f i render_win32.release:win32inputdisplayeventhandler.obj
 0001:0001ab20       ?GetAbsMousePos@DisplayEvent@CoreGraphics@@QBEABVfloat2@Math@@XZ 0041bb20 f i render_win32.release:win32inputdisplayeventhandler.obj
 0001:0001ab40       ?GetNormMousePos@DisplayEvent@CoreGraphics@@QBEABVfloat2@Math@@XZ 0041bb40 f i render_win32.release:win32inputdisplayeventhandler.obj
 0001:0001ab60       ?GetKey@DisplayEvent@CoreGraphics@@QBE?AW4Code@Key@Input@@XZ 0041bb60 f i render_win32.release:win32inputdisplayeventhandler.obj
 0001:0001ab80       ?GetChar@DisplayEvent@CoreGraphics@@QBEEXZ 0041bb80 f i render_win32.release:win32inputdisplayeventhandler.obj
 0001:0001aba0       ?GetMouseButton@DisplayEvent@CoreGraphics@@QBE?AW4Code@MouseButton@Input@@XZ 0041bba0 f i render_win32.release:win32inputdisplayeventhandler.obj
 0001:0001abc0       ??2Win32InputDisplayEventHandler@Win32@@SAPAXI@Z 0041bbc0 f i render_win32.release:win32inputdisplayeventhandler.obj
 0001:0001abd0       ??3Win32InputDisplayEventHandler@Win32@@SAXPAX@Z 0041bbd0 f i render_win32.release:win32inputdisplayeventhandler.obj
 0001:0001abf0       ?SetKey@InputEvent@Input@@QAEXW4Code@Key@2@@Z 0041bbf0 f i render_win32.release:win32inputdisplayeventhandler.obj
 0001:0001ac10       ?SetChar@InputEvent@Input@@QAEXE@Z 0041bc10 f i render_win32.release:win32inputdisplayeventhandler.obj
 0001:0001ac30       ?SetMouseButton@InputEvent@Input@@QAEXW4Code@MouseButton@2@@Z 0041bc30 f i render_win32.release:win32inputdisplayeventhandler.obj
 0001:0001ac50       ?SetAbsMousePos@InputEvent@Input@@QAEXABVfloat2@Math@@@Z 0041bc50 f i render_win32.release:win32inputdisplayeventhandler.obj
 0001:0001ac80       ?SetNormMousePos@InputEvent@Input@@QAEXABVfloat2@Math@@@Z 0041bc80 f i render_win32.release:win32inputdisplayeventhandler.obj
 0001:0001acb0       ?SetQuitRequested@InputServerBase@Base@@QAEX_N@Z 0041bcb0 f i render_win32.release:win32inputdisplayeventhandler.obj
 0001:0001acd0       ?Instance@InputServer@Input@@SAPAV12@XZ 0041bcd0 f i render_win32.release:win32inputdisplayeventhandler.obj
 0001:0001ad00       ?GetRtti@Win32InputDisplayEventHandler@Win32@@UBEPAVRtti@Core@@XZ 0041bd00 f   render_win32.release:win32inputdisplayeventhandler.obj
 0001:0001ad10       ?FactoryCreator@Win32InputDisplayEventHandler@Win32@@SAPAVRefCounted@Core@@XZ 0041bd10 f   render_win32.release:win32inputdisplayeventhandler.obj
 0001:0001ad20       ?Create@Win32InputDisplayEventHandler@Win32@@SAPAV12@XZ 0041bd20 f   render_win32.release:win32inputdisplayeventhandler.obj
 0001:0001ad60       ??0Win32InputDisplayEventHandler@Win32@@QAE@XZ 0041bd60 f i render_win32.release:win32inputdisplayeventhandler.obj
 0001:0001ad80       ??_EWin32InputDisplayEventHandler@Win32@@UAEPAXI@Z 0041bd80 f i  CIL library: CIL module
 0001:0001ad80       ??_GWin32InputDisplayEventHandler@Win32@@UAEPAXI@Z 0041bd80 f i render_win32.release:win32inputdisplayeventhandler.obj
 0001:0001adb0       ??1Win32InputDisplayEventHandler@Win32@@UAE@XZ 0041bdb0 f i render_win32.release:win32inputdisplayeventhandler.obj
 0001:0001add0       ?RegisterWithFactory@Win32InputDisplayEventHandler@Win32@@SA_NXZ 0041bdd0 f   render_win32.release:win32inputdisplayeventhandler.obj
 0001:0001aed0       ?HandleEvent@Win32InputDisplayEventHandler@Win32@@UAE_NABVDisplayEvent@CoreGraphics@@@Z 0041bed0 f   render_win32.release:win32inputdisplayeventhandler.obj
 0001:0001b270       ??2Keyboard@Input@@SAPAXI@Z 0041c270 f i render_win32.release:keyboard.obj
 0001:0001b280       ??3Keyboard@Input@@SAXPAX@Z 0041c280 f i render_win32.release:keyboard.obj
 0001:0001b2a0       ?GetRtti@Keyboard@Input@@UBEPAVRtti@Core@@XZ 0041c2a0 f   render_win32.release:keyboard.obj
 0001:0001b2b0       ?FactoryCreator@Keyboard@Input@@SAPAVRefCounted@Core@@XZ 0041c2b0 f   render_win32.release:keyboard.obj
 0001:0001b2c0       ?Create@Keyboard@Input@@SAPAV12@XZ 0041c2c0 f   render_win32.release:keyboard.obj
 0001:0001b300       ??0Keyboard@Input@@QAE@XZ  0041c300 f i render_win32.release:keyboard.obj
 0001:0001b320       ??_EKeyboard@Input@@UAEPAXI@Z 0041c320 f i  CIL library: CIL module
 0001:0001b320       ??_GKeyboard@Input@@UAEPAXI@Z 0041c320 f i render_win32.release:keyboard.obj
 0001:0001b350       ??1Keyboard@Input@@UAE@XZ  0041c350 f i render_win32.release:keyboard.obj
 0001:0001b370       ?RegisterWithFactory@Keyboard@Input@@SA_NXZ 0041c370 f   render_win32.release:keyboard.obj
 0001:0001b470       ??3Win32Mouse@Win32@@SAXPAX@Z 0041c470 f i render_win32.release:mouse.obj
 0001:0001b490       ??2Mouse@Input@@SAPAXI@Z   0041c490 f i render_win32.release:mouse.obj
 0001:0001b4a0       ??3Mouse@Input@@SAXPAX@Z   0041c4a0 f i render_win32.release:mouse.obj
 0001:0001b4c0       ?GetRtti@Mouse@Input@@UBEPAVRtti@Core@@XZ 0041c4c0 f   render_win32.release:mouse.obj
 0001:0001b4d0       ?FactoryCreator@Mouse@Input@@SAPAVRefCounted@Core@@XZ 0041c4d0 f   render_win32.release:mouse.obj
 0001:0001b4e0       ?Create@Mouse@Input@@SAPAV12@XZ 0041c4e0 f   render_win32.release:mouse.obj
 0001:0001b530       ??0Mouse@Input@@QAE@XZ     0041c530 f i render_win32.release:mouse.obj
 0001:0001b560       ??_EMouse@Input@@UAEPAXI@Z 0041c560 f i  CIL library: CIL module
 0001:0001b560       ??_GMouse@Input@@UAEPAXI@Z 0041c560 f i render_win32.release:mouse.obj
 0001:0001b590       ??0Win32Mouse@Win32@@QAE@XZ 0041c590 f i render_win32.release:mouse.obj
 0001:0001b5b0       ??1Win32Mouse@Win32@@UAE@XZ 0041c5b0 f i render_win32.release:mouse.obj
 0001:0001b5d0       ??1Mouse@Input@@UAE@XZ     0041c5d0 f i render_win32.release:mouse.obj
 0001:0001b5f0       ??_GWin32Mouse@Win32@@UAEPAXI@Z 0041c5f0 f i render_win32.release:mouse.obj
 0001:0001b5f0       ??_EWin32Mouse@Win32@@UAEPAXI@Z 0041c5f0 f i  CIL library: CIL module
 0001:0001b620       ?RegisterWithFactory@Mouse@Input@@SA_NXZ 0041c620 f   render_win32.release:mouse.obj
 0001:0001b720       ??2GamePad@Input@@SAPAXI@Z 0041c720 f i render_win32.release:gamepad.obj
 0001:0001b730       ??3GamePad@Input@@SAXPAX@Z 0041c730 f i render_win32.release:gamepad.obj
 0001:0001b750       ?GetRtti@GamePad@Input@@UBEPAVRtti@Core@@XZ 0041c750 f   render_win32.release:gamepad.obj
 0001:0001b760       ?FactoryCreator@GamePad@Input@@SAPAVRefCounted@Core@@XZ 0041c760 f   render_win32.release:gamepad.obj
 0001:0001b770       ?Create@GamePad@Input@@SAPAV12@XZ 0041c770 f   render_win32.release:gamepad.obj
 0001:0001b7b0       ??0GamePad@Input@@QAE@XZ   0041c7b0 f i render_win32.release:gamepad.obj
 0001:0001b7d0       ??_EGamePad@Input@@UAEPAXI@Z 0041c7d0 f i  CIL library: CIL module
 0001:0001b7d0       ??_GGamePad@Input@@UAEPAXI@Z 0041c7d0 f i render_win32.release:gamepad.obj
 0001:0001b800       ??1GamePad@Input@@UAE@XZ   0041c800 f i render_win32.release:gamepad.obj
 0001:0001b820       ?RegisterWithFactory@GamePad@Input@@SA_NXZ 0041c820 f   render_win32.release:gamepad.obj
 0001:0001b920       ??0float2@Math@@QAE@MM@Z   0041c920 f i render_win32.release:threadsafedisplayeventhandler.obj
 0001:0001b950       ??0DisplayEvent@CoreGraphics@@QAE@XZ 0041c950 f i render_win32.release:threadsafedisplayeventhandler.obj
 0001:0001b9c0       ??0Event@Threading@@QAE@_N@Z 0041c9c0 f i render_win32.release:threadsafedisplayeventhandler.obj
 0001:0001ba10       ??2ThreadSafeDisplayEventHandler@CoreGraphics@@SAPAXI@Z 0041ca10 f i render_win32.release:threadsafedisplayeventhandler.obj
 0001:0001ba20       ??3ThreadSafeDisplayEventHandler@CoreGraphics@@SAXPAX@Z 0041ca20 f i render_win32.release:threadsafedisplayeventhandler.obj
 0001:0001ba40       ?GetRtti@ThreadSafeDisplayEventHandler@CoreGraphics@@UBEPAVRtti@Core@@XZ 0041ca40 f   render_win32.release:threadsafedisplayeventhandler.obj
 0001:0001ba50       ?FactoryCreator@ThreadSafeDisplayEventHandler@CoreGraphics@@SAPAVRefCounted@Core@@XZ 0041ca50 f   render_win32.release:threadsafedisplayeventhandler.obj
 0001:0001ba60       ?Create@ThreadSafeDisplayEventHandler@CoreGraphics@@SAPAV12@XZ 0041ca60 f   render_win32.release:threadsafedisplayeventhandler.obj
 0001:0001baa0       ?RegisterWithFactory@ThreadSafeDisplayEventHandler@CoreGraphics@@SA_NXZ 0041caa0 f   render_win32.release:threadsafedisplayeventhandler.obj
 0001:0001bba0       ??0ThreadSafeDisplayEventHandler@CoreGraphics@@QAE@XZ 0041cba0 f   render_win32.release:threadsafedisplayeventhandler.obj
 0001:0001bbe0       ??_GThreadSafeDisplayEventHandler@CoreGraphics@@UAEPAXI@Z 0041cbe0 f i render_win32.release:threadsafedisplayeventhandler.obj
 0001:0001bbe0       ??_EThreadSafeDisplayEventHandler@CoreGraphics@@UAEPAXI@Z 0041cbe0 f i  CIL library: CIL module
 0001:0001bc10       ??1?$SafeQueue@VDisplayEvent@CoreGraphics@@@Threading@@QAE@XZ 0041cc10 f i render_win32.release:threadsafedisplayeventhandler.obj
 0001:0001bc50       ??1?$Queue@VDisplayEvent@CoreGraphics@@@Util@@QAE@XZ 0041cc50 f i render_win32.release:threadsafedisplayeventhandler.obj
 0001:0001bc70       ??1Event@Threading@@QAE@XZ 0041cc70 f i render_win32.release:threadsafedisplayeventhandler.obj
 0001:0001bc90       ??1ThreadSafeDisplayEventHandler@CoreGraphics@@UAE@XZ 0041cc90 f   render_win32.release:threadsafedisplayeventhandler.obj
 0001:0001bcd0       ?PutEvent@ThreadSafeDisplayEventHandler@CoreGraphics@@UAE_NABVDisplayEvent@2@@Z 0041ccd0 f   render_win32.release:threadsafedisplayeventhandler.obj
 0001:0001bcf0       ?HandlePendingEvents@ThreadSafeDisplayEventHandler@CoreGraphics@@QAEXXZ 0041ccf0 f   render_win32.release:threadsafedisplayeventhandler.obj
 0001:0001bd50       ?HandleEvent@ThreadSafeDisplayEventHandler@CoreGraphics@@MAE_NABVDisplayEvent@2@@Z 0041cd50 f   render_win32.release:threadsafedisplayeventhandler.obj
 0001:0001bd60       ??0?$Array@VDisplayEvent@CoreGraphics@@@Util@@QAE@XZ 0041cd60 f i render_win32.release:threadsafedisplayeventhandler.obj
 0001:0001bda0       ??1?$Array@VDisplayEvent@CoreGraphics@@@Util@@QAE@XZ 0041cda0 f i render_win32.release:threadsafedisplayeventhandler.obj
 0001:0001bdc0       ??A?$Array@VDisplayEvent@CoreGraphics@@@Util@@QBEAAVDisplayEvent@CoreGraphics@@H@Z 0041cdc0 f i render_win32.release:threadsafedisplayeventhandler.obj
 0001:0001be10       ?Size@?$Array@VDisplayEvent@CoreGraphics@@@Util@@QBEHXZ 0041ce10 f i render_win32.release:threadsafedisplayeventhandler.obj
 0001:0001be30       ??0?$SafeQueue@VDisplayEvent@CoreGraphics@@@Threading@@QAE@XZ 0041ce30 f i render_win32.release:threadsafedisplayeventhandler.obj
 0001:0001bea0       ?Enqueue@?$SafeQueue@VDisplayEvent@CoreGraphics@@@Threading@@QAEXABVDisplayEvent@CoreGraphics@@@Z 0041cea0 f i render_win32.release:threadsafedisplayeventhandler.obj
 0001:0001bf10       ?DequeueAll@?$SafeQueue@VDisplayEvent@CoreGraphics@@@Threading@@QAEXAAV?$Array@VDisplayEvent@CoreGraphics@@@Util@@@Z 0041cf10 f i render_win32.release:threadsafedisplayeventhandler.obj
 0001:0001bf70       ??4?$Array@VDisplayEvent@CoreGraphics@@@Util@@QAEXABV01@@Z 0041cf70 f i render_win32.release:threadsafedisplayeventhandler.obj
 0001:0001c060       ?Append@?$Array@VDisplayEvent@CoreGraphics@@@Util@@QAEXABVDisplayEvent@CoreGraphics@@@Z 0041d060 f i render_win32.release:threadsafedisplayeventhandler.obj
 0001:0001c0e0       ?Clear@?$Array@VDisplayEvent@CoreGraphics@@@Util@@QAEXXZ 0041d0e0 f i render_win32.release:threadsafedisplayeventhandler.obj
 0001:0001c130       ?Delete@?$Array@VDisplayEvent@CoreGraphics@@@Util@@AAEXXZ 0041d130 f i render_win32.release:threadsafedisplayeventhandler.obj
 0001:0001c190       ??0?$Queue@VDisplayEvent@CoreGraphics@@@Util@@QAE@XZ 0041d190 f i render_win32.release:threadsafedisplayeventhandler.obj
 0001:0001c1b0       ??4DisplayEvent@CoreGraphics@@QAEAAV01@ABV01@@Z 0041d1b0 f i render_win32.release:threadsafedisplayeventhandler.obj
 0001:0001c240       ?Destroy@?$Array@VDisplayEvent@CoreGraphics@@@Util@@AAEXPAVDisplayEvent@CoreGraphics@@@Z 0041d240 f i render_win32.release:threadsafedisplayeventhandler.obj
 0001:0001c250       ?Copy@?$Array@VDisplayEvent@CoreGraphics@@@Util@@AAEXABV12@@Z 0041d250 f i render_win32.release:threadsafedisplayeventhandler.obj
 0001:0001c370       ?Grow@?$Array@VDisplayEvent@CoreGraphics@@@Util@@AAEXXZ 0041d370 f i render_win32.release:threadsafedisplayeventhandler.obj
 0001:0001c3f0       ?GrowTo@?$Array@VDisplayEvent@CoreGraphics@@@Util@@AAEXH@Z 0041d3f0 f i render_win32.release:threadsafedisplayeventhandler.obj
 0001:0001c4e0       ?SetStackSize@Win360Thread@Win360@@QAEXH@Z 0041d4e0 f i render_win32.release:graphicsinterface.obj
 0001:0001c500       ?SetName@Win360Thread@Win360@@QAEXABVString@Util@@@Z 0041d500 f i render_win32.release:graphicsinterface.obj
 0001:0001c580       ?SetCoreId@Win360Thread@Win360@@QAEXK@Z 0041d580 f i render_win32.release:graphicsinterface.obj
 0001:0001c5a0       ?SetHandlerThread@AsyncPort@Messaging@@QAEXABV?$Ptr@VHandlerThreadBase@Messaging@@@@@Z 0041d5a0 f i render_win32.release:graphicsinterface.obj
 0001:0001c5f0       ?IsOpen@AsyncPort@Messaging@@QBE_NXZ 0041d5f0 f i render_win32.release:graphicsinterface.obj
 0001:0001c610       ??2GraphicsInterface@Graphics@@SAPAXI@Z 0041d610 f i render_win32.release:graphicsinterface.obj
 0001:0001c620       ??3GraphicsInterface@Graphics@@SAXPAX@Z 0041d620 f i render_win32.release:graphicsinterface.obj
 0001:0001c640       ?GetRtti@GraphicsInterface@Graphics@@UBEPAVRtti@Core@@XZ 0041d640 f   render_win32.release:graphicsinterface.obj
 0001:0001c650       ?FactoryCreator@GraphicsInterface@Graphics@@SAPAVRefCounted@Core@@XZ 0041d650 f   render_win32.release:graphicsinterface.obj
 0001:0001c660       ?Create@GraphicsInterface@Graphics@@SAPAV12@XZ 0041d660 f   render_win32.release:graphicsinterface.obj
 0001:0001c6a0       ?RegisterWithFactory@GraphicsInterface@Graphics@@SA_NXZ 0041d6a0 f   render_win32.release:graphicsinterface.obj
 0001:0001c7a0       ??0GraphicsInterface@Graphics@@QAE@XZ 0041d7a0 f   render_win32.release:graphicsinterface.obj
 0001:0001c850       ??_GGraphicsInterface@Graphics@@UAEPAXI@Z 0041d850 f i render_win32.release:graphicsinterface.obj
 0001:0001c850       ??_EGraphicsInterface@Graphics@@UAEPAXI@Z 0041d850 f i  CIL library: CIL module
 0001:0001c880       ??1GraphicsInterface@Graphics@@UAE@XZ 0041d880 f   render_win32.release:graphicsinterface.obj
 0001:0001c910       ?Open@GraphicsInterface@Graphics@@UAEXXZ 0041d910 f   render_win32.release:graphicsinterface.obj
 0001:0001ca80       ?Close@GraphicsInterface@Graphics@@UAEXXZ 0041da80 f   render_win32.release:graphicsinterface.obj
 0001:0001cac0       ?EnterLockStepMode@GraphicsInterface@Graphics@@QAEXXZ 0041dac0 f   render_win32.release:graphicsinterface.obj
 0001:0001cb00       ?LeaveLockStepMode@GraphicsInterface@Graphics@@QAEXXZ 0041db00 f   render_win32.release:graphicsinterface.obj
 0001:0001cb40       ?GameThreadWaitForFrameSync@GraphicsInterface@Graphics@@QAEXXZ 0041db40 f   render_win32.release:graphicsinterface.obj
 0001:0001cb80       ?WaitForPendingResources@GraphicsInterface@Graphics@@QAEXXZ 0041db80 f   render_win32.release:graphicsinterface.obj
 0001:0001cba0       ?SendBatched@GraphicsInterface@Graphics@@QAEXABV?$Ptr@VMessage@Messaging@@@@@Z 0041dba0 f   render_win32.release:graphicsinterface.obj
 0001:0001cbd0       ?FlushBatchedMessages@GraphicsInterface@Graphics@@QAEXXZ 0041dbd0 f   render_win32.release:graphicsinterface.obj
 0001:0001cc30       ?Size@?$Array@V?$Ptr@VMessage@Messaging@@@@@Util@@QBEHXZ 0041dc30 f i render_win32.release:graphicsinterface.obj
 0001:0001cc50       ??4?$Ptr@VHandlerThreadBase@Messaging@@@@QAEXABV0@@Z 0041dc50 f i render_win32.release:graphicsinterface.obj
 0001:0001ccb0       ??0?$Ptr@VFrameSyncHandlerThread@FrameSync@@@@QAE@XZ 0041dcb0 f i render_win32.release:graphicsinterface.obj
 0001:0001ccd0       ??1?$Ptr@VFrameSyncHandlerThread@FrameSync@@@@QAE@XZ 0041dcd0 f i render_win32.release:graphicsinterface.obj
 0001:0001cd00       ??4?$Ptr@VFrameSyncHandlerThread@FrameSync@@@@QAEXPAVFrameSyncHandlerThread@FrameSync@@@Z 0041dd00 f i render_win32.release:graphicsinterface.obj
 0001:0001cd60       ??C?$Ptr@VFrameSyncHandlerThread@FrameSync@@@@QBEPAVFrameSyncHandlerThread@FrameSync@@XZ 0041dd60 f i render_win32.release:graphicsinterface.obj
 0001:0001cda0       ??0?$Ptr@VGraphicsHandler@Graphics@@@@QAE@XZ 0041dda0 f i render_win32.release:graphicsinterface.obj
 0001:0001cdc0       ??1?$Ptr@VGraphicsHandler@Graphics@@@@QAE@XZ 0041ddc0 f i render_win32.release:graphicsinterface.obj
 0001:0001cdf0       ??4?$Ptr@VGraphicsHandler@Graphics@@@@QAEXPAVGraphicsHandler@Graphics@@@Z 0041ddf0 f i render_win32.release:graphicsinterface.obj
 0001:0001ce50       ??C?$Ptr@VGraphicsHandler@Graphics@@@@QBEPAVGraphicsHandler@Graphics@@XZ 0041de50 f i render_win32.release:graphicsinterface.obj
 0001:0001ce90       ??0?$Ptr@VBatchMessage@Messaging@@@@QAE@XZ 0041de90 f i render_win32.release:graphicsinterface.obj
 0001:0001ceb0       ??1?$Ptr@VBatchMessage@Messaging@@@@QAE@XZ 0041deb0 f i render_win32.release:graphicsinterface.obj
 0001:0001cee0       ??4?$Ptr@VBatchMessage@Messaging@@@@QAEXPAVBatchMessage@Messaging@@@Z 0041dee0 f i render_win32.release:graphicsinterface.obj
 0001:0001cf40       ??C?$Ptr@VBatchMessage@Messaging@@@@QBEPAVBatchMessage@Messaging@@XZ 0041df40 f i render_win32.release:graphicsinterface.obj
 0001:0001cf80       ??$cast@VHandler@Messaging@@@?$Ptr@VGraphicsHandler@Graphics@@@@QBEABV?$Ptr@VHandler@Messaging@@@@XZ 0041df80 f i render_win32.release:graphicsinterface.obj
 0001:0001cf90       ??0?$Ptr@VHandler@Messaging@@@@QAE@PAVHandler@Messaging@@@Z 0041df90 f i render_win32.release:graphicsinterface.obj
 0001:0001cfd0       ??1?$Ptr@VHandler@Messaging@@@@QAE@XZ 0041dfd0 f i render_win32.release:graphicsinterface.obj
 0001:0001d000       ??$cast@VHandlerThreadBase@Messaging@@@?$Ptr@VFrameSyncHandlerThread@FrameSync@@@@QBEABV?$Ptr@VHandlerThreadBase@Messaging@@@@XZ 0041e000 f i render_win32.release:graphicsinterface.obj
 0001:0001d010       ??$cast@VMessage@Messaging@@@?$Ptr@VBatchMessage@Messaging@@@@QBEABV?$Ptr@VMessage@Messaging@@@@XZ 0041e010 f i render_win32.release:graphicsinterface.obj
 0001:0001d020       ??0DisplayMode@CoreGraphics@@QAE@IIIIW4Code@PixelFormat@1@@Z 0041e020 f i render_win32.release:displaysettings.obj
 0001:0001d090       ??0DisplaySettings@Graphics@@QAE@XZ 0041e090 f   render_win32.release:displaysettings.obj
 0001:0001d1a0       ??0float4@Math@@QAE@XZ     0041e1a0 f i render_win32.release:graphicsprotocol.obj
 0001:0001d1b0       ??0point@Math@@QAE@XZ      0041e1b0 f i render_win32.release:graphicsprotocol.obj
 0001:0001d240       ??0matrix44@Math@@QAE@XZ   0041e240 f i render_win32.release:graphicsprotocol.obj
 0001:0001d2e0       ??3Win32Guid@Win32@@SAXPAX@Z 0041e2e0 f i render_win32.release:graphicsprotocol.obj
 0001:0001d300       ??0Win32Guid@Win32@@QAE@XZ 0041e300 f i render_win32.release:graphicsprotocol.obj
 0001:0001d320       ??0Id@Messaging@@QAE@XZ    0041e320 f i render_win32.release:graphicsprotocol.obj
 0001:0001d330       ??0StringAtom@Util@@QAE@XZ 0041e330 f i render_win32.release:graphicsprotocol.obj
 0001:0001d350       ??0Variant@Util@@QAE@XZ    0041e350 f i render_win32.release:graphicsprotocol.obj
 0001:0001d380       ?Delete@Variant@Util@@AAEXXZ 0041e380 f i render_win32.release:graphicsprotocol.obj
 0001:0001d940       ??_GBlob@Util@@QAEPAXI@Z   0041e940 f i render_win32.release:graphicsprotocol.obj
 0001:0001d970       ??_G?$Array@H@Util@@QAEPAXI@Z 0041e970 f i render_win32.release:graphicsprotocol.obj
 0001:0001d9a0       ??_G?$Array@M@Util@@QAEPAXI@Z 0041e9a0 f i render_win32.release:graphicsprotocol.obj
 0001:0001d9d0       ??_G?$Array@_N@Util@@QAEPAXI@Z 0041e9d0 f i render_win32.release:graphicsprotocol.obj
 0001:0001da00       ??_G?$Array@Vfloat4@Math@@@Util@@QAEPAXI@Z 0041ea00 f i render_win32.release:graphicsprotocol.obj
 0001:0001da30       ??_G?$Array@Vmatrix44@Math@@@Util@@QAEPAXI@Z 0041ea30 f i render_win32.release:graphicsprotocol.obj
 0001:0001da60       ??_G?$Array@VString@Util@@@Util@@QAEPAXI@Z 0041ea60 f i render_win32.release:graphicsprotocol.obj
 0001:0001da90       ??_G?$Array@VWin32Guid@Win32@@@Util@@QAEPAXI@Z 0041ea90 f i render_win32.release:graphicsprotocol.obj
 0001:0001dac0       ??_G?$Array@VBlob@Util@@@Util@@QAEPAXI@Z 0041eac0 f i render_win32.release:graphicsprotocol.obj
 0001:0001daf0       ??1Variant@Util@@QAE@XZ    0041eaf0 f i render_win32.release:graphicsprotocol.obj
 0001:0001db10       ??0AdapterInfo@CoreGraphics@@QAE@XZ 0041eb10 f i render_win32.release:graphicsprotocol.obj
 0001:0001dc00       ??2RegisterRTPlugin@Graphics@@SAPAXI@Z 0041ec00 f i render_win32.release:graphicsprotocol.obj
 0001:0001dc10       ??3RegisterRTPlugin@Graphics@@SAXPAX@Z 0041ec10 f i render_win32.release:graphicsprotocol.obj
 0001:0001dc30       ??0RegisterRTPlugin@Graphics@@QAE@XZ 0041ec30 f i render_win32.release:graphicsprotocol.obj
 0001:0001dc50       ??_ERegisterRTPlugin@Graphics@@UAEPAXI@Z 0041ec50 f i  CIL library: CIL module
 0001:0001dc50       ??_GRegisterRTPlugin@Graphics@@UAEPAXI@Z 0041ec50 f i render_win32.release:graphicsprotocol.obj
 0001:0001dc80       ??1Message@Messaging@@UAE@XZ 0041ec80 f i render_win32.release:graphicsprotocol.obj
 0001:0001dca0       ??1RegisterRTPlugin@Graphics@@UAE@XZ 0041eca0 f i render_win32.release:graphicsprotocol.obj
 0001:0001dcc0       ??2UnregisterRTPlugin@Graphics@@SAPAXI@Z 0041ecc0 f i render_win32.release:graphicsprotocol.obj
 0001:0001dcd0       ??3UnregisterRTPlugin@Graphics@@SAXPAX@Z 0041ecd0 f i render_win32.release:graphicsprotocol.obj
 0001:0001dcf0       ??0UnregisterRTPlugin@Graphics@@QAE@XZ 0041ecf0 f i render_win32.release:graphicsprotocol.obj
 0001:0001dd10       ??_EUnregisterRTPlugin@Graphics@@UAEPAXI@Z 0041ed10 f i  CIL library: CIL module
 0001:0001dd10       ??_GUnregisterRTPlugin@Graphics@@UAEPAXI@Z 0041ed10 f i render_win32.release:graphicsprotocol.obj
 0001:0001dd40       ??1UnregisterRTPlugin@Graphics@@UAE@XZ 0041ed40 f i render_win32.release:graphicsprotocol.obj
 0001:0001dd60       ??2SetupGraphics@Graphics@@SAPAXI@Z 0041ed60 f i render_win32.release:graphicsprotocol.obj
 0001:0001dd70       ??3SetupGraphics@Graphics@@SAXPAX@Z 0041ed70 f i render_win32.release:graphicsprotocol.obj
 0001:0001dd90       ??0SetupGraphics@Graphics@@QAE@XZ 0041ed90 f i render_win32.release:graphicsprotocol.obj
 0001:0001deb0       ??_GSetupGraphics@Graphics@@UAEPAXI@Z 0041eeb0 f i render_win32.release:graphicsprotocol.obj
 0001:0001deb0       ??_ESetupGraphics@Graphics@@UAEPAXI@Z 0041eeb0 f i  CIL library: CIL module
 0001:0001dee0       ??1SetupGraphics@Graphics@@UAE@XZ 0041eee0 f i render_win32.release:graphicsprotocol.obj
 0001:0001df90       ??2AdapterExists@Graphics@@SAPAXI@Z 0041ef90 f i render_win32.release:graphicsprotocol.obj
 0001:0001dfa0       ??3AdapterExists@Graphics@@SAXPAX@Z 0041efa0 f i render_win32.release:graphicsprotocol.obj
 0001:0001dfc0       ??0AdapterExists@Graphics@@QAE@XZ 0041efc0 f i render_win32.release:graphicsprotocol.obj
 0001:0001dfe0       ??_EAdapterExists@Graphics@@UAEPAXI@Z 0041efe0 f i  CIL library: CIL module
 0001:0001dfe0       ??_GAdapterExists@Graphics@@UAEPAXI@Z 0041efe0 f i render_win32.release:graphicsprotocol.obj
 0001:0001e010       ??1AdapterExists@Graphics@@UAE@XZ 0041f010 f i render_win32.release:graphicsprotocol.obj
 0001:0001e030       ??2GetAvailableDisplayModes@Graphics@@SAPAXI@Z 0041f030 f i render_win32.release:graphicsprotocol.obj
 0001:0001e040       ??3GetAvailableDisplayModes@Graphics@@SAXPAX@Z 0041f040 f i render_win32.release:graphicsprotocol.obj
 0001:0001e060       ??0GetAvailableDisplayModes@Graphics@@QAE@XZ 0041f060 f i render_win32.release:graphicsprotocol.obj
 0001:0001e090       ??_EGetAvailableDisplayModes@Graphics@@UAEPAXI@Z 0041f090 f i  CIL library: CIL module
 0001:0001e090       ??_GGetAvailableDisplayModes@Graphics@@UAEPAXI@Z 0041f090 f i render_win32.release:graphicsprotocol.obj
 0001:0001e0d0       ??1GetAvailableDisplayModes@Graphics@@UAE@XZ 0041f0d0 f i render_win32.release:graphicsprotocol.obj
 0001:0001e0f0       ??2SupportsDisplayMode@Graphics@@SAPAXI@Z 0041f0f0 f i render_win32.release:graphicsprotocol.obj
 0001:0001e100       ??3SupportsDisplayMode@Graphics@@SAXPAX@Z 0041f100 f i render_win32.release:graphicsprotocol.obj
 0001:0001e120       ??0SupportsDisplayMode@Graphics@@QAE@XZ 0041f120 f i render_win32.release:graphicsprotocol.obj
 0001:0001e190       ??_GSupportsDisplayMode@Graphics@@UAEPAXI@Z 0041f190 f i render_win32.release:graphicsprotocol.obj
 0001:0001e190       ??_ESupportsDisplayMode@Graphics@@UAEPAXI@Z 0041f190 f i  CIL library: CIL module
 0001:0001e1c0       ??1SupportsDisplayMode@Graphics@@UAE@XZ 0041f1c0 f i render_win32.release:graphicsprotocol.obj
 0001:0001e1e0       ??2AdjustDisplaySize@Graphics@@SAPAXI@Z 0041f1e0 f i render_win32.release:graphicsprotocol.obj
 0001:0001e1f0       ??3AdjustDisplaySize@Graphics@@SAXPAX@Z 0041f1f0 f i render_win32.release:graphicsprotocol.obj
 0001:0001e210       ??0AdjustDisplaySize@Graphics@@QAE@XZ 0041f210 f i render_win32.release:graphicsprotocol.obj
 0001:0001e230       ??_GAdjustDisplaySize@Graphics@@UAEPAXI@Z 0041f230 f i render_win32.release:graphicsprotocol.obj
 0001:0001e230       ??_EAdjustDisplaySize@Graphics@@UAEPAXI@Z 0041f230 f i  CIL library: CIL module
 0001:0001e260       ??1AdjustDisplaySize@Graphics@@UAE@XZ 0041f260 f i render_win32.release:graphicsprotocol.obj
 0001:0001e280       ??2GetCurrentAdapterDisplayMode@Graphics@@SAPAXI@Z 0041f280 f i render_win32.release:graphicsprotocol.obj
 0001:0001e290       ??3GetCurrentAdapterDisplayMode@Graphics@@SAXPAX@Z 0041f290 f i render_win32.release:graphicsprotocol.obj
 0001:0001e2b0       ??0GetCurrentAdapterDisplayMode@Graphics@@QAE@XZ 0041f2b0 f i render_win32.release:graphicsprotocol.obj
 0001:0001e320       ??_EGetCurrentAdapterDisplayMode@Graphics@@UAEPAXI@Z 0041f320 f i  CIL library: CIL module
 0001:0001e320       ??_GGetCurrentAdapterDisplayMode@Graphics@@UAEPAXI@Z 0041f320 f i render_win32.release:graphicsprotocol.obj
 0001:0001e350       ??1GetCurrentAdapterDisplayMode@Graphics@@UAE@XZ 0041f350 f i render_win32.release:graphicsprotocol.obj
 0001:0001e370       ??2GetAdapterInfo@Graphics@@SAPAXI@Z 0041f370 f i render_win32.release:graphicsprotocol.obj
 0001:0001e380       ??3GetAdapterInfo@Graphics@@SAXPAX@Z 0041f380 f i render_win32.release:graphicsprotocol.obj
 0001:0001e3a0       ??0GetAdapterInfo@Graphics@@QAE@XZ 0041f3a0 f i render_win32.release:graphicsprotocol.obj
 0001:0001e3d0       ??_EGetAdapterInfo@Graphics@@UAEPAXI@Z 0041f3d0 f i  CIL library: CIL module
 0001:0001e3d0       ??_GGetAdapterInfo@Graphics@@UAEPAXI@Z 0041f3d0 f i render_win32.release:graphicsprotocol.obj
 0001:0001e410       ??1GetAdapterInfo@Graphics@@UAE@XZ 0041f410 f i render_win32.release:graphicsprotocol.obj
 0001:0001e430       ??2AttachDisplayEventHandler@Graphics@@SAPAXI@Z 0041f430 f i render_win32.release:graphicsprotocol.obj
 0001:0001e440       ??3AttachDisplayEventHandler@Graphics@@SAXPAX@Z 0041f440 f i render_win32.release:graphicsprotocol.obj
 0001:0001e460       ??0AttachDisplayEventHandler@Graphics@@QAE@XZ 0041f460 f i render_win32.release:graphicsprotocol.obj
 0001:0001e490       ??_GAttachDisplayEventHandler@Graphics@@UAEPAXI@Z 0041f490 f i render_win32.release:graphicsprotocol.obj
 0001:0001e490       ??_EAttachDisplayEventHandler@Graphics@@UAEPAXI@Z 0041f490 f i  CIL library: CIL module
 0001:0001e4d0       ??1AttachDisplayEventHandler@Graphics@@UAE@XZ 0041f4d0 f i render_win32.release:graphicsprotocol.obj
 0001:0001e4f0       ??2RemoveDisplayEventHandler@Graphics@@SAPAXI@Z 0041f4f0 f i render_win32.release:graphicsprotocol.obj
 0001:0001e500       ??3RemoveDisplayEventHandler@Graphics@@SAXPAX@Z 0041f500 f i render_win32.release:graphicsprotocol.obj
 0001:0001e520       ??0RemoveDisplayEventHandler@Graphics@@QAE@XZ 0041f520 f i render_win32.release:graphicsprotocol.obj
 0001:0001e550       ??_ERemoveDisplayEventHandler@Graphics@@UAEPAXI@Z 0041f550 f i  CIL library: CIL module
 0001:0001e550       ??_GRemoveDisplayEventHandler@Graphics@@UAEPAXI@Z 0041f550 f i render_win32.release:graphicsprotocol.obj
 0001:0001e590       ??1RemoveDisplayEventHandler@Graphics@@UAE@XZ 0041f590 f i render_win32.release:graphicsprotocol.obj
 0001:0001e5b0       ??2AttachRenderEventHandler@Graphics@@SAPAXI@Z 0041f5b0 f i render_win32.release:graphicsprotocol.obj
 0001:0001e5c0       ??3AttachRenderEventHandler@Graphics@@SAXPAX@Z 0041f5c0 f i render_win32.release:graphicsprotocol.obj
 0001:0001e5e0       ??0AttachRenderEventHandler@Graphics@@QAE@XZ 0041f5e0 f i render_win32.release:graphicsprotocol.obj
 0001:0001e610       ??_GAttachRenderEventHandler@Graphics@@UAEPAXI@Z 0041f610 f i render_win32.release:graphicsprotocol.obj
 0001:0001e610       ??_EAttachRenderEventHandler@Graphics@@UAEPAXI@Z 0041f610 f i  CIL library: CIL module
 0001:0001e650       ??1AttachRenderEventHandler@Graphics@@UAE@XZ 0041f650 f i render_win32.release:graphicsprotocol.obj
 0001:0001e670       ??2RemoveRenderEventHandler@Graphics@@SAPAXI@Z 0041f670 f i render_win32.release:graphicsprotocol.obj
 0001:0001e680       ??3RemoveRenderEventHandler@Graphics@@SAXPAX@Z 0041f680 f i render_win32.release:graphicsprotocol.obj
 0001:0001e6a0       ??0RemoveRenderEventHandler@Graphics@@QAE@XZ 0041f6a0 f i render_win32.release:graphicsprotocol.obj
 0001:0001e6d0       ??_GRemoveRenderEventHandler@Graphics@@UAEPAXI@Z 0041f6d0 f i render_win32.release:graphicsprotocol.obj
 0001:0001e6d0       ??_ERemoveRenderEventHandler@Graphics@@UAEPAXI@Z 0041f6d0 f i  CIL library: CIL module
 0001:0001e710       ??1RemoveRenderEventHandler@Graphics@@UAE@XZ 0041f710 f i render_win32.release:graphicsprotocol.obj
 0001:0001e730       ??2CreateGraphicsStage@Graphics@@SAPAXI@Z 0041f730 f i render_win32.release:graphicsprotocol.obj
 0001:0001e740       ??3CreateGraphicsStage@Graphics@@SAXPAX@Z 0041f740 f i render_win32.release:graphicsprotocol.obj
 0001:0001e760       ??0CreateGraphicsStage@Graphics@@QAE@XZ 0041f760 f i render_win32.release:graphicsprotocol.obj
 0001:0001e7b0       ??_GCreateGraphicsStage@Graphics@@UAEPAXI@Z 0041f7b0 f i render_win32.release:graphicsprotocol.obj
 0001:0001e7b0       ??_ECreateGraphicsStage@Graphics@@UAEPAXI@Z 0041f7b0 f i  CIL library: CIL module
 0001:0001e800       ??1CreateGraphicsStage@Graphics@@UAE@XZ 0041f800 f i render_win32.release:graphicsprotocol.obj
 0001:0001e830       ??2DiscardGraphicsStage@Graphics@@SAPAXI@Z 0041f830 f i render_win32.release:graphicsprotocol.obj
 0001:0001e840       ??3DiscardGraphicsStage@Graphics@@SAXPAX@Z 0041f840 f i render_win32.release:graphicsprotocol.obj
 0001:0001e860       ??0DiscardGraphicsStage@Graphics@@QAE@XZ 0041f860 f i render_win32.release:graphicsprotocol.obj
 0001:0001e890       ??_EDiscardGraphicsStage@Graphics@@UAEPAXI@Z 0041f890 f i  CIL library: CIL module
 0001:0001e890       ??_GDiscardGraphicsStage@Graphics@@UAEPAXI@Z 0041f890 f i render_win32.release:graphicsprotocol.obj
 0001:0001e8d0       ??1DiscardGraphicsStage@Graphics@@UAE@XZ 0041f8d0 f i render_win32.release:graphicsprotocol.obj
 0001:0001e8f0       ??2CreateGraphicsView@Graphics@@SAPAXI@Z 0041f8f0 f i render_win32.release:graphicsprotocol.obj
 0001:0001e900       ??3CreateGraphicsView@Graphics@@SAXPAX@Z 0041f900 f i render_win32.release:graphicsprotocol.obj
 0001:0001e920       ??0CreateGraphicsView@Graphics@@QAE@XZ 0041f920 f i render_win32.release:graphicsprotocol.obj
 0001:0001e9a0       ??_ECreateGraphicsView@Graphics@@UAEPAXI@Z 0041f9a0 f i  CIL library: CIL module
 0001:0001e9a0       ??_GCreateGraphicsView@Graphics@@UAEPAXI@Z 0041f9a0 f i render_win32.release:graphicsprotocol.obj
 0001:0001e9e0       ??1CreateGraphicsView@Graphics@@UAE@XZ 0041f9e0 f i render_win32.release:graphicsprotocol.obj
 0001:0001ea00       ??2DiscardGraphicsView@Graphics@@SAPAXI@Z 0041fa00 f i render_win32.release:graphicsprotocol.obj
 0001:0001ea10       ??3DiscardGraphicsView@Graphics@@SAXPAX@Z 0041fa10 f i render_win32.release:graphicsprotocol.obj
 0001:0001ea30       ??0DiscardGraphicsView@Graphics@@QAE@XZ 0041fa30 f i render_win32.release:graphicsprotocol.obj
 0001:0001ea60       ??_EDiscardGraphicsView@Graphics@@UAEPAXI@Z 0041fa60 f i  CIL library: CIL module
 0001:0001ea60       ??_GDiscardGraphicsView@Graphics@@UAEPAXI@Z 0041fa60 f i render_win32.release:graphicsprotocol.obj
 0001:0001eaa0       ??1DiscardGraphicsView@Graphics@@UAE@XZ 0041faa0 f i render_win32.release:graphicsprotocol.obj
 0001:0001eac0       ??2SetDefaultGraphicsView@Graphics@@SAPAXI@Z 0041fac0 f i render_win32.release:graphicsprotocol.obj
 0001:0001ead0       ??3SetDefaultGraphicsView@Graphics@@SAXPAX@Z 0041fad0 f i render_win32.release:graphicsprotocol.obj
 0001:0001eaf0       ??0SetDefaultGraphicsView@Graphics@@QAE@XZ 0041faf0 f i render_win32.release:graphicsprotocol.obj
 0001:0001eb20       ??_GSetDefaultGraphicsView@Graphics@@UAEPAXI@Z 0041fb20 f i render_win32.release:graphicsprotocol.obj
 0001:0001eb20       ??_ESetDefaultGraphicsView@Graphics@@UAEPAXI@Z 0041fb20 f i  CIL library: CIL module
 0001:0001eb60       ??1SetDefaultGraphicsView@Graphics@@UAE@XZ 0041fb60 f i render_win32.release:graphicsprotocol.obj
 0001:0001eb80       ??2CreateGraphicsEntity@Graphics@@SAPAXI@Z 0041fb80 f i render_win32.release:graphicsprotocol.obj
 0001:0001eb90       ??3CreateGraphicsEntity@Graphics@@SAXPAX@Z 0041fb90 f i render_win32.release:graphicsprotocol.obj
 0001:0001ebb0       ??0CreateGraphicsEntity@Graphics@@QAE@XZ 0041fbb0 f i render_win32.release:graphicsprotocol.obj
 0001:0001ecc0       ??_GCreateGraphicsEntity@Graphics@@UAEPAXI@Z 0041fcc0 f i render_win32.release:graphicsprotocol.obj
 0001:0001ecc0       ??_ECreateGraphicsEntity@Graphics@@UAEPAXI@Z 0041fcc0 f i  CIL library: CIL module
 0001:0001ed10       ??1CreateGraphicsEntity@Graphics@@UAE@XZ 0041fd10 f i render_win32.release:graphicsprotocol.obj
 0001:0001ed40       ??2CreateModelEntity@Graphics@@SAPAXI@Z 0041fd40 f i render_win32.release:graphicsprotocol.obj
 0001:0001ed50       ??3CreateModelEntity@Graphics@@SAXPAX@Z 0041fd50 f i render_win32.release:graphicsprotocol.obj
 0001:0001ed70       ??0CreateModelEntity@Graphics@@QAE@XZ 0041fd70 f i render_win32.release:graphicsprotocol.obj
 0001:0001eed0       ??_ECreateModelEntity@Graphics@@UAEPAXI@Z 0041fed0 f i  CIL library: CIL module
 0001:0001eed0       ??_GCreateModelEntity@Graphics@@UAEPAXI@Z 0041fed0 f i render_win32.release:graphicsprotocol.obj
 0001:0001ef00       ??1CreateModelEntity@Graphics@@UAE@XZ 0041ff00 f i render_win32.release:graphicsprotocol.obj
 0001:0001ef40       ??2CreateCameraEntity@Graphics@@SAPAXI@Z 0041ff40 f i render_win32.release:graphicsprotocol.obj
 0001:0001ef50       ??3CreateCameraEntity@Graphics@@SAXPAX@Z 0041ff50 f i render_win32.release:graphicsprotocol.obj
 0001:0001ef70       ??0CreateCameraEntity@Graphics@@QAE@XZ 0041ff70 f i render_win32.release:graphicsprotocol.obj
 0001:0001efb0       ??_ECreateCameraEntity@Graphics@@UAEPAXI@Z 0041ffb0 f i  CIL library: CIL module
 0001:0001efb0       ??_GCreateCameraEntity@Graphics@@UAEPAXI@Z 0041ffb0 f i render_win32.release:graphicsprotocol.obj
 0001:0001f000       ??1CreateCameraEntity@Graphics@@UAE@XZ 00420000 f i render_win32.release:graphicsprotocol.obj
 0001:0001f030       ??2CreateGlobalLightEntity@Graphics@@SAPAXI@Z 00420030 f i render_win32.release:graphicsprotocol.obj
 0001:0001f040       ??3CreateGlobalLightEntity@Graphics@@SAXPAX@Z 00420040 f i render_win32.release:graphicsprotocol.obj
 0001:0001f060       ??0CreateGlobalLightEntity@Graphics@@QAE@XZ 00420060 f i render_win32.release:graphicsprotocol.obj
 0001:0001f090       ??_GCreateGlobalLightEntity@Graphics@@UAEPAXI@Z 00420090 f i render_win32.release:graphicsprotocol.obj
 0001:0001f090       ??_ECreateGlobalLightEntity@Graphics@@UAEPAXI@Z 00420090 f i  CIL library: CIL module
 0001:0001f0e0       ??1CreateGlobalLightEntity@Graphics@@UAE@XZ 004200e0 f i render_win32.release:graphicsprotocol.obj
 0001:0001f110       ??2CreateSpotLightEntity@Graphics@@SAPAXI@Z 00420110 f i render_win32.release:graphicsprotocol.obj
 0001:0001f120       ??3CreateSpotLightEntity@Graphics@@SAXPAX@Z 00420120 f i render_win32.release:graphicsprotocol.obj
 0001:0001f140       ??0CreateSpotLightEntity@Graphics@@QAE@XZ 00420140 f i render_win32.release:graphicsprotocol.obj
 0001:0001f170       ??_ECreateSpotLightEntity@Graphics@@UAEPAXI@Z 00420170 f i  CIL library: CIL module
 0001:0001f170       ??_GCreateSpotLightEntity@Graphics@@UAEPAXI@Z 00420170 f i render_win32.release:graphicsprotocol.obj
 0001:0001f1c0       ??1CreateSpotLightEntity@Graphics@@UAE@XZ 004201c0 f i render_win32.release:graphicsprotocol.obj
 0001:0001f1f0       ??2CreatePointLightEntity@Graphics@@SAPAXI@Z 004201f0 f i render_win32.release:graphicsprotocol.obj
 0001:0001f200       ??3CreatePointLightEntity@Graphics@@SAXPAX@Z 00420200 f i render_win32.release:graphicsprotocol.obj
 0001:0001f220       ??0CreatePointLightEntity@Graphics@@QAE@XZ 00420220 f i render_win32.release:graphicsprotocol.obj
 0001:0001f250       ??_GCreatePointLightEntity@Graphics@@UAEPAXI@Z 00420250 f i render_win32.release:graphicsprotocol.obj
 0001:0001f250       ??_ECreatePointLightEntity@Graphics@@UAEPAXI@Z 00420250 f i  CIL library: CIL module
 0001:0001f2a0       ??1CreatePointLightEntity@Graphics@@UAE@XZ 004202a0 f i render_win32.release:graphicsprotocol.obj
 0001:0001f2d0       ??2GraphicsEntityMessage@Graphics@@SAPAXI@Z 004202d0 f i render_win32.release:graphicsprotocol.obj
 0001:0001f2e0       ??3GraphicsEntityMessage@Graphics@@SAXPAX@Z 004202e0 f i render_win32.release:graphicsprotocol.obj
 0001:0001f300       ??0GraphicsEntityMessage@Graphics@@QAE@XZ 00420300 f i render_win32.release:graphicsprotocol.obj
 0001:0001f330       ??_GGraphicsEntityMessage@Graphics@@UAEPAXI@Z 00420330 f i render_win32.release:graphicsprotocol.obj
 0001:0001f330       ??_EGraphicsEntityMessage@Graphics@@UAEPAXI@Z 00420330 f i  CIL library: CIL module
 0001:0001f370       ??1GraphicsEntityMessage@Graphics@@UAE@XZ 00420370 f i render_win32.release:graphicsprotocol.obj
 0001:0001f390       ??2DiscardGraphicsEntity@Graphics@@SAPAXI@Z 00420390 f i render_win32.release:graphicsprotocol.obj
 0001:0001f3a0       ??3DiscardGraphicsEntity@Graphics@@SAXPAX@Z 004203a0 f i render_win32.release:graphicsprotocol.obj
 0001:0001f3c0       ??0DiscardGraphicsEntity@Graphics@@QAE@XZ 004203c0 f i render_win32.release:graphicsprotocol.obj
 0001:0001f400       ??_GDiscardGraphicsEntity@Graphics@@UAEPAXI@Z 00420400 f i render_win32.release:graphicsprotocol.obj
 0001:0001f400       ??_EDiscardGraphicsEntity@Graphics@@UAEPAXI@Z 00420400 f i  CIL library: CIL module
 0001:0001f440       ??1DiscardGraphicsEntity@Graphics@@UAE@XZ 00420440 f i render_win32.release:graphicsprotocol.obj
 0001:0001f460       ??2AddTrackedCharJoint@Graphics@@SAPAXI@Z 00420460 f i render_win32.release:graphicsprotocol.obj
 0001:0001f470       ??3AddTrackedCharJoint@Graphics@@SAXPAX@Z 00420470 f i render_win32.release:graphicsprotocol.obj
 0001:0001f490       ??0AddTrackedCharJoint@Graphics@@QAE@XZ 00420490 f i render_win32.release:graphicsprotocol.obj
 0001:0001f4e0       ??_GAddTrackedCharJoint@Graphics@@UAEPAXI@Z 004204e0 f i render_win32.release:graphicsprotocol.obj
 0001:0001f4e0       ??_EAddTrackedCharJoint@Graphics@@UAEPAXI@Z 004204e0 f i  CIL library: CIL module
 0001:0001f520       ??1AddTrackedCharJoint@Graphics@@UAE@XZ 00420520 f i render_win32.release:graphicsprotocol.obj
 0001:0001f540       ??2SetLightColor@Graphics@@SAPAXI@Z 00420540 f i render_win32.release:graphicsprotocol.obj
 0001:0001f550       ??3SetLightColor@Graphics@@SAXPAX@Z 00420550 f i render_win32.release:graphicsprotocol.obj
 0001:0001f570       ??0SetLightColor@Graphics@@QAE@XZ 00420570 f i render_win32.release:graphicsprotocol.obj
 0001:0001f5b0       ??_ESetLightColor@Graphics@@UAEPAXI@Z 004205b0 f i  CIL library: CIL module
 0001:0001f5b0       ??_GSetLightColor@Graphics@@UAEPAXI@Z 004205b0 f i render_win32.release:graphicsprotocol.obj
 0001:0001f5f0       ??1SetLightColor@Graphics@@UAE@XZ 004205f0 f i render_win32.release:graphicsprotocol.obj
 0001:0001f610       ??2SetLightCastShadows@Graphics@@SAPAXI@Z 00420610 f i render_win32.release:graphicsprotocol.obj
 0001:0001f620       ??3SetLightCastShadows@Graphics@@SAXPAX@Z 00420620 f i render_win32.release:graphicsprotocol.obj
 0001:0001f640       ??0SetLightCastShadows@Graphics@@QAE@XZ 00420640 f i render_win32.release:graphicsprotocol.obj
 0001:0001f680       ??_GSetLightCastShadows@Graphics@@UAEPAXI@Z 00420680 f i render_win32.release:graphicsprotocol.obj
 0001:0001f680       ??_ESetLightCastShadows@Graphics@@UAEPAXI@Z 00420680 f i  CIL library: CIL module
 0001:0001f6c0       ??1SetLightCastShadows@Graphics@@UAE@XZ 004206c0 f i render_win32.release:graphicsprotocol.obj
 0001:0001f6e0       ??2SetGlobalBackLightColor@Graphics@@SAPAXI@Z 004206e0 f i render_win32.release:graphicsprotocol.obj
 0001:0001f6f0       ??3SetGlobalBackLightColor@Graphics@@SAXPAX@Z 004206f0 f i render_win32.release:graphicsprotocol.obj
 0001:0001f710       ??0SetGlobalBackLightColor@Graphics@@QAE@XZ 00420710 f i render_win32.release:graphicsprotocol.obj
 0001:0001f750       ??_GSetGlobalBackLightColor@Graphics@@UAEPAXI@Z 00420750 f i render_win32.release:graphicsprotocol.obj
 0001:0001f750       ??_ESetGlobalBackLightColor@Graphics@@UAEPAXI@Z 00420750 f i  CIL library: CIL module
 0001:0001f790       ??1SetGlobalBackLightColor@Graphics@@UAE@XZ 00420790 f i render_win32.release:graphicsprotocol.obj
 0001:0001f7b0       ??2SetGlobalAmbientLightColor@Graphics@@SAPAXI@Z 004207b0 f i render_win32.release:graphicsprotocol.obj
 0001:0001f7c0       ??3SetGlobalAmbientLightColor@Graphics@@SAXPAX@Z 004207c0 f i render_win32.release:graphicsprotocol.obj
 0001:0001f7e0       ??0SetGlobalAmbientLightColor@Graphics@@QAE@XZ 004207e0 f i render_win32.release:graphicsprotocol.obj
 0001:0001f820       ??_ESetGlobalAmbientLightColor@Graphics@@UAEPAXI@Z 00420820 f i  CIL library: CIL module
 0001:0001f820       ??_GSetGlobalAmbientLightColor@Graphics@@UAEPAXI@Z 00420820 f i render_win32.release:graphicsprotocol.obj
 0001:0001f860       ??1SetGlobalAmbientLightColor@Graphics@@UAE@XZ 00420860 f i render_win32.release:graphicsprotocol.obj
 0001:0001f880       ??2SetGlobalBackLightOffset@Graphics@@SAPAXI@Z 00420880 f i render_win32.release:graphicsprotocol.obj
 0001:0001f890       ??3SetGlobalBackLightOffset@Graphics@@SAXPAX@Z 00420890 f i render_win32.release:graphicsprotocol.obj
 0001:0001f8b0       ??0SetGlobalBackLightOffset@Graphics@@QAE@XZ 004208b0 f i render_win32.release:graphicsprotocol.obj
 0001:0001f8f0       ??_ESetGlobalBackLightOffset@Graphics@@UAEPAXI@Z 004208f0 f i  CIL library: CIL module
 0001:0001f8f0       ??_GSetGlobalBackLightOffset@Graphics@@UAEPAXI@Z 004208f0 f i render_win32.release:graphicsprotocol.obj
 0001:0001f930       ??1SetGlobalBackLightOffset@Graphics@@UAE@XZ 00420930 f i render_win32.release:graphicsprotocol.obj
 0001:0001f950       ??2SetGlobalLightParams@Graphics@@SAPAXI@Z 00420950 f i render_win32.release:graphicsprotocol.obj
 0001:0001f960       ??3SetGlobalLightParams@Graphics@@SAXPAX@Z 00420960 f i render_win32.release:graphicsprotocol.obj
 0001:0001f980       ??0SetGlobalLightParams@Graphics@@QAE@XZ 00420980 f i render_win32.release:graphicsprotocol.obj
 0001:0001f9c0       ??_GSetGlobalLightParams@Graphics@@UAEPAXI@Z 004209c0 f i render_win32.release:graphicsprotocol.obj
 0001:0001f9c0       ??_ESetGlobalLightParams@Graphics@@UAEPAXI@Z 004209c0 f i  CIL library: CIL module
 0001:0001fa00       ??1SetGlobalLightParams@Graphics@@UAE@XZ 00420a00 f i render_win32.release:graphicsprotocol.obj
 0001:0001fa20       ??2SetGlobalLightColor@Graphics@@SAPAXI@Z 00420a20 f i render_win32.release:graphicsprotocol.obj
 0001:0001fa30       ??3SetGlobalLightColor@Graphics@@SAXPAX@Z 00420a30 f i render_win32.release:graphicsprotocol.obj
 0001:0001fa50       ??0SetGlobalLightColor@Graphics@@QAE@XZ 00420a50 f i render_win32.release:graphicsprotocol.obj
 0001:0001fa90       ??_GSetGlobalLightColor@Graphics@@UAEPAXI@Z 00420a90 f i render_win32.release:graphicsprotocol.obj
 0001:0001fa90       ??_ESetGlobalLightColor@Graphics@@UAEPAXI@Z 00420a90 f i  CIL library: CIL module
 0001:0001fad0       ??1SetGlobalLightColor@Graphics@@UAE@XZ 00420ad0 f i render_win32.release:graphicsprotocol.obj
 0001:0001faf0       ??2UpdateTransform@Graphics@@SAPAXI@Z 00420af0 f i render_win32.release:graphicsprotocol.obj
 0001:0001fb00       ??3UpdateTransform@Graphics@@SAXPAX@Z 00420b00 f i render_win32.release:graphicsprotocol.obj
 0001:0001fb20       ??0UpdateTransform@Graphics@@QAE@XZ 00420b20 f i render_win32.release:graphicsprotocol.obj
 0001:0001fc00       ??_GUpdateTransform@Graphics@@UAEPAXI@Z 00420c00 f i render_win32.release:graphicsprotocol.obj
 0001:0001fc00       ??_EUpdateTransform@Graphics@@UAEPAXI@Z 00420c00 f i  CIL library: CIL module
 0001:0001fc40       ??1UpdateTransform@Graphics@@UAE@XZ 00420c40 f i render_win32.release:graphicsprotocol.obj
 0001:0001fc60       ??2SetVisibility@Graphics@@SAPAXI@Z 00420c60 f i render_win32.release:graphicsprotocol.obj
 0001:0001fc70       ??3SetVisibility@Graphics@@SAXPAX@Z 00420c70 f i render_win32.release:graphicsprotocol.obj
 0001:0001fc90       ??0SetVisibility@Graphics@@QAE@XZ 00420c90 f i render_win32.release:graphicsprotocol.obj
 0001:0001fcd0       ??_GSetVisibility@Graphics@@UAEPAXI@Z 00420cd0 f i render_win32.release:graphicsprotocol.obj
 0001:0001fcd0       ??_ESetVisibility@Graphics@@UAEPAXI@Z 00420cd0 f i  CIL library: CIL module
 0001:0001fd10       ??1SetVisibility@Graphics@@UAE@XZ 00420d10 f i render_win32.release:graphicsprotocol.obj
 0001:0001fd30       ??2AttachCameraToView@Graphics@@SAPAXI@Z 00420d30 f i render_win32.release:graphicsprotocol.obj
 0001:0001fd40       ??3AttachCameraToView@Graphics@@SAXPAX@Z 00420d40 f i render_win32.release:graphicsprotocol.obj
 0001:0001fd60       ??0AttachCameraToView@Graphics@@QAE@XZ 00420d60 f i render_win32.release:graphicsprotocol.obj
 0001:0001fdb0       ??_GAttachCameraToView@Graphics@@UAEPAXI@Z 00420db0 f i render_win32.release:graphicsprotocol.obj
 0001:0001fdb0       ??_EAttachCameraToView@Graphics@@UAEPAXI@Z 00420db0 f i  CIL library: CIL module
 0001:0001fdf0       ??1AttachCameraToView@Graphics@@UAE@XZ 00420df0 f i render_win32.release:graphicsprotocol.obj
 0001:0001fe10       ??2RemoveCameraFromView@Graphics@@SAPAXI@Z 00420e10 f i render_win32.release:graphicsprotocol.obj
 0001:0001fe20       ??3RemoveCameraFromView@Graphics@@SAXPAX@Z 00420e20 f i render_win32.release:graphicsprotocol.obj
 0001:0001fe40       ??0RemoveCameraFromView@Graphics@@QAE@XZ 00420e40 f i render_win32.release:graphicsprotocol.obj
 0001:0001fe90       ??_ERemoveCameraFromView@Graphics@@UAEPAXI@Z 00420e90 f i  CIL library: CIL module
 0001:0001fe90       ??_GRemoveCameraFromView@Graphics@@UAEPAXI@Z 00420e90 f i render_win32.release:graphicsprotocol.obj
 0001:0001fed0       ??1RemoveCameraFromView@Graphics@@UAE@XZ 00420ed0 f i render_win32.release:graphicsprotocol.obj
 0001:0001fef0       ??2UpdModelNodeInstanceShaderVariable@Graphics@@SAPAXI@Z 00420ef0 f i render_win32.release:graphicsprotocol.obj
 0001:0001ff00       ??3UpdModelNodeInstanceShaderVariable@Graphics@@SAXPAX@Z 00420f00 f i render_win32.release:graphicsprotocol.obj
 0001:0001ff20       ??0UpdModelNodeInstanceShaderVariable@Graphics@@QAE@XZ 00420f20 f i render_win32.release:graphicsprotocol.obj
 0001:0001ffa0       ??_EUpdModelNodeInstanceShaderVariable@Graphics@@UAEPAXI@Z 00420fa0 f i  CIL library: CIL module
 0001:0001ffa0       ??_GUpdModelNodeInstanceShaderVariable@Graphics@@UAEPAXI@Z 00420fa0 f i render_win32.release:graphicsprotocol.obj
 0001:0001fff0       ??1UpdModelNodeInstanceShaderVariable@Graphics@@UAE@XZ 00420ff0 f i render_win32.release:graphicsprotocol.obj
 0001:00020020       ??2UpdModelNodeInstanceVisibility@Graphics@@SAPAXI@Z 00421020 f i render_win32.release:graphicsprotocol.obj
 0001:00020030       ??3UpdModelNodeInstanceVisibility@Graphics@@SAXPAX@Z 00421030 f i render_win32.release:graphicsprotocol.obj
 0001:00020050       ??0UpdModelNodeInstanceVisibility@Graphics@@QAE@XZ 00421050 f i render_win32.release:graphicsprotocol.obj
 0001:000200a0       ??_GUpdModelNodeInstanceVisibility@Graphics@@UAEPAXI@Z 004210a0 f i render_win32.release:graphicsprotocol.obj
 0001:000200a0       ??_EUpdModelNodeInstanceVisibility@Graphics@@UAEPAXI@Z 004210a0 f i  CIL library: CIL module
 0001:000200e0       ??1UpdModelNodeInstanceVisibility@Graphics@@UAE@XZ 004210e0 f i render_win32.release:graphicsprotocol.obj
 0001:00020100       ??2UpdateSharedShaderVariable@Graphics@@SAPAXI@Z 00421100 f i render_win32.release:graphicsprotocol.obj
 0001:00020110       ??3UpdateSharedShaderVariable@Graphics@@SAXPAX@Z 00421110 f i render_win32.release:graphicsprotocol.obj
 0001:00020130       ??0UpdateSharedShaderVariable@Graphics@@QAE@XZ 00421130 f i render_win32.release:graphicsprotocol.obj
 0001:00020180       ??_EUpdateSharedShaderVariable@Graphics@@UAEPAXI@Z 00421180 f i  CIL library: CIL module
 0001:00020180       ??_GUpdateSharedShaderVariable@Graphics@@UAEPAXI@Z 00421180 f i render_win32.release:graphicsprotocol.obj
 0001:000201c0       ??1UpdateSharedShaderVariable@Graphics@@UAE@XZ 004211c0 f i render_win32.release:graphicsprotocol.obj
 0001:000201e0       ??2AnimPlayClip@Graphics@@SAPAXI@Z 004211e0 f i render_win32.release:graphicsprotocol.obj
 0001:000201f0       ??3AnimPlayClip@Graphics@@SAXPAX@Z 004211f0 f i render_win32.release:graphicsprotocol.obj
 0001:00020210       ??0AnimPlayClip@Graphics@@QAE@XZ 00421210 f i render_win32.release:graphicsprotocol.obj
 0001:000202c0       ??_EAnimPlayClip@Graphics@@UAEPAXI@Z 004212c0 f i  CIL library: CIL module
 0001:000202c0       ??_GAnimPlayClip@Graphics@@UAEPAXI@Z 004212c0 f i render_win32.release:graphicsprotocol.obj
 0001:00020300       ??1AnimPlayClip@Graphics@@UAE@XZ 00421300 f i render_win32.release:graphicsprotocol.obj
 0001:00020320       ??2AnimStopTrack@Graphics@@SAPAXI@Z 00421320 f i render_win32.release:graphicsprotocol.obj
 0001:00020330       ??3AnimStopTrack@Graphics@@SAXPAX@Z 00421330 f i render_win32.release:graphicsprotocol.obj
 0001:00020350       ??0AnimStopTrack@Graphics@@QAE@XZ 00421350 f i render_win32.release:graphicsprotocol.obj
 0001:000203a0       ??_GAnimStopTrack@Graphics@@UAEPAXI@Z 004213a0 f i render_win32.release:graphicsprotocol.obj
 0001:000203a0       ??_EAnimStopTrack@Graphics@@UAEPAXI@Z 004213a0 f i  CIL library: CIL module
 0001:000203e0       ??1AnimStopTrack@Graphics@@UAE@XZ 004213e0 f i render_win32.release:graphicsprotocol.obj
 0001:00020400       ??2AnimStopAllTracks@Graphics@@SAPAXI@Z 00421400 f i render_win32.release:graphicsprotocol.obj
 0001:00020410       ??3AnimStopAllTracks@Graphics@@SAXPAX@Z 00421410 f i render_win32.release:graphicsprotocol.obj
 0001:00020430       ??0AnimStopAllTracks@Graphics@@QAE@XZ 00421430 f i render_win32.release:graphicsprotocol.obj
 0001:00020470       ??_GAnimStopAllTracks@Graphics@@UAEPAXI@Z 00421470 f i render_win32.release:graphicsprotocol.obj
 0001:00020470       ??_EAnimStopAllTracks@Graphics@@UAEPAXI@Z 00421470 f i  CIL library: CIL module
 0001:000204b0       ??1AnimStopAllTracks@Graphics@@UAE@XZ 004214b0 f i render_win32.release:graphicsprotocol.obj
 0001:000204d0       ??2AnimModifyBlendWeight@Graphics@@SAPAXI@Z 004214d0 f i render_win32.release:graphicsprotocol.obj
 0001:000204e0       ??3AnimModifyBlendWeight@Graphics@@SAXPAX@Z 004214e0 f i render_win32.release:graphicsprotocol.obj
 0001:00020500       ??0AnimModifyBlendWeight@Graphics@@QAE@XZ 00421500 f i render_win32.release:graphicsprotocol.obj
 0001:00020550       ??_GAnimModifyBlendWeight@Graphics@@UAEPAXI@Z 00421550 f i render_win32.release:graphicsprotocol.obj
 0001:00020550       ??_EAnimModifyBlendWeight@Graphics@@UAEPAXI@Z 00421550 f i  CIL library: CIL module
 0001:00020590       ??1AnimModifyBlendWeight@Graphics@@UAE@XZ 00421590 f i render_win32.release:graphicsprotocol.obj
 0001:000205b0       ??2AnimModifyTimeFactor@Graphics@@SAPAXI@Z 004215b0 f i render_win32.release:graphicsprotocol.obj
 0001:000205c0       ??3AnimModifyTimeFactor@Graphics@@SAXPAX@Z 004215c0 f i render_win32.release:graphicsprotocol.obj
 0001:000205e0       ??0AnimModifyTimeFactor@Graphics@@QAE@XZ 004215e0 f i render_win32.release:graphicsprotocol.obj
 0001:00020630       ??_GAnimModifyTimeFactor@Graphics@@UAEPAXI@Z 00421630 f i render_win32.release:graphicsprotocol.obj
 0001:00020630       ??_EAnimModifyTimeFactor@Graphics@@UAEPAXI@Z 00421630 f i  CIL library: CIL module
 0001:00020670       ??1AnimModifyTimeFactor@Graphics@@UAE@XZ 00421670 f i render_win32.release:graphicsprotocol.obj
 0001:00020690       ??2AnimIsClipPlaying@Graphics@@SAPAXI@Z 00421690 f i render_win32.release:graphicsprotocol.obj
 0001:000206a0       ??3AnimIsClipPlaying@Graphics@@SAXPAX@Z 004216a0 f i render_win32.release:graphicsprotocol.obj
 0001:000206c0       ??0AnimIsClipPlaying@Graphics@@QAE@XZ 004216c0 f i render_win32.release:graphicsprotocol.obj
 0001:00020710       ??_GAnimIsClipPlaying@Graphics@@UAEPAXI@Z 00421710 f i render_win32.release:graphicsprotocol.obj
 0001:00020710       ??_EAnimIsClipPlaying@Graphics@@UAEPAXI@Z 00421710 f i  CIL library: CIL module
 0001:00020750       ??1AnimIsClipPlaying@Graphics@@UAE@XZ 00421750 f i render_win32.release:graphicsprotocol.obj
 0001:00020770       ??2ApplySkinList@Graphics@@SAPAXI@Z 00421770 f i render_win32.release:graphicsprotocol.obj
 0001:00020780       ??3ApplySkinList@Graphics@@SAXPAX@Z 00421780 f i render_win32.release:graphicsprotocol.obj
 0001:000207a0       ??0ApplySkinList@Graphics@@QAE@XZ 004217a0 f i render_win32.release:graphicsprotocol.obj
 0001:000207f0       ??_GApplySkinList@Graphics@@UAEPAXI@Z 004217f0 f i render_win32.release:graphicsprotocol.obj
 0001:000207f0       ??_EApplySkinList@Graphics@@UAEPAXI@Z 004217f0 f i  CIL library: CIL module
 0001:00020830       ??1ApplySkinList@Graphics@@UAE@XZ 00421830 f i render_win32.release:graphicsprotocol.obj
 0001:00020850       ??2ShowSkin@Graphics@@SAPAXI@Z 00421850 f i render_win32.release:graphicsprotocol.obj
 0001:00020860       ??3ShowSkin@Graphics@@SAXPAX@Z 00421860 f i render_win32.release:graphicsprotocol.obj
 0001:00020880       ??0ShowSkin@Graphics@@QAE@XZ 00421880 f i render_win32.release:graphicsprotocol.obj
 0001:000208d0       ??_GShowSkin@Graphics@@UAEPAXI@Z 004218d0 f i render_win32.release:graphicsprotocol.obj
 0001:000208d0       ??_EShowSkin@Graphics@@UAEPAXI@Z 004218d0 f i  CIL library: CIL module
 0001:00020910       ??1ShowSkin@Graphics@@UAE@XZ 00421910 f i render_win32.release:graphicsprotocol.obj
 0001:00020930       ??2HideSkin@Graphics@@SAPAXI@Z 00421930 f i render_win32.release:graphicsprotocol.obj
 0001:00020940       ??3HideSkin@Graphics@@SAXPAX@Z 00421940 f i render_win32.release:graphicsprotocol.obj
 0001:00020960       ??0HideSkin@Graphics@@QAE@XZ 00421960 f i render_win32.release:graphicsprotocol.obj
 0001:000209b0       ??_EHideSkin@Graphics@@UAEPAXI@Z 004219b0 f i  CIL library: CIL module
 0001:000209b0       ??_GHideSkin@Graphics@@UAEPAXI@Z 004219b0 f i render_win32.release:graphicsprotocol.obj
 0001:000209f0       ??1HideSkin@Graphics@@UAE@XZ 004219f0 f i render_win32.release:graphicsprotocol.obj
 0001:00020a10       ??2SetVariation@Graphics@@SAPAXI@Z 00421a10 f i render_win32.release:graphicsprotocol.obj
 0001:00020a20       ??3SetVariation@Graphics@@SAXPAX@Z 00421a20 f i render_win32.release:graphicsprotocol.obj
 0001:00020a40       ??0SetVariation@Graphics@@QAE@XZ 00421a40 f i render_win32.release:graphicsprotocol.obj
 0001:00020a90       ??_ESetVariation@Graphics@@UAEPAXI@Z 00421a90 f i  CIL library: CIL module
 0001:00020a90       ??_GSetVariation@Graphics@@UAEPAXI@Z 00421a90 f i render_win32.release:graphicsprotocol.obj
 0001:00020ad0       ??1SetVariation@Graphics@@UAE@XZ 00421ad0 f i render_win32.release:graphicsprotocol.obj
 0001:00020af0       ??2SetTimeFactor@Graphics@@SAPAXI@Z 00421af0 f i render_win32.release:graphicsprotocol.obj
 0001:00020b00       ??3SetTimeFactor@Graphics@@SAXPAX@Z 00421b00 f i render_win32.release:graphicsprotocol.obj
 0001:00020b20       ??0SetTimeFactor@Graphics@@QAE@XZ 00421b20 f i render_win32.release:graphicsprotocol.obj
 0001:00020b40       ??_GSetTimeFactor@Graphics@@UAEPAXI@Z 00421b40 f i render_win32.release:graphicsprotocol.obj
 0001:00020b40       ??_ESetTimeFactor@Graphics@@UAEPAXI@Z 00421b40 f i  CIL library: CIL module
 0001:00020b70       ??1SetTimeFactor@Graphics@@UAE@XZ 00421b70 f i render_win32.release:graphicsprotocol.obj
 0001:00020b90       ??2UnbindAttachment@Graphics@@SAPAXI@Z 00421b90 f i render_win32.release:graphicsprotocol.obj
 0001:00020ba0       ??3UnbindAttachment@Graphics@@SAXPAX@Z 00421ba0 f i render_win32.release:graphicsprotocol.obj
 0001:00020bc0       ??0UnbindAttachment@Graphics@@QAE@XZ 00421bc0 f i render_win32.release:graphicsprotocol.obj
 0001:00020c20       ??_GUnbindAttachment@Graphics@@UAEPAXI@Z 00421c20 f i render_win32.release:graphicsprotocol.obj
 0001:00020c20       ??_EUnbindAttachment@Graphics@@UAEPAXI@Z 00421c20 f i  CIL library: CIL module
 0001:00020c70       ??1UnbindAttachment@Graphics@@UAE@XZ 00421c70 f i render_win32.release:graphicsprotocol.obj
 0001:00020ca0       ??2BindAttachment@Graphics@@SAPAXI@Z 00421ca0 f i render_win32.release:graphicsprotocol.obj
 0001:00020cb0       ??3BindAttachment@Graphics@@SAXPAX@Z 00421cb0 f i render_win32.release:graphicsprotocol.obj
 0001:00020cd0       ??0BindAttachment@Graphics@@QAE@XZ 00421cd0 f i render_win32.release:graphicsprotocol.obj
 0001:00020d90       ??_EBindAttachment@Graphics@@UAEPAXI@Z 00421d90 f i  CIL library: CIL module
 0001:00020d90       ??_GBindAttachment@Graphics@@UAEPAXI@Z 00421d90 f i render_win32.release:graphicsprotocol.obj
 0001:00020de0       ??1BindAttachment@Graphics@@UAE@XZ 00421de0 f i render_win32.release:graphicsprotocol.obj
 0001:00020e10       ??2SwitchAttachmentToNewJoint@Graphics@@SAPAXI@Z 00421e10 f i render_win32.release:graphicsprotocol.obj
 0001:00020e20       ??3SwitchAttachmentToNewJoint@Graphics@@SAXPAX@Z 00421e20 f i render_win32.release:graphicsprotocol.obj
 0001:00020e40       ??0SwitchAttachmentToNewJoint@Graphics@@QAE@XZ 00421e40 f i render_win32.release:graphicsprotocol.obj
 0001:00020e90       ??_GSwitchAttachmentToNewJoint@Graphics@@UAEPAXI@Z 00421e90 f i render_win32.release:graphicsprotocol.obj
 0001:00020e90       ??_ESwitchAttachmentToNewJoint@Graphics@@UAEPAXI@Z 00421e90 f i  CIL library: CIL module
 0001:00020ee0       ??1SwitchAttachmentToNewJoint@Graphics@@UAE@XZ 00421ee0 f i render_win32.release:graphicsprotocol.obj
 0001:00020f10       ??2BaseAnimEventMessage@Graphics@@SAPAXI@Z 00421f10 f i render_win32.release:graphicsprotocol.obj
 0001:00020f20       ??3BaseAnimEventMessage@Graphics@@SAXPAX@Z 00421f20 f i render_win32.release:graphicsprotocol.obj
 0001:00020f40       ??0BaseAnimEventMessage@Graphics@@QAE@XZ 00421f40 f i render_win32.release:graphicsprotocol.obj
 0001:00020f80       ??_GBaseAnimEventMessage@Graphics@@UAEPAXI@Z 00421f80 f i render_win32.release:graphicsprotocol.obj
 0001:00020f80       ??_EBaseAnimEventMessage@Graphics@@UAEPAXI@Z 00421f80 f i  CIL library: CIL module
 0001:00020fc0       ??1BaseAnimEventMessage@Graphics@@UAE@XZ 00421fc0 f i render_win32.release:graphicsprotocol.obj
 0001:00020fe0       ??2RegisterAnimEventHandler@Graphics@@SAPAXI@Z 00421fe0 f i render_win32.release:graphicsprotocol.obj
 0001:00020ff0       ??3RegisterAnimEventHandler@Graphics@@SAXPAX@Z 00421ff0 f i render_win32.release:graphicsprotocol.obj
 0001:00021010       ??0RegisterAnimEventHandler@Graphics@@QAE@XZ 00422010 f i render_win32.release:graphicsprotocol.obj
 0001:00021040       ??_GRegisterAnimEventHandler@Graphics@@UAEPAXI@Z 00422040 f i render_win32.release:graphicsprotocol.obj
 0001:00021040       ??_ERegisterAnimEventHandler@Graphics@@UAEPAXI@Z 00422040 f i  CIL library: CIL module
 0001:00021080       ??1RegisterAnimEventHandler@Graphics@@UAE@XZ 00422080 f i render_win32.release:graphicsprotocol.obj
 0001:000210a0       ??2UnregisterAnimEventHandler@Graphics@@SAPAXI@Z 004220a0 f i render_win32.release:graphicsprotocol.obj
 0001:000210b0       ??3UnregisterAnimEventHandler@Graphics@@SAXPAX@Z 004220b0 f i render_win32.release:graphicsprotocol.obj
 0001:000210d0       ??0UnregisterAnimEventHandler@Graphics@@QAE@XZ 004220d0 f i render_win32.release:graphicsprotocol.obj
 0001:00021110       ??_GUnregisterAnimEventHandler@Graphics@@UAEPAXI@Z 00422110 f i render_win32.release:graphicsprotocol.obj
 0001:00021110       ??_EUnregisterAnimEventHandler@Graphics@@UAEPAXI@Z 00422110 f i  CIL library: CIL module
 0001:00021140       ??1UnregisterAnimEventHandler@Graphics@@UAE@XZ 00422140 f i render_win32.release:graphicsprotocol.obj
 0001:00021160       ??2PreloadMousePointerTextures@Graphics@@SAPAXI@Z 00422160 f i render_win32.release:graphicsprotocol.obj
 0001:00021170       ??3PreloadMousePointerTextures@Graphics@@SAXPAX@Z 00422170 f i render_win32.release:graphicsprotocol.obj
 0001:00021190       ??0PreloadMousePointerTextures@Graphics@@QAE@XZ 00422190 f i render_win32.release:graphicsprotocol.obj
 0001:000211c0       ??_GPreloadMousePointerTextures@Graphics@@UAEPAXI@Z 004221c0 f i render_win32.release:graphicsprotocol.obj
 0001:000211c0       ??_EPreloadMousePointerTextures@Graphics@@UAEPAXI@Z 004221c0 f i  CIL library: CIL module
 0001:00021200       ??1PreloadMousePointerTextures@Graphics@@UAE@XZ 00422200 f i render_win32.release:graphicsprotocol.obj
 0001:00021220       ??2UpdateMousePointers@Graphics@@SAPAXI@Z 00422220 f i render_win32.release:graphicsprotocol.obj
 0001:00021230       ??3UpdateMousePointers@Graphics@@SAXPAX@Z 00422230 f i render_win32.release:graphicsprotocol.obj
 0001:00021250       ??0UpdateMousePointers@Graphics@@QAE@XZ 00422250 f i render_win32.release:graphicsprotocol.obj
 0001:00021280       ??_EUpdateMousePointers@Graphics@@UAEPAXI@Z 00422280 f i  CIL library: CIL module
 0001:00021280       ??_GUpdateMousePointers@Graphics@@UAEPAXI@Z 00422280 f i render_win32.release:graphicsprotocol.obj
 0001:000212c0       ??1UpdateMousePointers@Graphics@@UAE@XZ 004222c0 f i render_win32.release:graphicsprotocol.obj
 0001:000212e0       ??2HoldSharedResources@Graphics@@SAPAXI@Z 004222e0 f i render_win32.release:graphicsprotocol.obj
 0001:000212f0       ??3HoldSharedResources@Graphics@@SAXPAX@Z 004222f0 f i render_win32.release:graphicsprotocol.obj
 0001:00021310       ??0HoldSharedResources@Graphics@@QAE@XZ 00422310 f i render_win32.release:graphicsprotocol.obj
 0001:00021330       ??_EHoldSharedResources@Graphics@@UAEPAXI@Z 00422330 f i  CIL library: CIL module
 0001:00021330       ??_GHoldSharedResources@Graphics@@UAEPAXI@Z 00422330 f i render_win32.release:graphicsprotocol.obj
 0001:00021360       ??1HoldSharedResources@Graphics@@UAE@XZ 00422360 f i render_win32.release:graphicsprotocol.obj
 0001:00021380       ??2ReleaseSharedResources@Graphics@@SAPAXI@Z 00422380 f i render_win32.release:graphicsprotocol.obj
 0001:00021390       ??3ReleaseSharedResources@Graphics@@SAXPAX@Z 00422390 f i render_win32.release:graphicsprotocol.obj
 0001:000213b0       ??0ReleaseSharedResources@Graphics@@QAE@XZ 004223b0 f i render_win32.release:graphicsprotocol.obj
 0001:000213d0       ??_GReleaseSharedResources@Graphics@@UAEPAXI@Z 004223d0 f i render_win32.release:graphicsprotocol.obj
 0001:000213d0       ??_EReleaseSharedResources@Graphics@@UAEPAXI@Z 004223d0 f i  CIL library: CIL module
 0001:00021400       ??1ReleaseSharedResources@Graphics@@UAE@XZ 00422400 f i render_win32.release:graphicsprotocol.obj
 0001:00021420       ??2SetAnimatorTime@Graphics@@SAPAXI@Z 00422420 f i render_win32.release:graphicsprotocol.obj
 0001:00021430       ??3SetAnimatorTime@Graphics@@SAXPAX@Z 00422430 f i render_win32.release:graphicsprotocol.obj
 0001:00021450       ??0SetAnimatorTime@Graphics@@QAE@XZ 00422450 f i render_win32.release:graphicsprotocol.obj
 0001:000214a0       ??_ESetAnimatorTime@Graphics@@UAEPAXI@Z 004224a0 f i  CIL library: CIL module
 0001:000214a0       ??_GSetAnimatorTime@Graphics@@UAEPAXI@Z 004224a0 f i render_win32.release:graphicsprotocol.obj
 0001:000214e0       ??1SetAnimatorTime@Graphics@@UAE@XZ 004224e0 f i render_win32.release:graphicsprotocol.obj
 0001:00021500       ??2UpdateCameraEntity@Graphics@@SAPAXI@Z 00422500 f i render_win32.release:graphicsprotocol.obj
 0001:00021510       ??3UpdateCameraEntity@Graphics@@SAXPAX@Z 00422510 f i render_win32.release:graphicsprotocol.obj
 0001:00021530       ??0UpdateCameraEntity@Graphics@@QAE@XZ 00422530 f i render_win32.release:graphicsprotocol.obj
 0001:00021570       ??_EUpdateCameraEntity@Graphics@@UAEPAXI@Z 00422570 f i  CIL library: CIL module
 0001:00021570       ??_GUpdateCameraEntity@Graphics@@UAEPAXI@Z 00422570 f i render_win32.release:graphicsprotocol.obj
 0001:000215b0       ??1UpdateCameraEntity@Graphics@@UAE@XZ 004225b0 f i render_win32.release:graphicsprotocol.obj
 0001:000215d0       ??2SetShadowPointOfInterest@Graphics@@SAPAXI@Z 004225d0 f i render_win32.release:graphicsprotocol.obj
 0001:000215e0       ??3SetShadowPointOfInterest@Graphics@@SAXPAX@Z 004225e0 f i render_win32.release:graphicsprotocol.obj
 0001:00021600       ??0SetShadowPointOfInterest@Graphics@@QAE@XZ 00422600 f i render_win32.release:graphicsprotocol.obj
 0001:000216b0       ??_ESetShadowPointOfInterest@Graphics@@UAEPAXI@Z 004226b0 f i  CIL library: CIL module
 0001:000216b0       ??_GSetShadowPointOfInterest@Graphics@@UAEPAXI@Z 004226b0 f i render_win32.release:graphicsprotocol.obj
 0001:000216e0       ??1SetShadowPointOfInterest@Graphics@@UAE@XZ 004226e0 f i render_win32.release:graphicsprotocol.obj
 0001:00021700       ?GetRtti@RegisterRTPlugin@Graphics@@UBEPAVRtti@Core@@XZ 00422700 f   render_win32.release:graphicsprotocol.obj
 0001:00021710       ?FactoryCreator@RegisterRTPlugin@Graphics@@SAPAVRefCounted@Core@@XZ 00422710 f   render_win32.release:graphicsprotocol.obj
 0001:00021720       ?Create@RegisterRTPlugin@Graphics@@SAPAV12@XZ 00422720 f   render_win32.release:graphicsprotocol.obj
 0001:00021760       ?RegisterWithFactory@RegisterRTPlugin@Graphics@@SA_NXZ 00422760 f   render_win32.release:graphicsprotocol.obj
 0001:00021860       ?GetId@RegisterRTPlugin@Graphics@@UBEABVId@Messaging@@XZ 00422860 f   render_win32.release:graphicsprotocol.obj
 0001:00021870       ?GetRtti@UnregisterRTPlugin@Graphics@@UBEPAVRtti@Core@@XZ 00422870 f   render_win32.release:graphicsprotocol.obj
 0001:00021880       ?FactoryCreator@UnregisterRTPlugin@Graphics@@SAPAVRefCounted@Core@@XZ 00422880 f   render_win32.release:graphicsprotocol.obj
 0001:00021890       ?Create@UnregisterRTPlugin@Graphics@@SAPAV12@XZ 00422890 f   render_win32.release:graphicsprotocol.obj
 0001:000218d0       ?RegisterWithFactory@UnregisterRTPlugin@Graphics@@SA_NXZ 004228d0 f   render_win32.release:graphicsprotocol.obj
 0001:000219d0       ?GetId@UnregisterRTPlugin@Graphics@@UBEABVId@Messaging@@XZ 004229d0 f   render_win32.release:graphicsprotocol.obj
 0001:000219e0       ?GetRtti@SetupGraphics@Graphics@@UBEPAVRtti@Core@@XZ 004229e0 f   render_win32.release:graphicsprotocol.obj
 0001:000219f0       ?FactoryCreator@SetupGraphics@Graphics@@SAPAVRefCounted@Core@@XZ 004229f0 f   render_win32.release:graphicsprotocol.obj
 0001:00021a00       ?Create@SetupGraphics@Graphics@@SAPAV12@XZ 00422a00 f   render_win32.release:graphicsprotocol.obj
 0001:00021a40       ?RegisterWithFactory@SetupGraphics@Graphics@@SA_NXZ 00422a40 f   render_win32.release:graphicsprotocol.obj
 0001:00021b40       ?GetId@SetupGraphics@Graphics@@UBEABVId@Messaging@@XZ 00422b40 f   render_win32.release:graphicsprotocol.obj
 0001:00021b50       ?GetRtti@AdapterExists@Graphics@@UBEPAVRtti@Core@@XZ 00422b50 f   render_win32.release:graphicsprotocol.obj
 0001:00021b60       ?FactoryCreator@AdapterExists@Graphics@@SAPAVRefCounted@Core@@XZ 00422b60 f   render_win32.release:graphicsprotocol.obj
 0001:00021b70       ?Create@AdapterExists@Graphics@@SAPAV12@XZ 00422b70 f   render_win32.release:graphicsprotocol.obj
 0001:00021bb0       ?RegisterWithFactory@AdapterExists@Graphics@@SA_NXZ 00422bb0 f   render_win32.release:graphicsprotocol.obj
 0001:00021cb0       ?GetId@AdapterExists@Graphics@@UBEABVId@Messaging@@XZ 00422cb0 f   render_win32.release:graphicsprotocol.obj
 0001:00021cc0       ?GetRtti@GetAvailableDisplayModes@Graphics@@UBEPAVRtti@Core@@XZ 00422cc0 f   render_win32.release:graphicsprotocol.obj
 0001:00021cd0       ?FactoryCreator@GetAvailableDisplayModes@Graphics@@SAPAVRefCounted@Core@@XZ 00422cd0 f   render_win32.release:graphicsprotocol.obj
 0001:00021ce0       ?Create@GetAvailableDisplayModes@Graphics@@SAPAV12@XZ 00422ce0 f   render_win32.release:graphicsprotocol.obj
 0001:00021d30       ?RegisterWithFactory@GetAvailableDisplayModes@Graphics@@SA_NXZ 00422d30 f   render_win32.release:graphicsprotocol.obj
 0001:00021e30       ?GetId@GetAvailableDisplayModes@Graphics@@UBEABVId@Messaging@@XZ 00422e30 f   render_win32.release:graphicsprotocol.obj
 0001:00021e40       ?GetRtti@SupportsDisplayMode@Graphics@@UBEPAVRtti@Core@@XZ 00422e40 f   render_win32.release:graphicsprotocol.obj
 0001:00021e50       ?FactoryCreator@SupportsDisplayMode@Graphics@@SAPAVRefCounted@Core@@XZ 00422e50 f   render_win32.release:graphicsprotocol.obj
 0001:00021e60       ?Create@SupportsDisplayMode@Graphics@@SAPAV12@XZ 00422e60 f   render_win32.release:graphicsprotocol.obj
 0001:00021ea0       ?RegisterWithFactory@SupportsDisplayMode@Graphics@@SA_NXZ 00422ea0 f   render_win32.release:graphicsprotocol.obj
 0001:00021fa0       ?GetId@SupportsDisplayMode@Graphics@@UBEABVId@Messaging@@XZ 00422fa0 f   render_win32.release:graphicsprotocol.obj
 0001:00021fb0       ?GetRtti@AdjustDisplaySize@Graphics@@UBEPAVRtti@Core@@XZ 00422fb0 f   render_win32.release:graphicsprotocol.obj
 0001:00021fc0       ?FactoryCreator@AdjustDisplaySize@Graphics@@SAPAVRefCounted@Core@@XZ 00422fc0 f   render_win32.release:graphicsprotocol.obj
 0001:00021fd0       ?Create@AdjustDisplaySize@Graphics@@SAPAV12@XZ 00422fd0 f   render_win32.release:graphicsprotocol.obj
 0001:00022010       ?RegisterWithFactory@AdjustDisplaySize@Graphics@@SA_NXZ 00423010 f   render_win32.release:graphicsprotocol.obj
 0001:00022110       ?GetId@AdjustDisplaySize@Graphics@@UBEABVId@Messaging@@XZ 00423110 f   render_win32.release:graphicsprotocol.obj
 0001:00022120       ?GetRtti@GetCurrentAdapterDisplayMode@Graphics@@UBEPAVRtti@Core@@XZ 00423120 f   render_win32.release:graphicsprotocol.obj
 0001:00022130       ?FactoryCreator@GetCurrentAdapterDisplayMode@Graphics@@SAPAVRefCounted@Core@@XZ 00423130 f   render_win32.release:graphicsprotocol.obj
 0001:00022140       ?Create@GetCurrentAdapterDisplayMode@Graphics@@SAPAV12@XZ 00423140 f   render_win32.release:graphicsprotocol.obj
 0001:00022180       ?RegisterWithFactory@GetCurrentAdapterDisplayMode@Graphics@@SA_NXZ 00423180 f   render_win32.release:graphicsprotocol.obj
 0001:00022280       ?GetId@GetCurrentAdapterDisplayMode@Graphics@@UBEABVId@Messaging@@XZ 00423280 f   render_win32.release:graphicsprotocol.obj
 0001:00022290       ?GetRtti@GetAdapterInfo@Graphics@@UBEPAVRtti@Core@@XZ 00423290 f   render_win32.release:graphicsprotocol.obj
 0001:000222a0       ?FactoryCreator@GetAdapterInfo@Graphics@@SAPAVRefCounted@Core@@XZ 004232a0 f   render_win32.release:graphicsprotocol.obj
 0001:000222b0       ?Create@GetAdapterInfo@Graphics@@SAPAV12@XZ 004232b0 f   render_win32.release:graphicsprotocol.obj
 0001:00022300       ?RegisterWithFactory@GetAdapterInfo@Graphics@@SA_NXZ 00423300 f   render_win32.release:graphicsprotocol.obj
 0001:00022400       ?GetId@GetAdapterInfo@Graphics@@UBEABVId@Messaging@@XZ 00423400 f   render_win32.release:graphicsprotocol.obj
 0001:00022410       ?GetRtti@AttachDisplayEventHandler@Graphics@@UBEPAVRtti@Core@@XZ 00423410 f   render_win32.release:graphicsprotocol.obj
 0001:00022420       ?FactoryCreator@AttachDisplayEventHandler@Graphics@@SAPAVRefCounted@Core@@XZ 00423420 f   render_win32.release:graphicsprotocol.obj
 0001:00022430       ?Create@AttachDisplayEventHandler@Graphics@@SAPAV12@XZ 00423430 f   render_win32.release:graphicsprotocol.obj
 0001:00022480       ?RegisterWithFactory@AttachDisplayEventHandler@Graphics@@SA_NXZ 00423480 f   render_win32.release:graphicsprotocol.obj
 0001:00022580       ?GetId@AttachDisplayEventHandler@Graphics@@UBEABVId@Messaging@@XZ 00423580 f   render_win32.release:graphicsprotocol.obj
 0001:00022590       ?GetRtti@RemoveDisplayEventHandler@Graphics@@UBEPAVRtti@Core@@XZ 00423590 f   render_win32.release:graphicsprotocol.obj
 0001:000225a0       ?FactoryCreator@RemoveDisplayEventHandler@Graphics@@SAPAVRefCounted@Core@@XZ 004235a0 f   render_win32.release:graphicsprotocol.obj
 0001:000225b0       ?Create@RemoveDisplayEventHandler@Graphics@@SAPAV12@XZ 004235b0 f   render_win32.release:graphicsprotocol.obj
 0001:00022600       ?RegisterWithFactory@RemoveDisplayEventHandler@Graphics@@SA_NXZ 00423600 f   render_win32.release:graphicsprotocol.obj
 0001:00022700       ?GetId@RemoveDisplayEventHandler@Graphics@@UBEABVId@Messaging@@XZ 00423700 f   render_win32.release:graphicsprotocol.obj
 0001:00022710       ?GetRtti@AttachRenderEventHandler@Graphics@@UBEPAVRtti@Core@@XZ 00423710 f   render_win32.release:graphicsprotocol.obj
 0001:00022720       ?FactoryCreator@AttachRenderEventHandler@Graphics@@SAPAVRefCounted@Core@@XZ 00423720 f   render_win32.release:graphicsprotocol.obj
 0001:00022730       ?Create@AttachRenderEventHandler@Graphics@@SAPAV12@XZ 00423730 f   render_win32.release:graphicsprotocol.obj
 0001:00022780       ?RegisterWithFactory@AttachRenderEventHandler@Graphics@@SA_NXZ 00423780 f   render_win32.release:graphicsprotocol.obj
 0001:00022880       ?GetId@AttachRenderEventHandler@Graphics@@UBEABVId@Messaging@@XZ 00423880 f   render_win32.release:graphicsprotocol.obj
 0001:00022890       ?GetRtti@RemoveRenderEventHandler@Graphics@@UBEPAVRtti@Core@@XZ 00423890 f   render_win32.release:graphicsprotocol.obj
 0001:000228a0       ?FactoryCreator@RemoveRenderEventHandler@Graphics@@SAPAVRefCounted@Core@@XZ 004238a0 f   render_win32.release:graphicsprotocol.obj
 0001:000228b0       ?Create@RemoveRenderEventHandler@Graphics@@SAPAV12@XZ 004238b0 f   render_win32.release:graphicsprotocol.obj
 0001:00022900       ?RegisterWithFactory@RemoveRenderEventHandler@Graphics@@SA_NXZ 00423900 f   render_win32.release:graphicsprotocol.obj
 0001:00022a00       ?GetId@RemoveRenderEventHandler@Graphics@@UBEABVId@Messaging@@XZ 00423a00 f   render_win32.release:graphicsprotocol.obj
 0001:00022a10       ?GetRtti@CreateGraphicsStage@Graphics@@UBEPAVRtti@Core@@XZ 00423a10 f   render_win32.release:graphicsprotocol.obj
 0001:00022a20       ?FactoryCreator@CreateGraphicsStage@Graphics@@SAPAVRefCounted@Core@@XZ 00423a20 f   render_win32.release:graphicsprotocol.obj
 0001:00022a30       ?Create@CreateGraphicsStage@Graphics@@SAPAV12@XZ 00423a30 f   render_win32.release:graphicsprotocol.obj
 0001:00022a70       ?RegisterWithFactory@CreateGraphicsStage@Graphics@@SA_NXZ 00423a70 f   render_win32.release:graphicsprotocol.obj
 0001:00022b70       ?GetId@CreateGraphicsStage@Graphics@@UBEABVId@Messaging@@XZ 00423b70 f   render_win32.release:graphicsprotocol.obj
 0001:00022b80       ?GetRtti@DiscardGraphicsStage@Graphics@@UBEPAVRtti@Core@@XZ 00423b80 f   render_win32.release:graphicsprotocol.obj
 0001:00022b90       ?FactoryCreator@DiscardGraphicsStage@Graphics@@SAPAVRefCounted@Core@@XZ 00423b90 f   render_win32.release:graphicsprotocol.obj
 0001:00022ba0       ?Create@DiscardGraphicsStage@Graphics@@SAPAV12@XZ 00423ba0 f   render_win32.release:graphicsprotocol.obj
 0001:00022bf0       ?RegisterWithFactory@DiscardGraphicsStage@Graphics@@SA_NXZ 00423bf0 f   render_win32.release:graphicsprotocol.obj
 0001:00022cf0       ?GetId@DiscardGraphicsStage@Graphics@@UBEABVId@Messaging@@XZ 00423cf0 f   render_win32.release:graphicsprotocol.obj
 0001:00022d00       ?GetRtti@CreateGraphicsView@Graphics@@UBEPAVRtti@Core@@XZ 00423d00 f   render_win32.release:graphicsprotocol.obj
 0001:00022d10       ?FactoryCreator@CreateGraphicsView@Graphics@@SAPAVRefCounted@Core@@XZ 00423d10 f   render_win32.release:graphicsprotocol.obj
 0001:00022d20       ?Create@CreateGraphicsView@Graphics@@SAPAV12@XZ 00423d20 f   render_win32.release:graphicsprotocol.obj
 0001:00022d60       ?RegisterWithFactory@CreateGraphicsView@Graphics@@SA_NXZ 00423d60 f   render_win32.release:graphicsprotocol.obj
 0001:00022e60       ?GetId@CreateGraphicsView@Graphics@@UBEABVId@Messaging@@XZ 00423e60 f   render_win32.release:graphicsprotocol.obj
 0001:00022e70       ?GetRtti@DiscardGraphicsView@Graphics@@UBEPAVRtti@Core@@XZ 00423e70 f   render_win32.release:graphicsprotocol.obj
 0001:00022e80       ?FactoryCreator@DiscardGraphicsView@Graphics@@SAPAVRefCounted@Core@@XZ 00423e80 f   render_win32.release:graphicsprotocol.obj
 0001:00022e90       ?Create@DiscardGraphicsView@Graphics@@SAPAV12@XZ 00423e90 f   render_win32.release:graphicsprotocol.obj
 0001:00022ee0       ?RegisterWithFactory@DiscardGraphicsView@Graphics@@SA_NXZ 00423ee0 f   render_win32.release:graphicsprotocol.obj
 0001:00022fe0       ?GetId@DiscardGraphicsView@Graphics@@UBEABVId@Messaging@@XZ 00423fe0 f   render_win32.release:graphicsprotocol.obj
 0001:00022ff0       ?GetRtti@SetDefaultGraphicsView@Graphics@@UBEPAVRtti@Core@@XZ 00423ff0 f   render_win32.release:graphicsprotocol.obj
 0001:00023000       ?FactoryCreator@SetDefaultGraphicsView@Graphics@@SAPAVRefCounted@Core@@XZ 00424000 f   render_win32.release:graphicsprotocol.obj
 0001:00023010       ?Create@SetDefaultGraphicsView@Graphics@@SAPAV12@XZ 00424010 f   render_win32.release:graphicsprotocol.obj
 0001:00023060       ?RegisterWithFactory@SetDefaultGraphicsView@Graphics@@SA_NXZ 00424060 f   render_win32.release:graphicsprotocol.obj
 0001:00023160       ?GetId@SetDefaultGraphicsView@Graphics@@UBEABVId@Messaging@@XZ 00424160 f   render_win32.release:graphicsprotocol.obj
 0001:00023170       ?GetRtti@CreateGraphicsEntity@Graphics@@UBEPAVRtti@Core@@XZ 00424170 f   render_win32.release:graphicsprotocol.obj
 0001:00023180       ?FactoryCreator@CreateGraphicsEntity@Graphics@@SAPAVRefCounted@Core@@XZ 00424180 f   render_win32.release:graphicsprotocol.obj
 0001:00023190       ?Create@CreateGraphicsEntity@Graphics@@SAPAV12@XZ 00424190 f   render_win32.release:graphicsprotocol.obj
 0001:000231d0       ?RegisterWithFactory@CreateGraphicsEntity@Graphics@@SA_NXZ 004241d0 f   render_win32.release:graphicsprotocol.obj
 0001:000232d0       ?GetId@CreateGraphicsEntity@Graphics@@UBEABVId@Messaging@@XZ 004242d0 f   render_win32.release:graphicsprotocol.obj
 0001:000232e0       ?GetRtti@CreateModelEntity@Graphics@@UBEPAVRtti@Core@@XZ 004242e0 f   render_win32.release:graphicsprotocol.obj
 0001:000232f0       ?FactoryCreator@CreateModelEntity@Graphics@@SAPAVRefCounted@Core@@XZ 004242f0 f   render_win32.release:graphicsprotocol.obj
 0001:00023300       ?Create@CreateModelEntity@Graphics@@SAPAV12@XZ 00424300 f   render_win32.release:graphicsprotocol.obj
 0001:00023340       ?RegisterWithFactory@CreateModelEntity@Graphics@@SA_NXZ 00424340 f   render_win32.release:graphicsprotocol.obj
 0001:00023440       ?GetId@CreateModelEntity@Graphics@@UBEABVId@Messaging@@XZ 00424440 f   render_win32.release:graphicsprotocol.obj
 0001:00023450       ?GetRtti@CreateCameraEntity@Graphics@@UBEPAVRtti@Core@@XZ 00424450 f   render_win32.release:graphicsprotocol.obj
 0001:00023460       ?FactoryCreator@CreateCameraEntity@Graphics@@SAPAVRefCounted@Core@@XZ 00424460 f   render_win32.release:graphicsprotocol.obj
 0001:00023470       ?Create@CreateCameraEntity@Graphics@@SAPAV12@XZ 00424470 f   render_win32.release:graphicsprotocol.obj
 0001:000234d0       ?RegisterWithFactory@CreateCameraEntity@Graphics@@SA_NXZ 004244d0 f   render_win32.release:graphicsprotocol.obj
 0001:000235d0       ?GetId@CreateCameraEntity@Graphics@@UBEABVId@Messaging@@XZ 004245d0 f   render_win32.release:graphicsprotocol.obj
 0001:000235e0       ?GetRtti@CreateGlobalLightEntity@Graphics@@UBEPAVRtti@Core@@XZ 004245e0 f   render_win32.release:graphicsprotocol.obj
 0001:000235f0       ?FactoryCreator@CreateGlobalLightEntity@Graphics@@SAPAVRefCounted@Core@@XZ 004245f0 f   render_win32.release:graphicsprotocol.obj
 0001:00023600       ?Create@CreateGlobalLightEntity@Graphics@@SAPAV12@XZ 00424600 f   render_win32.release:graphicsprotocol.obj
 0001:00023650       ?RegisterWithFactory@CreateGlobalLightEntity@Graphics@@SA_NXZ 00424650 f   render_win32.release:graphicsprotocol.obj
 0001:00023750       ?GetId@CreateGlobalLightEntity@Graphics@@UBEABVId@Messaging@@XZ 00424750 f   render_win32.release:graphicsprotocol.obj
 0001:00023760       ?GetRtti@CreateSpotLightEntity@Graphics@@UBEPAVRtti@Core@@XZ 00424760 f   render_win32.release:graphicsprotocol.obj
 0001:00023770       ?FactoryCreator@CreateSpotLightEntity@Graphics@@SAPAVRefCounted@Core@@XZ 00424770 f   render_win32.release:graphicsprotocol.obj
 0001:00023780       ?Create@CreateSpotLightEntity@Graphics@@SAPAV12@XZ 00424780 f   render_win32.release:graphicsprotocol.obj
 0001:000237d0       ?RegisterWithFactory@CreateSpotLightEntity@Graphics@@SA_NXZ 004247d0 f   render_win32.release:graphicsprotocol.obj
 0001:000238d0       ?GetId@CreateSpotLightEntity@Graphics@@UBEABVId@Messaging@@XZ 004248d0 f   render_win32.release:graphicsprotocol.obj
 0001:000238e0       ?GetRtti@CreatePointLightEntity@Graphics@@UBEPAVRtti@Core@@XZ 004248e0 f   render_win32.release:graphicsprotocol.obj
 0001:000238f0       ?FactoryCreator@CreatePointLightEntity@Graphics@@SAPAVRefCounted@Core@@XZ 004248f0 f   render_win32.release:graphicsprotocol.obj
 0001:00023900       ?Create@CreatePointLightEntity@Graphics@@SAPAV12@XZ 00424900 f   render_win32.release:graphicsprotocol.obj
 0001:00023950       ?RegisterWithFactory@CreatePointLightEntity@Graphics@@SA_NXZ 00424950 f   render_win32.release:graphicsprotocol.obj
 0001:00023a50       ?GetId@CreatePointLightEntity@Graphics@@UBEABVId@Messaging@@XZ 00424a50 f   render_win32.release:graphicsprotocol.obj
 0001:00023a60       ?GetRtti@GraphicsEntityMessage@Graphics@@UBEPAVRtti@Core@@XZ 00424a60 f   render_win32.release:graphicsprotocol.obj
 0001:00023a70       ?FactoryCreator@GraphicsEntityMessage@Graphics@@SAPAVRefCounted@Core@@XZ 00424a70 f   render_win32.release:graphicsprotocol.obj
 0001:00023a80       ?Create@GraphicsEntityMessage@Graphics@@SAPAV12@XZ 00424a80 f   render_win32.release:graphicsprotocol.obj
 0001:00023ad0       ?RegisterWithFactory@GraphicsEntityMessage@Graphics@@SA_NXZ 00424ad0 f   render_win32.release:graphicsprotocol.obj
 0001:00023bd0       ?GetId@GraphicsEntityMessage@Graphics@@UBEABVId@Messaging@@XZ 00424bd0 f   render_win32.release:graphicsprotocol.obj
 0001:00023be0       ?GetRtti@DiscardGraphicsEntity@Graphics@@UBEPAVRtti@Core@@XZ 00424be0 f   render_win32.release:graphicsprotocol.obj
 0001:00023bf0       ?FactoryCreator@DiscardGraphicsEntity@Graphics@@SAPAVRefCounted@Core@@XZ 00424bf0 f   render_win32.release:graphicsprotocol.obj
 0001:00023c00       ?Create@DiscardGraphicsEntity@Graphics@@SAPAV12@XZ 00424c00 f   render_win32.release:graphicsprotocol.obj
 0001:00023c60       ?RegisterWithFactory@DiscardGraphicsEntity@Graphics@@SA_NXZ 00424c60 f   render_win32.release:graphicsprotocol.obj
 0001:00023d60       ?GetId@DiscardGraphicsEntity@Graphics@@UBEABVId@Messaging@@XZ 00424d60 f   render_win32.release:graphicsprotocol.obj
 0001:00023d70       ?GetRtti@AddTrackedCharJoint@Graphics@@UBEPAVRtti@Core@@XZ 00424d70 f   render_win32.release:graphicsprotocol.obj
 0001:00023d80       ?FactoryCreator@AddTrackedCharJoint@Graphics@@SAPAVRefCounted@Core@@XZ 00424d80 f   render_win32.release:graphicsprotocol.obj
 0001:00023d90       ?Create@AddTrackedCharJoint@Graphics@@SAPAV12@XZ 00424d90 f   render_win32.release:graphicsprotocol.obj
 0001:00023e00       ?RegisterWithFactory@AddTrackedCharJoint@Graphics@@SA_NXZ 00424e00 f   render_win32.release:graphicsprotocol.obj
 0001:00023f00       ?GetId@AddTrackedCharJoint@Graphics@@UBEABVId@Messaging@@XZ 00424f00 f   render_win32.release:graphicsprotocol.obj
 0001:00023f10       ?GetRtti@SetLightColor@Graphics@@UBEPAVRtti@Core@@XZ 00424f10 f   render_win32.release:graphicsprotocol.obj
 0001:00023f20       ?FactoryCreator@SetLightColor@Graphics@@SAPAVRefCounted@Core@@XZ 00424f20 f   render_win32.release:graphicsprotocol.obj
 0001:00023f30       ?Create@SetLightColor@Graphics@@SAPAV12@XZ 00424f30 f   render_win32.release:graphicsprotocol.obj
 0001:00023f90       ?RegisterWithFactory@SetLightColor@Graphics@@SA_NXZ 00424f90 f   render_win32.release:graphicsprotocol.obj
 0001:00024090       ?GetId@SetLightColor@Graphics@@UBEABVId@Messaging@@XZ 00425090 f   render_win32.release:graphicsprotocol.obj
 0001:000240a0       ?GetRtti@SetLightCastShadows@Graphics@@UBEPAVRtti@Core@@XZ 004250a0 f   render_win32.release:graphicsprotocol.obj
 0001:000240b0       ?FactoryCreator@SetLightCastShadows@Graphics@@SAPAVRefCounted@Core@@XZ 004250b0 f   render_win32.release:graphicsprotocol.obj
 0001:000240c0       ?Create@SetLightCastShadows@Graphics@@SAPAV12@XZ 004250c0 f   render_win32.release:graphicsprotocol.obj
 0001:00024120       ?RegisterWithFactory@SetLightCastShadows@Graphics@@SA_NXZ 00425120 f   render_win32.release:graphicsprotocol.obj
 0001:00024220       ?GetId@SetLightCastShadows@Graphics@@UBEABVId@Messaging@@XZ 00425220 f   render_win32.release:graphicsprotocol.obj
 0001:00024230       ?GetRtti@SetGlobalBackLightColor@Graphics@@UBEPAVRtti@Core@@XZ 00425230 f   render_win32.release:graphicsprotocol.obj
 0001:00024240       ?FactoryCreator@SetGlobalBackLightColor@Graphics@@SAPAVRefCounted@Core@@XZ 00425240 f   render_win32.release:graphicsprotocol.obj
 0001:00024250       ?Create@SetGlobalBackLightColor@Graphics@@SAPAV12@XZ 00425250 f   render_win32.release:graphicsprotocol.obj
 0001:000242b0       ?RegisterWithFactory@SetGlobalBackLightColor@Graphics@@SA_NXZ 004252b0 f   render_win32.release:graphicsprotocol.obj
 0001:000243b0       ?GetId@SetGlobalBackLightColor@Graphics@@UBEABVId@Messaging@@XZ 004253b0 f   render_win32.release:graphicsprotocol.obj
 0001:000243c0       ?GetRtti@SetGlobalAmbientLightColor@Graphics@@UBEPAVRtti@Core@@XZ 004253c0 f   render_win32.release:graphicsprotocol.obj
 0001:000243d0       ?FactoryCreator@SetGlobalAmbientLightColor@Graphics@@SAPAVRefCounted@Core@@XZ 004253d0 f   render_win32.release:graphicsprotocol.obj
 0001:000243e0       ?Create@SetGlobalAmbientLightColor@Graphics@@SAPAV12@XZ 004253e0 f   render_win32.release:graphicsprotocol.obj
 0001:00024440       ?RegisterWithFactory@SetGlobalAmbientLightColor@Graphics@@SA_NXZ 00425440 f   render_win32.release:graphicsprotocol.obj
 0001:00024540       ?GetId@SetGlobalAmbientLightColor@Graphics@@UBEABVId@Messaging@@XZ 00425540 f   render_win32.release:graphicsprotocol.obj
 0001:00024550       ?GetRtti@SetGlobalBackLightOffset@Graphics@@UBEPAVRtti@Core@@XZ 00425550 f   render_win32.release:graphicsprotocol.obj
 0001:00024560       ?FactoryCreator@SetGlobalBackLightOffset@Graphics@@SAPAVRefCounted@Core@@XZ 00425560 f   render_win32.release:graphicsprotocol.obj
 0001:00024570       ?Create@SetGlobalBackLightOffset@Graphics@@SAPAV12@XZ 00425570 f   render_win32.release:graphicsprotocol.obj
 0001:000245d0       ?RegisterWithFactory@SetGlobalBackLightOffset@Graphics@@SA_NXZ 004255d0 f   render_win32.release:graphicsprotocol.obj
 0001:000246d0       ?GetId@SetGlobalBackLightOffset@Graphics@@UBEABVId@Messaging@@XZ 004256d0 f   render_win32.release:graphicsprotocol.obj
 0001:000246e0       ?GetRtti@SetGlobalLightParams@Graphics@@UBEPAVRtti@Core@@XZ 004256e0 f   render_win32.release:graphicsprotocol.obj
 0001:000246f0       ?FactoryCreator@SetGlobalLightParams@Graphics@@SAPAVRefCounted@Core@@XZ 004256f0 f   render_win32.release:graphicsprotocol.obj
 0001:00024700       ?Create@SetGlobalLightParams@Graphics@@SAPAV12@XZ 00425700 f   render_win32.release:graphicsprotocol.obj
 0001:00024760       ?RegisterWithFactory@SetGlobalLightParams@Graphics@@SA_NXZ 00425760 f   render_win32.release:graphicsprotocol.obj
 0001:00024860       ?GetId@SetGlobalLightParams@Graphics@@UBEABVId@Messaging@@XZ 00425860 f   render_win32.release:graphicsprotocol.obj
 0001:00024870       ?GetRtti@SetGlobalLightColor@Graphics@@UBEPAVRtti@Core@@XZ 00425870 f   render_win32.release:graphicsprotocol.obj
 0001:00024880       ?FactoryCreator@SetGlobalLightColor@Graphics@@SAPAVRefCounted@Core@@XZ 00425880 f   render_win32.release:graphicsprotocol.obj
 0001:00024890       ?Create@SetGlobalLightColor@Graphics@@SAPAV12@XZ 00425890 f   render_win32.release:graphicsprotocol.obj
 0001:000248f0       ?RegisterWithFactory@SetGlobalLightColor@Graphics@@SA_NXZ 004258f0 f   render_win32.release:graphicsprotocol.obj
 0001:000249f0       ?GetId@SetGlobalLightColor@Graphics@@UBEABVId@Messaging@@XZ 004259f0 f   render_win32.release:graphicsprotocol.obj
 0001:00024a00       ?GetRtti@UpdateTransform@Graphics@@UBEPAVRtti@Core@@XZ 00425a00 f   render_win32.release:graphicsprotocol.obj
 0001:00024a10       ?FactoryCreator@UpdateTransform@Graphics@@SAPAVRefCounted@Core@@XZ 00425a10 f   render_win32.release:graphicsprotocol.obj
 0001:00024a20       ?Create@UpdateTransform@Graphics@@SAPAV12@XZ 00425a20 f   render_win32.release:graphicsprotocol.obj
 0001:00024a60       ?RegisterWithFactory@UpdateTransform@Graphics@@SA_NXZ 00425a60 f   render_win32.release:graphicsprotocol.obj
 0001:00024b60       ?GetId@UpdateTransform@Graphics@@UBEABVId@Messaging@@XZ 00425b60 f   render_win32.release:graphicsprotocol.obj
 0001:00024b70       ?GetRtti@SetVisibility@Graphics@@UBEPAVRtti@Core@@XZ 00425b70 f   render_win32.release:graphicsprotocol.obj
 0001:00024b80       ?FactoryCreator@SetVisibility@Graphics@@SAPAVRefCounted@Core@@XZ 00425b80 f   render_win32.release:graphicsprotocol.obj
 0001:00024b90       ?Create@SetVisibility@Graphics@@SAPAV12@XZ 00425b90 f   render_win32.release:graphicsprotocol.obj
 0001:00024bf0       ?RegisterWithFactory@SetVisibility@Graphics@@SA_NXZ 00425bf0 f   render_win32.release:graphicsprotocol.obj
 0001:00024cf0       ?GetId@SetVisibility@Graphics@@UBEABVId@Messaging@@XZ 00425cf0 f   render_win32.release:graphicsprotocol.obj
 0001:00024d00       ?GetRtti@AttachCameraToView@Graphics@@UBEPAVRtti@Core@@XZ 00425d00 f   render_win32.release:graphicsprotocol.obj
 0001:00024d10       ?FactoryCreator@AttachCameraToView@Graphics@@SAPAVRefCounted@Core@@XZ 00425d10 f   render_win32.release:graphicsprotocol.obj
 0001:00024d20       ?Create@AttachCameraToView@Graphics@@SAPAV12@XZ 00425d20 f   render_win32.release:graphicsprotocol.obj
 0001:00024d90       ?RegisterWithFactory@AttachCameraToView@Graphics@@SA_NXZ 00425d90 f   render_win32.release:graphicsprotocol.obj
 0001:00024e90       ?GetId@AttachCameraToView@Graphics@@UBEABVId@Messaging@@XZ 00425e90 f   render_win32.release:graphicsprotocol.obj
 0001:00024ea0       ?GetRtti@RemoveCameraFromView@Graphics@@UBEPAVRtti@Core@@XZ 00425ea0 f   render_win32.release:graphicsprotocol.obj
 0001:00024eb0       ?FactoryCreator@RemoveCameraFromView@Graphics@@SAPAVRefCounted@Core@@XZ 00425eb0 f   render_win32.release:graphicsprotocol.obj
 0001:00024ec0       ?Create@RemoveCameraFromView@Graphics@@SAPAV12@XZ 00425ec0 f   render_win32.release:graphicsprotocol.obj
 0001:00024f30       ?RegisterWithFactory@RemoveCameraFromView@Graphics@@SA_NXZ 00425f30 f   render_win32.release:graphicsprotocol.obj
 0001:00025030       ?GetId@RemoveCameraFromView@Graphics@@UBEABVId@Messaging@@XZ 00426030 f   render_win32.release:graphicsprotocol.obj
 0001:00025040       ?GetRtti@UpdModelNodeInstanceShaderVariable@Graphics@@UBEPAVRtti@Core@@XZ 00426040 f   render_win32.release:graphicsprotocol.obj
 0001:00025050       ?FactoryCreator@UpdModelNodeInstanceShaderVariable@Graphics@@SAPAVRefCounted@Core@@XZ 00426050 f   render_win32.release:graphicsprotocol.obj
 0001:00025060       ?Create@UpdModelNodeInstanceShaderVariable@Graphics@@SAPAV12@XZ 00426060 f   render_win32.release:graphicsprotocol.obj
 0001:000250a0       ?RegisterWithFactory@UpdModelNodeInstanceShaderVariable@Graphics@@SA_NXZ 004260a0 f   render_win32.release:graphicsprotocol.obj
 0001:000251a0       ?GetId@UpdModelNodeInstanceShaderVariable@Graphics@@UBEABVId@Messaging@@XZ 004261a0 f   render_win32.release:graphicsprotocol.obj
 0001:000251b0       ?GetRtti@UpdModelNodeInstanceVisibility@Graphics@@UBEPAVRtti@Core@@XZ 004261b0 f   render_win32.release:graphicsprotocol.obj
 0001:000251c0       ?FactoryCreator@UpdModelNodeInstanceVisibility@Graphics@@SAPAVRefCounted@Core@@XZ 004261c0 f   render_win32.release:graphicsprotocol.obj
 0001:000251d0       ?Create@UpdModelNodeInstanceVisibility@Graphics@@SAPAV12@XZ 004261d0 f   render_win32.release:graphicsprotocol.obj
 0001:00025240       ?RegisterWithFactory@UpdModelNodeInstanceVisibility@Graphics@@SA_NXZ 00426240 f   render_win32.release:graphicsprotocol.obj
 0001:00025340       ?GetId@UpdModelNodeInstanceVisibility@Graphics@@UBEABVId@Messaging@@XZ 00426340 f   render_win32.release:graphicsprotocol.obj
 0001:00025350       ?GetRtti@UpdateSharedShaderVariable@Graphics@@UBEPAVRtti@Core@@XZ 00426350 f   render_win32.release:graphicsprotocol.obj
 0001:00025360       ?FactoryCreator@UpdateSharedShaderVariable@Graphics@@SAPAVRefCounted@Core@@XZ 00426360 f   render_win32.release:graphicsprotocol.obj
 0001:00025370       ?Create@UpdateSharedShaderVariable@Graphics@@SAPAV12@XZ 00426370 f   render_win32.release:graphicsprotocol.obj
 0001:000253e0       ?RegisterWithFactory@UpdateSharedShaderVariable@Graphics@@SA_NXZ 004263e0 f   render_win32.release:graphicsprotocol.obj
 0001:000254e0       ?GetId@UpdateSharedShaderVariable@Graphics@@UBEABVId@Messaging@@XZ 004264e0 f   render_win32.release:graphicsprotocol.obj
 0001:000254f0       ?GetRtti@AnimPlayClip@Graphics@@UBEPAVRtti@Core@@XZ 004264f0 f   render_win32.release:graphicsprotocol.obj
 0001:00025500       ?FactoryCreator@AnimPlayClip@Graphics@@SAPAVRefCounted@Core@@XZ 00426500 f   render_win32.release:graphicsprotocol.obj
 0001:00025510       ?Create@AnimPlayClip@Graphics@@SAPAV12@XZ 00426510 f   render_win32.release:graphicsprotocol.obj
 0001:00025550       ?RegisterWithFactory@AnimPlayClip@Graphics@@SA_NXZ 00426550 f   render_win32.release:graphicsprotocol.obj
 0001:00025650       ?GetId@AnimPlayClip@Graphics@@UBEABVId@Messaging@@XZ 00426650 f   render_win32.release:graphicsprotocol.obj
 0001:00025660       ?GetRtti@AnimStopTrack@Graphics@@UBEPAVRtti@Core@@XZ 00426660 f   render_win32.release:graphicsprotocol.obj
 0001:00025670       ?FactoryCreator@AnimStopTrack@Graphics@@SAPAVRefCounted@Core@@XZ 00426670 f   render_win32.release:graphicsprotocol.obj
 0001:00025680       ?Create@AnimStopTrack@Graphics@@SAPAV12@XZ 00426680 f   render_win32.release:graphicsprotocol.obj
 0001:000256c0       ?RegisterWithFactory@AnimStopTrack@Graphics@@SA_NXZ 004266c0 f   render_win32.release:graphicsprotocol.obj
 0001:000257c0       ?GetId@AnimStopTrack@Graphics@@UBEABVId@Messaging@@XZ 004267c0 f   render_win32.release:graphicsprotocol.obj
 0001:000257d0       ?GetRtti@AnimStopAllTracks@Graphics@@UBEPAVRtti@Core@@XZ 004267d0 f   render_win32.release:graphicsprotocol.obj
 0001:000257e0       ?FactoryCreator@AnimStopAllTracks@Graphics@@SAPAVRefCounted@Core@@XZ 004267e0 f   render_win32.release:graphicsprotocol.obj
 0001:000257f0       ?Create@AnimStopAllTracks@Graphics@@SAPAV12@XZ 004267f0 f   render_win32.release:graphicsprotocol.obj
 0001:00025850       ?RegisterWithFactory@AnimStopAllTracks@Graphics@@SA_NXZ 00426850 f   render_win32.release:graphicsprotocol.obj
 0001:00025950       ?GetId@AnimStopAllTracks@Graphics@@UBEABVId@Messaging@@XZ 00426950 f   render_win32.release:graphicsprotocol.obj
 0001:00025960       ?GetRtti@AnimModifyBlendWeight@Graphics@@UBEPAVRtti@Core@@XZ 00426960 f   render_win32.release:graphicsprotocol.obj
 0001:00025970       ?FactoryCreator@AnimModifyBlendWeight@Graphics@@SAPAVRefCounted@Core@@XZ 00426970 f   render_win32.release:graphicsprotocol.obj
 0001:00025980       ?Create@AnimModifyBlendWeight@Graphics@@SAPAV12@XZ 00426980 f   render_win32.release:graphicsprotocol.obj
 0001:000259c0       ?RegisterWithFactory@AnimModifyBlendWeight@Graphics@@SA_NXZ 004269c0 f   render_win32.release:graphicsprotocol.obj
 0001:00025ac0       ?GetId@AnimModifyBlendWeight@Graphics@@UBEABVId@Messaging@@XZ 00426ac0 f   render_win32.release:graphicsprotocol.obj
 0001:00025ad0       ?GetRtti@AnimModifyTimeFactor@Graphics@@UBEPAVRtti@Core@@XZ 00426ad0 f   render_win32.release:graphicsprotocol.obj
 0001:00025ae0       ?FactoryCreator@AnimModifyTimeFactor@Graphics@@SAPAVRefCounted@Core@@XZ 00426ae0 f   render_win32.release:graphicsprotocol.obj
 0001:00025af0       ?Create@AnimModifyTimeFactor@Graphics@@SAPAV12@XZ 00426af0 f   render_win32.release:graphicsprotocol.obj
 0001:00025b30       ?RegisterWithFactory@AnimModifyTimeFactor@Graphics@@SA_NXZ 00426b30 f   render_win32.release:graphicsprotocol.obj
 0001:00025c30       ?GetId@AnimModifyTimeFactor@Graphics@@UBEABVId@Messaging@@XZ 00426c30 f   render_win32.release:graphicsprotocol.obj
 0001:00025c40       ?GetRtti@AnimIsClipPlaying@Graphics@@UBEPAVRtti@Core@@XZ 00426c40 f   render_win32.release:graphicsprotocol.obj
 0001:00025c50       ?FactoryCreator@AnimIsClipPlaying@Graphics@@SAPAVRefCounted@Core@@XZ 00426c50 f   render_win32.release:graphicsprotocol.obj
 0001:00025c60       ?Create@AnimIsClipPlaying@Graphics@@SAPAV12@XZ 00426c60 f   render_win32.release:graphicsprotocol.obj
 0001:00025cd0       ?RegisterWithFactory@AnimIsClipPlaying@Graphics@@SA_NXZ 00426cd0 f   render_win32.release:graphicsprotocol.obj
 0001:00025dd0       ?GetId@AnimIsClipPlaying@Graphics@@UBEABVId@Messaging@@XZ 00426dd0 f   render_win32.release:graphicsprotocol.obj
 0001:00025de0       ?GetRtti@ApplySkinList@Graphics@@UBEPAVRtti@Core@@XZ 00426de0 f   render_win32.release:graphicsprotocol.obj
 0001:00025df0       ?FactoryCreator@ApplySkinList@Graphics@@SAPAVRefCounted@Core@@XZ 00426df0 f   render_win32.release:graphicsprotocol.obj
 0001:00025e00       ?Create@ApplySkinList@Graphics@@SAPAV12@XZ 00426e00 f   render_win32.release:graphicsprotocol.obj
 0001:00025e70       ?RegisterWithFactory@ApplySkinList@Graphics@@SA_NXZ 00426e70 f   render_win32.release:graphicsprotocol.obj
 0001:00025f70       ?GetId@ApplySkinList@Graphics@@UBEABVId@Messaging@@XZ 00426f70 f   render_win32.release:graphicsprotocol.obj
 0001:00025f80       ?GetRtti@ShowSkin@Graphics@@UBEPAVRtti@Core@@XZ 00426f80 f   render_win32.release:graphicsprotocol.obj
 0001:00025f90       ?FactoryCreator@ShowSkin@Graphics@@SAPAVRefCounted@Core@@XZ 00426f90 f   render_win32.release:graphicsprotocol.obj
 0001:00025fa0       ?Create@ShowSkin@Graphics@@SAPAV12@XZ 00426fa0 f   render_win32.release:graphicsprotocol.obj
 0001:00026010       ?RegisterWithFactory@ShowSkin@Graphics@@SA_NXZ 00427010 f   render_win32.release:graphicsprotocol.obj
 0001:00026110       ?GetId@ShowSkin@Graphics@@UBEABVId@Messaging@@XZ 00427110 f   render_win32.release:graphicsprotocol.obj
 0001:00026120       ?GetRtti@HideSkin@Graphics@@UBEPAVRtti@Core@@XZ 00427120 f   render_win32.release:graphicsprotocol.obj
 0001:00026130       ?FactoryCreator@HideSkin@Graphics@@SAPAVRefCounted@Core@@XZ 00427130 f   render_win32.release:graphicsprotocol.obj
 0001:00026140       ?Create@HideSkin@Graphics@@SAPAV12@XZ 00427140 f   render_win32.release:graphicsprotocol.obj
 0001:000261b0       ?RegisterWithFactory@HideSkin@Graphics@@SA_NXZ 004271b0 f   render_win32.release:graphicsprotocol.obj
 0001:000262b0       ?GetId@HideSkin@Graphics@@UBEABVId@Messaging@@XZ 004272b0 f   render_win32.release:graphicsprotocol.obj
 0001:000262c0       ?GetRtti@SetVariation@Graphics@@UBEPAVRtti@Core@@XZ 004272c0 f   render_win32.release:graphicsprotocol.obj
 0001:000262d0       ?FactoryCreator@SetVariation@Graphics@@SAPAVRefCounted@Core@@XZ 004272d0 f   render_win32.release:graphicsprotocol.obj
 0001:000262e0       ?Create@SetVariation@Graphics@@SAPAV12@XZ 004272e0 f   render_win32.release:graphicsprotocol.obj
 0001:00026350       ?RegisterWithFactory@SetVariation@Graphics@@SA_NXZ 00427350 f   render_win32.release:graphicsprotocol.obj
 0001:00026450       ?GetId@SetVariation@Graphics@@UBEABVId@Messaging@@XZ 00427450 f   render_win32.release:graphicsprotocol.obj
 0001:00026460       ?GetRtti@SetTimeFactor@Graphics@@UBEPAVRtti@Core@@XZ 00427460 f   render_win32.release:graphicsprotocol.obj
 0001:00026470       ?FactoryCreator@SetTimeFactor@Graphics@@SAPAVRefCounted@Core@@XZ 00427470 f   render_win32.release:graphicsprotocol.obj
 0001:00026480       ?Create@SetTimeFactor@Graphics@@SAPAV12@XZ 00427480 f   render_win32.release:graphicsprotocol.obj
 0001:000264c0       ?RegisterWithFactory@SetTimeFactor@Graphics@@SA_NXZ 004274c0 f   render_win32.release:graphicsprotocol.obj
 0001:000265c0       ?GetId@SetTimeFactor@Graphics@@UBEABVId@Messaging@@XZ 004275c0 f   render_win32.release:graphicsprotocol.obj
 0001:000265d0       ?GetRtti@UnbindAttachment@Graphics@@UBEPAVRtti@Core@@XZ 004275d0 f   render_win32.release:graphicsprotocol.obj
 0001:000265e0       ?FactoryCreator@UnbindAttachment@Graphics@@SAPAVRefCounted@Core@@XZ 004275e0 f   render_win32.release:graphicsprotocol.obj
 0001:000265f0       ?Create@UnbindAttachment@Graphics@@SAPAV12@XZ 004275f0 f   render_win32.release:graphicsprotocol.obj
 0001:00026630       ?RegisterWithFactory@UnbindAttachment@Graphics@@SA_NXZ 00427630 f   render_win32.release:graphicsprotocol.obj
 0001:00026730       ?GetId@UnbindAttachment@Graphics@@UBEABVId@Messaging@@XZ 00427730 f   render_win32.release:graphicsprotocol.obj
 0001:00026740       ?GetRtti@BindAttachment@Graphics@@UBEPAVRtti@Core@@XZ 00427740 f   render_win32.release:graphicsprotocol.obj
 0001:00026750       ?FactoryCreator@BindAttachment@Graphics@@SAPAVRefCounted@Core@@XZ 00427750 f   render_win32.release:graphicsprotocol.obj
 0001:00026760       ?Create@BindAttachment@Graphics@@SAPAV12@XZ 00427760 f   render_win32.release:graphicsprotocol.obj
 0001:000267a0       ?RegisterWithFactory@BindAttachment@Graphics@@SA_NXZ 004277a0 f   render_win32.release:graphicsprotocol.obj
 0001:000268a0       ?GetId@BindAttachment@Graphics@@UBEABVId@Messaging@@XZ 004278a0 f   render_win32.release:graphicsprotocol.obj
 0001:000268b0       ?GetRtti@SwitchAttachmentToNewJoint@Graphics@@UBEPAVRtti@Core@@XZ 004278b0 f   render_win32.release:graphicsprotocol.obj
 0001:000268c0       ?FactoryCreator@SwitchAttachmentToNewJoint@Graphics@@SAPAVRefCounted@Core@@XZ 004278c0 f   render_win32.release:graphicsprotocol.obj
 0001:000268d0       ?Create@SwitchAttachmentToNewJoint@Graphics@@SAPAV12@XZ 004278d0 f   render_win32.release:graphicsprotocol.obj
 0001:00026940       ?RegisterWithFactory@SwitchAttachmentToNewJoint@Graphics@@SA_NXZ 00427940 f   render_win32.release:graphicsprotocol.obj
 0001:00026a40       ?GetId@SwitchAttachmentToNewJoint@Graphics@@UBEABVId@Messaging@@XZ 00427a40 f   render_win32.release:graphicsprotocol.obj
 0001:00026a50       ?GetRtti@BaseAnimEventMessage@Graphics@@UBEPAVRtti@Core@@XZ 00427a50 f   render_win32.release:graphicsprotocol.obj
 0001:00026a60       ?FactoryCreator@BaseAnimEventMessage@Graphics@@SAPAVRefCounted@Core@@XZ 00427a60 f   render_win32.release:graphicsprotocol.obj
 0001:00026a70       ?Create@BaseAnimEventMessage@Graphics@@SAPAV12@XZ 00427a70 f   render_win32.release:graphicsprotocol.obj
 0001:00026ad0       ?RegisterWithFactory@BaseAnimEventMessage@Graphics@@SA_NXZ 00427ad0 f   render_win32.release:graphicsprotocol.obj
 0001:00026bd0       ?GetId@BaseAnimEventMessage@Graphics@@UBEABVId@Messaging@@XZ 00427bd0 f   render_win32.release:graphicsprotocol.obj
 0001:00026be0       ?GetRtti@RegisterAnimEventHandler@Graphics@@UBEPAVRtti@Core@@XZ 00427be0 f   render_win32.release:graphicsprotocol.obj
 0001:00026bf0       ?FactoryCreator@RegisterAnimEventHandler@Graphics@@SAPAVRefCounted@Core@@XZ 00427bf0 f   render_win32.release:graphicsprotocol.obj
 0001:00026c00       ?Create@RegisterAnimEventHandler@Graphics@@SAPAV12@XZ 00427c00 f   render_win32.release:graphicsprotocol.obj
 0001:00026c50       ?RegisterWithFactory@RegisterAnimEventHandler@Graphics@@SA_NXZ 00427c50 f   render_win32.release:graphicsprotocol.obj
 0001:00026d50       ?GetId@RegisterAnimEventHandler@Graphics@@UBEABVId@Messaging@@XZ 00427d50 f   render_win32.release:graphicsprotocol.obj
 0001:00026d60       ?GetRtti@UnregisterAnimEventHandler@Graphics@@UBEPAVRtti@Core@@XZ 00427d60 f   render_win32.release:graphicsprotocol.obj
 0001:00026d70       ?FactoryCreator@UnregisterAnimEventHandler@Graphics@@SAPAVRefCounted@Core@@XZ 00427d70 f   render_win32.release:graphicsprotocol.obj
 0001:00026d80       ?Create@UnregisterAnimEventHandler@Graphics@@SAPAV12@XZ 00427d80 f   render_win32.release:graphicsprotocol.obj
 0001:00026de0       ?RegisterWithFactory@UnregisterAnimEventHandler@Graphics@@SA_NXZ 00427de0 f   render_win32.release:graphicsprotocol.obj
 0001:00026ee0       ?GetId@UnregisterAnimEventHandler@Graphics@@UBEABVId@Messaging@@XZ 00427ee0 f   render_win32.release:graphicsprotocol.obj
 0001:00026ef0       ?GetRtti@PreloadMousePointerTextures@Graphics@@UBEPAVRtti@Core@@XZ 00427ef0 f   render_win32.release:graphicsprotocol.obj
 0001:00026f00       ?FactoryCreator@PreloadMousePointerTextures@Graphics@@SAPAVRefCounted@Core@@XZ 00427f00 f   render_win32.release:graphicsprotocol.obj
 0001:00026f10       ?Create@PreloadMousePointerTextures@Graphics@@SAPAV12@XZ 00427f10 f   render_win32.release:graphicsprotocol.obj
 0001:00026f60       ?RegisterWithFactory@PreloadMousePointerTextures@Graphics@@SA_NXZ 00427f60 f   render_win32.release:graphicsprotocol.obj
 0001:00027060       ?GetId@PreloadMousePointerTextures@Graphics@@UBEABVId@Messaging@@XZ 00428060 f   render_win32.release:graphicsprotocol.obj
 0001:00027070       ?GetRtti@UpdateMousePointers@Graphics@@UBEPAVRtti@Core@@XZ 00428070 f   render_win32.release:graphicsprotocol.obj
 0001:00027080       ?FactoryCreator@UpdateMousePointers@Graphics@@SAPAVRefCounted@Core@@XZ 00428080 f   render_win32.release:graphicsprotocol.obj
 0001:00027090       ?Create@UpdateMousePointers@Graphics@@SAPAV12@XZ 00428090 f   render_win32.release:graphicsprotocol.obj
 0001:000270e0       ?RegisterWithFactory@UpdateMousePointers@Graphics@@SA_NXZ 004280e0 f   render_win32.release:graphicsprotocol.obj
 0001:000271e0       ?GetId@UpdateMousePointers@Graphics@@UBEABVId@Messaging@@XZ 004281e0 f   render_win32.release:graphicsprotocol.obj
 0001:000271f0       ?GetRtti@HoldSharedResources@Graphics@@UBEPAVRtti@Core@@XZ 004281f0 f   render_win32.release:graphicsprotocol.obj
 0001:00027200       ?FactoryCreator@HoldSharedResources@Graphics@@SAPAVRefCounted@Core@@XZ 00428200 f   render_win32.release:graphicsprotocol.obj
 0001:00027210       ?Create@HoldSharedResources@Graphics@@SAPAV12@XZ 00428210 f   render_win32.release:graphicsprotocol.obj
 0001:00027250       ?RegisterWithFactory@HoldSharedResources@Graphics@@SA_NXZ 00428250 f   render_win32.release:graphicsprotocol.obj
 0001:00027350       ?GetId@HoldSharedResources@Graphics@@UBEABVId@Messaging@@XZ 00428350 f   render_win32.release:graphicsprotocol.obj
 0001:00027360       ?GetRtti@ReleaseSharedResources@Graphics@@UBEPAVRtti@Core@@XZ 00428360 f   render_win32.release:graphicsprotocol.obj
 0001:00027370       ?FactoryCreator@ReleaseSharedResources@Graphics@@SAPAVRefCounted@Core@@XZ 00428370 f   render_win32.release:graphicsprotocol.obj
 0001:00027380       ?Create@ReleaseSharedResources@Graphics@@SAPAV12@XZ 00428380 f   render_win32.release:graphicsprotocol.obj
 0001:000273c0       ?RegisterWithFactory@ReleaseSharedResources@Graphics@@SA_NXZ 004283c0 f   render_win32.release:graphicsprotocol.obj
 0001:000274c0       ?GetId@ReleaseSharedResources@Graphics@@UBEABVId@Messaging@@XZ 004284c0 f   render_win32.release:graphicsprotocol.obj
 0001:000274d0       ?GetRtti@SetAnimatorTime@Graphics@@UBEPAVRtti@Core@@XZ 004284d0 f   render_win32.release:graphicsprotocol.obj
 0001:000274e0       ?FactoryCreator@SetAnimatorTime@Graphics@@SAPAVRefCounted@Core@@XZ 004284e0 f   render_win32.release:graphicsprotocol.obj
 0001:000274f0       ?Create@SetAnimatorTime@Graphics@@SAPAV12@XZ 004284f0 f   render_win32.release:graphicsprotocol.obj
 0001:00027560       ?RegisterWithFactory@SetAnimatorTime@Graphics@@SA_NXZ 00428560 f   render_win32.release:graphicsprotocol.obj
 0001:00027660       ?GetId@SetAnimatorTime@Graphics@@UBEABVId@Messaging@@XZ 00428660 f   render_win32.release:graphicsprotocol.obj
 0001:00027670       ?GetRtti@UpdateCameraEntity@Graphics@@UBEPAVRtti@Core@@XZ 00428670 f   render_win32.release:graphicsprotocol.obj
 0001:00027680       ?FactoryCreator@UpdateCameraEntity@Graphics@@SAPAVRefCounted@Core@@XZ 00428680 f   render_win32.release:graphicsprotocol.obj
 0001:00027690       ?Create@UpdateCameraEntity@Graphics@@SAPAV12@XZ 00428690 f   render_win32.release:graphicsprotocol.obj
 0001:000276d0       ?RegisterWithFactory@UpdateCameraEntity@Graphics@@SA_NXZ 004286d0 f   render_win32.release:graphicsprotocol.obj
 0001:000277d0       ?GetId@UpdateCameraEntity@Graphics@@UBEABVId@Messaging@@XZ 004287d0 f   render_win32.release:graphicsprotocol.obj
 0001:000277e0       ?GetRtti@SetShadowPointOfInterest@Graphics@@UBEPAVRtti@Core@@XZ 004287e0 f   render_win32.release:graphicsprotocol.obj
 0001:000277f0       ?FactoryCreator@SetShadowPointOfInterest@Graphics@@SAPAVRefCounted@Core@@XZ 004287f0 f   render_win32.release:graphicsprotocol.obj
 0001:00027800       ?Create@SetShadowPointOfInterest@Graphics@@SAPAV12@XZ 00428800 f   render_win32.release:graphicsprotocol.obj
 0001:00027840       ?RegisterWithFactory@SetShadowPointOfInterest@Graphics@@SA_NXZ 00428840 f   render_win32.release:graphicsprotocol.obj
 0001:00027940       ?GetId@SetShadowPointOfInterest@Graphics@@UBEABVId@Messaging@@XZ 00428940 f   render_win32.release:graphicsprotocol.obj
 0001:00027950       ??1?$Array@H@Util@@QAE@XZ  00428950 f i render_win32.release:graphicsprotocol.obj
 0001:00027970       ??1?$Array@M@Util@@QAE@XZ  00428970 f i render_win32.release:graphicsprotocol.obj
 0001:00027990       ??1?$Array@_N@Util@@QAE@XZ 00428990 f i render_win32.release:graphicsprotocol.obj
 0001:000279b0       ??1?$Array@Vfloat4@Math@@@Util@@QAE@XZ 004289b0 f i render_win32.release:graphicsprotocol.obj
 0001:000279d0       ??1?$Array@Vmatrix44@Math@@@Util@@QAE@XZ 004289d0 f i render_win32.release:graphicsprotocol.obj
 0001:000279f0       ??1?$Array@VWin32Guid@Win32@@@Util@@QAE@XZ 004289f0 f i render_win32.release:graphicsprotocol.obj
 0001:00027a10       ??1?$Array@VBlob@Util@@@Util@@QAE@XZ 00428a10 f i render_win32.release:graphicsprotocol.obj
 0001:00027a30       ??0?$Ptr@VFrameSyncSharedData@FrameSync@@@@QAE@XZ 00428a30 f i render_win32.release:graphicsprotocol.obj
 0001:00027a50       ??1?$Ptr@VFrameSyncSharedData@FrameSync@@@@QAE@XZ 00428a50 f i render_win32.release:graphicsprotocol.obj
 0001:00027a80       ??0?$Array@VDisplayMode@CoreGraphics@@@Util@@QAE@XZ 00428a80 f i render_win32.release:graphicsprotocol.obj
 0001:00027ac0       ??0?$Ptr@VThreadSafeDisplayEventHandler@CoreGraphics@@@@QAE@XZ 00428ac0 f i render_win32.release:graphicsprotocol.obj
 0001:00027ae0       ??1?$Ptr@VThreadSafeDisplayEventHandler@CoreGraphics@@@@QAE@XZ 00428ae0 f i render_win32.release:graphicsprotocol.obj
 0001:00027b10       ??0?$Ptr@VThreadSafeRenderEventHandler@CoreGraphics@@@@QAE@XZ 00428b10 f i render_win32.release:graphicsprotocol.obj
 0001:00027b30       ??1?$Ptr@VThreadSafeRenderEventHandler@CoreGraphics@@@@QAE@XZ 00428b30 f i render_win32.release:graphicsprotocol.obj
 0001:00027b60       ??0?$Array@V?$Ptr@VVisibilitySystemBase@Visibility@@@@@Util@@QAE@XZ 00428b60 f i render_win32.release:graphicsprotocol.obj
 0001:00027ba0       ??1?$Array@V?$Ptr@VVisibilitySystemBase@Visibility@@@@@Util@@QAE@XZ 00428ba0 f i render_win32.release:graphicsprotocol.obj
 0001:00027bc0       ??0?$Ptr@VObjectRef@Threading@@@@QAE@XZ 00428bc0 f i render_win32.release:graphicsprotocol.obj
 0001:00027be0       ??1?$Ptr@VObjectRef@Threading@@@@QAE@XZ 00428be0 f i render_win32.release:graphicsprotocol.obj
 0001:00027c10       ??0?$Array@VStringAtom@Util@@@Util@@QAE@XZ 00428c10 f i render_win32.release:graphicsprotocol.obj
 0001:00027c50       ??1?$Array@VStringAtom@Util@@@Util@@QAE@XZ 00428c50 f i render_win32.release:graphicsprotocol.obj
 0001:00027c70       ??0?$Ptr@VAnimEventHandlerBase@Animation@@@@QAE@XZ 00428c70 f i render_win32.release:graphicsprotocol.obj
 0001:00027c90       ??1?$Ptr@VAnimEventHandlerBase@Animation@@@@QAE@XZ 00428c90 f i render_win32.release:graphicsprotocol.obj
 0001:00027cc0       ??0?$Array@VMousePointer@CoreGraphics@@@Util@@QAE@XZ 00428cc0 f i render_win32.release:graphicsprotocol.obj
 0001:00027d00       ??1?$Array@VMousePointer@CoreGraphics@@@Util@@QAE@XZ 00428d00 f i render_win32.release:graphicsprotocol.obj
 0001:00027d20       ?Delete@?$Array@H@Util@@AAEXXZ 00428d20 f i render_win32.release:graphicsprotocol.obj
 0001:00027d80       ?Delete@?$Array@M@Util@@AAEXXZ 00428d80 f i render_win32.release:graphicsprotocol.obj
 0001:00027de0       ?Delete@?$Array@_N@Util@@AAEXXZ 00428de0 f i render_win32.release:graphicsprotocol.obj
 0001:00027e40       ?Delete@?$Array@Vfloat4@Math@@@Util@@AAEXXZ 00428e40 f i render_win32.release:graphicsprotocol.obj
 0001:00027ea0       ?Delete@?$Array@Vmatrix44@Math@@@Util@@AAEXXZ 00428ea0 f i render_win32.release:graphicsprotocol.obj
 0001:00027f00       ?Delete@?$Array@VWin32Guid@Win32@@@Util@@AAEXXZ 00428f00 f i render_win32.release:graphicsprotocol.obj
 0001:00027f60       ?Delete@?$Array@VBlob@Util@@@Util@@AAEXXZ 00428f60 f i render_win32.release:graphicsprotocol.obj
 0001:00027fd0       ?Delete@?$Array@V?$Ptr@VVisibilitySystemBase@Visibility@@@@@Util@@AAEXXZ 00428fd0 f i render_win32.release:graphicsprotocol.obj
 0001:00028040       ?Delete@?$Array@VStringAtom@Util@@@Util@@AAEXXZ 00429040 f i render_win32.release:graphicsprotocol.obj
 0001:000280a0       ?Delete@?$Array@VMousePointer@CoreGraphics@@@Util@@AAEXXZ 004290a0 f i render_win32.release:graphicsprotocol.obj
 0001:00028100       ?XMMatrixIdentity@@YA?AU_XMMATRIX@@XZ 00429100 f i render_win32.release:graphicsprotocol.obj
 0001:00028190       ??BXMVECTORF32@@QBE?AT__m128@@XZ 00429190 f i render_win32.release:graphicsprotocol.obj
 0001:000281c0       ??2DisplayEventHandler@CoreGraphics@@SAPAXI@Z 004291c0 f i render_win32.release:displayeventhandler.obj
 0001:000281d0       ??3DisplayEventHandler@CoreGraphics@@SAXPAX@Z 004291d0 f i render_win32.release:displayeventhandler.obj
 0001:000281f0       ?GetRtti@DisplayEventHandler@CoreGraphics@@UBEPAVRtti@Core@@XZ 004291f0 f   render_win32.release:displayeventhandler.obj
 0001:00028200       ?FactoryCreator@DisplayEventHandler@CoreGraphics@@SAPAVRefCounted@Core@@XZ 00429200 f   render_win32.release:displayeventhandler.obj
 0001:00028210       ?Create@DisplayEventHandler@CoreGraphics@@SAPAV12@XZ 00429210 f   render_win32.release:displayeventhandler.obj
 0001:00028250       ?RegisterWithFactory@DisplayEventHandler@CoreGraphics@@SA_NXZ 00429250 f   render_win32.release:displayeventhandler.obj
 0001:00028350       ??0DisplayEventHandler@CoreGraphics@@QAE@XZ 00429350 f   render_win32.release:displayeventhandler.obj
 0001:00028380       ??_GDisplayEventHandler@CoreGraphics@@UAEPAXI@Z 00429380 f i render_win32.release:displayeventhandler.obj
 0001:00028380       ??_EDisplayEventHandler@CoreGraphics@@UAEPAXI@Z 00429380 f i  CIL library: CIL module
 0001:000283b0       ??1DisplayEventHandler@CoreGraphics@@UAE@XZ 004293b0 f   render_win32.release:displayeventhandler.obj
 0001:000283d0       ?OnAttach@DisplayEventHandler@CoreGraphics@@UAEXXZ 004293d0 f   render_win32.release:displayeventhandler.obj
 0001:000283e0       ?OnRemove@DisplayEventHandler@CoreGraphics@@UAEXXZ 004293e0 f   render_win32.release:displayeventhandler.obj
 0001:000283f0       ?PutEvent@DisplayEventHandler@CoreGraphics@@UAE_NABVDisplayEvent@2@@Z 004293f0 f   render_win32.release:displayeventhandler.obj
 0001:00028410       ?HandleEvent@DisplayEventHandler@CoreGraphics@@MAE_NABVDisplayEvent@2@@Z 00429410 f   render_win32.release:displayeventhandler.obj
 0001:00028420       ?Clear@String@Util@@QAEXXZ 00429420 f i render_win32.release:keyboardbase.obj
 0001:00028470       ?GetKey@InputEvent@Input@@QBE?AW4Code@Key@2@XZ 00429470 f i render_win32.release:keyboardbase.obj
 0001:00028490       ?GetChar@InputEvent@Input@@QBEEXZ 00429490 f i render_win32.release:keyboardbase.obj
 0001:000284b0       ?IsAttached@InputHandler@Input@@QBE_NXZ 004294b0 f i render_win32.release:keyboardbase.obj
 0001:000284d0       ?IsCapturing@InputHandler@Input@@QBE_NXZ 004294d0 f i render_win32.release:keyboardbase.obj
 0001:000284f0       ??2KeyboardBase@Base@@SAPAXI@Z 004294f0 f i render_win32.release:keyboardbase.obj
 0001:00028500       ??3KeyboardBase@Base@@SAXPAX@Z 00429500 f i render_win32.release:keyboardbase.obj
 0001:00028520       ??0KeyState@KeyboardBase@Base@@QAE@XZ 00429520 f i render_win32.release:keyboardbase.obj
 0001:00028550       ?GetRtti@KeyboardBase@Base@@UBEPAVRtti@Core@@XZ 00429550 f   render_win32.release:keyboardbase.obj
 0001:00028560       ?FactoryCreator@KeyboardBase@Base@@SAPAVRefCounted@Core@@XZ 00429560 f   render_win32.release:keyboardbase.obj
 0001:00028570       ?Create@KeyboardBase@Base@@SAPAV12@XZ 00429570 f   render_win32.release:keyboardbase.obj
 0001:000285b0       ?RegisterWithFactory@KeyboardBase@Base@@SA_NXZ 004295b0 f   render_win32.release:keyboardbase.obj
 0001:000286b0       ??0KeyboardBase@Base@@QAE@XZ 004296b0 f   render_win32.release:keyboardbase.obj
 0001:00028710       ??_EKeyboardBase@Base@@UAEPAXI@Z 00429710 f i  CIL library: CIL module
 0001:00028710       ??_GKeyboardBase@Base@@UAEPAXI@Z 00429710 f i render_win32.release:keyboardbase.obj
 0001:00028740       ??1KeyboardBase@Base@@UAE@XZ 00429740 f   render_win32.release:keyboardbase.obj
 0001:000287e0       ?BeginCapture@KeyboardBase@Base@@UAEXXZ 004297e0 f   render_win32.release:keyboardbase.obj
 0001:00028840       ?EndCapture@KeyboardBase@Base@@UAEXXZ 00429840 f   render_win32.release:keyboardbase.obj
 0001:000288a0       ?OnAttach@KeyboardBase@Base@@MAEXXZ 004298a0 f   render_win32.release:keyboardbase.obj
 0001:00028920       ?OnBeginFrame@KeyboardBase@Base@@MAEXXZ 00429920 f   render_win32.release:keyboardbase.obj
 0001:000289d0       ?OnEvent@KeyboardBase@Base@@MAE_NABVInputEvent@Input@@@Z 004299d0 f   render_win32.release:keyboardbase.obj
 0001:00028ae0       ?OnObtainCapture@KeyboardBase@Base@@MAEXXZ 00429ae0 f   render_win32.release:keyboardbase.obj
 0001:00028b50       ?OnReleaseCapture@KeyboardBase@Base@@MAEXXZ 00429b50 f   render_win32.release:keyboardbase.obj
 0001:00028bc0       ?OnReset@KeyboardBase@Base@@MAEXXZ 00429bc0 f   render_win32.release:keyboardbase.obj
 0001:00028c70       ??0?$FixedArray@VKeyState@KeyboardBase@Base@@@Util@@QAE@H@Z 00429c70 f i render_win32.release:keyboardbase.obj
 0001:00028ca0       ??1?$FixedArray@VKeyState@KeyboardBase@Base@@@Util@@QAE@XZ 00429ca0 f i render_win32.release:keyboardbase.obj
 0001:00028cc0       ??A?$FixedArray@VKeyState@KeyboardBase@Base@@@Util@@QBEAAVKeyState@KeyboardBase@Base@@H@Z 00429cc0 f i render_win32.release:keyboardbase.obj
 0001:00028d10       ?Size@?$FixedArray@VKeyState@KeyboardBase@Base@@@Util@@QBEHXZ 00429d10 f i render_win32.release:keyboardbase.obj
 0001:00028d20       ?Fill@?$FixedArray@VKeyState@KeyboardBase@Base@@@Util@@QAEXABVKeyState@KeyboardBase@Base@@@Z 00429d20 f i render_win32.release:keyboardbase.obj
 0001:00028d70       ??0?$Ptr@VInputHandler@Input@@@@QAE@PAVInputHandler@Input@@@Z 00429d70 f i render_win32.release:keyboardbase.obj
 0001:00028db0       ?Delete@?$FixedArray@VKeyState@KeyboardBase@Base@@@Util@@AAEXXZ 00429db0 f i render_win32.release:keyboardbase.obj
 0001:00028df0       ?Alloc@?$FixedArray@VKeyState@KeyboardBase@Base@@@Util@@AAEXH@Z 00429df0 f i render_win32.release:keyboardbase.obj
 0001:00028eb0       ??2InputHandler@Input@@SAPAXI@Z 00429eb0 f i render_win32.release:inputhandler.obj
 0001:00028ec0       ??3InputHandler@Input@@SAXPAX@Z 00429ec0 f i render_win32.release:inputhandler.obj
 0001:00028ee0       ?GetRtti@InputHandler@Input@@UBEPAVRtti@Core@@XZ 00429ee0 f   render_win32.release:inputhandler.obj
 0001:00028ef0       ?FactoryCreator@InputHandler@Input@@SAPAVRefCounted@Core@@XZ 00429ef0 f   render_win32.release:inputhandler.obj
 0001:00028f00       ?Create@InputHandler@Input@@SAPAV12@XZ 00429f00 f   render_win32.release:inputhandler.obj
 0001:00028f40       ?RegisterWithFactory@InputHandler@Input@@SA_NXZ 00429f40 f   render_win32.release:inputhandler.obj
 0001:00029040       ??0InputHandler@Input@@QAE@XZ 0042a040 f   render_win32.release:inputhandler.obj
 0001:00029080       ??_EInputHandler@Input@@UAEPAXI@Z 0042a080 f i  CIL library: CIL module
 0001:00029080       ??_GInputHandler@Input@@UAEPAXI@Z 0042a080 f i render_win32.release:inputhandler.obj
 0001:000290b0       ??1InputHandler@Input@@UAE@XZ 0042a0b0 f   render_win32.release:inputhandler.obj
 0001:00029100       ?BeginCapture@InputHandler@Input@@UAEXXZ 0042a100 f   render_win32.release:inputhandler.obj
 0001:00029110       ?EndCapture@InputHandler@Input@@UAEXXZ 0042a110 f   render_win32.release:inputhandler.obj
 0001:00029120       ?OnAttach@InputHandler@Input@@MAEXXZ 0042a120 f   render_win32.release:inputhandler.obj
 0001:00029160       ?OnRemove@InputHandler@Input@@MAEXXZ 0042a160 f   render_win32.release:inputhandler.obj
 0001:000291a0       ?OnBeginFrame@InputHandler@Input@@MAEXXZ 0042a1a0 f   render_win32.release:inputhandler.obj
 0001:000291b0       ?OnEndFrame@InputHandler@Input@@MAEXXZ 0042a1b0 f   render_win32.release:inputhandler.obj
 0001:000291c0       ?OnObtainCapture@InputHandler@Input@@MAEXXZ 0042a1c0 f   render_win32.release:inputhandler.obj
 0001:000291e0       ?OnReleaseCapture@InputHandler@Input@@MAEXXZ 0042a1e0 f   render_win32.release:inputhandler.obj
 0001:00029200       ?OnEvent@InputHandler@Input@@MAE_NABVInputEvent@2@@Z 0042a200 f   render_win32.release:inputhandler.obj
 0001:00029240       ?OnReset@InputHandler@Input@@MAEXXZ 0042a240 f   render_win32.release:inputhandler.obj
 0001:00029250       ??2Win32Mouse@Win32@@SAPAXI@Z 0042a250 f i render_win32.release:win32mouse.obj
 0001:00029260       ?GetRtti@Win32Mouse@Win32@@UBEPAVRtti@Core@@XZ 0042a260 f   render_win32.release:win32mouse.obj
 0001:00029270       ?FactoryCreator@Win32Mouse@Win32@@SAPAVRefCounted@Core@@XZ 0042a270 f   render_win32.release:win32mouse.obj
 0001:00029280       ?Create@Win32Mouse@Win32@@SAPAV12@XZ 0042a280 f   render_win32.release:win32mouse.obj
 0001:000292c0       ?RegisterWithFactory@Win32Mouse@Win32@@SA_NXZ 0042a2c0 f   render_win32.release:win32mouse.obj
 0001:000293c0       ?GetMouseButton@InputEvent@Input@@QBE?AW4Code@MouseButton@2@XZ 0042a3c0 f i render_win32.release:mousebase.obj
 0001:000293e0       ?GetAbsMousePos@InputEvent@Input@@QBEABVfloat2@Math@@XZ 0042a3e0 f i render_win32.release:mousebase.obj
 0001:00029400       ?GetNormMousePos@InputEvent@Input@@QBEABVfloat2@Math@@XZ 0042a400 f i render_win32.release:mousebase.obj
 0001:00029420       ??2MouseBase@Base@@SAPAXI@Z 0042a420 f i render_win32.release:mousebase.obj
 0001:00029430       ??3MouseBase@Base@@SAXPAX@Z 0042a430 f i render_win32.release:mousebase.obj
 0001:00029450       ??0ButtonState@MouseBase@Base@@QAE@XZ 0042a450 f i render_win32.release:mousebase.obj
 0001:00029480       ?GetRtti@MouseBase@Base@@UBEPAVRtti@Core@@XZ 0042a480 f   render_win32.release:mousebase.obj
 0001:00029490       ?FactoryCreator@MouseBase@Base@@SAPAVRefCounted@Core@@XZ 0042a490 f   render_win32.release:mousebase.obj
 0001:000294a0       ?Create@MouseBase@Base@@SAPAV12@XZ 0042a4a0 f   render_win32.release:mousebase.obj
 0001:000294e0       ?RegisterWithFactory@MouseBase@Base@@SA_NXZ 0042a4e0 f   render_win32.release:mousebase.obj
 0001:000295e0       ??0MouseBase@Base@@QAE@XZ  0042a5e0 f   render_win32.release:mousebase.obj
 0001:00029630       ??_EMouseBase@Base@@UAEPAXI@Z 0042a630 f i  CIL library: CIL module
 0001:00029630       ??_GMouseBase@Base@@UAEPAXI@Z 0042a630 f i render_win32.release:mousebase.obj
 0001:00029660       ??1MouseBase@Base@@UAE@XZ  0042a660 f   render_win32.release:mousebase.obj
 0001:000296b0       ?BeginCapture@MouseBase@Base@@UAEXXZ 0042a6b0 f   render_win32.release:mousebase.obj
 0001:00029710       ?EndCapture@MouseBase@Base@@UAEXXZ 0042a710 f   render_win32.release:mousebase.obj
 0001:00029770       ?OnAttach@MouseBase@Base@@MAEXXZ 0042a770 f   render_win32.release:mousebase.obj
 0001:00029840       ?OnBeginFrame@MouseBase@Base@@MAEXXZ 0042a840 f   render_win32.release:mousebase.obj
 0001:00029930       ?OnEvent@MouseBase@Base@@MAE_NABVInputEvent@Input@@@Z 0042a930 f   render_win32.release:mousebase.obj
 0001:00029ae0       ?OnObtainCapture@MouseBase@Base@@MAEXXZ 0042aae0 f   render_win32.release:mousebase.obj
 0001:00029b50       ?OnReleaseCapture@MouseBase@Base@@MAEXXZ 0042ab50 f   render_win32.release:mousebase.obj
 0001:00029bc0       ?UpdateMousePositions@MouseBase@Base@@AAEXABVfloat2@Math@@0@Z 0042abc0 f   render_win32.release:mousebase.obj
 0001:00029c60       ?OnReset@MouseBase@Base@@MAEXXZ 0042ac60 f   render_win32.release:mousebase.obj
 0001:00029d20       ??0?$FixedArray@UButtonState@MouseBase@Base@@@Util@@QAE@H@Z 0042ad20 f i render_win32.release:mousebase.obj
 0001:00029d50       ??1?$FixedArray@UButtonState@MouseBase@Base@@@Util@@QAE@XZ 0042ad50 f i render_win32.release:mousebase.obj
 0001:00029d70       ??A?$FixedArray@UButtonState@MouseBase@Base@@@Util@@QBEAAUButtonState@MouseBase@Base@@H@Z 0042ad70 f i render_win32.release:mousebase.obj
 0001:00029dc0       ?Size@?$FixedArray@UButtonState@MouseBase@Base@@@Util@@QBEHXZ 0042adc0 f i render_win32.release:mousebase.obj
 0001:00029dd0       ?Fill@?$FixedArray@UButtonState@MouseBase@Base@@@Util@@QAEXABUButtonState@MouseBase@Base@@@Z 0042add0 f i render_win32.release:mousebase.obj
 0001:00029e10       ?Delete@?$FixedArray@UButtonState@MouseBase@Base@@@Util@@AAEXXZ 0042ae10 f i render_win32.release:mousebase.obj
 0001:00029e50       ?Alloc@?$FixedArray@UButtonState@MouseBase@Base@@@Util@@AAEXH@Z 0042ae50 f i render_win32.release:mousebase.obj
 0001:00029f20       ?n_max@Math@@YAMMM@Z       0042af20 f i render_win32.release:xinputgamepad.obj
 0001:00029f50       ?n_min@Math@@YAMMM@Z       0042af50 f i render_win32.release:xinputgamepad.obj
 0001:00029f80       ??2XInputGamePad@XInput@@SAPAXI@Z 0042af80 f i render_win32.release:xinputgamepad.obj
 0001:00029f90       ??3XInputGamePad@XInput@@SAXPAX@Z 0042af90 f i render_win32.release:xinputgamepad.obj
 0001:00029fb0       ?Instance@FrameSyncTimer@FrameSync@@SAPAV12@XZ 0042afb0 f i render_win32.release:xinputgamepad.obj
 0001:00029ff0       ?GetTicks@FrameSyncTimer@FrameSync@@QBEHXZ 0042aff0 f i render_win32.release:xinputgamepad.obj
 0001:0002a010       ?GetRtti@XInputGamePad@XInput@@UBEPAVRtti@Core@@XZ 0042b010 f   render_win32.release:xinputgamepad.obj
 0001:0002a020       ?FactoryCreator@XInputGamePad@XInput@@SAPAVRefCounted@Core@@XZ 0042b020 f   render_win32.release:xinputgamepad.obj
 0001:0002a030       ?Create@XInputGamePad@XInput@@SAPAV12@XZ 0042b030 f   render_win32.release:xinputgamepad.obj
 0001:0002a070       ?RegisterWithFactory@XInputGamePad@XInput@@SA_NXZ 0042b070 f   render_win32.release:xinputgamepad.obj
 0001:0002a170       ??0XInputGamePad@XInput@@QAE@XZ 0042b170 f   render_win32.release:xinputgamepad.obj
 0001:0002a1b0       ??_GXInputGamePad@XInput@@UAEPAXI@Z 0042b1b0 f i render_win32.release:xinputgamepad.obj
 0001:0002a1b0       ??_EXInputGamePad@XInput@@UAEPAXI@Z 0042b1b0 f i  CIL library: CIL module
 0001:0002a1e0       ??1XInputGamePad@XInput@@UAE@XZ 0042b1e0 f   render_win32.release:xinputgamepad.obj
 0001:0002a200       ?OnAttach@XInputGamePad@XInput@@MAEXXZ 0042b200 f   render_win32.release:xinputgamepad.obj
 0001:0002a260       ?OnBeginFrame@XInputGamePad@XInput@@MAEXXZ 0042b260 f   render_win32.release:xinputgamepad.obj
 0001:0002a5a0       ?UpdateButtonState@XInputGamePad@XInput@@IAEXABU_XINPUT_GAMEPAD@@GW4Button@GamePadBase@Base@@@Z 0042b5a0 f   render_win32.release:xinputgamepad.obj
 0001:0002a690       ?UpdateTriggerAxis@XInputGamePad@XInput@@IAEXABU_XINPUT_GAMEPAD@@W4Axis@GamePadBase@Base@@@Z 0042b690 f   render_win32.release:xinputgamepad.obj
 0001:0002a730       ?UpdateThumbAxis@XInputGamePad@XInput@@IAEXABU_XINPUT_GAMEPAD@@W4Axis@GamePadBase@Base@@@Z 0042b730 f   render_win32.release:xinputgamepad.obj
 0001:0002a8d0       ??A?$FixedArray@UButtonState@GamePadBase@Base@@@Util@@QBEAAUButtonState@GamePadBase@Base@@H@Z 0042b8d0 f i render_win32.release:xinputgamepad.obj
 0001:0002a920       ?Size@?$FixedArray@UButtonState@GamePadBase@Base@@@Util@@QBEHXZ 0042b920 f i render_win32.release:xinputgamepad.obj
 0001:0002a930       ??2GamePadBase@Base@@SAPAXI@Z 0042b930 f i render_win32.release:gamepadbase.obj
 0001:0002a940       ??3GamePadBase@Base@@SAXPAX@Z 0042b940 f i render_win32.release:gamepadbase.obj
 0001:0002a960       ??0ButtonState@GamePadBase@Base@@QAE@XZ 0042b960 f i render_win32.release:gamepadbase.obj
 0001:0002a990       ?GetRtti@GamePadBase@Base@@UBEPAVRtti@Core@@XZ 0042b990 f   render_win32.release:gamepadbase.obj
 0001:0002a9a0       ?FactoryCreator@GamePadBase@Base@@SAPAVRefCounted@Core@@XZ 0042b9a0 f   render_win32.release:gamepadbase.obj
 0001:0002a9b0       ?Create@GamePadBase@Base@@SAPAV12@XZ 0042b9b0 f   render_win32.release:gamepadbase.obj
 0001:0002a9f0       ?RegisterWithFactory@GamePadBase@Base@@SA_NXZ 0042b9f0 f   render_win32.release:gamepadbase.obj
 0001:0002aaf0       ??0GamePadBase@Base@@QAE@XZ 0042baf0 f   render_win32.release:gamepadbase.obj
 0001:0002ab80       ??_EGamePadBase@Base@@UAEPAXI@Z 0042bb80 f i  CIL library: CIL module
 0001:0002ab80       ??_GGamePadBase@Base@@UAEPAXI@Z 0042bb80 f i render_win32.release:gamepadbase.obj
 0001:0002abb0       ??1GamePadBase@Base@@UAE@XZ 0042bbb0 f   render_win32.release:gamepadbase.obj
 0001:0002abf0       ?OnAttach@GamePadBase@Base@@MAEXXZ 0042bbf0 f   render_win32.release:gamepadbase.obj
 0001:0002ac40       ?OnReset@GamePadBase@Base@@MAEXXZ 0042bc40 f   render_win32.release:gamepadbase.obj
 0001:0002acd0       ?ButtonAsString@GamePadBase@Base@@SA?AVString@Util@@W4Button@12@@Z 0042bcd0 f   render_win32.release:gamepadbase.obj
 0001:0002b220       ?AxisAsString@GamePadBase@Base@@SA?AVString@Util@@W4Axis@12@@Z 0042c220 f   render_win32.release:gamepadbase.obj
 0001:0002b3f0       ?GetStateAsInputEvents@GamePadBase@Base@@QBE?AV?$Array@VInputEvent@Input@@@Util@@XZ 0042c3f0 f   render_win32.release:gamepadbase.obj
 0001:0002b420       ??0?$FixedArray@UButtonState@GamePadBase@Base@@@Util@@QAE@H@Z 0042c420 f i render_win32.release:gamepadbase.obj
 0001:0002b450       ??1?$FixedArray@UButtonState@GamePadBase@Base@@@Util@@QAE@XZ 0042c450 f i render_win32.release:gamepadbase.obj
 0001:0002b470       ?Fill@?$FixedArray@UButtonState@GamePadBase@Base@@@Util@@QAEXABUButtonState@GamePadBase@Base@@@Z 0042c470 f i render_win32.release:gamepadbase.obj
 0001:0002b4c0       ??0?$FixedArray@M@Util@@QAE@HABM@Z 0042c4c0 f i render_win32.release:gamepadbase.obj
 0001:0002b500       ??1?$FixedArray@M@Util@@QAE@XZ 0042c500 f i render_win32.release:gamepadbase.obj
 0001:0002b520       ?Fill@?$FixedArray@M@Util@@QAEXABM@Z 0042c520 f i render_win32.release:gamepadbase.obj
 0001:0002b560       ??0?$Array@VInputEvent@Input@@@Util@@QAE@ABV01@@Z 0042c560 f i render_win32.release:gamepadbase.obj
 0001:0002b5b0       ??0?$Array@VInputEvent@Input@@@Util@@QAE@XZ 0042c5b0 f i render_win32.release:gamepadbase.obj
 0001:0002b5f0       ??1?$Array@VInputEvent@Input@@@Util@@QAE@XZ 0042c5f0 f i render_win32.release:gamepadbase.obj
 0001:0002b610       ?Delete@?$FixedArray@UButtonState@GamePadBase@Base@@@Util@@AAEXXZ 0042c610 f i render_win32.release:gamepadbase.obj
 0001:0002b650       ?Alloc@?$FixedArray@UButtonState@GamePadBase@Base@@@Util@@AAEXH@Z 0042c650 f i render_win32.release:gamepadbase.obj
 0001:0002b710       ?Delete@?$FixedArray@M@Util@@AAEXXZ 0042c710 f i render_win32.release:gamepadbase.obj
 0001:0002b750       ?Alloc@?$FixedArray@M@Util@@AAEXH@Z 0042c750 f i render_win32.release:gamepadbase.obj
 0001:0002b7c0       ?Copy@?$Array@VInputEvent@Input@@@Util@@AAEXABV12@@Z 0042c7c0 f i render_win32.release:gamepadbase.obj
 0001:0002b900       ?Delete@?$Array@VInputEvent@Input@@@Util@@AAEXXZ 0042c900 f i render_win32.release:gamepadbase.obj
 0001:0002b960       ??4InputEvent@Input@@QAEAAV01@ABV01@@Z 0042c960 f i render_win32.release:gamepadbase.obj
 0001:0002ba00       ?Exchange@Win360Interlocked@Win360@@SAHPCHH@Z 0042ca00 f i render_win32.release:graphicshandler.obj
 0001:0002ba10       ?IsA@RefCounted@Core@@QBE_NABVRtti@2@@Z 0042ca10 f i render_win32.release:graphicshandler.obj
 0001:0002ba40       ??8Id@Messaging@@QBE_NABV01@@Z 0042ca40 f i render_win32.release:graphicshandler.obj
 0001:0002ba60       ?CheckId@Message@Messaging@@QBE_NABVId@2@@Z 0042ca60 f i render_win32.release:graphicshandler.obj
 0001:0002ba90       ?IsOpen@Handler@Messaging@@QBE_NXZ 0042ca90 f i render_win32.release:graphicshandler.obj
 0001:0002bab0       ?IsOpen@AttachmentServer@InternalGraphics@@QBE_NXZ 0042cab0 f i render_win32.release:graphicshandler.obj
 0001:0002bad0       ?GetAdapter@SetupGraphics@Graphics@@QBEABW4Code@Adapter@CoreGraphics@@XZ 0042cad0 f i render_win32.release:graphicshandler.obj
 0001:0002baf0       ?GetDisplayMode@SetupGraphics@Graphics@@QBEABVDisplayMode@CoreGraphics@@XZ 0042caf0 f i render_win32.release:graphicshandler.obj
 0001:0002bb10       ?GetAntiAliasQuality@SetupGraphics@Graphics@@QBEABW4Code@AntiAliasQuality@CoreGraphics@@XZ 0042cb10 f i render_win32.release:graphicshandler.obj
 0001:0002bb30       ?GetFullscreen@SetupGraphics@Graphics@@QBE_NXZ 0042cb30 f i render_win32.release:graphicshandler.obj
 0001:0002bb50       ?GetAutoAdjustSize@SetupGraphics@Graphics@@QBE_NXZ 0042cb50 f i render_win32.release:graphicshandler.obj
 0001:0002bb70       ?GetDisplayModeSwitchEnabled@SetupGraphics@Graphics@@QBE_NXZ 0042cb70 f i render_win32.release:graphicshandler.obj
 0001:0002bb90       ?GetTripleBufferingEnabled@SetupGraphics@Graphics@@QBE_NXZ 0042cb90 f i render_win32.release:graphicshandler.obj
 0001:0002bbb0       ?GetAlwaysOnTop@SetupGraphics@Graphics@@QBE_NXZ 0042cbb0 f i render_win32.release:graphicshandler.obj
 0001:0002bbd0       ?GetVerticalSyncEnabled@SetupGraphics@Graphics@@QBE_NXZ 0042cbd0 f i render_win32.release:graphicshandler.obj
 0001:0002bbf0       ?GetIconName@SetupGraphics@Graphics@@QBEABVString@Util@@XZ 0042cbf0 f i render_win32.release:graphicshandler.obj
 0001:0002bc10       ?GetWindowTitle@SetupGraphics@Graphics@@QBEABVString@Util@@XZ 0042cc10 f i render_win32.release:graphicshandler.obj
 0001:0002bc30       ?GetParentWindow@SetupGraphics@Graphics@@QBEPAXXZ 0042cc30 f i render_win32.release:graphicshandler.obj
 0001:0002bc50       ?GetResourceMappers@SetupGraphics@Graphics@@QBEABV?$Array@V?$Ptr@VResourceMapper@Resources@@@@@Util@@XZ 0042cc50 f i render_win32.release:graphicshandler.obj
 0001:0002bc70       ?SetActualDisplayMode@SetupGraphics@Graphics@@QAEXABVDisplayMode@CoreGraphics@@@Z 0042cc70 f i render_win32.release:graphicshandler.obj
 0001:0002bcd0       ?SetActualFullscreen@SetupGraphics@Graphics@@QAEX_N@Z 0042ccd0 f i render_win32.release:graphicshandler.obj
 0001:0002bd10       ?SetActualAdapter@SetupGraphics@Graphics@@QAEXABW4Code@Adapter@CoreGraphics@@@Z 0042cd10 f i render_win32.release:graphicshandler.obj
 0001:0002bd50       ?GetObjectRef@GraphicsEntityMessage@Graphics@@QBEABV?$Ptr@VObjectRef@Threading@@@@XZ 0042cd50 f i render_win32.release:graphicshandler.obj
 0001:0002bd70       ?IsOpen@ShapeRendererBase@Base@@QBE_NXZ 0042cd70 f i render_win32.release:graphicshandler.obj
 0001:0002bd90       ?IsOpen@DisplayDeviceBase@Base@@QBE_NXZ 0042cd90 f i render_win32.release:graphicshandler.obj
 0001:0002bdb0       ?SetDisplayMode@DisplayDeviceBase@Base@@QAEXABVDisplayMode@CoreGraphics@@@Z 0042cdb0 f i render_win32.release:graphicshandler.obj
 0001:0002bdf0       ?GetDisplayMode@DisplayDeviceBase@Base@@QBEABVDisplayMode@CoreGraphics@@XZ 0042cdf0 f i render_win32.release:graphicshandler.obj
 0001:0002be10       ?SetAntiAliasQuality@DisplayDeviceBase@Base@@QAEXW4Code@AntiAliasQuality@CoreGraphics@@@Z 0042ce10 f i render_win32.release:graphicshandler.obj
 0001:0002be30       ?SetAdapter@DisplayDeviceBase@Base@@QAEXW4Code@Adapter@CoreGraphics@@@Z 0042ce30 f i render_win32.release:graphicshandler.obj
 0001:0002be50       ?GetAdapter@DisplayDeviceBase@Base@@QBE?AW4Code@Adapter@CoreGraphics@@XZ 0042ce50 f i render_win32.release:graphicshandler.obj
 0001:0002be70       ?SetFullscreen@DisplayDeviceBase@Base@@QAEX_N@Z 0042ce70 f i render_win32.release:graphicshandler.obj
 0001:0002be90       ?IsFullscreen@DisplayDeviceBase@Base@@QBE_NXZ 0042ce90 f i render_win32.release:graphicshandler.obj
 0001:0002beb0       ?SetAutoAdjustSize@DisplayDeviceBase@Base@@QAEX_N@Z 0042ceb0 f i render_win32.release:graphicshandler.obj
 0001:0002bed0       ?SetDisplayModeSwitchEnabled@DisplayDeviceBase@Base@@QAEX_N@Z 0042ced0 f i render_win32.release:graphicshandler.obj
 0001:0002bef0       ?SetTripleBufferingEnabled@DisplayDeviceBase@Base@@QAEX_N@Z 0042cef0 f i render_win32.release:graphicshandler.obj
 0001:0002bf10       ?SetAlwaysOnTop@DisplayDeviceBase@Base@@QAEX_N@Z 0042cf10 f i render_win32.release:graphicshandler.obj
 0001:0002bf30       ?SetVerticalSyncEnabled@DisplayDeviceBase@Base@@QAEX_N@Z 0042cf30 f i render_win32.release:graphicshandler.obj
 0001:0002bf50       ?SetIconName@DisplayDeviceBase@Base@@QAEXABVString@Util@@@Z 0042cf50 f i render_win32.release:graphicshandler.obj
 0001:0002bfa0       ?SetParentWindow@DisplayDeviceBase@Base@@QAEXPAX@Z 0042cfa0 f i render_win32.release:graphicshandler.obj
 0001:0002bfc0       ?IsOpen@TransformDeviceBase@Base@@QBE_NXZ 0042cfc0 f i render_win32.release:graphicshandler.obj
 0001:0002bfe0       ?IsOpen@ShaderServerBase@Base@@QBE_NXZ 0042cfe0 f i render_win32.release:graphicshandler.obj
 0001:0002c000       ?IsOpen@VertexLayoutServerBase@Base@@QBE_NXZ 0042d000 f i render_win32.release:graphicshandler.obj
 0001:0002c020       ?Instance@ResourceManager@Resources@@SAPAV12@XZ 0042d020 f i render_win32.release:graphicshandler.obj
 0001:0002c060       ?IsOpen@ResourceManager@Resources@@QBE_NXZ 0042d060 f i render_win32.release:graphicshandler.obj
 0001:0002c080       ?IsOpen@ModelServer@Models@@QBE_NXZ 0042d080 f i render_win32.release:graphicshandler.obj
 0001:0002c0a0       ?Start@DebugTimer@Debug@@QAEXXZ 0042d0a0 f i render_win32.release:graphicshandler.obj
 0001:0002c0c0       ?Stop@DebugTimer@Debug@@QAEXXZ 0042d0c0 f i render_win32.release:graphicshandler.obj
 0001:0002c140       ?IsOpen@InternalGraphicsServer@InternalGraphics@@QBE_NXZ 0042d140 f i render_win32.release:graphicshandler.obj
 0001:0002c160       ?IsOpen@LightServerBase@Lighting@@QBE_NXZ 0042d160 f i render_win32.release:graphicshandler.obj
 0001:0002c180       ?IsOpen@ShadowServerBase@Lighting@@QBE_NXZ 0042d180 f i render_win32.release:graphicshandler.obj
 0001:0002c1a0       ?IsOpen@FrameServer@Frame@@QBE_NXZ 0042d1a0 f i render_win32.release:graphicshandler.obj
 0001:0002c1c0       ??0SafeFlag@Threading@@QAE@XZ 0042d1c0 f i render_win32.release:graphicshandler.obj
 0001:0002c1e0       ?Set@SafeFlag@Threading@@QAEXXZ 0042d1e0 f i render_win32.release:graphicshandler.obj
 0001:0002c200       ?Clear@SafeFlag@Threading@@QAEXXZ 0042d200 f i render_win32.release:graphicshandler.obj
 0001:0002c220       ?Test@SafeFlag@Threading@@QBE_NXZ 0042d220 f i render_win32.release:graphicshandler.obj
 0001:0002c240       ?IsValid@CharacterServer@Characters@@QBE_NXZ 0042d240 f i render_win32.release:graphicshandler.obj
 0001:0002c260       ?GetTimeFactor@FrameSyncTimer@FrameSync@@QBENXZ 0042d260 f i render_win32.release:graphicshandler.obj
 0001:0002c280       ?GetScaledTime@FrameSyncTimer@FrameSync@@QBENXZ 0042d280 f i render_win32.release:graphicshandler.obj
 0001:0002c2a0       ??2GraphicsHandler@Graphics@@SAPAXI@Z 0042d2a0 f i render_win32.release:graphicshandler.obj
 0001:0002c2b0       ??3GraphicsHandler@Graphics@@SAXPAX@Z 0042d2b0 f i render_win32.release:graphicshandler.obj
 0001:0002c2d0       ?GetRtti@GraphicsHandler@Graphics@@UBEPAVRtti@Core@@XZ 0042d2d0 f   render_win32.release:graphicshandler.obj
 0001:0002c2e0       ?FactoryCreator@GraphicsHandler@Graphics@@SAPAVRefCounted@Core@@XZ 0042d2e0 f   render_win32.release:graphicshandler.obj
 0001:0002c2f0       ?Create@GraphicsHandler@Graphics@@SAPAV12@XZ 0042d2f0 f   render_win32.release:graphicshandler.obj
 0001:0002c330       ?RegisterWithFactory@GraphicsHandler@Graphics@@SA_NXZ 0042d330 f   render_win32.release:graphicshandler.obj
 0001:0002c430       ??0GraphicsHandler@Graphics@@QAE@XZ 0042d430 f   render_win32.release:graphicshandler.obj
 0001:0002c5a0       ??_EGraphicsHandler@Graphics@@UAEPAXI@Z 0042d5a0 f i  CIL library: CIL module
 0001:0002c5a0       ??_GGraphicsHandler@Graphics@@UAEPAXI@Z 0042d5a0 f i render_win32.release:graphicshandler.obj
 0001:0002c5d0       ??1InterfaceHandlerBase@Interface@@UAE@XZ 0042d5d0 f i render_win32.release:graphicshandler.obj
 0001:0002c5f0       ??1GraphicsHandler@Graphics@@UAE@XZ 0042d5f0 f   render_win32.release:graphicshandler.obj
 0001:0002c730       ?WaitForPendingResources@GraphicsHandler@Graphics@@QAEXXZ 0042d730 f   render_win32.release:graphicshandler.obj
 0001:0002c760       ?Open@GraphicsHandler@Graphics@@UAEXXZ 0042d760 f   render_win32.release:graphicshandler.obj
 0001:0002cac0       ?Close@GraphicsHandler@Graphics@@UAEXXZ 0042dac0 f   render_win32.release:graphicshandler.obj
 0001:0002cc90       ?SetupGraphicsRuntime@GraphicsHandler@Graphics@@AAEXABV?$Ptr@VSetupGraphics@Graphics@@@@@Z 0042dc90 f   render_win32.release:graphicshandler.obj
 0001:0002d3c0       ?ShutdownGraphicsRuntime@GraphicsHandler@Graphics@@AAEXXZ 0042e3c0 f   render_win32.release:graphicshandler.obj
 0001:0002d520       ?HandleMessage@GraphicsHandler@Graphics@@UAE_NABV?$Ptr@VMessage@Messaging@@@@@Z 0042e520 f   render_win32.release:graphicshandler.obj
 0001:0002e020       ?DoWork@GraphicsHandler@Graphics@@UAEXXZ 0042f020 f   render_win32.release:graphicshandler.obj
 0001:0002e1a0       ?OnSetupGraphics@GraphicsHandler@Graphics@@AAEXABV?$Ptr@VSetupGraphics@Graphics@@@@@Z 0042f1a0 f   render_win32.release:graphicshandler.obj
 0001:0002e480       ??0?$Ptr@VInternalGraphicsEntity@InternalGraphics@@@@QAE@PAVInternalGraphicsEntity@InternalGraphics@@@Z 0042f480 f i render_win32.release:graphicshandler.obj
 0001:0002e4c0       ??C?$Ptr@VInternalGraphicsEntity@InternalGraphics@@@@QBEPAVInternalGraphicsEntity@InternalGraphics@@XZ 0042f4c0 f i render_win32.release:graphicshandler.obj
 0001:0002e500       ??A?$Array@V?$Ptr@VResourceMapper@Resources@@@@@Util@@QBEAAV?$Ptr@VResourceMapper@Resources@@@@H@Z 0042f500 f i render_win32.release:graphicshandler.obj
 0001:0002e550       ?Size@?$Array@V?$Ptr@VResourceMapper@Resources@@@@@Util@@QBEHXZ 0042f550 f i render_win32.release:graphicshandler.obj
 0001:0002e570       ??C?$Ptr@VObjectRef@Threading@@@@QBEPAVObjectRef@Threading@@XZ 0042f570 f i render_win32.release:graphicshandler.obj
 0001:0002e5b0       ??4?$Ptr@VPoolResourceMapper@Resources@@@@QAEXABV0@@Z 0042f5b0 f i render_win32.release:graphicshandler.obj
 0001:0002e610       ??C?$Ptr@VResourceMapper@Resources@@@@QBEPAVResourceMapper@Resources@@XZ 0042f610 f i render_win32.release:graphicshandler.obj
 0001:0002e650       ?Add@?$RingBuffer@N@Util@@QAEXABN@Z 0042f650 f i render_win32.release:graphicshandler.obj
 0001:0002e700       ??0?$Ptr@VDebugTimer@Debug@@@@QAE@XZ 0042f700 f i render_win32.release:graphicshandler.obj
 0001:0002e720       ??1?$Ptr@VDebugTimer@Debug@@@@QAE@XZ 0042f720 f i render_win32.release:graphicshandler.obj
 0001:0002e750       ??4?$Ptr@VDebugTimer@Debug@@@@QAEXPAVDebugTimer@Debug@@@Z 0042f750 f i render_win32.release:graphicshandler.obj
 0001:0002e7b0       ??C?$Ptr@VDebugTimer@Debug@@@@QBEPAVDebugTimer@Debug@@XZ 0042f7b0 f i render_win32.release:graphicshandler.obj
 0001:0002e7f0       ??0?$Ptr@VFrameSyncTimer@FrameSync@@@@QAE@XZ 0042f7f0 f i render_win32.release:graphicshandler.obj
 0001:0002e810       ??1?$Ptr@VFrameSyncTimer@FrameSync@@@@QAE@XZ 0042f810 f i render_win32.release:graphicshandler.obj
 0001:0002e840       ??4?$Ptr@VFrameSyncTimer@FrameSync@@@@QAEXPAVFrameSyncTimer@FrameSync@@@Z 0042f840 f i render_win32.release:graphicshandler.obj
 0001:0002e8a0       ??C?$Ptr@VFrameSyncTimer@FrameSync@@@@QBEPAVFrameSyncTimer@FrameSync@@XZ 0042f8a0 f i render_win32.release:graphicshandler.obj
 0001:0002e8e0       ??0?$Ptr@VIoServer@IO@@@@QAE@XZ 0042f8e0 f i render_win32.release:graphicshandler.obj
 0001:0002e900       ??1?$Ptr@VIoServer@IO@@@@QAE@XZ 0042f900 f i render_win32.release:graphicshandler.obj
 0001:0002e930       ??4?$Ptr@VIoServer@IO@@@@QAEXPAVIoServer@IO@@@Z 0042f930 f i render_win32.release:graphicshandler.obj
 0001:0002e990       ??0?$Ptr@VRenderDevice@CoreGraphics@@@@QAE@XZ 0042f990 f i render_win32.release:graphicshandler.obj
 0001:0002e9b0       ??1?$Ptr@VRenderDevice@CoreGraphics@@@@QAE@XZ 0042f9b0 f i render_win32.release:graphicshandler.obj
 0001:0002e9e0       ??4?$Ptr@VRenderDevice@CoreGraphics@@@@QAEXPAVRenderDevice@CoreGraphics@@@Z 0042f9e0 f i render_win32.release:graphicshandler.obj
 0001:0002ea40       ??C?$Ptr@VRenderDevice@CoreGraphics@@@@QBEPAVRenderDevice@CoreGraphics@@XZ 0042fa40 f i render_win32.release:graphicshandler.obj
 0001:0002ea80       ??0?$Ptr@VDisplayDevice@CoreGraphics@@@@QAE@XZ 0042fa80 f i render_win32.release:graphicshandler.obj
 0001:0002eaa0       ??1?$Ptr@VDisplayDevice@CoreGraphics@@@@QAE@XZ 0042faa0 f i render_win32.release:graphicshandler.obj
 0001:0002ead0       ??4?$Ptr@VDisplayDevice@CoreGraphics@@@@QAEXPAVDisplayDevice@CoreGraphics@@@Z 0042fad0 f i render_win32.release:graphicshandler.obj
 0001:0002eb30       ??C?$Ptr@VDisplayDevice@CoreGraphics@@@@QBEPAVDisplayDevice@CoreGraphics@@XZ 0042fb30 f i render_win32.release:graphicshandler.obj
 0001:0002eb70       ??B?$Ptr@VDisplayDevice@CoreGraphics@@@@QBEPAVDisplayDevice@CoreGraphics@@XZ 0042fb70 f i render_win32.release:graphicshandler.obj
 0001:0002ebb0       ??0?$Ptr@VTransformDevice@CoreGraphics@@@@QAE@XZ 0042fbb0 f i render_win32.release:graphicshandler.obj
 0001:0002ebd0       ??1?$Ptr@VTransformDevice@CoreGraphics@@@@QAE@XZ 0042fbd0 f i render_win32.release:graphicshandler.obj
 0001:0002ec00       ??4?$Ptr@VTransformDevice@CoreGraphics@@@@QAEXPAVTransformDevice@CoreGraphics@@@Z 0042fc00 f i render_win32.release:graphicshandler.obj
 0001:0002ec60       ??C?$Ptr@VTransformDevice@CoreGraphics@@@@QBEPAVTransformDevice@CoreGraphics@@XZ 0042fc60 f i render_win32.release:graphicshandler.obj
 0001:0002eca0       ??0?$Ptr@VShaderServer@CoreGraphics@@@@QAE@XZ 0042fca0 f i render_win32.release:graphicshandler.obj
 0001:0002ecc0       ??1?$Ptr@VShaderServer@CoreGraphics@@@@QAE@XZ 0042fcc0 f i render_win32.release:graphicshandler.obj
 0001:0002ecf0       ??4?$Ptr@VShaderServer@CoreGraphics@@@@QAEXPAVShaderServer@CoreGraphics@@@Z 0042fcf0 f i render_win32.release:graphicshandler.obj
 0001:0002ed50       ??C?$Ptr@VShaderServer@CoreGraphics@@@@QBEPAVShaderServer@CoreGraphics@@XZ 0042fd50 f i render_win32.release:graphicshandler.obj
 0001:0002ed90       ??0?$Ptr@VShapeRenderer@CoreGraphics@@@@QAE@XZ 0042fd90 f i render_win32.release:graphicshandler.obj
 0001:0002edb0       ??1?$Ptr@VShapeRenderer@CoreGraphics@@@@QAE@XZ 0042fdb0 f i render_win32.release:graphicshandler.obj
 0001:0002ede0       ??4?$Ptr@VShapeRenderer@CoreGraphics@@@@QAEXPAVShapeRenderer@CoreGraphics@@@Z 0042fde0 f i render_win32.release:graphicshandler.obj
 0001:0002ee40       ??C?$Ptr@VShapeRenderer@CoreGraphics@@@@QBEPAVShapeRenderer@CoreGraphics@@XZ 0042fe40 f i render_win32.release:graphicshandler.obj
 0001:0002ee80       ??0?$Ptr@VVertexLayoutServer@CoreGraphics@@@@QAE@XZ 0042fe80 f i render_win32.release:graphicshandler.obj
 0001:0002eea0       ??1?$Ptr@VVertexLayoutServer@CoreGraphics@@@@QAE@XZ 0042fea0 f i render_win32.release:graphicshandler.obj
 0001:0002eed0       ??4?$Ptr@VVertexLayoutServer@CoreGraphics@@@@QAEXPAVVertexLayoutServer@CoreGraphics@@@Z 0042fed0 f i render_win32.release:graphicshandler.obj
 0001:0002ef30       ??C?$Ptr@VVertexLayoutServer@CoreGraphics@@@@QBEPAVVertexLayoutServer@CoreGraphics@@XZ 0042ff30 f i render_win32.release:graphicshandler.obj
 0001:0002ef70       ??0?$Ptr@VTextRenderer@CoreGraphics@@@@QAE@XZ 0042ff70 f i render_win32.release:graphicshandler.obj
 0001:0002ef90       ??1?$Ptr@VTextRenderer@CoreGraphics@@@@QAE@XZ 0042ff90 f i render_win32.release:graphicshandler.obj
 0001:0002efc0       ??4?$Ptr@VTextRenderer@CoreGraphics@@@@QAEXPAVTextRenderer@CoreGraphics@@@Z 0042ffc0 f i render_win32.release:graphicshandler.obj
 0001:0002f020       ??C?$Ptr@VTextRenderer@CoreGraphics@@@@QBEPAVTextRenderer@CoreGraphics@@XZ 00430020 f i render_win32.release:graphicshandler.obj
 0001:0002f060       ??0?$Ptr@VMouseRenderDevice@CoreGraphics@@@@QAE@XZ 00430060 f i render_win32.release:graphicshandler.obj
 0001:0002f080       ??1?$Ptr@VMouseRenderDevice@CoreGraphics@@@@QAE@XZ 00430080 f i render_win32.release:graphicshandler.obj
 0001:0002f0b0       ??4?$Ptr@VMouseRenderDevice@CoreGraphics@@@@QAEXPAVMouseRenderDevice@CoreGraphics@@@Z 004300b0 f i render_win32.release:graphicshandler.obj
 0001:0002f110       ??C?$Ptr@VMouseRenderDevice@CoreGraphics@@@@QBEPAVMouseRenderDevice@CoreGraphics@@XZ 00430110 f i render_win32.release:graphicshandler.obj
 0001:0002f150       ??0?$Ptr@VResourceManager@Resources@@@@QAE@XZ 00430150 f i render_win32.release:graphicshandler.obj
 0001:0002f170       ??1?$Ptr@VResourceManager@Resources@@@@QAE@XZ 00430170 f i render_win32.release:graphicshandler.obj
 0001:0002f1a0       ??4?$Ptr@VResourceManager@Resources@@@@QAEXPAVResourceManager@Resources@@@Z 004301a0 f i render_win32.release:graphicshandler.obj
 0001:0002f200       ??C?$Ptr@VResourceManager@Resources@@@@QBEPAVResourceManager@Resources@@XZ 00430200 f i render_win32.release:graphicshandler.obj
 0001:0002f240       ??0?$Ptr@VModelServer@Models@@@@QAE@XZ 00430240 f i render_win32.release:graphicshandler.obj
 0001:0002f260       ??1?$Ptr@VModelServer@Models@@@@QAE@XZ 00430260 f i render_win32.release:graphicshandler.obj
 0001:0002f290       ??4?$Ptr@VModelServer@Models@@@@QAEXPAVModelServer@Models@@@Z 00430290 f i render_win32.release:graphicshandler.obj
 0001:0002f2f0       ??C?$Ptr@VModelServer@Models@@@@QBEPAVModelServer@Models@@XZ 004302f0 f i render_win32.release:graphicshandler.obj
 0001:0002f330       ??0?$Ptr@VInternalGraphicsServer@InternalGraphics@@@@QAE@XZ 00430330 f i render_win32.release:graphicshandler.obj
 0001:0002f350       ??1?$Ptr@VInternalGraphicsServer@InternalGraphics@@@@QAE@XZ 00430350 f i render_win32.release:graphicshandler.obj
 0001:0002f380       ??4?$Ptr@VInternalGraphicsServer@InternalGraphics@@@@QAEXPAVInternalGraphicsServer@InternalGraphics@@@Z 00430380 f i render_win32.release:graphicshandler.obj
 0001:0002f3e0       ??C?$Ptr@VInternalGraphicsServer@InternalGraphics@@@@QBEPAVInternalGraphicsServer@InternalGraphics@@XZ 004303e0 f i render_win32.release:graphicshandler.obj
 0001:0002f420       ??0?$Ptr@VAttachmentServer@InternalGraphics@@@@QAE@XZ 00430420 f i render_win32.release:graphicshandler.obj
 0001:0002f440       ??1?$Ptr@VAttachmentServer@InternalGraphics@@@@QAE@XZ 00430440 f i render_win32.release:graphicshandler.obj
 0001:0002f470       ??4?$Ptr@VAttachmentServer@InternalGraphics@@@@QAEXPAVAttachmentServer@InternalGraphics@@@Z 00430470 f i render_win32.release:graphicshandler.obj
 0001:0002f4d0       ??C?$Ptr@VAttachmentServer@InternalGraphics@@@@QBEPAVAttachmentServer@InternalGraphics@@XZ 004304d0 f i render_win32.release:graphicshandler.obj
 0001:0002f510       ??0?$Ptr@VLightServer@Lighting@@@@QAE@XZ 00430510 f i render_win32.release:graphicshandler.obj
 0001:0002f530       ??1?$Ptr@VLightServer@Lighting@@@@QAE@XZ 00430530 f i render_win32.release:graphicshandler.obj
 0001:0002f560       ??4?$Ptr@VLightServer@Lighting@@@@QAEXPAVLightServer@Lighting@@@Z 00430560 f i render_win32.release:graphicshandler.obj
 0001:0002f5c0       ??C?$Ptr@VLightServer@Lighting@@@@QBEPAVLightServer@Lighting@@XZ 004305c0 f i render_win32.release:graphicshandler.obj
 0001:0002f600       ??0?$Ptr@VShadowServer@Lighting@@@@QAE@XZ 00430600 f i render_win32.release:graphicshandler.obj
 0001:0002f620       ??1?$Ptr@VShadowServer@Lighting@@@@QAE@XZ 00430620 f i render_win32.release:graphicshandler.obj
 0001:0002f650       ??4?$Ptr@VShadowServer@Lighting@@@@QAEXPAVShadowServer@Lighting@@@Z 00430650 f i render_win32.release:graphicshandler.obj
 0001:0002f6b0       ??C?$Ptr@VShadowServer@Lighting@@@@QBEPAVShadowServer@Lighting@@XZ 004306b0 f i render_win32.release:graphicshandler.obj
 0001:0002f6f0       ??0?$Ptr@VFrameServer@Frame@@@@QAE@XZ 004306f0 f i render_win32.release:graphicshandler.obj
 0001:0002f710       ??1?$Ptr@VFrameServer@Frame@@@@QAE@XZ 00430710 f i render_win32.release:graphicshandler.obj
 0001:0002f740       ??4?$Ptr@VFrameServer@Frame@@@@QAEXPAVFrameServer@Frame@@@Z 00430740 f i render_win32.release:graphicshandler.obj
 0001:0002f7a0       ??C?$Ptr@VFrameServer@Frame@@@@QBEPAVFrameServer@Frame@@XZ 004307a0 f i render_win32.release:graphicshandler.obj
 0001:0002f7e0       ??0?$Ptr@VAnimEventServer@Animation@@@@QAE@XZ 004307e0 f i render_win32.release:graphicshandler.obj
 0001:0002f800       ??1?$Ptr@VAnimEventServer@Animation@@@@QAE@XZ 00430800 f i render_win32.release:graphicshandler.obj
 0001:0002f830       ??4?$Ptr@VAnimEventServer@Animation@@@@QAEXPAVAnimEventServer@Animation@@@Z 00430830 f i render_win32.release:graphicshandler.obj
 0001:0002f890       ??C?$Ptr@VAnimEventServer@Animation@@@@QBEPAVAnimEventServer@Animation@@XZ 00430890 f i render_win32.release:graphicshandler.obj
 0001:0002f8d0       ??0?$Ptr@VCharacterServer@Characters@@@@QAE@XZ 004308d0 f i render_win32.release:graphicshandler.obj
 0001:0002f8f0       ??1?$Ptr@VCharacterServer@Characters@@@@QAE@XZ 004308f0 f i render_win32.release:graphicshandler.obj
 0001:0002f920       ??4?$Ptr@VCharacterServer@Characters@@@@QAEXPAVCharacterServer@Characters@@@Z 00430920 f i render_win32.release:graphicshandler.obj
 0001:0002f980       ??C?$Ptr@VCharacterServer@Characters@@@@QBEPAVCharacterServer@Characters@@XZ 00430980 f i render_win32.release:graphicshandler.obj
 0001:0002f9c0       ??0?$Ptr@VParticleServer@Particles@@@@QAE@XZ 004309c0 f i render_win32.release:graphicshandler.obj
 0001:0002f9e0       ??1?$Ptr@VParticleServer@Particles@@@@QAE@XZ 004309e0 f i render_win32.release:graphicshandler.obj
 0001:0002fa10       ??4?$Ptr@VParticleServer@Particles@@@@QAEXPAVParticleServer@Particles@@@Z 00430a10 f i render_win32.release:graphicshandler.obj
 0001:0002fa70       ??C?$Ptr@VParticleServer@Particles@@@@QBEPAVParticleServer@Particles@@XZ 00430a70 f i render_win32.release:graphicshandler.obj
 0001:0002fab0       ??0?$Ptr@VHttpServerProxy@Http@@@@QAE@XZ 00430ab0 f i render_win32.release:graphicshandler.obj
 0001:0002fad0       ??1?$Ptr@VHttpServerProxy@Http@@@@QAE@XZ 00430ad0 f i render_win32.release:graphicshandler.obj
 0001:0002fb00       ??4?$Ptr@VHttpServerProxy@Http@@@@QAEXPAVHttpServerProxy@Http@@@Z 00430b00 f i render_win32.release:graphicshandler.obj
 0001:0002fb60       ??C?$Ptr@VHttpServerProxy@Http@@@@QBEPAVHttpServerProxy@Http@@XZ 00430b60 f i render_win32.release:graphicshandler.obj
 0001:0002fba0       ??0?$Ptr@VHttpClientRegistry@Http@@@@QAE@XZ 00430ba0 f i render_win32.release:graphicshandler.obj
 0001:0002fbc0       ??1?$Ptr@VHttpClientRegistry@Http@@@@QAE@XZ 00430bc0 f i render_win32.release:graphicshandler.obj
 0001:0002fbf0       ??4?$Ptr@VHttpClientRegistry@Http@@@@QAEXPAVHttpClientRegistry@Http@@@Z 00430bf0 f i render_win32.release:graphicshandler.obj
 0001:0002fc50       ??C?$Ptr@VHttpClientRegistry@Http@@@@QBEPAVHttpClientRegistry@Http@@XZ 00430c50 f i render_win32.release:graphicshandler.obj
 0001:0002fc90       ??0?$Ptr@VHttpRequestHandler@Http@@@@QAE@PAVHttpRequestHandler@Http@@@Z 00430c90 f i render_win32.release:graphicshandler.obj
 0001:0002fcd0       ??1?$Ptr@VHttpRequestHandler@Http@@@@QAE@XZ 00430cd0 f i render_win32.release:graphicshandler.obj
 0001:0002fd00       ??$downcast@VPoolResourceMapper@Resources@@@?$Ptr@VResourceMapper@Resources@@@@QBEABV?$Ptr@VPoolResourceMapper@Resources@@@@XZ 00430d00 f i render_win32.release:graphicshandler.obj
 0001:0002fd10       ??C?$Ptr@VMessage@Messaging@@@@QBEPAVMessage@Messaging@@XZ 00430d10 f i render_win32.release:graphicshandler.obj
 0001:0002fd50       ?isvalid@?$Ptr@VMessage@Messaging@@@@QBE_NXZ 00430d50 f i render_win32.release:graphicshandler.obj
 0001:0002fd70       ??$cast@VGraphicsEntityMessage@Graphics@@@?$Ptr@VMessage@Messaging@@@@QBEABV?$Ptr@VGraphicsEntityMessage@Graphics@@@@XZ 00430d70 f i render_win32.release:graphicshandler.obj
 0001:0002fd80       ??C?$Ptr@VGraphicsEntityMessage@Graphics@@@@QBEPAVGraphicsEntityMessage@Graphics@@XZ 00430d80 f i render_win32.release:graphicshandler.obj
 0001:0002fdc0       ??$Ref@VInternalGraphicsEntity@InternalGraphics@@@ObjectRef@Threading@@QBEPAVInternalGraphicsEntity@InternalGraphics@@XZ 00430dc0 f i render_win32.release:graphicshandler.obj
 0001:0002fe30       ??$cast@VSetupGraphics@Graphics@@@?$Ptr@VMessage@Messaging@@@@QBEABV?$Ptr@VSetupGraphics@Graphics@@@@XZ 00430e30 f i render_win32.release:graphicshandler.obj
 0001:0002fe40       ??$downcast@VCreateModelEntity@Graphics@@@?$Ptr@VMessage@Messaging@@@@QBEABV?$Ptr@VCreateModelEntity@Graphics@@@@XZ 00430e40 f i render_win32.release:graphicshandler.obj
 0001:0002fe50       ??$downcast@VCreateCameraEntity@Graphics@@@?$Ptr@VMessage@Messaging@@@@QBEABV?$Ptr@VCreateCameraEntity@Graphics@@@@XZ 00430e50 f i render_win32.release:graphicshandler.obj
 0001:0002fe60       ??$downcast@VCreateGlobalLightEntity@Graphics@@@?$Ptr@VMessage@Messaging@@@@QBEABV?$Ptr@VCreateGlobalLightEntity@Graphics@@@@XZ 00430e60 f i render_win32.release:graphicshandler.obj
 0001:0002fe70       ??$downcast@VCreatePointLightEntity@Graphics@@@?$Ptr@VMessage@Messaging@@@@QBEABV?$Ptr@VCreatePointLightEntity@Graphics@@@@XZ 00430e70 f i render_win32.release:graphicshandler.obj
 0001:0002fe80       ??$downcast@VCreateSpotLightEntity@Graphics@@@?$Ptr@VMessage@Messaging@@@@QBEABV?$Ptr@VCreateSpotLightEntity@Graphics@@@@XZ 00430e80 f i render_win32.release:graphicshandler.obj
 0001:0002fe90       ??$downcast@VAdapterExists@Graphics@@@?$Ptr@VMessage@Messaging@@@@QBEABV?$Ptr@VAdapterExists@Graphics@@@@XZ 00430e90 f i render_win32.release:graphicshandler.obj
 0001:0002fea0       ??$downcast@VGetAvailableDisplayModes@Graphics@@@?$Ptr@VMessage@Messaging@@@@QBEABV?$Ptr@VGetAvailableDisplayModes@Graphics@@@@XZ 00430ea0 f i render_win32.release:graphicshandler.obj
 0001:0002feb0       ??$downcast@VGetCurrentAdapterDisplayMode@Graphics@@@?$Ptr@VMessage@Messaging@@@@QBEABV?$Ptr@VGetCurrentAdapterDisplayMode@Graphics@@@@XZ 00430eb0 f i render_win32.release:graphicshandler.obj
 0001:0002fec0       ??$downcast@VAdjustDisplaySize@Graphics@@@?$Ptr@VMessage@Messaging@@@@QBEABV?$Ptr@VAdjustDisplaySize@Graphics@@@@XZ 00430ec0 f i render_win32.release:graphicshandler.obj
 0001:0002fed0       ??$downcast@VGetAdapterInfo@Graphics@@@?$Ptr@VMessage@Messaging@@@@QBEABV?$Ptr@VGetAdapterInfo@Graphics@@@@XZ 00430ed0 f i render_win32.release:graphicshandler.obj
 0001:0002fee0       ??$downcast@VAttachDisplayEventHandler@Graphics@@@?$Ptr@VMessage@Messaging@@@@QBEABV?$Ptr@VAttachDisplayEventHandler@Graphics@@@@XZ 00430ee0 f i render_win32.release:graphicshandler.obj
 0001:0002fef0       ??$downcast@VRemoveDisplayEventHandler@Graphics@@@?$Ptr@VMessage@Messaging@@@@QBEABV?$Ptr@VRemoveDisplayEventHandler@Graphics@@@@XZ 00430ef0 f i render_win32.release:graphicshandler.obj
 0001:0002ff00       ??$downcast@VAttachRenderEventHandler@Graphics@@@?$Ptr@VMessage@Messaging@@@@QBEABV?$Ptr@VAttachRenderEventHandler@Graphics@@@@XZ 00430f00 f i render_win32.release:graphicshandler.obj
 0001:0002ff10       ??$downcast@VRemoveRenderEventHandler@Graphics@@@?$Ptr@VMessage@Messaging@@@@QBEABV?$Ptr@VRemoveRenderEventHandler@Graphics@@@@XZ 00430f10 f i render_win32.release:graphicshandler.obj
 0001:0002ff20       ??$downcast@VCreateGraphicsStage@Graphics@@@?$Ptr@VMessage@Messaging@@@@QBEABV?$Ptr@VCreateGraphicsStage@Graphics@@@@XZ 00430f20 f i render_win32.release:graphicshandler.obj
 0001:0002ff30       ??$downcast@VDiscardGraphicsStage@Graphics@@@?$Ptr@VMessage@Messaging@@@@QBEABV?$Ptr@VDiscardGraphicsStage@Graphics@@@@XZ 00430f30 f i render_win32.release:graphicshandler.obj
 0001:0002ff40       ??$downcast@VCreateGraphicsView@Graphics@@@?$Ptr@VMessage@Messaging@@@@QBEABV?$Ptr@VCreateGraphicsView@Graphics@@@@XZ 00430f40 f i render_win32.release:graphicshandler.obj
 0001:0002ff50       ??$downcast@VDiscardGraphicsView@Graphics@@@?$Ptr@VMessage@Messaging@@@@QBEABV?$Ptr@VDiscardGraphicsView@Graphics@@@@XZ 00430f50 f i render_win32.release:graphicshandler.obj
 0001:0002ff60       ??$downcast@VSetDefaultGraphicsView@Graphics@@@?$Ptr@VMessage@Messaging@@@@QBEABV?$Ptr@VSetDefaultGraphicsView@Graphics@@@@XZ 00430f60 f i render_win32.release:graphicshandler.obj
 0001:0002ff70       ??$downcast@VUpdateSharedShaderVariable@Graphics@@@?$Ptr@VMessage@Messaging@@@@QBEABV?$Ptr@VUpdateSharedShaderVariable@Graphics@@@@XZ 00430f70 f i render_win32.release:graphicshandler.obj
 0001:0002ff80       ??$downcast@VRegisterAnimEventHandler@Graphics@@@?$Ptr@VMessage@Messaging@@@@QBEABV?$Ptr@VRegisterAnimEventHandler@Graphics@@@@XZ 00430f80 f i render_win32.release:graphicshandler.obj
 0001:0002ff90       ??$downcast@VUnregisterAnimEventHandler@Graphics@@@?$Ptr@VMessage@Messaging@@@@QBEABV?$Ptr@VUnregisterAnimEventHandler@Graphics@@@@XZ 00430f90 f i render_win32.release:graphicshandler.obj
 0001:0002ffa0       ??$downcast@VPreloadMousePointerTextures@Graphics@@@?$Ptr@VMessage@Messaging@@@@QBEABV?$Ptr@VPreloadMousePointerTextures@Graphics@@@@XZ 00430fa0 f i render_win32.release:graphicshandler.obj
 0001:0002ffb0       ??$downcast@VUpdateMousePointers@Graphics@@@?$Ptr@VMessage@Messaging@@@@QBEABV?$Ptr@VUpdateMousePointers@Graphics@@@@XZ 00430fb0 f i render_win32.release:graphicshandler.obj
 0001:0002ffc0       ??$downcast@VRegisterRTPlugin@Graphics@@@?$Ptr@VMessage@Messaging@@@@QBEABV?$Ptr@VRegisterRTPlugin@Graphics@@@@XZ 00430fc0 f i render_win32.release:graphicshandler.obj
 0001:0002ffd0       ??$downcast@VUnregisterRTPlugin@Graphics@@@?$Ptr@VMessage@Messaging@@@@QBEABV?$Ptr@VUnregisterRTPlugin@Graphics@@@@XZ 00430fd0 f i render_win32.release:graphicshandler.obj
 0001:0002ffe0       ??$downcast@VHoldSharedResources@Graphics@@@?$Ptr@VMessage@Messaging@@@@QBEABV?$Ptr@VHoldSharedResources@Graphics@@@@XZ 00430fe0 f i render_win32.release:graphicshandler.obj
 0001:0002fff0       ??$downcast@VReleaseSharedResources@Graphics@@@?$Ptr@VMessage@Messaging@@@@QBEABV?$Ptr@VReleaseSharedResources@Graphics@@@@XZ 00430ff0 f i render_win32.release:graphicshandler.obj
 0001:00030000       ??$downcast@VSetTimeFactor@Graphics@@@?$Ptr@VMessage@Messaging@@@@QBEABV?$Ptr@VSetTimeFactor@Graphics@@@@XZ 00431000 f i render_win32.release:graphicshandler.obj
 0001:00030010       ??$downcast@VSetShadowPointOfInterest@Graphics@@@?$Ptr@VMessage@Messaging@@@@QBEABV?$Ptr@VSetShadowPointOfInterest@Graphics@@@@XZ 00431010 f i render_win32.release:graphicshandler.obj
 0001:00030020       ??$downcast@VCreateVisibilityCluster@Visibility@@@?$Ptr@VMessage@Messaging@@@@QBEABV?$Ptr@VCreateVisibilityCluster@Visibility@@@@XZ 00431020 f i render_win32.release:graphicshandler.obj
 0001:00030030       ??$downcast@VCreateVisibilityBoxes@Visibility@@@?$Ptr@VMessage@Messaging@@@@QBEABV?$Ptr@VCreateVisibilityBoxes@Visibility@@@@XZ 00431030 f i render_win32.release:graphicshandler.obj
 0001:00030040       ??_E?$Ptr@VGraphicsEntity@Graphics@@@@QAEPAXI@Z 00431040 f i render_win32.release:graphicshandler.obj
 0001:000300e0       ??1?$Ptr@VGraphicsEntity@Graphics@@@@QAE@XZ 004310e0 f i render_win32.release:graphicshandler.obj
 0001:00030110       ??_E?$Ptr@VInternalView@InternalGraphics@@@@QAEPAXI@Z 00431110 f i render_win32.release:graphicshandler.obj
 0001:000301b0       ??1?$Ptr@VInternalView@InternalGraphics@@@@QAE@XZ 004311b0 f i render_win32.release:graphicshandler.obj
 0001:000301e0       ?SetInt@D3D9ShaderVariable@Direct3D9@@QAEXH@Z 004311e0 f i render_win32.release:debuggraphicshandler.obj
 0001:00030210       ?SetFloat@D3D9ShaderVariable@Direct3D9@@QAEXM@Z 00431210 f i render_win32.release:debuggraphicshandler.obj
 0001:00030240       ?Instance@ShapeRenderer@CoreGraphics@@SAPAV12@XZ 00431240 f i render_win32.release:debuggraphicshandler.obj
 0001:00030280       ?GetThreadId@RenderDebugText@Debug@@QBEABKXZ 00431280 f i render_win32.release:debuggraphicshandler.obj
 0001:000302a0       ?GetTextElements@RenderDebugText@Debug@@QBEABV?$Array@VTextElement@CoreGraphics@@@Util@@XZ 004312a0 f i render_win32.release:debuggraphicshandler.obj
 0001:000302c0       ?GetThreadId@RenderDebugShapes@Debug@@QBEABKXZ 004312c0 f i render_win32.release:debuggraphicshandler.obj
 0001:000302e0       ?GetShapes@RenderDebugShapes@Debug@@QBEABV?$Array@VRenderShape@CoreGraphics@@@Util@@XZ 004312e0 f i render_win32.release:debuggraphicshandler.obj
 0001:00030300       ?GetEnableDebugRendering@RenderDebugView@Debug@@QBE_NXZ 00431300 f i render_win32.release:debuggraphicshandler.obj
 0001:00030320       ?GetSemantic@SetFloatShaderVariable@Debug@@QBEABVStringAtom@Util@@XZ 00431320 f i render_win32.release:debuggraphicshandler.obj
 0001:00030340       ?GetValue@SetFloatShaderVariable@Debug@@QBEMXZ 00431340 f i render_win32.release:debuggraphicshandler.obj
 0001:00030360       ?GetToggle@ControlPerfHUD@Debug@@QBE_NXZ 00431360 f i render_win32.release:debuggraphicshandler.obj
 0001:00030380       ?GetEnable@ControlPerfHUD@Debug@@QBE_NXZ 00431380 f i render_win32.release:debuggraphicshandler.obj
 0001:000303a0       ??2DebugGraphicsHandler@Debug@@SAPAXI@Z 004313a0 f i render_win32.release:debuggraphicshandler.obj
 0001:000303b0       ??3DebugGraphicsHandler@Debug@@SAXPAX@Z 004313b0 f i render_win32.release:debuggraphicshandler.obj
 0001:000303d0       ?SetPerfHUDEnabled@DebugGraphicsHandler@Debug@@QAEX_N@Z 004313d0 f i render_win32.release:debuggraphicshandler.obj
 0001:000303f0       ?TogglePerfHUD@DebugGraphicsHandler@Debug@@QAEXXZ 004313f0 f i render_win32.release:debuggraphicshandler.obj
 0001:00030410       ?Instance@TextRenderer@CoreGraphics@@SAPAV12@XZ 00431410 f i render_win32.release:debuggraphicshandler.obj
 0001:00030450       ?GetSharedVariableBySemantic@ShaderServerBase@Base@@QBEABV?$Ptr@VShaderVariable@CoreGraphics@@@@ABVStringAtom@Util@@@Z 00431450 f i render_win32.release:debuggraphicshandler.obj
 0001:000304a0       ?Instance@ShaderServer@CoreGraphics@@SAPAV12@XZ 004314a0 f i render_win32.release:debuggraphicshandler.obj
 0001:000304e0       ?Instance@InternalGraphicsServer@InternalGraphics@@SAPAV12@XZ 004314e0 f i render_win32.release:debuggraphicshandler.obj
 0001:00030520       ?SetRenderDebug@InternalGraphicsServer@InternalGraphics@@QAEX_N@Z 00431520 f i render_win32.release:debuggraphicshandler.obj
 0001:00030540       ?Instance@DebugServer@Debug@@SAPAV12@XZ 00431540 f i render_win32.release:debuggraphicshandler.obj
 0001:00030570       ?GetRtti@DebugGraphicsHandler@Debug@@UBEPAVRtti@Core@@XZ 00431570 f   render_win32.release:debuggraphicshandler.obj
 0001:00030580       ?FactoryCreator@DebugGraphicsHandler@Debug@@SAPAVRefCounted@Core@@XZ 00431580 f   render_win32.release:debuggraphicshandler.obj
 0001:00030590       ?Create@DebugGraphicsHandler@Debug@@SAPAV12@XZ 00431590 f   render_win32.release:debuggraphicshandler.obj
 0001:000305d0       ?RegisterWithFactory@DebugGraphicsHandler@Debug@@SA_NXZ 004315d0 f   render_win32.release:debuggraphicshandler.obj
 0001:000306d0       ??0DebugGraphicsHandler@Debug@@QAE@XZ 004316d0 f   render_win32.release:debuggraphicshandler.obj
 0001:00030760       ??_GDebugGraphicsHandler@Debug@@UAEPAXI@Z 00431760 f i render_win32.release:debuggraphicshandler.obj
 0001:00030760       ??_EDebugGraphicsHandler@Debug@@UAEPAXI@Z 00431760 f i  CIL library: CIL module
 0001:00030790       ??1DebugGraphicsHandler@Debug@@UAE@XZ 00431790 f   render_win32.release:debuggraphicshandler.obj
 0001:00030810       ?HandleMessage@DebugGraphicsHandler@Debug@@UAE_NABV?$Ptr@VMessage@Messaging@@@@@Z 00431810 f   render_win32.release:debuggraphicshandler.obj
 0001:000309e0       ?DoWork@DebugGraphicsHandler@Debug@@UAEXXZ 004319e0 f   render_win32.release:debuggraphicshandler.obj
 0001:00030d50       ?OnRenderDebugText@DebugGraphicsHandler@Debug@@AAEXABV?$Ptr@VRenderDebugText@Debug@@@@@Z 00431d50 f   render_win32.release:debuggraphicshandler.obj
 0001:00030e00       ?OnRenderDebugShapes@DebugGraphicsHandler@Debug@@AAEXABV?$Ptr@VRenderDebugShapes@Debug@@@@@Z 00431e00 f   render_win32.release:debuggraphicshandler.obj
 0001:00030eb0       ?OnRenderDebugView@DebugGraphicsHandler@Debug@@AAEXABV?$Ptr@VRenderDebugView@Debug@@@@@Z 00431eb0 f   render_win32.release:debuggraphicshandler.obj
 0001:00030f20       ?OnIncrDebugShaderLayer@DebugGraphicsHandler@Debug@@AAEXABV?$Ptr@VIncrDebugShaderLayer@Debug@@@@@Z 00431f20 f   render_win32.release:debuggraphicshandler.obj
 0001:00031010       ?OnSetFloatShaderVariable@DebugGraphicsHandler@Debug@@AAEXABV?$Ptr@VSetFloatShaderVariable@Debug@@@@@Z 00432010 f   render_win32.release:debuggraphicshandler.obj
 0001:000310e0       ?OnControlPerfHUD@DebugGraphicsHandler@Debug@@AAEXABV?$Ptr@VControlPerfHUD@Debug@@@@@Z 004320e0 f   render_win32.release:debuggraphicshandler.obj
 0001:00031140       ??C?$Ptr@VShaderInstance@CoreGraphics@@@@QBEPAVShaderInstance@CoreGraphics@@XZ 00432140 f i render_win32.release:debuggraphicshandler.obj
 0001:00031180       ?isvalid@?$Ptr@VShaderInstance@CoreGraphics@@@@QBE_NXZ 00432180 f i render_win32.release:debuggraphicshandler.obj
 0001:000311a0       ??C?$Ptr@VShaderVariable@CoreGraphics@@@@QBEPAVShaderVariable@CoreGraphics@@XZ 004321a0 f i render_win32.release:debuggraphicshandler.obj
 0001:000311e0       ?isvalid@?$Ptr@VShaderVariable@CoreGraphics@@@@QBE_NXZ 004321e0 f i render_win32.release:debuggraphicshandler.obj
 0001:00031200       ??0?$Ptr@VDebugCounter@Debug@@@@QAE@XZ 00432200 f i render_win32.release:debuggraphicshandler.obj
 0001:00031220       ??1?$Ptr@VDebugCounter@Debug@@@@QAE@XZ 00432220 f i render_win32.release:debuggraphicshandler.obj
 0001:00031250       ??4?$Ptr@VDebugCounter@Debug@@@@QAEXABV0@@Z 00432250 f i render_win32.release:debuggraphicshandler.obj
 0001:000312b0       ??C?$Ptr@VDebugCounter@Debug@@@@QBEPAVDebugCounter@Debug@@XZ 004322b0 f i render_win32.release:debuggraphicshandler.obj
 0001:000312f0       ?isvalid@?$Ptr@VDebugCounter@Debug@@@@QBE_NXZ 004322f0 f i render_win32.release:debuggraphicshandler.obj
 0001:00031310       ??4?$Ptr@VDebugTimer@Debug@@@@QAEXABV0@@Z 00432310 f i render_win32.release:debuggraphicshandler.obj
 0001:00031370       ?isvalid@?$Ptr@VDebugTimer@Debug@@@@QBE_NXZ 00432370 f i render_win32.release:debuggraphicshandler.obj
 0001:00031390       ??$cast@VRenderDebugText@Debug@@@?$Ptr@VMessage@Messaging@@@@QBEABV?$Ptr@VRenderDebugText@Debug@@@@XZ 00432390 f i render_win32.release:debuggraphicshandler.obj
 0001:000313a0       ??$cast@VRenderDebugShapes@Debug@@@?$Ptr@VMessage@Messaging@@@@QBEABV?$Ptr@VRenderDebugShapes@Debug@@@@XZ 004323a0 f i render_win32.release:debuggraphicshandler.obj
 0001:000313b0       ??$cast@VRenderDebugView@Debug@@@?$Ptr@VMessage@Messaging@@@@QBEABV?$Ptr@VRenderDebugView@Debug@@@@XZ 004323b0 f i render_win32.release:debuggraphicshandler.obj
 0001:000313c0       ??$cast@VIncrDebugShaderLayer@Debug@@@?$Ptr@VMessage@Messaging@@@@QBEABV?$Ptr@VIncrDebugShaderLayer@Debug@@@@XZ 004323c0 f i render_win32.release:debuggraphicshandler.obj
 0001:000313d0       ??$cast@VSetFloatShaderVariable@Debug@@@?$Ptr@VMessage@Messaging@@@@QBEABV?$Ptr@VSetFloatShaderVariable@Debug@@@@XZ 004323d0 f i render_win32.release:debuggraphicshandler.obj
 0001:000313e0       ??$cast@VControlPerfHUD@Debug@@@?$Ptr@VMessage@Messaging@@@@QBEABV?$Ptr@VControlPerfHUD@Debug@@@@XZ 004323e0 f i render_win32.release:debuggraphicshandler.obj
 0001:000313f0       ??C?$Ptr@VRenderDebugText@Debug@@@@QBEPAVRenderDebugText@Debug@@XZ 004323f0 f i render_win32.release:debuggraphicshandler.obj
 0001:00031430       ??C?$Ptr@VRenderDebugShapes@Debug@@@@QBEPAVRenderDebugShapes@Debug@@XZ 00432430 f i render_win32.release:debuggraphicshandler.obj
 0001:00031470       ??C?$Ptr@VRenderDebugView@Debug@@@@QBEPAVRenderDebugView@Debug@@XZ 00432470 f i render_win32.release:debuggraphicshandler.obj
 0001:000314b0       ??C?$Ptr@VSetFloatShaderVariable@Debug@@@@QBEPAVSetFloatShaderVariable@Debug@@XZ 004324b0 f i render_win32.release:debuggraphicshandler.obj
 0001:000314f0       ??C?$Ptr@VControlPerfHUD@Debug@@@@QBEPAVControlPerfHUD@Debug@@XZ 004324f0 f i render_win32.release:debuggraphicshandler.obj
 0001:00031530       ?n_tan@Math@@YAMM@Z        00432530 f i render_win32.release:camerasettings.obj
 0001:00031550       ?n_deg2rad@Math@@YAMM@Z    00432550 f i render_win32.release:camerasettings.obj
 0001:00031570       ??0float4@Math@@QAE@T__m128@@@Z 00432570 f i render_win32.release:camerasettings.obj
 0001:000315a0       ??Xfloat4@Math@@QAEXM@Z    004325a0 f i render_win32.release:camerasettings.obj
 0001:00031600       ?set@float4@Math@@QAEXMMMM@Z 00432600 f i render_win32.release:camerasettings.obj
 0001:00031650       ?x@float4@Math@@QBEMXZ     00432650 f i render_win32.release:camerasettings.obj
 0001:00031680       ?y@float4@Math@@QBEMXZ     00432680 f i render_win32.release:camerasettings.obj
 0001:000316d0       ?w@float4@Math@@QAEAAMXZ   004326d0 f i render_win32.release:camerasettings.obj
 0001:000316f0       ?set_w@float4@Math@@QAEXM@Z 004326f0 f i render_win32.release:camerasettings.obj
 0001:000317a0       ?unpack_x@float4@Math@@SAMT__m128@@@Z 004327a0 f i render_win32.release:camerasettings.obj
 0001:000317d0       ?unpack_y@float4@Math@@SAMT__m128@@@Z 004327d0 f i render_win32.release:camerasettings.obj
 0001:00031810       ??0point@Math@@QAE@ABVfloat4@1@@Z 00432810 f i render_win32.release:camerasettings.obj
 0001:00031900       ?set@point@Math@@QAEXMMM@Z 00432900 f i render_win32.release:camerasettings.obj
 0001:00031960       ??0plane@Math@@QAE@XZ      00432960 f i render_win32.release:camerasettings.obj
 0001:00031970       ?setup_from_points@plane@Math@@QAEXABVfloat4@2@00@Z 00432970 f i render_win32.release:camerasettings.obj
 0001:00032030       ??0matrix44@Math@@QAE@ABU_XMMATRIX@@@Z 00433030 f i render_win32.release:camerasettings.obj
 0001:00032060       ??4matrix44@Math@@QAEXABV01@@Z 00433060 f i render_win32.release:camerasettings.obj
 0001:000320b0       ?getrow0@matrix44@Math@@QBEABVfloat4@2@XZ 004330b0 f i render_win32.release:camerasettings.obj
 0001:000320c0       ?getrow1@matrix44@Math@@QBEABVfloat4@2@XZ 004330c0 f i render_win32.release:camerasettings.obj
 0001:000320e0       ?identity@matrix44@Math@@SA?AV12@XZ 004330e0 f i render_win32.release:camerasettings.obj
 0001:00032190       ?inverse@matrix44@Math@@SA?AV12@ABV12@@Z 00433190 f i render_win32.release:camerasettings.obj
 0001:000321d0       ?multiply@matrix44@Math@@SA?AV12@ABV12@0@Z 004331d0 f i render_win32.release:camerasettings.obj
 0001:000329d0       ?orthorh@matrix44@Math@@SA?AV12@MMMM@Z 004339d0 f i render_win32.release:camerasettings.obj
 0001:00032be0       ?perspfovrh@matrix44@Math@@SA?AV12@MMMM@Z 00433be0 f i render_win32.release:camerasettings.obj
 0001:00032e50       ?transform@matrix44@Math@@SA?AVfloat4@2@ABV32@ABV12@@Z 00433e50 f i render_win32.release:camerasettings.obj
 0001:00033040       ??0frustum@Math@@QAE@XZ    00434040 f i render_win32.release:camerasettings.obj
 0001:00033080       ?set@frustum@Math@@QAEXABVmatrix44@2@@Z 00434080 f i render_win32.release:camerasettings.obj
 0001:00033bd0       ?GetViewProjTransform@CameraSettings@Shared@@QBEABVmatrix44@Math@@XZ 00434bd0 f i render_win32.release:camerasettings.obj
 0001:00033c00       ??0CameraSettings@Shared@@QAE@XZ 00434c00 f   render_win32.release:camerasettings.obj
 0001:00033f50       ?SetupPerspectiveFov@CameraSettings@Shared@@QAEXMMMM@Z 00434f50 f   render_win32.release:camerasettings.obj
 0001:000344e0       ?SetupOrthogonal@CameraSettings@Shared@@QAEXMMMM@Z 004354e0 f   render_win32.release:camerasettings.obj
 0001:000348c0       ?UpdateViewProjMatrix@CameraSettings@Shared@@ABEXXZ 004358c0 f   render_win32.release:camerasettings.obj
 0001:000351c0       ?UpdateViewFrustum@CameraSettings@Shared@@ABEXXZ 004361c0 f   render_win32.release:camerasettings.obj
 0001:00035260       ?XMVector4Transform@@YA?AT__m128@@T1@ABU_XMMATRIX@@@Z 00436260 f i render_win32.release:camerasettings.obj
 0001:00035420       ?XMMatrixPerspectiveFovRH@@YA?AU_XMMATRIX@@MMMM@Z 00436420 f i render_win32.release:camerasettings.obj
 0001:00035670       ?XMScalarSinCos@@YAXPAM0M@Z 00436670 f i render_win32.release:camerasettings.obj
 0001:000356a0       ?XMMatrixOrthographicRH@@YA?AU_XMMATRIX@@MMMM@Z 004366a0 f i render_win32.release:camerasettings.obj
 0001:00035880       ?XMMatrixMultiply@@YA?AU_XMMATRIX@@ABU1@0@Z 00436880 f i render_win32.release:camerasettings.obj
 0001:00036060       ?XMMatrixTranspose@@YA?AU_XMMATRIX@@ABU1@@Z 00437060 f i render_win32.release:camerasettings.obj
 0001:000361c0       ?XMMatrixInverse@@YA?AU_XMMATRIX@@PAT__m128@@ABU1@@Z 004371c0 f i render_win32.release:camerasettings.obj
 0001:000373e0       ??4_XMMATRIX@@QAEAAU0@ABU0@@Z 004383e0 f i render_win32.release:camerasettings.obj
 0001:00037440       ?XMVector3Normalize@@YA?AT__m128@@T1@@Z 00438440 f i render_win32.release:camerasettings.obj
 0001:000376c0       ?XMPlaneDotNormal@@YA?AT__m128@@T1@0@Z 004386c0 f i render_win32.release:camerasettings.obj
 0001:000377a0       ?XMPlaneFromPoints@@YA?AT__m128@@T1@00@Z 004387a0 f i render_win32.release:camerasettings.obj
 0001:00037e20       ?XMVectorGetYPtr@@YAXPAMT__m128@@@Z 00438e20 f i render_win32.release:camerasettings.obj
 0001:00037e60       ?XMVectorGetXPtr@@YAXPAMT__m128@@@Z 00438e60 f i render_win32.release:camerasettings.obj
 0001:00037e80       ?XMVector3Dot@@YA?AT__m128@@T1@0@Z 00438e80 f i render_win32.release:camerasettings.obj
 0001:00037f50       ??BXMVECTORI32@@QBE?AT__m128@@XZ 00438f50 f i render_win32.release:camerasettings.obj
 0001:00037f80       ?XMVector3Cross@@YA?AT__m128@@T1@0@Z 00438f80 f i render_win32.release:camerasettings.obj
 0001:000380d0       ?XMVector4Dot@@YA?AT__m128@@T1@0@Z 004390d0 f i render_win32.release:camerasettings.obj
 0001:000381b0       ?XMVectorSetWPtr@@YA?AT__m128@@T1@PBM@Z 004391b0 f i render_win32.release:camerasettings.obj
 0001:00038240       ?XMVectorScale@@YA?AT__m128@@T1@M@Z 00439240 f i render_win32.release:camerasettings.obj
 0001:00038280       _tanf                      00439280 f i render_win32.release:camerasettings.obj
 0001:000382a0       _cosf                      004392a0 f i render_win32.release:camerasettings.obj
 0001:000382c0       _sinf                      004392c0 f i render_win32.release:camerasettings.obj
 0001:000382e0       ?x@float4@Math@@QAEAAMXZ   004392e0 f i render_win32.release:internalgraphicsentity.obj
 0001:000382f0       ?y@float4@Math@@QAEAAMXZ   004392f0 f i render_win32.release:internalgraphicsentity.obj
 0001:00038310       ?z@float4@Math@@QAEAAMXZ   00439310 f i render_win32.release:internalgraphicsentity.obj
 0001:00038330       ??0point@Math@@QAE@MMM@Z   00439330 f i render_win32.release:internalgraphicsentity.obj
 0001:00038390       ??4point@Math@@QAEXABV01@@Z 00439390 f i render_win32.release:internalgraphicsentity.obj
 0001:000383b0       ??0bbox@Math@@QAE@XZ       004393b0 f i render_win32.release:internalgraphicsentity.obj
 0001:000384c0       ?transform@bbox@Math@@QAEXABVmatrix44@2@@Z 004394c0 f i render_win32.release:internalgraphicsentity.obj
 0001:00038af0       ?SetDeferred@Message@Messaging@@QAEX_N@Z 00439af0 f i render_win32.release:internalgraphicsentity.obj
 0001:00038b10       ?IsDeferred@Message@Messaging@@QBE_NXZ 00439b10 f i render_win32.release:internalgraphicsentity.obj
 0001:00038b30       ?SetDeferredHandled@Message@Messaging@@QAEX_N@Z 00439b30 f i render_win32.release:internalgraphicsentity.obj
 0001:00038b50       ?GetFrameCount@FrameSyncHandlerThread@FrameSync@@QBEHXZ 00439b50 f i render_win32.release:internalgraphicsentity.obj
 0001:00038b70       ??0GraphicsEntityShared@Shared@@QAE@XZ 00439b70 f i render_win32.release:internalgraphicsentity.obj
 0001:00038bd0       ??2InternalGraphicsEntity@InternalGraphics@@SAPAXI@Z 00439bd0 f i render_win32.release:internalgraphicsentity.obj
 0001:00038be0       ??3InternalGraphicsEntity@InternalGraphics@@SAXPAX@Z 00439be0 f i render_win32.release:internalgraphicsentity.obj
 0001:00038c00       ?IsActive@InternalGraphicsEntity@InternalGraphics@@QBE_NXZ 00439c00 f i render_win32.release:internalgraphicsentity.obj
 0001:00038c20       ?IsValid@InternalGraphicsEntity@InternalGraphics@@QBE_NXZ 00439c20 f i render_win32.release:internalgraphicsentity.obj
 0001:00038c40       ??4bbox@Math@@QAEAAV01@ABV01@@Z 00439c40 f i render_win32.release:internalgraphicsentity.obj
 0001:00038c80       ?GetGlobalBoundingBox@InternalGraphicsEntity@InternalGraphics@@QAEABVbbox@Math@@XZ 00439c80 f i render_win32.release:internalgraphicsentity.obj
 0001:00038cb0       ?UpdateClipStatus@InternalGraphicsEntity@InternalGraphics@@IAEXW4Type@ClipStatus@Math@@@Z 00439cb0 f i render_win32.release:internalgraphicsentity.obj
 0001:00038cf0       ?UpdateTime@InternalGraphicsEntity@InternalGraphics@@IAEXNN@Z 00439cf0 f i render_win32.release:internalgraphicsentity.obj
 0001:00038d50       ?GetRtti@InternalGraphicsEntity@InternalGraphics@@UBEPAVRtti@Core@@XZ 00439d50 f   render_win32.release:internalgraphicsentity.obj
 0001:00038d60       ?FactoryCreator@InternalGraphicsEntity@InternalGraphics@@SAPAVRefCounted@Core@@XZ 00439d60 f   render_win32.release:internalgraphicsentity.obj
 0001:00038d70       ?Create@InternalGraphicsEntity@InternalGraphics@@SAPAV12@XZ 00439d70 f   render_win32.release:internalgraphicsentity.obj
 0001:00038db0       ?RegisterWithFactory@InternalGraphicsEntity@InternalGraphics@@SA_NXZ 00439db0 f   render_win32.release:internalgraphicsentity.obj
 0001:00038eb0       ??0InternalGraphicsEntity@InternalGraphics@@QAE@XZ 00439eb0 f   render_win32.release:internalgraphicsentity.obj
 0001:000390e0       ??_EInternalGraphicsEntity@InternalGraphics@@UAEPAXI@Z 0043a0e0 f i  CIL library: CIL module
 0001:000390e0       ??_GInternalGraphicsEntity@InternalGraphics@@UAEPAXI@Z 0043a0e0 f i render_win32.release:internalgraphicsentity.obj
 0001:00039110       ??1InternalGraphicsEntity@InternalGraphics@@UAE@XZ 0043a110 f   render_win32.release:internalgraphicsentity.obj
 0001:00039190       ?OnActivate@InternalGraphicsEntity@InternalGraphics@@MAEXXZ 0043a190 f   render_win32.release:internalgraphicsentity.obj
 0001:00039250       ?OnDeactivate@InternalGraphicsEntity@InternalGraphics@@MAEXXZ 0043a250 f   render_win32.release:internalgraphicsentity.obj
 0001:000393d0       ?OnSetupSharedData@InternalGraphicsEntity@InternalGraphics@@MAEXXZ 0043a3d0 f   render_win32.release:internalgraphicsentity.obj
 0001:00039430       ?OnDiscardSharedData@InternalGraphicsEntity@InternalGraphics@@MAEXXZ 0043a430 f   render_win32.release:internalgraphicsentity.obj
 0001:00039490       ?OnResetSharedData@InternalGraphicsEntity@InternalGraphics@@MAEXXZ 0043a490 f   render_win32.release:internalgraphicsentity.obj
 0001:00039550       ?OnAttachToStage@InternalGraphicsEntity@InternalGraphics@@MAEXABV?$Ptr@VInternalStage@InternalGraphics@@@@@Z 0043a550 f   render_win32.release:internalgraphicsentity.obj
 0001:00039620       ?OnRemoveFromStage@InternalGraphicsEntity@InternalGraphics@@MAEXXZ 0043a620 f   render_win32.release:internalgraphicsentity.obj
 0001:000396d0       ?OnShow@InternalGraphicsEntity@InternalGraphics@@MAEXXZ 0043a6d0 f   render_win32.release:internalgraphicsentity.obj
 0001:000396e0       ?OnHide@InternalGraphicsEntity@InternalGraphics@@MAEXXZ 0043a6e0 f   render_win32.release:internalgraphicsentity.obj
 0001:000396f0       ?OnCullBefore@InternalGraphicsEntity@InternalGraphics@@MAEXNNH@Z 0043a6f0 f   render_win32.release:internalgraphicsentity.obj
 0001:000397a0       ?OnNotifyCullingVisible@InternalGraphicsEntity@InternalGraphics@@MAEXABV?$Ptr@VInternalGraphicsEntity@InternalGraphics@@@@H@Z 0043a7a0 f   render_win32.release:internalgraphicsentity.obj
 0001:000397f0       ?OnRenderBefore@InternalGraphicsEntity@InternalGraphics@@MAEXH@Z 0043a7f0 f   render_win32.release:internalgraphicsentity.obj
 0001:00039800       ?SetTransform@InternalGraphicsEntity@InternalGraphics@@QAEXABVmatrix44@Math@@@Z 0043a800 f   render_win32.release:internalgraphicsentity.obj
 0001:00039880       ?OnResolveVisibility@InternalGraphicsEntity@InternalGraphics@@MAEXXZ 0043a880 f   render_win32.release:internalgraphicsentity.obj
 0001:00039890       ?OnTransformChanged@InternalGraphicsEntity@InternalGraphics@@MAEXXZ 0043a890 f   render_win32.release:internalgraphicsentity.obj
 0001:000398a0       ?OnRenderDebug@InternalGraphicsEntity@InternalGraphics@@MAEXXZ 0043a8a0 f   render_win32.release:internalgraphicsentity.obj
 0001:000398b0       ?ClearLinks@InternalGraphicsEntity@InternalGraphics@@QAEXW4LinkType@12@@Z 0043a8b0 f   render_win32.release:internalgraphicsentity.obj
 0001:000398e0       ?UpdateGlobalBoundingBox@InternalGraphicsEntity@InternalGraphics@@IAEXXZ 0043a8e0 f   render_win32.release:internalgraphicsentity.obj
 0001:00039970       ?GetStage@InternalGraphicsEntity@InternalGraphics@@QBEABV?$Ptr@VInternalStage@InternalGraphics@@@@XZ 0043a970 f   render_win32.release:internalgraphicsentity.obj
 0001:00039990       ?IsAttachedToStage@InternalGraphicsEntity@InternalGraphics@@QBE_NXZ 0043a990 f   render_win32.release:internalgraphicsentity.obj
 0001:000399b0       ?ComputeClipStatus@InternalGraphicsEntity@InternalGraphics@@UAE?AW4Type@ClipStatus@Math@@ABVbbox@5@@Z 0043a9b0 f   render_win32.release:internalgraphicsentity.obj
 0001:000399d0       ?SetVisible@InternalGraphicsEntity@InternalGraphics@@QAEX_N@Z 0043a9d0 f   render_win32.release:internalgraphicsentity.obj
 0001:00039a30       ?AddDeferredMessage@InternalGraphicsEntity@InternalGraphics@@QAEXABV?$Ptr@VMessage@Messaging@@@@@Z 0043aa30 f   render_win32.release:internalgraphicsentity.obj
 0001:00039ad0       ?HandleDeferredMessages@InternalGraphicsEntity@InternalGraphics@@IAEXXZ 0043aad0 f   render_win32.release:internalgraphicsentity.obj
 0001:00039b80       ?HandleMessage@InternalGraphicsEntity@InternalGraphics@@UAEXABV?$Ptr@VMessage@Messaging@@@@@Z 0043ab80 f   render_win32.release:internalgraphicsentity.obj
 0001:00039bc0       ??0?$Array@V?$Ptr@VMessage@Messaging@@@@@Util@@QAE@XZ 0043abc0 f i render_win32.release:internalgraphicsentity.obj
 0001:00039c00       ??1?$Array@V?$Ptr@VMessage@Messaging@@@@@Util@@QAE@XZ 0043ac00 f i render_win32.release:internalgraphicsentity.obj
 0001:00039c20       ??A?$Array@V?$Ptr@VMessage@Messaging@@@@@Util@@QBEAAV?$Ptr@VMessage@Messaging@@@@H@Z 0043ac20 f i render_win32.release:internalgraphicsentity.obj
 0001:00039c70       ?Append@?$Array@V?$Ptr@VMessage@Messaging@@@@@Util@@QAEXABV?$Ptr@VMessage@Messaging@@@@@Z 0043ac70 f i render_win32.release:internalgraphicsentity.obj
 0001:00039cf0       ?IsEmpty@?$Array@V?$Ptr@VMessage@Messaging@@@@@Util@@QBE_NXZ 0043acf0 f i render_win32.release:internalgraphicsentity.obj
 0001:00039d10       ?Clear@?$Array@V?$Ptr@VMessage@Messaging@@@@@Util@@QAEXXZ 0043ad10 f i render_win32.release:internalgraphicsentity.obj
 0001:00039d60       ??0?$Ptr@VInternalStage@InternalGraphics@@@@QAE@XZ 0043ad60 f i render_win32.release:internalgraphicsentity.obj
 0001:00039d80       ??1?$Ptr@VInternalStage@InternalGraphics@@@@QAE@XZ 0043ad80 f i render_win32.release:internalgraphicsentity.obj
 0001:00039db0       ??4?$Ptr@VInternalStage@InternalGraphics@@@@QAEXPAVInternalStage@InternalGraphics@@@Z 0043adb0 f i render_win32.release:internalgraphicsentity.obj
 0001:00039e10       ??4?$Ptr@VInternalStage@InternalGraphics@@@@QAEXABV0@@Z 0043ae10 f i render_win32.release:internalgraphicsentity.obj
 0001:00039e70       ??C?$Ptr@VInternalStage@InternalGraphics@@@@QBEPAVInternalStage@InternalGraphics@@XZ 0043ae70 f i render_win32.release:internalgraphicsentity.obj
 0001:00039eb0       ?isvalid@?$Ptr@VInternalStage@InternalGraphics@@@@QBE_NXZ 0043aeb0 f i render_win32.release:internalgraphicsentity.obj
 0001:00039ed0       ??0?$FixedArray@V?$Array@V?$Ptr@VInternalGraphicsEntity@InternalGraphics@@@@@Util@@@Util@@QAE@H@Z 0043aed0 f i render_win32.release:internalgraphicsentity.obj
 0001:00039f00       ??1?$FixedArray@V?$Array@V?$Ptr@VInternalGraphicsEntity@InternalGraphics@@@@@Util@@@Util@@QAE@XZ 0043af00 f i render_win32.release:internalgraphicsentity.obj
 0001:00039f20       ??A?$FixedArray@V?$Array@V?$Ptr@VInternalGraphicsEntity@InternalGraphics@@@@@Util@@@Util@@QBEAAV?$Array@V?$Ptr@VInternalGraphicsEntity@InternalGraphics@@@@@1@H@Z 0043af20 f i render_win32.release:internalgraphicsentity.obj
 0001:00039f70       ??4?$Ptr@VFrameSyncSharedData@FrameSync@@@@QAEXPAVFrameSyncSharedData@FrameSync@@@Z 0043af70 f i render_win32.release:internalgraphicsentity.obj
 0001:00039fd0       ??C?$Ptr@VFrameSyncSharedData@FrameSync@@@@QBEPAVFrameSyncSharedData@FrameSync@@XZ 0043afd0 f i render_win32.release:internalgraphicsentity.obj
 0001:0003a010       ?isvalid@?$Ptr@VFrameSyncSharedData@FrameSync@@@@QBE_NXZ 0043b010 f i render_win32.release:internalgraphicsentity.obj
 0001:0003a030       ?IsEmpty@?$Array@V?$Ptr@VInternalGraphicsEntity@InternalGraphics@@@@@Util@@QBE_NXZ 0043b030 f i render_win32.release:internalgraphicsentity.obj
 0001:0003a050       ?Clear@?$Array@V?$Ptr@VInternalGraphicsEntity@InternalGraphics@@@@@Util@@QAEXXZ 0043b050 f i render_win32.release:internalgraphicsentity.obj
 0001:0003a0a0       ??$Client@VGraphicsEntityShared@Shared@@@FrameSyncSharedData@FrameSync@@QAEAAVGraphicsEntityShared@Shared@@XZ 0043b0a0 f i render_win32.release:internalgraphicsentity.obj
 0001:0003a110       ??$ClientSetup@VGraphicsEntityShared@Shared@@@FrameSyncSharedData@FrameSync@@QAEXPAVGraphicsEntityShared@Shared@@@Z 0043b110 f i render_win32.release:internalgraphicsentity.obj
 0001:0003a1d0       ??$ClientDiscard@VGraphicsEntityShared@Shared@@@FrameSyncSharedData@FrameSync@@QAEXPAVGraphicsEntityShared@Shared@@@Z 0043b1d0 f i render_win32.release:internalgraphicsentity.obj
 0001:0003a230       ?Destroy@?$Array@V?$Ptr@VMessage@Messaging@@@@@Util@@AAEXPAV?$Ptr@VMessage@Messaging@@@@@Z 0043b230 f i render_win32.release:internalgraphicsentity.obj
 0001:0003a260       ?Delete@?$Array@V?$Ptr@VMessage@Messaging@@@@@Util@@AAEXXZ 0043b260 f i render_win32.release:internalgraphicsentity.obj
 0001:0003a2d0       ?Grow@?$Array@V?$Ptr@VMessage@Messaging@@@@@Util@@AAEXXZ 0043b2d0 f i render_win32.release:internalgraphicsentity.obj
 0001:0003a350       ??4?$Ptr@VMessage@Messaging@@@@QAEXABV0@@Z 0043b350 f i render_win32.release:internalgraphicsentity.obj
 0001:0003a3b0       ?Delete@?$FixedArray@V?$Array@V?$Ptr@VInternalGraphicsEntity@InternalGraphics@@@@@Util@@@Util@@AAEXXZ 0043b3b0 f i render_win32.release:internalgraphicsentity.obj
 0001:0003a410       ?Alloc@?$FixedArray@V?$Array@V?$Ptr@VInternalGraphicsEntity@InternalGraphics@@@@@Util@@@Util@@AAEXH@Z 0043b410 f i render_win32.release:internalgraphicsentity.obj
 0001:0003a4e0       ?Destroy@?$Array@V?$Ptr@VInternalGraphicsEntity@InternalGraphics@@@@@Util@@AAEXPAV?$Ptr@VInternalGraphicsEntity@InternalGraphics@@@@@Z 0043b4e0 f i render_win32.release:internalgraphicsentity.obj
 0001:0003a510       ??$CreateDataObjects@VGraphicsEntityShared@Shared@@@FrameSyncSharedData@FrameSync@@AAEXPAVGraphicsEntityShared@Shared@@@Z 0043b510 f i render_win32.release:internalgraphicsentity.obj
 0001:0003a600       ??$DestroyDataObjects@VGraphicsEntityShared@Shared@@@FrameSyncSharedData@FrameSync@@AAEXPAVGraphicsEntityShared@Shared@@@Z 0043b600 f i render_win32.release:internalgraphicsentity.obj
 0001:0003a6c0       ??_G?$Ptr@VMessage@Messaging@@@@QAEPAXI@Z 0043b6c0 f i render_win32.release:internalgraphicsentity.obj
 0001:0003a6f0       ??_E?$Ptr@VMessage@Messaging@@@@QAEPAXI@Z 0043b6f0 f i render_win32.release:internalgraphicsentity.obj
 0001:0003a790       ??_E?$Array@V?$Ptr@VInternalGraphicsEntity@InternalGraphics@@@@@Util@@QAEPAXI@Z 0043b790 f i render_win32.release:internalgraphicsentity.obj
 0001:0003a830       ??_G?$Ptr@VInternalGraphicsEntity@InternalGraphics@@@@QAEPAXI@Z 0043b830 f i render_win32.release:internalgraphicsentity.obj
 0001:0003a860       ?GrowTo@?$Array@V?$Ptr@VMessage@Messaging@@@@@Util@@AAEXH@Z 0043b860 f i render_win32.release:internalgraphicsentity.obj
 0001:0003a980       ??1?$Ptr@VMessage@Messaging@@@@QAE@XZ 0043b980 f i render_win32.release:internalgraphicsentity.obj
 0001:0003a9b0       ??0?$Array@V?$Ptr@VInternalGraphicsEntity@InternalGraphics@@@@@Util@@QAE@XZ 0043b9b0 f i render_win32.release:internalgraphicsentity.obj
 0001:0003a9f0       ??1?$Array@V?$Ptr@VInternalGraphicsEntity@InternalGraphics@@@@@Util@@QAE@XZ 0043b9f0 f i render_win32.release:internalgraphicsentity.obj
 0001:0003aa10       ??0?$Ptr@VMessage@Messaging@@@@QAE@XZ 0043ba10 f i render_win32.release:internalgraphicsentity.obj
 0001:0003aa30       ?Delete@?$Array@V?$Ptr@VInternalGraphicsEntity@InternalGraphics@@@@@Util@@AAEXXZ 0043ba30 f i render_win32.release:internalgraphicsentity.obj
 0001:0003aaa0       ??8Rtti@Core@@QBE_NABV01@@Z 0043baa0 f i render_win32.release:resourcemanager.obj
 0001:0003aac0       ?IsInstanceOf@RefCounted@Core@@QBE_NABVRtti@2@@Z 0043bac0 f i render_win32.release:resourcemanager.obj
 0001:0003aaf0       ??0StringAtom@Util@@QAE@ABV01@@Z 0043baf0 f i render_win32.release:resourcemanager.obj
 0001:0003ab10       ??0StringAtom@Util@@QAE@ABVString@1@@Z 0043bb10 f i render_win32.release:resourcemanager.obj
 0001:0003ab50       ??8StringAtom@Util@@QBE_NABV01@@Z 0043bb50 f i render_win32.release:resourcemanager.obj
 0001:0003ab70       ??9StringAtom@Util@@QBE_NABV01@@Z 0043bb70 f i render_win32.release:resourcemanager.obj
 0001:0003ab90       ??OStringAtom@Util@@QBE_NABV01@@Z 0043bb90 f i render_win32.release:resourcemanager.obj
 0001:0003abb0       ??MStringAtom@Util@@QBE_NABV01@@Z 0043bbb0 f i render_win32.release:resourcemanager.obj
 0001:0003abd0       ?IsValid@StringAtom@Util@@QBE_NXZ 0043bbd0 f i render_win32.release:resourcemanager.obj
 0001:0003ac10       ?AsString@StringAtom@Util@@QBE?AVString@2@XZ 0043bc10 f i render_win32.release:resourcemanager.obj
 0001:0003ac60       ?Sleep@Timing@@YAXN@Z      0043bc60 f i render_win32.release:resourcemanager.obj
 0001:0003ac80       ?IncrUseCount@Resource@Resources@@IAEXXZ 0043bc80 f i render_win32.release:resourcemanager.obj
 0001:0003aca0       ?DecrUseCount@Resource@Resources@@IAEXXZ 0043bca0 f i render_win32.release:resourcemanager.obj
 0001:0003ace0       ?GetUseCount@Resource@Resources@@QBEHXZ 0043bce0 f i render_win32.release:resourcemanager.obj
 0001:0003ad00       ?SetResourceId@Resource@Resources@@QAEXABVStringAtom@Util@@@Z 0043bd00 f i render_win32.release:resourcemanager.obj
 0001:0003ad20       ?GetResourceId@Resource@Resources@@QBEABVStringAtom@Util@@XZ 0043bd20 f i render_win32.release:resourcemanager.obj
 0001:0003ad40       ??2ResourceManager@Resources@@SAPAXI@Z 0043bd40 f i render_win32.release:resourcemanager.obj
 0001:0003ad50       ??3ResourceManager@Resources@@SAXPAX@Z 0043bd50 f i render_win32.release:resourcemanager.obj
 0001:0003ad70       ?GetResourceId@ManagedResource@Resources@@QBEABVStringAtom@Util@@XZ 0043bd70 f i render_win32.release:resourcemanager.obj
 0001:0003ad90       ?GetResourceType@ManagedResource@Resources@@QBEPBVRtti@Core@@XZ 0043bd90 f i render_win32.release:resourcemanager.obj
 0001:0003add0       ?IncrClientCount@ManagedResource@Resources@@QAEXXZ 0043bdd0 f i render_win32.release:resourcemanager.obj
 0001:0003adf0       ?GetClientCount@ManagedResource@Resources@@QBEHXZ 0043bdf0 f i render_win32.release:resourcemanager.obj
 0001:0003ae10       ?GetResource@ManagedResource@Resources@@QBEABV?$Ptr@VResource@Resources@@@@XZ 0043be10 f i render_win32.release:resourcemanager.obj
 0001:0003ae30       ?SetAutoManaged@ManagedResource@Resources@@QAEX_N@Z 0043be30 f i render_win32.release:resourcemanager.obj
 0001:0003ae50       ?GetRtti@ResourceManager@Resources@@UBEPAVRtti@Core@@XZ 0043be50 f   render_win32.release:resourcemanager.obj
 0001:0003ae60       ?FactoryCreator@ResourceManager@Resources@@SAPAVRefCounted@Core@@XZ 0043be60 f   render_win32.release:resourcemanager.obj
 0001:0003ae70       ?Create@ResourceManager@Resources@@SAPAV12@XZ 0043be70 f   render_win32.release:resourcemanager.obj
 0001:0003aeb0       ?RegisterWithFactory@ResourceManager@Resources@@SA_NXZ 0043beb0 f   render_win32.release:resourcemanager.obj
 0001:0003afb0       ??0ResourceManager@Resources@@QAE@XZ 0043bfb0 f   render_win32.release:resourcemanager.obj
 0001:0003b060       ??_EResourceManager@Resources@@UAEPAXI@Z 0043c060 f i  CIL library: CIL module
 0001:0003b060       ??_GResourceManager@Resources@@UAEPAXI@Z 0043c060 f i render_win32.release:resourcemanager.obj
 0001:0003b090       ??1?$Dictionary@PBVRtti@Core@@V?$Ptr@VResourceMapper@Resources@@@@@Util@@QAE@XZ 0043c090 f i render_win32.release:resourcemanager.obj
 0001:0003b0b0       ??1?$Dictionary@VStringAtom@Util@@V?$Ptr@VManagedResource@Resources@@@@@Util@@QAE@XZ 0043c0b0 f i render_win32.release:resourcemanager.obj
 0001:0003b0d0       ??1?$Dictionary@VStringAtom@Util@@V?$Ptr@VResource@Resources@@@@@Util@@QAE@XZ 0043c0d0 f i render_win32.release:resourcemanager.obj
 0001:0003b0f0       ??1ResourceManager@Resources@@UAE@XZ 0043c0f0 f   render_win32.release:resourcemanager.obj
 0001:0003b190       ?Open@ResourceManager@Resources@@QAEXXZ 0043c190 f   render_win32.release:resourcemanager.obj
 0001:0003b1d0       ?Close@ResourceManager@Resources@@QAEXXZ 0043c1d0 f   render_win32.release:resourcemanager.obj
 0001:0003b390       ?AttachMapper@ResourceManager@Resources@@QAEXABV?$Ptr@VResourceMapper@Resources@@@@@Z 0043c390 f   render_win32.release:resourcemanager.obj
 0001:0003b480       ?RemoveMapper@ResourceManager@Resources@@QAEXABVRtti@Core@@@Z 0043c480 f   render_win32.release:resourcemanager.obj
 0001:0003b520       ?RemoveAllMappers@ResourceManager@Resources@@QAEXXZ 0043c520 f   render_win32.release:resourcemanager.obj
 0001:0003b5a0       ?HasMapper@ResourceManager@Resources@@QBE_NABVRtti@Core@@@Z 0043c5a0 f   render_win32.release:resourcemanager.obj
 0001:0003b5f0       ?GetMapperByResourceType@ResourceManager@Resources@@QBEABV?$Ptr@VResourceMapper@Resources@@@@ABVRtti@Core@@@Z 0043c5f0 f   render_win32.release:resourcemanager.obj
 0001:0003b670       ?Prepare@ResourceManager@Resources@@QAEX_N@Z 0043c670 f   render_win32.release:resourcemanager.obj
 0001:0003b700       ?Update@ResourceManager@Resources@@QAEXH@Z 0043c700 f   render_win32.release:resourcemanager.obj
 0001:0003b7a0       ?CreateManagedResource@ResourceManager@Resources@@QAE?AV?$Ptr@VManagedResource@Resources@@@@ABVRtti@Core@@ABVStringAtom@Util@@ABV?$Ptr@VResourceLoader@Resources@@@@@Z 0043c7a0 f   render_win32.release:resourcemanager.obj
 0001:0003bbd0       ?DiscardManagedResource@ResourceManager@Resources@@QAEXABV?$Ptr@VManagedResource@Resources@@@@@Z 0043cbd0 f   render_win32.release:resourcemanager.obj
 0001:0003bce0       ?HasManagedResource@ResourceManager@Resources@@QBE_NABVStringAtom@Util@@@Z 0043cce0 f   render_win32.release:resourcemanager.obj
 0001:0003bd30       ?LookupManagedResource@ResourceManager@Resources@@QBEABV?$Ptr@VManagedResource@Resources@@@@ABVStringAtom@Util@@@Z 0043cd30 f   render_win32.release:resourcemanager.obj
 0001:0003bd80       ?AutoManageManagedResource@ResourceManager@Resources@@QAEXABVStringAtom@Util@@_N@Z 0043cd80 f   render_win32.release:resourcemanager.obj
 0001:0003bdd0       ?CheckPendingResources@ResourceManager@Resources@@QAE_NXZ 0043cdd0 f   render_win32.release:resourcemanager.obj
 0001:0003be50       ?WaitForPendingResources@ResourceManager@Resources@@QAE_NN@Z 0043ce50 f   render_win32.release:resourcemanager.obj
 0001:0003bf10       ??0Timer@Timing@@QAE@XZ    0043cf10 f i render_win32.release:resourcemanager.obj
 0001:0003bf30       ?RequestResourceForLoading@ResourceManager@Resources@@QAEXABV?$Ptr@VManagedResource@Resources@@@@@Z 0043cf30 f   render_win32.release:resourcemanager.obj
 0001:0003c050       ?HasResource@ResourceManager@Resources@@QBE_NABVStringAtom@Util@@@Z 0043d050 f   render_win32.release:resourcemanager.obj
 0001:0003c0f0       ?LookupResource@ResourceManager@Resources@@QBEABV?$Ptr@VResource@Resources@@@@ABVStringAtom@Util@@@Z 0043d0f0 f   render_win32.release:resourcemanager.obj
 0001:0003c180       ?RegisterUnmanagedResource@ResourceManager@Resources@@QAEXABV?$Ptr@VResource@Resources@@@@@Z 0043d180 f   render_win32.release:resourcemanager.obj
 0001:0003c290       ?UnregisterUnmanagedResource@ResourceManager@Resources@@QAEXABV?$Ptr@VResource@Resources@@@@@Z 0043d290 f   render_win32.release:resourcemanager.obj
 0001:0003c460       ?UnregisterUnmanagedResource@ResourceManager@Resources@@QAEXABVStringAtom@Util@@@Z 0043d460 f   render_win32.release:resourcemanager.obj
 0001:0003c4d0       ?HoldResources@ResourceManager@Resources@@QAEXXZ 0043d4d0 f   render_win32.release:resourcemanager.obj
 0001:0003c570       ?ReleaseResources@ResourceManager@Resources@@QAEXXZ 0043d570 f   render_win32.release:resourcemanager.obj
 0001:0003c5f0       ?CreateUnmanagedResource@ResourceManager@Resources@@QAE?AV?$Ptr@VResource@Resources@@@@ABVStringAtom@Util@@ABVRtti@Core@@ABV?$Ptr@VResourceLoader@Resources@@@@ABV?$Ptr@VResourceSaver@Resources@@@@@Z 0043d5f0 f   render_win32.release:resourcemanager.obj
 0001:0003c8d0       ?GetResourcesByType@ResourceManager@Resources@@QBE?AV?$Array@V?$Ptr@VResource@Resources@@@@@Util@@ABVRtti@Core@@@Z 0043d8d0 f   render_win32.release:resourcemanager.obj
 0001:0003ca00       ??0?$Ptr@VResourceLoader@Resources@@@@QAE@PAVResourceLoader@Resources@@@Z 0043da00 f i render_win32.release:resourcemanager.obj
 0001:0003ca40       ??1?$Ptr@VResourceLoader@Resources@@@@QAE@XZ 0043da40 f i render_win32.release:resourcemanager.obj
 0001:0003ca70       ??C?$Ptr@VResourceLoader@Resources@@@@QBEPAVResourceLoader@Resources@@XZ 0043da70 f i render_win32.release:resourcemanager.obj
 0001:0003cab0       ?isvalid@?$Ptr@VResourceLoader@Resources@@@@QBE_NXZ 0043dab0 f i render_win32.release:resourcemanager.obj
 0001:0003cad0       ??0?$Ptr@VResourceSaver@Resources@@@@QAE@PAVResourceSaver@Resources@@@Z 0043dad0 f i render_win32.release:resourcemanager.obj
 0001:0003cb10       ??1?$Ptr@VResourceSaver@Resources@@@@QAE@XZ 0043db10 f i render_win32.release:resourcemanager.obj
 0001:0003cb40       ??C?$Ptr@VResourceSaver@Resources@@@@QBEPAVResourceSaver@Resources@@XZ 0043db40 f i render_win32.release:resourcemanager.obj
 0001:0003cb80       ?isvalid@?$Ptr@VResourceSaver@Resources@@@@QBE_NXZ 0043db80 f i render_win32.release:resourcemanager.obj
 0001:0003cba0       ??0?$Ptr@VResource@Resources@@@@QAE@ABV0@@Z 0043dba0 f i render_win32.release:resourcemanager.obj
 0001:0003cbe0       ??0?$Ptr@VResource@Resources@@@@QAE@PAVResource@Resources@@@Z 0043dbe0 f i render_win32.release:resourcemanager.obj
 0001:0003cc20       ??1?$Ptr@VResource@Resources@@@@QAE@XZ 0043dc20 f i render_win32.release:resourcemanager.obj
 0001:0003cc50       ??4?$Ptr@VResource@Resources@@@@QAEXABV0@@Z 0043dc50 f i render_win32.release:resourcemanager.obj
 0001:0003ccb0       ??C?$Ptr@VResource@Resources@@@@QBEPAVResource@Resources@@XZ 0043dcb0 f i render_win32.release:resourcemanager.obj
 0001:0003ccf0       ?isvalid@?$Ptr@VResource@Resources@@@@QBE_NXZ 0043dcf0 f i render_win32.release:resourcemanager.obj
 0001:0003cd10       ??0?$Ptr@VPoolResourceMapper@Resources@@@@QAE@XZ 0043dd10 f i render_win32.release:resourcemanager.obj
 0001:0003cd30       ??1?$Ptr@VPoolResourceMapper@Resources@@@@QAE@XZ 0043dd30 f i render_win32.release:resourcemanager.obj
 0001:0003cd60       ??4?$Ptr@VPoolResourceMapper@Resources@@@@QAEXPAVPoolResourceMapper@Resources@@@Z 0043dd60 f i render_win32.release:resourcemanager.obj
 0001:0003cdc0       ??9?$Ptr@VPoolResourceMapper@Resources@@@@QBE_NPBVPoolResourceMapper@Resources@@@Z 0043ddc0 f i render_win32.release:resourcemanager.obj
 0001:0003cde0       ??C?$Ptr@VPoolResourceMapper@Resources@@@@QBEPAVPoolResourceMapper@Resources@@XZ 0043dde0 f i render_win32.release:resourcemanager.obj
 0001:0003ce20       ??1?$Array@V?$KeyValuePair@PBVRtti@Core@@V?$Ptr@VResourceMapper@Resources@@@@@Util@@@Util@@QAE@XZ 0043de20 f i render_win32.release:resourcemanager.obj
 0001:0003ce40       ??0?$Dictionary@PBVRtti@Core@@V?$Ptr@VResourceMapper@Resources@@@@@Util@@QAE@XZ 0043de40 f i render_win32.release:resourcemanager.obj
 0001:0003ce60       ??A?$Dictionary@PBVRtti@Core@@V?$Ptr@VResourceMapper@Resources@@@@@Util@@QBEABV?$Ptr@VResourceMapper@Resources@@@@ABQBVRtti@Core@@@Z 0043de60 f i render_win32.release:resourcemanager.obj
 0001:0003ceb0       ??A?$Dictionary@PBVRtti@Core@@V?$Ptr@VResourceMapper@Resources@@@@@Util@@QAEAAV?$Ptr@VResourceMapper@Resources@@@@ABQBVRtti@Core@@@Z 0043deb0 f i render_win32.release:resourcemanager.obj
 0001:0003cf00       ?Size@?$Dictionary@PBVRtti@Core@@V?$Ptr@VResourceMapper@Resources@@@@@Util@@QBEHXZ 0043df00 f i render_win32.release:resourcemanager.obj
 0001:0003cf20       ?Add@?$Dictionary@PBVRtti@Core@@V?$Ptr@VResourceMapper@Resources@@@@@Util@@QAEXABQBVRtti@Core@@ABV?$Ptr@VResourceMapper@Resources@@@@@Z 0043df20 f i render_win32.release:resourcemanager.obj
 0001:0003cf70       ?Erase@?$Dictionary@PBVRtti@Core@@V?$Ptr@VResourceMapper@Resources@@@@@Util@@QAEXABQBVRtti@Core@@@Z 0043df70 f i render_win32.release:resourcemanager.obj
 0001:0003cff0       ?EraseAtIndex@?$Dictionary@PBVRtti@Core@@V?$Ptr@VResourceMapper@Resources@@@@@Util@@QAEXH@Z 0043dff0 f i render_win32.release:resourcemanager.obj
 0001:0003d030       ?Contains@?$Dictionary@PBVRtti@Core@@V?$Ptr@VResourceMapper@Resources@@@@@Util@@QBE_NABQBVRtti@Core@@@Z 0043e030 f i render_win32.release:resourcemanager.obj
 0001:0003d090       ?ValueAtIndex@?$Dictionary@PBVRtti@Core@@V?$Ptr@VResourceMapper@Resources@@@@@Util@@QAEAAV?$Ptr@VResourceMapper@Resources@@@@H@Z 0043e090 f i render_win32.release:resourcemanager.obj
 0001:0003d0e0       ??1?$Array@V?$KeyValuePair@VStringAtom@Util@@V?$Ptr@VManagedResource@Resources@@@@@Util@@@Util@@QAE@XZ 0043e0e0 f i render_win32.release:resourcemanager.obj
 0001:0003d100       ??0?$Dictionary@VStringAtom@Util@@V?$Ptr@VManagedResource@Resources@@@@@Util@@QAE@XZ 0043e100 f i render_win32.release:resourcemanager.obj
 0001:0003d120       ??A?$Dictionary@VStringAtom@Util@@V?$Ptr@VManagedResource@Resources@@@@@Util@@QBEABV?$Ptr@VManagedResource@Resources@@@@ABVStringAtom@1@@Z 0043e120 f i render_win32.release:resourcemanager.obj
 0001:0003d170       ?Size@?$Dictionary@VStringAtom@Util@@V?$Ptr@VManagedResource@Resources@@@@@Util@@QBEHXZ 0043e170 f i render_win32.release:resourcemanager.obj
 0001:0003d190       ?Add@?$Dictionary@VStringAtom@Util@@V?$Ptr@VManagedResource@Resources@@@@@Util@@QAEXABVStringAtom@2@ABV?$Ptr@VManagedResource@Resources@@@@@Z 0043e190 f i render_win32.release:resourcemanager.obj
 0001:0003d1e0       ?Erase@?$Dictionary@VStringAtom@Util@@V?$Ptr@VManagedResource@Resources@@@@@Util@@QAEXABVStringAtom@2@@Z 0043e1e0 f i render_win32.release:resourcemanager.obj
 0001:0003d260       ?FindIndex@?$Dictionary@VStringAtom@Util@@V?$Ptr@VManagedResource@Resources@@@@@Util@@QBEHABVStringAtom@2@@Z 0043e260 f i render_win32.release:resourcemanager.obj
 0001:0003d2c0       ?Contains@?$Dictionary@VStringAtom@Util@@V?$Ptr@VManagedResource@Resources@@@@@Util@@QBE_NABVStringAtom@2@@Z 0043e2c0 f i render_win32.release:resourcemanager.obj
 0001:0003d320       ?ValueAtIndex@?$Dictionary@VStringAtom@Util@@V?$Ptr@VManagedResource@Resources@@@@@Util@@QBEABV?$Ptr@VManagedResource@Resources@@@@H@Z 0043e320 f i render_win32.release:resourcemanager.obj
 0001:0003d370       ?ValueAtIndex@?$Dictionary@VStringAtom@Util@@V?$Ptr@VManagedResource@Resources@@@@@Util@@QAEAAV?$Ptr@VManagedResource@Resources@@@@H@Z 0043e370 f i render_win32.release:resourcemanager.obj
 0001:0003d3c0       ??1?$Array@V?$KeyValuePair@VStringAtom@Util@@V?$Ptr@VResource@Resources@@@@@Util@@@Util@@QAE@XZ 0043e3c0 f i render_win32.release:resourcemanager.obj
 0001:0003d3e0       ??0?$Dictionary@VStringAtom@Util@@V?$Ptr@VResource@Resources@@@@@Util@@QAE@XZ 0043e3e0 f i render_win32.release:resourcemanager.obj
 0001:0003d400       ??A?$Dictionary@VStringAtom@Util@@V?$Ptr@VResource@Resources@@@@@Util@@QAEAAV?$Ptr@VResource@Resources@@@@ABVStringAtom@1@@Z 0043e400 f i render_win32.release:resourcemanager.obj
 0001:0003d450       ?Size@?$Dictionary@VStringAtom@Util@@V?$Ptr@VResource@Resources@@@@@Util@@QBEHXZ 0043e450 f i render_win32.release:resourcemanager.obj
 0001:0003d470       ?Clear@?$Dictionary@VStringAtom@Util@@V?$Ptr@VResource@Resources@@@@@Util@@QAEXXZ 0043e470 f i render_win32.release:resourcemanager.obj
 0001:0003d4b0       ?Add@?$Dictionary@VStringAtom@Util@@V?$Ptr@VResource@Resources@@@@@Util@@QAEXABVStringAtom@2@ABV?$Ptr@VResource@Resources@@@@@Z 0043e4b0 f i render_win32.release:resourcemanager.obj
 0001:0003d500       ?Erase@?$Dictionary@VStringAtom@Util@@V?$Ptr@VResource@Resources@@@@@Util@@QAEXABVStringAtom@2@@Z 0043e500 f i render_win32.release:resourcemanager.obj
 0001:0003d580       ?FindIndex@?$Dictionary@VStringAtom@Util@@V?$Ptr@VResource@Resources@@@@@Util@@QBEHABVStringAtom@2@@Z 0043e580 f i render_win32.release:resourcemanager.obj
 0001:0003d5e0       ?Contains@?$Dictionary@VStringAtom@Util@@V?$Ptr@VResource@Resources@@@@@Util@@QBE_NABVStringAtom@2@@Z 0043e5e0 f i render_win32.release:resourcemanager.obj
 0001:0003d640       ?ValueAtIndex@?$Dictionary@VStringAtom@Util@@V?$Ptr@VResource@Resources@@@@@Util@@QBEABV?$Ptr@VResource@Resources@@@@H@Z 0043e640 f i render_win32.release:resourcemanager.obj
 0001:0003d690       ?ValueAtIndex@?$Dictionary@VStringAtom@Util@@V?$Ptr@VResource@Resources@@@@@Util@@QAEAAV?$Ptr@VResource@Resources@@@@H@Z 0043e690 f i render_win32.release:resourcemanager.obj
 0001:0003d6e0       ??0?$Array@V?$Ptr@VResource@Resources@@@@@Util@@QAE@ABV01@@Z 0043e6e0 f i render_win32.release:resourcemanager.obj
 0001:0003d730       ??0?$Array@V?$Ptr@VResource@Resources@@@@@Util@@QAE@XZ 0043e730 f i render_win32.release:resourcemanager.obj
 0001:0003d770       ??1?$Array@V?$Ptr@VResource@Resources@@@@@Util@@QAE@XZ 0043e770 f i render_win32.release:resourcemanager.obj
 0001:0003d790       ??A?$Array@V?$Ptr@VResource@Resources@@@@@Util@@QBEAAV?$Ptr@VResource@Resources@@@@H@Z 0043e790 f i render_win32.release:resourcemanager.obj
 0001:0003d7e0       ?Append@?$Array@V?$Ptr@VResource@Resources@@@@@Util@@QAEXABV?$Ptr@VResource@Resources@@@@@Z 0043e7e0 f i render_win32.release:resourcemanager.obj
 0001:0003d860       ?Size@?$Array@V?$Ptr@VResource@Resources@@@@@Util@@QBEHXZ 0043e860 f i render_win32.release:resourcemanager.obj
 0001:0003d880       ??0?$Ptr@VManagedResource@Resources@@@@QAE@ABV0@@Z 0043e880 f i render_win32.release:resourcemanager.obj
 0001:0003d8c0       ??1?$Ptr@VManagedResource@Resources@@@@QAE@XZ 0043e8c0 f i render_win32.release:resourcemanager.obj
 0001:0003d8f0       ??C?$Ptr@VManagedResource@Resources@@@@QBEPAVManagedResource@Resources@@XZ 0043e8f0 f i render_win32.release:resourcemanager.obj
 0001:0003d930       ?isvalid@?$Ptr@VManagedResource@Resources@@@@QBE_NXZ 0043e930 f i render_win32.release:resourcemanager.obj
 0001:0003d950       ?isvalid@?$Ptr@VResourceMapper@Resources@@@@QBE_NXZ 0043e950 f i render_win32.release:resourcemanager.obj
 0001:0003d970       ??1?$KeyValuePair@PBVRtti@Core@@V?$Ptr@VResourceMapper@Resources@@@@@Util@@QAE@XZ 0043e970 f i render_win32.release:resourcemanager.obj
 0001:0003d990       ??1?$KeyValuePair@VStringAtom@Util@@V?$Ptr@VManagedResource@Resources@@@@@Util@@QAE@XZ 0043e990 f i render_win32.release:resourcemanager.obj
 0001:0003d9b0       ??1?$KeyValuePair@VStringAtom@Util@@V?$Ptr@VResource@Resources@@@@@Util@@QAE@XZ 0043e9b0 f i render_win32.release:resourcemanager.obj
 0001:0003d9d0       ??0?$Array@V?$KeyValuePair@PBVRtti@Core@@V?$Ptr@VResourceMapper@Resources@@@@@Util@@@Util@@QAE@XZ 0043e9d0 f i render_win32.release:resourcemanager.obj
 0001:0003da10       ??A?$Array@V?$KeyValuePair@PBVRtti@Core@@V?$Ptr@VResourceMapper@Resources@@@@@Util@@@Util@@QBEAAV?$KeyValuePair@PBVRtti@Core@@V?$Ptr@VResourceMapper@Resources@@@@@1@H@Z 0043ea10 f i render_win32.release:resourcemanager.obj
 0001:0003da60       ?Append@?$Array@V?$KeyValuePair@PBVRtti@Core@@V?$Ptr@VResourceMapper@Resources@@@@@Util@@@Util@@QAEXABV?$KeyValuePair@PBVRtti@Core@@V?$Ptr@VResourceMapper@Resources@@@@@2@@Z 0043ea60 f i render_win32.release:resourcemanager.obj
 0001:0003dae0       ?Size@?$Array@V?$KeyValuePair@PBVRtti@Core@@V?$Ptr@VResourceMapper@Resources@@@@@Util@@@Util@@QBEHXZ 0043eae0 f i render_win32.release:resourcemanager.obj
 0001:0003db00       ?EraseIndex@?$Array@V?$KeyValuePair@PBVRtti@Core@@V?$Ptr@VResourceMapper@Resources@@@@@Util@@@Util@@QAEXH@Z 0043eb00 f i render_win32.release:resourcemanager.obj
 0001:0003db80       ?InsertSorted@?$Array@V?$KeyValuePair@PBVRtti@Core@@V?$Ptr@VResourceMapper@Resources@@@@@Util@@@Util@@QAEHABV?$KeyValuePair@PBVRtti@Core@@V?$Ptr@VResourceMapper@Resources@@@@@2@@Z 0043eb80 f i render_win32.release:resourcemanager.obj
 0001:0003ddf0       ?BinarySearchIndex@?$Array@V?$KeyValuePair@PBVRtti@Core@@V?$Ptr@VResourceMapper@Resources@@@@@Util@@@Util@@QBEHABV?$KeyValuePair@PBVRtti@Core@@V?$Ptr@VResourceMapper@Resources@@@@@2@@Z 0043edf0 f i render_win32.release:resourcemanager.obj
 0001:0003df20       ?Delete@?$Array@V?$KeyValuePair@PBVRtti@Core@@V?$Ptr@VResourceMapper@Resources@@@@@Util@@@Util@@AAEXXZ 0043ef20 f i render_win32.release:resourcemanager.obj
 0001:0003df90       ?FindIndex@?$Dictionary@PBVRtti@Core@@V?$Ptr@VResourceMapper@Resources@@@@@Util@@QBEHABQBVRtti@Core@@@Z 0043ef90 f i render_win32.release:resourcemanager.obj
 0001:0003dff0       ??0?$KeyValuePair@PBVRtti@Core@@V?$Ptr@VResourceMapper@Resources@@@@@Util@@QAE@ABQBVRtti@Core@@@Z 0043eff0 f i render_win32.release:resourcemanager.obj
 0001:0003e020       ??0?$KeyValuePair@PBVRtti@Core@@V?$Ptr@VResourceMapper@Resources@@@@@Util@@QAE@ABQBVRtti@Core@@ABV?$Ptr@VResourceMapper@Resources@@@@@Z 0043f020 f i render_win32.release:resourcemanager.obj
 0001:0003e050       ?Value@?$KeyValuePair@PBVRtti@Core@@V?$Ptr@VResourceMapper@Resources@@@@@Util@@QAEAAV?$Ptr@VResourceMapper@Resources@@@@XZ 0043f050 f i render_win32.release:resourcemanager.obj
 0001:0003e070       ??0?$Array@V?$KeyValuePair@VStringAtom@Util@@V?$Ptr@VManagedResource@Resources@@@@@Util@@@Util@@QAE@XZ 0043f070 f i render_win32.release:resourcemanager.obj
 0001:0003e0b0       ??A?$Array@V?$KeyValuePair@VStringAtom@Util@@V?$Ptr@VManagedResource@Resources@@@@@Util@@@Util@@QBEAAV?$KeyValuePair@VStringAtom@Util@@V?$Ptr@VManagedResource@Resources@@@@@1@H@Z 0043f0b0 f i render_win32.release:resourcemanager.obj
 0001:0003e100       ?Append@?$Array@V?$KeyValuePair@VStringAtom@Util@@V?$Ptr@VManagedResource@Resources@@@@@Util@@@Util@@QAEXABV?$KeyValuePair@VStringAtom@Util@@V?$Ptr@VManagedResource@Resources@@@@@2@@Z 0043f100 f i render_win32.release:resourcemanager.obj
 0001:0003e180       ?Size@?$Array@V?$KeyValuePair@VStringAtom@Util@@V?$Ptr@VManagedResource@Resources@@@@@Util@@@Util@@QBEHXZ 0043f180 f i render_win32.release:resourcemanager.obj
 0001:0003e1a0       ?EraseIndex@?$Array@V?$KeyValuePair@VStringAtom@Util@@V?$Ptr@VManagedResource@Resources@@@@@Util@@@Util@@QAEXH@Z 0043f1a0 f i render_win32.release:resourcemanager.obj
 0001:0003e220       ?InsertSorted@?$Array@V?$KeyValuePair@VStringAtom@Util@@V?$Ptr@VManagedResource@Resources@@@@@Util@@@Util@@QAEHABV?$KeyValuePair@VStringAtom@Util@@V?$Ptr@VManagedResource@Resources@@@@@2@@Z 0043f220 f i render_win32.release:resourcemanager.obj
 0001:0003e490       ?BinarySearchIndex@?$Array@V?$KeyValuePair@VStringAtom@Util@@V?$Ptr@VManagedResource@Resources@@@@@Util@@@Util@@QBEHABV?$KeyValuePair@VStringAtom@Util@@V?$Ptr@VManagedResource@Resources@@@@@2@@Z 0043f490 f i render_win32.release:resourcemanager.obj
 0001:0003e5c0       ?Delete@?$Array@V?$KeyValuePair@VStringAtom@Util@@V?$Ptr@VManagedResource@Resources@@@@@Util@@@Util@@AAEXXZ 0043f5c0 f i render_win32.release:resourcemanager.obj
 0001:0003e630       ??0?$KeyValuePair@VStringAtom@Util@@V?$Ptr@VManagedResource@Resources@@@@@Util@@QAE@ABVStringAtom@1@@Z 0043f630 f i render_win32.release:resourcemanager.obj
 0001:0003e660       ??0?$KeyValuePair@VStringAtom@Util@@V?$Ptr@VManagedResource@Resources@@@@@Util@@QAE@ABVStringAtom@1@ABV?$Ptr@VManagedResource@Resources@@@@@Z 0043f660 f i render_win32.release:resourcemanager.obj
 0001:0003e690       ?Value@?$KeyValuePair@VStringAtom@Util@@V?$Ptr@VManagedResource@Resources@@@@@Util@@QAEAAV?$Ptr@VManagedResource@Resources@@@@XZ 0043f690 f i render_win32.release:resourcemanager.obj
 0001:0003e6b0       ??0?$Array@V?$KeyValuePair@VStringAtom@Util@@V?$Ptr@VResource@Resources@@@@@Util@@@Util@@QAE@XZ 0043f6b0 f i render_win32.release:resourcemanager.obj
 0001:0003e6f0       ??A?$Array@V?$KeyValuePair@VStringAtom@Util@@V?$Ptr@VResource@Resources@@@@@Util@@@Util@@QBEAAV?$KeyValuePair@VStringAtom@Util@@V?$Ptr@VResource@Resources@@@@@1@H@Z 0043f6f0 f i render_win32.release:resourcemanager.obj
 0001:0003e740       ?Append@?$Array@V?$KeyValuePair@VStringAtom@Util@@V?$Ptr@VResource@Resources@@@@@Util@@@Util@@QAEXABV?$KeyValuePair@VStringAtom@Util@@V?$Ptr@VResource@Resources@@@@@2@@Z 0043f740 f i render_win32.release:resourcemanager.obj
 0001:0003e7c0       ?Size@?$Array@V?$KeyValuePair@VStringAtom@Util@@V?$Ptr@VResource@Resources@@@@@Util@@@Util@@QBEHXZ 0043f7c0 f i render_win32.release:resourcemanager.obj
 0001:0003e7e0       ?EraseIndex@?$Array@V?$KeyValuePair@VStringAtom@Util@@V?$Ptr@VResource@Resources@@@@@Util@@@Util@@QAEXH@Z 0043f7e0 f i render_win32.release:resourcemanager.obj
 0001:0003e860       ?InsertSorted@?$Array@V?$KeyValuePair@VStringAtom@Util@@V?$Ptr@VResource@Resources@@@@@Util@@@Util@@QAEHABV?$KeyValuePair@VStringAtom@Util@@V?$Ptr@VResource@Resources@@@@@2@@Z 0043f860 f i render_win32.release:resourcemanager.obj
 0001:0003ead0       ?Clear@?$Array@V?$KeyValuePair@VStringAtom@Util@@V?$Ptr@VResource@Resources@@@@@Util@@@Util@@QAEXXZ 0043fad0 f i render_win32.release:resourcemanager.obj
 0001:0003eb20       ?BinarySearchIndex@?$Array@V?$KeyValuePair@VStringAtom@Util@@V?$Ptr@VResource@Resources@@@@@Util@@@Util@@QBEHABV?$KeyValuePair@VStringAtom@Util@@V?$Ptr@VResource@Resources@@@@@2@@Z 0043fb20 f i render_win32.release:resourcemanager.obj
 0001:0003ec50       ?Delete@?$Array@V?$KeyValuePair@VStringAtom@Util@@V?$Ptr@VResource@Resources@@@@@Util@@@Util@@AAEXXZ 0043fc50 f i render_win32.release:resourcemanager.obj
 0001:0003ecc0       ??0?$KeyValuePair@VStringAtom@Util@@V?$Ptr@VResource@Resources@@@@@Util@@QAE@ABVStringAtom@1@@Z 0043fcc0 f i render_win32.release:resourcemanager.obj
 0001:0003ecf0       ??0?$KeyValuePair@VStringAtom@Util@@V?$Ptr@VResource@Resources@@@@@Util@@QAE@ABVStringAtom@1@ABV?$Ptr@VResource@Resources@@@@@Z 0043fcf0 f i render_win32.release:resourcemanager.obj
 0001:0003ed20       ?Value@?$KeyValuePair@VStringAtom@Util@@V?$Ptr@VResource@Resources@@@@@Util@@QAEAAV?$Ptr@VResource@Resources@@@@XZ 0043fd20 f i render_win32.release:resourcemanager.obj
 0001:0003ed40       ?Copy@?$Array@V?$Ptr@VResource@Resources@@@@@Util@@AAEXABV12@@Z 0043fd40 f i render_win32.release:resourcemanager.obj
 0001:0003ee70       ?Delete@?$Array@V?$Ptr@VResource@Resources@@@@@Util@@AAEXXZ 0043fe70 f i render_win32.release:resourcemanager.obj
 0001:0003eee0       ?Grow@?$Array@V?$Ptr@VResource@Resources@@@@@Util@@AAEXXZ 0043fee0 f i render_win32.release:resourcemanager.obj
 0001:0003ef60       ??_E?$KeyValuePair@PBVRtti@Core@@V?$Ptr@VResourceMapper@Resources@@@@@Util@@QAEPAXI@Z 0043ff60 f i render_win32.release:resourcemanager.obj
 0001:0003f000       ??_E?$KeyValuePair@VStringAtom@Util@@V?$Ptr@VManagedResource@Resources@@@@@Util@@QAEPAXI@Z 00440000 f i render_win32.release:resourcemanager.obj
 0001:0003f0a0       ??_E?$KeyValuePair@VStringAtom@Util@@V?$Ptr@VResource@Resources@@@@@Util@@QAEPAXI@Z 004400a0 f i render_win32.release:resourcemanager.obj
 0001:0003f140       ??_E?$Ptr@VResource@Resources@@@@QAEPAXI@Z 00440140 f i render_win32.release:resourcemanager.obj
 0001:0003f1e0       ?Insert@?$Array@V?$KeyValuePair@PBVRtti@Core@@V?$Ptr@VResourceMapper@Resources@@@@@Util@@@Util@@QAEXHABV?$KeyValuePair@PBVRtti@Core@@V?$Ptr@VResourceMapper@Resources@@@@@2@@Z 004401e0 f i render_win32.release:resourcemanager.obj
 0001:0003f250       ?InsertAtEndOfIdenticalRange@?$Array@V?$KeyValuePair@PBVRtti@Core@@V?$Ptr@VResourceMapper@Resources@@@@@Util@@@Util@@QAEHHABV?$KeyValuePair@PBVRtti@Core@@V?$Ptr@VResourceMapper@Resources@@@@@2@@Z 00440250 f i render_win32.release:resourcemanager.obj
 0001:0003f2d0       ?Destroy@?$Array@V?$KeyValuePair@PBVRtti@Core@@V?$Ptr@VResourceMapper@Resources@@@@@Util@@@Util@@AAEXPAV?$KeyValuePair@PBVRtti@Core@@V?$Ptr@VResourceMapper@Resources@@@@@2@@Z 004402d0 f i render_win32.release:resourcemanager.obj
 0001:0003f300       ?Grow@?$Array@V?$KeyValuePair@PBVRtti@Core@@V?$Ptr@VResourceMapper@Resources@@@@@Util@@@Util@@AAEXXZ 00440300 f i render_win32.release:resourcemanager.obj
 0001:0003f380       ?Move@?$Array@V?$KeyValuePair@PBVRtti@Core@@V?$Ptr@VResourceMapper@Resources@@@@@Util@@@Util@@AAEXHH@Z 00440380 f i render_win32.release:resourcemanager.obj
 0001:0003f510       ??4?$KeyValuePair@PBVRtti@Core@@V?$Ptr@VResourceMapper@Resources@@@@@Util@@QAEXABV01@@Z 00440510 f i render_win32.release:resourcemanager.obj
 0001:0003f540       ??9?$KeyValuePair@PBVRtti@Core@@V?$Ptr@VResourceMapper@Resources@@@@@Util@@QBE_NABV01@@Z 00440540 f i render_win32.release:resourcemanager.obj
 0001:0003f560       ??O?$KeyValuePair@PBVRtti@Core@@V?$Ptr@VResourceMapper@Resources@@@@@Util@@QBE_NABV01@@Z 00440560 f i render_win32.release:resourcemanager.obj
 0001:0003f580       ??M?$KeyValuePair@PBVRtti@Core@@V?$Ptr@VResourceMapper@Resources@@@@@Util@@QBE_NABV01@@Z 00440580 f i render_win32.release:resourcemanager.obj
 0001:0003f5a0       ??0?$Ptr@VResourceMapper@Resources@@@@QAE@ABV0@@Z 004405a0 f i render_win32.release:resourcemanager.obj
 0001:0003f5e0       ?Insert@?$Array@V?$KeyValuePair@VStringAtom@Util@@V?$Ptr@VManagedResource@Resources@@@@@Util@@@Util@@QAEXHABV?$KeyValuePair@VStringAtom@Util@@V?$Ptr@VManagedResource@Resources@@@@@2@@Z 004405e0 f i render_win32.release:resourcemanager.obj
 0001:0003f650       ?InsertAtEndOfIdenticalRange@?$Array@V?$KeyValuePair@VStringAtom@Util@@V?$Ptr@VManagedResource@Resources@@@@@Util@@@Util@@QAEHHABV?$KeyValuePair@VStringAtom@Util@@V?$Ptr@VManagedResource@Resources@@@@@2@@Z 00440650 f i render_win32.release:resourcemanager.obj
 0001:0003f6d0       ?Destroy@?$Array@V?$KeyValuePair@VStringAtom@Util@@V?$Ptr@VManagedResource@Resources@@@@@Util@@@Util@@AAEXPAV?$KeyValuePair@VStringAtom@Util@@V?$Ptr@VManagedResource@Resources@@@@@2@@Z 004406d0 f i render_win32.release:resourcemanager.obj
 0001:0003f700       ?Grow@?$Array@V?$KeyValuePair@VStringAtom@Util@@V?$Ptr@VManagedResource@Resources@@@@@Util@@@Util@@AAEXXZ 00440700 f i render_win32.release:resourcemanager.obj
 0001:0003f780       ?Move@?$Array@V?$KeyValuePair@VStringAtom@Util@@V?$Ptr@VManagedResource@Resources@@@@@Util@@@Util@@AAEXHH@Z 00440780 f i render_win32.release:resourcemanager.obj
 0001:0003f910       ??4?$KeyValuePair@VStringAtom@Util@@V?$Ptr@VManagedResource@Resources@@@@@Util@@QAEXABV01@@Z 00440910 f i render_win32.release:resourcemanager.obj
 0001:0003f940       ??9?$KeyValuePair@VStringAtom@Util@@V?$Ptr@VManagedResource@Resources@@@@@Util@@QBE_NABV01@@Z 00440940 f i render_win32.release:resourcemanager.obj
 0001:0003f960       ??O?$KeyValuePair@VStringAtom@Util@@V?$Ptr@VManagedResource@Resources@@@@@Util@@QBE_NABV01@@Z 00440960 f i render_win32.release:resourcemanager.obj
 0001:0003f980       ??M?$KeyValuePair@VStringAtom@Util@@V?$Ptr@VManagedResource@Resources@@@@@Util@@QBE_NABV01@@Z 00440980 f i render_win32.release:resourcemanager.obj
 0001:0003f9a0       ??0?$Ptr@VManagedResource@Resources@@@@QAE@XZ 004409a0 f i render_win32.release:resourcemanager.obj
 0001:0003f9c0       ?Insert@?$Array@V?$KeyValuePair@VStringAtom@Util@@V?$Ptr@VResource@Resources@@@@@Util@@@Util@@QAEXHABV?$KeyValuePair@VStringAtom@Util@@V?$Ptr@VResource@Resources@@@@@2@@Z 004409c0 f i render_win32.release:resourcemanager.obj
 0001:0003fa30       ?InsertAtEndOfIdenticalRange@?$Array@V?$KeyValuePair@VStringAtom@Util@@V?$Ptr@VResource@Resources@@@@@Util@@@Util@@QAEHHABV?$KeyValuePair@VStringAtom@Util@@V?$Ptr@VResource@Resources@@@@@2@@Z 00440a30 f i render_win32.release:resourcemanager.obj
 0001:0003fab0       ?Destroy@?$Array@V?$KeyValuePair@VStringAtom@Util@@V?$Ptr@VResource@Resources@@@@@Util@@@Util@@AAEXPAV?$KeyValuePair@VStringAtom@Util@@V?$Ptr@VResource@Resources@@@@@2@@Z 00440ab0 f i render_win32.release:resourcemanager.obj
 0001:0003fae0       ?Grow@?$Array@V?$KeyValuePair@VStringAtom@Util@@V?$Ptr@VResource@Resources@@@@@Util@@@Util@@AAEXXZ 00440ae0 f i render_win32.release:resourcemanager.obj
 0001:0003fb60       ?Move@?$Array@V?$KeyValuePair@VStringAtom@Util@@V?$Ptr@VResource@Resources@@@@@Util@@@Util@@AAEXHH@Z 00440b60 f i render_win32.release:resourcemanager.obj
 0001:0003fcf0       ??4?$KeyValuePair@VStringAtom@Util@@V?$Ptr@VResource@Resources@@@@@Util@@QAEXABV01@@Z 00440cf0 f i render_win32.release:resourcemanager.obj
 0001:0003fd20       ??9?$KeyValuePair@VStringAtom@Util@@V?$Ptr@VResource@Resources@@@@@Util@@QBE_NABV01@@Z 00440d20 f i render_win32.release:resourcemanager.obj
 0001:0003fd40       ??O?$KeyValuePair@VStringAtom@Util@@V?$Ptr@VResource@Resources@@@@@Util@@QBE_NABV01@@Z 00440d40 f i render_win32.release:resourcemanager.obj
 0001:0003fd60       ??M?$KeyValuePair@VStringAtom@Util@@V?$Ptr@VResource@Resources@@@@@Util@@QBE_NABV01@@Z 00440d60 f i render_win32.release:resourcemanager.obj
 0001:0003fd80       ??0?$Ptr@VResource@Resources@@@@QAE@XZ 00440d80 f i render_win32.release:resourcemanager.obj
 0001:0003fda0       ?GrowTo@?$Array@V?$Ptr@VResource@Resources@@@@@Util@@AAEXH@Z 00440da0 f i render_win32.release:resourcemanager.obj
 0001:0003fec0       ??_G?$KeyValuePair@PBVRtti@Core@@V?$Ptr@VResourceMapper@Resources@@@@@Util@@QAEPAXI@Z 00440ec0 f i render_win32.release:resourcemanager.obj
 0001:0003ff00       ??_G?$KeyValuePair@VStringAtom@Util@@V?$Ptr@VManagedResource@Resources@@@@@Util@@QAEPAXI@Z 00440f00 f i render_win32.release:resourcemanager.obj
 0001:0003ff40       ??_G?$KeyValuePair@VStringAtom@Util@@V?$Ptr@VResource@Resources@@@@@Util@@QAEPAXI@Z 00440f40 f i render_win32.release:resourcemanager.obj
 0001:0003ff80       ?GrowTo@?$Array@V?$KeyValuePair@PBVRtti@Core@@V?$Ptr@VResourceMapper@Resources@@@@@Util@@@Util@@AAEXH@Z 00440f80 f i render_win32.release:resourcemanager.obj
 0001:000400a0       ?GrowTo@?$Array@V?$KeyValuePair@VStringAtom@Util@@V?$Ptr@VManagedResource@Resources@@@@@Util@@@Util@@AAEXH@Z 004410a0 f i render_win32.release:resourcemanager.obj
 0001:000401c0       ??4?$Ptr@VManagedResource@Resources@@@@QAEXABV0@@Z 004411c0 f i render_win32.release:resourcemanager.obj
 0001:00040220       ?GrowTo@?$Array@V?$KeyValuePair@VStringAtom@Util@@V?$Ptr@VResource@Resources@@@@@Util@@@Util@@AAEXH@Z 00441220 f i render_win32.release:resourcemanager.obj
 0001:00040340       ??0?$KeyValuePair@PBVRtti@Core@@V?$Ptr@VResourceMapper@Resources@@@@@Util@@QAE@XZ 00441340 f i render_win32.release:resourcemanager.obj
 0001:00040360       ??0?$KeyValuePair@VStringAtom@Util@@V?$Ptr@VManagedResource@Resources@@@@@Util@@QAE@XZ 00441360 f i render_win32.release:resourcemanager.obj
 0001:00040390       ??0?$KeyValuePair@VStringAtom@Util@@V?$Ptr@VResource@Resources@@@@@Util@@QAE@XZ 00441390 f i render_win32.release:resourcemanager.obj
 0001:000403c0       ??4float4@Math@@QAEXABV01@@Z 004413c0 f i render_win32.release:animatornodeinstance.obj
 0001:000403e0       ?storeu@float4@Math@@QBEXPAM@Z 004413e0 f i render_win32.release:animatornodeinstance.obj
 0001:00040410       ??Dfloat4@Math@@QBE?AV01@M@Z 00441410 f i render_win32.release:animatornodeinstance.obj
 0001:00040470       ??Hfloat4@Math@@QBE?AV01@ABV01@@Z 00441470 f i render_win32.release:animatornodeinstance.obj
 0001:000404d0       ??Gfloat4@Math@@QBE?AV01@ABV01@@Z 004414d0 f i render_win32.release:animatornodeinstance.obj
 0001:00040530       ?z@float4@Math@@QBEMXZ     00441530 f i render_win32.release:animatornodeinstance.obj
 0001:00040580       ?multiply@float4@Math@@SA?AV12@ABV12@0@Z 00441580 f i render_win32.release:animatornodeinstance.obj
 0001:000405d0       ?unpack_z@float4@Math@@SAMT__m128@@@Z 004415d0 f i render_win32.release:animatornodeinstance.obj
 0001:00040610       ??0vector@Math@@QAE@XZ     00441610 f i render_win32.release:animatornodeinstance.obj
 0001:000406a0       ??0vector@Math@@QAE@ABVfloat4@1@@Z 004416a0 f i render_win32.release:animatornodeinstance.obj
 0001:00040790       ??0vector@Math@@QAE@T__m128@@@Z 00441790 f i render_win32.release:animatornodeinstance.obj
 0001:000407c0       ??4vector@Math@@QAEXABV01@@Z 004417c0 f i render_win32.release:animatornodeinstance.obj
 0001:000407e0       ??Hvector@Math@@QBE?AV01@ABV01@@Z 004417e0 f i render_win32.release:animatornodeinstance.obj
 0001:00040840       ??Gvector@Math@@QBE?AV01@ABV01@@Z 00441840 f i render_win32.release:animatornodeinstance.obj
 0001:000408a0       ??Dvector@Math@@QBE?AV01@M@Z 004418a0 f i render_win32.release:animatornodeinstance.obj
 0001:00040900       ??0quaternion@Math@@QAE@ABVfloat4@1@@Z 00441900 f i render_win32.release:animatornodeinstance.obj
 0001:00040930       ??0quaternion@Math@@QAE@T__m128@@@Z 00441930 f i render_win32.release:animatornodeinstance.obj
 0001:00040960       ??4quaternion@Math@@QAEXABV01@@Z 00441960 f i render_win32.release:animatornodeinstance.obj
 0001:00040980       ?rotationyawpitchroll@quaternion@Math@@SA?AV12@MMM@Z 00441980 f i render_win32.release:animatornodeinstance.obj
 0001:00041200       ?set_position@matrix44@Math@@QAEXABVfloat4@2@@Z 00442200 f i render_win32.release:animatornodeinstance.obj
 0001:00041230       ?scale@matrix44@Math@@QAEXABVfloat4@2@@Z 00442230 f i render_win32.release:animatornodeinstance.obj
 0001:00041570       ?rotationyawpitchroll@matrix44@Math@@SA?AV12@MMM@Z 00442570 f i render_win32.release:animatornodeinstance.obj
 0001:000415c0       ?SecondsToTicks@Timing@@YAHN@Z 004425c0 f i render_win32.release:animatornodeinstance.obj
 0001:000415e0       ?GetType@Variant@Util@@QBE?AW4Type@12@XZ 004425e0 f i render_win32.release:animatornodeinstance.obj
 0001:000415f0       ??4Variant@Util@@QAEXH@Z   004425f0 f i render_win32.release:animatornodeinstance.obj
 0001:00041620       ??4Variant@Util@@QAEXM@Z   00442620 f i render_win32.release:animatornodeinstance.obj
 0001:00041650       ??4Variant@Util@@QAEXABVfloat4@Math@@@Z 00442650 f i render_win32.release:animatornodeinstance.obj
 0001:00041690       ??4Variant@Util@@QAEXABVmatrix44@Math@@@Z 00442690 f i render_win32.release:animatornodeinstance.obj
 0001:00041750       ?SetInt@ShaderVariableInstanceBase@Base@@QAEXH@Z 00442750 f i render_win32.release:animatornodeinstance.obj
 0001:000417b0       ?SetFloat@ShaderVariableInstanceBase@Base@@QAEXM@Z 004427b0 f i render_win32.release:animatornodeinstance.obj
 0001:00041810       ?SetFloat4@ShaderVariableInstanceBase@Base@@QAEXABVfloat4@Math@@@Z 00442810 f i render_win32.release:animatornodeinstance.obj
 0001:00041880       ?SetMatrix@ShaderVariableInstanceBase@Base@@QAEXABVmatrix44@Math@@@Z 00442880 f i render_win32.release:animatornodeinstance.obj
 0001:000418d0       ??2AnimatorNodeInstance@Models@@SAPAXI@Z 004428d0 f i render_win32.release:animatornodeinstance.obj
 0001:000418e0       ??3AnimatorNodeInstance@Models@@SAXPAX@Z 004428e0 f i render_win32.release:animatornodeinstance.obj
 0001:00041900       ?OverwriteAnimationTime@AnimatorNodeInstance@Models@@UAEXN@Z 00442900 f i render_win32.release:animatornodeinstance.obj
 0001:00041920       ?setposition@transform44@Math@@QAEXABVpoint@2@@Z 00442920 f i render_win32.release:animatornodeinstance.obj
 0001:00041950       ?setrotate@transform44@Math@@QAEXABVquaternion@2@@Z 00442950 f i render_win32.release:animatornodeinstance.obj
 0001:00041980       ?setscale@transform44@Math@@QAEXABVvector@2@@Z 00442980 f i render_win32.release:animatornodeinstance.obj
 0001:000419b0       ?SetPosition@TransformNodeInstance@Models@@QAEXABVpoint@Math@@@Z 004429b0 f i render_win32.release:animatornodeinstance.obj
 0001:000419f0       ?SetRotate@TransformNodeInstance@Models@@QAEXABVquaternion@Math@@@Z 004429f0 f i render_win32.release:animatornodeinstance.obj
 0001:00041a30       ?SetScale@TransformNodeInstance@Models@@QAEXABVvector@Math@@@Z 00442a30 f i render_win32.release:animatornodeinstance.obj
 0001:00041a70       ?GetLoadedResource@ManagedResource@Resources@@QBEABV?$Ptr@VResource@Resources@@@@XZ 00442a70 f i render_win32.release:animatornodeinstance.obj
 0001:00041aa0       ?GetStartTime@AnimClip@CoreAnimation@@QBEHXZ 00442aa0 f i render_win32.release:animatornodeinstance.obj
 0001:00041ac0       ?GetClipByIndex@AnimResource@CoreAnimation@@QBEABVAnimClip@2@H@Z 00442ac0 f i render_win32.release:animatornodeinstance.obj
 0001:00041ae0       ?GetAnimResource@ManagedAnimResource@CoreAnimation@@QBEABV?$Ptr@VAnimResource@CoreAnimation@@@@XZ 00442ae0 f i render_win32.release:animatornodeinstance.obj
 0001:00041b20       ?GetLoopType@AnimatorNode@Models@@QBEAAW4Type@AnimLoopType@2@H@Z 00442b20 f i render_win32.release:animatornodeinstance.obj
 0001:00041b50       ?GetShaderVariableSemantic@AnimatorNode@Models@@QBEABVStringAtom@Util@@H@Z 00442b50 f i render_win32.release:animatornodeinstance.obj
 0001:00041b80       ?GetAnimationGroup@AnimatorNode@Models@@QAEHH@Z 00442b80 f i render_win32.release:animatornodeinstance.obj
 0001:00041bb0       ?GetManagedAnimResource@AnimatorNode@Models@@QAEAAV?$Ptr@VManagedAnimResource@CoreAnimation@@@@H@Z 00442bb0 f i render_win32.release:animatornodeinstance.obj
 0001:00041be0       ?GetFloat4KeyArray@AnimatorNode@Models@@QAEAAV?$AnimKeyArray@V?$AnimKey@Vfloat4@Math@@@Models@@@2@H@Z 00442be0 f i render_win32.release:animatornodeinstance.obj
 0001:00041c10       ?GetFloatKeyArray@AnimatorNode@Models@@QAEAAV?$AnimKeyArray@V?$AnimKey@M@Models@@@2@H@Z 00442c10 f i render_win32.release:animatornodeinstance.obj
 0001:00041c40       ?GetIntKeyArray@AnimatorNode@Models@@QAEAAV?$AnimKeyArray@V?$AnimKey@H@Models@@@2@H@Z 00442c40 f i render_win32.release:animatornodeinstance.obj
 0001:00041c70       ?GetAnimationNodeType@AnimatorNode@Models@@QAE?AW4NodeType@12@H@Z 00442c70 f i render_win32.release:animatornodeinstance.obj
 0001:00041ca0       ?GetAllAnimatedNodesPaths@AnimatorNode@Models@@QAE?AV?$Array@VString@Util@@@Util@@H@Z 00442ca0 f i render_win32.release:animatornodeinstance.obj
 0001:00041cd0       ?GetPosArray@AnimatorNode@Models@@QAEAAV?$AnimKeyArray@V?$AnimKey@Vvector@Math@@@Models@@@2@H@Z 00442cd0 f i render_win32.release:animatornodeinstance.obj
 0001:00041d00       ?GetEulerArray@AnimatorNode@Models@@QAEAAV?$AnimKeyArray@V?$AnimKey@Vvector@Math@@@Models@@@2@H@Z 00442d00 f i render_win32.release:animatornodeinstance.obj
 0001:00041d30       ?GetScaleArray@AnimatorNode@Models@@QAEAAV?$AnimKeyArray@V?$AnimKey@Vvector@Math@@@Models@@@2@H@Z 00442d30 f i render_win32.release:animatornodeinstance.obj
 0001:00041d60       ?GetNumAnimSections@AnimatorNode@Models@@QBEHXZ 00442d60 f i render_win32.release:animatornodeinstance.obj
 0001:00041d80       ?GetNumSamples@AnimSampleBuffer@CoreAnimation@@QBEHXZ 00442d80 f i render_win32.release:animatornodeinstance.obj
 0001:00041da0       ?GetSamplesPointer@AnimSampleBuffer@CoreAnimation@@QBEPAVfloat4@Math@@XZ 00442da0 f i render_win32.release:animatornodeinstance.obj
 0001:00041dc0       ?GetRtti@AnimatorNodeInstance@Models@@UBEPAVRtti@Core@@XZ 00442dc0 f   render_win32.release:animatornodeinstance.obj
 0001:00041dd0       ?FactoryCreator@AnimatorNodeInstance@Models@@SAPAVRefCounted@Core@@XZ 00442dd0 f   render_win32.release:animatornodeinstance.obj
 0001:00041de0       ?Create@AnimatorNodeInstance@Models@@SAPAV12@XZ 00442de0 f   render_win32.release:animatornodeinstance.obj
 0001:00041e20       ?RegisterWithFactory@AnimatorNodeInstance@Models@@SA_NXZ 00442e20 f   render_win32.release:animatornodeinstance.obj
 0001:00041f20       ??0AnimatorNodeInstance@Models@@QAE@XZ 00442f20 f   render_win32.release:animatornodeinstance.obj
 0001:00041f70       ??_EAnimatorNodeInstance@Models@@UAEPAXI@Z 00442f70 f i  CIL library: CIL module
 0001:00041f70       ??_GAnimatorNodeInstance@Models@@UAEPAXI@Z 00442f70 f i render_win32.release:animatornodeinstance.obj
 0001:00041fa0       ??1AnimatorNodeInstance@Models@@UAE@XZ 00442fa0 f   render_win32.release:animatornodeinstance.obj
 0001:00041fd0       ?Setup@AnimatorNodeInstance@Models@@UAEXABV?$Ptr@VModelInstance@Models@@@@ABV?$Ptr@VModelNode@Models@@@@ABV?$Ptr@VModelNodeInstance@Models@@@@@Z 00442fd0 f   render_win32.release:animatornodeinstance.obj
 0001:000422d0       ??0AnimatedNode@AnimatorNodeInstance@Models@@QAE@XZ 004432d0 f i render_win32.release:animatornodeinstance.obj
 0001:00042300       ??1AnimatedNode@AnimatorNodeInstance@Models@@QAE@XZ 00443300 f i render_win32.release:animatornodeinstance.obj
 0001:00042320       ?OnShow@AnimatorNodeInstance@Models@@EAEXN@Z 00443320 f   render_win32.release:animatornodeinstance.obj
 0001:00042360       ?OnNotifyCullingVisible@AnimatorNodeInstance@Models@@UAEXHN@Z 00443360 f   render_win32.release:animatornodeinstance.obj
 0001:000423c0       ?Animate@AnimatorNodeInstance@Models@@AAEXN@Z 004433c0 f   render_win32.release:animatornodeinstance.obj
 0001:00044bf0       ??C?$Ptr@VModelInstance@Models@@@@QBEPAVModelInstance@Models@@XZ 00445bf0 f i render_win32.release:animatornodeinstance.obj
 0001:00044c30       ??0?$Ptr@VModelNodeInstance@Models@@@@QAE@XZ 00445c30 f i render_win32.release:animatornodeinstance.obj
 0001:00044c50       ??1?$Ptr@VModelNodeInstance@Models@@@@QAE@XZ 00445c50 f i render_win32.release:animatornodeinstance.obj
 0001:00044c80       ??4?$Ptr@VModelNodeInstance@Models@@@@QAEXABV0@@Z 00445c80 f i render_win32.release:animatornodeinstance.obj
 0001:00044ce0       ??C?$Ptr@VModelNodeInstance@Models@@@@QBEPAVModelNodeInstance@Models@@XZ 00445ce0 f i render_win32.release:animatornodeinstance.obj
 0001:00044d20       ?isvalid@?$Ptr@VModelNodeInstance@Models@@@@QBE_NXZ 00445d20 f i render_win32.release:animatornodeinstance.obj
 0001:00044d40       ??0?$Ptr@VShaderVariableInstance@CoreGraphics@@@@QAE@XZ 00445d40 f i render_win32.release:animatornodeinstance.obj
 0001:00044d60       ??4?$Ptr@VShaderVariableInstance@CoreGraphics@@@@QAEXABV0@@Z 00445d60 f i render_win32.release:animatornodeinstance.obj
 0001:00044dc0       ??C?$Ptr@VShaderVariableInstance@CoreGraphics@@@@QBEPAVShaderVariableInstance@CoreGraphics@@XZ 00445dc0 f i render_win32.release:animatornodeinstance.obj
 0001:00044e00       ?isvalid@?$Ptr@VShaderVariableInstance@CoreGraphics@@@@QBE_NXZ 00445e00 f i render_win32.release:animatornodeinstance.obj
 0001:00044e20       ??0?$Array@V?$Array@UAnimatedNode@AnimatorNodeInstance@Models@@@Util@@@Util@@QAE@XZ 00445e20 f i render_win32.release:animatornodeinstance.obj
 0001:00044e60       ??1?$Array@V?$Array@UAnimatedNode@AnimatorNodeInstance@Models@@@Util@@@Util@@QAE@XZ 00445e60 f i render_win32.release:animatornodeinstance.obj
 0001:00044e80       ??A?$Array@V?$Array@UAnimatedNode@AnimatorNodeInstance@Models@@@Util@@@Util@@QBEAAV?$Array@UAnimatedNode@AnimatorNodeInstance@Models@@@1@H@Z 00445e80 f i render_win32.release:animatornodeinstance.obj
 0001:00044ed0       ?Append@?$Array@V?$Array@UAnimatedNode@AnimatorNodeInstance@Models@@@Util@@@Util@@QAEXABV?$Array@UAnimatedNode@AnimatorNodeInstance@Models@@@2@@Z 00445ed0 f i render_win32.release:animatornodeinstance.obj
 0001:00044f50       ??0?$Ptr@VTransformNodeInstance@Models@@@@QAE@ABV0@@Z 00445f50 f i render_win32.release:animatornodeinstance.obj
 0001:00044f90       ??1?$Ptr@VTransformNodeInstance@Models@@@@QAE@XZ 00445f90 f i render_win32.release:animatornodeinstance.obj
 0001:00044fc0       ??C?$Ptr@VTransformNodeInstance@Models@@@@QBEPAVTransformNodeInstance@Models@@XZ 00445fc0 f i render_win32.release:animatornodeinstance.obj
 0001:00045000       ??A?$FixedArray@VAnimClip@CoreAnimation@@@Util@@QBEAAVAnimClip@CoreAnimation@@H@Z 00446000 f i render_win32.release:animatornodeinstance.obj
 0001:00045050       ??$downcast@VAnimResource@CoreAnimation@@@?$Ptr@VResource@Resources@@@@QBEABV?$Ptr@VAnimResource@CoreAnimation@@@@XZ 00446050 f i render_win32.release:animatornodeinstance.obj
 0001:00045060       ?Sample@?$AnimKeyArray@V?$AnimKey@Vvector@Math@@@Models@@@Models@@QAE_NMW4Type@AnimLoopType@2@AAV?$AnimKey@Vvector@Math@@@2@@Z 00446060 f i render_win32.release:animatornodeinstance.obj
 0001:00045230       ?Sample@?$AnimKeyArray@V?$AnimKey@Vfloat4@Math@@@Models@@@Models@@QAE_NMW4Type@AnimLoopType@2@AAV?$AnimKey@Vfloat4@Math@@@2@@Z 00446230 f i render_win32.release:animatornodeinstance.obj
 0001:00045400       ?Sample@?$AnimKeyArray@V?$AnimKey@M@Models@@@Models@@QAE_NMW4Type@AnimLoopType@2@AAV?$AnimKey@M@2@@Z 00446400 f i render_win32.release:animatornodeinstance.obj
 0001:000455d0       ?Sample@?$AnimKeyArray@V?$AnimKey@H@Models@@@Models@@QAE_NMW4Type@AnimLoopType@2@AAV?$AnimKey@H@2@@Z 004465d0 f i render_win32.release:animatornodeinstance.obj
 0001:000457a0       ??C?$Ptr@VManagedAnimResource@CoreAnimation@@@@QBEPAVManagedAnimResource@CoreAnimation@@XZ 004467a0 f i render_win32.release:animatornodeinstance.obj
 0001:000457e0       ??A?$Array@UAnimSection@AnimatorNode@Models@@@Util@@QBEAAUAnimSection@AnimatorNode@Models@@H@Z 004467e0 f i render_win32.release:animatornodeinstance.obj
 0001:00045830       ?Size@?$Array@UAnimSection@AnimatorNode@Models@@@Util@@QBEHXZ 00446830 f i render_win32.release:animatornodeinstance.obj
 0001:00045850       ??C?$Ptr@VAnimResource@CoreAnimation@@@@QBEPAVAnimResource@CoreAnimation@@XZ 00446850 f i render_win32.release:animatornodeinstance.obj
 0001:00045890       ?isvalid@?$Ptr@VAnimResource@CoreAnimation@@@@QBE_NXZ 00446890 f i render_win32.release:animatornodeinstance.obj
 0001:000458b0       ??0?$Ptr@VAnimSampleBuffer@CoreAnimation@@@@QAE@PAVAnimSampleBuffer@CoreAnimation@@@Z 004468b0 f i render_win32.release:animatornodeinstance.obj
 0001:000458f0       ??1?$Ptr@VAnimSampleBuffer@CoreAnimation@@@@QAE@XZ 004468f0 f i render_win32.release:animatornodeinstance.obj
 0001:00045920       ??C?$Ptr@VAnimSampleBuffer@CoreAnimation@@@@QBEPAVAnimSampleBuffer@CoreAnimation@@XZ 00446920 f i render_win32.release:animatornodeinstance.obj
 0001:00045960       ??$cast@VAnimatorNode@Models@@@?$Ptr@VModelNode@Models@@@@QBEABV?$Ptr@VAnimatorNode@Models@@@@XZ 00446960 f i render_win32.release:animatornodeinstance.obj
 0001:00045970       ??C?$Ptr@VAnimatorNode@Models@@@@QBEPAVAnimatorNode@Models@@XZ 00446970 f i render_win32.release:animatornodeinstance.obj
 0001:000459b0       ??0?$Array@UAnimatedNode@AnimatorNodeInstance@Models@@@Util@@QAE@XZ 004469b0 f i render_win32.release:animatornodeinstance.obj
 0001:000459f0       ??1?$Array@UAnimatedNode@AnimatorNodeInstance@Models@@@Util@@QAE@XZ 004469f0 f i render_win32.release:animatornodeinstance.obj
 0001:00045a10       ??A?$Array@UAnimatedNode@AnimatorNodeInstance@Models@@@Util@@QBEAAUAnimatedNode@AnimatorNodeInstance@Models@@H@Z 00446a10 f i render_win32.release:animatornodeinstance.obj
 0001:00045a60       ?Append@?$Array@UAnimatedNode@AnimatorNodeInstance@Models@@@Util@@QAEXABUAnimatedNode@AnimatorNodeInstance@Models@@@Z 00446a60 f i render_win32.release:animatornodeinstance.obj
 0001:00045af0       ?Size@?$Array@UAnimatedNode@AnimatorNodeInstance@Models@@@Util@@QBEHXZ 00446af0 f i render_win32.release:animatornodeinstance.obj
 0001:00045b10       ??0?$Ptr@VStateNodeInstance@Models@@@@QAE@ABV0@@Z 00446b10 f i render_win32.release:animatornodeinstance.obj
 0001:00045b50       ??1?$Ptr@VStateNodeInstance@Models@@@@QAE@XZ 00446b50 f i render_win32.release:animatornodeinstance.obj
 0001:00045b80       ??C?$Ptr@VStateNodeInstance@Models@@@@QBEPAVStateNodeInstance@Models@@XZ 00446b80 f i render_win32.release:animatornodeinstance.obj
 0001:00045bc0       ??$cast@VStateNodeInstance@Models@@@?$Ptr@VModelNodeInstance@Models@@@@QBEABV?$Ptr@VStateNodeInstance@Models@@@@XZ 00446bc0 f i render_win32.release:animatornodeinstance.obj
 0001:00045bd0       ??$downcast@VStateNodeInstance@Models@@@?$Ptr@VModelNodeInstance@Models@@@@QBEABV?$Ptr@VStateNodeInstance@Models@@@@XZ 00446bd0 f i render_win32.release:animatornodeinstance.obj
 0001:00045be0       ??$downcast@VTransformNodeInstance@Models@@@?$Ptr@VModelNodeInstance@Models@@@@QBEABV?$Ptr@VTransformNodeInstance@Models@@@@XZ 00446be0 f i render_win32.release:animatornodeinstance.obj
 0001:00045bf0       ??0?$AnimKey@Vfloat4@Math@@@Models@@QAE@XZ 00446bf0 f i render_win32.release:animatornodeinstance.obj
 0001:00045c10       ?GetValue@?$AnimKey@Vfloat4@Math@@@Models@@QBEABVfloat4@Math@@XZ 00446c10 f i render_win32.release:animatornodeinstance.obj
 0001:00045c30       ??0?$AnimKey@M@Models@@QAE@XZ 00446c30 f i render_win32.release:animatornodeinstance.obj
 0001:00045c50       ?GetValue@?$AnimKey@M@Models@@QBEABMXZ 00446c50 f i render_win32.release:animatornodeinstance.obj
 0001:00045c70       ??0?$AnimKey@H@Models@@QAE@XZ 00446c70 f i render_win32.release:animatornodeinstance.obj
 0001:00045c90       ?GetValue@?$AnimKey@H@Models@@QBEABHXZ 00446c90 f i render_win32.release:animatornodeinstance.obj
 0001:00045cb0       ??0?$AnimKey@Vvector@Math@@@Models@@QAE@XZ 00446cb0 f i render_win32.release:animatornodeinstance.obj
 0001:00045d50       ?GetValue@?$AnimKey@Vvector@Math@@@Models@@QBEABVvector@Math@@XZ 00446d50 f i render_win32.release:animatornodeinstance.obj
 0001:00045d70       ??4AnimatedNode@AnimatorNodeInstance@Models@@QAEAAU012@ABU012@@Z 00446d70 f i render_win32.release:animatornodeinstance.obj
 0001:00045da0       ?Delete@?$Array@V?$Array@UAnimatedNode@AnimatorNodeInstance@Models@@@Util@@@Util@@AAEXXZ 00446da0 f i render_win32.release:animatornodeinstance.obj
 0001:00045e10       ?Grow@?$Array@V?$Array@UAnimatedNode@AnimatorNodeInstance@Models@@@Util@@@Util@@AAEXXZ 00446e10 f i render_win32.release:animatornodeinstance.obj
 0001:00045e90       ??4?$Array@UAnimatedNode@AnimatorNodeInstance@Models@@@Util@@QAEXABV01@@Z 00446e90 f i render_win32.release:animatornodeinstance.obj
 0001:00045fa0       ?Delete@?$Array@UAnimatedNode@AnimatorNodeInstance@Models@@@Util@@AAEXXZ 00446fa0 f i render_win32.release:animatornodeinstance.obj
 0001:00046010       ?Grow@?$Array@UAnimatedNode@AnimatorNodeInstance@Models@@@Util@@AAEXXZ 00447010 f i render_win32.release:animatornodeinstance.obj
 0001:00046090       ??A?$Array@V?$AnimKey@Vvector@Math@@@Models@@@Util@@QBEAAV?$AnimKey@Vvector@Math@@@Models@@H@Z 00447090 f i render_win32.release:animatornodeinstance.obj
 0001:000460e0       ?Size@?$Array@V?$AnimKey@Vvector@Math@@@Models@@@Util@@QBEHXZ 004470e0 f i render_win32.release:animatornodeinstance.obj
 0001:00046100       ?Front@?$Array@V?$AnimKey@Vvector@Math@@@Models@@@Util@@QBEAAV?$AnimKey@Vvector@Math@@@Models@@XZ 00447100 f i render_win32.release:animatornodeinstance.obj
 0001:00046140       ?Back@?$Array@V?$AnimKey@Vvector@Math@@@Models@@@Util@@QBEAAV?$AnimKey@Vvector@Math@@@Models@@XZ 00447140 f i render_win32.release:animatornodeinstance.obj
 0001:00046190       ?SetTime@?$AnimKey@Vvector@Math@@@Models@@QAEXM@Z 00447190 f i render_win32.release:animatornodeinstance.obj
 0001:000461b0       ?GetTime@?$AnimKey@Vvector@Math@@@Models@@QBEMXZ 004471b0 f i render_win32.release:animatornodeinstance.obj
 0001:000461c0       ?Lerp@?$AnimKey@Vvector@Math@@@Models@@QAEXABVvector@Math@@0M@Z 004471c0 f i render_win32.release:animatornodeinstance.obj
 0001:000462e0       ??A?$Array@V?$AnimKey@Vfloat4@Math@@@Models@@@Util@@QBEAAV?$AnimKey@Vfloat4@Math@@@Models@@H@Z 004472e0 f i render_win32.release:animatornodeinstance.obj
 0001:00046330       ?Size@?$Array@V?$AnimKey@Vfloat4@Math@@@Models@@@Util@@QBEHXZ 00447330 f i render_win32.release:animatornodeinstance.obj
 0001:00046350       ?Front@?$Array@V?$AnimKey@Vfloat4@Math@@@Models@@@Util@@QBEAAV?$AnimKey@Vfloat4@Math@@@Models@@XZ 00447350 f i render_win32.release:animatornodeinstance.obj
 0001:00046390       ?Back@?$Array@V?$AnimKey@Vfloat4@Math@@@Models@@@Util@@QBEAAV?$AnimKey@Vfloat4@Math@@@Models@@XZ 00447390 f i render_win32.release:animatornodeinstance.obj
 0001:000463e0       ?SetTime@?$AnimKey@Vfloat4@Math@@@Models@@QAEXM@Z 004473e0 f i render_win32.release:animatornodeinstance.obj
 0001:00046400       ?GetTime@?$AnimKey@Vfloat4@Math@@@Models@@QBEMXZ 00447400 f i render_win32.release:animatornodeinstance.obj
 0001:00046410       ?Lerp@?$AnimKey@Vfloat4@Math@@@Models@@QAEXABVfloat4@Math@@0M@Z 00447410 f i render_win32.release:animatornodeinstance.obj
 0001:00046530       ??A?$Array@V?$AnimKey@M@Models@@@Util@@QBEAAV?$AnimKey@M@Models@@H@Z 00447530 f i render_win32.release:animatornodeinstance.obj
 0001:00046580       ?Size@?$Array@V?$AnimKey@M@Models@@@Util@@QBEHXZ 00447580 f i render_win32.release:animatornodeinstance.obj
 0001:000465a0       ?Front@?$Array@V?$AnimKey@M@Models@@@Util@@QBEAAV?$AnimKey@M@Models@@XZ 004475a0 f i render_win32.release:animatornodeinstance.obj
 0001:000465e0       ?Back@?$Array@V?$AnimKey@M@Models@@@Util@@QBEAAV?$AnimKey@M@Models@@XZ 004475e0 f i render_win32.release:animatornodeinstance.obj
 0001:00046630       ?SetTime@?$AnimKey@M@Models@@QAEXM@Z 00447630 f i render_win32.release:animatornodeinstance.obj
 0001:00046650       ?GetTime@?$AnimKey@M@Models@@QBEMXZ 00447650 f i render_win32.release:animatornodeinstance.obj
 0001:00046660       ?Lerp@?$AnimKey@M@Models@@QAEXABM0M@Z 00447660 f i render_win32.release:animatornodeinstance.obj
 0001:00046690       ??A?$Array@V?$AnimKey@H@Models@@@Util@@QBEAAV?$AnimKey@H@Models@@H@Z 00447690 f i render_win32.release:animatornodeinstance.obj
 0001:000466e0       ?Size@?$Array@V?$AnimKey@H@Models@@@Util@@QBEHXZ 004476e0 f i render_win32.release:animatornodeinstance.obj
 0001:00046700       ?Front@?$Array@V?$AnimKey@H@Models@@@Util@@QBEAAV?$AnimKey@H@Models@@XZ 00447700 f i render_win32.release:animatornodeinstance.obj
 0001:00046740       ?Back@?$Array@V?$AnimKey@H@Models@@@Util@@QBEAAV?$AnimKey@H@Models@@XZ 00447740 f i render_win32.release:animatornodeinstance.obj
 0001:00046790       ?SetTime@?$AnimKey@H@Models@@QAEXM@Z 00447790 f i render_win32.release:animatornodeinstance.obj
 0001:000467b0       ?GetTime@?$AnimKey@H@Models@@QBEMXZ 004477b0 f i render_win32.release:animatornodeinstance.obj
 0001:000467c0       ?Lerp@?$AnimKey@H@Models@@QAEXABH0M@Z 004477c0 f i render_win32.release:animatornodeinstance.obj
 0001:00046800       ??_E?$Array@UAnimatedNode@AnimatorNodeInstance@Models@@@Util@@QAEPAXI@Z 00447800 f i render_win32.release:animatornodeinstance.obj
 0001:000468a0       ??_EAnimatedNode@AnimatorNodeInstance@Models@@QAEPAXI@Z 004478a0 f i render_win32.release:animatornodeinstance.obj
 0001:00046950       ?GrowTo@?$Array@V?$Array@UAnimatedNode@AnimatorNodeInstance@Models@@@Util@@@Util@@AAEXH@Z 00447950 f i render_win32.release:animatornodeinstance.obj
 0001:00046a70       ?Destroy@?$Array@UAnimatedNode@AnimatorNodeInstance@Models@@@Util@@AAEXPAUAnimatedNode@AnimatorNodeInstance@Models@@@Z 00447a70 f i render_win32.release:animatornodeinstance.obj
 0001:00046ab0       ?Copy@?$Array@UAnimatedNode@AnimatorNodeInstance@Models@@@Util@@AAEXABV12@@Z 00447ab0 f i render_win32.release:animatornodeinstance.obj
 0001:00046c10       ?GrowTo@?$Array@UAnimatedNode@AnimatorNodeInstance@Models@@@Util@@AAEXH@Z 00447c10 f i render_win32.release:animatornodeinstance.obj
 0001:00046d60       ??_GAnimatedNode@AnimatorNodeInstance@Models@@QAEPAXI@Z 00447d60 f i render_win32.release:animatornodeinstance.obj
 0001:00046da0       ?floor@@YAMM@Z             00447da0 f i render_win32.release:animatornodeinstance.obj
 0001:00046dc0       ?XMMatrixRotationQuaternion@@YA?AU_XMMATRIX@@T__m128@@@Z 00447dc0 f i render_win32.release:animatornodeinstance.obj
 0001:00047290       ?XMMatrixRotationRollPitchYawFromVector@@YA?AU_XMMATRIX@@T__m128@@@Z 00448290 f i render_win32.release:animatornodeinstance.obj
 0001:00047ff0       ?XMMatrixRotationRollPitchYaw@@YA?AU_XMMATRIX@@MMM@Z 00448ff0 f i render_win32.release:animatornodeinstance.obj
 0001:000480c0       ?XMQuaternionRotationRollPitchYawFromVector@@YA?AT__m128@@T1@@Z 004490c0 f i render_win32.release:animatornodeinstance.obj
 0001:000488b0       ?XMQuaternionRotationRollPitchYaw@@YA?AT__m128@@MMM@Z 004498b0 f i render_win32.release:animatornodeinstance.obj
 0001:00049120       ?XMVectorMultiplyAdd@@YA?AT__m128@@T1@00@Z 0044a120 f i render_win32.release:animatornodeinstance.obj
 0001:00049170       ?XMVectorSinCos@@YAXPAT__m128@@0T1@@Z 0044a170 f i render_win32.release:animatornodeinstance.obj
 0001:0004a490       ??BXMVECTORI32@@QBE?AT__m128i@@XZ 0044b490 f i render_win32.release:animatornodeinstance.obj
 0001:0004a4b0       ??BXMVECTORF32@@QBE?AT__m128i@@XZ 0044b4b0 f i render_win32.release:animatornodeinstance.obj
 0001:0004a4d0       ?XMVectorRound@@YA?AT__m128@@T1@@Z 0044b4d0 f i render_win32.release:animatornodeinstance.obj
 0001:0004a610       ?XMVectorModAngles@@YA?AT__m128@@T1@@Z 0044b610 f i render_win32.release:animatornodeinstance.obj
 0001:0004a810       ??BXMVECTORU8@@QBE?AT__m128@@XZ 0044b810 f i render_win32.release:animatornodeinstance.obj
 0001:0004a840       ?XMVectorPermute@@YA?AT__m128@@T1@00@Z 0044b840 f i render_win32.release:animatornodeinstance.obj
 0001:0004a8f0       ?XMVectorGetZPtr@@YAXPAMT__m128@@@Z 0044b8f0 f i render_win32.release:animatornodeinstance.obj
 0001:0004a930       ?XMVectorSubtract@@YA?AT__m128@@T1@0@Z 0044b930 f i render_win32.release:animatornodeinstance.obj
 0001:0004a960       ?XMVectorAdd@@YA?AT__m128@@T1@0@Z 0044b960 f i render_win32.release:animatornodeinstance.obj
 0001:0004a990       ?XMVectorMultiply@@YA?AT__m128@@T1@0@Z 0044b990 f i render_win32.release:animatornodeinstance.obj
 0001:0004a9c0       ?XMStoreFloat4@@YAXPAU_XMFLOAT4@@T__m128@@@Z 0044b9c0 f i render_win32.release:animatornodeinstance.obj
 0001:0004a9e0       _floorf                    0044b9e0 f i render_win32.release:animatornodeinstance.obj
 0001:0004aa00       ??4StringAtom@Util@@QAEXABVString@1@@Z 0044ba00 f i render_win32.release:poolresourcemapper.obj
 0001:0004aa40       ?Instance@IoServer@IO@@SAPAV12@XZ 0044ba40 f i render_win32.release:poolresourcemapper.obj
 0001:0004aa80       ?GetSize@ResourceInfo@Resources@@QBEIXZ 0044ba80 f i render_win32.release:poolresourcemapper.obj
 0001:0004aaa0       ?SetSize@ResourceInfo@Resources@@QAEXI@Z 0044baa0 f i render_win32.release:poolresourcemapper.obj
 0001:0004aac0       ?GetResourceType@StreamingResourceMapper@Resources@@UBEABVRtti@Core@@XZ 0044bac0 f i render_win32.release:poolresourcemapper.obj
 0001:0004aae0       ?SetResourceType@StreamingResourceMapper@Resources@@UAEXABVRtti@Core@@@Z 0044bae0 f i render_win32.release:poolresourcemapper.obj
 0001:0004ab00       ??2PoolResourceMapper@Resources@@SAPAXI@Z 0044bb00 f i render_win32.release:poolresourcemapper.obj
 0001:0004ab10       ??3PoolResourceMapper@Resources@@SAXPAX@Z 0044bb10 f i render_win32.release:poolresourcemapper.obj
 0001:0004ab30       ?GetNumSlots@ResourcePool@Resources@@QBEHXZ 0044bb30 f i render_win32.release:poolresourcemapper.obj
 0001:0004ab50       ?SetId@ResourcePool@Resources@@QAEXABVStringAtom@Util@@@Z 0044bb50 f i render_win32.release:poolresourcemapper.obj
 0001:0004ab70       ?GetInfo@ResourcePool@Resources@@QBEPBVResourceInfo@2@XZ 0044bb70 f i render_win32.release:poolresourcemapper.obj
 0001:0004ab90       ?GetPoolSize@ResourcePool@Resources@@QBEIXZ 0044bb90 f i render_win32.release:poolresourcemapper.obj
 0001:0004abb0       ?SetNumSlots@ResourcePool@Resources@@QAEXH@Z 0044bbb0 f i render_win32.release:poolresourcemapper.obj
 0001:0004abd0       ?SetInfo@ResourcePool@Resources@@QAEXPAVResourceInfo@2@@Z 0044bbd0 f i render_win32.release:poolresourcemapper.obj
 0001:0004abf0       ?SetFrameIndex@ResourcePool@Resources@@QAEXH@Z 0044bbf0 f i render_win32.release:poolresourcemapper.obj
 0001:0004ac10       ?ResetDebugStats@ResourcePool@Resources@@QAEX_N@Z 0044bc10 f i render_win32.release:poolresourcemapper.obj
 0001:0004ac70       ?GetId@ResourcePool@Resources@@QBEABVStringAtom@Util@@XZ 0044bc70 f i render_win32.release:poolresourcemapper.obj
 0001:0004ac90       ??1D3D9TextureInfo@Resources@@QAE@XZ 0044bc90 f i render_win32.release:poolresourcemapper.obj
 0001:0004acb0       ?IsEqual@D3D9TextureInfo@Resources@@UBE_NPBV12@@Z 0044bcb0 f i render_win32.release:poolresourcemapper.obj
 0001:0004ad30       ?IsEqual@D3D9TextureInfo@Resources@@UBE_NPBVResourceInfo@2@@Z 0044bd30 f i render_win32.release:poolresourcemapper.obj
 0001:0004ad50       ?SetType@D3D9TextureInfo@Resources@@QAEXW4Type@TextureBase@Base@@@Z 0044bd50 f i render_win32.release:poolresourcemapper.obj
 0001:0004ad70       ?GetType@D3D9TextureInfo@Resources@@QBE?AW4Type@TextureBase@Base@@XZ 0044bd70 f i render_win32.release:poolresourcemapper.obj
 0001:0004ad90       ?SetWidth@D3D9TextureInfo@Resources@@QAEXI@Z 0044bd90 f i render_win32.release:poolresourcemapper.obj
 0001:0004adb0       ?GetWidth@D3D9TextureInfo@Resources@@QBEIXZ 0044bdb0 f i render_win32.release:poolresourcemapper.obj
 0001:0004add0       ?SetHeight@D3D9TextureInfo@Resources@@QAEXI@Z 0044bdd0 f i render_win32.release:poolresourcemapper.obj
 0001:0004adf0       ?GetHeight@D3D9TextureInfo@Resources@@QBEIXZ 0044bdf0 f i render_win32.release:poolresourcemapper.obj
 0001:0004ae10       ?SetDepth@D3D9TextureInfo@Resources@@QAEXI@Z 0044be10 f i render_win32.release:poolresourcemapper.obj
 0001:0004ae30       ?GetDepth@D3D9TextureInfo@Resources@@QBEIXZ 0044be30 f i render_win32.release:poolresourcemapper.obj
 0001:0004ae50       ?SetMipLevels@D3D9TextureInfo@Resources@@QAEXI@Z 0044be50 f i render_win32.release:poolresourcemapper.obj
 0001:0004ae70       ?GetMipLevels@D3D9TextureInfo@Resources@@QBEIXZ 0044be70 f i render_win32.release:poolresourcemapper.obj
 0001:0004ae90       ?SetPixelFormat@D3D9TextureInfo@Resources@@QAEXW4Code@PixelFormat@CoreGraphics@@@Z 0044be90 f i render_win32.release:poolresourcemapper.obj
 0001:0004aeb0       ?GetPixelFormat@D3D9TextureInfo@Resources@@QBE?AW4Code@PixelFormat@CoreGraphics@@XZ 0044beb0 f i render_win32.release:poolresourcemapper.obj
 0001:0004aed0       ?GetRtti@PoolResourceMapper@Resources@@UBEPAVRtti@Core@@XZ 0044bed0 f   render_win32.release:poolresourcemapper.obj
 0001:0004aee0       ?FactoryCreator@PoolResourceMapper@Resources@@SAPAVRefCounted@Core@@XZ 0044bee0 f   render_win32.release:poolresourcemapper.obj
 0001:0004aef0       ?Create@PoolResourceMapper@Resources@@SAPAV12@XZ 0044bef0 f   render_win32.release:poolresourcemapper.obj
 0001:0004af30       ?RegisterWithFactory@PoolResourceMapper@Resources@@SA_NXZ 0044bf30 f   render_win32.release:poolresourcemapper.obj
 0001:0004b030       ??0PoolResourceMapper@Resources@@QAE@XZ 0044c030 f   render_win32.release:poolresourcemapper.obj
 0001:0004b070       ??_GPoolResourceMapper@Resources@@UAEPAXI@Z 0044c070 f i render_win32.release:poolresourcemapper.obj
 0001:0004b070       ??_EPoolResourceMapper@Resources@@UAEPAXI@Z 0044c070 f i  CIL library: CIL module
 0001:0004b0a0       ??1PoolResourceMapper@Resources@@UAE@XZ 0044c0a0 f   render_win32.release:poolresourcemapper.obj
 0001:0004b0e0       ?SetDefaultPoolScheduler@PoolResourceMapper@Resources@@QAEXABV?$Ptr@VPoolScheduler@Resources@@@@@Z 0044c0e0 f   render_win32.release:poolresourcemapper.obj
 0001:0004b100       ?SetupPools@PoolResourceMapper@Resources@@UAEXABV?$Dictionary@VStringAtom@Util@@UPoolSetupInfo@Resources@@@Util@@@Z 0044c100 f   render_win32.release:poolresourcemapper.obj
 0001:0004b230       ?OnAttachToResourceManager@PoolResourceMapper@Resources@@UAEXXZ 0044c230 f   render_win32.release:poolresourcemapper.obj
 0001:0004b2c0       ?OnRemoveFromResourceManager@PoolResourceMapper@Resources@@UAEXXZ 0044c2c0 f   render_win32.release:poolresourcemapper.obj
 0001:0004b330       ?OnPrepare@PoolResourceMapper@Resources@@UAEX_N@Z 0044c330 f   render_win32.release:poolresourcemapper.obj
 0001:0004b3c0       ?Reset@PoolResourceMapper@Resources@@UAEXXZ 0044c3c0 f   render_win32.release:poolresourcemapper.obj
 0001:0004b420       ?GetAllocatedMemory@PoolResourceMapper@Resources@@UAEIXZ 0044c420 f   render_win32.release:poolresourcemapper.obj
 0001:0004b490       ?GetUsedMemory@PoolResourceMapper@Resources@@UAEIXZ 0044c490 f   render_win32.release:poolresourcemapper.obj
 0001:0004b4f0       ?WritePoolsToXML@PoolResourceMapper@Resources@@UAEXABVURI@IO@@@Z 0044c4f0 f   render_win32.release:poolresourcemapper.obj
 0001:0004bd90       ?GetFittingPoolIndex@PoolResourceMapper@Resources@@IBEHPBVResourceInfo@2@@Z 0044cd90 f   render_win32.release:poolresourcemapper.obj
 0001:0004be10       ?NoSlotFound@PoolResourceMapper@Resources@@IAEXABV?$Ptr@VManagedResource@Resources@@@@H@Z 0044ce10 f   render_win32.release:poolresourcemapper.obj
 0001:0004beb0       ?GetPoolForDebug@PoolResourceMapper@Resources@@QBEABV?$Ptr@VResourcePool@Resources@@@@ABVStringAtom@Util@@@Z 0044ceb0 f   render_win32.release:poolresourcemapper.obj
 0001:0004bf50       ?ReadTexturePoolFromXML@PoolResourceMapper@Resources@@SAXABVURI@IO@@AAV?$Dictionary@VStringAtom@Util@@UPoolSetupInfo@Resources@@@Util@@@Z 0044cf50 f   render_win32.release:poolresourcemapper.obj
 0001:0004c430       ??0TextureInfo@Resources@@QAE@XZ 0044d430 f i render_win32.release:poolresourcemapper.obj
 0001:0004c450       ?WriteTexturePoolToXML@PoolResourceMapper@Resources@@SAXABVURI@IO@@ABV?$Dictionary@VStringAtom@Util@@UPoolSetupInfo@Resources@@@Util@@@Z 0044d450 f   render_win32.release:poolresourcemapper.obj
 0001:0004cce0       ??1?$Ptr@VStream@IO@@@@QAE@XZ 0044dce0 f i render_win32.release:poolresourcemapper.obj
 0001:0004cd10       ??C?$Ptr@VStream@IO@@@@QBEPAVStream@IO@@XZ 0044dd10 f i render_win32.release:poolresourcemapper.obj
 0001:0004cd50       ?isvalid@?$Ptr@VStream@IO@@@@QBE_NXZ 0044dd50 f i render_win32.release:poolresourcemapper.obj
 0001:0004cd70       ??4?$Ptr@VResourceCreator@Resources@@@@QAEXPAVResourceCreator@Resources@@@Z 0044dd70 f i render_win32.release:poolresourcemapper.obj
 0001:0004cdd0       ??0?$Array@V?$Ptr@VResourcePool@Resources@@@@@Util@@QAE@XZ 0044ddd0 f i render_win32.release:poolresourcemapper.obj
 0001:0004ce10       ??1?$Array@V?$Ptr@VResourcePool@Resources@@@@@Util@@QAE@XZ 0044de10 f i render_win32.release:poolresourcemapper.obj
 0001:0004ce30       ??A?$Array@V?$Ptr@VResourcePool@Resources@@@@@Util@@QBEAAV?$Ptr@VResourcePool@Resources@@@@H@Z 0044de30 f i render_win32.release:poolresourcemapper.obj
 0001:0004ce80       ?Append@?$Array@V?$Ptr@VResourcePool@Resources@@@@@Util@@QAEXABV?$Ptr@VResourcePool@Resources@@@@@Z 0044de80 f i render_win32.release:poolresourcemapper.obj
 0001:0004cf00       ?Size@?$Array@V?$Ptr@VResourcePool@Resources@@@@@Util@@QBEHXZ 0044df00 f i render_win32.release:poolresourcemapper.obj
 0001:0004cf20       ??0?$Ptr@VPoolScheduler@Resources@@@@QAE@XZ 0044df20 f i render_win32.release:poolresourcemapper.obj
 0001:0004cf40       ??1?$Ptr@VPoolScheduler@Resources@@@@QAE@XZ 0044df40 f i render_win32.release:poolresourcemapper.obj
 0001:0004cf70       ??4?$Ptr@VPoolScheduler@Resources@@@@QAEXPAVPoolScheduler@Resources@@@Z 0044df70 f i render_win32.release:poolresourcemapper.obj
 0001:0004cfd0       ??4?$Ptr@VPoolScheduler@Resources@@@@QAEXABV0@@Z 0044dfd0 f i render_win32.release:poolresourcemapper.obj
 0001:0004d030       ?Size@?$Array@V?$Ptr@VResourceSlot@Resources@@@@@Util@@QBEHXZ 0044e030 f i render_win32.release:poolresourcemapper.obj
 0001:0004d050       ?Clear@?$Array@VStringAtom@Util@@@Util@@QAEXXZ 0044e050 f i render_win32.release:poolresourcemapper.obj
 0001:0004d0a0       ?Size@?$Dictionary@VStringAtom@Util@@UPoolSetupInfo@Resources@@@Util@@QBEHXZ 0044e0a0 f i render_win32.release:poolresourcemapper.obj
 0001:0004d0c0       ?Add@?$Dictionary@VStringAtom@Util@@UPoolSetupInfo@Resources@@@Util@@QAEXABVStringAtom@2@ABUPoolSetupInfo@Resources@@@Z 0044e0c0 f i render_win32.release:poolresourcemapper.obj
 0001:0004d110       ?KeyAtIndex@?$Dictionary@VStringAtom@Util@@UPoolSetupInfo@Resources@@@Util@@QBEABVStringAtom@2@H@Z 0044e110 f i render_win32.release:poolresourcemapper.obj
 0001:0004d160       ?ValueAtIndex@?$Dictionary@VStringAtom@Util@@UPoolSetupInfo@Resources@@@Util@@QBEABUPoolSetupInfo@Resources@@H@Z 0044e160 f i render_win32.release:poolresourcemapper.obj
 0001:0004d1b0       ??0?$Ptr@VResourcePool@Resources@@@@QAE@XZ 0044e1b0 f i render_win32.release:poolresourcemapper.obj
 0001:0004d1d0       ??1?$Ptr@VResourcePool@Resources@@@@QAE@XZ 0044e1d0 f i render_win32.release:poolresourcemapper.obj
 0001:0004d200       ??4?$Ptr@VResourcePool@Resources@@@@QAEXPAVResourcePool@Resources@@@Z 0044e200 f i render_win32.release:poolresourcemapper.obj
 0001:0004d260       ??C?$Ptr@VResourcePool@Resources@@@@QBEPAVResourcePool@Resources@@XZ 0044e260 f i render_win32.release:poolresourcemapper.obj
 0001:0004d2a0       ??0?$Ptr@VXmlWriter@IO@@@@QAE@PAVXmlWriter@IO@@@Z 0044e2a0 f i render_win32.release:poolresourcemapper.obj
 0001:0004d2e0       ??1?$Ptr@VXmlWriter@IO@@@@QAE@XZ 0044e2e0 f i render_win32.release:poolresourcemapper.obj
 0001:0004d310       ??C?$Ptr@VXmlWriter@IO@@@@QBEPAVXmlWriter@IO@@XZ 0044e310 f i render_win32.release:poolresourcemapper.obj
 0001:0004d350       ??0?$Ptr@VXmlReader@IO@@@@QAE@PAVXmlReader@IO@@@Z 0044e350 f i render_win32.release:poolresourcemapper.obj
 0001:0004d390       ??1?$Ptr@VXmlReader@IO@@@@QAE@XZ 0044e390 f i render_win32.release:poolresourcemapper.obj
 0001:0004d3c0       ??C?$Ptr@VXmlReader@IO@@@@QBEPAVXmlReader@IO@@XZ 0044e3c0 f i render_win32.release:poolresourcemapper.obj
 0001:0004d400       ?Delete@?$Array@V?$Ptr@VResourcePool@Resources@@@@@Util@@AAEXXZ 0044e400 f i render_win32.release:poolresourcemapper.obj
 0001:0004d470       ?Grow@?$Array@V?$Ptr@VResourcePool@Resources@@@@@Util@@AAEXXZ 0044e470 f i render_win32.release:poolresourcemapper.obj
 0001:0004d4f0       ??4?$Ptr@VResourcePool@Resources@@@@QAEXABV0@@Z 0044e4f0 f i render_win32.release:poolresourcemapper.obj
 0001:0004d550       ?Destroy@?$Array@VStringAtom@Util@@@Util@@AAEXPAVStringAtom@2@@Z 0044e550 f i render_win32.release:poolresourcemapper.obj
 0001:0004d560       ??A?$Array@V?$KeyValuePair@VStringAtom@Util@@UPoolSetupInfo@Resources@@@Util@@@Util@@QBEAAV?$KeyValuePair@VStringAtom@Util@@UPoolSetupInfo@Resources@@@1@H@Z 0044e560 f i render_win32.release:poolresourcemapper.obj
 0001:0004d5b0       ?Append@?$Array@V?$KeyValuePair@VStringAtom@Util@@UPoolSetupInfo@Resources@@@Util@@@Util@@QAEXABV?$KeyValuePair@VStringAtom@Util@@UPoolSetupInfo@Resources@@@2@@Z 0044e5b0 f i render_win32.release:poolresourcemapper.obj
 0001:0004d630       ?Size@?$Array@V?$KeyValuePair@VStringAtom@Util@@UPoolSetupInfo@Resources@@@Util@@@Util@@QBEHXZ 0044e630 f i render_win32.release:poolresourcemapper.obj
 0001:0004d650       ?InsertSorted@?$Array@V?$KeyValuePair@VStringAtom@Util@@UPoolSetupInfo@Resources@@@Util@@@Util@@QAEHABV?$KeyValuePair@VStringAtom@Util@@UPoolSetupInfo@Resources@@@2@@Z 0044e650 f i render_win32.release:poolresourcemapper.obj
 0001:0004d8c0       ??0?$KeyValuePair@VStringAtom@Util@@UPoolSetupInfo@Resources@@@Util@@QAE@ABVStringAtom@1@ABUPoolSetupInfo@Resources@@@Z 0044e8c0 f i render_win32.release:poolresourcemapper.obj
 0001:0004d8f0       ?Value@?$KeyValuePair@VStringAtom@Util@@UPoolSetupInfo@Resources@@@Util@@QAEAAUPoolSetupInfo@Resources@@XZ 0044e8f0 f i render_win32.release:poolresourcemapper.obj
 0001:0004d910       ?Key@?$KeyValuePair@VStringAtom@Util@@UPoolSetupInfo@Resources@@@Util@@QBEABVStringAtom@2@XZ 0044e910 f i render_win32.release:poolresourcemapper.obj
 0001:0004d920       ??_E?$Ptr@VResourcePool@Resources@@@@QAEPAXI@Z 0044e920 f i render_win32.release:poolresourcemapper.obj
 0001:0004d9c0       ?GrowTo@?$Array@V?$Ptr@VResourcePool@Resources@@@@@Util@@AAEXH@Z 0044e9c0 f i render_win32.release:poolresourcemapper.obj
 0001:0004dae0       ?Insert@?$Array@V?$KeyValuePair@VStringAtom@Util@@UPoolSetupInfo@Resources@@@Util@@@Util@@QAEXHABV?$KeyValuePair@VStringAtom@Util@@UPoolSetupInfo@Resources@@@2@@Z 0044eae0 f i render_win32.release:poolresourcemapper.obj
 0001:0004db50       ?InsertAtEndOfIdenticalRange@?$Array@V?$KeyValuePair@VStringAtom@Util@@UPoolSetupInfo@Resources@@@Util@@@Util@@QAEHHABV?$KeyValuePair@VStringAtom@Util@@UPoolSetupInfo@Resources@@@2@@Z 0044eb50 f i render_win32.release:poolresourcemapper.obj
 0001:0004dbd0       ?Grow@?$Array@V?$KeyValuePair@VStringAtom@Util@@UPoolSetupInfo@Resources@@@Util@@@Util@@AAEXXZ 0044ebd0 f i render_win32.release:poolresourcemapper.obj
 0001:0004dc50       ??4?$KeyValuePair@VStringAtom@Util@@UPoolSetupInfo@Resources@@@Util@@QAEXABV01@@Z 0044ec50 f i render_win32.release:poolresourcemapper.obj
 0001:0004dc80       ??O?$KeyValuePair@VStringAtom@Util@@UPoolSetupInfo@Resources@@@Util@@QBE_NABV01@@Z 0044ec80 f i render_win32.release:poolresourcemapper.obj
 0001:0004dca0       ??M?$KeyValuePair@VStringAtom@Util@@UPoolSetupInfo@Resources@@@Util@@QBE_NABV01@@Z 0044eca0 f i render_win32.release:poolresourcemapper.obj
 0001:0004dcc0       ?GrowTo@?$Array@V?$KeyValuePair@VStringAtom@Util@@UPoolSetupInfo@Resources@@@Util@@@Util@@AAEXH@Z 0044ecc0 f i render_win32.release:poolresourcemapper.obj
 0001:0004ddb0       ?Move@?$Array@V?$KeyValuePair@VStringAtom@Util@@UPoolSetupInfo@Resources@@@Util@@@Util@@AAEXHH@Z 0044edb0 f i render_win32.release:poolresourcemapper.obj
 0001:0004df40       ??9?$KeyValuePair@VStringAtom@Util@@UPoolSetupInfo@Resources@@@Util@@QBE_NABV01@@Z 0044ef40 f i render_win32.release:poolresourcemapper.obj
 0001:0004df60       ?Destroy@?$Array@V?$KeyValuePair@VStringAtom@Util@@UPoolSetupInfo@Resources@@@Util@@@Util@@AAEXPAV?$KeyValuePair@VStringAtom@Util@@UPoolSetupInfo@Resources@@@2@@Z 0044ef60 f i render_win32.release:poolresourcemapper.obj
 0001:0004df70       ??0?$KeyValuePair@VStringAtom@Util@@UPoolSetupInfo@Resources@@@Util@@QAE@XZ 0044ef70 f i render_win32.release:poolresourcemapper.obj
 0001:0004df90       ?SetInt@String@Util@@QAEXH@Z 0044ef90 f i render_win32.release:displaypagehandler.obj
 0001:0004e060       ?FromInt@String@Util@@SA?AV12@H@Z 0044f060 f i render_win32.release:displaypagehandler.obj
 0001:0004e0b0       ?LocalPath@URI@IO@@QBEABVString@Util@@XZ 0044f0b0 f i render_win32.release:displaypagehandler.obj
 0001:0004e0d0       ?GetMethod@HttpRequest@Http@@QBE?AW4Code@HttpMethod@2@XZ 0044f0d0 f i render_win32.release:displaypagehandler.obj
 0001:0004e0f0       ?GetURI@HttpRequest@Http@@QBEABVURI@IO@@XZ 0044f0f0 f i render_win32.release:displaypagehandler.obj
 0001:0004e110       ?GetResponseContentStream@HttpRequest@Http@@QBEABV?$Ptr@VStream@IO@@@@XZ 0044f110 f i render_win32.release:displaypagehandler.obj
 0001:0004e130       ?SetStatus@HttpRequest@Http@@QAEXW4Code@HttpStatus@2@@Z 0044f130 f i render_win32.release:displaypagehandler.obj
 0001:0004e150       ?SetName@HttpRequestHandler@Http@@IAEXABVString@Util@@@Z 0044f150 f i render_win32.release:displaypagehandler.obj
 0001:0004e1a0       ?SetDesc@HttpRequestHandler@Http@@IAEXABVString@Util@@@Z 0044f1a0 f i render_win32.release:displaypagehandler.obj
 0001:0004e1f0       ?SetRootLocation@HttpRequestHandler@Http@@IAEXABVString@Util@@@Z 0044f1f0 f i render_win32.release:displaypagehandler.obj
 0001:0004e240       ?SetTitle@HtmlPageWriter@Http@@QAEXABVString@Util@@@Z 0044f240 f i render_win32.release:displaypagehandler.obj
 0001:0004e290       ??2DisplayPageHandler@Debug@@SAPAXI@Z 0044f290 f i render_win32.release:displaypagehandler.obj
 0001:0004e2a0       ??3DisplayPageHandler@Debug@@SAXPAX@Z 0044f2a0 f i render_win32.release:displaypagehandler.obj
 0001:0004e2c0       ?GetWidth@DisplayMode@CoreGraphics@@QBEIXZ 0044f2c0 f i render_win32.release:displaypagehandler.obj
 0001:0004e2e0       ?GetHeight@DisplayMode@CoreGraphics@@QBEIXZ 0044f2e0 f i render_win32.release:displaypagehandler.obj
 0001:0004e300       ?GetPixelFormat@DisplayMode@CoreGraphics@@QBE?AW4Code@PixelFormat@2@XZ 0044f300 f i render_win32.release:displaypagehandler.obj
 0001:0004e320       ?GetDriverName@AdapterInfo@CoreGraphics@@QBEABVString@Util@@XZ 0044f320 f i render_win32.release:displaypagehandler.obj
 0001:0004e330       ?GetDescription@AdapterInfo@CoreGraphics@@QBEABVString@Util@@XZ 0044f330 f i render_win32.release:displaypagehandler.obj
 0001:0004e350       ?GetDeviceName@AdapterInfo@CoreGraphics@@QBEABVString@Util@@XZ 0044f350 f i render_win32.release:displaypagehandler.obj
 0001:0004e370       ?GetDriverVersionLowPart@AdapterInfo@CoreGraphics@@QBEIXZ 0044f370 f i render_win32.release:displaypagehandler.obj
 0001:0004e390       ?GetDriverVersionHighPart@AdapterInfo@CoreGraphics@@QBEIXZ 0044f390 f i render_win32.release:displaypagehandler.obj
 0001:0004e3b0       ?GetVendorId@AdapterInfo@CoreGraphics@@QBEIXZ 0044f3b0 f i render_win32.release:displaypagehandler.obj
 0001:0004e3d0       ?GetDeviceId@AdapterInfo@CoreGraphics@@QBEIXZ 0044f3d0 f i render_win32.release:displaypagehandler.obj
 0001:0004e3f0       ?GetSubSystemId@AdapterInfo@CoreGraphics@@QBEIXZ 0044f3f0 f i render_win32.release:displaypagehandler.obj
 0001:0004e410       ?GetRevision@AdapterInfo@CoreGraphics@@QBEIXZ 0044f410 f i render_win32.release:displaypagehandler.obj
 0001:0004e430       ?GetAntiAliasQuality@DisplayDeviceBase@Base@@QBE?AW4Code@AntiAliasQuality@CoreGraphics@@XZ 0044f430 f i render_win32.release:displaypagehandler.obj
 0001:0004e450       ?IsDisplayModeSwitchEnabled@DisplayDeviceBase@Base@@QBE_NXZ 0044f450 f i render_win32.release:displaypagehandler.obj
 0001:0004e470       ?IsTripleBufferingEnabled@DisplayDeviceBase@Base@@QBE_NXZ 0044f470 f i render_win32.release:displaypagehandler.obj
 0001:0004e490       ?IsAlwaysOnTop@DisplayDeviceBase@Base@@QBE_NXZ 0044f490 f i render_win32.release:displaypagehandler.obj
 0001:0004e4b0       ?IsVerticalSyncEnabled@DisplayDeviceBase@Base@@QBE_NXZ 0044f4b0 f i render_win32.release:displaypagehandler.obj
 0001:0004e4d0       ?GetIconName@DisplayDeviceBase@Base@@QBEABVString@Util@@XZ 0044f4d0 f i render_win32.release:displaypagehandler.obj
 0001:0004e4f0       ?GetWindowTitle@DisplayDeviceBase@Base@@QBEABVString@Util@@XZ 0044f4f0 f i render_win32.release:displaypagehandler.obj
 0001:0004e510       ?Instance@DisplayDevice@CoreGraphics@@SAPAV12@XZ 0044f510 f i render_win32.release:displaypagehandler.obj
 0001:0004e550       ?Instance@RenderDevice@CoreGraphics@@SAPAV12@XZ 0044f550 f i render_win32.release:displaypagehandler.obj
 0001:0004e590       ?GetRtti@DisplayPageHandler@Debug@@UBEPAVRtti@Core@@XZ 0044f590 f   render_win32.release:displaypagehandler.obj
 0001:0004e5a0       ?FactoryCreator@DisplayPageHandler@Debug@@SAPAVRefCounted@Core@@XZ 0044f5a0 f   render_win32.release:displaypagehandler.obj
 0001:0004e5b0       ?Create@DisplayPageHandler@Debug@@SAPAV12@XZ 0044f5b0 f   render_win32.release:displaypagehandler.obj
 0001:0004e5f0       ?RegisterWithFactory@DisplayPageHandler@Debug@@SA_NXZ 0044f5f0 f   render_win32.release:displaypagehandler.obj
 0001:0004e6f0       ??0DisplayPageHandler@Debug@@QAE@XZ 0044f6f0 f   render_win32.release:displaypagehandler.obj
 0001:0004e8b0       ??_EDisplayPageHandler@Debug@@UAEPAXI@Z 0044f8b0 f i  CIL library: CIL module
 0001:0004e8b0       ??_GDisplayPageHandler@Debug@@UAEPAXI@Z 0044f8b0 f i render_win32.release:displaypagehandler.obj
 0001:0004e8e0       ??1DisplayPageHandler@Debug@@UAE@XZ 0044f8e0 f i render_win32.release:displaypagehandler.obj
 0001:0004e900       ?HandleRequest@DisplayPageHandler@Debug@@UAEXABV?$Ptr@VHttpRequest@Http@@@@@Z 0044f900 f   render_win32.release:displaypagehandler.obj
 0001:0004fe00       ?WriteAdapterInfo@DisplayPageHandler@Debug@@AAEXW4Code@Adapter@CoreGraphics@@ABV?$Ptr@VHtmlPageWriter@Http@@@@@Z 00450e00 f   render_win32.release:displaypagehandler.obj
 0001:00050ba0       ?WriteScreenshot@DisplayPageHandler@Debug@@AAE?AW4Code@HttpStatus@Http@@ABVString@Util@@ABV?$Ptr@VStream@IO@@@@@Z 00451ba0 f   render_win32.release:displaypagehandler.obj
 0001:00050c20       ??C?$Ptr@VHttpRequest@Http@@@@QBEPAVHttpRequest@Http@@XZ 00451c20 f i render_win32.release:displaypagehandler.obj
 0001:00050c60       ??A?$Dictionary@VString@Util@@V12@@Util@@QAEAAVString@1@ABV21@@Z 00451c60 f i render_win32.release:displaypagehandler.obj
 0001:00050cb0       ?Contains@?$Dictionary@VString@Util@@V12@@Util@@QBE_NABVString@2@@Z 00451cb0 f i render_win32.release:displaypagehandler.obj
 0001:00050d10       ??0?$Ptr@VHtmlPageWriter@Http@@@@QAE@PAVHtmlPageWriter@Http@@@Z 00451d10 f i render_win32.release:displaypagehandler.obj
 0001:00050d50       ??1?$Ptr@VHtmlPageWriter@Http@@@@QAE@XZ 00451d50 f i render_win32.release:displaypagehandler.obj
 0001:00050d80       ??C?$Ptr@VHtmlPageWriter@Http@@@@QBEPAVHtmlPageWriter@Http@@XZ 00451d80 f i render_win32.release:displaypagehandler.obj
 0001:00050dc0       ??A?$Array@VDisplayMode@CoreGraphics@@@Util@@QBEAAVDisplayMode@CoreGraphics@@H@Z 00451dc0 f i render_win32.release:displaypagehandler.obj
 0001:00050e10       ?Size@?$Array@VDisplayMode@CoreGraphics@@@Util@@QBEHXZ 00451e10 f i render_win32.release:displaypagehandler.obj
 0001:00050e30       ??A?$Array@V?$KeyValuePair@VString@Util@@V12@@Util@@@Util@@QBEAAV?$KeyValuePair@VString@Util@@V12@@1@H@Z 00451e30 f i render_win32.release:displaypagehandler.obj
 0001:00050e80       ?BinarySearchIndex@?$Array@V?$KeyValuePair@VString@Util@@V12@@Util@@@Util@@QBEHABV?$KeyValuePair@VString@Util@@V12@@2@@Z 00451e80 f i render_win32.release:displaypagehandler.obj
 0001:00050fb0       ?FindIndex@?$Dictionary@VString@Util@@V12@@Util@@QBEHABVString@2@@Z 00451fb0 f i render_win32.release:displaypagehandler.obj
 0001:00051010       ??0?$KeyValuePair@VString@Util@@V12@@Util@@QAE@ABVString@1@@Z 00452010 f i render_win32.release:displaypagehandler.obj
 0001:000510a0       ?Value@?$KeyValuePair@VString@Util@@V12@@Util@@QAEAAVString@2@XZ 004520a0 f i render_win32.release:displaypagehandler.obj
 0001:00051160       ??0URI@IO@@QAE@PBD@Z       00452160 f i render_win32.release:meshpagehandler.obj
 0001:00051340       ?AsString@URI@IO@@QBE?AVString@Util@@XZ 00452340 f i render_win32.release:meshpagehandler.obj
 0001:00051360       ??2MeshPageHandler@Debug@@SAPAXI@Z 00452360 f i render_win32.release:meshpagehandler.obj
 0001:00051370       ??3MeshPageHandler@Debug@@SAXPAX@Z 00452370 f i render_win32.release:meshpagehandler.obj
 0001:00051390       ?GetSemanticName@VertexComponentBase@Base@@QBE?AW4SemanticName@12@XZ 00452390 f i render_win32.release:meshpagehandler.obj
 0001:000513a0       ?GetSemanticIndex@VertexComponentBase@Base@@QBEHXZ 004523a0 f i render_win32.release:meshpagehandler.obj
 0001:000513c0       ?GetFormat@VertexComponentBase@Base@@QBE?AW4Format@12@XZ 004523c0 f i render_win32.release:meshpagehandler.obj
 0001:000513e0       ?GetByteSize@VertexComponentBase@Base@@QBEHXZ 004523e0 f i render_win32.release:meshpagehandler.obj
 0001:000514b0       ?SemanticNameToString@VertexComponentBase@Base@@SA?AVString@Util@@W4SemanticName@12@@Z 004524b0 f i render_win32.release:meshpagehandler.obj
 0001:00051700       ?FormatToString@VertexComponentBase@Base@@SA?AVString@Util@@W4Format@12@@Z 00452700 f i render_win32.release:meshpagehandler.obj
 0001:00051ac0       ?GetByteOffset@VertexComponentBase@Base@@QBEHXZ 00452ac0 f i render_win32.release:meshpagehandler.obj
 0001:00051ae0       ?GetNumComponents@VertexLayoutBase@Base@@QBEHXZ 00452ae0 f i render_win32.release:meshpagehandler.obj
 0001:00051b00       ?GetComponentAt@VertexLayoutBase@Base@@QBEABVVertexComponent@CoreGraphics@@H@Z 00452b00 f i render_win32.release:meshpagehandler.obj
 0001:00051b20       ?GetVertexByteSize@VertexLayoutBase@Base@@QBEHXZ 00452b20 f i render_win32.release:meshpagehandler.obj
 0001:00051b40       ?GetVertexLayout@VertexBufferBase@Base@@QBEABV?$Ptr@VVertexLayout@CoreGraphics@@@@XZ 00452b40 f i render_win32.release:meshpagehandler.obj
 0001:00051b60       ?GetNumVertices@VertexBufferBase@Base@@QBEHXZ 00452b60 f i render_win32.release:meshpagehandler.obj
 0001:00051b80       ?ToString@IndexType@CoreGraphics@@SA?AVString@Util@@W4Code@12@@Z 00452b80 f i render_win32.release:meshpagehandler.obj
 0001:00051c90       ?GetIndexType@IndexBufferBase@Base@@QBE?AW4Code@IndexType@CoreGraphics@@XZ 00452c90 f i render_win32.release:meshpagehandler.obj
 0001:00051cb0       ?GetNumIndices@IndexBufferBase@Base@@QBEHXZ 00452cb0 f i render_win32.release:meshpagehandler.obj
 0001:00051cd0       ?GetBaseVertex@PrimitiveGroup@CoreGraphics@@QBEHXZ 00452cd0 f i render_win32.release:meshpagehandler.obj
 0001:00051ce0       ?GetNumVertices@PrimitiveGroup@CoreGraphics@@QBEHXZ 00452ce0 f i render_win32.release:meshpagehandler.obj
 0001:00051d00       ?GetBaseIndex@PrimitiveGroup@CoreGraphics@@QBEHXZ 00452d00 f i render_win32.release:meshpagehandler.obj
 0001:00051d20       ?GetNumIndices@PrimitiveGroup@CoreGraphics@@QBEHXZ 00452d20 f i render_win32.release:meshpagehandler.obj
 0001:00051d40       ?GetPrimitiveTopology@PrimitiveGroup@CoreGraphics@@QBE?AW4Code@PrimitiveTopology@2@XZ 00452d40 f i render_win32.release:meshpagehandler.obj
 0001:00051d60       ?GetNumPrimitives@PrimitiveGroup@CoreGraphics@@QBEHXZ 00452d60 f i render_win32.release:meshpagehandler.obj
 0001:00051db0       ?HasVertexBuffer@MeshBase@Base@@QBE_NXZ 00452db0 f i render_win32.release:meshpagehandler.obj
 0001:00051dd0       ?GetVertexBuffer@MeshBase@Base@@QBEABV?$Ptr@VVertexBuffer@CoreGraphics@@@@XZ 00452dd0 f i render_win32.release:meshpagehandler.obj
 0001:00051df0       ?HasIndexBuffer@MeshBase@Base@@QBE_NXZ 00452df0 f i render_win32.release:meshpagehandler.obj
 0001:00051e10       ?GetIndexBuffer@MeshBase@Base@@QBEABV?$Ptr@VIndexBuffer@CoreGraphics@@@@XZ 00452e10 f i render_win32.release:meshpagehandler.obj
 0001:00051e30       ?GetNumPrimitiveGroups@MeshBase@Base@@QBEHXZ 00452e30 f i render_win32.release:meshpagehandler.obj
 0001:00051e50       ?GetPrimitiveGroupAtIndex@MeshBase@Base@@QBEABVPrimitiveGroup@CoreGraphics@@H@Z 00452e50 f i render_win32.release:meshpagehandler.obj
 0001:00051e70       ?Instance@AssignRegistry@IO@@SAPAV12@XZ 00452e70 f i render_win32.release:meshpagehandler.obj
 0001:00051ea0       ?GetRtti@MeshPageHandler@Debug@@UBEPAVRtti@Core@@XZ 00452ea0 f   render_win32.release:meshpagehandler.obj
 0001:00051eb0       ?FactoryCreator@MeshPageHandler@Debug@@SAPAVRefCounted@Core@@XZ 00452eb0 f   render_win32.release:meshpagehandler.obj
 0001:00051ec0       ?Create@MeshPageHandler@Debug@@SAPAV12@XZ 00452ec0 f   render_win32.release:meshpagehandler.obj
 0001:00051f00       ?RegisterWithFactory@MeshPageHandler@Debug@@SA_NXZ 00452f00 f   render_win32.release:meshpagehandler.obj
 0001:00052000       ??0MeshPageHandler@Debug@@QAE@XZ 00453000 f   render_win32.release:meshpagehandler.obj
 0001:000521c0       ??_EMeshPageHandler@Debug@@UAEPAXI@Z 004531c0 f i  CIL library: CIL module
 0001:000521c0       ??_GMeshPageHandler@Debug@@UAEPAXI@Z 004531c0 f i render_win32.release:meshpagehandler.obj
 0001:000521f0       ??1MeshPageHandler@Debug@@UAE@XZ 004531f0 f i render_win32.release:meshpagehandler.obj
 0001:00052210       ?HandleRequest@MeshPageHandler@Debug@@UAEXABV?$Ptr@VHttpRequest@Http@@@@@Z 00453210 f   render_win32.release:meshpagehandler.obj
 0001:00053170       ?HandleMeshInfoRequest@MeshPageHandler@Debug@@AAE?AW4Code@HttpStatus@Http@@ABVStringAtom@Util@@ABV?$Ptr@VStream@IO@@@@@Z 00454170 f   render_win32.release:meshpagehandler.obj
 0001:000550b0       ??1URI@IO@@QAE@XZ          004560b0 f i render_win32.release:meshpagehandler.obj
 0001:000552b0       ?HandleVertexDumpRequest@MeshPageHandler@Debug@@AAE?AW4Code@HttpStatus@Http@@ABVStringAtom@Util@@HHABV?$Ptr@VStream@IO@@@@@Z 004562b0 f   render_win32.release:meshpagehandler.obj
 0001:00056730       ??A?$Array@VVertexComponent@CoreGraphics@@@Util@@QBEAAVVertexComponent@CoreGraphics@@H@Z 00457730 f i render_win32.release:meshpagehandler.obj
 0001:00056780       ?Size@?$Array@VVertexComponent@CoreGraphics@@@Util@@QBEHXZ 00457780 f i render_win32.release:meshpagehandler.obj
 0001:000567a0       ??C?$Ptr@VVertexLayout@CoreGraphics@@@@QBEPAVVertexLayout@CoreGraphics@@XZ 004577a0 f i render_win32.release:meshpagehandler.obj
 0001:000567e0       ??C?$Ptr@VVertexBuffer@CoreGraphics@@@@QBEPAVVertexBuffer@CoreGraphics@@XZ 004577e0 f i render_win32.release:meshpagehandler.obj
 0001:00056820       ?isvalid@?$Ptr@VVertexBuffer@CoreGraphics@@@@QBE_NXZ 00457820 f i render_win32.release:meshpagehandler.obj
 0001:00056840       ??C?$Ptr@VIndexBuffer@CoreGraphics@@@@QBEPAVIndexBuffer@CoreGraphics@@XZ 00457840 f i render_win32.release:meshpagehandler.obj
 0001:00056880       ?isvalid@?$Ptr@VIndexBuffer@CoreGraphics@@@@QBE_NXZ 00457880 f i render_win32.release:meshpagehandler.obj
 0001:000568a0       ??A?$Array@VPrimitiveGroup@CoreGraphics@@@Util@@QBEAAVPrimitiveGroup@CoreGraphics@@H@Z 004578a0 f i render_win32.release:meshpagehandler.obj
 0001:000568f0       ?Size@?$Array@VPrimitiveGroup@CoreGraphics@@@Util@@QBEHXZ 004578f0 f i render_win32.release:meshpagehandler.obj
 0001:00056910       ??$downcast@VMesh@CoreGraphics@@@?$Ptr@VResource@Resources@@@@QBEABV?$Ptr@VMesh@CoreGraphics@@@@XZ 00457910 f i render_win32.release:meshpagehandler.obj
 0001:00056920       ??C?$Ptr@VMesh@CoreGraphics@@@@QBEPAVMesh@CoreGraphics@@XZ 00457920 f i render_win32.release:meshpagehandler.obj
 0001:00056960       ??0?$Ptr@VResourceManager@Resources@@@@QAE@PAVResourceManager@Resources@@@Z 00457960 f i render_win32.release:meshpagehandler.obj
 0001:00056a40       ?GetAllShaderInstances@ShaderBase@Base@@QBEABV?$Array@V?$Ptr@VShaderInstance@CoreGraphics@@@@@Util@@XZ 00457a40 f i render_win32.release:shaderpagehandler.obj
 0001:00056a60       ?GetType@ShaderVariableBase@Base@@QBE?AW4Type@12@XZ 00457a60 f i render_win32.release:shaderpagehandler.obj
 0001:00056a80       ?GetName@ShaderVariableBase@Base@@QBEABVStringAtom@Util@@XZ 00457a80 f i render_win32.release:shaderpagehandler.obj
 0001:00056aa0       ?GetSemantic@ShaderVariableBase@Base@@QBEABVStringAtom@Util@@XZ 00457aa0 f i render_win32.release:shaderpagehandler.obj
 0001:00056ac0       ?GetName@ShaderVariationBase@Base@@QBEABVStringAtom@Util@@XZ 00457ac0 f i render_win32.release:shaderpagehandler.obj
 0001:00056ae0       ?GetFeatureMask@ShaderVariationBase@Base@@QBEIXZ 00457ae0 f i render_win32.release:shaderpagehandler.obj
 0001:00056b00       ?GetNumPasses@ShaderVariationBase@Base@@QBEHXZ 00457b00 f i render_win32.release:shaderpagehandler.obj
 0001:00056b20       ?GetOriginalShader@ShaderInstanceBase@Base@@QBEABV?$Ptr@VShader@CoreGraphics@@@@XZ 00457b20 f i render_win32.release:shaderpagehandler.obj
 0001:00056b40       ?GetNumVariables@ShaderInstanceBase@Base@@QBEHXZ 00457b40 f i render_win32.release:shaderpagehandler.obj
 0001:00056b60       ?GetVariableByIndex@ShaderInstanceBase@Base@@QBEABV?$Ptr@VShaderVariable@CoreGraphics@@@@H@Z 00457b60 f i render_win32.release:shaderpagehandler.obj
 0001:00056b80       ?GetNumVariations@ShaderInstanceBase@Base@@QBEHXZ 00457b80 f i render_win32.release:shaderpagehandler.obj
 0001:00056ba0       ?GetVariationByIndex@ShaderInstanceBase@Base@@QBEABV?$Ptr@VShaderVariation@CoreGraphics@@@@H@Z 00457ba0 f i render_win32.release:shaderpagehandler.obj
 0001:00056bc0       ?GetChildren@ModelNodeInstance@Models@@QBEABV?$Array@V?$Ptr@VModelNodeInstance@Models@@@@@Util@@XZ 00457bc0 f i render_win32.release:shaderpagehandler.obj
 0001:00056be0       ??2ShaderPageHandler@Debug@@SAPAXI@Z 00457be0 f i render_win32.release:shaderpagehandler.obj
 0001:00056bf0       ??3ShaderPageHandler@Debug@@SAXPAX@Z 00457bf0 f i render_win32.release:shaderpagehandler.obj
 0001:00056c10       ?HasShader@ShaderServerBase@Base@@QBE_NABVStringAtom@Util@@@Z 00457c10 f i render_win32.release:shaderpagehandler.obj
 0001:00056c30       ?GetAllShaders@ShaderServerBase@Base@@QBEABV?$Dictionary@VStringAtom@Util@@V?$Ptr@VShader@CoreGraphics@@@@@Util@@XZ 00457c30 f i render_win32.release:shaderpagehandler.obj
 0001:00056c50       ?FeatureMaskToString@ShaderServerBase@Base@@QAE?AVString@Util@@I@Z 00457c50 f i render_win32.release:shaderpagehandler.obj
 0001:00056c80       ?GetNumSharedVariables@ShaderServerBase@Base@@QBEHXZ 00457c80 f i render_win32.release:shaderpagehandler.obj
 0001:00056cc0       ?GetSharedVariableByIndex@ShaderServerBase@Base@@QBEABV?$Ptr@VShaderVariable@CoreGraphics@@@@H@Z 00457cc0 f i render_win32.release:shaderpagehandler.obj
 0001:00056d20       ?GetId@InternalGraphicsEntity@InternalGraphics@@QBEHXZ 00457d20 f i render_win32.release:shaderpagehandler.obj
 0001:00056d40       ?GetResourceId@InternalModelEntity@InternalGraphics@@QBEABVStringAtom@Util@@XZ 00457d40 f i render_win32.release:shaderpagehandler.obj
 0001:00056d60       ?GetModelInstance@InternalModelEntity@InternalGraphics@@QBEABV?$Ptr@VModelInstance@Models@@@@XZ 00457d60 f i render_win32.release:shaderpagehandler.obj
 0001:00056d80       ?GetShader@StateNode@Models@@QBEABVStringAtom@Util@@XZ 00457d80 f i render_win32.release:shaderpagehandler.obj
 0001:00056da0       ?GetRtti@ShaderPageHandler@Debug@@UBEPAVRtti@Core@@XZ 00457da0 f   render_win32.release:shaderpagehandler.obj
 0001:00056db0       ?FactoryCreator@ShaderPageHandler@Debug@@SAPAVRefCounted@Core@@XZ 00457db0 f   render_win32.release:shaderpagehandler.obj
 0001:00056dc0       ?Create@ShaderPageHandler@Debug@@SAPAV12@XZ 00457dc0 f   render_win32.release:shaderpagehandler.obj
 0001:00056e00       ?RegisterWithFactory@ShaderPageHandler@Debug@@SA_NXZ 00457e00 f   render_win32.release:shaderpagehandler.obj
 0001:00056f00       ??0ShaderPageHandler@Debug@@QAE@XZ 00457f00 f   render_win32.release:shaderpagehandler.obj
 0001:000570c0       ??_EShaderPageHandler@Debug@@UAEPAXI@Z 004580c0 f i  CIL library: CIL module
 0001:000570c0       ??_GShaderPageHandler@Debug@@UAEPAXI@Z 004580c0 f i render_win32.release:shaderpagehandler.obj
 0001:000570f0       ??1ShaderPageHandler@Debug@@UAE@XZ 004580f0 f i render_win32.release:shaderpagehandler.obj
 0001:00057110       ?HandleRequest@ShaderPageHandler@Debug@@UAEXABV?$Ptr@VHttpRequest@Http@@@@@Z 00458110 f   render_win32.release:shaderpagehandler.obj
 0001:00057da0       ?HandleShaderInfoRequest@ShaderPageHandler@Debug@@AAE?AW4Code@HttpStatus@Http@@ABVStringAtom@Util@@ABV?$Ptr@VStream@IO@@@@@Z 00458da0 f   render_win32.release:shaderpagehandler.obj
 0001:00059870       ?WriteShaderVariableTable@ShaderPageHandler@Debug@@AAEXABV?$Ptr@VHtmlPageWriter@Http@@@@ABV?$Array@V?$Ptr@VShaderVariable@CoreGraphics@@@@@Util@@@Z 0045a870 f   render_win32.release:shaderpagehandler.obj
 0001:00059e50       ?HasShaderInstance@ShaderPageHandler@Debug@@AAE_NABV?$Ptr@VModelNodeInstance@Models@@@@ABVStringAtom@Util@@@Z 0045ae50 f   render_win32.release:shaderpagehandler.obj
 0001:00059f50       ?Size@?$Array@V?$Ptr@VShaderInstance@CoreGraphics@@@@@Util@@QBEHXZ 0045af50 f i render_win32.release:shaderpagehandler.obj
 0001:00059f70       ??C?$Ptr@VShader@CoreGraphics@@@@QBEPAVShader@CoreGraphics@@XZ 0045af70 f i render_win32.release:shaderpagehandler.obj
 0001:00059fb0       ??0?$Array@V?$Ptr@VShaderVariable@CoreGraphics@@@@@Util@@QAE@XZ 0045afb0 f i render_win32.release:shaderpagehandler.obj
 0001:00059ff0       ??1?$Array@V?$Ptr@VShaderVariable@CoreGraphics@@@@@Util@@QAE@XZ 0045aff0 f i render_win32.release:shaderpagehandler.obj
 0001:0005a010       ??A?$Array@V?$Ptr@VShaderVariable@CoreGraphics@@@@@Util@@QBEAAV?$Ptr@VShaderVariable@CoreGraphics@@@@H@Z 0045b010 f i render_win32.release:shaderpagehandler.obj
 0001:0005a060       ?Append@?$Array@V?$Ptr@VShaderVariable@CoreGraphics@@@@@Util@@QAEXABV?$Ptr@VShaderVariable@CoreGraphics@@@@@Z 0045b060 f i render_win32.release:shaderpagehandler.obj
 0001:0005a0e0       ?Size@?$Array@V?$Ptr@VShaderVariable@CoreGraphics@@@@@Util@@QBEHXZ 0045b0e0 f i render_win32.release:shaderpagehandler.obj
 0001:0005a100       ?Size@?$Dictionary@IV?$Ptr@VShaderVariation@CoreGraphics@@@@@Util@@QBEHXZ 0045b100 f i render_win32.release:shaderpagehandler.obj
 0001:0005a120       ?ValueAtIndex@?$Dictionary@IV?$Ptr@VShaderVariation@CoreGraphics@@@@@Util@@QBEABV?$Ptr@VShaderVariation@CoreGraphics@@@@H@Z 0045b120 f i render_win32.release:shaderpagehandler.obj
 0001:0005a170       ??C?$Ptr@VShaderVariation@CoreGraphics@@@@QBEPAVShaderVariation@CoreGraphics@@XZ 0045b170 f i render_win32.release:shaderpagehandler.obj
 0001:0005a1b0       ?isvalid@?$Ptr@VModelInstance@Models@@@@QBE_NXZ 0045b1b0 f i render_win32.release:shaderpagehandler.obj
 0001:0005a1d0       ??0?$Array@V?$Ptr@VModelNodeInstance@Models@@@@@Util@@QAE@ABV01@@Z 0045b1d0 f i render_win32.release:shaderpagehandler.obj
 0001:0005a220       ??1?$Array@V?$Ptr@VModelNodeInstance@Models@@@@@Util@@QAE@XZ 0045b220 f i render_win32.release:shaderpagehandler.obj
 0001:0005a240       ??A?$Array@V?$Ptr@VModelNodeInstance@Models@@@@@Util@@QBEAAV?$Ptr@VModelNodeInstance@Models@@@@H@Z 0045b240 f i render_win32.release:shaderpagehandler.obj
 0001:0005a290       ?Size@?$Array@V?$Ptr@VModelNodeInstance@Models@@@@@Util@@QBEHXZ 0045b290 f i render_win32.release:shaderpagehandler.obj
 0001:0005a2b0       ?Size@?$Dictionary@VStringAtom@Util@@V?$Ptr@VShader@CoreGraphics@@@@@Util@@QBEHXZ 0045b2b0 f i render_win32.release:shaderpagehandler.obj
 0001:0005a2d0       ?Contains@?$Dictionary@VStringAtom@Util@@V?$Ptr@VShader@CoreGraphics@@@@@Util@@QBE_NABVStringAtom@2@@Z 0045b2d0 f i render_win32.release:shaderpagehandler.obj
 0001:0005a330       ?ValueAtIndex@?$Dictionary@VStringAtom@Util@@V?$Ptr@VShader@CoreGraphics@@@@@Util@@QBEABV?$Ptr@VShader@CoreGraphics@@@@H@Z 0045b330 f i render_win32.release:shaderpagehandler.obj
 0001:0005a380       ??1?$Ptr@VShaderInstance@CoreGraphics@@@@QAE@XZ 0045b380 f i render_win32.release:shaderpagehandler.obj
 0001:0005a3b0       ??0?$Ptr@VShaderVariable@CoreGraphics@@@@QAE@XZ 0045b3b0 f i render_win32.release:shaderpagehandler.obj
 0001:0005a3d0       ??1?$Ptr@VShaderVariable@CoreGraphics@@@@QAE@XZ 0045b3d0 f i render_win32.release:shaderpagehandler.obj
 0001:0005a400       ??A?$Array@V?$Ptr@VInternalGraphicsEntity@InternalGraphics@@@@@Util@@QBEAAV?$Ptr@VInternalGraphicsEntity@InternalGraphics@@@@H@Z 0045b400 f i render_win32.release:shaderpagehandler.obj
 0001:0005a450       ?Size@?$Array@V?$Ptr@VInternalGraphicsEntity@InternalGraphics@@@@@Util@@QBEHXZ 0045b450 f i render_win32.release:shaderpagehandler.obj
 0001:0005a470       ?isvalid@?$Ptr@VInternalGraphicsEntity@InternalGraphics@@@@QBE_NXZ 0045b470 f i render_win32.release:shaderpagehandler.obj
 0001:0005a490       ??C?$Ptr@VInternalModelEntity@InternalGraphics@@@@QBEPAVInternalModelEntity@InternalGraphics@@XZ 0045b490 f i render_win32.release:shaderpagehandler.obj
 0001:0005a4d0       ??$cast@VInternalModelEntity@InternalGraphics@@@?$Ptr@VInternalGraphicsEntity@InternalGraphics@@@@QBEABV?$Ptr@VInternalModelEntity@InternalGraphics@@@@XZ 0045b4d0 f i render_win32.release:shaderpagehandler.obj
 0001:0005a4e0       ??$cast@VStateNode@Models@@@?$Ptr@VModelNode@Models@@@@QBEABV?$Ptr@VStateNode@Models@@@@XZ 0045b4e0 f i render_win32.release:shaderpagehandler.obj
 0001:0005a4f0       ??C?$Ptr@VStateNode@Models@@@@QBEPAVStateNode@Models@@XZ 0045b4f0 f i render_win32.release:shaderpagehandler.obj
 0001:0005a530       ??1?$KeyValuePair@VStringAtom@Util@@V?$Ptr@VShader@CoreGraphics@@@@@Util@@QAE@XZ 0045b530 f i render_win32.release:shaderpagehandler.obj
 0001:0005a550       ??1?$Ptr@VShader@CoreGraphics@@@@QAE@XZ 0045b550 f i render_win32.release:shaderpagehandler.obj
 0001:0005a580       ?Delete@?$Array@V?$Ptr@VShaderVariable@CoreGraphics@@@@@Util@@AAEXXZ 0045b580 f i render_win32.release:shaderpagehandler.obj
 0001:0005a5f0       ?Grow@?$Array@V?$Ptr@VShaderVariable@CoreGraphics@@@@@Util@@AAEXXZ 0045b5f0 f i render_win32.release:shaderpagehandler.obj
 0001:0005a670       ??4?$Ptr@VShaderVariable@CoreGraphics@@@@QAEXABV0@@Z 0045b670 f i render_win32.release:shaderpagehandler.obj
 0001:0005a6d0       ?Value@?$KeyValuePair@IV?$Ptr@VShaderVariation@CoreGraphics@@@@@Util@@QAEAAV?$Ptr@VShaderVariation@CoreGraphics@@@@XZ 0045b6d0 f i render_win32.release:shaderpagehandler.obj
 0001:0005a6f0       ??A?$Array@V?$KeyValuePair@IV?$Ptr@VShaderVariation@CoreGraphics@@@@@Util@@@Util@@QBEAAV?$KeyValuePair@IV?$Ptr@VShaderVariation@CoreGraphics@@@@@1@H@Z 0045b6f0 f i render_win32.release:shaderpagehandler.obj
 0001:0005a740       ?Size@?$Array@V?$KeyValuePair@IV?$Ptr@VShaderVariation@CoreGraphics@@@@@Util@@@Util@@QBEHXZ 0045b740 f i render_win32.release:shaderpagehandler.obj
 0001:0005a760       ?Copy@?$Array@V?$Ptr@VModelNodeInstance@Models@@@@@Util@@AAEXABV12@@Z 0045b760 f i render_win32.release:shaderpagehandler.obj
 0001:0005a890       ?Delete@?$Array@V?$Ptr@VModelNodeInstance@Models@@@@@Util@@AAEXXZ 0045b890 f i render_win32.release:shaderpagehandler.obj
 0001:0005a900       ??A?$Array@V?$KeyValuePair@VStringAtom@Util@@V?$Ptr@VShader@CoreGraphics@@@@@Util@@@Util@@QBEAAV?$KeyValuePair@VStringAtom@Util@@V?$Ptr@VShader@CoreGraphics@@@@@1@H@Z 0045b900 f i render_win32.release:shaderpagehandler.obj
 0001:0005a950       ?Size@?$Array@V?$KeyValuePair@VStringAtom@Util@@V?$Ptr@VShader@CoreGraphics@@@@@Util@@@Util@@QBEHXZ 0045b950 f i render_win32.release:shaderpagehandler.obj
 0001:0005a970       ?BinarySearchIndex@?$Array@V?$KeyValuePair@VStringAtom@Util@@V?$Ptr@VShader@CoreGraphics@@@@@Util@@@Util@@QBEHABV?$KeyValuePair@VStringAtom@Util@@V?$Ptr@VShader@CoreGraphics@@@@@2@@Z 0045b970 f i render_win32.release:shaderpagehandler.obj
 0001:0005aaa0       ??0?$KeyValuePair@VStringAtom@Util@@V?$Ptr@VShader@CoreGraphics@@@@@Util@@QAE@ABVStringAtom@1@@Z 0045baa0 f i render_win32.release:shaderpagehandler.obj
 0001:0005aad0       ?Value@?$KeyValuePair@VStringAtom@Util@@V?$Ptr@VShader@CoreGraphics@@@@@Util@@QAEAAV?$Ptr@VShader@CoreGraphics@@@@XZ 0045bad0 f i render_win32.release:shaderpagehandler.obj
 0001:0005aaf0       ??_E?$Ptr@VShaderVariable@CoreGraphics@@@@QAEPAXI@Z 0045baf0 f i render_win32.release:shaderpagehandler.obj
 0001:0005ab90       ??_E?$Ptr@VModelNodeInstance@Models@@@@QAEPAXI@Z 0045bb90 f i render_win32.release:shaderpagehandler.obj
 0001:0005ac30       ??0?$Ptr@VShader@CoreGraphics@@@@QAE@XZ 0045bc30 f i render_win32.release:shaderpagehandler.obj
 0001:0005ac50       ?GrowTo@?$Array@V?$Ptr@VShaderVariable@CoreGraphics@@@@@Util@@AAEXH@Z 0045bc50 f i render_win32.release:shaderpagehandler.obj
 0001:0005ad70       ??9?$KeyValuePair@VStringAtom@Util@@V?$Ptr@VShader@CoreGraphics@@@@@Util@@QBE_NABV01@@Z 0045bd70 f i render_win32.release:shaderpagehandler.obj
 0001:0005ad90       ??O?$KeyValuePair@VStringAtom@Util@@V?$Ptr@VShader@CoreGraphics@@@@@Util@@QBE_NABV01@@Z 0045bd90 f i render_win32.release:shaderpagehandler.obj
 0001:0005adb0       ??M?$KeyValuePair@VStringAtom@Util@@V?$Ptr@VShader@CoreGraphics@@@@@Util@@QBE_NABV01@@Z 0045bdb0 f i render_win32.release:shaderpagehandler.obj
 0001:0005ae70       ??2TexturePageHandler@Debug@@SAPAXI@Z 0045be70 f i render_win32.release:texturepagehandler.obj
 0001:0005ae80       ??3TexturePageHandler@Debug@@SAXPAX@Z 0045be80 f i render_win32.release:texturepagehandler.obj
 0001:0005aea0       ?GetState@Resource@Resources@@QBE?AW4State@12@XZ 0045bea0 f i render_win32.release:texturepagehandler.obj
 0001:0005aec0       ?GetType@TextureBase@Base@@QBE?AW4Type@12@XZ 0045bec0 f i render_win32.release:texturepagehandler.obj
 0001:0005aee0       ?GetWidth@TextureBase@Base@@QBEHXZ 0045bee0 f i render_win32.release:texturepagehandler.obj
 0001:0005af00       ?GetHeight@TextureBase@Base@@QBEHXZ 0045bf00 f i render_win32.release:texturepagehandler.obj
 0001:0005af20       ?GetDepth@TextureBase@Base@@QBEHXZ 0045bf20 f i render_win32.release:texturepagehandler.obj
 0001:0005af40       ?GetNumMipLevels@TextureBase@Base@@QBEHXZ 0045bf40 f i render_win32.release:texturepagehandler.obj
 0001:0005af60       ?GetPixelFormat@TextureBase@Base@@QBE?AW4Code@PixelFormat@CoreGraphics@@XZ 0045bf60 f i render_win32.release:texturepagehandler.obj
 0001:0005af80       ?SetStream@StreamTextureSaverBase@Base@@QAEXABV?$Ptr@VStream@IO@@@@@Z 0045bf80 f i render_win32.release:texturepagehandler.obj
 0001:0005afa0       ?SetFormat@StreamTextureSaverBase@Base@@QAEXW4Code@ImageFileFormat@CoreGraphics@@@Z 0045bfa0 f i render_win32.release:texturepagehandler.obj
 0001:0005afc0       ?SetMipLevel@StreamTextureSaverBase@Base@@QAEXH@Z 0045bfc0 f i render_win32.release:texturepagehandler.obj
 0001:0005afe0       ?GetRtti@TexturePageHandler@Debug@@UBEPAVRtti@Core@@XZ 0045bfe0 f   render_win32.release:texturepagehandler.obj
 0001:0005aff0       ?FactoryCreator@TexturePageHandler@Debug@@SAPAVRefCounted@Core@@XZ 0045bff0 f   render_win32.release:texturepagehandler.obj
 0001:0005b000       ?Create@TexturePageHandler@Debug@@SAPAV12@XZ 0045c000 f   render_win32.release:texturepagehandler.obj
 0001:0005b040       ?RegisterWithFactory@TexturePageHandler@Debug@@SA_NXZ 0045c040 f   render_win32.release:texturepagehandler.obj
 0001:0005b140       ??0TexturePageHandler@Debug@@QAE@XZ 0045c140 f   render_win32.release:texturepagehandler.obj
 0001:0005b300       ??_GTexturePageHandler@Debug@@UAEPAXI@Z 0045c300 f i render_win32.release:texturepagehandler.obj
 0001:0005b300       ??_ETexturePageHandler@Debug@@UAEPAXI@Z 0045c300 f i  CIL library: CIL module
 0001:0005b330       ??1TexturePageHandler@Debug@@UAE@XZ 0045c330 f i render_win32.release:texturepagehandler.obj
 0001:0005b350       ?HandleRequest@TexturePageHandler@Debug@@UAEXABV?$Ptr@VHttpRequest@Http@@@@@Z 0045c350 f   render_win32.release:texturepagehandler.obj
 0001:0005c770       ?HandleImageRequest@TexturePageHandler@Debug@@AAE?AW4Code@HttpStatus@Http@@ABV?$Dictionary@VString@Util@@V12@@Util@@ABV?$Ptr@VStream@IO@@@@@Z 0045d770 f   render_win32.release:texturepagehandler.obj
 0001:0005cd00       ?HandleTextureInfoRequest@TexturePageHandler@Debug@@AAE?AW4Code@HttpStatus@Http@@ABVStringAtom@Util@@ABV?$Ptr@VStream@IO@@@@@Z 0045dd00 f   render_win32.release:texturepagehandler.obj
 0001:0005df10       ??4?$Ptr@VStream@IO@@@@QAEXABV0@@Z 0045ef10 f i render_win32.release:texturepagehandler.obj
 0001:0005df70       ??A?$Dictionary@VString@Util@@V12@@Util@@QBEABVString@1@ABV21@@Z 0045ef70 f i render_win32.release:texturepagehandler.obj
 0001:0005dfc0       ??$downcast@VTexture@CoreGraphics@@@?$Ptr@VResource@Resources@@@@QBEABV?$Ptr@VTexture@CoreGraphics@@@@XZ 0045efc0 f i render_win32.release:texturepagehandler.obj
 0001:0005dfd0       ??C?$Ptr@VTexture@CoreGraphics@@@@QBEPAVTexture@CoreGraphics@@XZ 0045efd0 f i render_win32.release:texturepagehandler.obj
 0001:0005e010       ??0?$Ptr@VStreamTextureSaver@CoreGraphics@@@@QAE@PAVStreamTextureSaver@CoreGraphics@@@Z 0045f010 f i render_win32.release:texturepagehandler.obj
 0001:0005e050       ??1?$Ptr@VStreamTextureSaver@CoreGraphics@@@@QAE@XZ 0045f050 f i render_win32.release:texturepagehandler.obj
 0001:0005e080       ??C?$Ptr@VStreamTextureSaver@CoreGraphics@@@@QBEPAVStreamTextureSaver@CoreGraphics@@XZ 0045f080 f i render_win32.release:texturepagehandler.obj
 0001:0005e0c0       ??$upcast@VResourceSaver@Resources@@@?$Ptr@VStreamTextureSaver@CoreGraphics@@@@QBEABV?$Ptr@VResourceSaver@Resources@@@@XZ 0045f0c0 f i render_win32.release:texturepagehandler.obj
 0001:0005e0d0       ?w@float4@Math@@QBEMXZ     0045f0d0 f i render_win32.release:graphicspagehandler.obj
 0001:0005e120       ?length@float4@Math@@QBEMXZ 0045f120 f i render_win32.release:graphicspagehandler.obj
 0001:0005e2a0       ?unpack_w@float4@Math@@SAMT__m128@@@Z 0045f2a0 f i render_win32.release:graphicspagehandler.obj
 0001:0005e2e0       ??0vector@Math@@QAE@MMM@Z  0045f2e0 f i render_win32.release:graphicspagehandler.obj
 0001:0005e340       ??Gpoint@Math@@QBE?AVvector@1@ABV01@@Z 0045f340 f i render_win32.release:graphicspagehandler.obj
 0001:0005e3a0       ?x@quaternion@Math@@QBEMXZ 0045f3a0 f i render_win32.release:graphicspagehandler.obj
 0001:0005e3d0       ?y@quaternion@Math@@QBEMXZ 0045f3d0 f i render_win32.release:graphicspagehandler.obj
 0001:0005e420       ?z@quaternion@Math@@QBEMXZ 0045f420 f i render_win32.release:graphicspagehandler.obj
 0001:0005e470       ?w@quaternion@Math@@QBEMXZ 0045f470 f i render_win32.release:graphicspagehandler.obj
 0001:0005e4c0       ?get_xaxis@matrix44@Math@@QBEABVfloat4@2@XZ 0045f4c0 f i render_win32.release:graphicspagehandler.obj
 0001:0005e4d0       ?get_yaxis@matrix44@Math@@QBEABVfloat4@2@XZ 0045f4d0 f i render_win32.release:graphicspagehandler.obj
 0001:0005e4f0       ?get_zaxis@matrix44@Math@@QBEABVfloat4@2@XZ 0045f4f0 f i render_win32.release:graphicspagehandler.obj
 0001:0005e510       ?get_position@matrix44@Math@@QBEABVfloat4@2@XZ 0045f510 f i render_win32.release:graphicspagehandler.obj
 0001:0005e530       ?SetFloat@String@Util@@QAEXM@Z 0045f530 f i render_win32.release:graphicspagehandler.obj
 0001:0005e560       ?SetBool@String@Util@@QAEX_N@Z 0045f560 f i render_win32.release:graphicspagehandler.obj
 0001:0005e5a0       ?SetFloat4@String@Util@@QAEXABVfloat4@Math@@@Z 0045f5a0 f i render_win32.release:graphicspagehandler.obj
 0001:0005e790       ?FromFloat@String@Util@@SA?AV12@M@Z 0045f790 f i render_win32.release:graphicspagehandler.obj
 0001:0005e7f0       ?FromBool@String@Util@@SA?AV12@_N@Z 0045f7f0 f i render_win32.release:graphicspagehandler.obj
 0001:0005e850       ?FromFloat4@String@Util@@SA?AV12@ABVfloat4@Math@@@Z 0045f850 f i render_win32.release:graphicspagehandler.obj
 0001:0005e8a0       ?GetName@Rtti@Core@@QBEABVString@Util@@XZ 0045f8a0 f i render_win32.release:graphicspagehandler.obj
 0001:0005e8b0       ?size@bbox@Math@@QBE?AVvector@2@XZ 0045f8b0 f i render_win32.release:graphicspagehandler.obj
 0001:0005e910       ?GetType@InternalGraphicsEntity@InternalGraphics@@QBE?AW4Code@InternalGraphicsEntityType@2@XZ 0045f910 f i render_win32.release:graphicspagehandler.obj
 0001:0005e930       ?GetTransform@InternalGraphicsEntity@InternalGraphics@@QBEABVmatrix44@Math@@XZ 0045f930 f i render_win32.release:graphicspagehandler.obj
 0001:0005e950       ?IsVisible@InternalGraphicsEntity@InternalGraphics@@QBE_NXZ 0045f950 f i render_win32.release:graphicspagehandler.obj
 0001:0005e970       ?GetName@ModelNodeInstance@Models@@QBEABVStringAtom@Util@@XZ 0045f970 f i render_win32.release:graphicspagehandler.obj
 0001:0005e990       ?GetNodeInstances@ModelInstance@Models@@QBEABV?$Array@V?$Ptr@VModelNodeInstance@Models@@@@@Util@@XZ 0045f990 f i render_win32.release:graphicspagehandler.obj
 0001:0005e9b0       ?GetName@AnimClip@CoreAnimation@@QBEABVStringAtom@Util@@XZ 0045f9b0 f i render_win32.release:graphicspagehandler.obj
 0001:0005e9c0       ?GetNumClips@AnimResource@CoreAnimation@@QBEHXZ 0045f9c0 f i render_win32.release:graphicspagehandler.obj
 0001:0005e9e0       ?HasClip@AnimResource@CoreAnimation@@QBE_NABVStringAtom@Util@@@Z 0045f9e0 f i render_win32.release:graphicspagehandler.obj
 0001:0005ea00       ?SetEnqueueMode@AnimJob@Animation@@QAEXW4Code@AnimJobEnqueueMode@2@@Z 0045fa00 f i render_win32.release:graphicspagehandler.obj
 0001:0005ea20       ?GetName@AnimJob@Animation@@QBEABVStringAtom@Util@@XZ 0045fa20 f i render_win32.release:graphicspagehandler.obj
 0001:0005ea40       ?GetTrackIndex@AnimJob@Animation@@QBEHXZ 0045fa40 f i render_win32.release:graphicspagehandler.obj
 0001:0005ea60       ?IsInfinite@AnimJob@Animation@@QBE_NXZ 0045fa60 f i render_win32.release:graphicspagehandler.obj
 0001:0005ea80       ?SetFadeInTime@AnimJob@Animation@@QAEXH@Z 0045fa80 f i render_win32.release:graphicspagehandler.obj
 0001:0005eaa0       ?SetFadeOutTime@AnimJob@Animation@@QAEXH@Z 0045faa0 f i render_win32.release:graphicspagehandler.obj
 0001:0005eac0       ?GetBlendWeight@AnimJob@Animation@@QBEMXZ 0045fac0 f i render_win32.release:graphicspagehandler.obj
 0001:0005eae0       ?GetTimeFactor@AnimJob@Animation@@QBEMXZ 0045fae0 f i render_win32.release:graphicspagehandler.obj
 0001:0005eb00       ?SetDebugHudEnabled@AnimSequencer@Animation@@QAEX_N@Z 0045fb00 f i render_win32.release:graphicspagehandler.obj
 0001:0005eb20       ?IsDebugHudEnabled@AnimSequencer@Animation@@QBE_NXZ 0045fb20 f i render_win32.release:graphicspagehandler.obj
 0001:0005eb40       ?AnimSequencer@CharacterAnimationController@Characters@@QAEAAV0Animation@@XZ 0045fb40 f i render_win32.release:graphicspagehandler.obj
 0001:0005eb50       ?SkinSet@CharacterInstance@Characters@@QAEAAVCharacterSkinSet@2@XZ 0045fb50 f i render_win32.release:graphicspagehandler.obj
 0001:0005eb70       ?AnimController@CharacterInstance@Characters@@QAEAAVCharacterAnimationController@2@XZ 0045fb70 f i render_win32.release:graphicspagehandler.obj
 0001:0005eb90       ?GetJointName@CharJointInfo@Shared@@QBEABVStringAtom@Util@@XZ 0045fb90 f i render_win32.release:graphicspagehandler.obj
 0001:0005ebb0       ?GetLocalMatrix@CharJointInfo@Shared@@QBEABVmatrix44@Math@@XZ 0045fbb0 f i render_win32.release:graphicspagehandler.obj
 0001:0005ebc0       ?GetGlobalMatrix@CharJointInfo@Shared@@QBEABVmatrix44@Math@@XZ 0045fbc0 f i render_win32.release:graphicspagehandler.obj
 0001:0005ebe0       ?HasCharacter@InternalModelEntity@InternalGraphics@@QBE_NXZ 0045fbe0 f i render_win32.release:graphicspagehandler.obj
 0001:0005ec00       ?GetCharacterInstance@InternalModelEntity@InternalGraphics@@QBEABV?$Ptr@VCharacterInstance@Characters@@@@XZ 0045fc00 f i render_win32.release:graphicspagehandler.obj
 0001:0005ec20       ?GetCharacter@InternalModelEntity@InternalGraphics@@QBEABV?$Ptr@VCharacter@Characters@@@@XZ 0045fc20 f i render_win32.release:graphicspagehandler.obj
 0001:0005ec40       ?IsAnimDrivenMotionTrackingEnabled@InternalModelEntity@InternalGraphics@@QBE_NXZ 0045fc40 f i render_win32.release:graphicspagehandler.obj
 0001:0005ec60       ?GetAnimDrivenMotionJointName@InternalModelEntity@InternalGraphics@@QBEABVStringAtom@Util@@XZ 0045fc60 f i render_win32.release:graphicspagehandler.obj
 0001:0005ec80       ?GetAnimDrivenMotionVector@InternalModelEntity@InternalGraphics@@QBEABVvector@Math@@XZ 0045fc80 f i render_win32.release:graphicspagehandler.obj
 0001:0005ecb0       ?IsCharJointTrackingEnabled@InternalModelEntity@InternalGraphics@@QBE_NXZ 0045fcb0 f i render_win32.release:graphicspagehandler.obj
 0001:0005ecd0       ?IsCharJointDataValid@InternalModelEntity@InternalGraphics@@QBE_NXZ 0045fcd0 f i render_win32.release:graphicspagehandler.obj
 0001:0005ed00       ?GetCharJointInfos@InternalModelEntity@InternalGraphics@@QBEABV?$Array@VCharJointInfo@Shared@@@Util@@XZ 0045fd00 f i render_win32.release:graphicspagehandler.obj
 0001:0005ed30       ?GetLightType@InternalAbstractLightEntity@Lighting@@QBE?AW4Code@LightType@2@XZ 0045fd30 f i render_win32.release:graphicspagehandler.obj
 0001:0005ed50       ?GetColor@InternalAbstractLightEntity@Lighting@@QBEABVfloat4@Math@@XZ 0045fd50 f i render_win32.release:graphicspagehandler.obj
 0001:0005ed70       ?GetCastShadows@InternalAbstractLightEntity@Lighting@@QBE_NXZ 0045fd70 f i render_win32.release:graphicspagehandler.obj
 0001:0005ed90       ?getposition@transform44@Math@@QBEABVpoint@2@XZ 0045fd90 f i render_win32.release:graphicspagehandler.obj
 0001:0005eda0       ?getrotate@transform44@Math@@QBEABVquaternion@2@XZ 0045fda0 f i render_win32.release:graphicspagehandler.obj
 0001:0005edc0       ?getscale@transform44@Math@@QBEABVvector@2@XZ 0045fdc0 f i render_win32.release:graphicspagehandler.obj
 0001:0005ede0       ?GetPosition@TransformNodeInstance@Models@@QBEABVpoint@Math@@XZ 0045fde0 f i render_win32.release:graphicspagehandler.obj
 0001:0005ee00       ?GetRotate@TransformNodeInstance@Models@@QBEABVquaternion@Math@@XZ 0045fe00 f i render_win32.release:graphicspagehandler.obj
 0001:0005ee20       ?GetScale@TransformNodeInstance@Models@@QBEABVvector@Math@@XZ 0045fe20 f i render_win32.release:graphicspagehandler.obj
 0001:0005ee40       ??2GraphicsPageHandler@Debug@@SAPAXI@Z 0045fe40 f i render_win32.release:graphicspagehandler.obj
 0001:0005ee50       ??3GraphicsPageHandler@Debug@@SAXPAX@Z 0045fe50 f i render_win32.release:graphicspagehandler.obj
 0001:0005ee70       ?GetName@InternalStage@InternalGraphics@@QBEABVStringAtom@Util@@XZ 0045fe70 f i render_win32.release:graphicspagehandler.obj
 0001:0005ee90       ?GetEntities@InternalStage@InternalGraphics@@QBEABV?$Array@V?$Ptr@VInternalGraphicsEntity@InternalGraphics@@@@@Util@@XZ 0045fe90 f i render_win32.release:graphicspagehandler.obj
 0001:0005eeb0       ?GetEntitiesByType@InternalStage@InternalGraphics@@QBEABV?$Array@V?$Ptr@VInternalGraphicsEntity@InternalGraphics@@@@@Util@@W4Code@InternalGraphicsEntityType@2@@Z 0045feb0 f i render_win32.release:graphicspagehandler.obj
 0001:0005eef0       ?GetResolveTexture@RenderTargetBase@Base@@QBEABV?$Ptr@VTexture@CoreGraphics@@@@XZ 0045fef0 f i render_win32.release:graphicspagehandler.obj
 0001:0005ef30       ?GetName@FrameShader@Frame@@QBEABVStringAtom@Util@@XZ 0045ff30 f i render_win32.release:graphicspagehandler.obj
 0001:0005ef50       ?GetName@InternalView@InternalGraphics@@QBEABVStringAtom@Util@@XZ 0045ff50 f i render_win32.release:graphicspagehandler.obj
 0001:0005ef70       ?GetStage@InternalView@InternalGraphics@@QBEABV?$Ptr@VInternalStage@InternalGraphics@@@@XZ 0045ff70 f i render_win32.release:graphicspagehandler.obj
 0001:0005ef90       ?GetRenderTarget@InternalView@InternalGraphics@@QBEABV?$Ptr@VRenderTarget@CoreGraphics@@@@XZ 0045ff90 f i render_win32.release:graphicspagehandler.obj
 0001:0005efb0       ?GetFrameShader@InternalView@InternalGraphics@@QBEABV?$Ptr@VFrameShader@Frame@@@@XZ 0045ffb0 f i render_win32.release:graphicspagehandler.obj
 0001:0005efd0       ?GetName@CharacterSkin@Characters@@QBEABVStringAtom@Util@@XZ 0045ffd0 f i render_win32.release:graphicspagehandler.obj
 0001:0005eff0       ?GetNumSkins@CharacterSkinLibrary@Characters@@QBEHXZ 0045fff0 f i render_win32.release:graphicspagehandler.obj
 0001:0005f010       ?GetSkin@CharacterSkinLibrary@Characters@@QBEABVCharacterSkin@2@H@Z 00460010 f i render_win32.release:graphicspagehandler.obj
 0001:0005f030       ?HasSkin@CharacterSkinLibrary@Characters@@QBE_NABVStringAtom@Util@@@Z 00460030 f i render_win32.release:graphicspagehandler.obj
 0001:0005f050       ?GetNumSkinLists@CharacterSkinLibrary@Characters@@QBEHXZ 00460050 f i render_win32.release:graphicspagehandler.obj
 0001:0005f070       ?GetSkinList@CharacterSkinLibrary@Characters@@QBEABVCharacterSkinList@2@H@Z 00460070 f i render_win32.release:graphicspagehandler.obj
 0001:0005f090       ?GetNumVariations@CharacterVariationLibrary@Characters@@QBEHXZ 00460090 f i render_win32.release:graphicspagehandler.obj
 0001:0005f0b0       ?GetVariationNameAtIndex@CharacterVariationLibrary@Characters@@QBEABVStringAtom@Util@@H@Z 004600b0 f i render_win32.release:graphicspagehandler.obj
 0001:0005f0d0       ?SkinLibrary@Character@Characters@@QAEAAVCharacterSkinLibrary@2@XZ 004600d0 f i render_win32.release:graphicspagehandler.obj
 0001:0005f0f0       ?AnimationLibrary@Character@Characters@@QAEAAVCharacterAnimationLibrary@2@XZ 004600f0 f i render_win32.release:graphicspagehandler.obj
 0001:0005f110       ?VariationLibrary@Character@Characters@@QAEAAVCharacterVariationLibrary@2@XZ 00460110 f i render_win32.release:graphicspagehandler.obj
 0001:0005f130       ?SetClipName@PlayClipJob@Animation@@QAEXABVStringAtom@Util@@@Z 00460130 f i render_win32.release:graphicspagehandler.obj
 0001:0005f150       ?SetLoopCount@PlayClipJob@Animation@@QAEXM@Z 00460150 f i render_win32.release:graphicspagehandler.obj
 0001:0005f170       ?SetToggle@ControlPerfHUD@Debug@@QAEX_N@Z 00460170 f i render_win32.release:graphicspagehandler.obj
 0001:0005f1b0       ?GetRtti@GraphicsPageHandler@Debug@@UBEPAVRtti@Core@@XZ 004601b0 f   render_win32.release:graphicspagehandler.obj
 0001:0005f1c0       ?FactoryCreator@GraphicsPageHandler@Debug@@SAPAVRefCounted@Core@@XZ 004601c0 f   render_win32.release:graphicspagehandler.obj
 0001:0005f1d0       ?Create@GraphicsPageHandler@Debug@@SAPAV12@XZ 004601d0 f   render_win32.release:graphicspagehandler.obj
 0001:0005f210       ?RegisterWithFactory@GraphicsPageHandler@Debug@@SA_NXZ 00460210 f   render_win32.release:graphicspagehandler.obj
 0001:0005f310       ??0GraphicsPageHandler@Debug@@QAE@XZ 00460310 f   render_win32.release:graphicspagehandler.obj
 0001:0005f4d0       ??_GGraphicsPageHandler@Debug@@UAEPAXI@Z 004604d0 f i render_win32.release:graphicspagehandler.obj
 0001:0005f4d0       ??_EGraphicsPageHandler@Debug@@UAEPAXI@Z 004604d0 f i  CIL library: CIL module
 0001:0005f500       ??1GraphicsPageHandler@Debug@@UAE@XZ 00460500 f i render_win32.release:graphicspagehandler.obj
 0001:0005f530       ?HandleRequest@GraphicsPageHandler@Debug@@UAEXABV?$Ptr@VHttpRequest@Http@@@@@Z 00460530 f   render_win32.release:graphicspagehandler.obj
 0001:00061ba0       ?WriteEntityTable@GraphicsPageHandler@Debug@@AAEXABV?$Array@V?$Ptr@VInternalGraphicsEntity@InternalGraphics@@@@@Util@@ABV?$Ptr@VHtmlPageWriter@Http@@@@@Z 00462ba0 f   render_win32.release:graphicspagehandler.obj
 0001:00062fe0       ?WriteStageInfo@GraphicsPageHandler@Debug@@AAE?AW4Code@HttpStatus@Http@@ABV?$Ptr@VHttpRequest@Http@@@@ABVStringAtom@Util@@@Z 00463fe0 f   render_win32.release:graphicspagehandler.obj
 0001:00063580       ?WriteViewInfo@GraphicsPageHandler@Debug@@AAE?AW4Code@HttpStatus@Http@@ABV?$Ptr@VHttpRequest@Http@@@@ABVStringAtom@Util@@@Z 00464580 f   render_win32.release:graphicspagehandler.obj
 0001:000635a0       ?WriteEntityInfo@GraphicsPageHandler@Debug@@AAE?AW4Code@HttpStatus@Http@@ABV?$Ptr@VHttpRequest@Http@@@@H@Z 004645a0 f   render_win32.release:graphicspagehandler.obj
 0001:000645f0       ?WriteModelEntityInfo@GraphicsPageHandler@Debug@@AAEXABV?$Ptr@VInternalModelEntity@InternalGraphics@@@@ABV?$Ptr@VHtmlPageWriter@Http@@@@@Z 004655f0 f   render_win32.release:graphicspagehandler.obj
 0001:00066b80       ?WriteLightEntityInfo@GraphicsPageHandler@Debug@@AAEXABV?$Ptr@VInternalAbstractLightEntity@Lighting@@@@ABV?$Ptr@VHtmlPageWriter@Http@@@@@Z 00467b80 f   render_win32.release:graphicspagehandler.obj
 0001:00067700       ?WriteCameraEntityInfo@GraphicsPageHandler@Debug@@AAEXABV?$Ptr@VInternalCameraEntity@InternalGraphics@@@@ABV?$Ptr@VHtmlPageWriter@Http@@@@@Z 00468700 f   render_win32.release:graphicspagehandler.obj
 0001:00067710       ?LookupCharacterModelEntityById@GraphicsPageHandler@Debug@@AAE?AV?$Ptr@VInternalModelEntity@InternalGraphics@@@@H@Z 00468710 f   render_win32.release:graphicspagehandler.obj
 0001:00067810       ?PlayAnim@GraphicsPageHandler@Debug@@AAE?AW4Code@HttpStatus@Http@@ABV?$Ptr@VHttpRequest@Http@@@@ABVString@Util@@@Z 00468810 f   render_win32.release:graphicspagehandler.obj
 0001:00067ac0       ?ToggleSkin@GraphicsPageHandler@Debug@@AAE?AW4Code@HttpStatus@Http@@ABV?$Ptr@VHttpRequest@Http@@@@ABVString@Util@@@Z 00468ac0 f   render_win32.release:graphicspagehandler.obj
 0001:00067cc0       ?ApplySkinList@GraphicsPageHandler@Debug@@AAE?AW4Code@HttpStatus@Http@@ABV?$Ptr@VHttpRequest@Http@@@@ABVString@Util@@@Z 00468cc0 f   render_win32.release:graphicspagehandler.obj
 0001:00067e40       ?ShowHideAnimSequencerHUD@GraphicsPageHandler@Debug@@AAE?AW4Code@HttpStatus@Http@@ABV?$Ptr@VHttpRequest@Http@@@@ABVString@Util@@@Z 00468e40 f   render_win32.release:graphicspagehandler.obj
 0001:00067fc0       ?WriteModelInstanceHierarchy@GraphicsPageHandler@Debug@@AAEXHABV?$Ptr@VModelInstance@Models@@@@ABV?$Ptr@VHtmlPageWriter@Http@@@@@Z 00468fc0 f   render_win32.release:graphicspagehandler.obj
 0001:000687c0       ?WriteModelNodeInstanceInfo@GraphicsPageHandler@Debug@@AAE?AW4Code@HttpStatus@Http@@ABV?$Ptr@VHttpRequest@Http@@@@ABVString@Util@@@Z 004697c0 f   render_win32.release:graphicspagehandler.obj
 0001:00068ba0       ?WriteTransformNodeInfo@GraphicsPageHandler@Debug@@AAEXABV?$Ptr@VTransformNodeInstance@Models@@@@ABV?$Ptr@VHtmlPageWriter@Http@@@@@Z 00469ba0 f   render_win32.release:graphicspagehandler.obj
 0001:000690e0       ?WriteAnimatorNodeInfo@GraphicsPageHandler@Debug@@AAEXABV?$Ptr@VAnimatorNodeInstance@Models@@@@ABV?$Ptr@VHtmlPageWriter@Http@@@@@Z 0046a0e0 f   render_win32.release:graphicspagehandler.obj
 0001:00069160       ?WriteStateNodeInfo@GraphicsPageHandler@Debug@@AAEXABV?$Ptr@VStateNodeInstance@Models@@@@ABV?$Ptr@VHtmlPageWriter@Http@@@@@Z 0046a160 f   render_win32.release:graphicspagehandler.obj
 0001:00069320       ?WriteShapeNodeInfo@GraphicsPageHandler@Debug@@AAEXABV?$Ptr@VShapeNodeInstance@Models@@@@ABV?$Ptr@VHtmlPageWriter@Http@@@@@Z 0046a320 f   render_win32.release:graphicspagehandler.obj
 0001:00069330       ?ApplyVariation@GraphicsPageHandler@Debug@@AAE?AW4Code@HttpStatus@Http@@ABV?$Ptr@VHttpRequest@Http@@@@ABVString@Util@@@Z 0046a330 f   render_win32.release:graphicspagehandler.obj
 0001:000694a0       ??0?$Array@V?$Ptr@VInternalGraphicsEntity@InternalGraphics@@@@@Util@@QAE@ABV01@@Z 0046a4a0 f i render_win32.release:graphicspagehandler.obj
 0001:000694f0       ?Contains@?$Dictionary@VStringAtom@Util@@H@Util@@QBE_NABVStringAtom@2@@Z 0046a4f0 f i render_win32.release:graphicspagehandler.obj
 0001:00069550       ??0?$Ptr@VInternalModelEntity@InternalGraphics@@@@QAE@ABV0@@Z 0046a550 f i render_win32.release:graphicspagehandler.obj
 0001:00069590       ??0?$Ptr@VInternalModelEntity@InternalGraphics@@@@QAE@XZ 0046a590 f i render_win32.release:graphicspagehandler.obj
 0001:000695b0       ??1?$Ptr@VInternalModelEntity@InternalGraphics@@@@QAE@XZ 0046a5b0 f i render_win32.release:graphicspagehandler.obj
 0001:000695e0       ??4?$Ptr@VInternalModelEntity@InternalGraphics@@@@QAEXABV0@@Z 0046a5e0 f i render_win32.release:graphicspagehandler.obj
 0001:00069640       ?isvalid@?$Ptr@VInternalModelEntity@InternalGraphics@@@@QBE_NXZ 0046a640 f i render_win32.release:graphicspagehandler.obj
 0001:00069660       ?Size@?$FixedArray@VAnimClip@CoreAnimation@@@Util@@QBEHXZ 0046a660 f i render_win32.release:graphicspagehandler.obj
 0001:00069670       ??1?$Array@V?$Ptr@VAnimJob@Animation@@@@@Util@@QAE@XZ 0046a670 f i render_win32.release:graphicspagehandler.obj
 0001:00069690       ??A?$Array@V?$Ptr@VAnimJob@Animation@@@@@Util@@QBEAAV?$Ptr@VAnimJob@Animation@@@@H@Z 0046a690 f i render_win32.release:graphicspagehandler.obj
 0001:000696e0       ?Size@?$Array@V?$Ptr@VAnimJob@Animation@@@@@Util@@QBEHXZ 0046a6e0 f i render_win32.release:graphicspagehandler.obj
 0001:00069700       ??C?$Ptr@VCharacter@Characters@@@@QBEPAVCharacter@Characters@@XZ 0046a700 f i render_win32.release:graphicspagehandler.obj
 0001:00069740       ??4?$Ptr@VInternalGraphicsEntity@InternalGraphics@@@@QAEXABV0@@Z 0046a740 f i render_win32.release:graphicspagehandler.obj
 0001:000697a0       ??A?$Array@VCharJointInfo@Shared@@@Util@@QBEAAVCharJointInfo@Shared@@H@Z 0046a7a0 f i render_win32.release:graphicspagehandler.obj
 0001:000697f0       ?Size@?$Array@VCharJointInfo@Shared@@@Util@@QBEHXZ 0046a7f0 f i render_win32.release:graphicspagehandler.obj
 0001:00069810       ??C?$Ptr@VCharacterInstance@Characters@@@@QBEPAVCharacterInstance@Characters@@XZ 0046a810 f i render_win32.release:graphicspagehandler.obj
 0001:00069850       ?isvalid@?$Ptr@VCharacterInstance@Characters@@@@QBE_NXZ 0046a850 f i render_win32.release:graphicspagehandler.obj
 0001:00069870       ??$Client@VModelEntityShared@Shared@@@FrameSyncSharedData@FrameSync@@QAEAAVModelEntityShared@Shared@@XZ 0046a870 f i render_win32.release:graphicspagehandler.obj
 0001:000698f0       ??C?$Ptr@VInternalView@InternalGraphics@@@@QBEPAVInternalView@InternalGraphics@@XZ 0046a8f0 f i render_win32.release:graphicspagehandler.obj
 0001:00069930       ?isvalid@?$Ptr@VTexture@CoreGraphics@@@@QBE_NXZ 0046a930 f i render_win32.release:graphicspagehandler.obj
 0001:00069950       ??A?$Array@V?$Ptr@VInternalStage@InternalGraphics@@@@@Util@@QBEAAV?$Ptr@VInternalStage@InternalGraphics@@@@H@Z 0046a950 f i render_win32.release:graphicspagehandler.obj
 0001:000699a0       ?Size@?$Array@V?$Ptr@VInternalStage@InternalGraphics@@@@@Util@@QBEHXZ 0046a9a0 f i render_win32.release:graphicspagehandler.obj
 0001:000699c0       ??A?$Array@V?$Ptr@VInternalView@InternalGraphics@@@@@Util@@QBEAAV?$Ptr@VInternalView@InternalGraphics@@@@H@Z 0046a9c0 f i render_win32.release:graphicspagehandler.obj
 0001:00069a10       ?Size@?$Array@V?$Ptr@VInternalView@InternalGraphics@@@@@Util@@QBEHXZ 0046aa10 f i render_win32.release:graphicspagehandler.obj
 0001:00069a30       ??C?$Ptr@VRenderTarget@CoreGraphics@@@@QBEPAVRenderTarget@CoreGraphics@@XZ 0046aa30 f i render_win32.release:graphicspagehandler.obj
 0001:00069a70       ?isvalid@?$Ptr@VRenderTarget@CoreGraphics@@@@QBE_NXZ 0046aa70 f i render_win32.release:graphicspagehandler.obj
 0001:00069a90       ??C?$Ptr@VFrameShader@Frame@@@@QBEPAVFrameShader@Frame@@XZ 0046aa90 f i render_win32.release:graphicspagehandler.obj
 0001:00069ad0       ??A?$Array@VCharacterSkin@Characters@@@Util@@QBEAAVCharacterSkin@Characters@@H@Z 0046aad0 f i render_win32.release:graphicspagehandler.obj
 0001:00069b20       ?Size@?$Array@VCharacterSkin@Characters@@@Util@@QBEHXZ 0046ab20 f i render_win32.release:graphicspagehandler.obj
 0001:00069b40       ??A?$Array@VCharacterSkinList@Characters@@@Util@@QBEAAVCharacterSkinList@Characters@@H@Z 0046ab40 f i render_win32.release:graphicspagehandler.obj
 0001:00069b90       ?Size@?$Array@VCharacterSkinList@Characters@@@Util@@QBEHXZ 0046ab90 f i render_win32.release:graphicspagehandler.obj
 0001:00069bb0       ?Size@?$Dictionary@VStringAtom@Util@@V?$FixedArray@UCharJointComponents@Characters@@@2@@Util@@QBEHXZ 0046abb0 f i render_win32.release:graphicspagehandler.obj
 0001:00069bd0       ?KeyAtIndex@?$Dictionary@VStringAtom@Util@@V?$FixedArray@UCharJointComponents@Characters@@@2@@Util@@QBEABVStringAtom@2@H@Z 0046abd0 f i render_win32.release:graphicspagehandler.obj
 0001:00069c20       ??0?$Ptr@VControlPerfHUD@Debug@@@@QAE@PAVControlPerfHUD@Debug@@@Z 0046ac20 f i render_win32.release:graphicspagehandler.obj
 0001:00069c60       ??1?$Ptr@VControlPerfHUD@Debug@@@@QAE@XZ 0046ac60 f i render_win32.release:graphicspagehandler.obj
 0001:00069c90       ??$Send@VControlPerfHUD@Debug@@@AsyncPort@Messaging@@QAEXABV?$Ptr@VControlPerfHUD@Debug@@@@@Z 0046ac90 f i render_win32.release:graphicspagehandler.obj
 0001:00069cb0       ??$downcast@VInternalModelEntity@InternalGraphics@@@?$Ptr@VInternalGraphicsEntity@InternalGraphics@@@@QBEABV?$Ptr@VInternalModelEntity@InternalGraphics@@@@XZ 0046acb0 f i render_win32.release:graphicspagehandler.obj
 0001:00069cc0       ??$downcast@VInternalAbstractLightEntity@Lighting@@@?$Ptr@VInternalGraphicsEntity@InternalGraphics@@@@QBEABV?$Ptr@VInternalAbstractLightEntity@Lighting@@@@XZ 0046acc0 f i render_win32.release:graphicspagehandler.obj
 0001:00069cd0       ??$downcast@VInternalCameraEntity@InternalGraphics@@@?$Ptr@VInternalGraphicsEntity@InternalGraphics@@@@QBEABV?$Ptr@VInternalCameraEntity@InternalGraphics@@@@XZ 0046acd0 f i render_win32.release:graphicspagehandler.obj
 0001:00069ce0       ??C?$Ptr@VAnimJob@Animation@@@@QBEPAVAnimJob@Animation@@XZ 0046ace0 f i render_win32.release:graphicspagehandler.obj
 0001:00069d20       ??C?$Ptr@VInternalAbstractLightEntity@Lighting@@@@QBEPAVInternalAbstractLightEntity@Lighting@@XZ 0046ad20 f i render_win32.release:graphicspagehandler.obj
 0001:00069d60       ??0?$Ptr@VPlayClipJob@Animation@@@@QAE@PAVPlayClipJob@Animation@@@Z 0046ad60 f i render_win32.release:graphicspagehandler.obj
 0001:00069da0       ??1?$Ptr@VPlayClipJob@Animation@@@@QAE@XZ 0046ada0 f i render_win32.release:graphicspagehandler.obj
 0001:00069dd0       ??C?$Ptr@VPlayClipJob@Animation@@@@QBEPAVPlayClipJob@Animation@@XZ 0046add0 f i render_win32.release:graphicspagehandler.obj
 0001:00069e10       ??$upcast@VAnimJob@Animation@@@?$Ptr@VPlayClipJob@Animation@@@@QBEABV?$Ptr@VAnimJob@Animation@@@@XZ 0046ae10 f i render_win32.release:graphicspagehandler.obj
 0001:00069e20       ??$cast@VTransformNodeInstance@Models@@@?$Ptr@VModelNodeInstance@Models@@@@QBEABV?$Ptr@VTransformNodeInstance@Models@@@@XZ 0046ae20 f i render_win32.release:graphicspagehandler.obj
 0001:00069e30       ??$cast@VAnimatorNodeInstance@Models@@@?$Ptr@VModelNodeInstance@Models@@@@QBEABV?$Ptr@VAnimatorNodeInstance@Models@@@@XZ 0046ae30 f i render_win32.release:graphicspagehandler.obj
 0001:00069e40       ??$cast@VShapeNodeInstance@Models@@@?$Ptr@VModelNodeInstance@Models@@@@QBEABV?$Ptr@VShapeNodeInstance@Models@@@@XZ 0046ae40 f i render_win32.release:graphicspagehandler.obj
 0001:00069e50       ?Copy@?$Array@V?$Ptr@VInternalGraphicsEntity@InternalGraphics@@@@@Util@@AAEXABV12@@Z 0046ae50 f i render_win32.release:graphicspagehandler.obj
 0001:00069f80       ??0?$KeyValuePair@VStringAtom@Util@@H@Util@@QAE@ABVStringAtom@1@@Z 0046af80 f i render_win32.release:graphicspagehandler.obj
 0001:00069fa0       ?BinarySearchIndex@?$Array@V?$KeyValuePair@VStringAtom@Util@@H@Util@@@Util@@QBEHABV?$KeyValuePair@VStringAtom@Util@@H@2@@Z 0046afa0 f i render_win32.release:graphicspagehandler.obj
 0001:0006a0d0       ?Delete@?$Array@V?$Ptr@VAnimJob@Animation@@@@@Util@@AAEXXZ 0046b0d0 f i render_win32.release:graphicspagehandler.obj
 0001:0006a140       ?Key@?$KeyValuePair@VStringAtom@Util@@V?$FixedArray@UCharJointComponents@Characters@@@2@@Util@@QBEABVStringAtom@2@XZ 0046b140 f i render_win32.release:graphicspagehandler.obj
 0001:0006a150       ??A?$Array@V?$KeyValuePair@VStringAtom@Util@@V?$FixedArray@UCharJointComponents@Characters@@@2@@Util@@@Util@@QBEAAV?$KeyValuePair@VStringAtom@Util@@V?$FixedArray@UCharJointComponents@Characters@@@2@@1@H@Z 0046b150 f i render_win32.release:graphicspagehandler.obj
 0001:0006a1a0       ?Size@?$Array@V?$KeyValuePair@VStringAtom@Util@@V?$FixedArray@UCharJointComponents@Characters@@@2@@Util@@@Util@@QBEHXZ 0046b1a0 f i render_win32.release:graphicspagehandler.obj
 0001:0006a1c0       ??_E?$Ptr@VAnimJob@Animation@@@@QAEPAXI@Z 0046b1c0 f i render_win32.release:graphicspagehandler.obj
 0001:0006a260       ??0?$Ptr@VInternalGraphicsEntity@InternalGraphics@@@@QAE@XZ 0046b260 f i render_win32.release:graphicspagehandler.obj
 0001:0006a280       ??9?$KeyValuePair@VStringAtom@Util@@H@Util@@QBE_NABV01@@Z 0046b280 f i render_win32.release:graphicspagehandler.obj
 0001:0006a2a0       ??O?$KeyValuePair@VStringAtom@Util@@H@Util@@QBE_NABV01@@Z 0046b2a0 f i render_win32.release:graphicspagehandler.obj
 0001:0006a2c0       ??M?$KeyValuePair@VStringAtom@Util@@H@Util@@QBE_NABV01@@Z 0046b2c0 f i render_win32.release:graphicspagehandler.obj
 0001:0006a2e0       ?Size@?$Array@V?$KeyValuePair@VStringAtom@Util@@H@Util@@@Util@@QBEHXZ 0046b2e0 f i render_win32.release:graphicspagehandler.obj
 0001:0006a300       ??1?$Ptr@VAnimJob@Animation@@@@QAE@XZ 0046b300 f i render_win32.release:graphicspagehandler.obj
 0001:0006a330       ?XMVectorGetWPtr@@YAXPAMT__m128@@@Z 0046b330 f i render_win32.release:graphicspagehandler.obj
 0001:0006a370       ?XMVector4Length@@YA?AT__m128@@T1@@Z 0046b370 f i render_win32.release:graphicspagehandler.obj
 0001:0006a4b0       ??YString@Util@@QAEXABV01@@Z 0046b4b0 f i render_win32.release:streamingtexturepagehandler.obj
 0001:0006a590       ??0URI@IO@@QAE@XZ          0046b590 f i render_win32.release:streamingtexturepagehandler.obj
 0001:0006a6f0       ??4URI@IO@@QAEXABV01@@Z    0046b6f0 f i render_win32.release:streamingtexturepagehandler.obj
 0001:0006a8f0       ?GetNumPools@PoolResourceMapper@Resources@@QBEHXZ 0046b8f0 f i render_win32.release:streamingtexturepagehandler.obj
 0001:0006a910       ??2StreamingTexturePageHandler@Debug@@SAPAXI@Z 0046b910 f i render_win32.release:streamingtexturepagehandler.obj
 0001:0006a920       ??3StreamingTexturePageHandler@Debug@@SAXPAX@Z 0046b920 f i render_win32.release:streamingtexturepagehandler.obj
 0001:0006a940       ?GetResource@ResourceSlot@Resources@@QBEABV?$Ptr@VResource@Resources@@@@XZ 0046b940 f i render_win32.release:streamingtexturepagehandler.obj
 0001:0006a960       ??0PoolStatisticsRequest@Resources@@QAE@XZ 0046b960 f i render_win32.release:streamingtexturepagehandler.obj
 0001:0006a990       ?Reset@PoolStatisticsRequest@Resources@@QAEXXZ 0046b990 f i render_win32.release:streamingtexturepagehandler.obj
 0001:0006a9b0       ?GetRejectedRequests@ResourcePool@Resources@@QBEH_N@Z 0046b9b0 f i render_win32.release:streamingtexturepagehandler.obj
 0001:0006a9e0       ?GetAutoMipPoolsNotFound@ResourcePool@Resources@@QBEH_N@Z 0046b9e0 f i render_win32.release:streamingtexturepagehandler.obj
 0001:0006aa10       ?GetAutoMipSlotsNotFound@ResourcePool@Resources@@QBEH_N@Z 0046ba10 f i render_win32.release:streamingtexturepagehandler.obj
 0001:0006aa40       ?SetCanvasDimensions@SvgPageWriter@Http@@QAEXHH@Z 0046ba40 f i render_win32.release:streamingtexturepagehandler.obj
 0001:0006aa60       ?SetUnitDimensions@SvgPageWriter@Http@@QAEXHH@Z 0046ba60 f i render_win32.release:streamingtexturepagehandler.obj
 0001:0006aa80       ?GetRtti@StreamingTexturePageHandler@Debug@@UBEPAVRtti@Core@@XZ 0046ba80 f   render_win32.release:streamingtexturepagehandler.obj
 0001:0006aa90       ?FactoryCreator@StreamingTexturePageHandler@Debug@@SAPAVRefCounted@Core@@XZ 0046ba90 f   render_win32.release:streamingtexturepagehandler.obj
 0001:0006aaa0       ?Create@StreamingTexturePageHandler@Debug@@SAPAV12@XZ 0046baa0 f   render_win32.release:streamingtexturepagehandler.obj
 0001:0006aae0       ?RegisterWithFactory@StreamingTexturePageHandler@Debug@@SA_NXZ 0046bae0 f   render_win32.release:streamingtexturepagehandler.obj
 0001:0006abe0       ??0StreamingTexturePageHandler@Debug@@QAE@XZ 0046bbe0 f   render_win32.release:streamingtexturepagehandler.obj
 0001:0006ae30       ??_GStreamingTexturePageHandler@Debug@@UAEPAXI@Z 0046be30 f i render_win32.release:streamingtexturepagehandler.obj
 0001:0006ae30       ??_EStreamingTexturePageHandler@Debug@@UAEPAXI@Z 0046be30 f i  CIL library: CIL module
 0001:0006ae60       ??1?$Dictionary@VStringAtom@Util@@UPoolSetupInfo@Resources@@@Util@@QAE@XZ 0046be60 f i render_win32.release:streamingtexturepagehandler.obj
 0001:0006ae80       ??1StreamingTexturePageHandler@Debug@@UAE@XZ 0046be80 f i render_win32.release:streamingtexturepagehandler.obj
 0001:0006aed0       ?HandleRequest@StreamingTexturePageHandler@Debug@@UAEXABV?$Ptr@VHttpRequest@Http@@@@@Z 0046bed0 f   render_win32.release:streamingtexturepagehandler.obj
 0001:0006e050       ?HandlePoolRequest@StreamingTexturePageHandler@Debug@@AAEXABVString@Util@@ABV?$Ptr@VHttpRequest@Http@@@@@Z 0046f050 f   render_win32.release:streamingtexturepagehandler.obj
 0001:00071110       ?HandleSlotRequest@StreamingTexturePageHandler@Debug@@AAEXABVString@Util@@0ABV?$Ptr@VHttpRequest@Http@@@@@Z 00472110 f   render_win32.release:streamingtexturepagehandler.obj
 0001:00071aa0       ?HandleImageRequest@StreamingTexturePageHandler@Debug@@AAE?AW4Code@HttpStatus@Http@@ABV?$Dictionary@VString@Util@@V12@@Util@@ABV?$Ptr@VStream@IO@@@@@Z 00472aa0 f   render_win32.release:streamingtexturepagehandler.obj
 0001:00072030       ?SVGChart@StreamingTexturePageHandler@Debug@@AAE_NABV?$Dictionary@VString@Util@@V12@@Util@@ABV?$Ptr@VHttpRequest@Http@@@@@Z 00473030 f   render_win32.release:streamingtexturepagehandler.obj
 0001:00072ce0       ?GetHexColorCode@StreamingTexturePageHandler@Debug@@AAE?AVString@Util@@M@Z 00473ce0 f   render_win32.release:streamingtexturepagehandler.obj
 0001:00072f40       ?AddPoolHeaders@StreamingTexturePageHandler@Debug@@AAEXABV?$Ptr@VHtmlPageWriter@Http@@@@_N@Z 00473f40 f   render_win32.release:streamingtexturepagehandler.obj
 0001:00074290       ?AddPoolData@StreamingTexturePageHandler@Debug@@AAEXABV?$Ptr@VResourcePool@Resources@@@@ABV?$Ptr@VHtmlPageWriter@Http@@@@_N@Z 00475290 f   render_win32.release:streamingtexturepagehandler.obj
 0001:00075c40       ?LoadPoolXML@StreamingTexturePageHandler@Debug@@AAEXXZ 00476c40 f   render_win32.release:streamingtexturepagehandler.obj
 0001:00075d80       ?UpdateSlotSets@StreamingTexturePageHandler@Debug@@AAEXABV?$Dictionary@VString@Util@@V12@@Util@@@Z 00476d80 f   render_win32.release:streamingtexturepagehandler.obj
 0001:00075f70       ?Sort@?$Array@VString@Util@@@Util@@QAEXXZ 00476f70 f i render_win32.release:streamingtexturepagehandler.obj
 0001:00075fe0       ??1?$Array@V?$KeyValuePair@VStringAtom@Util@@UPoolSetupInfo@Resources@@@Util@@@Util@@QAE@XZ 00476fe0 f i render_win32.release:streamingtexturepagehandler.obj
 0001:00076000       ??0?$Dictionary@VStringAtom@Util@@UPoolSetupInfo@Resources@@@Util@@QAE@XZ 00477000 f i render_win32.release:streamingtexturepagehandler.obj
 0001:00076020       ??A?$Dictionary@VStringAtom@Util@@UPoolSetupInfo@Resources@@@Util@@QAEAAUPoolSetupInfo@Resources@@ABVStringAtom@1@@Z 00477020 f i render_win32.release:streamingtexturepagehandler.obj
 0001:00076070       ?Clear@?$Dictionary@VStringAtom@Util@@UPoolSetupInfo@Resources@@@Util@@QAEXXZ 00477070 f i render_win32.release:streamingtexturepagehandler.obj
 0001:000760b0       ?Contains@?$Dictionary@VStringAtom@Util@@UPoolSetupInfo@Resources@@@Util@@QBE_NABVStringAtom@2@@Z 004770b0 f i render_win32.release:streamingtexturepagehandler.obj
 0001:00076110       ?ValueAtIndex@?$Dictionary@VStringAtom@Util@@UPoolSetupInfo@Resources@@@Util@@QAEAAUPoolSetupInfo@Resources@@H@Z 00477110 f i render_win32.release:streamingtexturepagehandler.obj
 0001:00076160       ??0?$Ptr@VPoolResourceMapper@Resources@@@@QAE@ABV0@@Z 00477160 f i render_win32.release:streamingtexturepagehandler.obj
 0001:000761a0       ?Size@?$Dictionary@VString@Util@@V12@@Util@@QBEHXZ 004771a0 f i render_win32.release:streamingtexturepagehandler.obj
 0001:000761c0       ?KeyAtIndex@?$Dictionary@VString@Util@@V12@@Util@@QBEABVString@2@H@Z 004771c0 f i render_win32.release:streamingtexturepagehandler.obj
 0001:00076210       ?ValueAtIndex@?$Dictionary@VString@Util@@V12@@Util@@QBEABVString@2@H@Z 00477210 f i render_win32.release:streamingtexturepagehandler.obj
 0001:00076260       ??0?$Ptr@VResourcePool@Resources@@@@QAE@PAVResourcePool@Resources@@@Z 00477260 f i render_win32.release:streamingtexturepagehandler.obj
 0001:000762a0       ??1?$Ptr@VResourceSlot@Resources@@@@QAE@XZ 004772a0 f i render_win32.release:streamingtexturepagehandler.obj
 0001:000762d0       ??C?$Ptr@VResourceSlot@Resources@@@@QBEPAVResourceSlot@Resources@@XZ 004772d0 f i render_win32.release:streamingtexturepagehandler.obj
 0001:00076310       ?isvalid@?$Ptr@VResourceSlot@Resources@@@@QBE_NXZ 00477310 f i render_win32.release:streamingtexturepagehandler.obj
 0001:00076330       ??0?$Ptr@VTexture@CoreGraphics@@@@QAE@ABV0@@Z 00477330 f i render_win32.release:streamingtexturepagehandler.obj
 0001:00076370       ??1?$Ptr@VTexture@CoreGraphics@@@@QAE@XZ 00477370 f i render_win32.release:streamingtexturepagehandler.obj
 0001:000763a0       ??0?$Ptr@VSvgPageWriter@Http@@@@QAE@PAVSvgPageWriter@Http@@@Z 004773a0 f i render_win32.release:streamingtexturepagehandler.obj
 0001:000763e0       ??1?$Ptr@VSvgPageWriter@Http@@@@QAE@XZ 004773e0 f i render_win32.release:streamingtexturepagehandler.obj
 0001:00076410       ??C?$Ptr@VSvgPageWriter@Http@@@@QBEPAVSvgPageWriter@Http@@XZ 00477410 f i render_win32.release:streamingtexturepagehandler.obj
 0001:00076450       ??0?$Ptr@VIoServer@IO@@@@QAE@PAVIoServer@IO@@@Z 00477450 f i render_win32.release:streamingtexturepagehandler.obj
 0001:00076490       ??C?$Ptr@VIoServer@IO@@@@QBEPAVIoServer@IO@@XZ 00477490 f i render_win32.release:streamingtexturepagehandler.obj
 0001:000764d0       ?Begin@?$Array@VString@Util@@@Util@@QBEPAVString@2@XZ 004774d0 f i render_win32.release:streamingtexturepagehandler.obj
 0001:000764f0       ?End@?$Array@VString@Util@@@Util@@QBEPAVString@2@XZ 004774f0 f i render_win32.release:streamingtexturepagehandler.obj
 0001:00076510       ??$sort@PAVString@Util@@@std@@YAXPAVString@Util@@0@Z 00477510 f i render_win32.release:streamingtexturepagehandler.obj
 0001:00076540       ??0?$Array@V?$KeyValuePair@VStringAtom@Util@@UPoolSetupInfo@Resources@@@Util@@@Util@@QAE@XZ 00477540 f i render_win32.release:streamingtexturepagehandler.obj
 0001:00076580       ?Clear@?$Array@V?$KeyValuePair@VStringAtom@Util@@UPoolSetupInfo@Resources@@@Util@@@Util@@QAEXXZ 00477580 f i render_win32.release:streamingtexturepagehandler.obj
 0001:000765d0       ?BinarySearchIndex@?$Array@V?$KeyValuePair@VStringAtom@Util@@UPoolSetupInfo@Resources@@@Util@@@Util@@QBEHABV?$KeyValuePair@VStringAtom@Util@@UPoolSetupInfo@Resources@@@2@@Z 004775d0 f i render_win32.release:streamingtexturepagehandler.obj
 0001:00076700       ?Delete@?$Array@V?$KeyValuePair@VStringAtom@Util@@UPoolSetupInfo@Resources@@@Util@@@Util@@AAEXXZ 00477700 f i render_win32.release:streamingtexturepagehandler.obj
 0001:00076760       ?FindIndex@?$Dictionary@VStringAtom@Util@@UPoolSetupInfo@Resources@@@Util@@QBEHABVStringAtom@2@@Z 00477760 f i render_win32.release:streamingtexturepagehandler.obj
 0001:000767b0       ??0?$KeyValuePair@VStringAtom@Util@@UPoolSetupInfo@Resources@@@Util@@QAE@ABVStringAtom@1@@Z 004777b0 f i render_win32.release:streamingtexturepagehandler.obj
 0001:000767d0       ?Key@?$KeyValuePair@VString@Util@@V12@@Util@@QBEABVString@2@XZ 004777d0 f i render_win32.release:streamingtexturepagehandler.obj
 0001:000767e0       ??$_Checked_base@PAVString@Util@@@std@@YAPAVString@Util@@AAPAV12@@Z 004777e0 f i render_win32.release:streamingtexturepagehandler.obj
 0001:00076800       ??$_Sort@PAVString@Util@@H@std@@YAXPAVString@Util@@0H@Z 00477800 f i render_win32.release:streamingtexturepagehandler.obj
 0001:00076930       ??$_Checked_base@PAVString@Util@@@std@@YAPAVString@Util@@AAPAV12@U_Unchanged_checked_iterator_base_type_tag@0@@Z 00477930 f i render_win32.release:streamingtexturepagehandler.obj
 0001:00076940       ??$_Unguarded_partition@PAVString@Util@@@std@@YA?AU?$pair@PAVString@Util@@PAV12@@0@PAVString@Util@@0@Z 00477940 f i render_win32.release:streamingtexturepagehandler.obj
 0001:00076c50       ??$make_heap@PAVString@Util@@@std@@YAXPAVString@Util@@0@Z 00477c50 f i render_win32.release:streamingtexturepagehandler.obj
 0001:00076c90       ??$sort_heap@PAVString@Util@@@std@@YAXPAVString@Util@@0@Z 00477c90 f i render_win32.release:streamingtexturepagehandler.obj
 0001:00076cb0       ??$_Insertion_sort@PAVString@Util@@@std@@YAXPAVString@Util@@0@Z 00477cb0 f i render_win32.release:streamingtexturepagehandler.obj
 0001:00076cd0       ??0?$pair@PAVString@Util@@PAV12@@std@@QAE@ABQAVString@Util@@0@Z 00477cd0 f i render_win32.release:streamingtexturepagehandler.obj
 0001:00076d00       ??$_Median@PAVString@Util@@@std@@YAXPAVString@Util@@00@Z 00477d00 f i render_win32.release:streamingtexturepagehandler.obj
 0001:00076de0       ??$iter_swap@PAVString@Util@@PAV12@@std@@YAXPAVString@Util@@0@Z 00477de0 f i render_win32.release:streamingtexturepagehandler.obj
 0001:00076e00       ??$_Dist_type@PAVString@Util@@@std@@YAPAHPAVString@Util@@@Z 00477e00 f i render_win32.release:streamingtexturepagehandler.obj
 0001:00076e10       ??$_Val_type@PAVString@Util@@@std@@YAPAVString@Util@@PAV12@@Z 00477e10 f i render_win32.release:streamingtexturepagehandler.obj
 0001:00076e20       ??$_Make_heap@PAVString@Util@@HV12@@std@@YAXPAVString@Util@@0PAH0@Z 00477e20 f i render_win32.release:streamingtexturepagehandler.obj
 0001:00076ed0       ??$_Sort_heap@PAVString@Util@@@std@@YAXPAVString@Util@@0@Z 00477ed0 f i render_win32.release:streamingtexturepagehandler.obj
 0001:00076f30       ??$_Insertion_sort1@PAVString@Util@@V12@@std@@YAXPAVString@Util@@00@Z 00477f30 f i render_win32.release:streamingtexturepagehandler.obj
 0001:000770e0       ??$_Med3@PAVString@Util@@@std@@YAXPAVString@Util@@00@Z 004780e0 f i render_win32.release:streamingtexturepagehandler.obj
 0001:00077170       ??$swap@VString@Util@@@std@@YAXAAVString@Util@@0@Z 00478170 f i render_win32.release:streamingtexturepagehandler.obj
 0001:00077230       ??$_Adjust_heap@PAVString@Util@@HV12@@std@@YAXPAVString@Util@@HHV12@@Z 00478230 f i render_win32.release:streamingtexturepagehandler.obj
 0001:000773d0       ??$pop_heap@PAVString@Util@@@std@@YAXPAVString@Util@@0@Z 004783d0 f i render_win32.release:streamingtexturepagehandler.obj
 0001:00077400       ??$unchecked_copy_backward@PAVString@Util@@PAV12@@stdext@@YAPAVString@Util@@PAV12@00@Z 00478400 f i render_win32.release:streamingtexturepagehandler.obj
 0001:00077450       ??$_Push_heap@PAVString@Util@@HV12@@std@@YAXPAVString@Util@@HHV12@@Z 00478450 f i render_win32.release:streamingtexturepagehandler.obj
 0001:00077560       ??$_Pop_heap_0@PAVString@Util@@V12@@std@@YAXPAVString@Util@@00@Z 00478560 f i render_win32.release:streamingtexturepagehandler.obj
 0001:000775f0       ??$_Iter_random@PAVString@Util@@PAV12@@std@@YA?AUrandom_access_iterator_tag@0@ABQAVString@Util@@0@Z 004785f0 f i render_win32.release:streamingtexturepagehandler.obj
 0001:00077600       ??$_Ptr_cat@PAVString@Util@@PAV12@@std@@YA?AU_Nonscalar_ptr_iterator_tag@0@AAPAVString@Util@@0@Z 00478600 f i render_win32.release:streamingtexturepagehandler.obj
 0001:00077610       ??$_Copy_backward_opt@PAVString@Util@@PAV12@@std@@YAPAVString@Util@@PAV12@00Urandom_access_iterator_tag@0@U_Nonscalar_ptr_iterator_tag@0@U_Range_checked_iterator_tag@0@@Z 00478610 f i render_win32.release:streamingtexturepagehandler.obj
 0001:000776a0       ??$_Pop_heap@PAVString@Util@@HV12@@std@@YAXPAVString@Util@@00V12@PAH@Z 004786a0 f i render_win32.release:streamingtexturepagehandler.obj
 0001:00077770       ??$_Copy_backward_opt@PAVString@Util@@PAV12@Uforward_iterator_tag@std@@@std@@YAPAVString@Util@@PAV12@00Uforward_iterator_tag@0@U_Nonscalar_ptr_iterator_tag@0@U_Range_checked_iterator_tag@0@@Z 00478770 f i render_win32.release:streamingtexturepagehandler.obj
 0001:000777d0       ??2RenderDevice@CoreGraphics@@SAPAXI@Z 004787d0 f i render_win32.release:renderdevice.obj
 0001:000777e0       ??3RenderDevice@CoreGraphics@@SAXPAX@Z 004787e0 f i render_win32.release:renderdevice.obj
 0001:00077800       ?GetRtti@RenderDevice@CoreGraphics@@UBEPAVRtti@Core@@XZ 00478800 f   render_win32.release:renderdevice.obj
 0001:00077810       ?FactoryCreator@RenderDevice@CoreGraphics@@SAPAVRefCounted@Core@@XZ 00478810 f   render_win32.release:renderdevice.obj
 0001:00077820       ?Create@RenderDevice@CoreGraphics@@SAPAV12@XZ 00478820 f   render_win32.release:renderdevice.obj
 0001:00077860       ?RegisterWithFactory@RenderDevice@CoreGraphics@@SA_NXZ 00478860 f   render_win32.release:renderdevice.obj
 0001:00077960       ??0RenderDevice@CoreGraphics@@QAE@XZ 00478960 f   render_win32.release:renderdevice.obj
 0001:000779b0       ??_GRenderDevice@CoreGraphics@@UAEPAXI@Z 004789b0 f i render_win32.release:renderdevice.obj
 0001:000779b0       ??_ERenderDevice@CoreGraphics@@UAEPAXI@Z 004789b0 f i  CIL library: CIL module
 0001:000779e0       ??1RenderDevice@CoreGraphics@@UAE@XZ 004789e0 f   render_win32.release:renderdevice.obj
 0001:00077a30       ??2DisplayDevice@CoreGraphics@@SAPAXI@Z 00478a30 f i render_win32.release:displaydevice.obj
 0001:00077a40       ??3DisplayDevice@CoreGraphics@@SAXPAX@Z 00478a40 f i render_win32.release:displaydevice.obj
 0001:00077a60       ?GetRtti@DisplayDevice@CoreGraphics@@UBEPAVRtti@Core@@XZ 00478a60 f   render_win32.release:displaydevice.obj
 0001:00077a70       ?FactoryCreator@DisplayDevice@CoreGraphics@@SAPAVRefCounted@Core@@XZ 00478a70 f   render_win32.release:displaydevice.obj
 0001:00077a80       ?Create@DisplayDevice@CoreGraphics@@SAPAV12@XZ 00478a80 f   render_win32.release:displaydevice.obj
 0001:00077ac0       ?RegisterWithFactory@DisplayDevice@CoreGraphics@@SA_NXZ 00478ac0 f   render_win32.release:displaydevice.obj
 0001:00077bc0       ??0DisplayDevice@CoreGraphics@@QAE@XZ 00478bc0 f   render_win32.release:displaydevice.obj
 0001:00077c10       ??_GDisplayDevice@CoreGraphics@@UAEPAXI@Z 00478c10 f i render_win32.release:displaydevice.obj
 0001:00077c10       ??_EDisplayDevice@CoreGraphics@@UAEPAXI@Z 00478c10 f i  CIL library: CIL module
 0001:00077c40       ??1DisplayDevice@CoreGraphics@@UAE@XZ 00478c40 f   render_win32.release:displaydevice.obj
 0001:00077c90       ??2TransformDevice@CoreGraphics@@SAPAXI@Z 00478c90 f i render_win32.release:transformdevice.obj
 0001:00077ca0       ??3TransformDevice@CoreGraphics@@SAXPAX@Z 00478ca0 f i render_win32.release:transformdevice.obj
 0001:00077cc0       ?GetRtti@TransformDevice@CoreGraphics@@UBEPAVRtti@Core@@XZ 00478cc0 f   render_win32.release:transformdevice.obj
 0001:00077cd0       ?FactoryCreator@TransformDevice@CoreGraphics@@SAPAVRefCounted@Core@@XZ 00478cd0 f   render_win32.release:transformdevice.obj
 0001:00077ce0       ?Create@TransformDevice@CoreGraphics@@SAPAV12@XZ 00478ce0 f   render_win32.release:transformdevice.obj
 0001:00077d20       ?RegisterWithFactory@TransformDevice@CoreGraphics@@SA_NXZ 00478d20 f   render_win32.release:transformdevice.obj
 0001:00077e20       ??0TransformDevice@CoreGraphics@@QAE@XZ 00478e20 f   render_win32.release:transformdevice.obj
 0001:00077e70       ??_ETransformDevice@CoreGraphics@@UAEPAXI@Z 00478e70 f i  CIL library: CIL module
 0001:00077e70       ??_GTransformDevice@CoreGraphics@@UAEPAXI@Z 00478e70 f i render_win32.release:transformdevice.obj
 0001:00077ea0       ??1TransformDevice@CoreGraphics@@UAE@XZ 00478ea0 f   render_win32.release:transformdevice.obj
 0001:00077ef0       ??2ShaderServer@CoreGraphics@@SAPAXI@Z 00478ef0 f i render_win32.release:shaderserver.obj
 0001:00077f00       ??3ShaderServer@CoreGraphics@@SAXPAX@Z 00478f00 f i render_win32.release:shaderserver.obj
 0001:00077f20       ?GetRtti@ShaderServer@CoreGraphics@@UBEPAVRtti@Core@@XZ 00478f20 f   render_win32.release:shaderserver.obj
 0001:00077f30       ?FactoryCreator@ShaderServer@CoreGraphics@@SAPAVRefCounted@Core@@XZ 00478f30 f   render_win32.release:shaderserver.obj
 0001:00077f40       ?Create@ShaderServer@CoreGraphics@@SAPAV12@XZ 00478f40 f   render_win32.release:shaderserver.obj
 0001:00077f80       ?RegisterWithFactory@ShaderServer@CoreGraphics@@SA_NXZ 00478f80 f   render_win32.release:shaderserver.obj
 0001:00078080       ??0ShaderServer@CoreGraphics@@QAE@XZ 00479080 f   render_win32.release:shaderserver.obj
 0001:000780d0       ??_EShaderServer@CoreGraphics@@UAEPAXI@Z 004790d0 f i  CIL library: CIL module
 0001:000780d0       ??_GShaderServer@CoreGraphics@@UAEPAXI@Z 004790d0 f i render_win32.release:shaderserver.obj
 0001:00078100       ??1ShaderServer@CoreGraphics@@UAE@XZ 00479100 f   render_win32.release:shaderserver.obj
 0001:00078150       ??2ShapeRenderer@CoreGraphics@@SAPAXI@Z 00479150 f i render_win32.release:shaperenderer.obj
 0001:00078160       ??3ShapeRenderer@CoreGraphics@@SAXPAX@Z 00479160 f i render_win32.release:shaperenderer.obj
 0001:00078180       ?GetRtti@ShapeRenderer@CoreGraphics@@UBEPAVRtti@Core@@XZ 00479180 f   render_win32.release:shaperenderer.obj
 0001:00078190       ?FactoryCreator@ShapeRenderer@CoreGraphics@@SAPAVRefCounted@Core@@XZ 00479190 f   render_win32.release:shaperenderer.obj
 0001:000781a0       ?Create@ShapeRenderer@CoreGraphics@@SAPAV12@XZ 004791a0 f   render_win32.release:shaperenderer.obj
 0001:000781e0       ?RegisterWithFactory@ShapeRenderer@CoreGraphics@@SA_NXZ 004791e0 f   render_win32.release:shaperenderer.obj
 0001:000782e0       ??0ShapeRenderer@CoreGraphics@@QAE@XZ 004792e0 f   render_win32.release:shaperenderer.obj
 0001:00078330       ??_GShapeRenderer@CoreGraphics@@UAEPAXI@Z 00479330 f i render_win32.release:shaperenderer.obj
 0001:00078330       ??_EShapeRenderer@CoreGraphics@@UAEPAXI@Z 00479330 f i  CIL library: CIL module
 0001:00078360       ??1ShapeRenderer@CoreGraphics@@UAE@XZ 00479360 f   render_win32.release:shaperenderer.obj
 0001:000783b0       ??2TextRenderer@CoreGraphics@@SAPAXI@Z 004793b0 f i render_win32.release:textrenderer.obj
 0001:000783c0       ??3TextRenderer@CoreGraphics@@SAXPAX@Z 004793c0 f i render_win32.release:textrenderer.obj
 0001:000783e0       ?GetRtti@TextRenderer@CoreGraphics@@UBEPAVRtti@Core@@XZ 004793e0 f   render_win32.release:textrenderer.obj
 0001:000783f0       ?FactoryCreator@TextRenderer@CoreGraphics@@SAPAVRefCounted@Core@@XZ 004793f0 f   render_win32.release:textrenderer.obj
 0001:00078400       ?Create@TextRenderer@CoreGraphics@@SAPAV12@XZ 00479400 f   render_win32.release:textrenderer.obj
 0001:00078440       ?RegisterWithFactory@TextRenderer@CoreGraphics@@SA_NXZ 00479440 f   render_win32.release:textrenderer.obj
 0001:00078540       ??0TextRenderer@CoreGraphics@@QAE@XZ 00479540 f   render_win32.release:textrenderer.obj
 0001:000785a0       ??_GTextRenderer@CoreGraphics@@UAEPAXI@Z 004795a0 f i render_win32.release:textrenderer.obj
 0001:000785a0       ??_ETextRenderer@CoreGraphics@@UAEPAXI@Z 004795a0 f i  CIL library: CIL module
 0001:000785d0       ??1TextRenderer@CoreGraphics@@UAE@XZ 004795d0 f   render_win32.release:textrenderer.obj
 0001:00078630       ??_ETextRenderer@CoreGraphics@@WBM@AEPAXI@Z 00479630 f i render_win32.release:textrenderer.obj
 0001:00078640       ??2VertexLayoutServer@CoreGraphics@@SAPAXI@Z 00479640 f i render_win32.release:vertexlayoutserver.obj
 0001:00078650       ??3VertexLayoutServer@CoreGraphics@@SAXPAX@Z 00479650 f i render_win32.release:vertexlayoutserver.obj
 0001:00078670       ?GetRtti@VertexLayoutServer@CoreGraphics@@UBEPAVRtti@Core@@XZ 00479670 f   render_win32.release:vertexlayoutserver.obj
 0001:00078680       ?FactoryCreator@VertexLayoutServer@CoreGraphics@@SAPAVRefCounted@Core@@XZ 00479680 f   render_win32.release:vertexlayoutserver.obj
 0001:00078690       ?Create@VertexLayoutServer@CoreGraphics@@SAPAV12@XZ 00479690 f   render_win32.release:vertexlayoutserver.obj
 0001:000786d0       ??0VertexLayoutServer@CoreGraphics@@QAE@XZ 004796d0 f i render_win32.release:vertexlayoutserver.obj
 0001:000786f0       ??_EVertexLayoutServer@CoreGraphics@@UAEPAXI@Z 004796f0 f i  CIL library: CIL module
 0001:000786f0       ??_GVertexLayoutServer@CoreGraphics@@UAEPAXI@Z 004796f0 f i render_win32.release:vertexlayoutserver.obj
 0001:00078720       ??1VertexLayoutServer@CoreGraphics@@UAE@XZ 00479720 f i render_win32.release:vertexlayoutserver.obj
 0001:00078740       ?RegisterWithFactory@VertexLayoutServer@CoreGraphics@@SA_NXZ 00479740 f   render_win32.release:vertexlayoutserver.obj
 0001:00078840       ?IsAttachedToResourceManager@ResourceMapper@Resources@@QBE_NXZ 00479840 f i render_win32.release:modelserver.obj
 0001:00078860       ?SetPlaceholderResourceId@ResourceMapper@Resources@@QAEXABVStringAtom@Util@@@Z 00479860 f i render_win32.release:modelserver.obj
 0001:000788a0       ?SetAsyncEnabled@ResourceMapper@Resources@@QAEX_N@Z 004798a0 f i render_win32.release:modelserver.obj
 0001:000788c0       ??2ModelServer@Models@@SAPAXI@Z 004798c0 f i render_win32.release:modelserver.obj
 0001:000788d0       ??3ModelServer@Models@@SAXPAX@Z 004798d0 f i render_win32.release:modelserver.obj
 0001:000788f0       ?SetResourceClass@SimpleResourceMapper@Resources@@QAEXABVRtti@Core@@@Z 004798f0 f i render_win32.release:modelserver.obj
 0001:00078930       ?SetResourceLoaderClass@SimpleResourceMapper@Resources@@QAEXABVRtti@Core@@@Z 00479930 f i render_win32.release:modelserver.obj
 0001:00078970       ?SetManagedResourceClass@SimpleResourceMapper@Resources@@QAEXABVRtti@Core@@@Z 00479970 f i render_win32.release:modelserver.obj
 0001:000789b0       ?GetRtti@ModelServer@Models@@UBEPAVRtti@Core@@XZ 004799b0 f   render_win32.release:modelserver.obj
 0001:000789c0       ?FactoryCreator@ModelServer@Models@@SAPAVRefCounted@Core@@XZ 004799c0 f   render_win32.release:modelserver.obj
 0001:000789d0       ?Create@ModelServer@Models@@SAPAV12@XZ 004799d0 f   render_win32.release:modelserver.obj
 0001:00078a10       ?RegisterWithFactory@ModelServer@Models@@SA_NXZ 00479a10 f   render_win32.release:modelserver.obj
 0001:00078b10       ??0ModelServer@Models@@QAE@XZ 00479b10 f   render_win32.release:modelserver.obj
 0001:00078bb0       ??_GModelServer@Models@@UAEPAXI@Z 00479bb0 f i render_win32.release:modelserver.obj
 0001:00078bb0       ??_EModelServer@Models@@UAEPAXI@Z 00479bb0 f i  CIL library: CIL module
 0001:00078be0       ??1ModelNodeType@Models@@QAE@XZ 00479be0 f i render_win32.release:modelserver.obj
 0001:00078c00       ??1?$Dictionary@VStringAtom@Util@@H@Util@@QAE@XZ 00479c00 f i render_win32.release:modelserver.obj
 0001:00078c20       ??1ModelServer@Models@@UAE@XZ 00479c20 f   render_win32.release:modelserver.obj
 0001:00078cc0       ?Open@ModelServer@Models@@QAEXXZ 00479cc0 f   render_win32.release:modelserver.obj
 0001:00078f40       ?Close@ModelServer@Models@@QAEXXZ 00479f40 f   render_win32.release:modelserver.obj
 0001:00078ff0       ?HasManagedModel@ModelServer@Models@@QBE_NABVStringAtom@Util@@@Z 00479ff0 f   render_win32.release:modelserver.obj
 0001:00079040       ?LoadManagedModel@ModelServer@Models@@QAE?AV?$Ptr@VManagedModel@Models@@@@ABVStringAtom@Util@@@Z 0047a040 f   render_win32.release:modelserver.obj
 0001:000790d0       ?LookupManagedModel@ModelServer@Models@@QBEABV?$Ptr@VManagedModel@Models@@@@ABVStringAtom@Util@@@Z 0047a0d0 f   render_win32.release:modelserver.obj
 0001:00079150       ?DiscardManagedModel@ModelServer@Models@@QBEXABV?$Ptr@VManagedModel@Models@@@@@Z 0047a150 f   render_win32.release:modelserver.obj
 0001:000791b0       ?ConsumeNewModelNodeInstanceIndex@ModelServer@Models@@QAEHXZ 0047a1b0 f   render_win32.release:modelserver.obj
 0001:000791f0       ?ResetModelNodeInstanceIndex@ModelServer@Models@@QAEXXZ 0047a1f0 f   render_win32.release:modelserver.obj
 0001:00079210       ??1?$Array@V?$KeyValuePair@VStringAtom@Util@@H@Util@@@Util@@QAE@XZ 0047a210 f i render_win32.release:modelserver.obj
 0001:00079230       ??0?$Ptr@VVisResolver@Models@@@@QAE@XZ 0047a230 f i render_win32.release:modelserver.obj
 0001:00079250       ??1?$Ptr@VVisResolver@Models@@@@QAE@XZ 0047a250 f i render_win32.release:modelserver.obj
 0001:00079280       ??4?$Ptr@VVisResolver@Models@@@@QAEXPAVVisResolver@Models@@@Z 0047a280 f i render_win32.release:modelserver.obj
 0001:000792e0       ??C?$Ptr@VVisResolver@Models@@@@QBEPAVVisResolver@Models@@XZ 0047a2e0 f i render_win32.release:modelserver.obj
 0001:00079320       ??0?$Ptr@VSimpleResourceMapper@Resources@@@@QAE@PAVSimpleResourceMapper@Resources@@@Z 0047a320 f i render_win32.release:modelserver.obj
 0001:00079360       ??1?$Ptr@VSimpleResourceMapper@Resources@@@@QAE@XZ 0047a360 f i render_win32.release:modelserver.obj
 0001:00079390       ??C?$Ptr@VSimpleResourceMapper@Resources@@@@QBEPAVSimpleResourceMapper@Resources@@XZ 0047a390 f i render_win32.release:modelserver.obj
 0001:000793d0       ??$upcast@VResourceMapper@Resources@@@?$Ptr@VSimpleResourceMapper@Resources@@@@QBEABV?$Ptr@VResourceMapper@Resources@@@@XZ 0047a3d0 f i render_win32.release:modelserver.obj
 0001:000793e0       ??0?$Ptr@VManagedModel@Models@@@@QAE@ABV0@@Z 0047a3e0 f i render_win32.release:modelserver.obj
 0001:00079420       ??1?$Ptr@VManagedModel@Models@@@@QAE@XZ 0047a420 f i render_win32.release:modelserver.obj
 0001:00079450       ??$downcast@VManagedModel@Models@@@?$Ptr@VManagedResource@Resources@@@@QBEABV?$Ptr@VManagedModel@Models@@@@XZ 0047a450 f i render_win32.release:modelserver.obj
 0001:00079460       ??$upcast@VManagedResource@Resources@@@?$Ptr@VManagedModel@Models@@@@QBEABV?$Ptr@VManagedResource@Resources@@@@XZ 0047a460 f i render_win32.release:modelserver.obj
 0001:00079470       ?Delete@?$Array@V?$KeyValuePair@VStringAtom@Util@@H@Util@@@Util@@AAEXXZ 0047a470 f i render_win32.release:modelserver.obj
 0001:000794d0       ?HasVariableBySemantic@ShaderInstanceBase@Base@@QBE_NABVStringAtom@Util@@@Z 0047a4d0 f i render_win32.release:internalgraphicsserver.obj
 0001:000794f0       ??2InternalGraphicsServer@InternalGraphics@@SAPAXI@Z 0047a4f0 f i render_win32.release:internalgraphicsserver.obj
 0001:00079500       ??3InternalGraphicsServer@InternalGraphics@@SAXPAX@Z 0047a500 f i render_win32.release:internalgraphicsserver.obj
 0001:00079520       ?SetName@InternalStage@InternalGraphics@@IAEXABVStringAtom@Util@@@Z 0047a520 f i render_win32.release:internalgraphicsserver.obj
 0001:00079540       ?SetName@InternalView@InternalGraphics@@IAEXABVStringAtom@Util@@@Z 0047a540 f i render_win32.release:internalgraphicsserver.obj
 0001:00079560       ?GetCameraEntity@InternalView@InternalGraphics@@QBEABV?$Ptr@VInternalCameraEntity@InternalGraphics@@@@XZ 0047a560 f i render_win32.release:internalgraphicsserver.obj
 0001:00079580       ?HasSharedVariableBySemantic@ShaderServerBase@Base@@QBE_NABVStringAtom@Util@@@Z 0047a580 f i render_win32.release:internalgraphicsserver.obj
 0001:000795d0       ?Instance@AttachmentServer@InternalGraphics@@SAPAV12@XZ 0047a5d0 f i render_win32.release:internalgraphicsserver.obj
 0001:00079610       ?Instance@LightServer@Lighting@@SAPAV12@XZ 0047a610 f i render_win32.release:internalgraphicsserver.obj
 0001:00079650       ?Instance@CharacterServer@Characters@@SAPAV12@XZ 0047a650 f i render_win32.release:internalgraphicsserver.obj
 0001:00079690       ?GetRtti@InternalGraphicsServer@InternalGraphics@@UBEPAVRtti@Core@@XZ 0047a690 f   render_win32.release:internalgraphicsserver.obj
 0001:000796a0       ?FactoryCreator@InternalGraphicsServer@InternalGraphics@@SAPAVRefCounted@Core@@XZ 0047a6a0 f   render_win32.release:internalgraphicsserver.obj
 0001:000796b0       ?Create@InternalGraphicsServer@InternalGraphics@@SAPAV12@XZ 0047a6b0 f   render_win32.release:internalgraphicsserver.obj
 0001:000796f0       ?RegisterWithFactory@InternalGraphicsServer@InternalGraphics@@SA_NXZ 0047a6f0 f   render_win32.release:internalgraphicsserver.obj
 0001:000797f0       ??0InternalGraphicsServer@InternalGraphics@@QAE@XZ 0047a7f0 f   render_win32.release:internalgraphicsserver.obj
 0001:00079900       ??_EInternalGraphicsServer@InternalGraphics@@UAEPAXI@Z 0047a900 f i  CIL library: CIL module
 0001:00079900       ??_GInternalGraphicsServer@InternalGraphics@@UAEPAXI@Z 0047a900 f i render_win32.release:internalgraphicsserver.obj
 0001:00079930       ??1?$Dictionary@HH@Util@@QAE@XZ 0047a930 f i render_win32.release:internalgraphicsserver.obj
 0001:00079950       ??1InternalGraphicsServer@InternalGraphics@@UAE@XZ 0047a950 f   render_win32.release:internalgraphicsserver.obj
 0001:00079b00       ?Open@InternalGraphicsServer@InternalGraphics@@QAEXXZ 0047ab00 f   render_win32.release:internalgraphicsserver.obj
 0001:00079d40       ?Close@InternalGraphicsServer@InternalGraphics@@QAEXXZ 0047ad40 f   render_win32.release:internalgraphicsserver.obj
 0001:00079e70       ?CreateStage@InternalGraphicsServer@InternalGraphics@@QAE?AV?$Ptr@VInternalStage@InternalGraphics@@@@ABVStringAtom@Util@@ABV?$Array@V?$Ptr@VVisibilitySystemBase@Visibility@@@@@5@@Z 0047ae70 f   render_win32.release:internalgraphicsserver.obj
 0001:00079f90       ?DiscardStage@InternalGraphicsServer@InternalGraphics@@QAEXABV?$Ptr@VInternalStage@InternalGraphics@@@@@Z 0047af90 f   render_win32.release:internalgraphicsserver.obj
 0001:0007a0a0       ?DiscardAllStages@InternalGraphicsServer@InternalGraphics@@QAEXXZ 0047b0a0 f   render_win32.release:internalgraphicsserver.obj
 0001:0007a140       ?HasStage@InternalGraphicsServer@InternalGraphics@@QBE_NABVStringAtom@Util@@@Z 0047b140 f   render_win32.release:internalgraphicsserver.obj
 0001:0007a160       ?GetStageByName@InternalGraphicsServer@InternalGraphics@@QBEABV?$Ptr@VInternalStage@InternalGraphics@@@@ABVStringAtom@Util@@@Z 0047b160 f   render_win32.release:internalgraphicsserver.obj
 0001:0007a190       ?GetStages@InternalGraphicsServer@InternalGraphics@@QBEABV?$Array@V?$Ptr@VInternalStage@InternalGraphics@@@@@Util@@XZ 0047b190 f   render_win32.release:internalgraphicsserver.obj
 0001:0007a1b0       ?CreateView@InternalGraphicsServer@InternalGraphics@@QAE?AV?$Ptr@VInternalView@InternalGraphics@@@@ABVRtti@Core@@ABVStringAtom@Util@@_N@Z 0047b1b0 f   render_win32.release:internalgraphicsserver.obj
 0001:0007a2e0       ?DiscardView@InternalGraphicsServer@InternalGraphics@@QAEXABV?$Ptr@VInternalView@InternalGraphics@@@@@Z 0047b2e0 f   render_win32.release:internalgraphicsserver.obj
 0001:0007a410       ?DiscardAllViews@InternalGraphicsServer@InternalGraphics@@QAEXXZ 0047b410 f   render_win32.release:internalgraphicsserver.obj
 0001:0007a4c0       ?HasView@InternalGraphicsServer@InternalGraphics@@QBE_NABVStringAtom@Util@@@Z 0047b4c0 f   render_win32.release:internalgraphicsserver.obj
 0001:0007a4e0       ?GetViewByName@InternalGraphicsServer@InternalGraphics@@QBEABV?$Ptr@VInternalView@InternalGraphics@@@@ABVStringAtom@Util@@@Z 0047b4e0 f   render_win32.release:internalgraphicsserver.obj
 0001:0007a510       ?GetViews@InternalGraphicsServer@InternalGraphics@@QBEABV?$Array@V?$Ptr@VInternalView@InternalGraphics@@@@@Util@@XZ 0047b510 f   render_win32.release:internalgraphicsserver.obj
 0001:0007a530       ?SetDefaultView@InternalGraphicsServer@InternalGraphics@@QAEXABV?$Ptr@VInternalView@InternalGraphics@@@@@Z 0047b530 f   render_win32.release:internalgraphicsserver.obj
 0001:0007a550       ?GetDefaultView@InternalGraphicsServer@InternalGraphics@@QBEABV?$Ptr@VInternalView@InternalGraphics@@@@XZ 0047b550 f   render_win32.release:internalgraphicsserver.obj
 0001:0007a570       ?RegisterEntity@InternalGraphicsServer@InternalGraphics@@AAEXABV?$Ptr@VInternalGraphicsEntity@InternalGraphics@@@@@Z 0047b570 f   render_win32.release:internalgraphicsserver.obj
 0001:0007a5d0       ?UnregisterEntity@InternalGraphicsServer@InternalGraphics@@AAEXABV?$Ptr@VInternalGraphicsEntity@InternalGraphics@@@@@Z 0047b5d0 f   render_win32.release:internalgraphicsserver.obj
 0001:0007a6b0       ?HasEntity@InternalGraphicsServer@InternalGraphics@@QBE_NH@Z 0047b6b0 f   render_win32.release:internalgraphicsserver.obj
 0001:0007a6d0       ?GetEntityById@InternalGraphicsServer@InternalGraphics@@QBEABV?$Ptr@VInternalGraphicsEntity@InternalGraphics@@@@H@Z 0047b6d0 f   render_win32.release:internalgraphicsserver.obj
 0001:0007a740       ?GetEntities@InternalGraphicsServer@InternalGraphics@@QBEABV?$Array@V?$Ptr@VInternalGraphicsEntity@InternalGraphics@@@@@Util@@XZ 0047b740 f   render_win32.release:internalgraphicsserver.obj
 0001:0007a760       ?GetCurrentGlobalLightEntity@InternalGraphicsServer@InternalGraphics@@QBE?AV?$Ptr@VInternalGlobalLightEntity@Lighting@@@@XZ 0047b760 f   render_win32.release:internalgraphicsserver.obj
 0001:0007a890       ?OnFrame@InternalGraphicsServer@InternalGraphics@@QAEXNN@Z 0047b890 f   render_win32.release:internalgraphicsserver.obj
 0001:0007aec0       ??0?$Ptr@VInternalStage@InternalGraphics@@@@QAE@ABV0@@Z 0047bec0 f i render_win32.release:internalgraphicsserver.obj
 0001:0007af00       ??0?$Ptr@VInternalStage@InternalGraphics@@@@QAE@PAVInternalStage@InternalGraphics@@@Z 0047bf00 f i render_win32.release:internalgraphicsserver.obj
 0001:0007af40       ?Append@?$Array@V?$Ptr@VInternalGraphicsEntity@InternalGraphics@@@@@Util@@QAEXABV?$Ptr@VInternalGraphicsEntity@InternalGraphics@@@@@Z 0047bf40 f i render_win32.release:internalgraphicsserver.obj
 0001:0007afc0       ?EraseIndexSwap@?$Array@V?$Ptr@VInternalGraphicsEntity@InternalGraphics@@@@@Util@@QAEXH@Z 0047bfc0 f i render_win32.release:internalgraphicsserver.obj
 0001:0007b050       ??0?$Dictionary@VStringAtom@Util@@H@Util@@QAE@XZ 0047c050 f i render_win32.release:internalgraphicsserver.obj
 0001:0007b070       ??A?$Dictionary@VStringAtom@Util@@H@Util@@QBEABHABVStringAtom@1@@Z 0047c070 f i render_win32.release:internalgraphicsserver.obj
 0001:0007b0c0       ??A?$Dictionary@VStringAtom@Util@@H@Util@@QAEAAHABVStringAtom@1@@Z 0047c0c0 f i render_win32.release:internalgraphicsserver.obj
 0001:0007b110       ?Clear@?$Dictionary@VStringAtom@Util@@H@Util@@QAEXXZ 0047c110 f i render_win32.release:internalgraphicsserver.obj
 0001:0007b150       ?IsEmpty@?$Dictionary@VStringAtom@Util@@H@Util@@QBE_NXZ 0047c150 f i render_win32.release:internalgraphicsserver.obj
 0001:0007b170       ?Add@?$Dictionary@VStringAtom@Util@@H@Util@@QAEXABVStringAtom@2@ABH@Z 0047c170 f i render_win32.release:internalgraphicsserver.obj
 0001:0007b1c0       ?FindIndex@?$Dictionary@VStringAtom@Util@@H@Util@@QBEHABVStringAtom@2@@Z 0047c1c0 f i render_win32.release:internalgraphicsserver.obj
 0001:0007b210       ?Contains@?$Dictionary@VStringAtom@Util@@V?$Ptr@VShaderVariable@CoreGraphics@@@@@Util@@QBE_NABVStringAtom@2@@Z 0047c210 f i render_win32.release:internalgraphicsserver.obj
 0001:0007b270       ??4?$Ptr@VShaderVariable@CoreGraphics@@@@QAEXPAVShaderVariable@CoreGraphics@@@Z 0047c270 f i render_win32.release:internalgraphicsserver.obj
 0001:0007b2d0       ??0?$Ptr@VRTPluginRegistry@RenderModules@@@@QAE@XZ 0047c2d0 f i render_win32.release:internalgraphicsserver.obj
 0001:0007b2f0       ??1?$Ptr@VRTPluginRegistry@RenderModules@@@@QAE@XZ 0047c2f0 f i render_win32.release:internalgraphicsserver.obj
 0001:0007b320       ??4?$Ptr@VRTPluginRegistry@RenderModules@@@@QAEXPAVRTPluginRegistry@RenderModules@@@Z 0047c320 f i render_win32.release:internalgraphicsserver.obj
 0001:0007b380       ??C?$Ptr@VRTPluginRegistry@RenderModules@@@@QBEPAVRTPluginRegistry@RenderModules@@XZ 0047c380 f i render_win32.release:internalgraphicsserver.obj
 0001:0007b3c0       ??1?$Array@V?$KeyValuePair@HH@Util@@@Util@@QAE@XZ 0047c3c0 f i render_win32.release:internalgraphicsserver.obj
 0001:0007b3e0       ??0?$Dictionary@HH@Util@@QAE@XZ 0047c3e0 f i render_win32.release:internalgraphicsserver.obj
 0001:0007b400       ??A?$Dictionary@HH@Util@@QBEABHABH@Z 0047c400 f i render_win32.release:internalgraphicsserver.obj
 0001:0007b450       ??A?$Dictionary@HH@Util@@QAEAAHABH@Z 0047c450 f i render_win32.release:internalgraphicsserver.obj
 0001:0007b4a0       ?Size@?$Dictionary@HH@Util@@QBEHXZ 0047c4a0 f i render_win32.release:internalgraphicsserver.obj
 0001:0007b4c0       ?Add@?$Dictionary@HH@Util@@QAEXABH0@Z 0047c4c0 f i render_win32.release:internalgraphicsserver.obj
 0001:0007b510       ?EraseAtIndex@?$Dictionary@HH@Util@@QAEXH@Z 0047c510 f i render_win32.release:internalgraphicsserver.obj
 0001:0007b550       ?FindIndex@?$Dictionary@HH@Util@@QBEHABH@Z 0047c550 f i render_win32.release:internalgraphicsserver.obj
 0001:0007b5a0       ?Contains@?$Dictionary@HH@Util@@QBE_NABH@Z 0047c5a0 f i render_win32.release:internalgraphicsserver.obj
 0001:0007b600       ?ValueAtIndex@?$Dictionary@HH@Util@@QAEAAHH@Z 0047c600 f i render_win32.release:internalgraphicsserver.obj
 0001:0007b650       ??0?$Array@V?$Ptr@VInternalStage@InternalGraphics@@@@@Util@@QAE@XZ 0047c650 f i render_win32.release:internalgraphicsserver.obj
 0001:0007b690       ??1?$Array@V?$Ptr@VInternalStage@InternalGraphics@@@@@Util@@QAE@XZ 0047c690 f i render_win32.release:internalgraphicsserver.obj
 0001:0007b6b0       ?Append@?$Array@V?$Ptr@VInternalStage@InternalGraphics@@@@@Util@@QAEXABV?$Ptr@VInternalStage@InternalGraphics@@@@@Z 0047c6b0 f i render_win32.release:internalgraphicsserver.obj
 0001:0007b730       ?IsEmpty@?$Array@V?$Ptr@VInternalStage@InternalGraphics@@@@@Util@@QBE_NXZ 0047c730 f i render_win32.release:internalgraphicsserver.obj
 0001:0007b750       ?EraseIndex@?$Array@V?$Ptr@VInternalStage@InternalGraphics@@@@@Util@@QAEXH@Z 0047c750 f i render_win32.release:internalgraphicsserver.obj
 0001:0007b7d0       ?Clear@?$Array@V?$Ptr@VInternalStage@InternalGraphics@@@@@Util@@QAEXXZ 0047c7d0 f i render_win32.release:internalgraphicsserver.obj
 0001:0007b820       ??0?$Array@V?$Ptr@VInternalView@InternalGraphics@@@@@Util@@QAE@XZ 0047c820 f i render_win32.release:internalgraphicsserver.obj
 0001:0007b860       ??1?$Array@V?$Ptr@VInternalView@InternalGraphics@@@@@Util@@QAE@XZ 0047c860 f i render_win32.release:internalgraphicsserver.obj
 0001:0007b880       ?Append@?$Array@V?$Ptr@VInternalView@InternalGraphics@@@@@Util@@QAEXABV?$Ptr@VInternalView@InternalGraphics@@@@@Z 0047c880 f i render_win32.release:internalgraphicsserver.obj
 0001:0007b900       ?IsEmpty@?$Array@V?$Ptr@VInternalView@InternalGraphics@@@@@Util@@QBE_NXZ 0047c900 f i render_win32.release:internalgraphicsserver.obj
 0001:0007b920       ?EraseIndex@?$Array@V?$Ptr@VInternalView@InternalGraphics@@@@@Util@@QAEXH@Z 0047c920 f i render_win32.release:internalgraphicsserver.obj
 0001:0007b9a0       ?Clear@?$Array@V?$Ptr@VInternalView@InternalGraphics@@@@@Util@@QAEXXZ 0047c9a0 f i render_win32.release:internalgraphicsserver.obj
 0001:0007b9f0       ??0?$Ptr@VInternalView@InternalGraphics@@@@QAE@ABV0@@Z 0047c9f0 f i render_win32.release:internalgraphicsserver.obj
 0001:0007ba30       ??0?$Ptr@VInternalView@InternalGraphics@@@@QAE@PAVInternalView@InternalGraphics@@@Z 0047ca30 f i render_win32.release:internalgraphicsserver.obj
 0001:0007ba70       ??0?$Ptr@VInternalView@InternalGraphics@@@@QAE@XZ 0047ca70 f i render_win32.release:internalgraphicsserver.obj
 0001:0007ba90       ??4?$Ptr@VInternalView@InternalGraphics@@@@QAEXPAVInternalView@InternalGraphics@@@Z 0047ca90 f i render_win32.release:internalgraphicsserver.obj
 0001:0007baf0       ??4?$Ptr@VInternalView@InternalGraphics@@@@QAEXABV0@@Z 0047caf0 f i render_win32.release:internalgraphicsserver.obj
 0001:0007bb50       ??8?$Ptr@VInternalView@InternalGraphics@@@@QBE_NABV0@@Z 0047cb50 f i render_win32.release:internalgraphicsserver.obj
 0001:0007bb70       ?isvalid@?$Ptr@VInternalView@InternalGraphics@@@@QBE_NXZ 0047cb70 f i render_win32.release:internalgraphicsserver.obj
 0001:0007bb90       ?isvalid@?$Ptr@VInternalCameraEntity@InternalGraphics@@@@QBE_NXZ 0047cb90 f i render_win32.release:internalgraphicsserver.obj
 0001:0007bbb0       ??0?$Ptr@VInternalGlobalLightEntity@Lighting@@@@QAE@ABV0@@Z 0047cbb0 f i render_win32.release:internalgraphicsserver.obj
 0001:0007bbf0       ??0?$Ptr@VInternalGlobalLightEntity@Lighting@@@@QAE@PAVInternalGlobalLightEntity@Lighting@@@Z 0047cbf0 f i render_win32.release:internalgraphicsserver.obj
