 jobstest_win32

 Timestamp is 68d8755a (Sun Sep 28 02:38:02 2025)

 Preferred load address is 00400000

 Start         Length     Name                   Class
 0001:00000000 0004684aH .text                   CODE
 0001:00046850 000277efH .text$yc                CODE
 0001:0006e040 00000f73H .text$yd                CODE
 0002:00000000 00000270H .idata$5                DATA
 0002:00000270 00000004H .CRT$XCA                DATA
 0002:00000274 00000004H .CRT$XCAA               DATA
 0002:00000278 000000d8H .CRT$XCU                DATA
 0002:00000350 00000004H .CRT$XCZ                DATA
 0002:00000354 00000004H .CRT$XIA                DATA
 0002:00000358 00000004H .CRT$XIAA               DATA
 0002:0000035c 00000004H .CRT$XIC                DATA
 0002:00000360 00000004H .CRT$XIY                DATA
 0002:00000364 00000004H .CRT$XIZ                DATA
 0002:00000368 00000004H .CRT$XLA                DATA
 0002:0000036c 00000004H .CRT$XLZ                DATA
 0002:00000370 0000c9b0H .rdata                  DATA
 0002:0000cd20 00000018H .rdata$T                DATA
 0002:0000cd38 00000040H .rdata$debug            DATA
 0002:0000cd80 00000008H .rdata$sxdata           DATA
 0002:0000cd88 00000004H .rtc$IAA                DATA
 0002:0000cd8c 00000004H .rtc$IZZ                DATA
 0002:0000cd90 00000004H .rtc$TAA                DATA
 0002:0000cd94 00000004H .rtc$TZZ                DATA
 0002:0000cd98 00000094H .xdata$x                DATA
 0002:0000ce2c 00000078H .idata$2                DATA
 0002:0000cea4 00000014H .idata$3                DATA
 0002:0000ceb8 00000270H .idata$4                DATA
 0002:0000d128 0000088aH .idata$6                DATA
 0002:0000d9b2 00000000H .edata                  DATA
 0003:00000000 00000070H .data                   DATA
 0003:00000070 0000617cH .bss                    DATA
 0004:00000000 00000001H .tls                    DATA
 0004:00000004 00000018H .stls                   DATA
 0004:0000001c 00000001H .tls$ZZZ                DATA

  Address         Publics by Value              Rva+Base       Lib:Object

 0000:00000000       __except_list              00000000     <absolute>
 0000:00000002       ___safe_se_handler_count   00000002     <absolute>
 0000:0000002c       __tls_array                0000002c     <absolute>
 0000:00009876       __ldused                   00009876     <absolute>
 0000:00009876       __fltused                  00009876     <absolute>
 0000:00000000       ___ImageBase               00400000     <linker-defined>
 0001:00000000       _IXACT3SoundBank_Destroy@4 00401000 f i stdneb.obj
 0001:00000020       _IXACT3SoundBank_GetCueIndex@8 00401020 f i stdneb.obj
 0001:00000040       _IXACT3SoundBank_GetNumCues@8 00401040 f i stdneb.obj
 0001:00000060       _IXACT3SoundBank_GetCueProperties@12 00401060 f i stdneb.obj
 0001:00000080       _IXACT3SoundBank_Prepare@20 00401080 f i stdneb.obj
 0001:000000b0       _IXACT3SoundBank_Play@20   004010b0 f i stdneb.obj
 0001:000000e0       _IXACT3SoundBank_Stop@12   004010e0 f i stdneb.obj
 0001:00000100       _IXACT3SoundBank_GetState@8 00401100 f i stdneb.obj
 0001:00000120       _IXACT3WaveBank_Destroy@4  00401120 f i stdneb.obj
 0001:00000140       _IXACT3WaveBank_GetNumWaves@8 00401140 f i stdneb.obj
 0001:00000160       _IXACT3WaveBank_GetWaveIndex@8 00401160 f i stdneb.obj
 0001:00000180       _IXACT3WaveBank_GetWaveProperties@12 00401180 f i stdneb.obj
 0001:000001a0       _IXACT3WaveBank_Prepare@24 004011a0 f i stdneb.obj
 0001:000001d0       _IXACT3WaveBank_Play@24    004011d0 f i stdneb.obj
 0001:00000200       _IXACT3WaveBank_Stop@12    00401200 f i stdneb.obj
 0001:00000220       _IXACT3WaveBank_GetState@8 00401220 f i stdneb.obj
 0001:00000240       _IXACT3Wave_Destroy@4      00401240 f i stdneb.obj
 0001:00000260       _IXACT3Wave_Play@4         00401260 f i stdneb.obj
 0001:00000280       _IXACT3Wave_Stop@8         00401280 f i stdneb.obj
 0001:000002a0       _IXACT3Wave_Pause@8        004012a0 f i stdneb.obj
 0001:000002c0       _IXACT3Wave_GetState@8     004012c0 f i stdneb.obj
 0001:000002e0       _IXACT3Wave_SetPitch@8     004012e0 f i stdneb.obj
 0001:00000300       _IXACT3Wave_SetVolume@8    00401300 f i stdneb.obj
 0001:00000320       _IXACT3Wave_SetMatrixCoefficients@16 00401320 f i stdneb.obj
 0001:00000350       _IXACT3Wave_GetProperties@8 00401350 f i stdneb.obj
 0001:00000370       _IXACT3Cue_Play@4          00401370 f i stdneb.obj
 0001:00000390       _IXACT3Cue_Stop@8          00401390 f i stdneb.obj
 0001:000003b0       _IXACT3Cue_GetState@8      004013b0 f i stdneb.obj
 0001:000003d0       _IXACT3Cue_Destroy@4       004013d0 f i stdneb.obj
 0001:000003f0       _IXACT3Cue_SetMatrixCoefficients@16 004013f0 f i stdneb.obj
 0001:00000420       _IXACT3Cue_GetVariableIndex@8 00401420 f i stdneb.obj
 0001:00000440       _IXACT3Cue_SetVariable@12  00401440 f i stdneb.obj
 0001:00000470       _IXACT3Cue_GetVariable@12  00401470 f i stdneb.obj
 0001:00000490       _IXACT3Cue_Pause@8         00401490 f i stdneb.obj
 0001:000004b0       _IXACT3Cue_GetProperties@8 004014b0 f i stdneb.obj
 0001:000004d0       _IXACT3Cue_SetOutputVoices@8 004014d0 f i stdneb.obj
 0001:000004f0       _IXACT3Cue_SetOutputVoiceMatrix@20 004014f0 f i stdneb.obj
 0001:00000520       _IXACT3Engine_AddRef@4     00401520 f i stdneb.obj
 0001:00000540       _IXACT3Engine_Release@4    00401540 f i stdneb.obj
 0001:00000560       _IXACT3Engine_GetRendererCount@8 00401560 f i stdneb.obj
 0001:00000580       _IXACT3Engine_GetRendererDetails@12 00401580 f i stdneb.obj
 0001:000005a0       _IXACT3Engine_GetFinalMixFormat@8 004015a0 f i stdneb.obj
 0001:000005c0       _IXACT3Engine_Initialize@8 004015c0 f i stdneb.obj
 0001:000005e0       _IXACT3Engine_ShutDown@4   004015e0 f i stdneb.obj
 0001:00000600       _IXACT3Engine_DoWork@4     00401600 f i stdneb.obj
 0001:00000620       _IXACT3Engine_CreateSoundBank@24 00401620 f i stdneb.obj
 0001:00000650       _IXACT3Engine_CreateInMemoryWaveBank@24 00401650 f i stdneb.obj
 0001:00000680       _IXACT3Engine_CreateStreamingWaveBank@12 00401680 f i stdneb.obj
 0001:000006a0       _IXACT3Engine_PrepareWave@32 004016a0 f i stdneb.obj
 0001:000006e0       _IXACT3Engine_PrepareInMemoryWave@52 004016e0 f i stdneb.obj
 0001:00000740       _IXACT3Engine_PrepareStreamingWave@68 00401740 f i stdneb.obj
 0001:000007c0       _IXACT3Engine_RegisterNotification@8 004017c0 f i stdneb.obj
 0001:000007e0       _IXACT3Engine_UnRegisterNotification@8 004017e0 f i stdneb.obj
 0001:00000800       _IXACT3Engine_GetCategory@8 00401800 f i stdneb.obj
 0001:00000820       _IXACT3Engine_Stop@12      00401820 f i stdneb.obj
 0001:00000840       _IXACT3Engine_SetVolume@12 00401840 f i stdneb.obj
 0001:00000870       _IXACT3Engine_Pause@12     00401870 f i stdneb.obj
 0001:00000890       _IXACT3Engine_GetGlobalVariableIndex@8 00401890 f i stdneb.obj
 0001:000008b0       _IXACT3Engine_SetGlobalVariable@12 004018b0 f i stdneb.obj
 0001:000008e0       _IXACT3Engine_GetGlobalVariable@12 004018e0 f i stdneb.obj
 0001:00000900       ?Decrement@Win360Interlocked@Win360@@SAHACH@Z 00401900 f i jobstest.obj
 0001:00000920       ??2@YAPAXI@Z               00401920 f i jobstest.obj
 0001:00000940       ??3@YAXPAX@Z               00401940 f i jobstest.obj
 0001:00000960       ??_V@YAXPAX@Z              00401960 f i jobstest.obj
 0001:00000980       ??3String@Util@@SAXPAX@Z   00401980 f i jobstest.obj
 0001:000009a0       ?Delete@String@Util@@AAEXXZ 004019a0 f i jobstest.obj
 0001:000009f0       ??1String@Util@@QAE@XZ     004019f0 f i jobstest.obj
 0001:00000a40       ??0String@Util@@QAE@PBD@Z  00401a40 f i jobstest.obj
 0001:00000a80       ?AsCharPtr@String@Util@@QBEPBDXZ 00401a80 f i jobstest.obj
 0001:00000ab0       ??4String@Util@@QAEXABV01@@Z 00401ab0 f i jobstest.obj
 0001:00000af0       ?SetCompanyName@Application@App@@QAEXABVString@Util@@@Z 00401af0 f i jobstest.obj
 0001:00000b40       ?SetAppTitle@Application@App@@QAEXABVString@Util@@@Z 00401b40 f i jobstest.obj
 0001:00000b90       ?Release@RefCounted@Core@@QAEXXZ 00401b90 f i jobstest.obj
 0001:00000be0       _WinMain@16                00401be0 f   jobstest.obj
 0001:00000c70       ??1CommandLineArgs@Util@@QAE@XZ 00401c70 f i jobstest.obj
 0001:00000c90       ?NebulaMain@@YAXABVCommandLineArgs@Util@@@Z 00401c90 f   jobstest.obj
 0001:00000e70       ??1?$Array@VString@Util@@@Util@@QAE@XZ 00401e70 f i jobstest.obj
 0001:00000e90       ??_EString@Util@@QAEPAXI@Z 00401e90 f i jobstest.obj
 0001:00000fa0       ??_H@YGXPAXIHP6EPAX0@Z@Z   00401fa0 f i jobstest.obj
 0001:00000fd0       ??_I@YGXPAXIHP6EX0@Z@Z     00401fd0 f i jobstest.obj
 0001:00001000       ?Delete@?$Array@VString@Util@@@Util@@AAEXXZ 00402000 f i jobstest.obj
 0001:00001070       ??_E?$Ptr@VConsoleHandler@IO@@@@QAEPAXI@Z 00402070 f i jobstest.obj
 0001:00001110       ??1?$Ptr@VConsoleHandler@IO@@@@QAE@XZ 00402110 f i jobstest.obj
 0001:00001140       ?Increment@Win360Interlocked@Win360@@SAHACH@Z 00402140 f i jobstestapplication.obj
 0001:00001160       ?Copy@Memory@@YAXPBXPAXI@Z 00402160 f i jobstestapplication.obj
 0001:000011d0       ??_U@YAPAXI@Z              004021d0 f i jobstestapplication.obj
 0001:000011f0       ??0float4@Math@@QAE@XZ     004021f0 f i jobstestapplication.obj
 0001:00001200       ??0float4@Math@@QAE@MMMM@Z 00402200 f i jobstestapplication.obj
 0001:00001250       ??0vector@Math@@QAE@MMM@Z  00402250 f i jobstestapplication.obj
 0001:000012b0       ?IsOpen@Application@App@@QBE_NXZ 004022b0 f i jobstestapplication.obj
 0001:000012d0       ?AddRef@RefCounted@Core@@QAEXXZ 004022d0 f i jobstestapplication.obj
 0001:000012f0       ??0JobUniformDesc@Jobs@@QAE@PAXHH@Z 004022f0 f i jobstestapplication.obj
 0001:00001340       ??0JobDataDesc@Jobs@@QAE@XZ 00402340 f i jobstestapplication.obj
 0001:000013a0       ??0JobDataDesc@Jobs@@QAE@PAXHH@Z 004023a0 f i jobstestapplication.obj
 0001:00001440       ??0JobDataDesc@Jobs@@QAE@PAXHH0HH@Z 00402440 f i jobstestapplication.obj
 0001:00001510       ??0TPJobFuncDesc@Jobs@@QAE@P6AXABUJobFuncContext@@@Z@Z 00402510 f i jobstestapplication.obj
 0001:00001530       ?SetTitle@GameContentServerBase@Base@@QAEXABVString@Util@@@Z 00402530 f i jobstestapplication.obj
 0001:00001580       ?SetTitleId@GameContentServerBase@Base@@QAEXABVString@Util@@@Z 00402580 f i jobstestapplication.obj
 0001:000015d0       ?SetVersion@GameContentServerBase@Base@@QAEXABVString@Util@@@Z 004025d0 f i jobstestapplication.obj
 0001:00001620       ??0JobUniformData@Particles@@QAE@XZ 00402620 f i jobstestapplication.obj
 0001:000016c0       ??0JobsTestApplication@Particles@@QAE@XZ 004026c0 f   jobstestapplication.obj
 0001:00001720       ??_GJobsTestApplication@Particles@@UAEPAXI@Z 00402720 f i jobstestapplication.obj
 0001:00001720       ??_EJobsTestApplication@Particles@@UAEPAXI@Z 00402720 f i  CIL library: CIL module
 0001:00001750       ??1JobsTestApplication@Particles@@UAE@XZ 00402750 f   jobstestapplication.obj
 0001:000017d0       ?Open@JobsTestApplication@Particles@@UAE_NXZ 004027d0 f   jobstestapplication.obj
 0001:00001a40       ?Close@JobsTestApplication@Particles@@UAEXXZ 00402a40 f   jobstestapplication.obj
 0001:00001aa0       ?Run@JobsTestApplication@Particles@@UAEXXZ 00402aa0 f   jobstestapplication.obj
 0001:00001ff0       ??0Particle@Particles@@QAE@XZ 00402ff0 f i jobstestapplication.obj
 0001:00002000       ??0JobSliceOutputData@Particles@@QAE@XZ 00403000 f i jobstestapplication.obj
 0001:00002010       ??0Timer@Timing@@QAE@XZ    00403010 f i jobstestapplication.obj
 0001:00002030       ??0?$Ptr@VJob@Jobs@@@@QAE@XZ 00403030 f i jobstestapplication.obj
 0001:00002050       ??1?$Ptr@VJob@Jobs@@@@QAE@XZ 00403050 f i jobstestapplication.obj
 0001:00002080       ??4?$Ptr@VJob@Jobs@@@@QAEXPAVJob@Jobs@@@Z 00403080 f i jobstestapplication.obj
 0001:000020e0       ??C?$Ptr@VJob@Jobs@@@@QBEPAVJob@Jobs@@XZ 004030e0 f i jobstestapplication.obj
 0001:00002120       ??0?$Ptr@VJobSystem@Jobs@@@@QAE@XZ 00403120 f i jobstestapplication.obj
 0001:00002140       ??1?$Ptr@VJobSystem@Jobs@@@@QAE@XZ 00403140 f i jobstestapplication.obj
 0001:00002170       ??4?$Ptr@VJobSystem@Jobs@@@@QAEXPAVJobSystem@Jobs@@@Z 00403170 f i jobstestapplication.obj
 0001:000021d0       ??C?$Ptr@VJobSystem@Jobs@@@@QBEPAVJobSystem@Jobs@@XZ 004031d0 f i jobstestapplication.obj
 0001:00002210       ??0?$Ptr@VJobPort@Jobs@@@@QAE@XZ 00403210 f i jobstestapplication.obj
 0001:00002230       ??1?$Ptr@VJobPort@Jobs@@@@QAE@XZ 00403230 f i jobstestapplication.obj
 0001:00002260       ??4?$Ptr@VJobPort@Jobs@@@@QAEXPAVJobPort@Jobs@@@Z 00403260 f i jobstestapplication.obj
 0001:000022c0       ??C?$Ptr@VJobPort@Jobs@@@@QBEPAVJobPort@Jobs@@XZ 004032c0 f i jobstestapplication.obj
 0001:00002300       ??0?$Ptr@VGameContentServer@IO@@@@QAE@XZ 00403300 f i jobstestapplication.obj
 0001:00002320       ??1?$Ptr@VGameContentServer@IO@@@@QAE@XZ 00403320 f i jobstestapplication.obj
 0001:00002350       ??4?$Ptr@VGameContentServer@IO@@@@QAEXPAVGameContentServer@IO@@@Z 00403350 f i jobstestapplication.obj
 0001:000023b0       ??C?$Ptr@VGameContentServer@IO@@@@QBEPAVGameContentServer@IO@@XZ 004033b0 f i jobstestapplication.obj
 0001:000023f0       ?XMVectorSet@@YA?AT__m128@@MMMM@Z 004033f0 f i jobstestapplication.obj
 0001:00002430       ?__HeapAlignPointerAndWritePadding16@Memory@@YAPAEPAE@Z 00403430 f i foundation_win32.release:win360memory.obj
 0001:00002460       ?__HeapUnalignPointer16@Memory@@YAPAEPAE@Z 00403460 f i foundation_win32.release:win360memory.obj
 0001:00002480       ?__HeapAlloc16@Memory@@YAPAXPAXKK@Z 00403480 f i foundation_win32.release:win360memory.obj
 0001:000024d0       ?__HeapReAlloc16@Memory@@YAPAXPAXK0K@Z 004034d0 f i foundation_win32.release:win360memory.obj
 0001:000025f0       ?__HeapFree16@Memory@@YAHPAXK0@Z 004035f0 f i foundation_win32.release:win360memory.obj
 0001:00002630       ?Alloc@Memory@@YAPAXW4HeapType@1@I@Z 00403630 f   foundation_win32.release:win360memory.obj
 0001:00002720       ?Realloc@Memory@@YAPAXW4HeapType@1@PAXI@Z 00403720 f   foundation_win32.release:win360memory.obj
 0001:000028d0       ?Free@Memory@@YAXW4HeapType@1@PAX@Z 004038d0 f   foundation_win32.release:win360memory.obj
 0001:00002960       ?DuplicateCString@Memory@@YAPADPBD@Z 00403960 f   foundation_win32.release:win360memory.obj
 0001:00002a40       ?IsOverlapping@Memory@@YA_NPBEI0I@Z 00403a40 f   foundation_win32.release:win360memory.obj
 0001:00002a80       ?GetTotalMemoryStatus@Memory@@YA?AUTotalMemoryStatus@1@XZ 00403a80 f   foundation_win32.release:win360memory.obj
 0001:00002af0       ?DumpTotalMemoryStatus@Memory@@YAXXZ 00403af0 f   foundation_win32.release:win360memory.obj
 0001:00002b10       ??0matrix44@Math@@QAE@ABVfloat4@1@000@Z 00403b10 f i foundation_win32.release:string.obj
 0001:00002b60       ??0String@Util@@QAE@XZ     00403b60 f i foundation_win32.release:string.obj
 0001:00002ba0       ?Alloc@String@Util@@AAEXH@Z 00403ba0 f i foundation_win32.release:string.obj
 0001:00002c40       ?Realloc@String@Util@@AAEXH@Z 00403c40 f i foundation_win32.release:string.obj
 0001:00002d90       ?Reserve@String@Util@@QAEXH@Z 00403d90 f i foundation_win32.release:string.obj
 0001:00002dc0       ??0String@Util@@QAE@ABV01@@Z 00403dc0 f i foundation_win32.release:string.obj
 0001:00002e20       ??4String@Util@@QAEXPBD@Z  00403e20 f i foundation_win32.release:string.obj
 0001:00002e40       ?Append@String@Util@@QAEXABV12@@Z 00403e40 f i foundation_win32.release:string.obj
 0001:00002e80       ??AString@Util@@QBEDH@Z    00403e80 f i foundation_win32.release:string.obj
 0001:00002ee0       ??AString@Util@@QAEAADH@Z  00403ee0 f i foundation_win32.release:string.obj
 0001:00002f40       ?Length@String@Util@@QBEHXZ 00403f40 f i foundation_win32.release:string.obj
 0001:00002f60       ?IsValid@String@Util@@QBE_NXZ 00403f60 f i foundation_win32.release:string.obj
 0001:00003020       ?CopyToBuffer@String@Util@@QBE_NPADH@Z 00404020 f   foundation_win32.release:string.obj
 0001:000030d0       ?Format@String@Util@@QAAXPBDZZ 004040d0 f   foundation_win32.release:string.obj
 0001:00003160       ?FormatArgList@String@Util@@QAAXPBDPAD@Z 00404160 f   foundation_win32.release:string.obj
 0001:000031d0       ?Set@String@Util@@QAEXPBDH@Z 004041d0 f   foundation_win32.release:string.obj
 0001:00003440       ?AppendRange@String@Util@@QAEXPBDH@Z 00404440 f   foundation_win32.release:string.obj
 0001:00003660       ?Tokenize@String@Util@@QBEHABV12@AAV?$Array@VString@Util@@@2@@Z 00404660 f   foundation_win32.release:string.obj
 0001:00003790       ?Tokenize@String@Util@@QBE?AV?$Array@VString@Util@@@2@ABV12@@Z 00404790 f   foundation_win32.release:string.obj
 0001:000037d0       ?Tokenize@String@Util@@QBEHABV12@DAAV?$Array@VString@Util@@@2@@Z 004047d0 f   foundation_win32.release:string.obj
 0001:00003b20       ?Tokenize@String@Util@@QBE?AV?$Array@VString@Util@@@2@ABV12@D@Z 00404b20 f   foundation_win32.release:string.obj
 0001:00003b70       ?ExtractRange@String@Util@@QBE?AV12@HH@Z 00404b70 f   foundation_win32.release:string.obj
 0001:00003c30       ?ExtractToEnd@String@Util@@QBE?AV12@H@Z 00404c30 f   foundation_win32.release:string.obj
 0001:00003c60       ?Strip@String@Util@@QAEXABV12@@Z 00404c60 f   foundation_win32.release:string.obj
 0001:00003d20       ?FindStringIndex@String@Util@@QBEHABV12@H@Z 00404d20 f   foundation_win32.release:string.obj
 0001:00003e10       ?FindCharIndex@String@Util@@QBEHDH@Z 00404e10 f   foundation_win32.release:string.obj
 0001:00003ec0       ?TrimLeft@String@Util@@QAEXABV12@@Z 00404ec0 f   foundation_win32.release:string.obj
 0001:000040a0       ?TrimRight@String@Util@@QAEXABV12@@Z 004050a0 f   foundation_win32.release:string.obj
 0001:00004280       ?Trim@String@Util@@QAEXABV12@@Z 00405280 f   foundation_win32.release:string.obj
 0001:000042b0       ?SubstituteString@String@Util@@QAEXABV12@0@Z 004052b0 f   foundation_win32.release:string.obj
 0001:00004400       ?ExtractLastDirName@String@Util@@QBE?AV12@XZ 00405400 f   foundation_win32.release:string.obj
 0001:00004530       ?ExtractDirName@String@Util@@QBE?AV12@XZ 00405530 f   foundation_win32.release:string.obj
 0001:00004620       ?MatchPattern@String@Util@@SA_NABV12@0@Z 00405620 f   foundation_win32.release:string.obj
 0001:00004930       ?ReplaceChars@String@Util@@QAEXABV12@D@Z 00405930 f   foundation_win32.release:string.obj
 0001:000049e0       ?AsMatrix44@String@Util@@QBE?AVmatrix44@Math@@XZ 004059e0 f   foundation_win32.release:string.obj
 0001:00004e30       ?Concatenate@String@Util@@SA?AV12@ABV?$Array@VString@Util@@@2@ABV12@@Z 00405e30 f   foundation_win32.release:string.obj
 0001:00004f30       ?SetCharPtr@String@Util@@QAEXPBD@Z 00405f30 f   foundation_win32.release:string.obj
 0001:00004f90       ?Append@String@Util@@QAEXPBD@Z 00405f90 f   foundation_win32.release:string.obj
 0001:00005000       ?TerminateAtIndex@String@Util@@QAEXH@Z 00406000 f   foundation_win32.release:string.obj
 0001:00005090       ?StripFileExtension@String@Util@@QAEXXZ 00406090 f   foundation_win32.release:string.obj
 0001:00005130       ??8Util@@YA_NABVString@0@0@Z 00406130 f   foundation_win32.release:string.obj
 0001:000051e0       ??8Util@@YA_NABVString@0@PBD@Z 004061e0 f   foundation_win32.release:string.obj
 0001:00005290       ??8Util@@YA_NPBDABVString@0@@Z 00406290 f   foundation_win32.release:string.obj
 0001:00005340       ??9Util@@YA_NABVString@0@0@Z 00406340 f   foundation_win32.release:string.obj
 0001:000053f0       ??MUtil@@YA_NABVString@0@0@Z 004063f0 f   foundation_win32.release:string.obj
 0001:000054a0       ??OUtil@@YA_NABVString@0@0@Z 004064a0 f   foundation_win32.release:string.obj
 0001:00005550       ??NUtil@@YA_NABVString@0@0@Z 00406550 f   foundation_win32.release:string.obj
 0001:00005600       ??PUtil@@YA_NABVString@0@0@Z 00406600 f   foundation_win32.release:string.obj
 0001:000056b0       ?ToLower@String@Util@@QAEXXZ 004066b0 f   foundation_win32.release:string.obj
 0001:00005710       ?ToUpper@String@Util@@QAEXXZ 00406710 f   foundation_win32.release:string.obj
 0001:00005770       ?FirstCharToUpper@String@Util@@QAEXXZ 00406770 f   foundation_win32.release:string.obj
 0001:000057b0       ?ContainsCharFromSet@String@Util@@QBE_NABV12@@Z 004067b0 f   foundation_win32.release:string.obj
 0001:00005820       ?GetFileExtension@String@Util@@QBE?AV12@XZ 00406820 f   foundation_win32.release:string.obj
 0001:000058e0       ?GetLastSlash@String@Util@@ABEPADXZ 004068e0 f   foundation_win32.release:string.obj
 0001:00005950       ?IsValidBool@String@Util@@QBE_NXZ 00406950 f   foundation_win32.release:string.obj
 0001:000059c0       ?AsInt@String@Util@@QBEHXZ 004069c0 f   foundation_win32.release:string.obj
 0001:00005a00       ?AsFloat@String@Util@@QBEMXZ 00406a00 f   foundation_win32.release:string.obj
 0001:00005a40       ?AsBool@String@Util@@QBE_NXZ 00406a40 f   foundation_win32.release:string.obj
 0001:00005ad0       ?IsDigit@String@Util@@SA_ND@Z 00406ad0 f   foundation_win32.release:string.obj
 0001:00005af0       ?IsAlpha@String@Util@@SA_ND@Z 00406af0 f   foundation_win32.release:string.obj
 0001:00005b10       ?IsAlNum@String@Util@@SA_ND@Z 00406b10 f   foundation_win32.release:string.obj
 0001:00005b30       ?IsLower@String@Util@@SA_ND@Z 00406b30 f   foundation_win32.release:string.obj
 0001:00005b50       ?IsUpper@String@Util@@SA_ND@Z 00406b50 f   foundation_win32.release:string.obj
 0001:00005b70       ?StrCmp@String@Util@@SAHPBD0@Z 00406b70 f   foundation_win32.release:string.obj
 0001:00005c00       ?StrLen@String@Util@@SAHPBD@Z 00406c00 f   foundation_win32.release:string.obj
 0001:00005c60       ?StrChr@String@Util@@SAPBDPBDH@Z 00406c60 f   foundation_win32.release:string.obj
 0001:00005ca0       ?ParseKeyValuePairs@String@Util@@SA?AV?$Dictionary@VString@Util@@V12@@2@ABV12@@Z 00406ca0 f   foundation_win32.release:string.obj
 0001:00005da0       ??1?$Dictionary@VString@Util@@V12@@Util@@QAE@XZ 00406da0 f i foundation_win32.release:string.obj
 0001:00005dc0       ?ChangeFileExtension@String@Util@@QAEXABV12@@Z 00406dc0 f   foundation_win32.release:string.obj
 0001:00005ea0       ??0?$Array@VString@Util@@@Util@@QAE@ABV01@@Z 00406ea0 f i foundation_win32.release:string.obj
 0001:00005ef0       ??0?$Array@VString@Util@@@Util@@QAE@HH@Z 00406ef0 f i foundation_win32.release:string.obj
 0001:00006000       ??0?$Array@VString@Util@@@Util@@QAE@XZ 00407000 f i foundation_win32.release:string.obj
 0001:00006040       ??A?$Array@VString@Util@@@Util@@QBEAAVString@1@H@Z 00407040 f i foundation_win32.release:string.obj
 0001:00006090       ?Append@?$Array@VString@Util@@@Util@@QAEXABVString@2@@Z 00407090 f i foundation_win32.release:string.obj
 0001:00006130       ?Size@?$Array@VString@Util@@@Util@@QBEHXZ 00407130 f i foundation_win32.release:string.obj
 0001:00006150       ?Clear@?$Array@VString@Util@@@Util@@QAEXXZ 00407150 f i foundation_win32.release:string.obj
 0001:000061a0       ??1?$Array@V?$KeyValuePair@VString@Util@@V12@@Util@@@Util@@QAE@XZ 004071a0 f i foundation_win32.release:string.obj
 0001:000061c0       ??0?$Dictionary@VString@Util@@V12@@Util@@QAE@ABV01@@Z 004071c0 f i foundation_win32.release:string.obj
 0001:00006210       ??0?$Dictionary@VString@Util@@V12@@Util@@QAE@XZ 00407210 f i foundation_win32.release:string.obj
 0001:00006230       ?Add@?$Dictionary@VString@Util@@V12@@Util@@QAEXABVString@2@0@Z 00407230 f i foundation_win32.release:string.obj
 0001:00006280       ??1?$KeyValuePair@VString@Util@@V12@@Util@@QAE@XZ 00407280 f i foundation_win32.release:string.obj
 0001:00006310       ?Destroy@?$Array@VString@Util@@@Util@@AAEXPAVString@2@@Z 00407310 f i foundation_win32.release:string.obj
 0001:00006330       ?Copy@?$Array@VString@Util@@@Util@@AAEXABV12@@Z 00407330 f i foundation_win32.release:string.obj
 0001:000064b0       ?Grow@?$Array@VString@Util@@@Util@@AAEXXZ 004074b0 f i foundation_win32.release:string.obj
 0001:00006530       ??0?$Array@V?$KeyValuePair@VString@Util@@V12@@Util@@@Util@@QAE@ABV01@@Z 00407530 f i foundation_win32.release:string.obj
 0001:00006580       ??0?$Array@V?$KeyValuePair@VString@Util@@V12@@Util@@@Util@@QAE@XZ 00407580 f i foundation_win32.release:string.obj
 0001:000065c0       ?Append@?$Array@V?$KeyValuePair@VString@Util@@V12@@Util@@@Util@@QAEXABV?$KeyValuePair@VString@Util@@V12@@2@@Z 004075c0 f i foundation_win32.release:string.obj
 0001:00006640       ?InsertSorted@?$Array@V?$KeyValuePair@VString@Util@@V12@@Util@@@Util@@QAEHABV?$KeyValuePair@VString@Util@@V12@@2@@Z 00407640 f i foundation_win32.release:string.obj
 0001:000068b0       ?Delete@?$Array@V?$KeyValuePair@VString@Util@@V12@@Util@@@Util@@AAEXXZ 004078b0 f i foundation_win32.release:string.obj
 0001:00006920       ??0?$KeyValuePair@VString@Util@@V12@@Util@@QAE@ABVString@1@0@Z 00407920 f i foundation_win32.release:string.obj
 0001:000069e0       ??_GString@Util@@QAEPAXI@Z 004079e0 f i foundation_win32.release:string.obj
 0001:00006a50       ??_E?$KeyValuePair@VString@Util@@V12@@Util@@QAEPAXI@Z 00407a50 f i foundation_win32.release:string.obj
 0001:00006af0       ?GrowTo@?$Array@VString@Util@@@Util@@AAEXH@Z 00407af0 f i foundation_win32.release:string.obj
 0001:00006c60       ?Size@?$Array@V?$KeyValuePair@VString@Util@@V12@@Util@@@Util@@QBEHXZ 00407c60 f i foundation_win32.release:string.obj
 0001:00006c80       ?Insert@?$Array@V?$KeyValuePair@VString@Util@@V12@@Util@@@Util@@QAEXHABV?$KeyValuePair@VString@Util@@V12@@2@@Z 00407c80 f i foundation_win32.release:string.obj
 0001:00006cf0       ?InsertAtEndOfIdenticalRange@?$Array@V?$KeyValuePair@VString@Util@@V12@@Util@@@Util@@QAEHHABV?$KeyValuePair@VString@Util@@V12@@2@@Z 00407cf0 f i foundation_win32.release:string.obj
 0001:00006d70       ?Copy@?$Array@V?$KeyValuePair@VString@Util@@V12@@Util@@@Util@@AAEXABV12@@Z 00407d70 f i foundation_win32.release:string.obj
 0001:00006ea0       ?Grow@?$Array@V?$KeyValuePair@VString@Util@@V12@@Util@@@Util@@AAEXXZ 00407ea0 f i foundation_win32.release:string.obj
 0001:00006f20       ??4?$KeyValuePair@VString@Util@@V12@@Util@@QAEXABV01@@Z 00407f20 f i foundation_win32.release:string.obj
 0001:00006fb0       ??O?$KeyValuePair@VString@Util@@V12@@Util@@QBE_NABV01@@Z 00407fb0 f i foundation_win32.release:string.obj
 0001:00006fd0       ??M?$KeyValuePair@VString@Util@@V12@@Util@@QBE_NABV01@@Z 00407fd0 f i foundation_win32.release:string.obj
 0001:00006ff0       ?GrowTo@?$Array@V?$KeyValuePair@VString@Util@@V12@@Util@@@Util@@AAEXH@Z 00407ff0 f i foundation_win32.release:string.obj
 0001:00007110       ?Move@?$Array@V?$KeyValuePair@VString@Util@@V12@@Util@@@Util@@AAEXHH@Z 00408110 f i foundation_win32.release:string.obj
 0001:000072a0       ??0?$KeyValuePair@VString@Util@@V12@@Util@@QAE@XZ 004082a0 f i foundation_win32.release:string.obj
 0001:00007310       ??9?$KeyValuePair@VString@Util@@V12@@Util@@QBE_NABV01@@Z 00408310 f i foundation_win32.release:string.obj
 0001:00007330       ?Destroy@?$Array@V?$KeyValuePair@VString@Util@@V12@@Util@@@Util@@AAEXPAV?$KeyValuePair@VString@Util@@V12@@2@@Z 00408330 f i foundation_win32.release:string.obj
 0001:00007360       ??_G?$KeyValuePair@VString@Util@@V12@@Util@@QAEPAXI@Z 00408360 f i foundation_win32.release:string.obj
 0001:00007390       ?strrchr@@YAPADPADH@Z      00408390 f i foundation_win32.release:string.obj
 0001:000073b0       ?strpbrk@@YAPADPADPBD@Z    004083b0 f i foundation_win32.release:string.obj
 0001:000073d0       ?strchr@@YAPADPADH@Z       004083d0 f i foundation_win32.release:string.obj
 0001:000074a0       ?StringCchVPrintfA@@YGJPADIPBD0@Z 004084a0 f i foundation_win32.release:string.obj
 0001:000076c0       ?StringCchCopyA@@YGJPADIPBD@Z 004086c0 f i foundation_win32.release:string.obj
 0001:00007710       ??0_XMMATRIX@@QAE@XZ       00408710 f i foundation_win32.release:string.obj
 0001:00007720       ?AsFloat4@String@Util@@QBE?AVfloat4@Math@@XZ 00408720 f i foundation_win32.release:commandlineargs.obj
 0001:000078a0       ??0CommandLineArgs@Util@@QAE@XZ 004088a0 f   foundation_win32.release:commandlineargs.obj
 0001:000078c0       ??0CommandLineArgs@Util@@QAE@ABVString@1@@Z 004088c0 f   foundation_win32.release:commandlineargs.obj
 0001:00007950       ??0CommandLineArgs@Util@@QAE@HPAPBD@Z 00408950 f   foundation_win32.release:commandlineargs.obj
 0001:000079f0       ?Error@CommandLineArgs@Util@@ABEXABVString@2@@Z 004089f0 f   foundation_win32.release:commandlineargs.obj
 0001:00007a30       ?GetCmdName@CommandLineArgs@Util@@QBEABVString@2@XZ 00408a30 f   foundation_win32.release:commandlineargs.obj
 0001:00007a70       ?HasArg@CommandLineArgs@Util@@QBE_NABVString@2@@Z 00408a70 f   foundation_win32.release:commandlineargs.obj
 0001:00007aa0       ?FindArgIndex@CommandLineArgs@Util@@ABEHABVString@2@@Z 00408aa0 f   foundation_win32.release:commandlineargs.obj
 0001:00007b00       ?GetString@CommandLineArgs@Util@@QBEABVString@2@ABV32@0@Z 00408b00 f   foundation_win32.release:commandlineargs.obj
 0001:00007b40       ?GetInt@CommandLineArgs@Util@@QBEHABVString@2@H@Z 00408b40 f   foundation_win32.release:commandlineargs.obj
 0001:00007b90       ?GetFloat@CommandLineArgs@Util@@QBEMABVString@2@M@Z 00408b90 f   foundation_win32.release:commandlineargs.obj
 0001:00007be0       ?GetBool@CommandLineArgs@Util@@QBE_NABVString@2@_N@Z 00408be0 f   foundation_win32.release:commandlineargs.obj
 0001:00007c30       ?GetBoolFlag@CommandLineArgs@Util@@QBE_NABVString@2@@Z 00408c30 f   foundation_win32.release:commandlineargs.obj
 0001:00007c50       ?GetFloat4@CommandLineArgs@Util@@QBE?AVfloat4@Math@@ABVString@2@ABV34@@Z 00408c50 f   foundation_win32.release:commandlineargs.obj
 0001:00007cc0       ?GetMatrix44@CommandLineArgs@Util@@QBE?AVmatrix44@Math@@ABVString@2@ABV34@@Z 00408cc0 f   foundation_win32.release:commandlineargs.obj
 0001:00007d20       ?GetNumArgs@CommandLineArgs@Util@@QBEHXZ 00408d20 f   foundation_win32.release:commandlineargs.obj
 0001:00007d60       ?GetStringAtIndex@CommandLineArgs@Util@@QBEABVString@2@H@Z 00408d60 f   foundation_win32.release:commandlineargs.obj
 0001:00007d80       ?GetIntAtIndex@CommandLineArgs@Util@@QBEHH@Z 00408d80 f   foundation_win32.release:commandlineargs.obj
 0001:00007db0       ?GetFloatAtIndex@CommandLineArgs@Util@@QBEMH@Z 00408db0 f   foundation_win32.release:commandlineargs.obj
 0001:00007de0       ?GetBoolAtIndex@CommandLineArgs@Util@@QBE_NH@Z 00408de0 f   foundation_win32.release:commandlineargs.obj
 0001:00007e10       ?GetFloat4AtIndex@CommandLineArgs@Util@@QBE?AVfloat4@Math@@H@Z 00408e10 f   foundation_win32.release:commandlineargs.obj
 0001:00007e40       ?GetMatrix44AtIndex@CommandLineArgs@Util@@QBE?AVmatrix44@Math@@H@Z 00408e40 f   foundation_win32.release:commandlineargs.obj
 0001:00007e70       ?AppendCommandString@CommandLineArgs@Util@@QAEXABV12@@Z 00408e70 f   foundation_win32.release:commandlineargs.obj
 0001:00007ec0       ??4?$Array@VString@Util@@@Util@@QAEXABV01@@Z 00408ec0 f i foundation_win32.release:commandlineargs.obj
 0001:00007ff0       ?FindIndex@?$Array@VString@Util@@@Util@@QBEHABVString@2@@Z 00408ff0 f i foundation_win32.release:commandlineargs.obj
 0001:00008050       ??0Application@App@@QAE@XZ 00409050 f   foundation_win32.release:application.obj
 0001:000081b0       ??_EApplication@App@@UAEPAXI@Z 004091b0 f i  CIL library: CIL module
 0001:000081b0       ??_GApplication@App@@UAEPAXI@Z 004091b0 f i foundation_win32.release:application.obj
 0001:000081e0       ??1Application@App@@UAE@XZ 004091e0 f   foundation_win32.release:application.obj
 0001:00008340       ?Open@Application@App@@UAE_NXZ 00409340 f   foundation_win32.release:application.obj
 0001:00008380       ?Close@Application@App@@UAEXXZ 00409380 f   foundation_win32.release:application.obj
 0001:000083c0       ?Run@Application@App@@UAEXXZ 004093c0 f   foundation_win32.release:application.obj
 0001:000083d0       ?Exit@Application@App@@UAEXXZ 004093d0 f   foundation_win32.release:application.obj
 0001:000083f0       ?Instance@Console@IO@@SAPAV12@XZ 004093f0 f i foundation_win32.release:debug.obj
 0001:00008420       ?HasInstance@Console@IO@@SA_NXZ 00409420 f i foundation_win32.release:debug.obj
 0001:00008440       ?n_barf@@YAXPBD0H@Z        00409440 f   foundation_win32.release:debug.obj
 0001:000084e0       ?n_barf2@@YAXPBD00H@Z      004094e0 f   foundation_win32.release:debug.obj
 0001:00008580       ?n_error@@YAXPBDZZ         00409580 f   foundation_win32.release:debug.obj
 0001:00008640       ?n_warning@@YAXPBDZZ       00409640 f   foundation_win32.release:debug.obj
 0001:00008700       ?n_confirm@@YAXPBDZZ       00409700 f   foundation_win32.release:debug.obj
 0001:000087c0       ?n_printf@@YAXPBDZZ        004097c0 f   foundation_win32.release:debug.obj
 0001:00008810       ?n_dbgout@@YAXPBDZZ        00409810 f   foundation_win32.release:debug.obj
 0001:00008860       ?n_sleep@@YAXN@Z           00409860 f   foundation_win32.release:debug.obj
 0001:00008880       ??0Win360Timer@Win360@@QAE@XZ 00409880 f   foundation_win32.release:win360timer.obj
 0001:000088c0       ?Start@Win360Timer@Win360@@QAEXXZ 004098c0 f   foundation_win32.release:win360timer.obj
 0001:00008930       ?Stop@Win360Timer@Win360@@QAEXXZ 00409930 f   foundation_win32.release:win360timer.obj
 0001:00008970       ?Reset@Win360Timer@Win360@@QAEXXZ 00409970 f   foundation_win32.release:win360timer.obj
 0001:000089d0       ?Running@Win360Timer@Win360@@QBE_NXZ 004099d0 f   foundation_win32.release:win360timer.obj
 0001:000089e0       ?InternalTime@Win360Timer@Win360@@ABE_JXZ 004099e0 f   foundation_win32.release:win360timer.obj
 0001:00008a30       ?GetTime@Win360Timer@Win360@@QBENXZ 00409a30 f   foundation_win32.release:win360timer.obj
 0001:00008a60       ?GetTicks@Win360Timer@Win360@@QBEHXZ 00409a60 f   foundation_win32.release:win360timer.obj
 0001:00008ac0       ??0StringAtom@Util@@QAE@ABVString@1@@Z 00409ac0 f i foundation_win32.release:consoleapplication.obj
 0001:00008b00       ??4StringAtom@Util@@QAEXABV01@@Z 00409b00 f i foundation_win32.release:consoleapplication.obj
 0001:00008b20       ?SetCompanyName@CoreServer@Core@@QAEXABVStringAtom@Util@@@Z 00409b20 f i foundation_win32.release:consoleapplication.obj
 0001:00008b40       ?SetAppName@CoreServer@Core@@QAEXABVStringAtom@Util@@@Z 00409b40 f i foundation_win32.release:consoleapplication.obj
 0001:00008b60       ??0ConsoleApplication@App@@QAE@XZ 00409b60 f   foundation_win32.release:consoleapplication.obj
 0001:00008ba0       ??_EConsoleApplication@App@@UAEPAXI@Z 00409ba0 f i  CIL library: CIL module
 0001:00008ba0       ??_GConsoleApplication@App@@UAEPAXI@Z 00409ba0 f i foundation_win32.release:consoleapplication.obj
 0001:00008bd0       ??1ConsoleApplication@App@@UAE@XZ 00409bd0 f   foundation_win32.release:consoleapplication.obj
 0001:00008c40       ?Open@ConsoleApplication@App@@UAE_NXZ 00409c40 f   foundation_win32.release:consoleapplication.obj
 0001:00008dc0       ?Close@ConsoleApplication@App@@UAEXXZ 00409dc0 f   foundation_win32.release:consoleapplication.obj
 0001:00008e20       ??0?$Ptr@VCoreServer@Core@@@@QAE@XZ 00409e20 f i foundation_win32.release:consoleapplication.obj
 0001:00008e40       ??1?$Ptr@VCoreServer@Core@@@@QAE@XZ 00409e40 f i foundation_win32.release:consoleapplication.obj
 0001:00008e70       ??4?$Ptr@VCoreServer@Core@@@@QAEXPAVCoreServer@Core@@@Z 00409e70 f i foundation_win32.release:consoleapplication.obj
 0001:00008ed0       ??C?$Ptr@VCoreServer@Core@@@@QBEPAVCoreServer@Core@@XZ 00409ed0 f i foundation_win32.release:consoleapplication.obj
 0001:00008f10       ??0?$Ptr@VIoServer@IO@@@@QAE@XZ 00409f10 f i foundation_win32.release:consoleapplication.obj
 0001:00008f30       ??1?$Ptr@VIoServer@IO@@@@QAE@XZ 00409f30 f i foundation_win32.release:consoleapplication.obj
 0001:00008f60       ??4?$Ptr@VIoServer@IO@@@@QAEXPAVIoServer@IO@@@Z 00409f60 f i foundation_win32.release:consoleapplication.obj
 0001:00008fc0       ??0?$Ptr@VLogFileConsoleHandler@IO@@@@QAE@PAVLogFileConsoleHandler@IO@@@Z 00409fc0 f i foundation_win32.release:consoleapplication.obj
 0001:00009000       ??1?$Ptr@VLogFileConsoleHandler@IO@@@@QAE@XZ 0040a000 f i foundation_win32.release:consoleapplication.obj
 0001:00009030       ??$upcast@VConsoleHandler@IO@@@?$Ptr@VLogFileConsoleHandler@IO@@@@QBEABV?$Ptr@VConsoleHandler@IO@@@@XZ 0040a030 f i foundation_win32.release:consoleapplication.obj
 0001:00009040       ??0FourCC@Util@@QAE@I@Z    0040a040 f i foundation_win32.release:jobsystem.obj
 0001:00009060       ??2JobSystem@Jobs@@SAPAXI@Z 0040a060 f i foundation_win32.release:jobsystem.obj
 0001:00009070       ??3JobSystem@Jobs@@SAXPAX@Z 0040a070 f i foundation_win32.release:jobsystem.obj
 0001:00009090       ??1Rtti@Core@@QAE@XZ       0040a090 f i foundation_win32.release:jobsystem.obj
 0001:000090e0       ?GetRtti@JobSystem@Jobs@@UBEPAVRtti@Core@@XZ 0040a0e0 f   foundation_win32.release:jobsystem.obj
 0001:000090f0       ?FactoryCreator@JobSystem@Jobs@@SAPAVRefCounted@Core@@XZ 0040a0f0 f   foundation_win32.release:jobsystem.obj
 0001:00009100       ?Create@JobSystem@Jobs@@SAPAV12@XZ 0040a100 f   foundation_win32.release:jobsystem.obj
 0001:00009140       ?RegisterWithFactory@JobSystem@Jobs@@SA_NXZ 0040a140 f   foundation_win32.release:jobsystem.obj
 0001:00009240       ??0JobSystem@Jobs@@QAE@XZ  0040a240 f   foundation_win32.release:jobsystem.obj
 0001:00009290       ??_EJobSystem@Jobs@@UAEPAXI@Z 0040a290 f i  CIL library: CIL module
 0001:00009290       ??_GJobSystem@Jobs@@UAEPAXI@Z 0040a290 f i foundation_win32.release:jobsystem.obj
 0001:000092c0       ??1JobSystem@Jobs@@UAE@XZ  0040a2c0 f   foundation_win32.release:jobsystem.obj
 0001:00009310       ?IsValid@JobSystemBase@Base@@QBE_NXZ 0040a310 f i foundation_win32.release:tpjobsystem.obj
 0001:00009330       ??2TPJobSystem@Jobs@@SAPAXI@Z 0040a330 f i foundation_win32.release:tpjobsystem.obj
 0001:00009340       ??3TPJobSystem@Jobs@@SAXPAX@Z 0040a340 f i foundation_win32.release:tpjobsystem.obj
 0001:00009360       ?GetRtti@TPJobSystem@Jobs@@UBEPAVRtti@Core@@XZ 0040a360 f   foundation_win32.release:tpjobsystem.obj
 0001:00009370       ?FactoryCreator@TPJobSystem@Jobs@@SAPAVRefCounted@Core@@XZ 0040a370 f   foundation_win32.release:tpjobsystem.obj
 0001:00009380       ?Create@TPJobSystem@Jobs@@SAPAV12@XZ 0040a380 f   foundation_win32.release:tpjobsystem.obj
 0001:000093c0       ?RegisterWithFactory@TPJobSystem@Jobs@@SA_NXZ 0040a3c0 f   foundation_win32.release:tpjobsystem.obj
 0001:000094c0       ??0TPJobSystem@Jobs@@QAE@XZ 0040a4c0 f   foundation_win32.release:tpjobsystem.obj
 0001:000094f0       ??_ETPJobSystem@Jobs@@UAEPAXI@Z 0040a4f0 f i  CIL library: CIL module
 0001:000094f0       ??_GTPJobSystem@Jobs@@UAEPAXI@Z 0040a4f0 f i foundation_win32.release:tpjobsystem.obj
 0001:00009520       ??1TPJobSystem@Jobs@@UAE@XZ 0040a520 f   foundation_win32.release:tpjobsystem.obj
 0001:00009570       ?Setup@TPJobSystem@Jobs@@QAEXXZ 0040a570 f   foundation_win32.release:tpjobsystem.obj
 0001:000095c0       ?Discard@TPJobSystem@Jobs@@QAEXXZ 0040a5c0 f   foundation_win32.release:tpjobsystem.obj
 0001:00009610       ??2GameContentServer@IO@@SAPAXI@Z 0040a610 f i foundation_win32.release:gamecontentserver.obj
 0001:00009620       ??3GameContentServer@IO@@SAXPAX@Z 0040a620 f i foundation_win32.release:gamecontentserver.obj
 0001:00009640       ?GetRtti@GameContentServer@IO@@UBEPAVRtti@Core@@XZ 0040a640 f   foundation_win32.release:gamecontentserver.obj
 0001:00009650       ?FactoryCreator@GameContentServer@IO@@SAPAVRefCounted@Core@@XZ 0040a650 f   foundation_win32.release:gamecontentserver.obj
 0001:00009660       ?Create@GameContentServer@IO@@SAPAV12@XZ 0040a660 f   foundation_win32.release:gamecontentserver.obj
 0001:000096a0       ?RegisterWithFactory@GameContentServer@IO@@SA_NXZ 0040a6a0 f   foundation_win32.release:gamecontentserver.obj
 0001:000097a0       ??0GameContentServer@IO@@QAE@XZ 0040a7a0 f   foundation_win32.release:gamecontentserver.obj
 0001:000097f0       ??_EGameContentServer@IO@@UAEPAXI@Z 0040a7f0 f i  CIL library: CIL module
 0001:000097f0       ??_GGameContentServer@IO@@UAEPAXI@Z 0040a7f0 f i foundation_win32.release:gamecontentserver.obj
 0001:00009820       ??1GameContentServer@IO@@UAE@XZ 0040a820 f   foundation_win32.release:gamecontentserver.obj
 0001:00009870       ??3RefCounted@Core@@SAXPAX@Z 0040a870 f i foundation_win32.release:gamecontentserverbase.obj
 0001:00009890       ??0RefCounted@Core@@QAE@XZ 0040a890 f i foundation_win32.release:gamecontentserverbase.obj
 0001:000098c0       ??_ERefCounted@Core@@MAEPAXI@Z 0040a8c0 f i  CIL library: CIL module
 0001:000098c0       ??_GRefCounted@Core@@MAEPAXI@Z 0040a8c0 f i foundation_win32.release:gamecontentserverbase.obj
 0001:000098f0       ??2GameContentServerBase@Base@@SAPAXI@Z 0040a8f0 f i foundation_win32.release:gamecontentserverbase.obj
 0001:00009900       ??3GameContentServerBase@Base@@SAXPAX@Z 0040a900 f i foundation_win32.release:gamecontentserverbase.obj
 0001:00009920       ?IsValid@GameContentServerBase@Base@@QBE_NXZ 0040a920 f i foundation_win32.release:gamecontentserverbase.obj
 0001:00009940       ?GetRtti@GameContentServerBase@Base@@UBEPAVRtti@Core@@XZ 0040a940 f   foundation_win32.release:gamecontentserverbase.obj
 0001:00009950       ?FactoryCreator@GameContentServerBase@Base@@SAPAVRefCounted@Core@@XZ 0040a950 f   foundation_win32.release:gamecontentserverbase.obj
 0001:00009960       ?Create@GameContentServerBase@Base@@SAPAV12@XZ 0040a960 f   foundation_win32.release:gamecontentserverbase.obj
 0001:000099a0       ?RegisterWithFactory@GameContentServerBase@Base@@SA_NXZ 0040a9a0 f   foundation_win32.release:gamecontentserverbase.obj
 0001:00009aa0       ??0GameContentServerBase@Base@@QAE@XZ 0040aaa0 f   foundation_win32.release:gamecontentserverbase.obj
 0001:00009b80       ??_EGameContentServerBase@Base@@UAEPAXI@Z 0040ab80 f i  CIL library: CIL module
 0001:00009b80       ??_GGameContentServerBase@Base@@UAEPAXI@Z 0040ab80 f i foundation_win32.release:gamecontentserverbase.obj
 0001:00009bb0       ??1GameContentServerBase@Base@@UAE@XZ 0040abb0 f   foundation_win32.release:gamecontentserverbase.obj
 0001:00009cf0       ?Setup@GameContentServerBase@Base@@QAEXXZ 0040acf0 f   foundation_win32.release:gamecontentserverbase.obj
 0001:00009da0       ?Discard@GameContentServerBase@Base@@QAEXXZ 0040ada0 f   foundation_win32.release:gamecontentserverbase.obj
 0001:00009de0       ??2Job@Jobs@@SAPAXI@Z      0040ade0 f i foundation_win32.release:job.obj
 0001:00009df0       ??3Job@Jobs@@SAXPAX@Z      0040adf0 f i foundation_win32.release:job.obj
 0001:00009e10       ?GetRtti@Job@Jobs@@UBEPAVRtti@Core@@XZ 0040ae10 f   foundation_win32.release:job.obj
 0001:00009e20       ?FactoryCreator@Job@Jobs@@SAPAVRefCounted@Core@@XZ 0040ae20 f   foundation_win32.release:job.obj
 0001:00009e30       ?Create@Job@Jobs@@SAPAV12@XZ 0040ae30 f   foundation_win32.release:job.obj
 0001:00009e70       ??0Job@Jobs@@QAE@XZ        0040ae70 f i foundation_win32.release:job.obj
 0001:00009e90       ??_EJob@Jobs@@UAEPAXI@Z    0040ae90 f i  CIL library: CIL module
 0001:00009e90       ??_GJob@Jobs@@UAEPAXI@Z    0040ae90 f i foundation_win32.release:job.obj
 0001:00009ec0       ??1Job@Jobs@@UAE@XZ        0040aec0 f i foundation_win32.release:job.obj
 0001:00009ee0       ?RegisterWithFactory@Job@Jobs@@SA_NXZ 0040aee0 f   foundation_win32.release:job.obj
 0001:00009fe0       ?GetNumBuffers@JobDataDesc@Jobs@@QBEHXZ 0040afe0 f i foundation_win32.release:tpjob.obj
 0001:00009ff0       ?GetBufferSize@JobDataDesc@Jobs@@QBEHH@Z 0040aff0 f i foundation_win32.release:tpjob.obj
 0001:0000a030       ?GetSliceSize@JobDataDesc@Jobs@@QBEHH@Z 0040b030 f i foundation_win32.release:tpjob.obj
 0001:0000a090       ?IsValid@JobBase@Base@@QBE_NXZ 0040b090 f i foundation_win32.release:tpjob.obj
 0001:0000a0b0       ??0Win360Event@Win360@@QAE@_N@Z 0040b0b0 f i foundation_win32.release:tpjob.obj
 0001:0000a100       ??1Win360Event@Win360@@QAE@XZ 0040b100 f i foundation_win32.release:tpjob.obj
 0001:0000a120       ??0Event@Threading@@QAE@_N@Z 0040b120 f i foundation_win32.release:tpjob.obj
 0001:0000a170       ??2TPJob@Jobs@@SAPAXI@Z    0040b170 f i foundation_win32.release:tpjob.obj
 0001:0000a180       ??3TPJob@Jobs@@SAXPAX@Z    0040b180 f i foundation_win32.release:tpjob.obj
 0001:0000a1a0       ?GetRtti@TPJob@Jobs@@UBEPAVRtti@Core@@XZ 0040b1a0 f   foundation_win32.release:tpjob.obj
 0001:0000a1b0       ?FactoryCreator@TPJob@Jobs@@SAPAVRefCounted@Core@@XZ 0040b1b0 f   foundation_win32.release:tpjob.obj
 0001:0000a1c0       ?Create@TPJob@Jobs@@SAPAV12@XZ 0040b1c0 f   foundation_win32.release:tpjob.obj
 0001:0000a200       ?RegisterWithFactory@TPJob@Jobs@@SA_NXZ 0040b200 f   foundation_win32.release:tpjob.obj
 0001:0000a300       ??0TPJob@Jobs@@QAE@XZ      0040b300 f   foundation_win32.release:tpjob.obj
 0001:0000a380       ??_GTPJob@Jobs@@UAEPAXI@Z  0040b380 f i foundation_win32.release:tpjob.obj
 0001:0000a380       ??_ETPJob@Jobs@@UAEPAXI@Z  0040b380 f i  CIL library: CIL module
 0001:0000a3b0       ??1Event@Threading@@QAE@XZ 0040b3b0 f i foundation_win32.release:tpjob.obj
 0001:0000a3d0       ??1TPJob@Jobs@@UAE@XZ      0040b3d0 f   foundation_win32.release:tpjob.obj
 0001:0000a440       ?Setup@TPJob@Jobs@@QAEXABVJobUniformDesc@2@ABVJobDataDesc@2@1ABVTPJobFuncDesc@2@@Z 0040b440 f   foundation_win32.release:tpjob.obj
 0001:0000a600       ?Discard@TPJob@Jobs@@QAEXXZ 0040b600 f   foundation_win32.release:tpjob.obj
 0001:0000a650       ??0?$FixedArray@VTPJobSlice@Jobs@@@Util@@QAE@XZ 0040b650 f i foundation_win32.release:tpjob.obj
 0001:0000a680       ??1?$FixedArray@VTPJobSlice@Jobs@@@Util@@QAE@XZ 0040b680 f i foundation_win32.release:tpjob.obj
 0001:0000a6a0       ??A?$FixedArray@VTPJobSlice@Jobs@@@Util@@QBEAAVTPJobSlice@Jobs@@H@Z 0040b6a0 f i foundation_win32.release:tpjob.obj
 0001:0000a6f0       ?SetSize@?$FixedArray@VTPJobSlice@Jobs@@@Util@@QAEXH@Z 0040b6f0 f i foundation_win32.release:tpjob.obj
 0001:0000a720       ?Delete@?$FixedArray@VTPJobSlice@Jobs@@@Util@@AAEXXZ 0040b720 f i foundation_win32.release:tpjob.obj
 0001:0000a780       ?Alloc@?$FixedArray@VTPJobSlice@Jobs@@@Util@@AAEXH@Z 0040b780 f i foundation_win32.release:tpjob.obj
 0001:0000a850       ??_ETPJobSlice@Jobs@@QAEPAXI@Z 0040b850 f i foundation_win32.release:tpjob.obj
 0001:0000a8f0       ??2JobPort@Jobs@@SAPAXI@Z  0040b8f0 f i foundation_win32.release:jobport.obj
 0001:0000a900       ??3JobPort@Jobs@@SAXPAX@Z  0040b900 f i foundation_win32.release:jobport.obj
 0001:0000a920       ?GetRtti@JobPort@Jobs@@UBEPAVRtti@Core@@XZ 0040b920 f   foundation_win32.release:jobport.obj
 0001:0000a930       ?FactoryCreator@JobPort@Jobs@@SAPAVRefCounted@Core@@XZ 0040b930 f   foundation_win32.release:jobport.obj
 0001:0000a940       ?Create@JobPort@Jobs@@SAPAV12@XZ 0040b940 f   foundation_win32.release:jobport.obj
 0001:0000a980       ??0JobPort@Jobs@@QAE@XZ    0040b980 f i foundation_win32.release:jobport.obj
 0001:0000a9a0       ??_EJobPort@Jobs@@UAEPAXI@Z 0040b9a0 f i  CIL library: CIL module
 0001:0000a9a0       ??_GJobPort@Jobs@@UAEPAXI@Z 0040b9a0 f i foundation_win32.release:jobport.obj
 0001:0000a9d0       ??1JobPort@Jobs@@UAE@XZ    0040b9d0 f i foundation_win32.release:jobport.obj
 0001:0000a9f0       ?RegisterWithFactory@JobPort@Jobs@@SA_NXZ 0040b9f0 f   foundation_win32.release:jobport.obj
 0001:0000aaf0       ??2JobPortBase@Base@@SAPAXI@Z 0040baf0 f i foundation_win32.release:jobportbase.obj
 0001:0000ab00       ??3JobPortBase@Base@@SAXPAX@Z 0040bb00 f i foundation_win32.release:jobportbase.obj
 0001:0000ab20       ?IsValid@JobPortBase@Base@@QBE_NXZ 0040bb20 f i foundation_win32.release:jobportbase.obj
 0001:0000ab40       ?GetRtti@JobPortBase@Base@@UBEPAVRtti@Core@@XZ 0040bb40 f   foundation_win32.release:jobportbase.obj
 0001:0000ab50       ?FactoryCreator@JobPortBase@Base@@SAPAVRefCounted@Core@@XZ 0040bb50 f   foundation_win32.release:jobportbase.obj
 0001:0000ab60       ?Create@JobPortBase@Base@@SAPAV12@XZ 0040bb60 f   foundation_win32.release:jobportbase.obj
 0001:0000aba0       ?RegisterWithFactory@JobPortBase@Base@@SA_NXZ 0040bba0 f   foundation_win32.release:jobportbase.obj
 0001:0000aca0       ??0JobPortBase@Base@@QAE@XZ 0040bca0 f   foundation_win32.release:jobportbase.obj
 0001:0000ace0       ??_GJobPortBase@Base@@UAEPAXI@Z 0040bce0 f i foundation_win32.release:jobportbase.obj
 0001:0000ace0       ??_EJobPortBase@Base@@UAEPAXI@Z 0040bce0 f i  CIL library: CIL module
 0001:0000ad10       ??1JobPortBase@Base@@UAE@XZ 0040bd10 f   foundation_win32.release:jobportbase.obj
 0001:0000ad60       ?Setup@JobPortBase@Base@@QAEXXZ 0040bd60 f   foundation_win32.release:jobportbase.obj
 0001:0000ada0       ?Discard@JobPortBase@Base@@QAEXXZ 0040bda0 f   foundation_win32.release:jobportbase.obj
 0001:0000ade0       ?PushJob@JobPortBase@Base@@QAEXABV?$Ptr@VJob@Jobs@@@@@Z 0040bde0 f   foundation_win32.release:jobportbase.obj
 0001:0000adf0       ?PushJobChain@JobPortBase@Base@@QAEXABV?$Array@V?$Ptr@VJob@Jobs@@@@@Util@@@Z 0040bdf0 f   foundation_win32.release:jobportbase.obj
 0001:0000ae00       ?PushFlush@JobPortBase@Base@@QAEXXZ 0040be00 f   foundation_win32.release:jobportbase.obj
 0001:0000ae10       ?PushSync@JobPortBase@Base@@QAEXXZ 0040be10 f   foundation_win32.release:jobportbase.obj
 0001:0000ae20       ?WaitDone@JobPortBase@Base@@QAEXXZ 0040be20 f   foundation_win32.release:jobportbase.obj
 0001:0000ae30       ?CheckDone@JobPortBase@Base@@QAE_NXZ 0040be30 f   foundation_win32.release:jobportbase.obj
 0001:0000ae40       ?Exchange@Win360Interlocked@Win360@@SAHPCHH@Z 0040be40 f i foundation_win32.release:tpjobport.obj
 0001:0000ae50       ?Reset@Win360Event@Win360@@QAEXXZ 0040be50 f i foundation_win32.release:tpjobport.obj
 0001:0000ae70       ?Wait@Win360Event@Win360@@QBEXXZ 0040be70 f i foundation_win32.release:tpjobport.obj
 0001:0000ae90       ?Peek@Win360Event@Win360@@QBE_NXZ 0040be90 f i foundation_win32.release:tpjobport.obj
 0001:0000aec0       ?GetJobSlices@TPJob@Jobs@@ABEABV?$FixedArray@VTPJobSlice@Jobs@@@Util@@XZ 0040bec0 f i foundation_win32.release:tpjobport.obj
 0001:0000aee0       ?GetCompletionEvent@TPJob@Jobs@@ABEPBVEvent@Threading@@XZ 0040bee0 f i foundation_win32.release:tpjobport.obj
 0001:0000af00       ?NotifyStart@TPJob@Jobs@@AAEXXZ 0040bf00 f i foundation_win32.release:tpjobport.obj
 0001:0000af60       ??2TPJobPort@Jobs@@SAPAXI@Z 0040bf60 f i foundation_win32.release:tpjobport.obj
 0001:0000af70       ??3TPJobPort@Jobs@@SAXPAX@Z 0040bf70 f i foundation_win32.release:tpjobport.obj
 0001:0000af90       ?GetNextThreadIndex@TPJobThreadPool@Jobs@@QBEHXZ 0040bf90 f i foundation_win32.release:tpjobport.obj
 0001:0000afb0       ?GetThreadPool@TPJobSystem@Jobs@@AAEPAVTPJobThreadPool@2@XZ 0040bfb0 f i foundation_win32.release:tpjobport.obj
 0001:0000afd0       ?Instance@JobSystem@Jobs@@SAPAV12@XZ 0040bfd0 f i foundation_win32.release:tpjobport.obj
 0001:0000b000       ?GetRtti@TPJobPort@Jobs@@UBEPAVRtti@Core@@XZ 0040c000 f   foundation_win32.release:tpjobport.obj
 0001:0000b010       ?FactoryCreator@TPJobPort@Jobs@@SAPAVRefCounted@Core@@XZ 0040c010 f   foundation_win32.release:tpjobport.obj
 0001:0000b020       ?Create@TPJobPort@Jobs@@SAPAV12@XZ 0040c020 f   foundation_win32.release:tpjobport.obj
 0001:0000b060       ?RegisterWithFactory@TPJobPort@Jobs@@SA_NXZ 0040c060 f   foundation_win32.release:tpjobport.obj
 0001:0000b160       ??0TPJobPort@Jobs@@QAE@XZ  0040c160 f   foundation_win32.release:tpjobport.obj
 0001:0000b190       ??_ETPJobPort@Jobs@@UAEPAXI@Z 0040c190 f i  CIL library: CIL module
 0001:0000b190       ??_GTPJobPort@Jobs@@UAEPAXI@Z 0040c190 f i foundation_win32.release:tpjobport.obj
 0001:0000b1c0       ??1TPJobPort@Jobs@@UAE@XZ  0040c1c0 f   foundation_win32.release:tpjobport.obj
 0001:0000b210       ?Discard@TPJobPort@Jobs@@QAEXXZ 0040c210 f   foundation_win32.release:tpjobport.obj
 0001:0000b260       ?PushJob@TPJobPort@Jobs@@QAEXABV?$Ptr@VJob@Jobs@@@@@Z 0040c260 f   foundation_win32.release:tpjobport.obj
 0001:0000b2f0       ?PushJobChain@TPJobPort@Jobs@@QAEXABV?$Array@V?$Ptr@VJob@Jobs@@@@@Util@@@Z 0040c2f0 f   foundation_win32.release:tpjobport.obj
 0001:0000b480       ?PushFlush@TPJobPort@Jobs@@QAEXXZ 0040c480 f   foundation_win32.release:tpjobport.obj
 0001:0000b490       ?PushSync@TPJobPort@Jobs@@QAEXXZ 0040c490 f   foundation_win32.release:tpjobport.obj
 0001:0000b500       ?WaitDone@TPJobPort@Jobs@@QAEXXZ 0040c500 f   foundation_win32.release:tpjobport.obj
 0001:0000b560       ?CheckDone@TPJobPort@Jobs@@QAE_NXZ 0040c560 f   foundation_win32.release:tpjobport.obj
 0001:0000b5b0       ?Size@?$FixedArray@VTPJobSlice@Jobs@@@Util@@QBEHXZ 0040c5b0 f i foundation_win32.release:tpjobport.obj
 0001:0000b5c0       ??4?$Ptr@VJob@Jobs@@@@QAEXABV0@@Z 0040c5c0 f i foundation_win32.release:tpjobport.obj
 0001:0000b620       ?isvalid@?$Ptr@VJob@Jobs@@@@QBE_NXZ 0040c620 f i foundation_win32.release:tpjobport.obj
 0001:0000b640       ??A?$Array@V?$Ptr@VJob@Jobs@@@@@Util@@QBEAAV?$Ptr@VJob@Jobs@@@@H@Z 0040c640 f i foundation_win32.release:tpjobport.obj
 0001:0000b690       ?Size@?$Array@V?$Ptr@VJob@Jobs@@@@@Util@@QBEHXZ 0040c690 f i foundation_win32.release:tpjobport.obj
 0001:0000b6b0       ?Back@?$Array@V?$Ptr@VJob@Jobs@@@@@Util@@QBEAAV?$Ptr@VJob@Jobs@@@@XZ 0040c6b0 f i foundation_win32.release:tpjobport.obj
 0001:0000b700       ?IsEmpty@?$Array@V?$Ptr@VJob@Jobs@@@@@Util@@QBE_NXZ 0040c700 f i foundation_win32.release:tpjobport.obj
 0001:0000b720       ?Setup@Blob@Util@@SAXXZ    0040c720 f i foundation_win32.release:win32sysfunc.obj
 0001:0000b790       ?Shutdown@Blob@Util@@SAXXZ 0040c790 f i foundation_win32.release:win32sysfunc.obj
 0001:0000b810       ??_GWin360Heap@Win360@@QAEPAXI@Z 0040c810 f i foundation_win32.release:win32sysfunc.obj
 0001:0000b840       ??0SystemInfo@System@@QAE@XZ 0040c840 f i foundation_win32.release:win32sysfunc.obj
 0001:0000b860       ?Setup@SysFunc@Win32@@SAXXZ 0040c860 f   foundation_win32.release:win32sysfunc.obj
 0001:0000b920       ?Exit@SysFunc@Win32@@SAXH@Z 0040c920 f   foundation_win32.release:win32sysfunc.obj
 0001:0000ba00       ??_GGlobalStringAtomTable@Util@@QAEPAXI@Z 0040ca00 f i foundation_win32.release:win32sysfunc.obj
 0001:0000ba30       ??_GLocalStringAtomTable@Util@@QAEPAXI@Z 0040ca30 f i foundation_win32.release:win32sysfunc.obj
 0001:0000ba60       ?Error@SysFunc@Win32@@SAXPBD@Z 0040ca60 f   foundation_win32.release:win32sysfunc.obj
 0001:0000ba90       ?MessageBoxA@SysFunc@Win32@@SAXPBD@Z 0040ca90 f   foundation_win32.release:win32sysfunc.obj
 0001:0000bad0       ?Sleep@SysFunc@Win32@@SAXN@Z 0040cad0 f   foundation_win32.release:win32sysfunc.obj
 0001:0000bb00       ?DebugOut@SysFunc@Win32@@SAXPBD@Z 0040cb00 f   foundation_win32.release:win32sysfunc.obj
 0001:0000bb10       ?RegisterExitHandler@SysFunc@Win32@@CAPBVExitHandler@Core@@PBV34@@Z 0040cb10 f   foundation_win32.release:win32sysfunc.obj
 0001:0000bb30       ?GetSystemInfo@SysFunc@Win32@@SAPBVSystemInfo@System@@XZ 0040cb30 f   foundation_win32.release:win32sysfunc.obj
 0001:0000bb40       ?XMVerifyCPUSupport@@YAHXZ 0040cb40 f i foundation_win32.release:win32sysfunc.obj
 0001:0000bb80       ?SetupHeaps@Memory@@YAXXZ  0040cb80 f   foundation_win32.release:win360memoryconfig.obj
 0001:0000bce0       ?GetHeapTypeName@Memory@@YAPBDW4HeapType@1@@Z 0040cce0 f   foundation_win32.release:win360memoryconfig.obj
 0001:0000bda0       ?WaiterPlus@Win360CriticalSection@Win360@@ABEXXZ 0040cda0 f i foundation_win32.release:console.obj
 0001:0000bdc0       ?WaiterMinus@Win360CriticalSection@Win360@@ABEXXZ 0040cdc0 f i foundation_win32.release:console.obj
 0001:0000bde0       ?PerfLockImmediate@Win360CriticalSection@Win360@@ABE_NK@Z 0040cde0 f i foundation_win32.release:console.obj
 0001:0000be10       ?Enter@Win360CriticalSection@Win360@@QBEXXZ 0040ce10 f i foundation_win32.release:console.obj
 0001:0000be80       ?AllocateKernelSemaphore@Win360CriticalSection@Win360@@ABEXXZ 0040ce80 f i foundation_win32.release:console.obj
 0001:0000bef0       ?PerfLock@Win360CriticalSection@Win360@@ABE_NK@Z 0040cef0 f i foundation_win32.release:console.obj
 0001:0000bf70       ?PerfLockKernel@Win360CriticalSection@Win360@@ABE_NK@Z 0040cf70 f i foundation_win32.release:console.obj
 0001:0000c010       ?Leave@Win360CriticalSection@Win360@@QBEXXZ 0040d010 f i foundation_win32.release:console.obj
 0001:0000c040       ?PerfUnlock@Win360CriticalSection@Win360@@ABEXXZ 0040d040 f i foundation_win32.release:console.obj
 0001:0000c080       ??2Console@IO@@SAPAXI@Z    0040d080 f i foundation_win32.release:console.obj
 0001:0000c090       ??3Console@IO@@SAXPAX@Z    0040d090 f i foundation_win32.release:console.obj
 0001:0000c0b0       ?IsOpen@Console@IO@@QBE_NXZ 0040d0b0 f i foundation_win32.release:console.obj
 0001:0000c0d0       ?GetRtti@Console@IO@@UBEPAVRtti@Core@@XZ 0040d0d0 f   foundation_win32.release:console.obj
 0001:0000c0e0       ?FactoryCreator@Console@IO@@SAPAVRefCounted@Core@@XZ 0040d0e0 f   foundation_win32.release:console.obj
 0001:0000c0f0       ?Create@Console@IO@@SAPAV12@XZ 0040d0f0 f   foundation_win32.release:console.obj
 0001:0000c130       ?RegisterWithFactory@Console@IO@@SA_NXZ 0040d130 f   foundation_win32.release:console.obj
 0001:0000c230       ??0Console@IO@@QAE@XZ      0040d230 f   foundation_win32.release:console.obj
 0001:0000c2b0       ??_GConsole@IO@@UAEPAXI@Z  0040d2b0 f i foundation_win32.release:console.obj
 0001:0000c2b0       ??_EConsole@IO@@UAEPAXI@Z  0040d2b0 f i  CIL library: CIL module
 0001:0000c2e0       ??0CriticalSection@Threading@@QAE@XZ 0040d2e0 f i foundation_win32.release:console.obj
 0001:0000c300       ??1CriticalSection@Threading@@QAE@XZ 0040d300 f i foundation_win32.release:console.obj
 0001:0000c320       ??1Console@IO@@UAE@XZ      0040d320 f   foundation_win32.release:console.obj
 0001:0000c3d0       ?Open@Console@IO@@QAEXXZ   0040d3d0 f   foundation_win32.release:console.obj
 0001:0000c460       ?Close@Console@IO@@QAEXXZ  0040d460 f   foundation_win32.release:console.obj
 0001:0000c500       ?Update@Console@IO@@QAEXXZ 0040d500 f   foundation_win32.release:console.obj
 0001:0000c5b0       ?AttachHandler@Console@IO@@QAEXABV?$Ptr@VConsoleHandler@IO@@@@@Z 0040d5b0 f   foundation_win32.release:console.obj
 0001:0000c640       ?RemoveHandler@Console@IO@@QAEXABV?$Ptr@VConsoleHandler@IO@@@@@Z 0040d640 f   foundation_win32.release:console.obj
 0001:0000c710       ?HasInput@Console@IO@@QBE_NXZ 0040d710 f   foundation_win32.release:console.obj
 0001:0000c7e0       ?GetInput@Console@IO@@QBE?AVString@Util@@XZ 0040d7e0 f   foundation_win32.release:console.obj
 0001:0000c970       ?Print@Console@IO@@QAAXPBDZZ 0040d970 f   foundation_win32.release:console.obj
 0001:0000c9d0       ?Print@Console@IO@@QAAXPBDPAD@Z 0040d9d0 f   foundation_win32.release:console.obj
 0001:0000cac0       ?Print@Console@IO@@QAEXABVString@Util@@@Z 0040dac0 f   foundation_win32.release:console.obj
 0001:0000cb80       ?Error@Console@IO@@QAAXPBDZZ 0040db80 f   foundation_win32.release:console.obj
 0001:0000cbe0       ?Error@Console@IO@@QAAXPBDPAD@Z 0040dbe0 f   foundation_win32.release:console.obj
 0001:0000ccd0       ?DebugOut@Console@IO@@QAAXPBDZZ 0040dcd0 f   foundation_win32.release:console.obj
 0001:0000cd30       ?DebugOut@Console@IO@@QAAXPBDPAD@Z 0040dd30 f   foundation_win32.release:console.obj
 0001:0000ce20       ?Warning@Console@IO@@QAAXPBDZZ 0040de20 f   foundation_win32.release:console.obj
 0001:0000ce80       ?Warning@Console@IO@@QAAXPBDPAD@Z 0040de80 f   foundation_win32.release:console.obj
 0001:0000cf70       ?Confirm@Console@IO@@QAAXPBDZZ 0040df70 f   foundation_win32.release:console.obj
 0001:0000cfe0       ?Confirm@Console@IO@@QAAXPBDPAD@Z 0040dfe0 f   foundation_win32.release:console.obj
 0001:0000d0d0       ??0?$Array@V?$Ptr@VConsoleHandler@IO@@@@@Util@@QAE@XZ 0040e0d0 f i foundation_win32.release:console.obj
 0001:0000d110       ??1?$Array@V?$Ptr@VConsoleHandler@IO@@@@@Util@@QAE@XZ 0040e110 f i foundation_win32.release:console.obj
 0001:0000d130       ??A?$Array@V?$Ptr@VConsoleHandler@IO@@@@@Util@@QBEAAV?$Ptr@VConsoleHandler@IO@@@@H@Z 0040e130 f i foundation_win32.release:console.obj
 0001:0000d180       ?Size@?$Array@V?$Ptr@VConsoleHandler@IO@@@@@Util@@QBEHXZ 0040e180 f i foundation_win32.release:console.obj
 0001:0000d1a0       ?EraseIndex@?$Array@V?$Ptr@VConsoleHandler@IO@@@@@Util@@QAEXH@Z 0040e1a0 f i foundation_win32.release:console.obj
 0001:0000d220       ?Insert@?$Array@V?$Ptr@VConsoleHandler@IO@@@@@Util@@QAEXHABV?$Ptr@VConsoleHandler@IO@@@@@Z 0040e220 f i foundation_win32.release:console.obj
 0001:0000d290       ?FindIndex@?$Array@V?$Ptr@VConsoleHandler@IO@@@@@Util@@QBEHABV?$Ptr@VConsoleHandler@IO@@@@@Z 0040e290 f i foundation_win32.release:console.obj
 0001:0000d2f0       ??0?$Ptr@VConsoleHandler@IO@@@@QAE@PAVConsoleHandler@IO@@@Z 0040e2f0 f i foundation_win32.release:console.obj
 0001:0000d330       ??C?$Ptr@VConsoleHandler@IO@@@@QBEPAVConsoleHandler@IO@@XZ 0040e330 f i foundation_win32.release:console.obj
 0001:0000d370       ?isvalid@?$Ptr@VConsoleHandler@IO@@@@QBE_NXZ 0040e370 f i foundation_win32.release:console.obj
 0001:0000d390       ?Append@?$Array@V?$Ptr@VConsoleHandler@IO@@@@@Util@@QAEXABV?$Ptr@VConsoleHandler@IO@@@@@Z 0040e390 f i foundation_win32.release:console.obj
 0001:0000d410       ?Destroy@?$Array@V?$Ptr@VConsoleHandler@IO@@@@@Util@@AAEXPAV?$Ptr@VConsoleHandler@IO@@@@@Z 0040e410 f i foundation_win32.release:console.obj
 0001:0000d440       ?Delete@?$Array@V?$Ptr@VConsoleHandler@IO@@@@@Util@@AAEXXZ 0040e440 f i foundation_win32.release:console.obj
 0001:0000d4b0       ?Move@?$Array@V?$Ptr@VConsoleHandler@IO@@@@@Util@@AAEXHH@Z 0040e4b0 f i foundation_win32.release:console.obj
 0001:0000d640       ??4?$Ptr@VConsoleHandler@IO@@@@QAEXABV0@@Z 0040e640 f i foundation_win32.release:console.obj
 0001:0000d6a0       ??8?$Ptr@VConsoleHandler@IO@@@@QBE_NABV0@@Z 0040e6a0 f i foundation_win32.release:console.obj
 0001:0000d6c0       ??_G?$Ptr@VConsoleHandler@IO@@@@QAEPAXI@Z 0040e6c0 f i foundation_win32.release:console.obj
 0001:0000d6f0       ?Grow@?$Array@V?$Ptr@VConsoleHandler@IO@@@@@Util@@AAEXXZ 0040e6f0 f i foundation_win32.release:console.obj
 0001:0000d770       ??0?$Ptr@VConsoleHandler@IO@@@@QAE@XZ 0040e770 f i foundation_win32.release:console.obj
 0001:0000d790       ?GrowTo@?$Array@V?$Ptr@VConsoleHandler@IO@@@@@Util@@AAEXH@Z 0040e790 f i foundation_win32.release:console.obj
 0001:0000d8b0       ___InlineInterlockedCompareExchangePointer 0040e8b0 f i foundation_win32.release:console.obj
 0001:0000d8d0       ?Instance@LocalStringAtomTable@Util@@SAPAV12@XZ 0040e8d0 f i foundation_win32.release:stringatom.obj
 0001:0000d910       ?Instance@GlobalStringAtomTable@Util@@SAPAV12@XZ 0040e910 f i foundation_win32.release:stringatom.obj
 0001:0000d940       ?Setup@StringAtom@Util@@AAEXPBD@Z 0040e940 f   foundation_win32.release:stringatom.obj
 0001:0000da10       ??8StringAtom@Util@@QBE_NPBD@Z 0040ea10 f   foundation_win32.release:stringatom.obj
 0001:0000da90       ??9StringAtom@Util@@QBE_NPBD@Z 0040ea90 f   foundation_win32.release:stringatom.obj
 0001:0000db10       ??0StringAtom@Util@@QAE@PBD@Z 0040eb10 f i foundation_win32.release:coreserver.obj
 0001:0000db40       ??2CoreServer@Core@@SAPAXI@Z 0040eb40 f i foundation_win32.release:coreserver.obj
 0001:0000db50       ??3CoreServer@Core@@SAXPAX@Z 0040eb50 f i foundation_win32.release:coreserver.obj
 0001:0000db70       ?IsOpen@CoreServer@Core@@QBE_NXZ 0040eb70 f i foundation_win32.release:coreserver.obj
 0001:0000db90       ?GetRtti@CoreServer@Core@@UBEPAVRtti@2@XZ 0040eb90 f   foundation_win32.release:coreserver.obj
 0001:0000dba0       ?FactoryCreator@CoreServer@Core@@SAPAVRefCounted@2@XZ 0040eba0 f   foundation_win32.release:coreserver.obj
 0001:0000dbb0       ?Create@CoreServer@Core@@SAPAV12@XZ 0040ebb0 f   foundation_win32.release:coreserver.obj
 0001:0000dbf0       ?RegisterWithFactory@CoreServer@Core@@SA_NXZ 0040ebf0 f   foundation_win32.release:coreserver.obj
 0001:0000dcf0       ??0CoreServer@Core@@QAE@XZ 0040ecf0 f   foundation_win32.release:coreserver.obj
 0001:0000dde0       ??_ECoreServer@Core@@UAEPAXI@Z 0040ede0 f i  CIL library: CIL module
 0001:0000dde0       ??_GCoreServer@Core@@UAEPAXI@Z 0040ede0 f i foundation_win32.release:coreserver.obj
 0001:0000de10       ??1CoreServer@Core@@UAE@XZ 0040ee10 f   foundation_win32.release:coreserver.obj
 0001:0000de90       ?Open@CoreServer@Core@@QAEXXZ 0040ee90 f   foundation_win32.release:coreserver.obj
 0001:0000def0       ?Close@CoreServer@Core@@QAEXXZ 0040eef0 f   foundation_win32.release:coreserver.obj
 0001:0000df40       ?Trigger@CoreServer@Core@@QAEXXZ 0040ef40 f   foundation_win32.release:coreserver.obj
 0001:0000df60       ??0?$Ptr@VConsole@IO@@@@QAE@XZ 0040ef60 f i foundation_win32.release:coreserver.obj
 0001:0000df80       ??1?$Ptr@VConsole@IO@@@@QAE@XZ 0040ef80 f i foundation_win32.release:coreserver.obj
 0001:0000dfb0       ??4?$Ptr@VConsole@IO@@@@QAEXPAVConsole@IO@@@Z 0040efb0 f i foundation_win32.release:coreserver.obj
 0001:0000e010       ??C?$Ptr@VConsole@IO@@@@QBEPAVConsole@IO@@XZ 0040f010 f i foundation_win32.release:coreserver.obj
 0001:0000e050       ?IsEmpty@String@Util@@QBE_NXZ 0040f050 f i foundation_win32.release:ioserver.obj
 0001:0000e070       ?GetRefCount@RefCounted@Core@@QBEHXZ 0040f070 f i foundation_win32.release:ioserver.obj
 0001:0000e090       ??0URI@IO@@QAE@XZ          0040f090 f i foundation_win32.release:ioserver.obj
 0001:0000e1f0       ??0URI@IO@@QAE@ABVString@Util@@@Z 0040f1f0 f i foundation_win32.release:ioserver.obj
 0001:0000e3a0       ??4URI@IO@@QAEXABV01@@Z    0040f3a0 f i foundation_win32.release:ioserver.obj
 0001:0000e5a0       ?IsEmpty@URI@IO@@QBE_NXZ   0040f5a0 f i foundation_win32.release:ioserver.obj
 0001:0000e5b0       ?AsString@URI@IO@@QBE?AVString@Util@@XZ 0040f5b0 f i foundation_win32.release:ioserver.obj
 0001:0000e5d0       ?Scheme@URI@IO@@QBEABVString@Util@@XZ 0040f5d0 f i foundation_win32.release:ioserver.obj
 0001:0000e5f0       ?LocalPath@URI@IO@@QBEABVString@Util@@XZ 0040f5f0 f i foundation_win32.release:ioserver.obj
 0001:0000e610       ?Instance@AssignRegistry@IO@@SAPAV12@XZ 0040f610 f i foundation_win32.release:ioserver.obj
 0001:0000e640       ?HasInstance@AssignRegistry@IO@@SA_NXZ 0040f640 f i foundation_win32.release:ioserver.obj
 0001:0000e660       ?Instance@SchemeRegistry@IO@@SAPAV12@XZ 0040f660 f i foundation_win32.release:ioserver.obj
 0001:0000e690       ?HasInstance@SchemeRegistry@IO@@SA_NXZ 0040f690 f i foundation_win32.release:ioserver.obj
 0001:0000e6b0       ??2IoServer@IO@@SAPAXI@Z   0040f6b0 f i foundation_win32.release:ioserver.obj
 0001:0000e6c0       ??3IoServer@IO@@SAXPAX@Z   0040f6c0 f i foundation_win32.release:ioserver.obj
 0001:0000e6e0       ?IsArchiveFileSystemEnabled@IoServer@IO@@QBE_NXZ 0040f6e0 f i foundation_win32.release:ioserver.obj
 0001:0000e700       ?GetPlatform@SystemInfoBase@Base@@QBE?AW4Platform@12@XZ 0040f700 f i foundation_win32.release:ioserver.obj
 0001:0000e710       ?Instance@ArchiveFileSystem@IO@@SAPAV12@XZ 0040f710 f i foundation_win32.release:ioserver.obj
 0001:0000e740       ?HasInstance@ArchiveFileSystem@IO@@SA_NXZ 0040f740 f i foundation_win32.release:ioserver.obj
 0001:0000e760       ?GetRtti@IoServer@IO@@UBEPAVRtti@Core@@XZ 0040f760 f   foundation_win32.release:ioserver.obj
 0001:0000e770       ?FactoryCreator@IoServer@IO@@SAPAVRefCounted@Core@@XZ 0040f770 f   foundation_win32.release:ioserver.obj
 0001:0000e780       ?Create@IoServer@IO@@SAPAV12@XZ 0040f780 f   foundation_win32.release:ioserver.obj
 0001:0000e7c0       ?RegisterWithFactory@IoServer@IO@@SA_NXZ 0040f7c0 f   foundation_win32.release:ioserver.obj
 0001:0000e8c0       ??0IoServer@IO@@QAE@XZ     0040f8c0 f   foundation_win32.release:ioserver.obj
 0001:0000eb10       ??_GIoServer@IO@@UAEPAXI@Z 0040fb10 f i foundation_win32.release:ioserver.obj
 0001:0000eb10       ??_EIoServer@IO@@UAEPAXI@Z 0040fb10 f i  CIL library: CIL module
 0001:0000eb40       ??1IoServer@IO@@UAE@XZ     0040fb40 f   foundation_win32.release:ioserver.obj
 0001:0000ec10       ?CreateStream@IoServer@IO@@QBE?AV?$Ptr@VStream@IO@@@@ABVURI@2@@Z 0040fc10 f   foundation_win32.release:ioserver.obj
 0001:0000edd0       ??1URI@IO@@QAE@XZ          0040fdd0 f i foundation_win32.release:ioserver.obj
 0001:0000efd0       ?MountArchive@IoServer@IO@@QAE_NABVURI@2@@Z 0040ffd0 f   foundation_win32.release:ioserver.obj
 0001:0000f020       ?UnmountArchive@IoServer@IO@@QAEXABVURI@2@@Z 00410020 f   foundation_win32.release:ioserver.obj
 0001:0000f050       ?IsArchiveMounted@IoServer@IO@@QBE_NABVURI@2@@Z 00410050 f   foundation_win32.release:ioserver.obj
 0001:0000f080       ?MountStandardArchives@IoServer@IO@@QAEXXZ 00410080 f   foundation_win32.release:ioserver.obj
 0001:0000f180       ?UnmountStandardArchives@IoServer@IO@@QAEXXZ 00410180 f   foundation_win32.release:ioserver.obj
 0001:0000f2c0       ?CreateDirectoryA@IoServer@IO@@QBE_NABVURI@2@@Z 004102c0 f   foundation_win32.release:ioserver.obj
 0001:0000f540       ??1?$Stack@VString@Util@@@Util@@QAE@XZ 00410540 f i foundation_win32.release:ioserver.obj
 0001:0000f560       ?CopyFile@IoServer@IO@@QBE_NABVURI@2@0@Z 00410560 f   foundation_win32.release:ioserver.obj
 0001:0000f990       ?ComputeFileCrc@IoServer@IO@@QBEIABVURI@2@@Z 00410990 f   foundation_win32.release:ioserver.obj
 0001:0000fb20       ?DeleteFile@IoServer@IO@@QBE_NABVURI@2@@Z 00410b20 f   foundation_win32.release:ioserver.obj
 0001:0000fbb0       ?DeleteDirectory@IoServer@IO@@QBE_NABVURI@2@@Z 00410bb0 f   foundation_win32.release:ioserver.obj
 0001:0000fc40       ?FileExists@IoServer@IO@@QBE_NABVURI@2@@Z 00410c40 f   foundation_win32.release:ioserver.obj
 0001:0000fd10       ?DirectoryExists@IoServer@IO@@QBE_NABVURI@2@@Z 00410d10 f   foundation_win32.release:ioserver.obj
 0001:0000fe00       ?SetReadOnly@IoServer@IO@@QBEXABVURI@2@_N@Z 00410e00 f   foundation_win32.release:ioserver.obj
 0001:0000fe90       ?IsReadOnly@IoServer@IO@@QBE_NABVURI@2@@Z 00410e90 f   foundation_win32.release:ioserver.obj
 0001:00010040       ?SetFileWriteTime@IoServer@IO@@QAEXABVURI@2@VWin360FileTime@Win360@@@Z 00411040 f   foundation_win32.release:ioserver.obj
 0001:000100d0       ?GetFileWriteTime@IoServer@IO@@QBE?AVWin360FileTime@Win360@@ABVURI@2@@Z 004110d0 f   foundation_win32.release:ioserver.obj
 0001:00010160       ?ListFiles@IoServer@IO@@QBE?AV?$Array@VString@Util@@@Util@@ABVURI@2@ABVString@4@_N@Z 00411160 f   foundation_win32.release:ioserver.obj
 0001:00010380       ?ListDirectories@IoServer@IO@@QBE?AV?$Array@VString@Util@@@Util@@ABVURI@2@ABVString@4@_N@Z 00411380 f   foundation_win32.release:ioserver.obj
 0001:000105a0       ?AddPathPrefixToArray@IoServer@IO@@ABE?AV?$Array@VString@Util@@@Util@@ABVString@4@ABV34@@Z 004115a0 f   foundation_win32.release:ioserver.obj
 0001:000106c0       ?Reserve@?$Array@VString@Util@@@Util@@QAEXH@Z 004116c0 f i foundation_win32.release:ioserver.obj
 0001:00010710       ?IsEmpty@?$Array@VString@Util@@@Util@@QBE_NXZ 00411710 f i foundation_win32.release:ioserver.obj
 0001:00010730       ??0?$Ptr@VArchiveFileSystem@IO@@@@QAE@XZ 00411730 f i foundation_win32.release:ioserver.obj
 0001:00010750       ??1?$Ptr@VArchiveFileSystem@IO@@@@QAE@XZ 00411750 f i foundation_win32.release:ioserver.obj
 0001:00010780       ??4?$Ptr@VArchiveFileSystem@IO@@@@QAEXPAVArchiveFileSystem@IO@@@Z 00411780 f i foundation_win32.release:ioserver.obj
 0001:000107e0       ??C?$Ptr@VArchiveFileSystem@IO@@@@QBEPAVArchiveFileSystem@IO@@XZ 004117e0 f i foundation_win32.release:ioserver.obj
 0001:00010820       ??0?$Ptr@VAssignRegistry@IO@@@@QAE@XZ 00411820 f i foundation_win32.release:ioserver.obj
 0001:00010840       ??1?$Ptr@VAssignRegistry@IO@@@@QAE@XZ 00411840 f i foundation_win32.release:ioserver.obj
 0001:00010870       ??4?$Ptr@VAssignRegistry@IO@@@@QAEXPAVAssignRegistry@IO@@@Z 00411870 f i foundation_win32.release:ioserver.obj
 0001:000108d0       ??C?$Ptr@VAssignRegistry@IO@@@@QBEPAVAssignRegistry@IO@@XZ 004118d0 f i foundation_win32.release:ioserver.obj
 0001:00010910       ??0?$Ptr@VSchemeRegistry@IO@@@@QAE@XZ 00411910 f i foundation_win32.release:ioserver.obj
 0001:00010930       ??1?$Ptr@VSchemeRegistry@IO@@@@QAE@XZ 00411930 f i foundation_win32.release:ioserver.obj
 0001:00010960       ??4?$Ptr@VSchemeRegistry@IO@@@@QAEXPAVSchemeRegistry@IO@@@Z 00411960 f i foundation_win32.release:ioserver.obj
 0001:000109c0       ??C?$Ptr@VSchemeRegistry@IO@@@@QBEPAVSchemeRegistry@IO@@XZ 004119c0 f i foundation_win32.release:ioserver.obj
 0001:00010a00       ??0?$Ptr@VStream@IO@@@@QAE@ABV0@@Z 00411a00 f i foundation_win32.release:ioserver.obj
 0001:00010a40       ??0?$Ptr@VStream@IO@@@@QAE@PAVStream@IO@@@Z 00411a40 f i foundation_win32.release:ioserver.obj
 0001:00010a80       ??1?$Ptr@VStream@IO@@@@QAE@XZ 00411a80 f i foundation_win32.release:ioserver.obj
 0001:00010ab0       ??C?$Ptr@VStream@IO@@@@QBEPAVStream@IO@@XZ 00411ab0 f i foundation_win32.release:ioserver.obj
 0001:00010af0       ??1?$Ptr@VArchive@IO@@@@QAE@XZ 00411af0 f i foundation_win32.release:ioserver.obj
 0001:00010b20       ??C?$Ptr@VArchive@IO@@@@QBEPAVArchive@IO@@XZ 00411b20 f i foundation_win32.release:ioserver.obj
 0001:00010b60       ?isvalid@?$Ptr@VArchive@IO@@@@QBE_NXZ 00411b60 f i foundation_win32.release:ioserver.obj
 0001:00010b80       ??0?$Stack@VString@Util@@@Util@@QAE@XZ 00411b80 f i foundation_win32.release:ioserver.obj
 0001:00010ba0       ?IsEmpty@?$Stack@VString@Util@@@Util@@QBE_NXZ 00411ba0 f i foundation_win32.release:ioserver.obj
 0001:00010bc0       ?Push@?$Stack@VString@Util@@@Util@@QAEXABVString@2@@Z 00411bc0 f i foundation_win32.release:ioserver.obj
 0001:00010be0       ?Pop@?$Stack@VString@Util@@@Util@@QAE?AVString@2@XZ 00411be0 f i foundation_win32.release:ioserver.obj
 0001:00010c70       ?Back@?$Array@VString@Util@@@Util@@QBEAAVString@2@XZ 00411c70 f i foundation_win32.release:ioserver.obj
 0001:00010cc0       ?EraseIndex@?$Array@VString@Util@@@Util@@QAEXH@Z 00411cc0 f i foundation_win32.release:ioserver.obj
 0001:00010d40       ?Move@?$Array@VString@Util@@@Util@@AAEXHH@Z 00411d40 f i foundation_win32.release:ioserver.obj
 0001:00010f40       ?IsOpen@ConsoleHandler@IO@@QBE_NXZ 00411f40 f i foundation_win32.release:logfileconsolehandler.obj
 0001:00010f60       ??0URI@IO@@QAE@PBD@Z       00411f60 f i foundation_win32.release:logfileconsolehandler.obj
 0001:00011140       ?IsOpen@StreamWriter@IO@@QBE_NXZ 00412140 f i foundation_win32.release:logfileconsolehandler.obj
 0001:00011160       ??2LogFileConsoleHandler@IO@@SAPAXI@Z 00412160 f i foundation_win32.release:logfileconsolehandler.obj
 0001:00011170       ??3LogFileConsoleHandler@IO@@SAXPAX@Z 00412170 f i foundation_win32.release:logfileconsolehandler.obj
 0001:00011190       ?Value@StringAtom@Util@@QBEPBDXZ 00412190 f i foundation_win32.release:logfileconsolehandler.obj
 0001:000111a0       ?Instance@IoServer@IO@@SAPAV12@XZ 004121a0 f i foundation_win32.release:logfileconsolehandler.obj
 0001:000111e0       ?Instance@CoreServer@Core@@SAPAV12@XZ 004121e0 f i foundation_win32.release:logfileconsolehandler.obj
 0001:00011220       ?GetAppName@CoreServer@Core@@QBEABVStringAtom@Util@@XZ 00412220 f i foundation_win32.release:logfileconsolehandler.obj
 0001:00011240       ?GetRtti@LogFileConsoleHandler@IO@@UBEPAVRtti@Core@@XZ 00412240 f   foundation_win32.release:logfileconsolehandler.obj
 0001:00011250       ?FactoryCreator@LogFileConsoleHandler@IO@@SAPAVRefCounted@Core@@XZ 00412250 f   foundation_win32.release:logfileconsolehandler.obj
 0001:00011260       ?Create@LogFileConsoleHandler@IO@@SAPAV12@XZ 00412260 f   foundation_win32.release:logfileconsolehandler.obj
 0001:000112a0       ?RegisterWithFactory@LogFileConsoleHandler@IO@@SA_NXZ 004122a0 f   foundation_win32.release:logfileconsolehandler.obj
 0001:000113a0       ??0LogFileConsoleHandler@IO@@QAE@XZ 004123a0 f   foundation_win32.release:logfileconsolehandler.obj
 0001:000113e0       ??_ELogFileConsoleHandler@IO@@UAEPAXI@Z 004123e0 f i  CIL library: CIL module
 0001:000113e0       ??_GLogFileConsoleHandler@IO@@UAEPAXI@Z 004123e0 f i foundation_win32.release:logfileconsolehandler.obj
 0001:00011410       ??1LogFileConsoleHandler@IO@@UAE@XZ 00412410 f   foundation_win32.release:logfileconsolehandler.obj
 0001:00011460       ?Open@LogFileConsoleHandler@IO@@UAEXXZ 00412460 f   foundation_win32.release:logfileconsolehandler.obj
 0001:000116c0       ?Close@LogFileConsoleHandler@IO@@UAEXXZ 004126c0 f   foundation_win32.release:logfileconsolehandler.obj
 0001:00011750       ?Print@LogFileConsoleHandler@IO@@UAEXABVString@Util@@@Z 00412750 f   foundation_win32.release:logfileconsolehandler.obj
 0001:000117a0       ?Error@LogFileConsoleHandler@IO@@UAEXABVString@Util@@@Z 004127a0 f   foundation_win32.release:logfileconsolehandler.obj
 0001:00011870       ?Warning@LogFileConsoleHandler@IO@@UAEXABVString@Util@@@Z 00412870 f   foundation_win32.release:logfileconsolehandler.obj
 0001:00011920       ?DebugOut@LogFileConsoleHandler@IO@@UAEXABVString@Util@@@Z 00412920 f   foundation_win32.release:logfileconsolehandler.obj
 0001:000119d0       ??0?$Ptr@VStream@IO@@@@QAE@XZ 004129d0 f i foundation_win32.release:logfileconsolehandler.obj
 0001:000119f0       ??4?$Ptr@VStream@IO@@@@QAEXPAVStream@IO@@@Z 004129f0 f i foundation_win32.release:logfileconsolehandler.obj
 0001:00011a50       ??4?$Ptr@VStream@IO@@@@QAEXABV0@@Z 00412a50 f i foundation_win32.release:logfileconsolehandler.obj
 0001:00011ab0       ??0?$Ptr@VTextWriter@IO@@@@QAE@XZ 00412ab0 f i foundation_win32.release:logfileconsolehandler.obj
 0001:00011ad0       ??1?$Ptr@VTextWriter@IO@@@@QAE@XZ 00412ad0 f i foundation_win32.release:logfileconsolehandler.obj
 0001:00011b00       ??4?$Ptr@VTextWriter@IO@@@@QAEXPAVTextWriter@IO@@@Z 00412b00 f i foundation_win32.release:logfileconsolehandler.obj
 0001:00011b60       ??C?$Ptr@VTextWriter@IO@@@@QBEPAVTextWriter@IO@@XZ 00412b60 f i foundation_win32.release:logfileconsolehandler.obj
 0001:00011ba0       ??0FourCC@Util@@QAE@XZ     00412ba0 f i foundation_win32.release:rtti.obj
 0001:00011bc0       ??8FourCC@Util@@QBE_NABV01@@Z 00412bc0 f i foundation_win32.release:rtti.obj
 0001:00011be0       ?IsValid@FourCC@Util@@QBE_NXZ 00412be0 f i foundation_win32.release:rtti.obj
 0001:00011c00       ?GetParent@Rtti@Core@@QBEPBV12@XZ 00412c00 f i foundation_win32.release:rtti.obj
 0001:00011c20       ?Construct@Rtti@Core@@AAEXPBDVFourCC@Util@@P6APAVRefCounted@2@XZPBV12@H@Z 00412c20 f   foundation_win32.release:rtti.obj
 0001:00011d10       ??0Rtti@Core@@QAE@PBDVFourCC@Util@@P6APAVRefCounted@1@XZPBV01@H@Z 00412d10 f   foundation_win32.release:rtti.obj
 0001:00011d80       ??0Rtti@Core@@QAE@PBDP6APAVRefCounted@1@XZPBV01@H@Z 00412d80 f   foundation_win32.release:rtti.obj
 0001:00011df0       ?Create@Rtti@Core@@QBEPAVRefCounted@2@XZ 00412df0 f   foundation_win32.release:rtti.obj
 0001:00011e50       ?IsDerivedFrom@Rtti@Core@@QBE_NABV12@@Z 00412e50 f   foundation_win32.release:rtti.obj
 0001:00011e90       ?IsDerivedFrom@Rtti@Core@@QBE_NABVString@Util@@@Z 00412e90 f   foundation_win32.release:rtti.obj
 0001:00011ee0       ?IsDerivedFrom@Rtti@Core@@QBE_NABVFourCC@Util@@@Z 00412ee0 f   foundation_win32.release:rtti.obj
 0001:00011f30       ?AllocInstanceMemory@Rtti@Core@@QAEPAXXZ 00412f30 f   foundation_win32.release:rtti.obj
 0001:00011f60       ?FreeInstanceMemory@Rtti@Core@@QAEXPAX@Z 00412f60 f   foundation_win32.release:rtti.obj
 0001:00011f80       ?HashCode@String@Util@@QBEHXZ 00412f80 f i foundation_win32.release:factory.obj
 0001:00012030       ??9FourCC@Util@@QBE_NABV01@@Z 00413030 f i foundation_win32.release:factory.obj
 0001:00012050       ??OFourCC@Util@@QBE_NABV01@@Z 00413050 f i foundation_win32.release:factory.obj
 0001:00012070       ??MFourCC@Util@@QBE_NABV01@@Z 00413070 f i foundation_win32.release:factory.obj
 0001:00012090       ?AsString@FourCC@Util@@QBE?AVString@2@XZ 00413090 f i foundation_win32.release:factory.obj
 0001:000120c0       ?ToString@FourCC@Util@@SA?AVString@2@ABV12@@Z 004130c0 f i foundation_win32.release:factory.obj
 0001:00012250       ?Instance@Factory@Core@@SAPAV12@XZ 00413250 f   foundation_win32.release:factory.obj
 0001:000122c0       ?Destroy@Factory@Core@@SAXXZ 004132c0 f   foundation_win32.release:factory.obj
 0001:00012320       ??_GFactory@Core@@AAEPAXI@Z 00413320 f i foundation_win32.release:factory.obj
 0001:00012350       ??0Factory@Core@@AAE@XZ    00413350 f   foundation_win32.release:factory.obj
 0001:00012380       ??1?$HashTable@VString@Util@@PBVRtti@Core@@@Util@@QAE@XZ 00413380 f i foundation_win32.release:factory.obj
 0001:000123a0       ??1?$Dictionary@VFourCC@Util@@PBVRtti@Core@@@Util@@QAE@XZ 004133a0 f i foundation_win32.release:factory.obj
 0001:000123c0       ??1Factory@Core@@AAE@XZ    004133c0 f   foundation_win32.release:factory.obj
 0001:00012400       ?Register@Factory@Core@@QAEXPBVRtti@2@ABVString@Util@@ABVFourCC@5@@Z 00413400 f   foundation_win32.release:factory.obj
 0001:000125f0       ?Register@Factory@Core@@QAEXPBVRtti@2@ABVString@Util@@@Z 004135f0 f   foundation_win32.release:factory.obj
 0001:000126c0       ?ClassExists@Factory@Core@@QBE_NABVString@Util@@@Z 004136c0 f   foundation_win32.release:factory.obj
 0001:00012710       ?ClassExists@Factory@Core@@QBE_NVFourCC@Util@@@Z 00413710 f   foundation_win32.release:factory.obj
 0001:00012760       ?GetClassRtti@Factory@Core@@QBEPBVRtti@2@ABVString@Util@@@Z 00413760 f   foundation_win32.release:factory.obj
 0001:000127d0       ?GetClassRtti@Factory@Core@@QBEPBVRtti@2@ABVFourCC@Util@@@Z 004137d0 f   foundation_win32.release:factory.obj
 0001:00012850       ?Create@Factory@Core@@QBEPAVRefCounted@2@ABVString@Util@@@Z 00413850 f   foundation_win32.release:factory.obj
 0001:00012960       ?Create@Factory@Core@@QBEPAVRefCounted@2@VFourCC@Util@@@Z 00413960 f   foundation_win32.release:factory.obj
 0001:00012ab0       ??1?$FixedArray@V?$Array@V?$KeyValuePair@VString@Util@@PBVRtti@Core@@@Util@@@Util@@@Util@@QAE@XZ 00413ab0 f i foundation_win32.release:factory.obj
 0001:00012ad0       ??0?$HashTable@VString@Util@@PBVRtti@Core@@@Util@@QAE@H@Z 00413ad0 f i foundation_win32.release:factory.obj
 0001:00012b00       ??A?$HashTable@VString@Util@@PBVRtti@Core@@@Util@@QBEAAPBVRtti@Core@@ABVString@1@@Z 00413b00 f i foundation_win32.release:factory.obj
 0001:00012c00       ?Clear@?$HashTable@VString@Util@@PBVRtti@Core@@@Util@@QAEXXZ 00413c00 f i foundation_win32.release:factory.obj
 0001:00012c60       ?Add@?$HashTable@VString@Util@@PBVRtti@Core@@@Util@@QAEXABVString@2@ABQBVRtti@Core@@@Z 00413c60 f i foundation_win32.release:factory.obj
 0001:00012ca0       ?Contains@?$HashTable@VString@Util@@PBVRtti@Core@@@Util@@QBE_NABVString@2@@Z 00413ca0 f i foundation_win32.release:factory.obj
 0001:00012d40       ??1?$Array@V?$KeyValuePair@VFourCC@Util@@PBVRtti@Core@@@Util@@@Util@@QAE@XZ 00413d40 f i foundation_win32.release:factory.obj
 0001:00012d60       ??0?$Dictionary@VFourCC@Util@@PBVRtti@Core@@@Util@@QAE@XZ 00413d60 f i foundation_win32.release:factory.obj
 0001:00012d80       ??A?$Dictionary@VFourCC@Util@@PBVRtti@Core@@@Util@@QBEABQBVRtti@Core@@ABVFourCC@1@@Z 00413d80 f i foundation_win32.release:factory.obj
 0001:00012dd0       ?Clear@?$Dictionary@VFourCC@Util@@PBVRtti@Core@@@Util@@QAEXXZ 00413dd0 f i foundation_win32.release:factory.obj
 0001:00012e10       ?Add@?$Dictionary@VFourCC@Util@@PBVRtti@Core@@@Util@@QAEXABVFourCC@2@ABQBVRtti@Core@@@Z 00413e10 f i foundation_win32.release:factory.obj
 0001:00012e60       ?Contains@?$Dictionary@VFourCC@Util@@PBVRtti@Core@@@Util@@QBE_NABVFourCC@2@@Z 00413e60 f i foundation_win32.release:factory.obj
 0001:00012ec0       ??1?$KeyValuePair@VString@Util@@PBVRtti@Core@@@Util@@QAE@XZ 00413ec0 f i foundation_win32.release:factory.obj
 0001:00012f10       ??0?$FixedArray@V?$Array@V?$KeyValuePair@VString@Util@@PBVRtti@Core@@@Util@@@Util@@@Util@@QAE@H@Z 00413f10 f i foundation_win32.release:factory.obj
 0001:00012f40       ??A?$FixedArray@V?$Array@V?$KeyValuePair@VString@Util@@PBVRtti@Core@@@Util@@@Util@@@Util@@QBEAAV?$Array@V?$KeyValuePair@VString@Util@@PBVRtti@Core@@@Util@@@1@H@Z 00413f40 f i foundation_win32.release:factory.obj
 0001:00012f90       ?Size@?$FixedArray@V?$Array@V?$KeyValuePair@VString@Util@@PBVRtti@Core@@@Util@@@Util@@@Util@@QBEHXZ 00413f90 f i foundation_win32.release:factory.obj
 0001:00012fa0       ?Delete@?$FixedArray@V?$Array@V?$KeyValuePair@VString@Util@@PBVRtti@Core@@@Util@@@Util@@@Util@@AAEXXZ 00413fa0 f i foundation_win32.release:factory.obj
 0001:00013000       ?Add@?$HashTable@VString@Util@@PBVRtti@Core@@@Util@@QAEXABV?$KeyValuePair@VString@Util@@PBVRtti@Core@@@2@@Z 00414000 f i foundation_win32.release:factory.obj
 0001:00013090       ??A?$Array@V?$KeyValuePair@VString@Util@@PBVRtti@Core@@@Util@@@Util@@QBEAAV?$KeyValuePair@VString@Util@@PBVRtti@Core@@@1@H@Z 00414090 f i foundation_win32.release:factory.obj
 0001:000130e0       ?Size@?$Array@V?$KeyValuePair@VString@Util@@PBVRtti@Core@@@Util@@@Util@@QBEHXZ 004140e0 f i foundation_win32.release:factory.obj
 0001:00013100       ?Clear@?$Array@V?$KeyValuePair@VString@Util@@PBVRtti@Core@@@Util@@@Util@@QAEXXZ 00414100 f i foundation_win32.release:factory.obj
 0001:00013150       ?BinarySearchIndex@?$Array@V?$KeyValuePair@VString@Util@@PBVRtti@Core@@@Util@@@Util@@QBEHABV?$KeyValuePair@VString@Util@@PBVRtti@Core@@@2@@Z 00414150 f i foundation_win32.release:factory.obj
 0001:00013280       ??0?$KeyValuePair@VString@Util@@PBVRtti@Core@@@Util@@QAE@ABVString@1@@Z 00414280 f i foundation_win32.release:factory.obj
 0001:000132e0       ??0?$KeyValuePair@VString@Util@@PBVRtti@Core@@@Util@@QAE@ABVString@1@ABQBVRtti@Core@@@Z 004142e0 f i foundation_win32.release:factory.obj
 0001:00013350       ?Value@?$KeyValuePair@VString@Util@@PBVRtti@Core@@@Util@@QAEAAPBVRtti@Core@@XZ 00414350 f i foundation_win32.release:factory.obj
 0001:00013370       ??0?$Array@V?$KeyValuePair@VFourCC@Util@@PBVRtti@Core@@@Util@@@Util@@QAE@XZ 00414370 f i foundation_win32.release:factory.obj
 0001:000133b0       ??A?$Array@V?$KeyValuePair@VFourCC@Util@@PBVRtti@Core@@@Util@@@Util@@QBEAAV?$KeyValuePair@VFourCC@Util@@PBVRtti@Core@@@1@H@Z 004143b0 f i foundation_win32.release:factory.obj
 0001:00013400       ?Append@?$Array@V?$KeyValuePair@VFourCC@Util@@PBVRtti@Core@@@Util@@@Util@@QAEXABV?$KeyValuePair@VFourCC@Util@@PBVRtti@Core@@@2@@Z 00414400 f i foundation_win32.release:factory.obj
 0001:00013480       ?InsertSorted@?$Array@V?$KeyValuePair@VFourCC@Util@@PBVRtti@Core@@@Util@@@Util@@QAEHABV?$KeyValuePair@VFourCC@Util@@PBVRtti@Core@@@2@@Z 00414480 f i foundation_win32.release:factory.obj
 0001:000136f0       ?Clear@?$Array@V?$KeyValuePair@VFourCC@Util@@PBVRtti@Core@@@Util@@@Util@@QAEXXZ 004146f0 f i foundation_win32.release:factory.obj
 0001:00013740       ?BinarySearchIndex@?$Array@V?$KeyValuePair@VFourCC@Util@@PBVRtti@Core@@@Util@@@Util@@QBEHABV?$KeyValuePair@VFourCC@Util@@PBVRtti@Core@@@2@@Z 00414740 f i foundation_win32.release:factory.obj
 0001:00013870       ?Delete@?$Array@V?$KeyValuePair@VFourCC@Util@@PBVRtti@Core@@@Util@@@Util@@AAEXXZ 00414870 f i foundation_win32.release:factory.obj
 0001:000138d0       ?FindIndex@?$Dictionary@VFourCC@Util@@PBVRtti@Core@@@Util@@QBEHABVFourCC@2@@Z 004148d0 f i foundation_win32.release:factory.obj
 0001:00013920       ??0?$KeyValuePair@VFourCC@Util@@PBVRtti@Core@@@Util@@QAE@ABVFourCC@1@@Z 00414920 f i foundation_win32.release:factory.obj
 0001:00013940       ??0?$KeyValuePair@VFourCC@Util@@PBVRtti@Core@@@Util@@QAE@ABVFourCC@1@ABQBVRtti@Core@@@Z 00414940 f i foundation_win32.release:factory.obj
 0001:00013970       ?Value@?$KeyValuePair@VFourCC@Util@@PBVRtti@Core@@@Util@@QAEAAPBVRtti@Core@@XZ 00414970 f i foundation_win32.release:factory.obj
 0001:00013990       ??_E?$Array@V?$KeyValuePair@VString@Util@@PBVRtti@Core@@@Util@@@Util@@QAEPAXI@Z 00414990 f i foundation_win32.release:factory.obj
 0001:00013a30       ?Alloc@?$FixedArray@V?$Array@V?$KeyValuePair@VString@Util@@PBVRtti@Core@@@Util@@@Util@@@Util@@AAEXH@Z 00414a30 f i foundation_win32.release:factory.obj
 0001:00013b00       ??1?$Array@V?$KeyValuePair@VString@Util@@PBVRtti@Core@@@Util@@@Util@@QAE@XZ 00414b00 f i foundation_win32.release:factory.obj
 0001:00013b20       ?InsertSorted@?$Array@V?$KeyValuePair@VString@Util@@PBVRtti@Core@@@Util@@@Util@@QAEHABV?$KeyValuePair@VString@Util@@PBVRtti@Core@@@2@@Z 00414b20 f i foundation_win32.release:factory.obj
 0001:00013d90       ?Destroy@?$Array@V?$KeyValuePair@VString@Util@@PBVRtti@Core@@@Util@@@Util@@AAEXPAV?$KeyValuePair@VString@Util@@PBVRtti@Core@@@2@@Z 00414d90 f i foundation_win32.release:factory.obj
 0001:00013db0       ??9?$KeyValuePair@VString@Util@@PBVRtti@Core@@@Util@@QBE_NABV01@@Z 00414db0 f i foundation_win32.release:factory.obj
 0001:00013dd0       ??O?$KeyValuePair@VString@Util@@PBVRtti@Core@@@Util@@QBE_NABV01@@Z 00414dd0 f i foundation_win32.release:factory.obj
 0001:00013df0       ??M?$KeyValuePair@VString@Util@@PBVRtti@Core@@@Util@@QBE_NABV01@@Z 00414df0 f i foundation_win32.release:factory.obj
 0001:00013e10       ?Key@?$KeyValuePair@VString@Util@@PBVRtti@Core@@@Util@@QBEABVString@2@XZ 00414e10 f i foundation_win32.release:factory.obj
 0001:00013e20       ?Size@?$Array@V?$KeyValuePair@VFourCC@Util@@PBVRtti@Core@@@Util@@@Util@@QBEHXZ 00414e20 f i foundation_win32.release:factory.obj
 0001:00013e40       ?Insert@?$Array@V?$KeyValuePair@VFourCC@Util@@PBVRtti@Core@@@Util@@@Util@@QAEXHABV?$KeyValuePair@VFourCC@Util@@PBVRtti@Core@@@2@@Z 00414e40 f i foundation_win32.release:factory.obj
 0001:00013eb0       ?InsertAtEndOfIdenticalRange@?$Array@V?$KeyValuePair@VFourCC@Util@@PBVRtti@Core@@@Util@@@Util@@QAEHHABV?$KeyValuePair@VFourCC@Util@@PBVRtti@Core@@@2@@Z 00414eb0 f i foundation_win32.release:factory.obj
 0001:00013f30       ?Destroy@?$Array@V?$KeyValuePair@VFourCC@Util@@PBVRtti@Core@@@Util@@@Util@@AAEXPAV?$KeyValuePair@VFourCC@Util@@PBVRtti@Core@@@2@@Z 00414f30 f i foundation_win32.release:factory.obj
 0001:00013f40       ?Grow@?$Array@V?$KeyValuePair@VFourCC@Util@@PBVRtti@Core@@@Util@@@Util@@AAEXXZ 00414f40 f i foundation_win32.release:factory.obj
 0001:00013fc0       ??4?$KeyValuePair@VFourCC@Util@@PBVRtti@Core@@@Util@@QAEXABV01@@Z 00414fc0 f i foundation_win32.release:factory.obj
 0001:00013ff0       ??9?$KeyValuePair@VFourCC@Util@@PBVRtti@Core@@@Util@@QBE_NABV01@@Z 00414ff0 f i foundation_win32.release:factory.obj
 0001:00014010       ??O?$KeyValuePair@VFourCC@Util@@PBVRtti@Core@@@Util@@QBE_NABV01@@Z 00415010 f i foundation_win32.release:factory.obj
 0001:00014030       ??M?$KeyValuePair@VFourCC@Util@@PBVRtti@Core@@@Util@@QBE_NABV01@@Z 00415030 f i foundation_win32.release:factory.obj
 0001:00014050       ??_G?$KeyValuePair@VString@Util@@PBVRtti@Core@@@Util@@QAEPAXI@Z 00415050 f i foundation_win32.release:factory.obj
 0001:000140c0       ??0?$Array@V?$KeyValuePair@VString@Util@@PBVRtti@Core@@@Util@@@Util@@QAE@XZ 004150c0 f i foundation_win32.release:factory.obj
 0001:00014100       ?Append@?$Array@V?$KeyValuePair@VString@Util@@PBVRtti@Core@@@Util@@@Util@@QAEXABV?$KeyValuePair@VString@Util@@PBVRtti@Core@@@2@@Z 00415100 f i foundation_win32.release:factory.obj
 0001:00014180       ?Insert@?$Array@V?$KeyValuePair@VString@Util@@PBVRtti@Core@@@Util@@@Util@@QAEXHABV?$KeyValuePair@VString@Util@@PBVRtti@Core@@@2@@Z 00415180 f i foundation_win32.release:factory.obj
 0001:000141f0       ?InsertAtEndOfIdenticalRange@?$Array@V?$KeyValuePair@VString@Util@@PBVRtti@Core@@@Util@@@Util@@QAEHHABV?$KeyValuePair@VString@Util@@PBVRtti@Core@@@2@@Z 004151f0 f i foundation_win32.release:factory.obj
 0001:00014270       ?Delete@?$Array@V?$KeyValuePair@VString@Util@@PBVRtti@Core@@@Util@@@Util@@AAEXXZ 00415270 f i foundation_win32.release:factory.obj
 0001:000142e0       ?GrowTo@?$Array@V?$KeyValuePair@VFourCC@Util@@PBVRtti@Core@@@Util@@@Util@@AAEXH@Z 004152e0 f i foundation_win32.release:factory.obj
 0001:000143d0       ?Move@?$Array@V?$KeyValuePair@VFourCC@Util@@PBVRtti@Core@@@Util@@@Util@@AAEXHH@Z 004153d0 f i foundation_win32.release:factory.obj
 0001:00014560       ??_E?$KeyValuePair@VString@Util@@PBVRtti@Core@@@Util@@QAEPAXI@Z 00415560 f i foundation_win32.release:factory.obj
 0001:00014670       ?Grow@?$Array@V?$KeyValuePair@VString@Util@@PBVRtti@Core@@@Util@@@Util@@AAEXXZ 00415670 f i foundation_win32.release:factory.obj
 0001:000146f0       ?Move@?$Array@V?$KeyValuePair@VString@Util@@PBVRtti@Core@@@Util@@@Util@@AAEXHH@Z 004156f0 f i foundation_win32.release:factory.obj
 0001:00014880       ??4?$KeyValuePair@VString@Util@@PBVRtti@Core@@@Util@@QAEXABV01@@Z 00415880 f i foundation_win32.release:factory.obj
 0001:000148d0       ??0?$KeyValuePair@VFourCC@Util@@PBVRtti@Core@@@Util@@QAE@XZ 004158d0 f i foundation_win32.release:factory.obj
 0001:000148f0       ?GrowTo@?$Array@V?$KeyValuePair@VString@Util@@PBVRtti@Core@@@Util@@@Util@@AAEXH@Z 004158f0 f i foundation_win32.release:factory.obj
 0001:00014a10       ??0?$KeyValuePair@VString@Util@@PBVRtti@Core@@@Util@@QAE@XZ 00415a10 f i foundation_win32.release:factory.obj
 0001:00014a50       ??2JobSystemBase@Base@@SAPAXI@Z 00415a50 f i foundation_win32.release:jobsystembase.obj
 0001:00014a60       ??3JobSystemBase@Base@@SAXPAX@Z 00415a60 f i foundation_win32.release:jobsystembase.obj
 0001:00014a80       ?GetRtti@JobSystemBase@Base@@UBEPAVRtti@Core@@XZ 00415a80 f   foundation_win32.release:jobsystembase.obj
 0001:00014a90       ?FactoryCreator@JobSystemBase@Base@@SAPAVRefCounted@Core@@XZ 00415a90 f   foundation_win32.release:jobsystembase.obj
 0001:00014aa0       ?Create@JobSystemBase@Base@@SAPAV12@XZ 00415aa0 f   foundation_win32.release:jobsystembase.obj
 0001:00014ae0       ?RegisterWithFactory@JobSystemBase@Base@@SA_NXZ 00415ae0 f   foundation_win32.release:jobsystembase.obj
 0001:00014be0       ??0JobSystemBase@Base@@QAE@XZ 00415be0 f   foundation_win32.release:jobsystembase.obj
 0001:00014c20       ??_EJobSystemBase@Base@@UAEPAXI@Z 00415c20 f i  CIL library: CIL module
 0001:00014c20       ??_GJobSystemBase@Base@@UAEPAXI@Z 00415c20 f i foundation_win32.release:jobsystembase.obj
 0001:00014c50       ??1JobSystemBase@Base@@UAE@XZ 00415c50 f   foundation_win32.release:jobsystembase.obj
 0001:00014ca0       ?Setup@JobSystemBase@Base@@QAEXXZ 00415ca0 f   foundation_win32.release:jobsystembase.obj
 0001:00014ce0       ?Discard@JobSystemBase@Base@@QAEXXZ 00415ce0 f   foundation_win32.release:jobsystembase.obj
 0001:00014d20       ?SetPriority@Win360Thread@Win360@@QAEXW4Priority@12@@Z 00415d20 f i foundation_win32.release:tpjobthreadpool.obj
 0001:00014d40       ?SetName@Win360Thread@Win360@@QAEXABVString@Util@@@Z 00415d40 f i foundation_win32.release:tpjobthreadpool.obj
 0001:00014dc0       ?SetCoreId@Win360Thread@Win360@@QAEXK@Z 00415dc0 f i foundation_win32.release:tpjobthreadpool.obj
 0001:00014de0       ??0TPJobCommand@Jobs@@QAE@XZ 00415de0 f i foundation_win32.release:tpjobthreadpool.obj
 0001:00014e10       ?SetupSync@TPJobCommand@Jobs@@QAEXPBVEvent@Threading@@@Z 00415e10 f i foundation_win32.release:tpjobthreadpool.obj
 0001:00014e50       ?SetupRun@TPJobCommand@Jobs@@QAEXPAVTPJobSlice@2@GG@Z 00415e50 f i foundation_win32.release:tpjobthreadpool.obj
 0001:00014e90       ?IsValid@TPJobThreadPool@Jobs@@QBE_NXZ 00415e90 f i foundation_win32.release:tpjobthreadpool.obj
 0001:00014eb0       ??0TPJobThreadPool@Jobs@@QAE@XZ 00415eb0 f   foundation_win32.release:tpjobthreadpool.obj
 0001:00014f40       ??1TPJobThreadPool@Jobs@@QAE@XZ 00415f40 f   foundation_win32.release:tpjobthreadpool.obj
 0001:00015000       ?Setup@TPJobThreadPool@Jobs@@QAEXXZ 00416000 f   foundation_win32.release:tpjobthreadpool.obj
 0001:00015120       ?Discard@TPJobThreadPool@Jobs@@QAEXXZ 00416120 f   foundation_win32.release:tpjobthreadpool.obj
 0001:000151a0       ?PushJobSlices@TPJobThreadPool@Jobs@@QAEXPAVTPJobSlice@2@HH@Z 004161a0 f   foundation_win32.release:tpjobthreadpool.obj
 0001:00015330       ?PushSync@TPJobThreadPool@Jobs@@QAEXPBVEvent@Threading@@@Z 00416330 f   foundation_win32.release:tpjobthreadpool.obj
 0001:000153a0       ??0?$Ptr@VTPWorkerThread@Jobs@@@@QAE@XZ 004163a0 f i foundation_win32.release:tpjobthreadpool.obj
 0001:000153c0       ??1?$Ptr@VTPWorkerThread@Jobs@@@@QAE@XZ 004163c0 f i foundation_win32.release:tpjobthreadpool.obj
 0001:000153f0       ??4?$Ptr@VTPWorkerThread@Jobs@@@@QAEXPAVTPWorkerThread@Jobs@@@Z 004163f0 f i foundation_win32.release:tpjobthreadpool.obj
 0001:00015450       ??C?$Ptr@VTPWorkerThread@Jobs@@@@QBEPAVTPWorkerThread@Jobs@@XZ 00416450 f i foundation_win32.release:tpjobthreadpool.obj
 0001:00015490       ??0?$Array@PAVTPJobSlice@Jobs@@@Util@@QAE@XZ 00416490 f i foundation_win32.release:tpjobthreadpool.obj
 0001:000154d0       ??1?$Array@PAVTPJobSlice@Jobs@@@Util@@QAE@XZ 004164d0 f i foundation_win32.release:tpjobthreadpool.obj
 0001:000154f0       ?Delete@?$Array@PAVTPJobSlice@Jobs@@@Util@@AAEXXZ 004164f0 f i foundation_win32.release:tpjobthreadpool.obj
 0001:00015550       ??2RefCounted@Core@@SAPAXI@Z 00416550 f i foundation_win32.release:refcounted.obj
 0001:00015560       ?GetRtti@RefCounted@Core@@UBEPAVRtti@2@XZ 00416560 f   foundation_win32.release:refcounted.obj
 0001:00015570       ?FactoryCreator@RefCounted@Core@@SAPAV12@XZ 00416570 f   foundation_win32.release:refcounted.obj
 0001:00015580       ?Create@RefCounted@Core@@SAPAV12@XZ 00416580 f   foundation_win32.release:refcounted.obj
 0001:000155d0       ?RegisterWithFactory@RefCounted@Core@@SA_NXZ 004165d0 f   foundation_win32.release:refcounted.obj
 0001:000156d0       ??1RefCounted@Core@@MAE@XZ 004166d0 f   foundation_win32.release:refcounted.obj
 0001:00015710       ?DumpRefCountingLeaks@RefCounted@Core@@SAXXZ 00416710 f   foundation_win32.release:refcounted.obj
 0001:00015720       ??0JobUniformDesc@Jobs@@QAE@XZ 00416720 f i foundation_win32.release:jobbase.obj
 0001:00015780       ??0TPJobFuncDesc@Jobs@@QAE@XZ 00416780 f i foundation_win32.release:jobbase.obj
 0001:000157a0       ??2JobBase@Base@@SAPAXI@Z  004167a0 f i foundation_win32.release:jobbase.obj
 0001:000157b0       ??3JobBase@Base@@SAXPAX@Z  004167b0 f i foundation_win32.release:jobbase.obj
 0001:000157d0       ?GetRtti@JobBase@Base@@UBEPAVRtti@Core@@XZ 004167d0 f   foundation_win32.release:jobbase.obj
 0001:000157e0       ?FactoryCreator@JobBase@Base@@SAPAVRefCounted@Core@@XZ 004167e0 f   foundation_win32.release:jobbase.obj
 0001:000157f0       ?Create@JobBase@Base@@SAPAV12@XZ 004167f0 f   foundation_win32.release:jobbase.obj
 0001:00015830       ?RegisterWithFactory@JobBase@Base@@SA_NXZ 00416830 f   foundation_win32.release:jobbase.obj
 0001:00015930       ??0JobBase@Base@@QAE@XZ    00416930 f   foundation_win32.release:jobbase.obj
 0001:000159d0       ??_EJobBase@Base@@UAEPAXI@Z 004169d0 f i  CIL library: CIL module
 0001:000159d0       ??_GJobBase@Base@@UAEPAXI@Z 004169d0 f i foundation_win32.release:jobbase.obj
 0001:00015a00       ??1JobBase@Base@@UAE@XZ    00416a00 f   foundation_win32.release:jobbase.obj
 0001:00015a70       ?AllocPrivateBuffer@JobBase@Base@@QAEPAXW4HeapType@Memory@@H@Z 00416a70 f   foundation_win32.release:jobbase.obj
 0001:00015ae0       ?Setup@JobBase@Base@@QAEXABVJobUniformDesc@Jobs@@ABVJobDataDesc@4@1ABVTPJobFuncDesc@4@@Z 00416ae0 f   foundation_win32.release:jobbase.obj
 0001:00015b80       ?PatchInputDesc@JobBase@Base@@QAEXABVJobDataDesc@Jobs@@@Z 00416b80 f   foundation_win32.release:jobbase.obj
 0001:00015bb0       ?PatchOutputDesc@JobBase@Base@@QAEXABVJobDataDesc@Jobs@@@Z 00416bb0 f   foundation_win32.release:jobbase.obj
 0001:00015be0       ?PatchUniformDesc@JobBase@Base@@QAEXABVJobUniformDesc@Jobs@@@Z 00416be0 f   foundation_win32.release:jobbase.obj
 0001:00015c20       ?Discard@JobBase@Base@@QAEXXZ 00416c20 f   foundation_win32.release:jobbase.obj
 0001:00015c60       ??0TPJobSlice@Jobs@@QAE@XZ 00416c60 f   foundation_win32.release:tpjobslice.obj
 0001:00015c90       ??1TPJobSlice@Jobs@@QAE@XZ 00416c90 f   foundation_win32.release:tpjobslice.obj
 0001:00015cb0       ?Setup@TPJobSlice@Jobs@@QAEXPAVTPJob@2@H@Z 00416cb0 f   foundation_win32.release:tpjobslice.obj
 0001:00015d10       ?BinaryCompare@Blob@Util@@ABEHABV12@@Z 00416d10 f   foundation_win32.release:blob.obj
 0001:00015dc0       ?Setup@Win360Heap@Win360@@SAXXZ 00416dc0 f   foundation_win32.release:win360heap.obj
 0001:00015dd0       ??0Win360Heap@Win360@@QAE@PBDII@Z 00416dd0 f   foundation_win32.release:win360heap.obj
 0001:00015e60       ??1Win360Heap@Win360@@QAE@XZ 00416e60 f   foundation_win32.release:win360heap.obj
 0001:00015ea0       ??0Win32SystemInfo@Win32@@QAE@XZ 00416ea0 f   foundation_win32.release:win32systeminfo.obj
 0001:00015f20       ?Signal@Win360Event@Win360@@QAEXXZ 00416f20 f i foundation_win32.release:win360thread.obj
 0001:00015f40       ??2Win360Thread@Win360@@SAPAXI@Z 00416f40 f i foundation_win32.release:win360thread.obj
 0001:00015f50       ??3Win360Thread@Win360@@SAXPAX@Z 00416f50 f i foundation_win32.release:win360thread.obj
 0001:00015f70       ?GetName@Win360Thread@Win360@@QBEABVString@Util@@XZ 00416f70 f i foundation_win32.release:win360thread.obj
 0001:00015f90       ?GetRtti@Win360Thread@Win360@@UBEPAVRtti@Core@@XZ 00416f90 f   foundation_win32.release:win360thread.obj
 0001:00015fa0       ?FactoryCreator@Win360Thread@Win360@@SAPAVRefCounted@Core@@XZ 00416fa0 f   foundation_win32.release:win360thread.obj
 0001:00015fb0       ?Create@Win360Thread@Win360@@SAPAV12@XZ 00416fb0 f   foundation_win32.release:win360thread.obj
 0001:00015ff0       ?RegisterWithFactory@Win360Thread@Win360@@SA_NXZ 00416ff0 f   foundation_win32.release:win360thread.obj
 0001:000160f0       ??0Win360Thread@Win360@@QAE@XZ 004170f0 f   foundation_win32.release:win360thread.obj
 0001:000161f0       ??_EWin360Thread@Win360@@UAEPAXI@Z 004171f0 f i  CIL library: CIL module
 0001:000161f0       ??_GWin360Thread@Win360@@UAEPAXI@Z 004171f0 f i foundation_win32.release:win360thread.obj
 0001:00016220       ??1Win360Thread@Win360@@UAE@XZ 00417220 f   foundation_win32.release:win360thread.obj
 0001:000162e0       ?Start@Win360Thread@Win360@@QAEXXZ 004172e0 f   foundation_win32.release:win360thread.obj
 0001:000163e0       ?EmitWakeupSignal@Win360Thread@Win360@@MAEXXZ 004173e0 f   foundation_win32.release:win360thread.obj
 0001:000163f0       ?Stop@Win360Thread@Win360@@QAEXXZ 004173f0 f   foundation_win32.release:win360thread.obj
 0001:00016490       ?IsRunning@Win360Thread@Win360@@QBE_NXZ 00417490 f   foundation_win32.release:win360thread.obj
 0001:000164e0       ?DoWork@Win360Thread@Win360@@MAEXXZ 004174e0 f   foundation_win32.release:win360thread.obj
 0001:000164f0       ?ThreadProc@Win360Thread@Win360@@CGKPAX@Z 004174f0 f   foundation_win32.release:win360thread.obj
 0001:00016590       ?SetMyThreadName@Win360Thread@Win360@@SAXPBD@Z 00417590 f   foundation_win32.release:win360thread.obj
 0001:00016630       ?GetMyThreadName@Win360Thread@Win360@@SAPBDXZ 00417630 f   foundation_win32.release:win360thread.obj
 0001:00016640       ?GetMyThreadId@Win360Thread@Win360@@SAKXZ 00417640 f   foundation_win32.release:win360thread.obj
 0001:00016650       ?YieldThread@Win360Thread@Win360@@SAXXZ 00417650 f   foundation_win32.release:win360thread.obj
 0001:00016660       ??2Win360Socket@Win360@@SAPAXI@Z 00417660 f i foundation_win32.release:win360socket.obj
 0001:00016670       ??3Win360Socket@Win360@@SAXPAX@Z 00417670 f i foundation_win32.release:win360socket.obj
 0001:00016690       ?IsOpen@Win360Socket@Win360@@QBE_NXZ 00417690 f i foundation_win32.release:win360socket.obj
 0001:000166b0       ?IsBound@Win360Socket@Win360@@QBE_NXZ 004176b0 f i foundation_win32.release:win360socket.obj
 0001:000166d0       ?SetAddress@Win360Socket@Win360@@QAEXABVWin360IpAddress@2@@Z 004176d0 f i foundation_win32.release:win360socket.obj
 0001:000166f0       ??4Win360IpAddress@Win360@@QAEAAV01@ABV01@@Z 004176f0 f i foundation_win32.release:win360socket.obj
 0001:000167a0       ?GetBlocking@Win360Socket@Win360@@QBE_NXZ 004177a0 f i foundation_win32.release:win360socket.obj
 0001:000167c0       ?GetRtti@Win360Socket@Win360@@UBEPAVRtti@Core@@XZ 004177c0 f   foundation_win32.release:win360socket.obj
 0001:000167d0       ?FactoryCreator@Win360Socket@Win360@@SAPAVRefCounted@Core@@XZ 004177d0 f   foundation_win32.release:win360socket.obj
 0001:000167e0       ?Create@Win360Socket@Win360@@SAPAV12@XZ 004177e0 f   foundation_win32.release:win360socket.obj
 0001:00016820       ?RegisterWithFactory@Win360Socket@Win360@@SA_NXZ 00417820 f   foundation_win32.release:win360socket.obj
 0001:00016920       ??0Win360Socket@Win360@@QAE@XZ 00417920 f   foundation_win32.release:win360socket.obj
 0001:000169a0       ??_GWin360Socket@Win360@@UAEPAXI@Z 004179a0 f i foundation_win32.release:win360socket.obj
 0001:000169a0       ??_EWin360Socket@Win360@@UAEPAXI@Z 004179a0 f i  CIL library: CIL module
 0001:000169d0       ??1Win360IpAddress@Win360@@QAE@XZ 004179d0 f i foundation_win32.release:win360socket.obj
 0001:00016a60       ??1Win360Socket@Win360@@UAE@XZ 00417a60 f   foundation_win32.release:win360socket.obj
 0001:00016ab0       ?InitNetwork@Win360Socket@Win360@@SAXXZ 00417ab0 f   foundation_win32.release:win360socket.obj
 0001:00016bb0       ?Open@Win360Socket@Win360@@QAE_NW4Protocol@12@@Z 00417bb0 f   foundation_win32.release:win360socket.obj
 0001:00016c80       ?OpenWithExistingSocket@Win360Socket@Win360@@AAEXI@Z 00417c80 f   foundation_win32.release:win360socket.obj
 0001:00016ce0       ?Close@Win360Socket@Win360@@QAEXXZ 00417ce0 f   foundation_win32.release:win360socket.obj
 0001:00016e60       ?SetBoolOption@Win360Socket@Win360@@AAEXH_N@Z 00417e60 f   foundation_win32.release:win360socket.obj
 0001:00016f60       ?GetBoolOption@Win360Socket@Win360@@AAE_NH@Z 00417f60 f   foundation_win32.release:win360socket.obj
 0001:00017090       ?SetIntOption@Win360Socket@Win360@@AAEXHH@Z 00418090 f   foundation_win32.release:win360socket.obj
 0001:00017170       ?GetIntOption@Win360Socket@Win360@@AAEHH@Z 00418170 f   foundation_win32.release:win360socket.obj
 0001:00017280       ?SetBlocking@Win360Socket@Win360@@QAEX_N@Z 00418280 f   foundation_win32.release:win360socket.obj
 0001:00017370       ?Bind@Win360Socket@Win360@@QAE_NXZ 00418370 f   foundation_win32.release:win360socket.obj
 0001:00017480       ?Listen@Win360Socket@Win360@@QAE_NXZ 00418480 f   foundation_win32.release:win360socket.obj
 0001:00017580       ?Accept@Win360Socket@Win360@@QAE_NAAV?$Ptr@VSocket@Net@@@@@Z 00418580 f   foundation_win32.release:win360socket.obj
 0001:00017750       ?Connect@Win360Socket@Win360@@QAE?AW4Result@12@XZ 00418750 f   foundation_win32.release:win360socket.obj
 0001:000178c0       ?IsConnected@Win360Socket@Win360@@QAE_NXZ 004188c0 f   foundation_win32.release:win360socket.obj
 0001:00017a20       ?Send@Win360Socket@Win360@@QAE?AW4Result@12@PBXHAAH@Z 00418a20 f   foundation_win32.release:win360socket.obj
 0001:00017b50       ?HasRecvData@Win360Socket@Win360@@QAE_NXZ 00418b50 f   foundation_win32.release:win360socket.obj
 0001:00017cb0       ?Recv@Win360Socket@Win360@@QAE?AW4Result@12@PAXHAAH@Z 00418cb0 f   foundation_win32.release:win360socket.obj
 0001:00017e20       ?SendTo@Win360Socket@Win360@@QAE?AW4Result@12@PBXHIGAAH@Z 00418e20 f   foundation_win32.release:win360socket.obj
 0001:00017e40       ?RecvFrom@Win360Socket@Win360@@QAE?AW4Result@12@PAXHIGAAH@Z 00418e40 f   foundation_win32.release:win360socket.obj
 0001:00017e60       ?ClearError@Win360Socket@Win360@@AAEXXZ 00418e60 f   foundation_win32.release:win360socket.obj
 0001:00017e80       ?SetToLastWSAError@Win360Socket@Win360@@AAEXXZ 00418e80 f   foundation_win32.release:win360socket.obj
 0001:00017ea0       ?SetWSAError@Win360Socket@Win360@@AAEXH@Z 00418ea0 f   foundation_win32.release:win360socket.obj
 0001:00017ec0       ?WSAErrorToErrorCode@Win360Socket@Win360@@CA?AW4ErrorCode@12@H@Z 00418ec0 f   foundation_win32.release:win360socket.obj
 0001:00018280       ?ErrorAsString@Win360Socket@Win360@@CA?AVString@Util@@W4ErrorCode@12@@Z 00419280 f   foundation_win32.release:win360socket.obj
 0001:00018ce0       ?WSAErrorToString@Win360Socket@Win360@@CA?AVString@Util@@H@Z 00419ce0 f   foundation_win32.release:win360socket.obj
 0001:00018d10       ?GetErrorString@Win360Socket@Win360@@QBE?AVString@Util@@XZ 00419d10 f   foundation_win32.release:win360socket.obj
 0001:00018d40       ?IsNetworkInitialized@Win360Socket@Win360@@SA_NXZ 00419d40 f   foundation_win32.release:win360socket.obj
 0001:00018d50       ??4?$Ptr@VSocket@Net@@@@QAEXPAVSocket@Net@@@Z 00419d50 f i foundation_win32.release:win360socket.obj
 0001:00018db0       ??C?$Ptr@VSocket@Net@@@@QBEPAVSocket@Net@@XZ 00419db0 f i foundation_win32.release:win360socket.obj
 0001:00018df0       ?Clear@Memory@@YAXPAXI@Z   00419df0 f i foundation_win32.release:win32minidump.obj
 0001:00018e10       ?ExtractFileName@String@Util@@QBE?AV12@XZ 00419e10 f i foundation_win32.release:win32minidump.obj
 0001:00018eb0       ?ExtractToLastSlash@String@Util@@QBE?AV12@XZ 00419eb0 f i foundation_win32.release:win32minidump.obj
 0001:00018f40       ?Setup@Win32MiniDump@Win32@@SAXXZ 00419f40 f   foundation_win32.release:win32minidump.obj
 0001:00018f50       ?WriteMiniDump@Win32MiniDump@Win32@@SA_NXZ 00419f50 f   foundation_win32.release:win32minidump.obj
 0001:00018f60       ?WriteMiniDumpInternal@Win32MiniDump@Win32@@CA_NPAU_EXCEPTION_POINTERS@@@Z 00419f60 f   foundation_win32.release:win32minidump.obj
 0001:00019080       ?BuildMiniDumpFilename@Win32MiniDump@Win32@@CA?AVString@Util@@XZ 0041a080 f   foundation_win32.release:win32minidump.obj
 0001:00019320       ?ExceptionCallback@Win32MiniDump@Win32@@CGJPAU_EXCEPTION_POINTERS@@@Z 0041a320 f   foundation_win32.release:win32minidump.obj
 0001:00019340       ?GetNumChunks@StringBuffer@Util@@QBEHXZ 0041a340 f i foundation_win32.release:globalstringatomtable.obj
 0001:00019360       ??0GlobalStringAtomTable@Util@@QAE@XZ 0041a360 f   foundation_win32.release:globalstringatomtable.obj
 0001:000193d0       ??1GlobalStringAtomTable@Util@@QAE@XZ 0041a3d0 f   foundation_win32.release:globalstringatomtable.obj
 0001:00019470       ?Lock@GlobalStringAtomTable@Util@@AAEXXZ 0041a470 f   foundation_win32.release:globalstringatomtable.obj
 0001:00019490       ?Unlock@GlobalStringAtomTable@Util@@AAEXXZ 0041a490 f   foundation_win32.release:globalstringatomtable.obj
 0001:000194d0       ?Add@GlobalStringAtomTable@Util@@AAEPBDPBD@Z 0041a4d0 f   foundation_win32.release:globalstringatomtable.obj
 0001:00019500       ?GetDebugInfo@GlobalStringAtomTable@Util@@QBE?AUDebugInfo@12@XZ 0041a500 f   foundation_win32.release:globalstringatomtable.obj
 0001:00019620       ??0DebugInfo@GlobalStringAtomTable@Util@@QAE@XZ 0041a620 f i foundation_win32.release:globalstringatomtable.obj
 0001:00019640       ??1DebugInfo@GlobalStringAtomTable@Util@@QAE@XZ 0041a640 f i foundation_win32.release:globalstringatomtable.obj
 0001:00019660       ??0DebugInfo@GlobalStringAtomTable@Util@@QAE@ABU012@@Z 0041a660 f i foundation_win32.release:globalstringatomtable.obj
 0001:000196c0       ??A?$Array@UStaticString@StringAtomTableBase@Util@@@Util@@QBEAAUStaticString@StringAtomTableBase@1@H@Z 0041a6c0 f i foundation_win32.release:globalstringatomtable.obj
 0001:00019710       ?Size@?$Array@UStaticString@StringAtomTableBase@Util@@@Util@@QBEHXZ 0041a710 f i foundation_win32.release:globalstringatomtable.obj
 0001:00019730       ?InsertSorted@?$Array@UStaticString@StringAtomTableBase@Util@@@Util@@QAEHABUStaticString@StringAtomTableBase@2@@Z 0041a730 f i foundation_win32.release:globalstringatomtable.obj
 0001:000199a0       ?Size@?$Array@PAD@Util@@QBEHXZ 0041a9a0 f i foundation_win32.release:globalstringatomtable.obj
 0001:000199c0       ??0?$Array@PBD@Util@@QAE@ABV01@@Z 0041a9c0 f i foundation_win32.release:globalstringatomtable.obj
 0001:00019a10       ??0?$Array@PBD@Util@@QAE@XZ 0041aa10 f i foundation_win32.release:globalstringatomtable.obj
 0001:00019a50       ??1?$Array@PBD@Util@@QAE@XZ 0041aa50 f i foundation_win32.release:globalstringatomtable.obj
 0001:00019a70       ?Append@?$Array@PBD@Util@@QAEXABQBD@Z 0041aa70 f i foundation_win32.release:globalstringatomtable.obj
 0001:00019ae0       ?Reserve@?$Array@PBD@Util@@QAEXH@Z 0041aae0 f i foundation_win32.release:globalstringatomtable.obj
 0001:00019b30       ?Append@?$Array@UStaticString@StringAtomTableBase@Util@@@Util@@QAEXABUStaticString@StringAtomTableBase@2@@Z 0041ab30 f i foundation_win32.release:globalstringatomtable.obj
 0001:00019ba0       ?Insert@?$Array@UStaticString@StringAtomTableBase@Util@@@Util@@QAEXHABUStaticString@StringAtomTableBase@2@@Z 0041aba0 f i foundation_win32.release:globalstringatomtable.obj
 0001:00019c10       ?InsertAtEndOfIdenticalRange@?$Array@UStaticString@StringAtomTableBase@Util@@@Util@@QAEHHABUStaticString@StringAtomTableBase@2@@Z 0041ac10 f i foundation_win32.release:globalstringatomtable.obj
 0001:00019c90       ?Copy@?$Array@PBD@Util@@AAEXABV12@@Z 0041ac90 f i foundation_win32.release:globalstringatomtable.obj
 0001:00019d60       ?Delete@?$Array@PBD@Util@@AAEXXZ 0041ad60 f i foundation_win32.release:globalstringatomtable.obj
 0001:00019dc0       ?Grow@?$Array@PBD@Util@@AAEXXZ 0041adc0 f i foundation_win32.release:globalstringatomtable.obj
 0001:00019e40       ?GrowTo@?$Array@PBD@Util@@AAEXH@Z 0041ae40 f i foundation_win32.release:globalstringatomtable.obj
 0001:00019ef0       ?Grow@?$Array@UStaticString@StringAtomTableBase@Util@@@Util@@AAEXXZ 0041aef0 f i foundation_win32.release:globalstringatomtable.obj
 0001:00019f70       ?Move@?$Array@UStaticString@StringAtomTableBase@Util@@@Util@@AAEXHH@Z 0041af70 f i foundation_win32.release:globalstringatomtable.obj
 0001:0001a0f0       ?Destroy@?$Array@UStaticString@StringAtomTableBase@Util@@@Util@@AAEXPAUStaticString@StringAtomTableBase@2@@Z 0041b0f0 f i foundation_win32.release:globalstringatomtable.obj
 0001:0001a100       ?GrowTo@?$Array@UStaticString@StringAtomTableBase@Util@@@Util@@AAEXH@Z 0041b100 f i foundation_win32.release:globalstringatomtable.obj
 0001:0001a1b0       ??0LocalStringAtomTable@Util@@QAE@XZ 0041b1b0 f   foundation_win32.release:localstringatomtable.obj
 0001:0001a200       ??1LocalStringAtomTable@Util@@QAE@XZ 0041b200 f   foundation_win32.release:localstringatomtable.obj
 0001:0001a250       ?Add@LocalStringAtomTable@Util@@AAEXPBD@Z 0041b250 f   foundation_win32.release:localstringatomtable.obj
 0001:0001a280       ??0ExitHandler@Core@@QAE@XZ 0041b280 f   foundation_win32.release:exithandler.obj
 0001:0001a2b0       ??_GExitHandler@Core@@UAEPAXI@Z 0041b2b0 f i foundation_win32.release:exithandler.obj
 0001:0001a2b0       ??_EExitHandler@Core@@UAEPAXI@Z 0041b2b0 f i  CIL library: CIL module
 0001:0001a2e0       ??1ExitHandler@Core@@UAE@XZ 0041b2e0 f   foundation_win32.release:exithandler.obj
 0001:0001a300       ?Next@ExitHandler@Core@@QBEPBV12@XZ 0041b300 f   foundation_win32.release:exithandler.obj
 0001:0001a320       ?OnExit@ExitHandler@Core@@UBEXXZ 0041b320 f   foundation_win32.release:exithandler.obj
 0001:0001a330       ?GetNumCpuCores@SystemInfoBase@Base@@QBEHXZ 0041b330 f i foundation_win32.release:win360criticalsection.obj
 0001:0001a350       ??0Win360CriticalSection@Win360@@QAE@XZ 0041b350 f   foundation_win32.release:win360criticalsection.obj
 0001:0001a3c0       ??1Win360CriticalSection@Win360@@QAE@XZ 0041b3c0 f   foundation_win32.release:win360criticalsection.obj
 0001:0001a3f0       ??2Win32ConsoleHandler@Win32@@SAPAXI@Z 0041b3f0 f i foundation_win32.release:win32consolehandler.obj
 0001:0001a400       ??3Win32ConsoleHandler@Win32@@SAXPAX@Z 0041b400 f i foundation_win32.release:win32consolehandler.obj
 0001:0001a420       ?HasInstance@CoreServer@Core@@SA_NXZ 0041b420 f i foundation_win32.release:win32consolehandler.obj
 0001:0001a440       ?GetRtti@Win32ConsoleHandler@Win32@@UBEPAVRtti@Core@@XZ 0041b440 f   foundation_win32.release:win32consolehandler.obj
 0001:0001a450       ?FactoryCreator@Win32ConsoleHandler@Win32@@SAPAVRefCounted@Core@@XZ 0041b450 f   foundation_win32.release:win32consolehandler.obj
 0001:0001a460       ?Create@Win32ConsoleHandler@Win32@@SAPAV12@XZ 0041b460 f   foundation_win32.release:win32consolehandler.obj
 0001:0001a4a0       ?RegisterWithFactory@Win32ConsoleHandler@Win32@@SA_NXZ 0041b4a0 f   foundation_win32.release:win32consolehandler.obj
 0001:0001a5a0       ??0Win32ConsoleHandler@Win32@@QAE@XZ 0041b5a0 f   foundation_win32.release:win32consolehandler.obj
 0001:0001a640       ??_GWin32ConsoleHandler@Win32@@UAEPAXI@Z 0041b640 f i foundation_win32.release:win32consolehandler.obj
 0001:0001a640       ??_EWin32ConsoleHandler@Win32@@UAEPAXI@Z 0041b640 f i  CIL library: CIL module
 0001:0001a670       ??1Win32ConsoleHandler@Win32@@UAE@XZ 0041b670 f i foundation_win32.release:win32consolehandler.obj
 0001:0001a690       ?Print@Win32ConsoleHandler@Win32@@UAEXABVString@Util@@@Z 0041b690 f   foundation_win32.release:win32consolehandler.obj
 0001:0001a760       ?DebugOut@Win32ConsoleHandler@Win32@@UAEXABVString@Util@@@Z 0041b760 f   foundation_win32.release:win32consolehandler.obj
 0001:0001a7a0       ?Error@Win32ConsoleHandler@Win32@@UAEXABVString@Util@@@Z 0041b7a0 f   foundation_win32.release:win32consolehandler.obj
 0001:0001a8e0       ?Warning@Win32ConsoleHandler@Win32@@UAEXABVString@Util@@@Z 0041b8e0 f   foundation_win32.release:win32consolehandler.obj
 0001:0001a930       ?Confirm@Win32ConsoleHandler@Win32@@UAEXABVString@Util@@@Z 0041b930 f   foundation_win32.release:win32consolehandler.obj
 0001:0001a9b0       ?HasInput@Win32ConsoleHandler@Win32@@UAE_NXZ 0041b9b0 f   foundation_win32.release:win32consolehandler.obj
 0001:0001aa60       ?GetInput@Win32ConsoleHandler@Win32@@UAE?AVString@Util@@XZ 0041ba60 f   foundation_win32.release:win32consolehandler.obj
 0001:0001aba0       ??0StringAtomTableBase@Util@@QAE@XZ 0041bba0 f   foundation_win32.release:stringatomtablebase.obj
 0001:0001abc0       ??1StringAtomTableBase@Util@@QAE@XZ 0041bbc0 f   foundation_win32.release:stringatomtablebase.obj
 0001:0001abe0       ?Find@StringAtomTableBase@Util@@IBEPBDPBD@Z 0041bbe0 f   foundation_win32.release:stringatomtablebase.obj
 0001:0001ac20       ??8StaticString@StringAtomTableBase@Util@@QBE_NABU012@@Z 0041bc20 f   foundation_win32.release:stringatomtablebase.obj
 0001:0001aca0       ??9StaticString@StringAtomTableBase@Util@@QBE_NABU012@@Z 0041bca0 f   foundation_win32.release:stringatomtablebase.obj
 0001:0001ad20       ??MStaticString@StringAtomTableBase@Util@@QBE_NABU012@@Z 0041bd20 f   foundation_win32.release:stringatomtablebase.obj
 0001:0001ada0       ??OStaticString@StringAtomTableBase@Util@@QBE_NABU012@@Z 0041bda0 f   foundation_win32.release:stringatomtablebase.obj
 0001:0001ae20       ??0?$Array@UStaticString@StringAtomTableBase@Util@@@Util@@QAE@XZ 0041be20 f i foundation_win32.release:stringatomtablebase.obj
 0001:0001ae60       ??1?$Array@UStaticString@StringAtomTableBase@Util@@@Util@@QAE@XZ 0041be60 f i foundation_win32.release:stringatomtablebase.obj
 0001:0001ae80       ?BinarySearchIndex@?$Array@UStaticString@StringAtomTableBase@Util@@@Util@@QBEHABUStaticString@StringAtomTableBase@2@@Z 0041be80 f i foundation_win32.release:stringatomtablebase.obj
 0001:0001afb0       ?Delete@?$Array@UStaticString@StringAtomTableBase@Util@@@Util@@AAEXXZ 0041bfb0 f i foundation_win32.release:stringatomtablebase.obj
 0001:0001b010       ?Clear@String@Util@@QAEXXZ 0041c010 f i foundation_win32.release:uri.obj
 0001:0001b060       ?Clear@URI@IO@@QAEXXZ      0041c060 f i foundation_win32.release:uri.obj
 0001:0001b260       ?SetScheme@URI@IO@@QAEXABVString@Util@@@Z 0041c260 f i foundation_win32.release:uri.obj
 0001:0001b2b0       ?SetUserInfo@URI@IO@@QAEXABVString@Util@@@Z 0041c2b0 f i foundation_win32.release:uri.obj
 0001:0001b300       ?SetHost@URI@IO@@QAEXABVString@Util@@@Z 0041c300 f i foundation_win32.release:uri.obj
 0001:0001b350       ?SetPort@URI@IO@@QAEXABVString@Util@@@Z 0041c350 f i foundation_win32.release:uri.obj
 0001:0001b3a0       ?SetLocalPath@URI@IO@@QAEXABVString@Util@@@Z 0041c3a0 f i foundation_win32.release:uri.obj
 0001:0001b400       ?SetFragment@URI@IO@@QAEXABVString@Util@@@Z 0041c400 f i foundation_win32.release:uri.obj
 0001:0001b460       ?SetQuery@URI@IO@@QAEXABVString@Util@@@Z 0041c460 f i foundation_win32.release:uri.obj
 0001:0001b4c0       ?Split@URI@IO@@AAE_NABVString@Util@@@Z 0041c4c0 f   foundation_win32.release:uri.obj
 0001:0001bfb0       ?Build@URI@IO@@ABE?AVString@Util@@XZ 0041cfb0 f   foundation_win32.release:uri.obj
 0001:0001c2a0       ?GetTail@URI@IO@@QBE?AVString@Util@@XZ 0041d2a0 f   foundation_win32.release:uri.obj
 0001:0001c410       ?GetHostAndLocalPath@URI@IO@@QBE?AVString@Util@@XZ 0041d410 f   foundation_win32.release:uri.obj
 0001:0001c530       ?AppendLocalPath@URI@IO@@QAEXABVString@Util@@@Z 0041d530 f   foundation_win32.release:uri.obj
 0001:0001c5c0       ?ParseQuery@URI@IO@@QBE?AV?$Dictionary@VString@Util@@V12@@Util@@XZ 0041d5c0 f   foundation_win32.release:uri.obj
 0001:0001c730       ?SubstituteChar@String@Util@@QAEXDD@Z 0041d730 f i foundation_win32.release:assignregistry.obj
 0001:0001c7a0       ?ConvertBackslashes@String@Util@@QAEXXZ 0041d7a0 f i foundation_win32.release:assignregistry.obj
 0001:0001c800       ??0Assign@IO@@QAE@XZ       0041d800 f i foundation_win32.release:assignregistry.obj
 0001:0001c820       ??0Assign@IO@@QAE@ABVString@Util@@0@Z 0041d820 f i foundation_win32.release:assignregistry.obj
 0001:0001c890       ?GetName@Assign@IO@@QBEABVString@Util@@XZ 0041d890 f i foundation_win32.release:assignregistry.obj
 0001:0001c8d0       ??0URI@IO@@QAE@ABV01@@Z    0041d8d0 f i foundation_win32.release:assignregistry.obj
 0001:0001cba0       ??2AssignRegistry@IO@@SAPAXI@Z 0041dba0 f i foundation_win32.release:assignregistry.obj
 0001:0001cbb0       ??3AssignRegistry@IO@@SAXPAX@Z 0041dbb0 f i foundation_win32.release:assignregistry.obj
 0001:0001cbd0       ?AsString@StringAtom@Util@@QBE?AVString@2@XZ 0041dbd0 f i foundation_win32.release:assignregistry.obj
 0001:0001cc20       ?GetRootDirectory@CoreServer@Core@@QBEABVStringAtom@Util@@XZ 0041dc20 f i foundation_win32.release:assignregistry.obj
 0001:0001cc40       ?GetRtti@AssignRegistry@IO@@UBEPAVRtti@Core@@XZ 0041dc40 f   foundation_win32.release:assignregistry.obj
 0001:0001cc50       ?FactoryCreator@AssignRegistry@IO@@SAPAVRefCounted@Core@@XZ 0041dc50 f   foundation_win32.release:assignregistry.obj
 0001:0001cc60       ?Create@AssignRegistry@IO@@SAPAV12@XZ 0041dc60 f   foundation_win32.release:assignregistry.obj
 0001:0001cca0       ?RegisterWithFactory@AssignRegistry@IO@@SA_NXZ 0041dca0 f   foundation_win32.release:assignregistry.obj
 0001:0001cda0       ??0AssignRegistry@IO@@QAE@XZ 0041dda0 f   foundation_win32.release:assignregistry.obj
 0001:0001ce20       ??_GAssignRegistry@IO@@UAEPAXI@Z 0041de20 f i foundation_win32.release:assignregistry.obj
 0001:0001ce20       ??_EAssignRegistry@IO@@UAEPAXI@Z 0041de20 f i  CIL library: CIL module
 0001:0001ce50       ??1?$HashTable@VString@Util@@V12@@Util@@QAE@XZ 0041de50 f i foundation_win32.release:assignregistry.obj
 0001:0001ce70       ??1AssignRegistry@IO@@UAE@XZ 0041de70 f   foundation_win32.release:assignregistry.obj
 0001:0001cee0       ?Setup@AssignRegistry@IO@@QAEXXZ 0041dee0 f   foundation_win32.release:assignregistry.obj
 0001:0001cf60       ?Discard@AssignRegistry@IO@@QAEXXZ 0041df60 f   foundation_win32.release:assignregistry.obj
 0001:0001cfe0       ?IsValid@AssignRegistry@IO@@QBE_NXZ 0041dfe0 f   foundation_win32.release:assignregistry.obj
 0001:0001d000       ?SetupSystemAssigns@AssignRegistry@IO@@AAEXXZ 0041e000 f   foundation_win32.release:assignregistry.obj
 0001:0001d450       ??1Assign@IO@@QAE@XZ       0041e450 f i foundation_win32.release:assignregistry.obj
 0001:0001d470       ?SetupProjectAssigns@AssignRegistry@IO@@AAEXXZ 0041e470 f   foundation_win32.release:assignregistry.obj
 0001:0001e2b0       ?SetAssign@AssignRegistry@IO@@QAEXABVAssign@2@@Z 0041f2b0 f   foundation_win32.release:assignregistry.obj
 0001:0001e3a0       ?HasAssign@AssignRegistry@IO@@QBE_NABVString@Util@@@Z 0041f3a0 f   foundation_win32.release:assignregistry.obj
 0001:0001e430       ?GetAssign@AssignRegistry@IO@@QBE?AVString@Util@@ABV34@@Z 0041f430 f   foundation_win32.release:assignregistry.obj
 0001:0001e540       ?ClearAssign@AssignRegistry@IO@@QAEXABVString@Util@@@Z 0041f540 f   foundation_win32.release:assignregistry.obj
 0001:0001e5f0       ?GetAllAssigns@AssignRegistry@IO@@QBE?AV?$Array@VAssign@IO@@@Util@@XZ 0041f5f0 f   foundation_win32.release:assignregistry.obj
 0001:0001e6e0       ?ResolveAssigns@AssignRegistry@IO@@QBE?AVURI@2@ABV32@@Z 0041f6e0 f   foundation_win32.release:assignregistry.obj
 0001:0001e810       ?ResolveAssignsInString@AssignRegistry@IO@@QBE?AVString@Util@@ABV34@@Z 0041f810 f   foundation_win32.release:assignregistry.obj
 0001:0001ebd0       ?Value@?$KeyValuePair@VString@Util@@V12@@Util@@QAEAAVString@2@XZ 0041fbd0 f i foundation_win32.release:assignregistry.obj
 0001:0001ebf0       ?Key@?$KeyValuePair@VString@Util@@V12@@Util@@QBEABVString@2@XZ 0041fbf0 f i foundation_win32.release:assignregistry.obj
 0001:0001ec00       ??1?$FixedArray@V?$Array@V?$KeyValuePair@VString@Util@@V12@@Util@@@Util@@@Util@@QAE@XZ 0041fc00 f i foundation_win32.release:assignregistry.obj
 0001:0001ec20       ??0?$HashTable@VString@Util@@V12@@Util@@QAE@XZ 0041fc20 f i foundation_win32.release:assignregistry.obj
 0001:0001ec50       ??A?$HashTable@VString@Util@@V12@@Util@@QBEAAVString@1@ABV21@@Z 0041fc50 f i foundation_win32.release:assignregistry.obj
 0001:0001ed30       ?Clear@?$HashTable@VString@Util@@V12@@Util@@QAEXXZ 0041fd30 f i foundation_win32.release:assignregistry.obj
 0001:0001ed90       ?Add@?$HashTable@VString@Util@@V12@@Util@@QAEXABV?$KeyValuePair@VString@Util@@V12@@2@@Z 0041fd90 f i foundation_win32.release:assignregistry.obj
 0001:0001ee20       ?Erase@?$HashTable@VString@Util@@V12@@Util@@QAEXABVString@2@@Z 0041fe20 f i foundation_win32.release:assignregistry.obj
 0001:0001eee0       ?Contains@?$HashTable@VString@Util@@V12@@Util@@QBE_NABVString@2@@Z 0041fee0 f i foundation_win32.release:assignregistry.obj
 0001:0001ef60       ?Content@?$HashTable@VString@Util@@V12@@Util@@QBE?AV?$Array@V?$KeyValuePair@VString@Util@@V12@@Util@@@2@XZ 0041ff60 f i foundation_win32.release:assignregistry.obj
 0001:0001eff0       ??0?$Array@VAssign@IO@@@Util@@QAE@ABV01@@Z 0041fff0 f i foundation_win32.release:assignregistry.obj
 0001:0001f040       ??0?$Array@VAssign@IO@@@Util@@QAE@HH@Z 00420040 f i foundation_win32.release:assignregistry.obj
 0001:0001f130       ??1?$Array@VAssign@IO@@@Util@@QAE@XZ 00420130 f i foundation_win32.release:assignregistry.obj
 0001:0001f150       ?Append@?$Array@VAssign@IO@@@Util@@QAEXABVAssign@IO@@@Z 00420150 f i foundation_win32.release:assignregistry.obj
 0001:0001f1d0       ??A?$Array@V?$KeyValuePair@VString@Util@@V12@@Util@@@Util@@QBEAAV?$KeyValuePair@VString@Util@@V12@@1@H@Z 004201d0 f i foundation_win32.release:assignregistry.obj
 0001:0001f220       ??_EAssign@IO@@QAEPAXI@Z   00420220 f i foundation_win32.release:assignregistry.obj
 0001:0001f2c0       ??4Assign@IO@@QAEAAV01@ABV01@@Z 004202c0 f i foundation_win32.release:assignregistry.obj
 0001:0001f2e0       ??0?$KeyValuePair@VString@Util@@V12@@Util@@QAE@ABVString@1@@Z 004202e0 f i foundation_win32.release:assignregistry.obj
 0001:0001f370       ??0?$FixedArray@V?$Array@V?$KeyValuePair@VString@Util@@V12@@Util@@@Util@@@Util@@QAE@H@Z 00420370 f i foundation_win32.release:assignregistry.obj
 0001:0001f3a0       ??A?$FixedArray@V?$Array@V?$KeyValuePair@VString@Util@@V12@@Util@@@Util@@@Util@@QBEAAV?$Array@V?$KeyValuePair@VString@Util@@V12@@Util@@@1@H@Z 004203a0 f i foundation_win32.release:assignregistry.obj
 0001:0001f3f0       ?Size@?$FixedArray@V?$Array@V?$KeyValuePair@VString@Util@@V12@@Util@@@Util@@@Util@@QBEHXZ 004203f0 f i foundation_win32.release:assignregistry.obj
 0001:0001f400       ?Delete@?$FixedArray@V?$Array@V?$KeyValuePair@VString@Util@@V12@@Util@@@Util@@@Util@@AAEXXZ 00420400 f i foundation_win32.release:assignregistry.obj
 0001:0001f460       ?AppendArray@?$Array@V?$KeyValuePair@VString@Util@@V12@@Util@@@Util@@QAEXABV12@@Z 00420460 f i foundation_win32.release:assignregistry.obj
 0001:0001f4b0       ?EraseIndex@?$Array@V?$KeyValuePair@VString@Util@@V12@@Util@@@Util@@QAEXH@Z 004204b0 f i foundation_win32.release:assignregistry.obj
 0001:0001f530       ?Clear@?$Array@V?$KeyValuePair@VString@Util@@V12@@Util@@@Util@@QAEXXZ 00420530 f i foundation_win32.release:assignregistry.obj
 0001:0001f580       ?BinarySearchIndex@?$Array@V?$KeyValuePair@VString@Util@@V12@@Util@@@Util@@QBEHABV?$KeyValuePair@VString@Util@@V12@@2@@Z 00420580 f i foundation_win32.release:assignregistry.obj
 0001:0001f6b0       ?Copy@?$Array@VAssign@IO@@@Util@@AAEXABV12@@Z 004206b0 f i foundation_win32.release:assignregistry.obj
 0001:0001f7f0       ?Delete@?$Array@VAssign@IO@@@Util@@AAEXXZ 004207f0 f i foundation_win32.release:assignregistry.obj
 0001:0001f860       ?Grow@?$Array@VAssign@IO@@@Util@@AAEXXZ 00420860 f i foundation_win32.release:assignregistry.obj
 0001:0001f8e0       ??_E?$Array@V?$KeyValuePair@VString@Util@@V12@@Util@@@Util@@QAEPAXI@Z 004208e0 f i foundation_win32.release:assignregistry.obj
 0001:0001f980       ?Alloc@?$FixedArray@V?$Array@V?$KeyValuePair@VString@Util@@V12@@Util@@@Util@@@Util@@AAEXH@Z 00420980 f i foundation_win32.release:assignregistry.obj
 0001:0001fa50       ?GrowTo@?$Array@VAssign@IO@@@Util@@AAEXH@Z 00420a50 f i foundation_win32.release:assignregistry.obj
 0001:0001fb80       ??2SchemeRegistry@IO@@SAPAXI@Z 00420b80 f i foundation_win32.release:schemeregistry.obj
 0001:0001fb90       ??3SchemeRegistry@IO@@SAXPAX@Z 00420b90 f i foundation_win32.release:schemeregistry.obj
 0001:0001fbb0       ?GetRtti@SchemeRegistry@IO@@UBEPAVRtti@Core@@XZ 00420bb0 f   foundation_win32.release:schemeregistry.obj
 0001:0001fbc0       ?FactoryCreator@SchemeRegistry@IO@@SAPAVRefCounted@Core@@XZ 00420bc0 f   foundation_win32.release:schemeregistry.obj
 0001:0001fbd0       ?Create@SchemeRegistry@IO@@SAPAV12@XZ 00420bd0 f   foundation_win32.release:schemeregistry.obj
 0001:0001fc10       ?RegisterWithFactory@SchemeRegistry@IO@@SA_NXZ 00420c10 f   foundation_win32.release:schemeregistry.obj
 0001:0001fd10       ??0SchemeRegistry@IO@@QAE@XZ 00420d10 f   foundation_win32.release:schemeregistry.obj
 0001:0001fd90       ??_ESchemeRegistry@IO@@UAEPAXI@Z 00420d90 f i  CIL library: CIL module
 0001:0001fd90       ??_GSchemeRegistry@IO@@UAEPAXI@Z 00420d90 f i foundation_win32.release:schemeregistry.obj
 0001:0001fdc0       ??1?$Dictionary@VString@Util@@PBVRtti@Core@@@Util@@QAE@XZ 00420dc0 f i foundation_win32.release:schemeregistry.obj
 0001:0001fde0       ??1SchemeRegistry@IO@@UAE@XZ 00420de0 f   foundation_win32.release:schemeregistry.obj
 0001:0001fe50       ?Setup@SchemeRegistry@IO@@QAEXXZ 00420e50 f   foundation_win32.release:schemeregistry.obj
 0001:0001fed0       ?Discard@SchemeRegistry@IO@@QAEXXZ 00420ed0 f   foundation_win32.release:schemeregistry.obj
 0001:0001ff50       ?IsValid@SchemeRegistry@IO@@QBE_NXZ 00420f50 f   foundation_win32.release:schemeregistry.obj
 0001:0001ff70       ?RegisterUriScheme@SchemeRegistry@IO@@QAEXABVString@Util@@ABVRtti@Core@@@Z 00420f70 f   foundation_win32.release:schemeregistry.obj
 0001:00020040       ?UnregisterUriScheme@SchemeRegistry@IO@@QAEXABVString@Util@@@Z 00421040 f   foundation_win32.release:schemeregistry.obj
 0001:000200f0       ?IsUriSchemeRegistered@SchemeRegistry@IO@@QBE_NABVString@Util@@@Z 004210f0 f   foundation_win32.release:schemeregistry.obj
 0001:00020170       ?GetStreamClassByUriScheme@SchemeRegistry@IO@@QBEABVRtti@Core@@ABVString@Util@@@Z 00421170 f   foundation_win32.release:schemeregistry.obj
 0001:00020200       ?GetAllRegisteredUriSchemes@SchemeRegistry@IO@@QBE?AV?$Array@VString@Util@@@Util@@XZ 00421200 f   foundation_win32.release:schemeregistry.obj
 0001:00020270       ?SetupStandardSchemes@SchemeRegistry@IO@@AAEXXZ 00421270 f   foundation_win32.release:schemeregistry.obj
 0001:000203b0       ??0?$Dictionary@VString@Util@@PBVRtti@Core@@@Util@@QAE@XZ 004213b0 f i foundation_win32.release:schemeregistry.obj
 0001:000203d0       ??A?$Dictionary@VString@Util@@PBVRtti@Core@@@Util@@QBEABQBVRtti@Core@@ABVString@1@@Z 004213d0 f i foundation_win32.release:schemeregistry.obj
 0001:00020420       ?Clear@?$Dictionary@VString@Util@@PBVRtti@Core@@@Util@@QAEXXZ 00421420 f i foundation_win32.release:schemeregistry.obj
 0001:00020460       ?Add@?$Dictionary@VString@Util@@PBVRtti@Core@@@Util@@QAEXABVString@2@ABQBVRtti@Core@@@Z 00421460 f i foundation_win32.release:schemeregistry.obj
 0001:000204b0       ?Erase@?$Dictionary@VString@Util@@PBVRtti@Core@@@Util@@QAEXABVString@2@@Z 004214b0 f i foundation_win32.release:schemeregistry.obj
 0001:00020560       ?Contains@?$Dictionary@VString@Util@@PBVRtti@Core@@@Util@@QBE_NABVString@2@@Z 00421560 f i foundation_win32.release:schemeregistry.obj
 0001:000205f0       ?KeysAsArray@?$Dictionary@VString@Util@@PBVRtti@Core@@@Util@@QBE?AV?$Array@VString@Util@@@2@XZ 004215f0 f i foundation_win32.release:schemeregistry.obj
 0001:00020610       ?EraseIndex@?$Array@V?$KeyValuePair@VString@Util@@PBVRtti@Core@@@Util@@@Util@@QAEXH@Z 00421610 f i foundation_win32.release:schemeregistry.obj
 0001:00020690       ?FindIndex@?$Dictionary@VString@Util@@PBVRtti@Core@@@Util@@QBEHABVString@2@@Z 00421690 f i foundation_win32.release:schemeregistry.obj
 0001:00020710       ??$KeysAs@V?$Array@VString@Util@@@Util@@@?$Dictionary@VString@Util@@PBVRtti@Core@@@Util@@QBE?AV?$Array@VString@Util@@@1@XZ 00421710 f i foundation_win32.release:schemeregistry.obj
 0001:000207b0       ?Size@?$Dictionary@VString@Util@@PBVRtti@Core@@@Util@@QBEHXZ 004217b0 f i foundation_win32.release:schemeregistry.obj
 0001:000207d0       ??2ArchiveFileSystem@IO@@SAPAXI@Z 004217d0 f i foundation_win32.release:archivefilesystem.obj
 0001:000207e0       ??3ArchiveFileSystem@IO@@SAXPAX@Z 004217e0 f i foundation_win32.release:archivefilesystem.obj
 0001:00020800       ?GetRtti@ArchiveFileSystem@IO@@UBEPAVRtti@Core@@XZ 00421800 f   foundation_win32.release:archivefilesystem.obj
 0001:00020810       ?FactoryCreator@ArchiveFileSystem@IO@@SAPAVRefCounted@Core@@XZ 00421810 f   foundation_win32.release:archivefilesystem.obj
 0001:00020820       ?Create@ArchiveFileSystem@IO@@SAPAV12@XZ 00421820 f   foundation_win32.release:archivefilesystem.obj
 0001:00020860       ?RegisterWithFactory@ArchiveFileSystem@IO@@SA_NXZ 00421860 f   foundation_win32.release:archivefilesystem.obj
 0001:00020960       ??0ArchiveFileSystem@IO@@QAE@XZ 00421960 f   foundation_win32.release:archivefilesystem.obj
 0001:000209b0       ??_GArchiveFileSystem@IO@@UAEPAXI@Z 004219b0 f i foundation_win32.release:archivefilesystem.obj
 0001:000209b0       ??_EArchiveFileSystem@IO@@UAEPAXI@Z 004219b0 f i  CIL library: CIL module
 0001:000209e0       ??1ArchiveFileSystem@IO@@UAE@XZ 004219e0 f   foundation_win32.release:archivefilesystem.obj
 0001:00020a30       ?IsValid@ArchiveFileSystemBase@IO@@QBE_NXZ 00421a30 f i foundation_win32.release:zipfilesystem.obj
 0001:00020a50       ??2ZipFileSystem@IO@@SAPAXI@Z 00421a50 f i foundation_win32.release:zipfilesystem.obj
 0001:00020a60       ??3ZipFileSystem@IO@@SAXPAX@Z 00421a60 f i foundation_win32.release:zipfilesystem.obj
 0001:00020a80       ?GetRtti@ZipFileSystem@IO@@UBEPAVRtti@Core@@XZ 00421a80 f   foundation_win32.release:zipfilesystem.obj
 0001:00020a90       ?FactoryCreator@ZipFileSystem@IO@@SAPAVRefCounted@Core@@XZ 00421a90 f   foundation_win32.release:zipfilesystem.obj
 0001:00020aa0       ?Create@ZipFileSystem@IO@@SAPAV12@XZ 00421aa0 f   foundation_win32.release:zipfilesystem.obj
 0001:00020ae0       ?RegisterWithFactory@ZipFileSystem@IO@@SA_NXZ 00421ae0 f   foundation_win32.release:zipfilesystem.obj
 0001:00020be0       ??0ZipFileSystem@IO@@QAE@XZ 00421be0 f   foundation_win32.release:zipfilesystem.obj
 0001:00020c30       ??_GZipFileSystem@IO@@UAEPAXI@Z 00421c30 f i foundation_win32.release:zipfilesystem.obj
 0001:00020c30       ??_EZipFileSystem@IO@@UAEPAXI@Z 00421c30 f i  CIL library: CIL module
 0001:00020c60       ??1ZipFileSystem@IO@@UAE@XZ 00421c60 f   foundation_win32.release:zipfilesystem.obj
 0001:00020cc0       ?Setup@ZipFileSystem@IO@@QAEXXZ 00421cc0 f   foundation_win32.release:zipfilesystem.obj
 0001:00020d80       ?Discard@ZipFileSystem@IO@@QAEXXZ 00421d80 f   foundation_win32.release:zipfilesystem.obj
 0001:00020e40       ?FindArchiveWithFile@ZipFileSystem@IO@@UBE?AV?$Ptr@VArchive@IO@@@@ABVURI@2@@Z 00421e40 f   foundation_win32.release:zipfilesystem.obj
 0001:00021060       ?FindArchiveWithDir@ZipFileSystem@IO@@UBE?AV?$Ptr@VArchive@IO@@@@ABVURI@2@@Z 00422060 f   foundation_win32.release:zipfilesystem.obj
 0001:00021280       ?Size@?$Dictionary@VString@Util@@V?$Ptr@VArchive@IO@@@@@Util@@QBEHXZ 00422280 f i foundation_win32.release:zipfilesystem.obj
 0001:000212a0       ?ValueAtIndex@?$Dictionary@VString@Util@@V?$Ptr@VArchive@IO@@@@@Util@@QBEABV?$Ptr@VArchive@IO@@@@H@Z 004222a0 f i foundation_win32.release:zipfilesystem.obj
 0001:000212f0       ??0?$Ptr@VArchive@IO@@@@QAE@ABV0@@Z 004222f0 f i foundation_win32.release:zipfilesystem.obj
 0001:00021330       ??0?$Ptr@VZipArchive@IO@@@@QAE@XZ 00422330 f i foundation_win32.release:zipfilesystem.obj
 0001:00021350       ??1?$Ptr@VZipArchive@IO@@@@QAE@XZ 00422350 f i foundation_win32.release:zipfilesystem.obj
 0001:00021380       ??4?$Ptr@VZipArchive@IO@@@@QAEXABV0@@Z 00422380 f i foundation_win32.release:zipfilesystem.obj
 0001:000213e0       ??C?$Ptr@VZipArchive@IO@@@@QBEPAVZipArchive@IO@@XZ 004223e0 f i foundation_win32.release:zipfilesystem.obj
 0001:00021420       ?isvalid@?$Ptr@VZipArchive@IO@@@@QBE_NXZ 00422420 f i foundation_win32.release:zipfilesystem.obj
 0001:00021440       ??$cast@VZipArchive@IO@@@?$Ptr@VArchive@IO@@@@QBEABV?$Ptr@VZipArchive@IO@@@@XZ 00422440 f i foundation_win32.release:zipfilesystem.obj
 0001:00021450       ??$cast@VArchive@IO@@@?$Ptr@VZipArchive@IO@@@@QBEABV?$Ptr@VArchive@IO@@@@XZ 00422450 f i foundation_win32.release:zipfilesystem.obj
 0001:00021460       ??A?$Array@V?$KeyValuePair@VString@Util@@V?$Ptr@VArchive@IO@@@@@Util@@@Util@@QBEAAV?$KeyValuePair@VString@Util@@V?$Ptr@VArchive@IO@@@@@1@H@Z 00422460 f i foundation_win32.release:zipfilesystem.obj
 0001:000214b0       ?Size@?$Array@V?$KeyValuePair@VString@Util@@V?$Ptr@VArchive@IO@@@@@Util@@@Util@@QBEHXZ 004224b0 f i foundation_win32.release:zipfilesystem.obj
 0001:000214d0       ?Value@?$KeyValuePair@VString@Util@@V?$Ptr@VArchive@IO@@@@@Util@@QAEAAV?$Ptr@VArchive@IO@@@@XZ 004224d0 f i foundation_win32.release:zipfilesystem.obj
 0001:000214f0       ??2ArchiveFileSystemBase@IO@@SAPAXI@Z 004224f0 f i foundation_win32.release:archivefilesystembase.obj
 0001:00021500       ??3ArchiveFileSystemBase@IO@@SAXPAX@Z 00422500 f i foundation_win32.release:archivefilesystembase.obj
 0001:00021520       ?GetURI@ArchiveBase@IO@@QBEABVURI@2@XZ 00422520 f i foundation_win32.release:archivefilesystembase.obj
 0001:00021540       ?GetRtti@ArchiveFileSystemBase@IO@@UBEPAVRtti@Core@@XZ 00422540 f   foundation_win32.release:archivefilesystembase.obj
 0001:00021550       ?FactoryCreator@ArchiveFileSystemBase@IO@@SAPAVRefCounted@Core@@XZ 00422550 f   foundation_win32.release:archivefilesystembase.obj
 0001:00021560       ?Create@ArchiveFileSystemBase@IO@@SAPAV12@XZ 00422560 f   foundation_win32.release:archivefilesystembase.obj
 0001:000215a0       ?RegisterWithFactory@ArchiveFileSystemBase@IO@@SA_NXZ 004225a0 f   foundation_win32.release:archivefilesystembase.obj
 0001:000216a0       ??0ArchiveFileSystemBase@IO@@QAE@XZ 004226a0 f   foundation_win32.release:archivefilesystembase.obj
 0001:00021720       ??_EArchiveFileSystemBase@IO@@UAEPAXI@Z 00422720 f i  CIL library: CIL module
 0001:00021720       ??_GArchiveFileSystemBase@IO@@UAEPAXI@Z 00422720 f i foundation_win32.release:archivefilesystembase.obj
 0001:00021750       ??1?$Dictionary@VString@Util@@V?$Ptr@VArchive@IO@@@@@Util@@QAE@XZ 00422750 f i foundation_win32.release:archivefilesystembase.obj
 0001:00021770       ??1ArchiveFileSystemBase@IO@@UAE@XZ 00422770 f   foundation_win32.release:archivefilesystembase.obj
 0001:000217f0       ?Setup@ArchiveFileSystemBase@IO@@QAEXXZ 004227f0 f   foundation_win32.release:archivefilesystembase.obj
 0001:00021830       ?Discard@ArchiveFileSystemBase@IO@@QAEXXZ 00422830 f   foundation_win32.release:archivefilesystembase.obj
 0001:000218a0       ?Mount@ArchiveFileSystemBase@IO@@UAE?AV?$Ptr@VArchive@IO@@@@ABVURI@2@@Z 004228a0 f   foundation_win32.release:archivefilesystembase.obj
 0001:00021a50       ?Unmount@ArchiveFileSystemBase@IO@@UAEXABV?$Ptr@VArchive@IO@@@@@Z 00422a50 f   foundation_win32.release:archivefilesystembase.obj
 0001:00021be0       ?Unmount@ArchiveFileSystemBase@IO@@UAEXABVURI@2@@Z 00422be0 f   foundation_win32.release:archivefilesystembase.obj
 0001:00021d70       ?GetMountedArchives@ArchiveFileSystemBase@IO@@QBE?AV?$Array@V?$Ptr@VArchive@IO@@@@@Util@@XZ 00422d70 f   foundation_win32.release:archivefilesystembase.obj
 0001:00021de0       ?FindArchive@ArchiveFileSystemBase@IO@@QBE?AV?$Ptr@VArchive@IO@@@@ABVURI@2@@Z 00422de0 f   foundation_win32.release:archivefilesystembase.obj
 0001:00021f50       ?IsMounted@ArchiveFileSystemBase@IO@@QBE_NABVURI@2@@Z 00422f50 f   foundation_win32.release:archivefilesystembase.obj
 0001:00022090       ?FindArchiveWithFile@ArchiveFileSystemBase@IO@@UBE?AV?$Ptr@VArchive@IO@@@@ABVURI@2@@Z 00423090 f   foundation_win32.release:archivefilesystembase.obj
 0001:000220b0       ?FindArchiveWithDir@ArchiveFileSystemBase@IO@@UBE?AV?$Ptr@VArchive@IO@@@@ABVURI@2@@Z 004230b0 f   foundation_win32.release:archivefilesystembase.obj
 0001:000220d0       ?ConvertFileToArchiveURIIfExists@ArchiveFileSystemBase@IO@@QBE?AVURI@2@ABV32@@Z 004230d0 f   foundation_win32.release:archivefilesystembase.obj
 0001:00022160       ?ConvertDirToArchiveURIIfExists@ArchiveFileSystemBase@IO@@QBE?AVURI@2@ABV32@@Z 00423160 f   foundation_win32.release:archivefilesystembase.obj
 0001:000221f0       ??1?$Array@V?$KeyValuePair@VString@Util@@V?$Ptr@VArchive@IO@@@@@Util@@@Util@@QAE@XZ 004231f0 f i foundation_win32.release:archivefilesystembase.obj
 0001:00022210       ??0?$Dictionary@VString@Util@@V?$Ptr@VArchive@IO@@@@@Util@@QAE@XZ 00423210 f i foundation_win32.release:archivefilesystembase.obj
 0001:00022230       ??A?$Dictionary@VString@Util@@V?$Ptr@VArchive@IO@@@@@Util@@QAEAAV?$Ptr@VArchive@IO@@@@ABVString@1@@Z 00423230 f i foundation_win32.release:archivefilesystembase.obj
 0001:00022280       ?IsEmpty@?$Dictionary@VString@Util@@V?$Ptr@VArchive@IO@@@@@Util@@QBE_NXZ 00423280 f i foundation_win32.release:archivefilesystembase.obj
 0001:000222a0       ?Add@?$Dictionary@VString@Util@@V?$Ptr@VArchive@IO@@@@@Util@@QAEXABVString@2@ABV?$Ptr@VArchive@IO@@@@@Z 004232a0 f i foundation_win32.release:archivefilesystembase.obj
 0001:00022300       ?Erase@?$Dictionary@VString@Util@@V?$Ptr@VArchive@IO@@@@@Util@@QAEXABVString@2@@Z 00423300 f i foundation_win32.release:archivefilesystembase.obj
 0001:00022380       ?FindIndex@?$Dictionary@VString@Util@@V?$Ptr@VArchive@IO@@@@@Util@@QBEHABVString@2@@Z 00423380 f i foundation_win32.release:archivefilesystembase.obj
 0001:000223e0       ?Contains@?$Dictionary@VString@Util@@V?$Ptr@VArchive@IO@@@@@Util@@QBE_NABVString@2@@Z 004233e0 f i foundation_win32.release:archivefilesystembase.obj
 0001:00022440       ?ValueAtIndex@?$Dictionary@VString@Util@@V?$Ptr@VArchive@IO@@@@@Util@@QAEAAV?$Ptr@VArchive@IO@@@@H@Z 00423440 f i foundation_win32.release:archivefilesystembase.obj
 0001:00022490       ?ValuesAsArray@?$Dictionary@VString@Util@@V?$Ptr@VArchive@IO@@@@@Util@@QBE?AV?$Array@V?$Ptr@VArchive@IO@@@@@2@XZ 00423490 f i foundation_win32.release:archivefilesystembase.obj
 0001:000224b0       ??0?$Ptr@VArchive@IO@@@@QAE@PAVArchive@IO@@@Z 004234b0 f i foundation_win32.release:archivefilesystembase.obj
 0001:000224f0       ??0?$Ptr@VArchive@IO@@@@QAE@XZ 004234f0 f i foundation_win32.release:archivefilesystembase.obj
 0001:00022510       ??4?$Ptr@VArchive@IO@@@@QAEXPAVArchive@IO@@@Z 00423510 f i foundation_win32.release:archivefilesystembase.obj
 0001:00022570       ??4?$Ptr@VArchive@IO@@@@QAEXABV0@@Z 00423570 f i foundation_win32.release:archivefilesystembase.obj
 0001:000225d0       ??0?$Array@V?$Ptr@VArchive@IO@@@@@Util@@QAE@ABV01@@Z 004235d0 f i foundation_win32.release:archivefilesystembase.obj
 0001:00022620       ??1?$Array@V?$Ptr@VArchive@IO@@@@@Util@@QAE@XZ 00423620 f i foundation_win32.release:archivefilesystembase.obj
 0001:00022640       ??1?$KeyValuePair@VString@Util@@V?$Ptr@VArchive@IO@@@@@Util@@QAE@XZ 00423640 f i foundation_win32.release:archivefilesystembase.obj
 0001:000226a0       ??0?$Array@V?$KeyValuePair@VString@Util@@V?$Ptr@VArchive@IO@@@@@Util@@@Util@@QAE@XZ 004236a0 f i foundation_win32.release:archivefilesystembase.obj
 0001:000226e0       ?Append@?$Array@V?$KeyValuePair@VString@Util@@V?$Ptr@VArchive@IO@@@@@Util@@@Util@@QAEXABV?$KeyValuePair@VString@Util@@V?$Ptr@VArchive@IO@@@@@2@@Z 004236e0 f i foundation_win32.release:archivefilesystembase.obj
 0001:00022760       ?EraseIndex@?$Array@V?$KeyValuePair@VString@Util@@V?$Ptr@VArchive@IO@@@@@Util@@@Util@@QAEXH@Z 00423760 f i foundation_win32.release:archivefilesystembase.obj
 0001:000227e0       ?InsertSorted@?$Array@V?$KeyValuePair@VString@Util@@V?$Ptr@VArchive@IO@@@@@Util@@@Util@@QAEHABV?$KeyValuePair@VString@Util@@V?$Ptr@VArchive@IO@@@@@2@@Z 004237e0 f i foundation_win32.release:archivefilesystembase.obj
 0001:00022a50       ?BinarySearchIndex@?$Array@V?$KeyValuePair@VString@Util@@V?$Ptr@VArchive@IO@@@@@Util@@@Util@@QBEHABV?$KeyValuePair@VString@Util@@V?$Ptr@VArchive@IO@@@@@2@@Z 00423a50 f i foundation_win32.release:archivefilesystembase.obj
 0001:00022b80       ?Delete@?$Array@V?$KeyValuePair@VString@Util@@V?$Ptr@VArchive@IO@@@@@Util@@@Util@@AAEXXZ 00423b80 f i foundation_win32.release:archivefilesystembase.obj
 0001:00022bf0       ??0?$KeyValuePair@VString@Util@@V?$Ptr@VArchive@IO@@@@@Util@@QAE@ABVString@1@@Z 00423bf0 f i foundation_win32.release:archivefilesystembase.obj
 0001:00022c60       ??0?$KeyValuePair@VString@Util@@V?$Ptr@VArchive@IO@@@@@Util@@QAE@ABVString@1@ABV?$Ptr@VArchive@IO@@@@@Z 00423c60 f i foundation_win32.release:archivefilesystembase.obj
 0001:00022cd0       ??$ValuesAs@V?$Array@V?$Ptr@VArchive@IO@@@@@Util@@@?$Dictionary@VString@Util@@V?$Ptr@VArchive@IO@@@@@Util@@QBE?AV?$Array@V?$Ptr@VArchive@IO@@@@@1@XZ 00423cd0 f i foundation_win32.release:archivefilesystembase.obj
 0001:00022d70       ?Copy@?$Array@V?$Ptr@VArchive@IO@@@@@Util@@AAEXABV12@@Z 00423d70 f i foundation_win32.release:archivefilesystembase.obj
 0001:00022ea0       ?Delete@?$Array@V?$Ptr@VArchive@IO@@@@@Util@@AAEXXZ 00423ea0 f i foundation_win32.release:archivefilesystembase.obj
 0001:00022f10       ??_E?$KeyValuePair@VString@Util@@V?$Ptr@VArchive@IO@@@@@Util@@QAEPAXI@Z 00423f10 f i foundation_win32.release:archivefilesystembase.obj
 0001:00022fb0       ??_E?$Ptr@VArchive@IO@@@@QAEPAXI@Z 00423fb0 f i foundation_win32.release:archivefilesystembase.obj
 0001:00023050       ?Insert@?$Array@V?$KeyValuePair@VString@Util@@V?$Ptr@VArchive@IO@@@@@Util@@@Util@@QAEXHABV?$KeyValuePair@VString@Util@@V?$Ptr@VArchive@IO@@@@@2@@Z 00424050 f i foundation_win32.release:archivefilesystembase.obj
 0001:000230c0       ?InsertAtEndOfIdenticalRange@?$Array@V?$KeyValuePair@VString@Util@@V?$Ptr@VArchive@IO@@@@@Util@@@Util@@QAEHHABV?$KeyValuePair@VString@Util@@V?$Ptr@VArchive@IO@@@@@2@@Z 004240c0 f i foundation_win32.release:archivefilesystembase.obj
 0001:00023140       ?Destroy@?$Array@V?$KeyValuePair@VString@Util@@V?$Ptr@VArchive@IO@@@@@Util@@@Util@@AAEXPAV?$KeyValuePair@VString@Util@@V?$Ptr@VArchive@IO@@@@@2@@Z 00424140 f i foundation_win32.release:archivefilesystembase.obj
 0001:00023170       ?Grow@?$Array@V?$KeyValuePair@VString@Util@@V?$Ptr@VArchive@IO@@@@@Util@@@Util@@AAEXXZ 00424170 f i foundation_win32.release:archivefilesystembase.obj
 0001:000231f0       ?Move@?$Array@V?$KeyValuePair@VString@Util@@V?$Ptr@VArchive@IO@@@@@Util@@@Util@@AAEXHH@Z 004241f0 f i foundation_win32.release:archivefilesystembase.obj
 0001:00023380       ??4?$KeyValuePair@VString@Util@@V?$Ptr@VArchive@IO@@@@@Util@@QAEXABV01@@Z 00424380 f i foundation_win32.release:archivefilesystembase.obj
 0001:000233e0       ??9?$KeyValuePair@VString@Util@@V?$Ptr@VArchive@IO@@@@@Util@@QBE_NABV01@@Z 004243e0 f i foundation_win32.release:archivefilesystembase.obj
 0001:00023400       ??O?$KeyValuePair@VString@Util@@V?$Ptr@VArchive@IO@@@@@Util@@QBE_NABV01@@Z 00424400 f i foundation_win32.release:archivefilesystembase.obj
 0001:00023420       ??M?$KeyValuePair@VString@Util@@V?$Ptr@VArchive@IO@@@@@Util@@QBE_NABV01@@Z 00424420 f i foundation_win32.release:archivefilesystembase.obj
 0001:00023440       ??0?$Array@V?$Ptr@VArchive@IO@@@@@Util@@QAE@HH@Z 00424440 f i foundation_win32.release:archivefilesystembase.obj
 0001:00023530       ?Append@?$Array@V?$Ptr@VArchive@IO@@@@@Util@@QAEXABV?$Ptr@VArchive@IO@@@@@Z 00424530 f i foundation_win32.release:archivefilesystembase.obj
 0001:000235b0       ??_G?$KeyValuePair@VString@Util@@V?$Ptr@VArchive@IO@@@@@Util@@QAEPAXI@Z 004245b0 f i foundation_win32.release:archivefilesystembase.obj
 0001:000235e0       ?GrowTo@?$Array@V?$KeyValuePair@VString@Util@@V?$Ptr@VArchive@IO@@@@@Util@@@Util@@AAEXH@Z 004245e0 f i foundation_win32.release:archivefilesystembase.obj
 0001:00023700       ?Grow@?$Array@V?$Ptr@VArchive@IO@@@@@Util@@AAEXXZ 00424700 f i foundation_win32.release:archivefilesystembase.obj
 0001:00023780       ??0?$KeyValuePair@VString@Util@@V?$Ptr@VArchive@IO@@@@@Util@@QAE@XZ 00424780 f i foundation_win32.release:archivefilesystembase.obj
 0001:000237c0       ?GrowTo@?$Array@V?$Ptr@VArchive@IO@@@@@Util@@AAEXH@Z 004247c0 f i foundation_win32.release:archivefilesystembase.obj
 0001:000238e0       ??0MediaType@IO@@QAE@XZ    004248e0 f i foundation_win32.release:stream.obj
 0001:00023950       ??4MediaType@IO@@QAEXABV01@@Z 00424950 f i foundation_win32.release:stream.obj
 0001:000239e0       ??2Stream@IO@@SAPAXI@Z     004249e0 f i foundation_win32.release:stream.obj
 0001:000239f0       ??3Stream@IO@@SAXPAX@Z     004249f0 f i foundation_win32.release:stream.obj
 0001:00023a10       ?GetRtti@Stream@IO@@UBEPAVRtti@Core@@XZ 00424a10 f   foundation_win32.release:stream.obj
 0001:00023a20       ?FactoryCreator@Stream@IO@@SAPAVRefCounted@Core@@XZ 00424a20 f   foundation_win32.release:stream.obj
 0001:00023a30       ?Create@Stream@IO@@SAPAV12@XZ 00424a30 f   foundation_win32.release:stream.obj
 0001:00023a70       ?RegisterWithFactory@Stream@IO@@SA_NXZ 00424a70 f   foundation_win32.release:stream.obj
 0001:00023b70       ??0Stream@IO@@QAE@XZ       00424b70 f   foundation_win32.release:stream.obj
 0001:00023bf0       ??_EStream@IO@@UAEPAXI@Z   00424bf0 f i  CIL library: CIL module
 0001:00023bf0       ??_GStream@IO@@UAEPAXI@Z   00424bf0 f i foundation_win32.release:stream.obj
 0001:00023c20       ??1MediaType@IO@@QAE@XZ    00424c20 f i foundation_win32.release:stream.obj
 0001:00023cb0       ??1Stream@IO@@UAE@XZ       00424cb0 f   foundation_win32.release:stream.obj
 0001:00023d30       ?SetURI@Stream@IO@@QAEXABVURI@2@@Z 00424d30 f   foundation_win32.release:stream.obj
 0001:00023d80       ?GetURI@Stream@IO@@QBEABVURI@2@XZ 00424d80 f   foundation_win32.release:stream.obj
 0001:00023da0       ?CanRead@Stream@IO@@UBE_NXZ 00424da0 f   foundation_win32.release:stream.obj
 0001:00023db0       ?CanWrite@Stream@IO@@UBE_NXZ 00424db0 f   foundation_win32.release:stream.obj
 0001:00023dc0       ?CanSeek@Stream@IO@@UBE_NXZ 00424dc0 f   foundation_win32.release:stream.obj
 0001:00023dd0       ?CanBeMapped@Stream@IO@@UBE_NXZ 00424dd0 f   foundation_win32.release:stream.obj
 0001:00023de0       ?SetSize@Stream@IO@@UAEXH@Z 00424de0 f   foundation_win32.release:stream.obj
 0001:00023e10       ?GetSize@Stream@IO@@UBEHXZ 00424e10 f   foundation_win32.release:stream.obj
 0001:00023e20       ?GetPosition@Stream@IO@@UBEHXZ 00424e20 f   foundation_win32.release:stream.obj
 0001:00023e30       ?SetAccessMode@Stream@IO@@QAEXW4AccessMode@12@@Z 00424e30 f   foundation_win32.release:stream.obj
 0001:00023e70       ?GetAccessMode@Stream@IO@@QBE?AW4AccessMode@12@XZ 00424e70 f   foundation_win32.release:stream.obj
 0001:00023e90       ?SetAccessPattern@Stream@IO@@QAEXW4AccessPattern@12@@Z 00424e90 f   foundation_win32.release:stream.obj
 0001:00023ed0       ?GetAccessPattern@Stream@IO@@QBE?AW4AccessPattern@12@XZ 00424ed0 f   foundation_win32.release:stream.obj
 0001:00023ef0       ?SetMediaType@Stream@IO@@QAEXABVMediaType@2@@Z 00424ef0 f   foundation_win32.release:stream.obj
 0001:00023f20       ?GetMediaType@Stream@IO@@QBEABVMediaType@2@XZ 00424f20 f   foundation_win32.release:stream.obj
 0001:00023f40       ?Open@Stream@IO@@UAE_NXZ   00424f40 f   foundation_win32.release:stream.obj
 0001:00023f80       ?Close@Stream@IO@@UAEXXZ   00424f80 f   foundation_win32.release:stream.obj
 0001:00023fc0       ?IsOpen@Stream@IO@@QBE_NXZ 00424fc0 f   foundation_win32.release:stream.obj
 0001:00023fe0       ?Write@Stream@IO@@UAEXPBXH@Z 00424fe0 f   foundation_win32.release:stream.obj
 0001:00024040       ?Read@Stream@IO@@UAEHPAXH@Z 00425040 f   foundation_win32.release:stream.obj
 0001:000240a0       ?Seek@Stream@IO@@UAEXHW4SeekOrigin@12@@Z 004250a0 f   foundation_win32.release:stream.obj
 0001:00024100       ?Flush@Stream@IO@@UAEXXZ   00425100 f   foundation_win32.release:stream.obj
 0001:00024160       ?Eof@Stream@IO@@UBE_NXZ    00425160 f   foundation_win32.release:stream.obj
 0001:000241c0       ?Map@Stream@IO@@UAEPAXXZ   004251c0 f   foundation_win32.release:stream.obj
 0001:00024250       ?Unmap@Stream@IO@@UAEXXZ   00425250 f   foundation_win32.release:stream.obj
 0001:000242e0       ?IsMapped@Stream@IO@@QBE_NXZ 004252e0 f   foundation_win32.release:stream.obj
 0001:00024300       ??0SystemInfoBase@Base@@QAE@XZ 00425300 f   foundation_win32.release:systeminfobase.obj
 0001:00024340       ?PlatformAsString@SystemInfoBase@Base@@SA?AVString@Util@@W4Platform@12@@Z 00425340 f   foundation_win32.release:systeminfobase.obj
 0001:00024490       ?CpuTypeAsString@SystemInfoBase@Base@@SA?AVString@Util@@W4CpuType@12@@Z 00425490 f   foundation_win32.release:systeminfobase.obj
 0001:000246c0       ??0Win360FileTime@Win360@@QAE@XZ 004256c0 f i foundation_win32.release:win360fswrapper.obj
 0001:000246f0       ?OpenFile@Win360FSWrapper@Win360@@SAPAXABVString@Util@@W4AccessMode@Stream@IO@@W4AccessPattern@67@K@Z 004256f0 f   foundation_win32.release:win360fswrapper.obj
 0001:00024850       ?CloseFile@Win360FSWrapper@Win360@@SAXPAX@Z 00425850 f   foundation_win32.release:win360fswrapper.obj
 0001:00024880       ?Write@Win360FSWrapper@Win360@@SAXPAXPBXH@Z 00425880 f   foundation_win32.release:win360fswrapper.obj
 0001:00024910       ?Read@Win360FSWrapper@Win360@@SAHPAX0H@Z 00425910 f   foundation_win32.release:win360fswrapper.obj
 0001:000249b0       ?Seek@Win360FSWrapper@Win360@@SAXPAXHW4SeekOrigin@Stream@IO@@@Z 004259b0 f   foundation_win32.release:win360fswrapper.obj
 0001:00024a30       ?Tell@Win360FSWrapper@Win360@@SAHPAX@Z 00425a30 f   foundation_win32.release:win360fswrapper.obj
 0001:00024a70       ?Flush@Win360FSWrapper@Win360@@SAXPAX@Z 00425a70 f   foundation_win32.release:win360fswrapper.obj
 0001:00024aa0       ?Eof@Win360FSWrapper@Win360@@SA_NPAX@Z 00425aa0 f   foundation_win32.release:win360fswrapper.obj
 0001:00024b00       ?GetFileSize@Win360FSWrapper@Win360@@SAHPAX@Z 00425b00 f   foundation_win32.release:win360fswrapper.obj
 0001:00024b30       ?SetReadOnly@Win360FSWrapper@Win360@@SAXABVString@Util@@_N@Z 00425b30 f   foundation_win32.release:win360fswrapper.obj
 0001:00024c00       ?IsReadOnly@Win360FSWrapper@Win360@@SA_NABVString@Util@@@Z 00425c00 f   foundation_win32.release:win360fswrapper.obj
 0001:00024c70       ?DeleteFile@Win360FSWrapper@Win360@@SA_NABVString@Util@@@Z 00425c70 f   foundation_win32.release:win360fswrapper.obj
 0001:00024ce0       ?DeleteDirectory@Win360FSWrapper@Win360@@SA_NABVString@Util@@@Z 00425ce0 f   foundation_win32.release:win360fswrapper.obj
 0001:00024d50       ?FileExists@Win360FSWrapper@Win360@@SA_NABVString@Util@@@Z 00425d50 f   foundation_win32.release:win360fswrapper.obj
 0001:00024dd0       ?DirectoryExists@Win360FSWrapper@Win360@@SA_NABVString@Util@@@Z 00425dd0 f   foundation_win32.release:win360fswrapper.obj
 0001:00024e50       ?SetFileWriteTime@Win360FSWrapper@Win360@@SAXABVString@Util@@VWin360FileTime@2@@Z 00425e50 f   foundation_win32.release:win360fswrapper.obj
 0001:00024ef0       ?GetFileWriteTime@Win360FSWrapper@Win360@@SA?AVWin360FileTime@2@ABVString@Util@@@Z 00425ef0 f   foundation_win32.release:win360fswrapper.obj
 0001:00024f80       ?CreateDirectoryA@Win360FSWrapper@Win360@@SA_NABVString@Util@@@Z 00425f80 f   foundation_win32.release:win360fswrapper.obj
 0001:00024ff0       ?ListFiles@Win360FSWrapper@Win360@@SA?AV?$Array@VString@Util@@@Util@@ABVString@4@0@Z 00425ff0 f   foundation_win32.release:win360fswrapper.obj
 0001:00025240       ?ListDirectories@Win360FSWrapper@Win360@@SA?AV?$Array@VString@Util@@@Util@@ABVString@4@0@Z 00426240 f   foundation_win32.release:win360fswrapper.obj
 0001:000255f0       ?GetUserDirectory@Win360FSWrapper@Win360@@SA?AVString@Util@@XZ 004265f0 f   foundation_win32.release:win360fswrapper.obj
 0001:00025720       ?GetAppDataDirectory@Win360FSWrapper@Win360@@SA?AVString@Util@@XZ 00426720 f   foundation_win32.release:win360fswrapper.obj
 0001:00025850       ?GetProgramsDirectory@Win360FSWrapper@Win360@@SA?AVString@Util@@XZ 00426850 f   foundation_win32.release:win360fswrapper.obj
 0001:00025980       ?GetTempDirectory@Win360FSWrapper@Win360@@SA?AVString@Util@@XZ 00426980 f   foundation_win32.release:win360fswrapper.obj
 0001:00025b10       ?GetBinDirectory@Win360FSWrapper@Win360@@SA?AVString@Util@@XZ 00426b10 f   foundation_win32.release:win360fswrapper.obj
 0001:00025d40       ?GetHomeDirectory@Win360FSWrapper@Win360@@SA?AVString@Util@@XZ 00426d40 f   foundation_win32.release:win360fswrapper.obj
 0001:000260b0       ?IsDeviceName@Win360FSWrapper@Win360@@SA_NABVString@Util@@@Z 004270b0 f   foundation_win32.release:win360fswrapper.obj
 0001:00026140       ??0Crc@Util@@QAE@XZ        00427140 f   foundation_win32.release:crc.obj
 0001:00026200       ?Begin@Crc@Util@@QAEXXZ    00427200 f   foundation_win32.release:crc.obj
 0001:00026240       ?Compute@Crc@Util@@QAEXPAEI@Z 00427240 f   foundation_win32.release:crc.obj
 0001:000262c0       ?End@Crc@Util@@QAEXXZ      004272c0 f   foundation_win32.release:crc.obj
 0001:00026300       ?GetResult@Crc@Util@@QBEIXZ 00427300 f   foundation_win32.release:crc.obj
 0001:00026350       ?IsValid@ArchiveBase@IO@@QBE_NXZ 00427350 f i foundation_win32.release:ziparchive.obj
 0001:00026370       ?GetName@ZipFileEntry@IO@@QBEABVStringAtom@Util@@XZ 00427370 f i foundation_win32.release:ziparchive.obj
 0001:00026390       ?GetName@ZipDirEntry@IO@@QBEABVStringAtom@Util@@XZ 00427390 f i foundation_win32.release:ziparchive.obj
 0001:000263a0       ?GetDirEntries@ZipDirEntry@IO@@QBEABV?$Array@VZipDirEntry@IO@@@Util@@XZ 004273a0 f i foundation_win32.release:ziparchive.obj
 0001:000263c0       ?GetFileEntries@ZipDirEntry@IO@@QBEABV?$Array@VZipFileEntry@IO@@@Util@@XZ 004273c0 f i foundation_win32.release:ziparchive.obj
 0001:000263e0       ??2ZipArchive@IO@@SAPAXI@Z 004273e0 f i foundation_win32.release:ziparchive.obj
 0001:000263f0       ??3ZipArchive@IO@@SAXPAX@Z 004273f0 f i foundation_win32.release:ziparchive.obj
 0001:00026410       ?GetRtti@ZipArchive@IO@@UBEPAVRtti@Core@@XZ 00427410 f   foundation_win32.release:ziparchive.obj
 0001:00026420       ?FactoryCreator@ZipArchive@IO@@SAPAVRefCounted@Core@@XZ 00427420 f   foundation_win32.release:ziparchive.obj
 0001:00026430       ?Create@ZipArchive@IO@@SAPAV12@XZ 00427430 f   foundation_win32.release:ziparchive.obj
 0001:00026470       ?RegisterWithFactory@ZipArchive@IO@@SA_NXZ 00427470 f   foundation_win32.release:ziparchive.obj
 0001:00026570       ??0ZipArchive@IO@@QAE@XZ   00427570 f   foundation_win32.release:ziparchive.obj
 0001:000265f0       ??_GZipArchive@IO@@UAEPAXI@Z 004275f0 f i foundation_win32.release:ziparchive.obj
 0001:000265f0       ??_EZipArchive@IO@@UAEPAXI@Z 004275f0 f i  CIL library: CIL module
 0001:00026620       ??1ZipDirEntry@IO@@QAE@XZ  00427620 f i foundation_win32.release:ziparchive.obj
 0001:00026660       ??1?$Dictionary@VStringAtom@Util@@H@Util@@QAE@XZ 00427660 f i foundation_win32.release:ziparchive.obj
 0001:00026680       ??1ZipArchive@IO@@UAE@XZ   00427680 f   foundation_win32.release:ziparchive.obj
 0001:00026720       ?Setup@ZipArchive@IO@@QAE_NABVURI@2@@Z 00427720 f   foundation_win32.release:ziparchive.obj
 0001:000269a0       ?Discard@ZipArchive@IO@@QAEXXZ 004279a0 f   foundation_win32.release:ziparchive.obj
 0001:00026a00       ?ParseTableOfContents@ZipArchive@IO@@AAEXXZ 00427a00 f   foundation_win32.release:ziparchive.obj
 0001:00026c00       ?AddEntry@ZipArchive@IO@@AAEXABVString@Util@@@Z 00427c00 f   foundation_win32.release:ziparchive.obj
 0001:00026e40       ?ConvertToPathInArchive@ZipArchive@IO@@QBE?AVString@Util@@ABV34@@Z 00427e40 f   foundation_win32.release:ziparchive.obj
 0001:00026f70       ?FindFileEntry@ZipArchive@IO@@ABEPBVZipFileEntry@2@ABVString@Util@@@Z 00427f70 f   foundation_win32.release:ziparchive.obj
 0001:00027120       ?FindFileEntry@ZipArchive@IO@@AAEPAVZipFileEntry@2@ABVString@Util@@@Z 00428120 f   foundation_win32.release:ziparchive.obj
 0001:00027150       ?FindDirEntry@ZipArchive@IO@@ABEPBVZipDirEntry@2@ABVString@Util@@@Z 00428150 f   foundation_win32.release:ziparchive.obj
 0001:000272a0       ?ListFiles@ZipArchive@IO@@QBE?AV?$Array@VString@Util@@@Util@@ABVString@4@0@Z 004282a0 f   foundation_win32.release:ziparchive.obj
 0001:00027380       ?ListDirectories@ZipArchive@IO@@QBE?AV?$Array@VString@Util@@@Util@@ABVString@4@0@Z 00428380 f   foundation_win32.release:ziparchive.obj
 0001:00027460       ?ConvertToArchiveURI@ZipArchive@IO@@QBE?AVURI@2@ABV32@@Z 00428460 f   foundation_win32.release:ziparchive.obj
 0001:00027790       ??1?$Array@VZipFileEntry@IO@@@Util@@QAE@XZ 00428790 f i foundation_win32.release:ziparchive.obj
 0001:000277b0       ??A?$Array@VZipFileEntry@IO@@@Util@@QBEAAVZipFileEntry@IO@@H@Z 004287b0 f i foundation_win32.release:ziparchive.obj
 0001:00027800       ?Size@?$Array@VZipFileEntry@IO@@@Util@@QBEHXZ 00428800 f i foundation_win32.release:ziparchive.obj
 0001:00027820       ??1?$Array@VZipDirEntry@IO@@@Util@@QAE@XZ 00428820 f i foundation_win32.release:ziparchive.obj
 0001:00027840       ??A?$Array@VZipDirEntry@IO@@@Util@@QBEAAVZipDirEntry@IO@@H@Z 00428840 f i foundation_win32.release:ziparchive.obj
 0001:00027890       ?Size@?$Array@VZipDirEntry@IO@@@Util@@QBEHXZ 00428890 f i foundation_win32.release:ziparchive.obj
 0001:000278b0       ??1?$Array@V?$KeyValuePair@VStringAtom@Util@@H@Util@@@Util@@QAE@XZ 004288b0 f i foundation_win32.release:ziparchive.obj
 0001:000278d0       ?Delete@?$Array@VZipFileEntry@IO@@@Util@@AAEXXZ 004288d0 f i foundation_win32.release:ziparchive.obj
 0001:00027940       ?Delete@?$Array@VZipDirEntry@IO@@@Util@@AAEXXZ 00428940 f i foundation_win32.release:ziparchive.obj
 0001:000279b0       ?Delete@?$Array@V?$KeyValuePair@VStringAtom@Util@@H@Util@@@Util@@AAEXXZ 004289b0 f i foundation_win32.release:ziparchive.obj
 0001:00027a10       ??_EZipFileEntry@IO@@QAEPAXI@Z 00428a10 f i foundation_win32.release:ziparchive.obj
 0001:00027ab0       ??_EZipDirEntry@IO@@QAEPAXI@Z 00428ab0 f i foundation_win32.release:ziparchive.obj
 0001:00027b50       ??2ConsoleHandler@IO@@SAPAXI@Z 00428b50 f i foundation_win32.release:consolehandler.obj
 0001:00027b60       ??3ConsoleHandler@IO@@SAXPAX@Z 00428b60 f i foundation_win32.release:consolehandler.obj
 0001:00027b80       ?GetRtti@ConsoleHandler@IO@@UBEPAVRtti@Core@@XZ 00428b80 f   foundation_win32.release:consolehandler.obj
 0001:00027b90       ?FactoryCreator@ConsoleHandler@IO@@SAPAVRefCounted@Core@@XZ 00428b90 f   foundation_win32.release:consolehandler.obj
 0001:00027ba0       ?Create@ConsoleHandler@IO@@SAPAV12@XZ 00428ba0 f   foundation_win32.release:consolehandler.obj
 0001:00027be0       ?RegisterWithFactory@ConsoleHandler@IO@@SA_NXZ 00428be0 f   foundation_win32.release:consolehandler.obj
 0001:00027ce0       ??0ConsoleHandler@IO@@QAE@XZ 00428ce0 f   foundation_win32.release:consolehandler.obj
 0001:00027d20       ??_EConsoleHandler@IO@@UAEPAXI@Z 00428d20 f i  CIL library: CIL module
 0001:00027d20       ??_GConsoleHandler@IO@@UAEPAXI@Z 00428d20 f i foundation_win32.release:consolehandler.obj
 0001:00027d50       ??1ConsoleHandler@IO@@UAE@XZ 00428d50 f   foundation_win32.release:consolehandler.obj
 0001:00027d90       ?Open@ConsoleHandler@IO@@UAEXXZ 00428d90 f   foundation_win32.release:consolehandler.obj
 0001:00027dd0       ?Close@ConsoleHandler@IO@@UAEXXZ 00428dd0 f   foundation_win32.release:consolehandler.obj
 0001:00027e10       ?Update@ConsoleHandler@IO@@UAEXXZ 00428e10 f   foundation_win32.release:consolehandler.obj
 0001:00027e50       ?Print@ConsoleHandler@IO@@UAEXABVString@Util@@@Z 00428e50 f   foundation_win32.release:consolehandler.obj
 0001:00027e60       ?Error@ConsoleHandler@IO@@UAEXABVString@Util@@@Z 00428e60 f   foundation_win32.release:consolehandler.obj
 0001:00027e70       ?Warning@ConsoleHandler@IO@@UAEXABVString@Util@@@Z 00428e70 f   foundation_win32.release:consolehandler.obj
 0001:00027e80       ?Confirm@ConsoleHandler@IO@@UAEXABVString@Util@@@Z 00428e80 f   foundation_win32.release:consolehandler.obj
 0001:00027e90       ?DebugOut@ConsoleHandler@IO@@UAEXABVString@Util@@@Z 00428e90 f   foundation_win32.release:consolehandler.obj
 0001:00027ea0       ?HasInput@ConsoleHandler@IO@@UAE_NXZ 00428ea0 f   foundation_win32.release:consolehandler.obj
 0001:00027eb0       ?GetInput@ConsoleHandler@IO@@UAE?AVString@Util@@XZ 00428eb0 f   foundation_win32.release:consolehandler.obj
 0001:00027f00       ?SetInt@String@Util@@QAEXH@Z 00428f00 f i foundation_win32.release:calendartimebase.obj
 0001:00027f30       ?FromInt@String@Util@@SA?AV12@H@Z 00428f30 f i foundation_win32.release:calendartimebase.obj
 0001:00027f80       ?AppendInt@String@Util@@QAEXH@Z 00428f80 f i foundation_win32.release:calendartimebase.obj
 0001:00028000       ??0CalendarTimeBase@Base@@QAE@XZ 00429000 f   foundation_win32.release:calendartimebase.obj
 0001:00028060       ?Format@CalendarTimeBase@Base@@SA?AVString@Util@@ABV34@ABVCalendarTime@Timing@@@Z 00429060 f   foundation_win32.release:calendartimebase.obj
 0001:000289b0       ?MonthToString@CalendarTimeBase@Base@@SA?AVString@Util@@W4Month@12@@Z 004299b0 f   foundation_win32.release:calendartimebase.obj
 0001:00028cf0       ?StringToMonth@CalendarTimeBase@Base@@SA?AW4Month@12@ABVString@Util@@@Z 00429cf0 f   foundation_win32.release:calendartimebase.obj
 0001:00028ef0       ?WeekdayToString@CalendarTimeBase@Base@@SA?AVString@Util@@W4Weekday@12@@Z 00429ef0 f   foundation_win32.release:calendartimebase.obj
 0001:000290f0       ?StringToWeekday@CalendarTimeBase@Base@@SA?AW4Weekday@12@ABVString@Util@@@Z 0042a0f0 f   foundation_win32.release:calendartimebase.obj
 0001:00029230       ?SetYear@CalendarTimeBase@Base@@QAEXI@Z 0042a230 f   foundation_win32.release:calendartimebase.obj
 0001:00029250       ?GetYear@CalendarTimeBase@Base@@QBEIXZ 0042a250 f   foundation_win32.release:calendartimebase.obj
 0001:00029260       ?SetMonth@CalendarTimeBase@Base@@QAEXW4Month@12@@Z 0042a260 f   foundation_win32.release:calendartimebase.obj
 0001:00029280       ?GetMonth@CalendarTimeBase@Base@@QBE?AW4Month@12@XZ 0042a280 f   foundation_win32.release:calendartimebase.obj
 0001:000292a0       ?SetWeekday@CalendarTimeBase@Base@@QAEXW4Weekday@12@@Z 0042a2a0 f   foundation_win32.release:calendartimebase.obj
 0001:000292c0       ?GetWeekday@CalendarTimeBase@Base@@QBE?AW4Weekday@12@XZ 0042a2c0 f   foundation_win32.release:calendartimebase.obj
 0001:000292e0       ?SetDay@CalendarTimeBase@Base@@QAEXI@Z 0042a2e0 f   foundation_win32.release:calendartimebase.obj
 0001:00029300       ?GetDay@CalendarTimeBase@Base@@QBEIXZ 0042a300 f   foundation_win32.release:calendartimebase.obj
 0001:00029320       ?SetHour@CalendarTimeBase@Base@@QAEXI@Z 0042a320 f   foundation_win32.release:calendartimebase.obj
 0001:00029340       ?GetHour@CalendarTimeBase@Base@@QBEIXZ 0042a340 f   foundation_win32.release:calendartimebase.obj
 0001:00029360       ?SetMinute@CalendarTimeBase@Base@@QAEXI@Z 0042a360 f   foundation_win32.release:calendartimebase.obj
 0001:00029380       ?GetMinute@CalendarTimeBase@Base@@QBEIXZ 0042a380 f   foundation_win32.release:calendartimebase.obj
 0001:000293a0       ?SetSecond@CalendarTimeBase@Base@@QAEXI@Z 0042a3a0 f   foundation_win32.release:calendartimebase.obj
 0001:000293c0       ?GetSecond@CalendarTimeBase@Base@@QBEIXZ 0042a3c0 f   foundation_win32.release:calendartimebase.obj
 0001:000293e0       ?SetMilliSecond@CalendarTimeBase@Base@@QAEXI@Z 0042a3e0 f   foundation_win32.release:calendartimebase.obj
 0001:00029400       ?GetMilliSecond@CalendarTimeBase@Base@@QBEIXZ 0042a400 f   foundation_win32.release:calendartimebase.obj
 0001:00029420       ?FromWin32SystemTime@Win360CalendarTime@Win360@@CA?AVCalendarTime@Timing@@ABU_SYSTEMTIME@@@Z 0042a420 f   foundation_win32.release:win360calendartime.obj
 0001:000294a0       ??0CalendarTime@Timing@@QAE@XZ 0042a4a0 f i foundation_win32.release:win360calendartime.obj
 0001:000294c0       ??0Win360CalendarTime@Win360@@QAE@XZ 0042a4c0 f i foundation_win32.release:win360calendartime.obj
 0001:000294e0       ?ToWin32SystemTime@Win360CalendarTime@Win360@@CA?AU_SYSTEMTIME@@ABVCalendarTime@Timing@@@Z 0042a4e0 f   foundation_win32.release:win360calendartime.obj
 0001:00029560       ?GetSystemTime@Win360CalendarTime@Win360@@SA?AVCalendarTime@Timing@@XZ 0042a560 f   foundation_win32.release:win360calendartime.obj
 0001:00029590       ?GetLocalTime@Win360CalendarTime@Win360@@SA?AVCalendarTime@Timing@@XZ 0042a590 f   foundation_win32.release:win360calendartime.obj
 0001:000295c0       ?SystemTimeToFileTime@Win360CalendarTime@Win360@@SA?AVWin360FileTime@2@ABVCalendarTime@Timing@@@Z 0042a5c0 f   foundation_win32.release:win360calendartime.obj
 0001:00029640       ?FileTimeToSystemTime@Win360CalendarTime@Win360@@SA?AVCalendarTime@Timing@@ABVWin360FileTime@2@@Z 0042a640 f   foundation_win32.release:win360calendartime.obj
 0001:00029670       ?LocalTimeToFileTime@Win360CalendarTime@Win360@@SA?AVWin360FileTime@2@ABVCalendarTime@Timing@@@Z 0042a670 f   foundation_win32.release:win360calendartime.obj
 0001:00029710       ?FileTimeToLocalTime@Win360CalendarTime@Win360@@SA?AVCalendarTime@Timing@@ABVWin360FileTime@2@@Z 0042a710 f   foundation_win32.release:win360calendartime.obj
 0001:00029760       ??2TextWriter@IO@@SAPAXI@Z 0042a760 f i foundation_win32.release:textwriter.obj
 0001:00029770       ??3TextWriter@IO@@SAXPAX@Z 0042a770 f i foundation_win32.release:textwriter.obj
 0001:00029790       ?GetRtti@TextWriter@IO@@UBEPAVRtti@Core@@XZ 0042a790 f   foundation_win32.release:textwriter.obj
 0001:000297a0       ?FactoryCreator@TextWriter@IO@@SAPAVRefCounted@Core@@XZ 0042a7a0 f   foundation_win32.release:textwriter.obj
 0001:000297b0       ?Create@TextWriter@IO@@SAPAV12@XZ 0042a7b0 f   foundation_win32.release:textwriter.obj
 0001:000297f0       ?RegisterWithFactory@TextWriter@IO@@SA_NXZ 0042a7f0 f   foundation_win32.release:textwriter.obj
 0001:000298f0       ??0TextWriter@IO@@QAE@XZ   0042a8f0 f   foundation_win32.release:textwriter.obj
 0001:00029910       ??_ETextWriter@IO@@UAEPAXI@Z 0042a910 f i  CIL library: CIL module
 0001:00029910       ??_GTextWriter@IO@@UAEPAXI@Z 0042a910 f i foundation_win32.release:textwriter.obj
 0001:00029940       ??1TextWriter@IO@@UAE@XZ   0042a940 f   foundation_win32.release:textwriter.obj
 0001:00029980       ?WriteChar@TextWriter@IO@@QAEXE@Z 0042a980 f   foundation_win32.release:textwriter.obj
 0001:000299b0       ?WriteString@TextWriter@IO@@QAEXABVString@Util@@@Z 0042a9b0 f   foundation_win32.release:textwriter.obj
 0001:00029a10       ?WriteFormatted@TextWriter@IO@@QAAXPBDZZ 0042aa10 f   foundation_win32.release:textwriter.obj
 0001:00029aa0       ?WriteLine@TextWriter@IO@@QAEXABVString@Util@@@Z 0042aaa0 f   foundation_win32.release:textwriter.obj
 0001:00029ad0       ?WriteLines@TextWriter@IO@@QAEXABV?$Array@VString@Util@@@Util@@@Z 0042aad0 f   foundation_win32.release:textwriter.obj
 0001:00029b20       ??2StreamWriter@IO@@SAPAXI@Z 0042ab20 f i foundation_win32.release:streamwriter.obj
 0001:00029b30       ??3StreamWriter@IO@@SAXPAX@Z 0042ab30 f i foundation_win32.release:streamwriter.obj
 0001:00029b50       ?GetRtti@StreamWriter@IO@@UBEPAVRtti@Core@@XZ 0042ab50 f   foundation_win32.release:streamwriter.obj
 0001:00029b60       ?FactoryCreator@StreamWriter@IO@@SAPAVRefCounted@Core@@XZ 0042ab60 f   foundation_win32.release:streamwriter.obj
 0001:00029b70       ?Create@StreamWriter@IO@@SAPAV12@XZ 0042ab70 f   foundation_win32.release:streamwriter.obj
 0001:00029bb0       ?RegisterWithFactory@StreamWriter@IO@@SA_NXZ 0042abb0 f   foundation_win32.release:streamwriter.obj
 0001:00029cb0       ??0StreamWriter@IO@@QAE@XZ 0042acb0 f   foundation_win32.release:streamwriter.obj
 0001:00029d00       ??_EStreamWriter@IO@@UAEPAXI@Z 0042ad00 f i  CIL library: CIL module
 0001:00029d00       ??_GStreamWriter@IO@@UAEPAXI@Z 0042ad00 f i foundation_win32.release:streamwriter.obj
 0001:00029d30       ??1StreamWriter@IO@@UAE@XZ 0042ad30 f   foundation_win32.release:streamwriter.obj
 0001:00029d80       ?SetStream@StreamWriter@IO@@QAEXABV?$Ptr@VStream@IO@@@@@Z 0042ad80 f   foundation_win32.release:streamwriter.obj
 0001:00029da0       ?GetStream@StreamWriter@IO@@QBEABV?$Ptr@VStream@IO@@@@XZ 0042ada0 f   foundation_win32.release:streamwriter.obj
 0001:00029dc0       ?HasStream@StreamWriter@IO@@QBE_NXZ 0042adc0 f   foundation_win32.release:streamwriter.obj
 0001:00029de0       ?Open@StreamWriter@IO@@UAE_NXZ 0042ade0 f   foundation_win32.release:streamwriter.obj
 0001:00029f30       ?Close@StreamWriter@IO@@UAEXXZ 0042af30 f   foundation_win32.release:streamwriter.obj
 0001:00029fb0       ?isvalid@?$Ptr@VStream@IO@@@@QBE_NXZ 0042afb0 f i foundation_win32.release:streamwriter.obj
 0001:00029fd0       ?Add@Win360Interlocked@Win360@@SAHACHH@Z 0042afd0 f i foundation_win32.release:tpworkerthread.obj
 0001:00029fe0       ?n_min@Math@@YAHHH@Z       0042afe0 f i foundation_win32.release:tpworkerthread.obj
 0001:0002a010       ?ThreadStopRequested@Win360Thread@Win360@@IBE_NXZ 0042b010 f i foundation_win32.release:tpworkerthread.obj
 0001:0002a040       ??3Thread@Threading@@SAXPAX@Z 0042b040 f i foundation_win32.release:tpworkerthread.obj
 0001:0002a060       ?GetJob@TPJobSlice@Jobs@@QBEPAVTPJob@2@XZ 0042b060 f i foundation_win32.release:tpworkerthread.obj
 0001:0002a070       ?GetSliceIndex@TPJobSlice@Jobs@@QBEHXZ 0042b070 f i foundation_win32.release:tpworkerthread.obj
 0001:0002a090       ?GetCode@TPJobCommand@Jobs@@QBE?AW4Code@12@XZ 0042b090 f i foundation_win32.release:tpworkerthread.obj
 0001:0002a0a0       ?GetSyncEvent@TPJobCommand@Jobs@@QBEPBVEvent@Threading@@XZ 0042b0a0 f i foundation_win32.release:tpworkerthread.obj
 0001:0002a0d0       ?GetFirstSlice@TPJobCommand@Jobs@@QBEPAVTPJobSlice@2@XZ 0042b0d0 f i foundation_win32.release:tpworkerthread.obj
 0001:0002a100       ?GetNumSlices@TPJobCommand@Jobs@@QBEGXZ 0042b100 f i foundation_win32.release:tpworkerthread.obj
 0001:0002a120       ?GetStride@TPJobCommand@Jobs@@QBEGXZ 0042b120 f i foundation_win32.release:tpworkerthread.obj
 0001:0002a140       ?Start@DebugTimer@Debug@@QAEXXZ 0042b140 f i foundation_win32.release:tpworkerthread.obj
 0001:0002a160       ?Stop@DebugTimer@Debug@@QAEXXZ 0042b160 f i foundation_win32.release:tpworkerthread.obj
 0001:0002a1e0       ??2TPWorkerThread@Jobs@@SAPAXI@Z 0042b1e0 f i foundation_win32.release:tpworkerthread.obj
 0001:0002a1f0       ??3TPWorkerThread@Jobs@@SAXPAX@Z 0042b1f0 f i foundation_win32.release:tpworkerthread.obj
 0001:0002a210       ?GetNumBuffers@JobUniformDesc@Jobs@@QBEHXZ 0042b210 f i foundation_win32.release:tpworkerthread.obj
 0001:0002a220       ?GetPointer@JobUniformDesc@Jobs@@QBEPAXH@Z 0042b220 f i foundation_win32.release:tpworkerthread.obj
 0001:0002a260       ?GetBufferSize@JobUniformDesc@Jobs@@QBEHH@Z 0042b260 f i foundation_win32.release:tpworkerthread.obj
 0001:0002a2a0       ?GetScratchSize@JobUniformDesc@Jobs@@QBEHXZ 0042b2a0 f i foundation_win32.release:tpworkerthread.obj
 0001:0002a2c0       ?GetPointer@JobDataDesc@Jobs@@QBEPAXH@Z 0042b2c0 f i foundation_win32.release:tpworkerthread.obj
 0001:0002a300       ?GetFunctionPointer@TPJobFuncDesc@Jobs@@QBEP6AXABUJobFuncContext@@@ZXZ 0042b300 f i foundation_win32.release:tpworkerthread.obj
 0001:0002a310       ?GetUniformDesc@JobBase@Base@@QBEABVJobUniformDesc@Jobs@@XZ 0042b310 f i foundation_win32.release:tpworkerthread.obj
 0001:0002a330       ?GetInputDesc@JobBase@Base@@QBEABVJobDataDesc@Jobs@@XZ 0042b330 f i foundation_win32.release:tpworkerthread.obj
 0001:0002a350       ?GetOutputDesc@JobBase@Base@@QBEABVJobDataDesc@Jobs@@XZ 0042b350 f i foundation_win32.release:tpworkerthread.obj
 0001:0002a370       ?GetFuncDesc@JobBase@Base@@QBEABVTPJobFuncDesc@Jobs@@XZ 0042b370 f i foundation_win32.release:tpworkerthread.obj
 0001:0002a390       ?NotifySlicesComplete@TPJob@Jobs@@AAEXG@Z 0042b390 f i foundation_win32.release:tpworkerthread.obj
 0001:0002a3d0       ?HasInstance@DebugServer@Debug@@SA_NXZ 0042b3d0 f i foundation_win32.release:tpworkerthread.obj
 0001:0002a3f0       ?GetRtti@TPWorkerThread@Jobs@@UBEPAVRtti@Core@@XZ 0042b3f0 f   foundation_win32.release:tpworkerthread.obj
 0001:0002a400       ?FactoryCreator@TPWorkerThread@Jobs@@SAPAVRefCounted@Core@@XZ 0042b400 f   foundation_win32.release:tpworkerthread.obj
 0001:0002a410       ?Create@TPWorkerThread@Jobs@@SAPAV12@XZ 0042b410 f   foundation_win32.release:tpworkerthread.obj
 0001:0002a450       ?RegisterWithFactory@TPWorkerThread@Jobs@@SA_NXZ 0042b450 f   foundation_win32.release:tpworkerthread.obj
 0001:0002a550       ??0TPWorkerThread@Jobs@@QAE@XZ 0042b550 f   foundation_win32.release:tpworkerthread.obj
 0001:0002a5b0       ??_ETPWorkerThread@Jobs@@UAEPAXI@Z 0042b5b0 f i  CIL library: CIL module
 0001:0002a5b0       ??_GTPWorkerThread@Jobs@@UAEPAXI@Z 0042b5b0 f i foundation_win32.release:tpworkerthread.obj
 0001:0002a5e0       ??0Thread@Threading@@QAE@XZ 0042b5e0 f i foundation_win32.release:tpworkerthread.obj
 0001:0002a600       ??1Thread@Threading@@UAE@XZ 0042b600 f i foundation_win32.release:tpworkerthread.obj
 0001:0002a620       ??1?$SafeQueue@VTPJobCommand@Jobs@@@Threading@@QAE@XZ 0042b620 f i foundation_win32.release:tpworkerthread.obj
 0001:0002a660       ??_EThread@Threading@@UAEPAXI@Z 0042b660 f i  CIL library: CIL module
 0001:0002a660       ??_GThread@Threading@@UAEPAXI@Z 0042b660 f i foundation_win32.release:tpworkerthread.obj
 0001:0002a690       ??1?$Queue@VTPJobCommand@Jobs@@@Util@@QAE@XZ 0042b690 f i foundation_win32.release:tpworkerthread.obj
 0001:0002a6b0       ??1TPWorkerThread@Jobs@@UAE@XZ 0042b6b0 f   foundation_win32.release:tpworkerthread.obj
 0001:0002a710       ?EmitWakeupSignal@TPWorkerThread@Jobs@@UAEXXZ 0042b710 f   foundation_win32.release:tpworkerthread.obj
 0001:0002a730       ?PushJobCommand@TPWorkerThread@Jobs@@QAEXABVTPJobCommand@2@@Z 0042b730 f   foundation_win32.release:tpworkerthread.obj
 0001:0002a750       ?DoWork@TPWorkerThread@Jobs@@UAEXXZ 0042b750 f   foundation_win32.release:tpworkerthread.obj
 0001:0002a8e0       ?ProcessJobSlices@TPWorkerThread@Jobs@@AAEXPAVTPJobSlice@2@GG@Z 0042b8e0 f   foundation_win32.release:tpworkerthread.obj
 0001:0002af00       ?Stop@TPWorkerThread@Jobs@@QAEXXZ 0042bf00 f   foundation_win32.release:tpworkerthread.obj
 0001:0002af50       ?Add@?$RingBuffer@N@Util@@QAEXABN@Z 0042bf50 f i foundation_win32.release:tpworkerthread.obj
 0001:0002b000       ??0?$Array@VTPJobCommand@Jobs@@@Util@@QAE@XZ 0042c000 f i foundation_win32.release:tpworkerthread.obj
 0001:0002b040       ??1?$Array@VTPJobCommand@Jobs@@@Util@@QAE@XZ 0042c040 f i foundation_win32.release:tpworkerthread.obj
 0001:0002b060       ??A?$Array@VTPJobCommand@Jobs@@@Util@@QBEAAVTPJobCommand@Jobs@@H@Z 0042c060 f i foundation_win32.release:tpworkerthread.obj
 0001:0002b0b0       ?Size@?$Array@VTPJobCommand@Jobs@@@Util@@QBEHXZ 0042c0b0 f i foundation_win32.release:tpworkerthread.obj
 0001:0002b0d0       ??0?$SafeQueue@VTPJobCommand@Jobs@@@Threading@@QAE@XZ 0042c0d0 f i foundation_win32.release:tpworkerthread.obj
 0001:0002b140       ?SetSignalOnEnqueueEnabled@?$SafeQueue@VTPJobCommand@Jobs@@@Threading@@QAEX_N@Z 0042c140 f i foundation_win32.release:tpworkerthread.obj
 0001:0002b190       ?IsEmpty@?$SafeQueue@VTPJobCommand@Jobs@@@Threading@@QBE_NXZ 0042c190 f i foundation_win32.release:tpworkerthread.obj
 0001:0002b1e0       ?Enqueue@?$SafeQueue@VTPJobCommand@Jobs@@@Threading@@QAEXABVTPJobCommand@Jobs@@@Z 0042c1e0 f i foundation_win32.release:tpworkerthread.obj
 0001:0002b250       ?DequeueAll@?$SafeQueue@VTPJobCommand@Jobs@@@Threading@@QAEXAAV?$Array@VTPJobCommand@Jobs@@@Util@@@Z 0042c250 f i foundation_win32.release:tpworkerthread.obj
 0001:0002b2b0       ?Wait@?$SafeQueue@VTPJobCommand@Jobs@@@Threading@@QAEXXZ 0042c2b0 f i foundation_win32.release:tpworkerthread.obj
 0001:0002b2f0       ?Signal@?$SafeQueue@VTPJobCommand@Jobs@@@Threading@@QAEXXZ 0042c2f0 f i foundation_win32.release:tpworkerthread.obj
 0001:0002b310       ??0?$Ptr@VDebugTimer@Debug@@@@QAE@XZ 0042c310 f i foundation_win32.release:tpworkerthread.obj
 0001:0002b330       ??1?$Ptr@VDebugTimer@Debug@@@@QAE@XZ 0042c330 f i foundation_win32.release:tpworkerthread.obj
 0001:0002b360       ??4?$Ptr@VDebugTimer@Debug@@@@QAEXPAVDebugTimer@Debug@@@Z 0042c360 f i foundation_win32.release:tpworkerthread.obj
 0001:0002b3c0       ??C?$Ptr@VDebugTimer@Debug@@@@QBEPAVDebugTimer@Debug@@XZ 0042c3c0 f i foundation_win32.release:tpworkerthread.obj
 0001:0002b400       ?isvalid@?$Ptr@VDebugTimer@Debug@@@@QBE_NXZ 0042c400 f i foundation_win32.release:tpworkerthread.obj
 0001:0002b420       ??4?$Array@VTPJobCommand@Jobs@@@Util@@QAEXABV01@@Z 0042c420 f i foundation_win32.release:tpworkerthread.obj
 0001:0002b520       ?Append@?$Array@VTPJobCommand@Jobs@@@Util@@QAEXABVTPJobCommand@Jobs@@@Z 0042c520 f i foundation_win32.release:tpworkerthread.obj
 0001:0002b5a0       ?IsEmpty@?$Array@VTPJobCommand@Jobs@@@Util@@QBE_NXZ 0042c5a0 f i foundation_win32.release:tpworkerthread.obj
 0001:0002b5c0       ?Clear@?$Array@VTPJobCommand@Jobs@@@Util@@QAEXXZ 0042c5c0 f i foundation_win32.release:tpworkerthread.obj
 0001:0002b610       ?Delete@?$Array@VTPJobCommand@Jobs@@@Util@@AAEXXZ 0042c610 f i foundation_win32.release:tpworkerthread.obj
 0001:0002b670       ??0?$Queue@VTPJobCommand@Jobs@@@Util@@QAE@XZ 0042c670 f i foundation_win32.release:tpworkerthread.obj
 0001:0002b690       ?Destroy@?$Array@VTPJobCommand@Jobs@@@Util@@AAEXPAVTPJobCommand@Jobs@@@Z 0042c690 f i foundation_win32.release:tpworkerthread.obj
 0001:0002b6a0       ?Copy@?$Array@VTPJobCommand@Jobs@@@Util@@AAEXABV12@@Z 0042c6a0 f i foundation_win32.release:tpworkerthread.obj
 0001:0002b7e0       ?Grow@?$Array@VTPJobCommand@Jobs@@@Util@@AAEXXZ 0042c7e0 f i foundation_win32.release:tpworkerthread.obj
 0001:0002b860       ?GrowTo@?$Array@VTPJobCommand@Jobs@@@Util@@AAEXH@Z 0042c860 f i foundation_win32.release:tpworkerthread.obj
 0001:0002b970       ?CheckValidCharSet@String@Util@@QBE_NABV12@@Z 0042c970 f i foundation_win32.release:win360ipaddress.obj
 0001:0002ba10       ?Host@URI@IO@@QBEABVString@Util@@XZ 0042ca10 f i foundation_win32.release:win360ipaddress.obj
 0001:0002ba30       ?Port@URI@IO@@QBEABVString@Util@@XZ 0042ca30 f i foundation_win32.release:win360ipaddress.obj
 0001:0002ba50       ??0Win360IpAddress@Win360@@QAE@XZ 0042ca50 f   foundation_win32.release:win360ipaddress.obj
 0001:0002bae0       ??0Win360IpAddress@Win360@@QAE@ABV01@@Z 0042cae0 f   foundation_win32.release:win360ipaddress.obj
 0001:0002bbc0       ??0Win360IpAddress@Win360@@QAE@ABVString@Util@@G@Z 0042cbc0 f   foundation_win32.release:win360ipaddress.obj
 0001:0002bc60       ??0Win360IpAddress@Win360@@QAE@ABVURI@IO@@@Z 0042cc60 f   foundation_win32.release:win360ipaddress.obj
 0001:0002bcf0       ??0Win360IpAddress@Win360@@AAE@ABUsockaddr_in@@@Z 0042ccf0 f   foundation_win32.release:win360ipaddress.obj
 0001:0002bd80       ?SetSockAddr@Win360IpAddress@Win360@@AAEXABUsockaddr_in@@@Z 0042cd80 f   foundation_win32.release:win360ipaddress.obj
 0001:0002be20       ?GetSockAddr@Win360IpAddress@Win360@@ABEABUsockaddr_in@@XZ 0042ce20 f   foundation_win32.release:win360ipaddress.obj
 0001:0002be40       ?ExtractFromUri@Win360IpAddress@Win360@@QAEXABVURI@IO@@@Z 0042ce40 f   foundation_win32.release:win360ipaddress.obj
 0001:0002bf00       ?SetPort@Win360IpAddress@Win360@@QAEXG@Z 0042cf00 f   foundation_win32.release:win360ipaddress.obj
 0001:0002bf20       ?GetPort@Win360IpAddress@Win360@@QBEGXZ 0042cf20 f   foundation_win32.release:win360ipaddress.obj
 0001:0002bf40       ?SetHostName@Win360IpAddress@Win360@@QAEXABVString@Util@@@Z 0042cf40 f   foundation_win32.release:win360ipaddress.obj
 0001:0002c000       ?GetHostName@Win360IpAddress@Win360@@QBEABVString@Util@@XZ 0042d000 f   foundation_win32.release:win360ipaddress.obj
 0001:0002c010       ?GetHostAddr@Win360IpAddress@Win360@@QBEABVString@Util@@XZ 0042d010 f   foundation_win32.release:win360ipaddress.obj
 0001:0002c030       ?GetHostByName@Win360IpAddress@Win360@@CA_NABVString@Util@@AAUin_addr@@@Z 0042d030 f   foundation_win32.release:win360ipaddress.obj
 0001:0002c320       ?IsInetAddr@Win360IpAddress@Win360@@CA_NPBUin_addr@@@Z 0042d320 f   foundation_win32.release:win360ipaddress.obj
 0001:0002c520       ??2Socket@Net@@SAPAXI@Z    0042d520 f i foundation_win32.release:socket.obj
 0001:0002c530       ??3Socket@Net@@SAXPAX@Z    0042d530 f i foundation_win32.release:socket.obj
 0001:0002c550       ?GetRtti@Socket@Net@@UBEPAVRtti@Core@@XZ 0042d550 f   foundation_win32.release:socket.obj
 0001:0002c560       ?FactoryCreator@Socket@Net@@SAPAVRefCounted@Core@@XZ 0042d560 f   foundation_win32.release:socket.obj
 0001:0002c570       ?Create@Socket@Net@@SAPAV12@XZ 0042d570 f   foundation_win32.release:socket.obj
 0001:0002c5b0       ??0Socket@Net@@QAE@XZ      0042d5b0 f i foundation_win32.release:socket.obj
 0001:0002c5d0       ??_GSocket@Net@@UAEPAXI@Z  0042d5d0 f i foundation_win32.release:socket.obj
 0001:0002c5d0       ??_ESocket@Net@@UAEPAXI@Z  0042d5d0 f i  CIL library: CIL module
 0001:0002c600       ??1Socket@Net@@UAE@XZ      0042d600 f i foundation_win32.release:socket.obj
 0001:0002c620       ?RegisterWithFactory@Socket@Net@@SA_NXZ 0042d620 f   foundation_win32.release:socket.obj
 0001:0002c720       ?IsValid@StringBuffer@Util@@QBE_NXZ 0042d720 f i foundation_win32.release:stringbuffer.obj
 0001:0002c740       ??0StringBuffer@Util@@QAE@XZ 0042d740 f   foundation_win32.release:stringbuffer.obj
 0001:0002c770       ??1StringBuffer@Util@@QAE@XZ 0042d770 f   foundation_win32.release:stringbuffer.obj
 0001:0002c7a0       ?Setup@StringBuffer@Util@@QAEXH@Z 0042d7a0 f   foundation_win32.release:stringbuffer.obj
 0001:0002c800       ?Discard@StringBuffer@Util@@QAEXXZ 0042d800 f   foundation_win32.release:stringbuffer.obj
 0001:0002c8a0       ?AllocNewChunk@StringBuffer@Util@@AAEXXZ 0042d8a0 f   foundation_win32.release:stringbuffer.obj
 0001:0002c8e0       ?AddString@StringBuffer@Util@@QAEPBDPBD@Z 0042d8e0 f   foundation_win32.release:stringbuffer.obj
 0001:0002ca00       ??0?$Array@PAD@Util@@QAE@XZ 0042da00 f i foundation_win32.release:stringbuffer.obj
 0001:0002ca40       ??1?$Array@PAD@Util@@QAE@XZ 0042da40 f i foundation_win32.release:stringbuffer.obj
 0001:0002ca60       ??A?$Array@PAD@Util@@QBEAAPADH@Z 0042da60 f i foundation_win32.release:stringbuffer.obj
 0001:0002cab0       ?Append@?$Array@PAD@Util@@QAEXABQAD@Z 0042dab0 f i foundation_win32.release:stringbuffer.obj
 0001:0002cb20       ?Back@?$Array@PAD@Util@@QBEAAPADXZ 0042db20 f i foundation_win32.release:stringbuffer.obj
 0001:0002cb70       ?Clear@?$Array@PAD@Util@@QAEXXZ 0042db70 f i foundation_win32.release:stringbuffer.obj
 0001:0002cbc0       ?Destroy@?$Array@PAD@Util@@AAEXPAPAD@Z 0042dbc0 f i foundation_win32.release:stringbuffer.obj
 0001:0002cbd0       ?Delete@?$Array@PAD@Util@@AAEXXZ 0042dbd0 f i foundation_win32.release:stringbuffer.obj
 0001:0002cc30       ?Grow@?$Array@PAD@Util@@AAEXXZ 0042dc30 f i foundation_win32.release:stringbuffer.obj
 0001:0002ccb0       ?GrowTo@?$Array@PAD@Util@@AAEXH@Z 0042dcb0 f i foundation_win32.release:stringbuffer.obj
 0001:0002cd60       ??2FileStream@IO@@SAPAXI@Z 0042dd60 f i foundation_win32.release:filestream.obj
 0001:0002cd70       ??3FileStream@IO@@SAXPAX@Z 0042dd70 f i foundation_win32.release:filestream.obj
 0001:0002cd90       ?GetRtti@FileStream@IO@@UBEPAVRtti@Core@@XZ 0042dd90 f   foundation_win32.release:filestream.obj
 0001:0002cda0       ?FactoryCreator@FileStream@IO@@SAPAVRefCounted@Core@@XZ 0042dda0 f   foundation_win32.release:filestream.obj
 0001:0002cdb0       ?Create@FileStream@IO@@SAPAV12@XZ 0042ddb0 f   foundation_win32.release:filestream.obj
 0001:0002cdf0       ?RegisterWithFactory@FileStream@IO@@SA_NXZ 0042ddf0 f   foundation_win32.release:filestream.obj
 0001:0002cef0       ??0FileStream@IO@@QAE@XZ   0042def0 f   foundation_win32.release:filestream.obj
 0001:0002cf30       ??_EFileStream@IO@@UAEPAXI@Z 0042df30 f i  CIL library: CIL module
 0001:0002cf30       ??_GFileStream@IO@@UAEPAXI@Z 0042df30 f i foundation_win32.release:filestream.obj
 0001:0002cf60       ??1FileStream@IO@@UAE@XZ   0042df60 f   foundation_win32.release:filestream.obj
 0001:0002cfa0       ?CanRead@FileStream@IO@@UBE_NXZ 0042dfa0 f   foundation_win32.release:filestream.obj
 0001:0002cfb0       ?CanWrite@FileStream@IO@@UBE_NXZ 0042dfb0 f   foundation_win32.release:filestream.obj
 0001:0002cfc0       ?CanSeek@FileStream@IO@@UBE_NXZ 0042dfc0 f   foundation_win32.release:filestream.obj
 0001:0002cfd0       ?CanBeMapped@FileStream@IO@@UBE_NXZ 0042dfd0 f   foundation_win32.release:filestream.obj
 0001:0002cfe0       ?GetSize@FileStream@IO@@UBEHXZ 0042dfe0 f   foundation_win32.release:filestream.obj
 0001:0002d020       ?GetPosition@FileStream@IO@@UBEHXZ 0042e020 f   foundation_win32.release:filestream.obj
 0001:0002d060       ?Open@FileStream@IO@@UAE_NXZ 0042e060 f   foundation_win32.release:filestream.obj
 0001:0002d1a0       ?Close@FileStream@IO@@UAEXXZ 0042e1a0 f   foundation_win32.release:filestream.obj
 0001:0002d240       ?Write@FileStream@IO@@UAEXPBXH@Z 0042e240 f   foundation_win32.release:filestream.obj
 0001:0002d300       ?Read@FileStream@IO@@UAEHPAXH@Z 0042e300 f   foundation_win32.release:filestream.obj
 0001:0002d3d0       ?Seek@FileStream@IO@@UAEXHW4SeekOrigin@Stream@2@@Z 0042e3d0 f   foundation_win32.release:filestream.obj
 0001:0002d470       ?Flush@FileStream@IO@@UAEXXZ 0042e470 f   foundation_win32.release:filestream.obj
 0001:0002d500       ?Eof@FileStream@IO@@UBE_NXZ 0042e500 f   foundation_win32.release:filestream.obj
 0001:0002d590       ?Map@FileStream@IO@@UAEPAXXZ 0042e590 f   foundation_win32.release:filestream.obj
 0001:0002d670       ?Unmap@FileStream@IO@@UAEXXZ 0042e670 f   foundation_win32.release:filestream.obj
 0001:0002d6d0       ??2HttpStream@Http@@SAPAXI@Z 0042e6d0 f i foundation_win32.release:httpstream.obj
 0001:0002d6e0       ??3HttpStream@Http@@SAXPAX@Z 0042e6e0 f i foundation_win32.release:httpstream.obj
 0001:0002d700       ?Instance@HttpClientRegistry@Http@@SAPAV12@XZ 0042e700 f i foundation_win32.release:httpstream.obj
 0001:0002d740       ?GetRtti@HttpStream@Http@@UBEPAVRtti@Core@@XZ 0042e740 f   foundation_win32.release:httpstream.obj
 0001:0002d750       ?FactoryCreator@HttpStream@Http@@SAPAVRefCounted@Core@@XZ 0042e750 f   foundation_win32.release:httpstream.obj
 0001:0002d760       ?Create@HttpStream@Http@@SAPAV12@XZ 0042e760 f   foundation_win32.release:httpstream.obj
 0001:0002d7a0       ?RegisterWithFactory@HttpStream@Http@@SA_NXZ 0042e7a0 f   foundation_win32.release:httpstream.obj
 0001:0002d8a0       ??0HttpStream@Http@@QAE@XZ 0042e8a0 f   foundation_win32.release:httpstream.obj
 0001:0002d8c0       ??_EHttpStream@Http@@UAEPAXI@Z 0042e8c0 f i  CIL library: CIL module
 0001:0002d8c0       ??_GHttpStream@Http@@UAEPAXI@Z 0042e8c0 f i foundation_win32.release:httpstream.obj
 0001:0002d8f0       ??1HttpStream@Http@@UAE@XZ 0042e8f0 f   foundation_win32.release:httpstream.obj
 0001:0002d930       ?Open@HttpStream@Http@@UAE_NXZ 0042e930 f   foundation_win32.release:httpstream.obj
 0001:0002db20       ??1?$Ptr@VHttpClient@Http@@@@QAE@XZ 0042eb20 f i foundation_win32.release:httpstream.obj
 0001:0002db50       ??C?$Ptr@VHttpClient@Http@@@@QBEPAVHttpClient@Http@@XZ 0042eb50 f i foundation_win32.release:httpstream.obj
 0001:0002db90       ??2HttpNzStream@Http@@SAPAXI@Z 0042eb90 f i foundation_win32.release:httpnzstream.obj
 0001:0002dba0       ??3HttpNzStream@Http@@SAXPAX@Z 0042eba0 f i foundation_win32.release:httpnzstream.obj
 0001:0002dbc0       ?GetRtti@HttpNzStream@Http@@UBEPAVRtti@Core@@XZ 0042ebc0 f   foundation_win32.release:httpnzstream.obj
 0001:0002dbd0       ?FactoryCreator@HttpNzStream@Http@@SAPAVRefCounted@Core@@XZ 0042ebd0 f   foundation_win32.release:httpnzstream.obj
 0001:0002dbe0       ?Create@HttpNzStream@Http@@SAPAV12@XZ 0042ebe0 f   foundation_win32.release:httpnzstream.obj
 0001:0002dc20       ?RegisterWithFactory@HttpNzStream@Http@@SA_NXZ 0042ec20 f   foundation_win32.release:httpnzstream.obj
 0001:0002dd20       ??0HttpNzStream@Http@@QAE@XZ 0042ed20 f   foundation_win32.release:httpnzstream.obj
 0001:0002dd40       ??_GHttpNzStream@Http@@UAEPAXI@Z 0042ed40 f i foundation_win32.release:httpnzstream.obj
 0001:0002dd40       ??_EHttpNzStream@Http@@UAEPAXI@Z 0042ed40 f i  CIL library: CIL module
 0001:0002dd70       ??1HttpNzStream@Http@@UAE@XZ 0042ed70 f   foundation_win32.release:httpnzstream.obj
 0001:0002ddb0       ?Open@HttpNzStream@Http@@UAE_NXZ 0042edb0 f   foundation_win32.release:httpnzstream.obj
 0001:0002e250       ??0?$Ptr@VMemoryStream@IO@@@@QAE@PAVMemoryStream@IO@@@Z 0042f250 f i foundation_win32.release:httpnzstream.obj
 0001:0002e290       ??1?$Ptr@VMemoryStream@IO@@@@QAE@XZ 0042f290 f i foundation_win32.release:httpnzstream.obj
 0001:0002e2c0       ??4?$Ptr@VMemoryStream@IO@@@@QAEXPAVMemoryStream@IO@@@Z 0042f2c0 f i foundation_win32.release:httpnzstream.obj
 0001:0002e320       ??C?$Ptr@VMemoryStream@IO@@@@QBEPAVMemoryStream@IO@@XZ 0042f320 f i foundation_win32.release:httpnzstream.obj
 0001:0002e360       ??$upcast@VStream@IO@@@?$Ptr@VMemoryStream@IO@@@@QBEABV?$Ptr@VStream@IO@@@@XZ 0042f360 f i foundation_win32.release:httpnzstream.obj
 0001:0002e370       ?n_iclamp@Math@@YAHHHH@Z   0042f370 f i foundation_win32.release:zipfilestream.obj
 0001:0002e3a0       ??2ZipFileStream@IO@@SAPAXI@Z 0042f3a0 f i foundation_win32.release:zipfilestream.obj
 0001:0002e3b0       ??3ZipFileStream@IO@@SAXPAX@Z 0042f3b0 f i foundation_win32.release:zipfilestream.obj
 0001:0002e3d0       ?Instance@ZipFileSystem@IO@@SAPAV12@XZ 0042f3d0 f i foundation_win32.release:zipfilestream.obj
 0001:0002e400       ?GetFileSize@ZipFileEntry@IO@@QBEHXZ 0042f400 f i foundation_win32.release:zipfilestream.obj
 0001:0002e420       ?GetRtti@ZipFileStream@IO@@UBEPAVRtti@Core@@XZ 0042f420 f   foundation_win32.release:zipfilestream.obj
 0001:0002e430       ?FactoryCreator@ZipFileStream@IO@@SAPAVRefCounted@Core@@XZ 0042f430 f   foundation_win32.release:zipfilestream.obj
 0001:0002e440       ?Create@ZipFileStream@IO@@SAPAV12@XZ 0042f440 f   foundation_win32.release:zipfilestream.obj
 0001:0002e480       ?RegisterWithFactory@ZipFileStream@IO@@SA_NXZ 0042f480 f   foundation_win32.release:zipfilestream.obj
 0001:0002e580       ??0ZipFileStream@IO@@QAE@XZ 0042f580 f   foundation_win32.release:zipfilestream.obj
 0001:0002e5d0       ??_EZipFileStream@IO@@UAEPAXI@Z 0042f5d0 f i  CIL library: CIL module
 0001:0002e5d0       ??_GZipFileStream@IO@@UAEPAXI@Z 0042f5d0 f i foundation_win32.release:zipfilestream.obj
 0001:0002e600       ??1ZipFileStream@IO@@UAE@XZ 0042f600 f   foundation_win32.release:zipfilestream.obj
 0001:0002e660       ?CanRead@ZipFileStream@IO@@UBE_NXZ 0042f660 f   foundation_win32.release:zipfilestream.obj
 0001:0002e670       ?CanWrite@ZipFileStream@IO@@UBE_NXZ 0042f670 f   foundation_win32.release:zipfilestream.obj
 0001:0002e680       ?CanSeek@ZipFileStream@IO@@UBE_NXZ 0042f680 f   foundation_win32.release:zipfilestream.obj
 0001:0002e690       ?CanBeMapped@ZipFileStream@IO@@UBE_NXZ 0042f690 f   foundation_win32.release:zipfilestream.obj
 0001:0002e6a0       ?GetSize@ZipFileStream@IO@@UBEHXZ 0042f6a0 f   foundation_win32.release:zipfilestream.obj
 0001:0002e6c0       ?GetPosition@ZipFileStream@IO@@UBEHXZ 0042f6c0 f   foundation_win32.release:zipfilestream.obj
 0001:0002e6e0       ?Open@ZipFileStream@IO@@UAE_NXZ 0042f6e0 f   foundation_win32.release:zipfilestream.obj
 0001:0002eb30       ?Close@ZipFileStream@IO@@UAEXXZ 0042fb30 f   foundation_win32.release:zipfilestream.obj
 0001:0002ebd0       ?Read@ZipFileStream@IO@@UAEHPAXH@Z 0042fbd0 f   foundation_win32.release:zipfilestream.obj
 0001:0002ed70       ?Seek@ZipFileStream@IO@@UAEXHW4SeekOrigin@Stream@2@@Z 0042fd70 f   foundation_win32.release:zipfilestream.obj
 0001:0002ef90       ?Eof@ZipFileStream@IO@@UBE_NXZ 0042ff90 f   foundation_win32.release:zipfilestream.obj
 0001:0002f040       ?Map@ZipFileStream@IO@@UAEPAXXZ 00430040 f   foundation_win32.release:zipfilestream.obj
 0001:0002f180       ?Unmap@ZipFileStream@IO@@UAEXXZ 00430180 f   foundation_win32.release:zipfilestream.obj
 0001:0002f200       ??0?$Ptr@VZipArchive@IO@@@@QAE@ABV0@@Z 00430200 f i foundation_win32.release:zipfilestream.obj
 0001:0002f240       ??A?$Dictionary@VString@Util@@V12@@Util@@QAEAAVString@1@ABV21@@Z 00430240 f i foundation_win32.release:zipfilestream.obj
 0001:0002f290       ?Contains@?$Dictionary@VString@Util@@V12@@Util@@QBE_NABVString@2@@Z 00430290 f i foundation_win32.release:zipfilestream.obj
 0001:0002f2f0       ?FindIndex@?$Dictionary@VString@Util@@V12@@Util@@QBEHABVString@2@@Z 004302f0 f i foundation_win32.release:zipfilestream.obj
 0001:0002f350       ??2Archive@IO@@SAPAXI@Z    00430350 f i foundation_win32.release:archive.obj
 0001:0002f360       ??3Archive@IO@@SAXPAX@Z    00430360 f i foundation_win32.release:archive.obj
 0001:0002f380       ?GetRtti@Archive@IO@@UBEPAVRtti@Core@@XZ 00430380 f   foundation_win32.release:archive.obj
 0001:0002f390       ?FactoryCreator@Archive@IO@@SAPAVRefCounted@Core@@XZ 00430390 f   foundation_win32.release:archive.obj
 0001:0002f3a0       ?Create@Archive@IO@@SAPAV12@XZ 004303a0 f   foundation_win32.release:archive.obj
 0001:0002f3e0       ??0Archive@IO@@QAE@XZ      004303e0 f i foundation_win32.release:archive.obj
 0001:0002f400       ??_GArchive@IO@@UAEPAXI@Z  00430400 f i foundation_win32.release:archive.obj
 0001:0002f400       ??_EArchive@IO@@UAEPAXI@Z  00430400 f i  CIL library: CIL module
 0001:0002f430       ??1Archive@IO@@UAE@XZ      00430430 f i foundation_win32.release:archive.obj
 0001:0002f450       ?RegisterWithFactory@Archive@IO@@SA_NXZ 00430450 f   foundation_win32.release:archive.obj
 0001:0002f550       ?UTF8ToWide@Win32StringConverter@Win32@@SAHABVString@Util@@PAGH@Z 00430550 f   foundation_win32.release:win32stringconverter.obj
 0001:0002f590       ?UTF8ToWide@Win32StringConverter@Win32@@SAHPBDPAGH@Z 00430590 f   foundation_win32.release:win32stringconverter.obj
 0001:0002f700       ?WideToUTF8@Win32StringConverter@Win32@@SA?AVString@Util@@PAG@Z 00430700 f   foundation_win32.release:win32stringconverter.obj
 0001:0002f830       ??2ArchiveBase@IO@@SAPAXI@Z 00430830 f i foundation_win32.release:archivebase.obj
 0001:0002f840       ??3ArchiveBase@IO@@SAXPAX@Z 00430840 f i foundation_win32.release:archivebase.obj
 0001:0002f860       ?GetRtti@ArchiveBase@IO@@UBEPAVRtti@Core@@XZ 00430860 f   foundation_win32.release:archivebase.obj
 0001:0002f870       ?FactoryCreator@ArchiveBase@IO@@SAPAVRefCounted@Core@@XZ 00430870 f   foundation_win32.release:archivebase.obj
 0001:0002f880       ?Create@ArchiveBase@IO@@SAPAV12@XZ 00430880 f   foundation_win32.release:archivebase.obj
 0001:0002f8c0       ?RegisterWithFactory@ArchiveBase@IO@@SA_NXZ 004308c0 f   foundation_win32.release:archivebase.obj
 0001:0002f9c0       ??0ArchiveBase@IO@@QAE@XZ  004309c0 f   foundation_win32.release:archivebase.obj
 0001:0002fa00       ??_GArchiveBase@IO@@UAEPAXI@Z 00430a00 f i foundation_win32.release:archivebase.obj
 0001:0002fa00       ??_EArchiveBase@IO@@UAEPAXI@Z 00430a00 f i  CIL library: CIL module
 0001:0002fa30       ??1ArchiveBase@IO@@UAE@XZ  00430a30 f   foundation_win32.release:archivebase.obj
 0001:0002fa80       ?Setup@ArchiveBase@IO@@QAE_NABVURI@2@@Z 00430a80 f   foundation_win32.release:archivebase.obj
 0001:0002fad0       ?Discard@ArchiveBase@IO@@QAEXXZ 00430ad0 f   foundation_win32.release:archivebase.obj
 0001:0002fb10       ?ListFiles@ArchiveBase@IO@@QBE?AV?$Array@VString@Util@@@Util@@ABVString@4@0@Z 00430b10 f   foundation_win32.release:archivebase.obj
 0001:0002fb40       ?ListDirectories@ArchiveBase@IO@@QBE?AV?$Array@VString@Util@@@Util@@ABVString@4@0@Z 00430b40 f   foundation_win32.release:archivebase.obj
 0001:0002fb70       ?ConvertToArchiveURI@ArchiveBase@IO@@QBE?AVURI@2@ABV32@@Z 00430b70 f   foundation_win32.release:archivebase.obj
 0001:0002fb90       ?ConvertToPathInArchive@ArchiveBase@IO@@QBE?AVString@Util@@ABV34@@Z 00430b90 f   foundation_win32.release:archivebase.obj
 0001:0002fbf0       ??0StringAtom@Util@@QAE@XZ 00430bf0 f i foundation_win32.release:zipdirentry.obj
 0001:0002fc10       ??0StringAtom@Util@@QAE@ABV01@@Z 00430c10 f i foundation_win32.release:zipdirentry.obj
 0001:0002fc30       ??9StringAtom@Util@@QBE_NABV01@@Z 00430c30 f i foundation_win32.release:zipdirentry.obj
 0001:0002fc50       ??OStringAtom@Util@@QBE_NABV01@@Z 00430c50 f i foundation_win32.release:zipdirentry.obj
 0001:0002fc70       ??MStringAtom@Util@@QBE_NABV01@@Z 00430c70 f i foundation_win32.release:zipdirentry.obj
 0001:0002fc90       ?IsValid@StringAtom@Util@@QBE_NXZ 00430c90 f i foundation_win32.release:zipdirentry.obj
 0001:0002fcd0       ?SetName@ZipDirEntry@IO@@AAEXABVStringAtom@Util@@@Z 00430cd0 f i foundation_win32.release:zipdirentry.obj
 0001:0002fcf0       ??0ZipDirEntry@IO@@QAE@XZ  00430cf0 f   foundation_win32.release:zipdirentry.obj
 0001:0002fd40       ?AddFileEntry@ZipDirEntry@IO@@AAEPAVZipFileEntry@2@ABVStringAtom@Util@@@Z 00430d40 f   foundation_win32.release:zipdirentry.obj
 0001:0002fdb0       ?AddDirEntry@ZipDirEntry@IO@@AAEPAV12@ABVStringAtom@Util@@@Z 00430db0 f   foundation_win32.release:zipdirentry.obj
 0001:0002fe30       ?FindFileEntry@ZipDirEntry@IO@@QBEPAVZipFileEntry@2@ABVStringAtom@Util@@@Z 00430e30 f   foundation_win32.release:zipdirentry.obj
 0001:0002fec0       ?FindDirEntry@ZipDirEntry@IO@@QBEPAV12@ABVStringAtom@Util@@@Z 00430ec0 f   foundation_win32.release:zipdirentry.obj
 0001:0002ff50       ??0?$Array@VZipFileEntry@IO@@@Util@@QAE@XZ 00430f50 f i foundation_win32.release:zipdirentry.obj
 0001:0002ff90       ?Append@?$Array@VZipFileEntry@IO@@@Util@@QAEXABVZipFileEntry@IO@@@Z 00430f90 f i foundation_win32.release:zipdirentry.obj
 0001:00030040       ?Back@?$Array@VZipFileEntry@IO@@@Util@@QBEAAVZipFileEntry@IO@@XZ 00431040 f i foundation_win32.release:zipdirentry.obj
 0001:00030090       ??0?$Array@VZipDirEntry@IO@@@Util@@QAE@XZ 00431090 f i foundation_win32.release:zipdirentry.obj
 0001:000300d0       ?Append@?$Array@VZipDirEntry@IO@@@Util@@QAEXABVZipDirEntry@IO@@@Z 004310d0 f i foundation_win32.release:zipdirentry.obj
 0001:00030150       ?Back@?$Array@VZipDirEntry@IO@@@Util@@QBEAAVZipDirEntry@IO@@XZ 00431150 f i foundation_win32.release:zipdirentry.obj
 0001:000301a0       ??0?$Dictionary@VStringAtom@Util@@H@Util@@QAE@XZ 004311a0 f i foundation_win32.release:zipdirentry.obj
 0001:000301c0       ?Add@?$Dictionary@VStringAtom@Util@@H@Util@@QAEXABVStringAtom@2@ABH@Z 004311c0 f i foundation_win32.release:zipdirentry.obj
 0001:00030210       ?FindIndex@?$Dictionary@VStringAtom@Util@@H@Util@@QBEHABVStringAtom@2@@Z 00431210 f i foundation_win32.release:zipdirentry.obj
 0001:00030260       ?ValueAtIndex@?$Dictionary@VStringAtom@Util@@H@Util@@QBEABHH@Z 00431260 f i foundation_win32.release:zipdirentry.obj
 0001:000302b0       ??4ZipFileEntry@IO@@QAEAAV01@ABV01@@Z 004312b0 f i foundation_win32.release:zipdirentry.obj
 0001:00030300       ??4ZipDirEntry@IO@@QAEAAV01@ABV01@@Z 00431300 f i foundation_win32.release:zipdirentry.obj
 0001:00030370       ??4?$Array@VZipFileEntry@IO@@@Util@@QAEXABV01@@Z 00431370 f i foundation_win32.release:zipdirentry.obj
 0001:000304a0       ?Grow@?$Array@VZipFileEntry@IO@@@Util@@AAEXXZ 004314a0 f i foundation_win32.release:zipdirentry.obj
 0001:00030520       ??4?$Array@VZipDirEntry@IO@@@Util@@QAEXABV01@@Z 00431520 f i foundation_win32.release:zipdirentry.obj
 0001:00030610       ?Grow@?$Array@VZipDirEntry@IO@@@Util@@AAEXXZ 00431610 f i foundation_win32.release:zipdirentry.obj
 0001:00030690       ??0?$Array@V?$KeyValuePair@VStringAtom@Util@@H@Util@@@Util@@QAE@XZ 00431690 f i foundation_win32.release:zipdirentry.obj
 0001:000306d0       ??A?$Array@V?$KeyValuePair@VStringAtom@Util@@H@Util@@@Util@@QBEAAV?$KeyValuePair@VStringAtom@Util@@H@1@H@Z 004316d0 f i foundation_win32.release:zipdirentry.obj
 0001:00030720       ?Append@?$Array@V?$KeyValuePair@VStringAtom@Util@@H@Util@@@Util@@QAEXABV?$KeyValuePair@VStringAtom@Util@@H@2@@Z 00431720 f i foundation_win32.release:zipdirentry.obj
 0001:000307a0       ?InsertSorted@?$Array@V?$KeyValuePair@VStringAtom@Util@@H@Util@@@Util@@QAEHABV?$KeyValuePair@VStringAtom@Util@@H@2@@Z 004317a0 f i foundation_win32.release:zipdirentry.obj
 0001:00030a10       ?BinarySearchIndex@?$Array@V?$KeyValuePair@VStringAtom@Util@@H@Util@@@Util@@QBEHABV?$KeyValuePair@VStringAtom@Util@@H@2@@Z 00431a10 f i foundation_win32.release:zipdirentry.obj
 0001:00030b40       ??4?$Dictionary@VStringAtom@Util@@H@Util@@QAEXABV01@@Z 00431b40 f i foundation_win32.release:zipdirentry.obj
 0001:00030ba0       ??0?$KeyValuePair@VStringAtom@Util@@H@Util@@QAE@ABVStringAtom@1@@Z 00431ba0 f i foundation_win32.release:zipdirentry.obj
 0001:00030bc0       ??0?$KeyValuePair@VStringAtom@Util@@H@Util@@QAE@ABVStringAtom@1@ABH@Z 00431bc0 f i foundation_win32.release:zipdirentry.obj
 0001:00030bf0       ?Value@?$KeyValuePair@VStringAtom@Util@@H@Util@@QAEAAHXZ 00431bf0 f i foundation_win32.release:zipdirentry.obj
 0001:00030c10       ?Destroy@?$Array@VZipFileEntry@IO@@@Util@@AAEXPAVZipFileEntry@IO@@@Z 00431c10 f i foundation_win32.release:zipdirentry.obj
 0001:00030c40       ?Copy@?$Array@VZipFileEntry@IO@@@Util@@AAEXABV12@@Z 00431c40 f i foundation_win32.release:zipdirentry.obj
 0001:00030db0       ?GrowTo@?$Array@VZipFileEntry@IO@@@Util@@AAEXH@Z 00431db0 f i foundation_win32.release:zipdirentry.obj
 0001:00030f10       ?Destroy@?$Array@VZipDirEntry@IO@@@Util@@AAEXPAVZipDirEntry@IO@@@Z 00431f10 f i foundation_win32.release:zipdirentry.obj
 0001:00030f40       ?Copy@?$Array@VZipDirEntry@IO@@@Util@@AAEXABV12@@Z 00431f40 f i foundation_win32.release:zipdirentry.obj
 0001:00031070       ?GrowTo@?$Array@VZipDirEntry@IO@@@Util@@AAEXH@Z 00432070 f i foundation_win32.release:zipdirentry.obj
 0001:00031190       ??4?$Array@V?$KeyValuePair@VStringAtom@Util@@H@Util@@@Util@@QAEXABV01@@Z 00432190 f i foundation_win32.release:zipdirentry.obj
 0001:00031280       ?Size@?$Array@V?$KeyValuePair@VStringAtom@Util@@H@Util@@@Util@@QBEHXZ 00432280 f i foundation_win32.release:zipdirentry.obj
 0001:000312a0       ?Insert@?$Array@V?$KeyValuePair@VStringAtom@Util@@H@Util@@@Util@@QAEXHABV?$KeyValuePair@VStringAtom@Util@@H@2@@Z 004322a0 f i foundation_win32.release:zipdirentry.obj
 0001:00031310       ?InsertAtEndOfIdenticalRange@?$Array@V?$KeyValuePair@VStringAtom@Util@@H@Util@@@Util@@QAEHHABV?$KeyValuePair@VStringAtom@Util@@H@2@@Z 00432310 f i foundation_win32.release:zipdirentry.obj
 0001:00031390       ?Grow@?$Array@V?$KeyValuePair@VStringAtom@Util@@H@Util@@@Util@@AAEXXZ 00432390 f i foundation_win32.release:zipdirentry.obj
 0001:00031410       ??4?$KeyValuePair@VStringAtom@Util@@H@Util@@QAEXABV01@@Z 00432410 f i foundation_win32.release:zipdirentry.obj
 0001:00031440       ??9?$KeyValuePair@VStringAtom@Util@@H@Util@@QBE_NABV01@@Z 00432440 f i foundation_win32.release:zipdirentry.obj
 0001:00031460       ??O?$KeyValuePair@VStringAtom@Util@@H@Util@@QBE_NABV01@@Z 00432460 f i foundation_win32.release:zipdirentry.obj
 0001:00031480       ??M?$KeyValuePair@VStringAtom@Util@@H@Util@@QBE_NABV01@@Z 00432480 f i foundation_win32.release:zipdirentry.obj
 0001:000314a0       ??_GZipFileEntry@IO@@QAEPAXI@Z 004324a0 f i foundation_win32.release:zipdirentry.obj
 0001:000314d0       ??_GZipDirEntry@IO@@QAEPAXI@Z 004324d0 f i foundation_win32.release:zipdirentry.obj
 0001:00031500       ?Destroy@?$Array@V?$KeyValuePair@VStringAtom@Util@@H@Util@@@Util@@AAEXPAV?$KeyValuePair@VStringAtom@Util@@H@2@@Z 00432500 f i foundation_win32.release:zipdirentry.obj
 0001:00031510       ?Copy@?$Array@V?$KeyValuePair@VStringAtom@Util@@H@Util@@@Util@@AAEXABV12@@Z 00432510 f i foundation_win32.release:zipdirentry.obj
 0001:00031630       ?GrowTo@?$Array@V?$KeyValuePair@VStringAtom@Util@@H@Util@@@Util@@AAEXH@Z 00432630 f i foundation_win32.release:zipdirentry.obj
 0001:00031720       ?Move@?$Array@V?$KeyValuePair@VStringAtom@Util@@H@Util@@@Util@@AAEXHH@Z 00432720 f i foundation_win32.release:zipdirentry.obj
 0001:000318b0       ??0?$KeyValuePair@VStringAtom@Util@@H@Util@@QAE@XZ 004328b0 f i foundation_win32.release:zipdirentry.obj
 0001:000318d0       ??0ZipFileEntry@IO@@QAE@XZ 004328d0 f   foundation_win32.release:zipfileentry.obj
 0001:00031920       ??1ZipFileEntry@IO@@QAE@XZ 00432920 f   foundation_win32.release:zipfileentry.obj
 0001:00031940       ?Setup@ZipFileEntry@IO@@AAEXABVStringAtom@Util@@PAXPAVCriticalSection@Threading@@@Z 00432940 f   foundation_win32.release:zipfileentry.obj
 0001:00031a40       ?Open@ZipFileEntry@IO@@QAE_NABVString@Util@@@Z 00432a40 f   foundation_win32.release:zipfileentry.obj
 0001:00031b40       ?Close@ZipFileEntry@IO@@QAEXXZ 00432b40 f   foundation_win32.release:zipfileentry.obj
 0001:00031bb0       ?Read@ZipFileEntry@IO@@QBE_NPAXH@Z 00432bb0 f   foundation_win32.release:zipfileentry.obj
 0001:00031c40       ??2Thread@Threading@@SAPAXI@Z 00432c40 f i foundation_win32.release:thread.obj
 0001:00031c50       ?GetRtti@Thread@Threading@@UBEPAVRtti@Core@@XZ 00432c50 f   foundation_win32.release:thread.obj
 0001:00031c60       ?FactoryCreator@Thread@Threading@@SAPAVRefCounted@Core@@XZ 00432c60 f   foundation_win32.release:thread.obj
 0001:00031c70       ?Create@Thread@Threading@@SAPAV12@XZ 00432c70 f   foundation_win32.release:thread.obj
 0001:00031cb0       ?RegisterWithFactory@Thread@Threading@@SA_NXZ 00432cb0 f   foundation_win32.release:thread.obj
 0001:00031db0       ??2DebugServer@Debug@@SAPAXI@Z 00432db0 f i foundation_win32.release:debugserver.obj
 0001:00031dc0       ??3DebugServer@Debug@@SAXPAX@Z 00432dc0 f i foundation_win32.release:debugserver.obj
 0001:00031de0       ?GetName@DebugTimer@Debug@@QBEABVStringAtom@Util@@XZ 00432de0 f i foundation_win32.release:debugserver.obj
 0001:00031e00       ?GetName@DebugCounter@Debug@@QBEABVStringAtom@Util@@XZ 00432e00 f i foundation_win32.release:debugserver.obj
 0001:00031e20       ?GetRtti@DebugServer@Debug@@UBEPAVRtti@Core@@XZ 00432e20 f   foundation_win32.release:debugserver.obj
 0001:00031e30       ?FactoryCreator@DebugServer@Debug@@SAPAVRefCounted@Core@@XZ 00432e30 f   foundation_win32.release:debugserver.obj
 0001:00031e40       ?Create@DebugServer@Debug@@SAPAV12@XZ 00432e40 f   foundation_win32.release:debugserver.obj
 0001:00031e80       ?RegisterWithFactory@DebugServer@Debug@@SA_NXZ 00432e80 f   foundation_win32.release:debugserver.obj
 0001:00031f80       ??0DebugServer@Debug@@QAE@XZ 00432f80 f   foundation_win32.release:debugserver.obj
 0001:00032000       ??_EDebugServer@Debug@@UAEPAXI@Z 00433000 f i  CIL library: CIL module
 0001:00032000       ??_GDebugServer@Debug@@UAEPAXI@Z 00433000 f i foundation_win32.release:debugserver.obj
 0001:00032030       ??1?$Dictionary@VStringAtom@Util@@V?$Ptr@VDebugTimer@Debug@@@@@Util@@QAE@XZ 00433030 f i foundation_win32.release:debugserver.obj
 0001:00032050       ??1?$Dictionary@VStringAtom@Util@@V?$Ptr@VDebugCounter@Debug@@@@@Util@@QAE@XZ 00433050 f i foundation_win32.release:debugserver.obj
 0001:00032070       ??1DebugServer@Debug@@UAE@XZ 00433070 f   foundation_win32.release:debugserver.obj
 0001:00032100       ?Open@DebugServer@Debug@@AAEXXZ 00433100 f   foundation_win32.release:debugserver.obj
 0001:00032170       ?Close@DebugServer@Debug@@AAEXXZ 00433170 f   foundation_win32.release:debugserver.obj
 0001:000321f0       ?RegisterDebugTimer@DebugServer@Debug@@QAEXABV?$Ptr@VDebugTimer@Debug@@@@@Z 004331f0 f   foundation_win32.release:debugserver.obj
 0001:000322b0       ?UnregisterDebugTimer@DebugServer@Debug@@QAEXABV?$Ptr@VDebugTimer@Debug@@@@@Z 004332b0 f   foundation_win32.release:debugserver.obj
 0001:00032370       ?RegisterDebugCounter@DebugServer@Debug@@QAEXABV?$Ptr@VDebugCounter@Debug@@@@@Z 00433370 f   foundation_win32.release:debugserver.obj
 0001:00032430       ?UnregisterDebugCounter@DebugServer@Debug@@QAEXABV?$Ptr@VDebugCounter@Debug@@@@@Z 00433430 f   foundation_win32.release:debugserver.obj
 0001:000324f0       ?GetDebugTimers@DebugServer@Debug@@QBE?AV?$Array@V?$Ptr@VDebugTimer@Debug@@@@@Util@@XZ 004334f0 f   foundation_win32.release:debugserver.obj
 0001:00032560       ?GetDebugCounters@DebugServer@Debug@@QBE?AV?$Array@V?$Ptr@VDebugCounter@Debug@@@@@Util@@XZ 00433560 f   foundation_win32.release:debugserver.obj
 0001:000325d0       ?GetDebugTimerByName@DebugServer@Debug@@QBE?AV?$Ptr@VDebugTimer@Debug@@@@ABVStringAtom@Util@@@Z 004335d0 f   foundation_win32.release:debugserver.obj
 0001:00032660       ?GetDebugCounterByName@DebugServer@Debug@@QBE?AV?$Ptr@VDebugCounter@Debug@@@@ABVStringAtom@Util@@@Z 00433660 f   foundation_win32.release:debugserver.obj
 0001:000326f0       ??1?$Array@V?$KeyValuePair@VStringAtom@Util@@V?$Ptr@VDebugTimer@Debug@@@@@Util@@@Util@@QAE@XZ 004336f0 f i foundation_win32.release:debugserver.obj
 0001:00032710       ??0?$Dictionary@VStringAtom@Util@@V?$Ptr@VDebugTimer@Debug@@@@@Util@@QAE@XZ 00433710 f i foundation_win32.release:debugserver.obj
 0001:00032730       ??A?$Dictionary@VStringAtom@Util@@V?$Ptr@VDebugTimer@Debug@@@@@Util@@QBEABV?$Ptr@VDebugTimer@Debug@@@@ABVStringAtom@1@@Z 00433730 f i foundation_win32.release:debugserver.obj
 0001:00032780       ?Clear@?$Dictionary@VStringAtom@Util@@V?$Ptr@VDebugTimer@Debug@@@@@Util@@QAEXXZ 00433780 f i foundation_win32.release:debugserver.obj
 0001:000327c0       ?Add@?$Dictionary@VStringAtom@Util@@V?$Ptr@VDebugTimer@Debug@@@@@Util@@QAEXABVStringAtom@2@ABV?$Ptr@VDebugTimer@Debug@@@@@Z 004337c0 f i foundation_win32.release:debugserver.obj
 0001:00032810       ?Erase@?$Dictionary@VStringAtom@Util@@V?$Ptr@VDebugTimer@Debug@@@@@Util@@QAEXABVStringAtom@2@@Z 00433810 f i foundation_win32.release:debugserver.obj
 0001:00032890       ?Contains@?$Dictionary@VStringAtom@Util@@V?$Ptr@VDebugTimer@Debug@@@@@Util@@QBE_NABVStringAtom@2@@Z 00433890 f i foundation_win32.release:debugserver.obj
 0001:000328f0       ?ValuesAsArray@?$Dictionary@VStringAtom@Util@@V?$Ptr@VDebugTimer@Debug@@@@@Util@@QBE?AV?$Array@V?$Ptr@VDebugTimer@Debug@@@@@2@XZ 004338f0 f i foundation_win32.release:debugserver.obj
 0001:00032910       ??1?$Array@V?$KeyValuePair@VStringAtom@Util@@V?$Ptr@VDebugCounter@Debug@@@@@Util@@@Util@@QAE@XZ 00433910 f i foundation_win32.release:debugserver.obj
 0001:00032930       ??0?$Dictionary@VStringAtom@Util@@V?$Ptr@VDebugCounter@Debug@@@@@Util@@QAE@XZ 00433930 f i foundation_win32.release:debugserver.obj
 0001:00032950       ??A?$Dictionary@VStringAtom@Util@@V?$Ptr@VDebugCounter@Debug@@@@@Util@@QBEABV?$Ptr@VDebugCounter@Debug@@@@ABVStringAtom@1@@Z 00433950 f i foundation_win32.release:debugserver.obj
 0001:000329a0       ?Clear@?$Dictionary@VStringAtom@Util@@V?$Ptr@VDebugCounter@Debug@@@@@Util@@QAEXXZ 004339a0 f i foundation_win32.release:debugserver.obj
 0001:000329e0       ?Add@?$Dictionary@VStringAtom@Util@@V?$Ptr@VDebugCounter@Debug@@@@@Util@@QAEXABVStringAtom@2@ABV?$Ptr@VDebugCounter@Debug@@@@@Z 004339e0 f i foundation_win32.release:debugserver.obj
 0001:00032a30       ?Erase@?$Dictionary@VStringAtom@Util@@V?$Ptr@VDebugCounter@Debug@@@@@Util@@QAEXABVStringAtom@2@@Z 00433a30 f i foundation_win32.release:debugserver.obj
 0001:00032ab0       ?Contains@?$Dictionary@VStringAtom@Util@@V?$Ptr@VDebugCounter@Debug@@@@@Util@@QBE_NABVStringAtom@2@@Z 00433ab0 f i foundation_win32.release:debugserver.obj
 0001:00032b10       ?ValuesAsArray@?$Dictionary@VStringAtom@Util@@V?$Ptr@VDebugCounter@Debug@@@@@Util@@QBE?AV?$Array@V?$Ptr@VDebugCounter@Debug@@@@@2@XZ 00433b10 f i foundation_win32.release:debugserver.obj
 0001:00032b30       ??0?$Ptr@VDebugTimer@Debug@@@@QAE@ABV0@@Z 00433b30 f i foundation_win32.release:debugserver.obj
 0001:00032b70       ??4?$Ptr@VDebugTimer@Debug@@@@QAEXABV0@@Z 00433b70 f i foundation_win32.release:debugserver.obj
 0001:00032bd0       ??0?$Ptr@VDebugCounter@Debug@@@@QAE@ABV0@@Z 00433bd0 f i foundation_win32.release:debugserver.obj
 0001:00032c10       ??0?$Ptr@VDebugCounter@Debug@@@@QAE@XZ 00433c10 f i foundation_win32.release:debugserver.obj
 0001:00032c30       ??1?$Ptr@VDebugCounter@Debug@@@@QAE@XZ 00433c30 f i foundation_win32.release:debugserver.obj
 0001:00032c60       ??4?$Ptr@VDebugCounter@Debug@@@@QAEXABV0@@Z 00433c60 f i foundation_win32.release:debugserver.obj
 0001:00032cc0       ??C?$Ptr@VDebugCounter@Debug@@@@QBEPAVDebugCounter@Debug@@XZ 00433cc0 f i foundation_win32.release:debugserver.obj
 0001:00032d00       ??0?$Array@V?$Ptr@VDebugTimer@Debug@@@@@Util@@QAE@ABV01@@Z 00433d00 f i foundation_win32.release:debugserver.obj
 0001:00032d50       ??1?$Array@V?$Ptr@VDebugTimer@Debug@@@@@Util@@QAE@XZ 00433d50 f i foundation_win32.release:debugserver.obj
 0001:00032d70       ??0?$Array@V?$Ptr@VDebugCounter@Debug@@@@@Util@@QAE@ABV01@@Z 00433d70 f i foundation_win32.release:debugserver.obj
 0001:00032dc0       ??1?$Array@V?$Ptr@VDebugCounter@Debug@@@@@Util@@QAE@XZ 00433dc0 f i foundation_win32.release:debugserver.obj
 0001:00032de0       ??1?$KeyValuePair@VStringAtom@Util@@V?$Ptr@VDebugTimer@Debug@@@@@Util@@QAE@XZ 00433de0 f i foundation_win32.release:debugserver.obj
 0001:00032e00       ??1?$KeyValuePair@VStringAtom@Util@@V?$Ptr@VDebugCounter@Debug@@@@@Util@@QAE@XZ 00433e00 f i foundation_win32.release:debugserver.obj
 0001:00032e20       ??0?$Array@V?$KeyValuePair@VStringAtom@Util@@V?$Ptr@VDebugTimer@Debug@@@@@Util@@@Util@@QAE@XZ 00433e20 f i foundation_win32.release:debugserver.obj
 0001:00032e60       ??A?$Array@V?$KeyValuePair@VStringAtom@Util@@V?$Ptr@VDebugTimer@Debug@@@@@Util@@@Util@@QBEAAV?$KeyValuePair@VStringAtom@Util@@V?$Ptr@VDebugTimer@Debug@@@@@1@H@Z 00433e60 f i foundation_win32.release:debugserver.obj
 0001:00032eb0       ?Append@?$Array@V?$KeyValuePair@VStringAtom@Util@@V?$Ptr@VDebugTimer@Debug@@@@@Util@@@Util@@QAEXABV?$KeyValuePair@VStringAtom@Util@@V?$Ptr@VDebugTimer@Debug@@@@@2@@Z 00433eb0 f i foundation_win32.release:debugserver.obj
 0001:00032f30       ?EraseIndex@?$Array@V?$KeyValuePair@VStringAtom@Util@@V?$Ptr@VDebugTimer@Debug@@@@@Util@@@Util@@QAEXH@Z 00433f30 f i foundation_win32.release:debugserver.obj
 0001:00032fb0       ?InsertSorted@?$Array@V?$KeyValuePair@VStringAtom@Util@@V?$Ptr@VDebugTimer@Debug@@@@@Util@@@Util@@QAEHABV?$KeyValuePair@VStringAtom@Util@@V?$Ptr@VDebugTimer@Debug@@@@@2@@Z 00433fb0 f i foundation_win32.release:debugserver.obj
 0001:00033220       ?Clear@?$Array@V?$KeyValuePair@VStringAtom@Util@@V?$Ptr@VDebugTimer@Debug@@@@@Util@@@Util@@QAEXXZ 00434220 f i foundation_win32.release:debugserver.obj
 0001:00033270       ?BinarySearchIndex@?$Array@V?$KeyValuePair@VStringAtom@Util@@V?$Ptr@VDebugTimer@Debug@@@@@Util@@@Util@@QBEHABV?$KeyValuePair@VStringAtom@Util@@V?$Ptr@VDebugTimer@Debug@@@@@2@@Z 00434270 f i foundation_win32.release:debugserver.obj
 0001:000333a0       ?Delete@?$Array@V?$KeyValuePair@VStringAtom@Util@@V?$Ptr@VDebugTimer@Debug@@@@@Util@@@Util@@AAEXXZ 004343a0 f i foundation_win32.release:debugserver.obj
 0001:00033410       ?FindIndex@?$Dictionary@VStringAtom@Util@@V?$Ptr@VDebugTimer@Debug@@@@@Util@@QBEHABVStringAtom@2@@Z 00434410 f i foundation_win32.release:debugserver.obj
 0001:00033470       ??0?$KeyValuePair@VStringAtom@Util@@V?$Ptr@VDebugTimer@Debug@@@@@Util@@QAE@ABVStringAtom@1@@Z 00434470 f i foundation_win32.release:debugserver.obj
 0001:000334a0       ??0?$KeyValuePair@VStringAtom@Util@@V?$Ptr@VDebugTimer@Debug@@@@@Util@@QAE@ABVStringAtom@1@ABV?$Ptr@VDebugTimer@Debug@@@@@Z 004344a0 f i foundation_win32.release:debugserver.obj
 0001:000334d0       ?Value@?$KeyValuePair@VStringAtom@Util@@V?$Ptr@VDebugTimer@Debug@@@@@Util@@QAEAAV?$Ptr@VDebugTimer@Debug@@@@XZ 004344d0 f i foundation_win32.release:debugserver.obj
 0001:000334f0       ??$ValuesAs@V?$Array@V?$Ptr@VDebugTimer@Debug@@@@@Util@@@?$Dictionary@VStringAtom@Util@@V?$Ptr@VDebugTimer@Debug@@@@@Util@@QBE?AV?$Array@V?$Ptr@VDebugTimer@Debug@@@@@1@XZ 004344f0 f i foundation_win32.release:debugserver.obj
 0001:00033590       ?Copy@?$Array@V?$Ptr@VDebugTimer@Debug@@@@@Util@@AAEXABV12@@Z 00434590 f i foundation_win32.release:debugserver.obj
 0001:000336c0       ?Delete@?$Array@V?$Ptr@VDebugTimer@Debug@@@@@Util@@AAEXXZ 004346c0 f i foundation_win32.release:debugserver.obj
 0001:00033730       ??0?$Array@V?$KeyValuePair@VStringAtom@Util@@V?$Ptr@VDebugCounter@Debug@@@@@Util@@@Util@@QAE@XZ 00434730 f i foundation_win32.release:debugserver.obj
 0001:00033770       ??A?$Array@V?$KeyValuePair@VStringAtom@Util@@V?$Ptr@VDebugCounter@Debug@@@@@Util@@@Util@@QBEAAV?$KeyValuePair@VStringAtom@Util@@V?$Ptr@VDebugCounter@Debug@@@@@1@H@Z 00434770 f i foundation_win32.release:debugserver.obj
 0001:000337c0       ?Append@?$Array@V?$KeyValuePair@VStringAtom@Util@@V?$Ptr@VDebugCounter@Debug@@@@@Util@@@Util@@QAEXABV?$KeyValuePair@VStringAtom@Util@@V?$Ptr@VDebugCounter@Debug@@@@@2@@Z 004347c0 f i foundation_win32.release:debugserver.obj
 0001:00033840       ?EraseIndex@?$Array@V?$KeyValuePair@VStringAtom@Util@@V?$Ptr@VDebugCounter@Debug@@@@@Util@@@Util@@QAEXH@Z 00434840 f i foundation_win32.release:debugserver.obj
 0001:000338c0       ?InsertSorted@?$Array@V?$KeyValuePair@VStringAtom@Util@@V?$Ptr@VDebugCounter@Debug@@@@@Util@@@Util@@QAEHABV?$KeyValuePair@VStringAtom@Util@@V?$Ptr@VDebugCounter@Debug@@@@@2@@Z 004348c0 f i foundation_win32.release:debugserver.obj
 0001:00033b30       ?Clear@?$Array@V?$KeyValuePair@VStringAtom@Util@@V?$Ptr@VDebugCounter@Debug@@@@@Util@@@Util@@QAEXXZ 00434b30 f i foundation_win32.release:debugserver.obj
 0001:00033b80       ?BinarySearchIndex@?$Array@V?$KeyValuePair@VStringAtom@Util@@V?$Ptr@VDebugCounter@Debug@@@@@Util@@@Util@@QBEHABV?$KeyValuePair@VStringAtom@Util@@V?$Ptr@VDebugCounter@Debug@@@@@2@@Z 00434b80 f i foundation_win32.release:debugserver.obj
 0001:00033cb0       ?Delete@?$Array@V?$KeyValuePair@VStringAtom@Util@@V?$Ptr@VDebugCounter@Debug@@@@@Util@@@Util@@AAEXXZ 00434cb0 f i foundation_win32.release:debugserver.obj
 0001:00033d20       ?FindIndex@?$Dictionary@VStringAtom@Util@@V?$Ptr@VDebugCounter@Debug@@@@@Util@@QBEHABVStringAtom@2@@Z 00434d20 f i foundation_win32.release:debugserver.obj
 0001:00033d80       ??0?$KeyValuePair@VStringAtom@Util@@V?$Ptr@VDebugCounter@Debug@@@@@Util@@QAE@ABVStringAtom@1@@Z 00434d80 f i foundation_win32.release:debugserver.obj
 0001:00033db0       ??0?$KeyValuePair@VStringAtom@Util@@V?$Ptr@VDebugCounter@Debug@@@@@Util@@QAE@ABVStringAtom@1@ABV?$Ptr@VDebugCounter@Debug@@@@@Z 00434db0 f i foundation_win32.release:debugserver.obj
 0001:00033de0       ?Value@?$KeyValuePair@VStringAtom@Util@@V?$Ptr@VDebugCounter@Debug@@@@@Util@@QAEAAV?$Ptr@VDebugCounter@Debug@@@@XZ 00434de0 f i foundation_win32.release:debugserver.obj
 0001:00033e00       ??$ValuesAs@V?$Array@V?$Ptr@VDebugCounter@Debug@@@@@Util@@@?$Dictionary@VStringAtom@Util@@V?$Ptr@VDebugCounter@Debug@@@@@Util@@QBE?AV?$Array@V?$Ptr@VDebugCounter@Debug@@@@@1@XZ 00434e00 f i foundation_win32.release:debugserver.obj
 0001:00033ea0       ?Copy@?$Array@V?$Ptr@VDebugCounter@Debug@@@@@Util@@AAEXABV12@@Z 00434ea0 f i foundation_win32.release:debugserver.obj
 0001:00033fd0       ?Delete@?$Array@V?$Ptr@VDebugCounter@Debug@@@@@Util@@AAEXXZ 00434fd0 f i foundation_win32.release:debugserver.obj
 0001:00034040       ??_E?$KeyValuePair@VStringAtom@Util@@V?$Ptr@VDebugTimer@Debug@@@@@Util@@QAEPAXI@Z 00435040 f i foundation_win32.release:debugserver.obj
 0001:000340e0       ??_E?$Ptr@VDebugTimer@Debug@@@@QAEPAXI@Z 004350e0 f i foundation_win32.release:debugserver.obj
 0001:00034180       ??_E?$KeyValuePair@VStringAtom@Util@@V?$Ptr@VDebugCounter@Debug@@@@@Util@@QAEPAXI@Z 00435180 f i foundation_win32.release:debugserver.obj
 0001:00034220       ??_E?$Ptr@VDebugCounter@Debug@@@@QAEPAXI@Z 00435220 f i foundation_win32.release:debugserver.obj
 0001:000342c0       ?Size@?$Array@V?$KeyValuePair@VStringAtom@Util@@V?$Ptr@VDebugTimer@Debug@@@@@Util@@@Util@@QBEHXZ 004352c0 f i foundation_win32.release:debugserver.obj
 0001:000342e0       ?Insert@?$Array@V?$KeyValuePair@VStringAtom@Util@@V?$Ptr@VDebugTimer@Debug@@@@@Util@@@Util@@QAEXHABV?$KeyValuePair@VStringAtom@Util@@V?$Ptr@VDebugTimer@Debug@@@@@2@@Z 004352e0 f i foundation_win32.release:debugserver.obj
 0001:00034350       ?InsertAtEndOfIdenticalRange@?$Array@V?$KeyValuePair@VStringAtom@Util@@V?$Ptr@VDebugTimer@Debug@@@@@Util@@@Util@@QAEHHABV?$KeyValuePair@VStringAtom@Util@@V?$Ptr@VDebugTimer@Debug@@@@@2@@Z 00435350 f i foundation_win32.release:debugserver.obj
 0001:000343d0       ?Destroy@?$Array@V?$KeyValuePair@VStringAtom@Util@@V?$Ptr@VDebugTimer@Debug@@@@@Util@@@Util@@AAEXPAV?$KeyValuePair@VStringAtom@Util@@V?$Ptr@VDebugTimer@Debug@@@@@2@@Z 004353d0 f i foundation_win32.release:debugserver.obj
 0001:00034400       ?Grow@?$Array@V?$KeyValuePair@VStringAtom@Util@@V?$Ptr@VDebugTimer@Debug@@@@@Util@@@Util@@AAEXXZ 00435400 f i foundation_win32.release:debugserver.obj
 0001:00034480       ?Move@?$Array@V?$KeyValuePair@VStringAtom@Util@@V?$Ptr@VDebugTimer@Debug@@@@@Util@@@Util@@AAEXHH@Z 00435480 f i foundation_win32.release:debugserver.obj
 0001:00034610       ??4?$KeyValuePair@VStringAtom@Util@@V?$Ptr@VDebugTimer@Debug@@@@@Util@@QAEXABV01@@Z 00435610 f i foundation_win32.release:debugserver.obj
 0001:00034640       ??9?$KeyValuePair@VStringAtom@Util@@V?$Ptr@VDebugTimer@Debug@@@@@Util@@QBE_NABV01@@Z 00435640 f i foundation_win32.release:debugserver.obj
 0001:00034660       ??O?$KeyValuePair@VStringAtom@Util@@V?$Ptr@VDebugTimer@Debug@@@@@Util@@QBE_NABV01@@Z 00435660 f i foundation_win32.release:debugserver.obj
 0001:00034680       ??M?$KeyValuePair@VStringAtom@Util@@V?$Ptr@VDebugTimer@Debug@@@@@Util@@QBE_NABV01@@Z 00435680 f i foundation_win32.release:debugserver.obj
 0001:000346a0       ?Size@?$Dictionary@VStringAtom@Util@@V?$Ptr@VDebugTimer@Debug@@@@@Util@@QBEHXZ 004356a0 f i foundation_win32.release:debugserver.obj
 0001:000346c0       ??0?$Array@V?$Ptr@VDebugTimer@Debug@@@@@Util@@QAE@HH@Z 004356c0 f i foundation_win32.release:debugserver.obj
 0001:000347b0       ?Append@?$Array@V?$Ptr@VDebugTimer@Debug@@@@@Util@@QAEXABV?$Ptr@VDebugTimer@Debug@@@@@Z 004357b0 f i foundation_win32.release:debugserver.obj
 0001:00034830       ?Size@?$Array@V?$KeyValuePair@VStringAtom@Util@@V?$Ptr@VDebugCounter@Debug@@@@@Util@@@Util@@QBEHXZ 00435830 f i foundation_win32.release:debugserver.obj
 0001:00034850       ?Insert@?$Array@V?$KeyValuePair@VStringAtom@Util@@V?$Ptr@VDebugCounter@Debug@@@@@Util@@@Util@@QAEXHABV?$KeyValuePair@VStringAtom@Util@@V?$Ptr@VDebugCounter@Debug@@@@@2@@Z 00435850 f i foundation_win32.release:debugserver.obj
 0001:000348c0       ?InsertAtEndOfIdenticalRange@?$Array@V?$KeyValuePair@VStringAtom@Util@@V?$Ptr@VDebugCounter@Debug@@@@@Util@@@Util@@QAEHHABV?$KeyValuePair@VStringAtom@Util@@V?$Ptr@VDebugCounter@Debug@@@@@2@@Z 004358c0 f i foundation_win32.release:debugserver.obj
 0001:00034940       ?Destroy@?$Array@V?$KeyValuePair@VStringAtom@Util@@V?$Ptr@VDebugCounter@Debug@@@@@Util@@@Util@@AAEXPAV?$KeyValuePair@VStringAtom@Util@@V?$Ptr@VDebugCounter@Debug@@@@@2@@Z 00435940 f i foundation_win32.release:debugserver.obj
 0001:00034970       ?Grow@?$Array@V?$KeyValuePair@VStringAtom@Util@@V?$Ptr@VDebugCounter@Debug@@@@@Util@@@Util@@AAEXXZ 00435970 f i foundation_win32.release:debugserver.obj
 0001:000349f0       ?Move@?$Array@V?$KeyValuePair@VStringAtom@Util@@V?$Ptr@VDebugCounter@Debug@@@@@Util@@@Util@@AAEXHH@Z 004359f0 f i foundation_win32.release:debugserver.obj
 0001:00034b80       ??4?$KeyValuePair@VStringAtom@Util@@V?$Ptr@VDebugCounter@Debug@@@@@Util@@QAEXABV01@@Z 00435b80 f i foundation_win32.release:debugserver.obj
 0001:00034bb0       ??9?$KeyValuePair@VStringAtom@Util@@V?$Ptr@VDebugCounter@Debug@@@@@Util@@QBE_NABV01@@Z 00435bb0 f i foundation_win32.release:debugserver.obj
 0001:00034bd0       ??O?$KeyValuePair@VStringAtom@Util@@V?$Ptr@VDebugCounter@Debug@@@@@Util@@QBE_NABV01@@Z 00435bd0 f i foundation_win32.release:debugserver.obj
 0001:00034bf0       ??M?$KeyValuePair@VStringAtom@Util@@V?$Ptr@VDebugCounter@Debug@@@@@Util@@QBE_NABV01@@Z 00435bf0 f i foundation_win32.release:debugserver.obj
 0001:00034c10       ?Size@?$Dictionary@VStringAtom@Util@@V?$Ptr@VDebugCounter@Debug@@@@@Util@@QBEHXZ 00435c10 f i foundation_win32.release:debugserver.obj
 0001:00034c30       ??0?$Array@V?$Ptr@VDebugCounter@Debug@@@@@Util@@QAE@HH@Z 00435c30 f i foundation_win32.release:debugserver.obj
 0001:00034d20       ?Append@?$Array@V?$Ptr@VDebugCounter@Debug@@@@@Util@@QAEXABV?$Ptr@VDebugCounter@Debug@@@@@Z 00435d20 f i foundation_win32.release:debugserver.obj
 0001:00034da0       ??_G?$KeyValuePair@VStringAtom@Util@@V?$Ptr@VDebugTimer@Debug@@@@@Util@@QAEPAXI@Z 00435da0 f i foundation_win32.release:debugserver.obj
 0001:00034de0       ??_G?$KeyValuePair@VStringAtom@Util@@V?$Ptr@VDebugCounter@Debug@@@@@Util@@QAEPAXI@Z 00435de0 f i foundation_win32.release:debugserver.obj
 0001:00034e20       ?GrowTo@?$Array@V?$KeyValuePair@VStringAtom@Util@@V?$Ptr@VDebugTimer@Debug@@@@@Util@@@Util@@AAEXH@Z 00435e20 f i foundation_win32.release:debugserver.obj
 0001:00034f40       ?Grow@?$Array@V?$Ptr@VDebugTimer@Debug@@@@@Util@@AAEXXZ 00435f40 f i foundation_win32.release:debugserver.obj
 0001:00034fc0       ?GrowTo@?$Array@V?$KeyValuePair@VStringAtom@Util@@V?$Ptr@VDebugCounter@Debug@@@@@Util@@@Util@@AAEXH@Z 00435fc0 f i foundation_win32.release:debugserver.obj
 0001:000350e0       ?Grow@?$Array@V?$Ptr@VDebugCounter@Debug@@@@@Util@@AAEXXZ 004360e0 f i foundation_win32.release:debugserver.obj
 0001:00035160       ??0?$KeyValuePair@VStringAtom@Util@@V?$Ptr@VDebugTimer@Debug@@@@@Util@@QAE@XZ 00436160 f i foundation_win32.release:debugserver.obj
 0001:00035190       ?GrowTo@?$Array@V?$Ptr@VDebugTimer@Debug@@@@@Util@@AAEXH@Z 00436190 f i foundation_win32.release:debugserver.obj
 0001:000352b0       ??0?$KeyValuePair@VStringAtom@Util@@V?$Ptr@VDebugCounter@Debug@@@@@Util@@QAE@XZ 004362b0 f i foundation_win32.release:debugserver.obj
 0001:000352e0       ?GrowTo@?$Array@V?$Ptr@VDebugCounter@Debug@@@@@Util@@AAEXH@Z 004362e0 f i foundation_win32.release:debugserver.obj
 0001:00035400       ?Clear@StringAtom@Util@@QAEXXZ 00436400 f i foundation_win32.release:debugtimer.obj
 0001:00035420       ??2DebugTimer@Debug@@SAPAXI@Z 00436420 f i foundation_win32.release:debugtimer.obj
 0001:00035430       ??3DebugTimer@Debug@@SAXPAX@Z 00436430 f i foundation_win32.release:debugtimer.obj
 0001:00035450       ?IsValid@DebugTimer@Debug@@QBE_NXZ 00436450 f i foundation_win32.release:debugtimer.obj
 0001:00035490       ?Instance@DebugServer@Debug@@SAPAV12@XZ 00436490 f i foundation_win32.release:debugtimer.obj
 0001:000354c0       ?GetRtti@DebugTimer@Debug@@UBEPAVRtti@Core@@XZ 004364c0 f   foundation_win32.release:debugtimer.obj
 0001:000354d0       ?FactoryCreator@DebugTimer@Debug@@SAPAVRefCounted@Core@@XZ 004364d0 f   foundation_win32.release:debugtimer.obj
 0001:000354e0       ?Create@DebugTimer@Debug@@SAPAV12@XZ 004364e0 f   foundation_win32.release:debugtimer.obj
 0001:00035520       ?RegisterWithFactory@DebugTimer@Debug@@SA_NXZ 00436520 f   foundation_win32.release:debugtimer.obj
 0001:00035620       ??0DebugTimer@Debug@@QAE@XZ 00436620 f   foundation_win32.release:debugtimer.obj
 0001:000356b0       ??_GDebugTimer@Debug@@UAEPAXI@Z 004366b0 f i foundation_win32.release:debugtimer.obj
 0001:000356b0       ??_EDebugTimer@Debug@@UAEPAXI@Z 004366b0 f i  CIL library: CIL module
 0001:000356e0       ??1DebugTimer@Debug@@UAE@XZ 004366e0 f   foundation_win32.release:debugtimer.obj
 0001:000357a0       ?Setup@DebugTimer@Debug@@QAEXABVStringAtom@Util@@@Z 004367a0 f   foundation_win32.release:debugtimer.obj
 0001:000358d0       ?Discard@DebugTimer@Debug@@QAEXXZ 004368d0 f   foundation_win32.release:debugtimer.obj
 0001:000359c0       ?GetSample@DebugTimer@Debug@@QBENXZ 004369c0 f   foundation_win32.release:debugtimer.obj
 0001:00035a30       ?GetHistory@DebugTimer@Debug@@QBE?AV?$Array@N@Util@@XZ 00436a30 f   foundation_win32.release:debugtimer.obj
 0001:00035aa0       ?CreateAsSingleton@DebugTimer@Debug@@SA?AV?$Ptr@VDebugTimer@Debug@@@@ABVStringAtom@Util@@@Z 00436aa0 f   foundation_win32.release:debugtimer.obj
 0001:00035b20       ?DestroySingleton@DebugTimer@Debug@@SAXABVStringAtom@Util@@@Z 00436b20 f   foundation_win32.release:debugtimer.obj
 0001:00035b80       ??0?$RingBuffer@N@Util@@QAE@H@Z 00436b80 f i foundation_win32.release:debugtimer.obj
 0001:00035bb0       ??1?$RingBuffer@N@Util@@QAE@XZ 00436bb0 f i foundation_win32.release:debugtimer.obj
 0001:00035bd0       ?IsEmpty@?$RingBuffer@N@Util@@QBE_NXZ 00436bd0 f i foundation_win32.release:debugtimer.obj
 0001:00035bf0       ?Reset@?$RingBuffer@N@Util@@QAEXXZ 00436bf0 f i foundation_win32.release:debugtimer.obj
 0001:00035c20       ?Back@?$RingBuffer@N@Util@@QBEAANXZ 00436c20 f i foundation_win32.release:debugtimer.obj
 0001:00035c60       ?AsArray@?$RingBuffer@N@Util@@QBE?AV?$Array@N@2@XZ 00436c60 f i foundation_win32.release:debugtimer.obj
 0001:00035cd0       ??0?$Ptr@VDebugTimer@Debug@@@@QAE@PAVDebugTimer@Debug@@@Z 00436cd0 f i foundation_win32.release:debugtimer.obj
 0001:00035d10       ??0?$Array@N@Util@@QAE@ABV01@@Z 00436d10 f i foundation_win32.release:debugtimer.obj
 0001:00035d60       ??1?$Array@N@Util@@QAE@XZ  00436d60 f i foundation_win32.release:debugtimer.obj
 0001:00035d80       ??A?$RingBuffer@N@Util@@QBEAANH@Z 00436d80 f i foundation_win32.release:debugtimer.obj
 0001:00035df0       ?Allocate@?$RingBuffer@N@Util@@AAEXH@Z 00436df0 f i foundation_win32.release:debugtimer.obj
 0001:00035e90       ?Delete@?$RingBuffer@N@Util@@AAEXXZ 00436e90 f i foundation_win32.release:debugtimer.obj
 0001:00035ef0       ??0?$Array@N@Util@@QAE@HH@Z 00436ef0 f i foundation_win32.release:debugtimer.obj
 0001:00035f80       ?Append@?$Array@N@Util@@QAEXABN@Z 00436f80 f i foundation_win32.release:debugtimer.obj
 0001:00035ff0       ?Copy@?$Array@N@Util@@AAEXABV12@@Z 00436ff0 f i foundation_win32.release:debugtimer.obj
 0001:000360c0       ?Delete@?$Array@N@Util@@AAEXXZ 004370c0 f i foundation_win32.release:debugtimer.obj
 0001:00036120       ?Grow@?$Array@N@Util@@AAEXXZ 00437120 f i foundation_win32.release:debugtimer.obj
 0001:000361a0       ?GrowTo@?$Array@N@Util@@AAEXH@Z 004371a0 f i foundation_win32.release:debugtimer.obj
 0001:00036250       ??2MemoryStream@IO@@SAPAXI@Z 00437250 f i foundation_win32.release:memorystream.obj
 0001:00036260       ??3MemoryStream@IO@@SAXPAX@Z 00437260 f i foundation_win32.release:memorystream.obj
 0001:00036280       ?GetRtti@MemoryStream@IO@@UBEPAVRtti@Core@@XZ 00437280 f   foundation_win32.release:memorystream.obj
 0001:00036290       ?FactoryCreator@MemoryStream@IO@@SAPAVRefCounted@Core@@XZ 00437290 f   foundation_win32.release:memorystream.obj
 0001:000362a0       ?Create@MemoryStream@IO@@SAPAV12@XZ 004372a0 f   foundation_win32.release:memorystream.obj
 0001:000362e0       ?RegisterWithFactory@MemoryStream@IO@@SA_NXZ 004372e0 f   foundation_win32.release:memorystream.obj
 0001:000363e0       ??0MemoryStream@IO@@QAE@XZ 004373e0 f   foundation_win32.release:memorystream.obj
 0001:00036440       ??_EMemoryStream@IO@@UAEPAXI@Z 00437440 f i  CIL library: CIL module
 0001:00036440       ??_GMemoryStream@IO@@UAEPAXI@Z 00437440 f i foundation_win32.release:memorystream.obj
 0001:00036470       ??1MemoryStream@IO@@UAE@XZ 00437470 f   foundation_win32.release:memorystream.obj
 0001:000364d0       ?CanRead@MemoryStream@IO@@UBE_NXZ 004374d0 f   foundation_win32.release:memorystream.obj
 0001:000364e0       ?CanWrite@MemoryStream@IO@@UBE_NXZ 004374e0 f   foundation_win32.release:memorystream.obj
 0001:000364f0       ?CanSeek@MemoryStream@IO@@UBE_NXZ 004374f0 f   foundation_win32.release:memorystream.obj
 0001:00036500       ?CanBeMapped@MemoryStream@IO@@UBE_NXZ 00437500 f   foundation_win32.release:memorystream.obj
 0001:00036510       ?SetSize@MemoryStream@IO@@UAEXH@Z 00437510 f   foundation_win32.release:memorystream.obj
 0001:00036550       ?GetSize@MemoryStream@IO@@UBEHXZ 00437550 f   foundation_win32.release:memorystream.obj
 0001:00036570       ?GetPosition@MemoryStream@IO@@UBEHXZ 00437570 f   foundation_win32.release:memorystream.obj
 0001:00036590       ?Open@MemoryStream@IO@@UAE_NXZ 00437590 f   foundation_win32.release:memorystream.obj
 0001:00036630       ?Close@MemoryStream@IO@@UAEXXZ 00437630 f   foundation_win32.release:memorystream.obj
 0001:00036690       ?Write@MemoryStream@IO@@UAEXPBXH@Z 00437690 f   foundation_win32.release:memorystream.obj
 0001:00036870       ?Read@MemoryStream@IO@@UAEHPAXH@Z 00437870 f   foundation_win32.release:memorystream.obj
 0001:00036a40       ?Seek@MemoryStream@IO@@UAEXHW4SeekOrigin@Stream@2@@Z 00437a40 f   foundation_win32.release:memorystream.obj
 0001:00036b80       ?Eof@MemoryStream@IO@@UBE_NXZ 00437b80 f   foundation_win32.release:memorystream.obj
 0001:00036c30       ?HasRoom@MemoryStream@IO@@ABE_NH@Z 00437c30 f   foundation_win32.release:memorystream.obj
 0001:00036c60       ?Realloc@MemoryStream@IO@@AAEXH@Z 00437c60 f   foundation_win32.release:memorystream.obj
 0001:00036de0       ?MakeRoom@MemoryStream@IO@@AAEXH@Z 00437de0 f   foundation_win32.release:memorystream.obj
 0001:00036eb0       ?Map@MemoryStream@IO@@UAEPAXXZ 00437eb0 f   foundation_win32.release:memorystream.obj
 0001:00036f20       ?Unmap@MemoryStream@IO@@UAEXXZ 00437f20 f   foundation_win32.release:memorystream.obj
 0001:00036f60       ?GetRawPointer@MemoryStream@IO@@QBEPAXXZ 00437f60 f   foundation_win32.release:memorystream.obj
 0001:00036fa0       ??2HttpClientRegistry@Http@@SAPAXI@Z 00437fa0 f i foundation_win32.release:httpclientregistry.obj
 0001:00036fb0       ??3HttpClientRegistry@Http@@SAXPAX@Z 00437fb0 f i foundation_win32.release:httpclientregistry.obj
 0001:00036fd0       ?IsValid@HttpClientRegistry@Http@@QBE_NXZ 00437fd0 f i foundation_win32.release:httpclientregistry.obj
 0001:00036ff0       ?GetRtti@HttpClientRegistry@Http@@UBEPAVRtti@Core@@XZ 00437ff0 f   foundation_win32.release:httpclientregistry.obj
 0001:00037000       ?FactoryCreator@HttpClientRegistry@Http@@SAPAVRefCounted@Core@@XZ 00438000 f   foundation_win32.release:httpclientregistry.obj
 0001:00037010       ?Create@HttpClientRegistry@Http@@SAPAV12@XZ 00438010 f   foundation_win32.release:httpclientregistry.obj
 0001:00037050       ?RegisterWithFactory@HttpClientRegistry@Http@@SA_NXZ 00438050 f   foundation_win32.release:httpclientregistry.obj
 0001:00037150       ??0HttpClientRegistry@Http@@QAE@XZ 00438150 f   foundation_win32.release:httpclientregistry.obj
 0001:000371c0       ??_GHttpClientRegistry@Http@@UAEPAXI@Z 004381c0 f i foundation_win32.release:httpclientregistry.obj
 0001:000371c0       ??_EHttpClientRegistry@Http@@UAEPAXI@Z 004381c0 f i  CIL library: CIL module
 0001:000371f0       ??1?$Dictionary@VStringAtom@Util@@UConnection@HttpClientRegistry@Http@@@Util@@QAE@XZ 004381f0 f i foundation_win32.release:httpclientregistry.obj
 0001:00037210       ??1HttpClientRegistry@Http@@UAE@XZ 00438210 f   foundation_win32.release:httpclientregistry.obj
 0001:00037290       ?Setup@HttpClientRegistry@Http@@QAEXXZ 00438290 f   foundation_win32.release:httpclientregistry.obj
 0001:000372d0       ?Discard@HttpClientRegistry@Http@@QAEXXZ 004382d0 f   foundation_win32.release:httpclientregistry.obj
 0001:00037360       ?DisconnectIdle@HttpClientRegistry@Http@@QAEXXZ 00438360 f   foundation_win32.release:httpclientregistry.obj
 0001:000373e0       ?ObtainConnection@HttpClientRegistry@Http@@QAE?AV?$Ptr@VHttpClient@Http@@@@ABVURI@IO@@@Z 004383e0 f   foundation_win32.release:httpclientregistry.obj
 0001:000374f0       ??0Connection@HttpClientRegistry@Http@@QAE@XZ 004384f0 f i foundation_win32.release:httpclientregistry.obj
 0001:00037510       ??1Connection@HttpClientRegistry@Http@@QAE@XZ 00438510 f i foundation_win32.release:httpclientregistry.obj
 0001:00037530       ?ReleaseConnection@HttpClientRegistry@Http@@QAEXABVURI@IO@@@Z 00438530 f   foundation_win32.release:httpclientregistry.obj
 0001:000375d0       ?IsConnected@HttpClientRegistry@Http@@QBE_NABVURI@IO@@@Z 004385d0 f   foundation_win32.release:httpclientregistry.obj
 0001:00037650       ??0?$Ptr@VHttpClient@Http@@@@QAE@ABV0@@Z 00438650 f i foundation_win32.release:httpclientregistry.obj
 0001:00037690       ??0?$Ptr@VHttpClient@Http@@@@QAE@XZ 00438690 f i foundation_win32.release:httpclientregistry.obj
 0001:000376b0       ??4?$Ptr@VHttpClient@Http@@@@QAEXPAVHttpClient@Http@@@Z 004386b0 f i foundation_win32.release:httpclientregistry.obj
 0001:00037710       ??1?$Array@V?$KeyValuePair@VStringAtom@Util@@UConnection@HttpClientRegistry@Http@@@Util@@@Util@@QAE@XZ 00438710 f i foundation_win32.release:httpclientregistry.obj
 0001:00037730       ??0?$Dictionary@VStringAtom@Util@@UConnection@HttpClientRegistry@Http@@@Util@@QAE@XZ 00438730 f i foundation_win32.release:httpclientregistry.obj
 0001:00037750       ??A?$Dictionary@VStringAtom@Util@@UConnection@HttpClientRegistry@Http@@@Util@@QBEABUConnection@HttpClientRegistry@Http@@ABVStringAtom@1@@Z 00438750 f i foundation_win32.release:httpclientregistry.obj
 0001:000377a0       ??A?$Dictionary@VStringAtom@Util@@UConnection@HttpClientRegistry@Http@@@Util@@QAEAAUConnection@HttpClientRegistry@Http@@ABVStringAtom@1@@Z 004387a0 f i foundation_win32.release:httpclientregistry.obj
 0001:000377f0       ?Size@?$Dictionary@VStringAtom@Util@@UConnection@HttpClientRegistry@Http@@@Util@@QBEHXZ 004387f0 f i foundation_win32.release:httpclientregistry.obj
 0001:00037810       ?Clear@?$Dictionary@VStringAtom@Util@@UConnection@HttpClientRegistry@Http@@@Util@@QAEXXZ 00438810 f i foundation_win32.release:httpclientregistry.obj
 0001:00037850       ?Add@?$Dictionary@VStringAtom@Util@@UConnection@HttpClientRegistry@Http@@@Util@@QAEXABVStringAtom@2@ABUConnection@HttpClientRegistry@Http@@@Z 00438850 f i foundation_win32.release:httpclientregistry.obj
 0001:000378a0       ?EraseAtIndex@?$Dictionary@VStringAtom@Util@@UConnection@HttpClientRegistry@Http@@@Util@@QAEXH@Z 004388a0 f i foundation_win32.release:httpclientregistry.obj
 0001:000378e0       ?FindIndex@?$Dictionary@VStringAtom@Util@@UConnection@HttpClientRegistry@Http@@@Util@@QBEHABVStringAtom@2@@Z 004388e0 f i foundation_win32.release:httpclientregistry.obj
 0001:00037940       ?Contains@?$Dictionary@VStringAtom@Util@@UConnection@HttpClientRegistry@Http@@@Util@@QBE_NABVStringAtom@2@@Z 00438940 f i foundation_win32.release:httpclientregistry.obj
 0001:000379a0       ?ValueAtIndex@?$Dictionary@VStringAtom@Util@@UConnection@HttpClientRegistry@Http@@@Util@@QAEAAUConnection@HttpClientRegistry@Http@@H@Z 004389a0 f i foundation_win32.release:httpclientregistry.obj
 0001:000379f0       ??1?$KeyValuePair@VStringAtom@Util@@UConnection@HttpClientRegistry@Http@@@Util@@QAE@XZ 004389f0 f i foundation_win32.release:httpclientregistry.obj
 0001:00037a10       ??0?$Array@V?$KeyValuePair@VStringAtom@Util@@UConnection@HttpClientRegistry@Http@@@Util@@@Util@@QAE@XZ 00438a10 f i foundation_win32.release:httpclientregistry.obj
 0001:00037a50       ??A?$Array@V?$KeyValuePair@VStringAtom@Util@@UConnection@HttpClientRegistry@Http@@@Util@@@Util@@QBEAAV?$KeyValuePair@VStringAtom@Util@@UConnection@HttpClientRegistry@Http@@@1@H@Z 00438a50 f i foundation_win32.release:httpclientregistry.obj
 0001:00037aa0       ?Append@?$Array@V?$KeyValuePair@VStringAtom@Util@@UConnection@HttpClientRegistry@Http@@@Util@@@Util@@QAEXABV?$KeyValuePair@VStringAtom@Util@@UConnection@HttpClientRegistry@Http@@@2@@Z 00438aa0 f i foundation_win32.release:httpclientregistry.obj
 0001:00037b20       ?Size@?$Array@V?$KeyValuePair@VStringAtom@Util@@UConnection@HttpClientRegistry@Http@@@Util@@@Util@@QBEHXZ 00438b20 f i foundation_win32.release:httpclientregistry.obj
 0001:00037b40       ?EraseIndex@?$Array@V?$KeyValuePair@VStringAtom@Util@@UConnection@HttpClientRegistry@Http@@@Util@@@Util@@QAEXH@Z 00438b40 f i foundation_win32.release:httpclientregistry.obj
 0001:00037bc0       ?InsertSorted@?$Array@V?$KeyValuePair@VStringAtom@Util@@UConnection@HttpClientRegistry@Http@@@Util@@@Util@@QAEHABV?$KeyValuePair@VStringAtom@Util@@UConnection@HttpClientRegistry@Http@@@2@@Z 00438bc0 f i foundation_win32.release:httpclientregistry.obj
 0001:00037e30       ?Clear@?$Array@V?$KeyValuePair@VStringAtom@Util@@UConnection@HttpClientRegistry@Http@@@Util@@@Util@@QAEXXZ 00438e30 f i foundation_win32.release:httpclientregistry.obj
 0001:00037e80       ?BinarySearchIndex@?$Array@V?$KeyValuePair@VStringAtom@Util@@UConnection@HttpClientRegistry@Http@@@Util@@@Util@@QBEHABV?$KeyValuePair@VStringAtom@Util@@UConnection@HttpClientRegistry@Http@@@2@@Z 00438e80 f i foundation_win32.release:httpclientregistry.obj
 0001:00037fb0       ?Delete@?$Array@V?$KeyValuePair@VStringAtom@Util@@UConnection@HttpClientRegistry@Http@@@Util@@@Util@@AAEXXZ 00438fb0 f i foundation_win32.release:httpclientregistry.obj
 0001:00038020       ??0?$KeyValuePair@VStringAtom@Util@@UConnection@HttpClientRegistry@Http@@@Util@@QAE@ABVStringAtom@1@@Z 00439020 f i foundation_win32.release:httpclientregistry.obj
 0001:00038050       ??0?$KeyValuePair@VStringAtom@Util@@UConnection@HttpClientRegistry@Http@@@Util@@QAE@ABVStringAtom@1@ABUConnection@HttpClientRegistry@Http@@@Z 00439050 f i foundation_win32.release:httpclientregistry.obj
 0001:00038090       ?Value@?$KeyValuePair@VStringAtom@Util@@UConnection@HttpClientRegistry@Http@@@Util@@QAEAAUConnection@HttpClientRegistry@Http@@XZ 00439090 f i foundation_win32.release:httpclientregistry.obj
 0001:000380b0       ??_E?$KeyValuePair@VStringAtom@Util@@UConnection@HttpClientRegistry@Http@@@Util@@QAEPAXI@Z 004390b0 f i foundation_win32.release:httpclientregistry.obj
 0001:00038150       ??0Connection@HttpClientRegistry@Http@@QAE@ABU012@@Z 00439150 f i foundation_win32.release:httpclientregistry.obj
 0001:00038180       ?Insert@?$Array@V?$KeyValuePair@VStringAtom@Util@@UConnection@HttpClientRegistry@Http@@@Util@@@Util@@QAEXHABV?$KeyValuePair@VStringAtom@Util@@UConnection@HttpClientRegistry@Http@@@2@@Z 00439180 f i foundation_win32.release:httpclientregistry.obj
 0001:000381f0       ?InsertAtEndOfIdenticalRange@?$Array@V?$KeyValuePair@VStringAtom@Util@@UConnection@HttpClientRegistry@Http@@@Util@@@Util@@QAEHHABV?$KeyValuePair@VStringAtom@Util@@UConnection@HttpClientRegistry@Http@@@2@@Z 004391f0 f i foundation_win32.release:httpclientregistry.obj
 0001:00038270       ?Destroy@?$Array@V?$KeyValuePair@VStringAtom@Util@@UConnection@HttpClientRegistry@Http@@@Util@@@Util@@AAEXPAV?$KeyValuePair@VStringAtom@Util@@UConnection@HttpClientRegistry@Http@@@2@@Z 00439270 f i foundation_win32.release:httpclientregistry.obj
 0001:000382a0       ?Grow@?$Array@V?$KeyValuePair@VStringAtom@Util@@UConnection@HttpClientRegistry@Http@@@Util@@@Util@@AAEXXZ 004392a0 f i foundation_win32.release:httpclientregistry.obj
 0001:00038320       ?Move@?$Array@V?$KeyValuePair@VStringAtom@Util@@UConnection@HttpClientRegistry@Http@@@Util@@@Util@@AAEXHH@Z 00439320 f i foundation_win32.release:httpclientregistry.obj
 0001:000384b0       ??4?$KeyValuePair@VStringAtom@Util@@UConnection@HttpClientRegistry@Http@@@Util@@QAEXABV01@@Z 004394b0 f i foundation_win32.release:httpclientregistry.obj
 0001:00038500       ??9?$KeyValuePair@VStringAtom@Util@@UConnection@HttpClientRegistry@Http@@@Util@@QBE_NABV01@@Z 00439500 f i foundation_win32.release:httpclientregistry.obj
 0001:00038520       ??O?$KeyValuePair@VStringAtom@Util@@UConnection@HttpClientRegistry@Http@@@Util@@QBE_NABV01@@Z 00439520 f i foundation_win32.release:httpclientregistry.obj
 0001:00038540       ??M?$KeyValuePair@VStringAtom@Util@@UConnection@HttpClientRegistry@Http@@@Util@@QBE_NABV01@@Z 00439540 f i foundation_win32.release:httpclientregistry.obj
 0001:00038560       ??_G?$KeyValuePair@VStringAtom@Util@@UConnection@HttpClientRegistry@Http@@@Util@@QAEPAXI@Z 00439560 f i foundation_win32.release:httpclientregistry.obj
 0001:000385a0       ??4Connection@HttpClientRegistry@Http@@QAEAAU012@ABU012@@Z 004395a0 f i foundation_win32.release:httpclientregistry.obj
 0001:000385d0       ?GrowTo@?$Array@V?$KeyValuePair@VStringAtom@Util@@UConnection@HttpClientRegistry@Http@@@Util@@@Util@@AAEXH@Z 004395d0 f i foundation_win32.release:httpclientregistry.obj
 0001:000386f0       ??4?$Ptr@VHttpClient@Http@@@@QAEXABV0@@Z 004396f0 f i foundation_win32.release:httpclientregistry.obj
 0001:00038750       ??0?$KeyValuePair@VStringAtom@Util@@UConnection@HttpClientRegistry@Http@@@Util@@QAE@XZ 00439750 f i foundation_win32.release:httpclientregistry.obj
 0001:00038780       ?SetBlocking@StdTcpClient@Net@@QAEX_N@Z 00439780 f i foundation_win32.release:httpclient.obj
 0001:000387c0       ?IsBlocking@StdTcpClient@Net@@QBE_NXZ 004397c0 f i foundation_win32.release:httpclient.obj
 0001:000387e0       ?SetServerAddress@StdTcpClient@Net@@QAEXABVWin360IpAddress@Win360@@@Z 004397e0 f i foundation_win32.release:httpclient.obj
 0001:00038800       ??2HttpClient@Http@@SAPAXI@Z 00439800 f i foundation_win32.release:httpclient.obj
 0001:00038810       ??3HttpClient@Http@@SAXPAX@Z 00439810 f i foundation_win32.release:httpclient.obj
 0001:00038830       ?SetMethod@HttpRequestWriter@Http@@QAEXW4Code@HttpMethod@2@@Z 00439830 f i foundation_win32.release:httpclient.obj
 0001:00038850       ?SetURI@HttpRequestWriter@Http@@QAEXABVURI@IO@@@Z 00439850 f i foundation_win32.release:httpclient.obj
 0001:00038870       ?SetUserAgent@HttpRequestWriter@Http@@QAEXABVString@Util@@@Z 00439870 f i foundation_win32.release:httpclient.obj
 0001:000388c0       ?IsValidHttpResponse@HttpResponseReader@Http@@QBE_NXZ 004398c0 f i foundation_win32.release:httpclient.obj
 0001:000388e0       ?GetStatusCode@HttpResponseReader@Http@@QBE?AW4Code@HttpStatus@2@XZ 004398e0 f i foundation_win32.release:httpclient.obj
 0001:00038900       ?GetContentLength@HttpResponseReader@Http@@QBEHXZ 00439900 f i foundation_win32.release:httpclient.obj
 0001:00038920       ?GetRtti@HttpClient@Http@@UBEPAVRtti@Core@@XZ 00439920 f   foundation_win32.release:httpclient.obj
 0001:00038930       ?FactoryCreator@HttpClient@Http@@SAPAVRefCounted@Core@@XZ 00439930 f   foundation_win32.release:httpclient.obj
 0001:00038940       ?Create@HttpClient@Http@@SAPAV12@XZ 00439940 f   foundation_win32.release:httpclient.obj
 0001:00038980       ?RegisterWithFactory@HttpClient@Http@@SA_NXZ 00439980 f   foundation_win32.release:httpclient.obj
 0001:00038a80       ??0HttpClient@Http@@QAE@XZ 00439a80 f   foundation_win32.release:httpclient.obj
 0001:00038b20       ??_GHttpClient@Http@@UAEPAXI@Z 00439b20 f i foundation_win32.release:httpclient.obj
 0001:00038b20       ??_EHttpClient@Http@@UAEPAXI@Z 00439b20 f i  CIL library: CIL module
 0001:00038b50       ??1HttpClient@Http@@UAE@XZ 00439b50 f   foundation_win32.release:httpclient.obj
 0001:00038bf0       ?Connect@HttpClient@Http@@QAE_NABVURI@IO@@@Z 00439bf0 f   foundation_win32.release:httpclient.obj
 0001:00038ce0       ?Disconnect@HttpClient@Http@@QAEXXZ 00439ce0 f   foundation_win32.release:httpclient.obj
 0001:00038d10       ?IsConnected@HttpClient@Http@@QBE_NXZ 00439d10 f   foundation_win32.release:httpclient.obj
 0001:00038d30       ?SendRequest@HttpClient@Http@@QAE?AW4Code@HttpStatus@2@W43HttpMethod@2@ABVURI@IO@@ABV?$Ptr@VStream@IO@@@@@Z 00439d30 f   foundation_win32.release:httpclient.obj
 0001:000392d0       ?isvalid@?$Ptr@VSocket@Net@@@@QBE_NXZ 0043a2d0 f i foundation_win32.release:httpclient.obj
 0001:000392f0       ??0?$Ptr@VTcpClient@Net@@@@QAE@XZ 0043a2f0 f i foundation_win32.release:httpclient.obj
 0001:00039310       ??1?$Ptr@VTcpClient@Net@@@@QAE@XZ 0043a310 f i foundation_win32.release:httpclient.obj
 0001:00039340       ??4?$Ptr@VTcpClient@Net@@@@QAEXPAVTcpClient@Net@@@Z 0043a340 f i foundation_win32.release:httpclient.obj
 0001:000393a0       ??C?$Ptr@VTcpClient@Net@@@@QBEPAVTcpClient@Net@@XZ 0043a3a0 f i foundation_win32.release:httpclient.obj
 0001:000393e0       ??0?$Ptr@VHttpRequestWriter@Http@@@@QAE@PAVHttpRequestWriter@Http@@@Z 0043a3e0 f i foundation_win32.release:httpclient.obj
 0001:00039420       ??1?$Ptr@VHttpRequestWriter@Http@@@@QAE@XZ 0043a420 f i foundation_win32.release:httpclient.obj
 0001:00039450       ??C?$Ptr@VHttpRequestWriter@Http@@@@QBEPAVHttpRequestWriter@Http@@XZ 0043a450 f i foundation_win32.release:httpclient.obj
 0001:00039490       ??0?$Ptr@VHttpResponseReader@Http@@@@QAE@PAVHttpResponseReader@Http@@@Z 0043a490 f i foundation_win32.release:httpclient.obj
 0001:000394d0       ??1?$Ptr@VHttpResponseReader@Http@@@@QAE@XZ 0043a4d0 f i foundation_win32.release:httpclient.obj
 0001:00039500       ??C?$Ptr@VHttpResponseReader@Http@@@@QBEPAVHttpResponseReader@Http@@XZ 0043a500 f i foundation_win32.release:httpclient.obj
 0001:00039540       ??2TcpClient@Net@@SAPAXI@Z 0043a540 f i foundation_win32.release:tcpclient.obj
 0001:00039550       ??3TcpClient@Net@@SAXPAX@Z 0043a550 f i foundation_win32.release:tcpclient.obj
 0001:00039570       ?GetRtti@TcpClient@Net@@UBEPAVRtti@Core@@XZ 0043a570 f   foundation_win32.release:tcpclient.obj
 0001:00039580       ?FactoryCreator@TcpClient@Net@@SAPAVRefCounted@Core@@XZ 0043a580 f   foundation_win32.release:tcpclient.obj
 0001:00039590       ?Create@TcpClient@Net@@SAPAV12@XZ 0043a590 f   foundation_win32.release:tcpclient.obj
 0001:000395d0       ??0TcpClient@Net@@QAE@XZ   0043a5d0 f i foundation_win32.release:tcpclient.obj
 0001:000395f0       ??_GTcpClient@Net@@UAEPAXI@Z 0043a5f0 f i foundation_win32.release:tcpclient.obj
 0001:000395f0       ??_ETcpClient@Net@@UAEPAXI@Z 0043a5f0 f i  CIL library: CIL module
 0001:00039620       ??1TcpClient@Net@@UAE@XZ   0043a620 f i foundation_win32.release:tcpclient.obj
 0001:00039640       ?RegisterWithFactory@TcpClient@Net@@SA_NXZ 0043a640 f   foundation_win32.release:tcpclient.obj
 0001:00039740       ?SetReUseAddr@Win360Socket@Win360@@QAEX_N@Z 0043a740 f i foundation_win32.release:stdtcpclient.obj
 0001:00039760       ?SetNoDelay@Win360Socket@Win360@@QAEX_N@Z 0043a760 f i foundation_win32.release:stdtcpclient.obj
 0001:00039780       ?GetMaxMsgSize@Win360Socket@Win360@@QAEHXZ 0043a780 f i foundation_win32.release:stdtcpclient.obj
 0001:00039790       ??2StdTcpClient@Net@@SAPAXI@Z 0043a790 f i foundation_win32.release:stdtcpclient.obj
 0001:000397a0       ??3StdTcpClient@Net@@SAXPAX@Z 0043a7a0 f i foundation_win32.release:stdtcpclient.obj
 0001:000397c0       ?GetRtti@StdTcpClient@Net@@UBEPAVRtti@Core@@XZ 0043a7c0 f   foundation_win32.release:stdtcpclient.obj
 0001:000397d0       ?FactoryCreator@StdTcpClient@Net@@SAPAVRefCounted@Core@@XZ 0043a7d0 f   foundation_win32.release:stdtcpclient.obj
 0001:000397e0       ?Create@StdTcpClient@Net@@SAPAV12@XZ 0043a7e0 f   foundation_win32.release:stdtcpclient.obj
 0001:00039820       ?RegisterWithFactory@StdTcpClient@Net@@SA_NXZ 0043a820 f   foundation_win32.release:stdtcpclient.obj
 0001:00039920       ??0StdTcpClient@Net@@QAE@XZ 0043a920 f   foundation_win32.release:stdtcpclient.obj
 0001:000399b0       ??_GStdTcpClient@Net@@UAEPAXI@Z 0043a9b0 f i foundation_win32.release:stdtcpclient.obj
 0001:000399b0       ??_EStdTcpClient@Net@@UAEPAXI@Z 0043a9b0 f i  CIL library: CIL module
 0001:000399e0       ??1StdTcpClient@Net@@UAE@XZ 0043a9e0 f   foundation_win32.release:stdtcpclient.obj
 0001:00039a60       ?Connect@StdTcpClient@Net@@QAE?AW4Result@12@XZ 0043aa60 f   foundation_win32.release:stdtcpclient.obj
 0001:00039c70       ?IsConnected@StdTcpClient@Net@@QAE_NXZ 0043ac70 f   foundation_win32.release:stdtcpclient.obj
 0001:00039cc0       ?Disconnect@StdTcpClient@Net@@QAEXXZ 0043acc0 f   foundation_win32.release:stdtcpclient.obj
 0001:00039d30       ?Send@StdTcpClient@Net@@QAE_NXZ 0043ad30 f   foundation_win32.release:stdtcpclient.obj
 0001:00039fe0       ?Recv@StdTcpClient@Net@@QAE_NXZ 0043afe0 f   foundation_win32.release:stdtcpclient.obj
 0001:0003a1b0       ?GetSendStream@StdTcpClient@Net@@QAEABV?$Ptr@VStream@IO@@@@XZ 0043b1b0 f   foundation_win32.release:stdtcpclient.obj
 0001:0003a1d0       ?GetRecvStream@StdTcpClient@Net@@QAEABV?$Ptr@VStream@IO@@@@XZ 0043b1d0 f   foundation_win32.release:stdtcpclient.obj
 0001:0003a1f0       ??0?$Ptr@VSocket@Net@@@@QAE@XZ 0043b1f0 f i foundation_win32.release:stdtcpclient.obj
 0001:0003a210       ??1?$Ptr@VSocket@Net@@@@QAE@XZ 0043b210 f i foundation_win32.release:stdtcpclient.obj
 0001:0003a240       ?IsValid@URI@IO@@QBE_NXZ   0043b240 f i foundation_win32.release:httprequestwriter.obj
 0001:0003a260       ?ToString@HttpMethod@Http@@SA?AVString@Util@@W4Code@12@@Z 0043b260 f i foundation_win32.release:httprequestwriter.obj
 0001:0003a4a0       ??2HttpRequestWriter@Http@@SAPAXI@Z 0043b4a0 f i foundation_win32.release:httprequestwriter.obj
 0001:0003a4b0       ??3HttpRequestWriter@Http@@SAXPAX@Z 0043b4b0 f i foundation_win32.release:httprequestwriter.obj
 0001:0003a4d0       ?GetRtti@HttpRequestWriter@Http@@UBEPAVRtti@Core@@XZ 0043b4d0 f   foundation_win32.release:httprequestwriter.obj
 0001:0003a4e0       ?FactoryCreator@HttpRequestWriter@Http@@SAPAVRefCounted@Core@@XZ 0043b4e0 f   foundation_win32.release:httprequestwriter.obj
 0001:0003a4f0       ?Create@HttpRequestWriter@Http@@SAPAV12@XZ 0043b4f0 f   foundation_win32.release:httprequestwriter.obj
 0001:0003a530       ?RegisterWithFactory@HttpRequestWriter@Http@@SA_NXZ 0043b530 f   foundation_win32.release:httprequestwriter.obj
 0001:0003a630       ??0HttpRequestWriter@Http@@QAE@XZ 0043b630 f   foundation_win32.release:httprequestwriter.obj
 0001:0003a6b0       ??_EHttpRequestWriter@Http@@UAEPAXI@Z 0043b6b0 f i  CIL library: CIL module
 0001:0003a6b0       ??_GHttpRequestWriter@Http@@UAEPAXI@Z 0043b6b0 f i foundation_win32.release:httprequestwriter.obj
 0001:0003a6e0       ??1HttpRequestWriter@Http@@UAE@XZ 0043b6e0 f i foundation_win32.release:httprequestwriter.obj
 0001:0003a750       ?WriteRequestHeader@HttpRequestWriter@Http@@QAE_NXZ 0043b750 f   foundation_win32.release:httprequestwriter.obj
 0001:0003ab30       ??0?$Ptr@VTextWriter@IO@@@@QAE@PAVTextWriter@IO@@@Z 0043bb30 f i foundation_win32.release:httprequestwriter.obj
 0001:0003ab70       ?Set@MediaType@IO@@QAEXABVString@Util@@@Z 0043bb70 f i foundation_win32.release:httpresponsereader.obj
 0001:0003acc0       ?Clear@MediaType@IO@@QAEXXZ 0043bcc0 f i foundation_win32.release:httpresponsereader.obj
 0001:0003ad50       ??2HttpResponseReader@Http@@SAPAXI@Z 0043bd50 f i foundation_win32.release:httpresponsereader.obj
 0001:0003ad60       ??3HttpResponseReader@Http@@SAXPAX@Z 0043bd60 f i foundation_win32.release:httpresponsereader.obj
 0001:0003ad80       ?GetRtti@HttpResponseReader@Http@@UBEPAVRtti@Core@@XZ 0043bd80 f   foundation_win32.release:httpresponsereader.obj
 0001:0003ad90       ?FactoryCreator@HttpResponseReader@Http@@SAPAVRefCounted@Core@@XZ 0043bd90 f   foundation_win32.release:httpresponsereader.obj
 0001:0003ada0       ?Create@HttpResponseReader@Http@@SAPAV12@XZ 0043bda0 f   foundation_win32.release:httpresponsereader.obj
 0001:0003ade0       ?RegisterWithFactory@HttpResponseReader@Http@@SA_NXZ 0043bde0 f   foundation_win32.release:httpresponsereader.obj
 0001:0003aee0       ??0HttpResponseReader@Http@@QAE@XZ 0043bee0 f   foundation_win32.release:httpresponsereader.obj
 0001:0003af30       ??_EHttpResponseReader@Http@@UAEPAXI@Z 0043bf30 f i  CIL library: CIL module
 0001:0003af30       ??_GHttpResponseReader@Http@@UAEPAXI@Z 0043bf30 f i foundation_win32.release:httpresponsereader.obj
 0001:0003af70       ??1HttpResponseReader@Http@@UAE@XZ 0043bf70 f i foundation_win32.release:httpresponsereader.obj
 0001:0003af90       ?ReadResponse@HttpResponseReader@Http@@QAE_NXZ 0043bf90 f   foundation_win32.release:httpresponsereader.obj
 0001:0003b630       ??0?$Ptr@VTextReader@IO@@@@QAE@PAVTextReader@IO@@@Z 0043c630 f i foundation_win32.release:httpresponsereader.obj
 0001:0003b670       ??1?$Ptr@VTextReader@IO@@@@QAE@XZ 0043c670 f i foundation_win32.release:httpresponsereader.obj
 0001:0003b6a0       ??C?$Ptr@VTextReader@IO@@@@QBEPAVTextReader@IO@@XZ 0043c6a0 f i foundation_win32.release:httpresponsereader.obj
 0001:0003b6e0       ??2StreamReader@IO@@SAPAXI@Z 0043c6e0 f i foundation_win32.release:streamreader.obj
 0001:0003b6f0       ??3StreamReader@IO@@SAXPAX@Z 0043c6f0 f i foundation_win32.release:streamreader.obj
 0001:0003b710       ?IsOpen@StreamReader@IO@@QBE_NXZ 0043c710 f i foundation_win32.release:streamreader.obj
 0001:0003b730       ?GetRtti@StreamReader@IO@@UBEPAVRtti@Core@@XZ 0043c730 f   foundation_win32.release:streamreader.obj
 0001:0003b740       ?FactoryCreator@StreamReader@IO@@SAPAVRefCounted@Core@@XZ 0043c740 f   foundation_win32.release:streamreader.obj
 0001:0003b750       ?Create@StreamReader@IO@@SAPAV12@XZ 0043c750 f   foundation_win32.release:streamreader.obj
 0001:0003b790       ?RegisterWithFactory@StreamReader@IO@@SA_NXZ 0043c790 f   foundation_win32.release:streamreader.obj
 0001:0003b890       ??0StreamReader@IO@@QAE@XZ 0043c890 f   foundation_win32.release:streamreader.obj
 0001:0003b8e0       ??_GStreamReader@IO@@UAEPAXI@Z 0043c8e0 f i foundation_win32.release:streamreader.obj
 0001:0003b8e0       ??_EStreamReader@IO@@UAEPAXI@Z 0043c8e0 f i  CIL library: CIL module
 0001:0003b910       ??1StreamReader@IO@@UAE@XZ 0043c910 f   foundation_win32.release:streamreader.obj
 0001:0003b960       ?SetStream@StreamReader@IO@@QAEXABV?$Ptr@VStream@IO@@@@@Z 0043c960 f   foundation_win32.release:streamreader.obj
 0001:0003b980       ?GetStream@StreamReader@IO@@QBEABV?$Ptr@VStream@IO@@@@XZ 0043c980 f   foundation_win32.release:streamreader.obj
 0001:0003b9a0       ?HasStream@StreamReader@IO@@QBE_NXZ 0043c9a0 f   foundation_win32.release:streamreader.obj
 0001:0003b9c0       ?Eof@StreamReader@IO@@QBE_NXZ 0043c9c0 f   foundation_win32.release:streamreader.obj
 0001:0003ba10       ?Open@StreamReader@IO@@UAE_NXZ 0043ca10 f   foundation_win32.release:streamreader.obj
 0001:0003bb50       ?Close@StreamReader@IO@@UAEXXZ 0043cb50 f   foundation_win32.release:streamreader.obj
 0001:0003bbd0       ??2TextReader@IO@@SAPAXI@Z 0043cbd0 f i foundation_win32.release:textreader.obj
 0001:0003bbe0       ??3TextReader@IO@@SAXPAX@Z 0043cbe0 f i foundation_win32.release:textreader.obj
 0001:0003bc00       ?GetRtti@TextReader@IO@@UBEPAVRtti@Core@@XZ 0043cc00 f   foundation_win32.release:textreader.obj
 0001:0003bc10       ?FactoryCreator@TextReader@IO@@SAPAVRefCounted@Core@@XZ 0043cc10 f   foundation_win32.release:textreader.obj
 0001:0003bc20       ?Create@TextReader@IO@@SAPAV12@XZ 0043cc20 f   foundation_win32.release:textreader.obj
 0001:0003bc60       ?RegisterWithFactory@TextReader@IO@@SA_NXZ 0043cc60 f   foundation_win32.release:textreader.obj
 0001:0003bd60       ??0TextReader@IO@@QAE@XZ   0043cd60 f   foundation_win32.release:textreader.obj
 0001:0003bd80       ??_GTextReader@IO@@UAEPAXI@Z 0043cd80 f i foundation_win32.release:textreader.obj
 0001:0003bd80       ??_ETextReader@IO@@UAEPAXI@Z 0043cd80 f i  CIL library: CIL module
 0001:0003bdb0       ??1TextReader@IO@@UAE@XZ   0043cdb0 f   foundation_win32.release:textreader.obj
 0001:0003bdf0       ?ReadChar@TextReader@IO@@QAEEXZ 0043cdf0 f   foundation_win32.release:textreader.obj
 0001:0003be30       ?ReadLine@TextReader@IO@@QAE?AVString@Util@@XZ 0043ce30 f   foundation_win32.release:textreader.obj
 0001:0003bf50       ?ReadAll@TextReader@IO@@QAE?AVString@Util@@XZ 0043cf50 f   foundation_win32.release:textreader.obj
 0001:0003c050       ?ReadAllLines@TextReader@IO@@QAE?AV?$Array@VString@Util@@@Util@@XZ 0043d050 f   foundation_win32.release:textreader.obj
 0001:0003c0f0       ?FromString@HttpStatus@Http@@SA?AW4Code@12@ABVString@Util@@@Z 0043d0f0 f   foundation_win32.release:httpstatus.obj
 0001:0003c250       ?ToString@HttpStatus@Http@@SA?AVString@Util@@W4Code@12@@Z 0043d250 f   foundation_win32.release:httpstatus.obj
 0001:0003c4e0       ?ToHumanReadableString@HttpStatus@Http@@SA?AVString@Util@@W4Code@12@@Z 0043d4e0 f   foundation_win32.release:httpstatus.obj
 0001:0003c770       ?XMLoadFloat4@@YA?AT__m128@@PBU_XMFLOAT4@@@Z 0043d770 f i render_particlejob_win32.release:particlejob.obj
 0001:0003c790       ?XMVectorGetWPtr@@YAXPAMT__m128@@@Z 0043d790 f i render_particlejob_win32.release:particlejob.obj
 0001:0003c7d0       ?XMVectorMin@@YA?AT__m128@@T1@0@Z 0043d7d0 f i render_particlejob_win32.release:particlejob.obj
 0001:0003c800       ?XMVectorMax@@YA?AT__m128@@T1@0@Z 0043d800 f i render_particlejob_win32.release:particlejob.obj
 0001:0003c830       ?XMVectorAdd@@YA?AT__m128@@T1@0@Z 0043d830 f i render_particlejob_win32.release:particlejob.obj
 0001:0003c860       ?XMVectorSubtract@@YA?AT__m128@@T1@0@Z 0043d860 f i render_particlejob_win32.release:particlejob.obj
 0001:0003c890       ?XMVectorScale@@YA?AT__m128@@T1@M@Z 0043d890 f i render_particlejob_win32.release:particlejob.obj
 0001:0003c8d0       ??0float4@Math@@QAE@T__m128@@@Z 0043d8d0 f i render_particlejob_win32.release:particlejob.obj
 0001:0003c900       ??4float4@Math@@QAEXABV01@@Z 0043d900 f i render_particlejob_win32.release:particlejob.obj
 0001:0003c920       ?loadu@float4@Math@@QAEXPBM@Z 0043d920 f i render_particlejob_win32.release:particlejob.obj
 0001:0003c960       ??Dfloat4@Math@@QBE?AV01@M@Z 0043d960 f i render_particlejob_win32.release:particlejob.obj
 0001:0003c9c0       ??Yfloat4@Math@@QAEXABV01@@Z 0043d9c0 f i render_particlejob_win32.release:particlejob.obj
 0001:0003ca10       ??Xfloat4@Math@@QAEXM@Z    0043da10 f i render_particlejob_win32.release:particlejob.obj
 0001:0003ca70       ??Hfloat4@Math@@QBE?AV01@ABV01@@Z 0043da70 f i render_particlejob_win32.release:particlejob.obj
 0001:0003cad0       ??Gfloat4@Math@@QBE?AV01@ABV01@@Z 0043dad0 f i render_particlejob_win32.release:particlejob.obj
 0001:0003cb30       ?w@float4@Math@@QAEAAMXZ   0043db30 f i render_particlejob_win32.release:particlejob.obj
 0001:0003cb50       ?w@float4@Math@@QBEMXZ     0043db50 f i render_particlejob_win32.release:particlejob.obj
 0001:0003cba0       ?maximize@float4@Math@@SA?AV12@ABV12@0@Z 0043dba0 f i render_particlejob_win32.release:particlejob.obj
 0001:0003cbf0       ?minimize@float4@Math@@SA?AV12@ABV12@0@Z 0043dbf0 f i render_particlejob_win32.release:particlejob.obj
 0001:0003cc40       ?unpack_w@float4@Math@@SAMT__m128@@@Z 0043dc40 f i render_particlejob_win32.release:particlejob.obj
 0001:0003cc80       ??0vector@Math@@QAE@T__m128@@@Z 0043dc80 f i render_particlejob_win32.release:particlejob.obj
 0001:0003ccb0       ??Dvector@Math@@QBE?AV01@M@Z 0043dcb0 f i render_particlejob_win32.release:particlejob.obj
 0001:0003cd10       ?LookupEnvelopeSamples@Particles@@YAPBMQBMH@Z 0043dd10 f i render_particlejob_win32.release:particlejob.obj
 0001:0003cd60       ?UpdateBbox@Particles@@YAXABVfloat4@Math@@AAV23@1@Z 0043dd60 f i render_particlejob_win32.release:particlejob.obj
 0001:0003ce10       ?ParticleUpdateAge@Particles@@YAXPBUJobUniformData@1@ABUParticle@1@AAU31@@Z 0043de10 f i render_particlejob_win32.release:particlejob.obj
 0001:0003ce50       ?ParticleStep@Particles@@YAXPBUJobUniformData@1@ABUParticle@1@AAU31@PAUJobSliceOutputData@1@@Z 0043de50 f i render_particlejob_win32.release:particlejob.obj
 0001:0003d9d0       ?JobStep@Particles@@YAXPBUJobUniformData@1@IPBUParticle@1@PAU31@PAUJobSliceOutputData@1@@Z 0043e9d0 f   render_particlejob_win32.release:particlejob.obj
 0001:0003e6c0       ?ParticleJobFunc@Particles@@YAXABUJobFuncContext@@@Z 0043f6c0 f   render_particlejob_win32.release:particlejob.obj
 0001:0003ec60       _unzStringFileNameCompare  0043fc60 f   zlib_win32.release:unzip.obj
 0001:0003eeb0       _unzOpen2                  0043feb0 f   zlib_win32.release:unzip.obj
 0001:0003f180       _unzOpen                   00440180 f   zlib_win32.release:unzip.obj
 0001:0003f1a0       _unzClose                  004401a0 f   zlib_win32.release:unzip.obj
 0001:0003f210       _unzGetGlobalInfo          00440210 f   zlib_win32.release:unzip.obj
 0001:0003f790       _unzGetCurrentFileInfo     00440790 f   zlib_win32.release:unzip.obj
 0001:0003f7c0       _unzGoToFirstFile          004407c0 f   zlib_win32.release:unzip.obj
 0001:0003f840       _unzGoToNextFile           00440840 f   zlib_win32.release:unzip.obj
 0001:0003f910       _unzLocateFile             00440910 f   zlib_win32.release:unzip.obj
 0001:0003fa80       _unzGetFilePos             00440a80 f   zlib_win32.release:unzip.obj
 0001:0003fad0       _unzGoToFilePos            00440ad0 f   zlib_win32.release:unzip.obj
 0001:0003fe20       _unzOpenCurrentFile3       00440e20 f   zlib_win32.release:unzip.obj
 0001:00040210       _unzOpenCurrentFile        00441210 f   zlib_win32.release:unzip.obj
 0001:00040230       _unzOpenCurrentFilePassword 00441230 f   zlib_win32.release:unzip.obj
 0001:00040250       _unzOpenCurrentFile2       00441250 f   zlib_win32.release:unzip.obj
 0001:00040270       _unzReadCurrentFile        00441270 f   zlib_win32.release:unzip.obj
 0001:000406a0       _unztell                   004416a0 f   zlib_win32.release:unzip.obj
 0001:000406e0       _unzeof                    004416e0 f   zlib_win32.release:unzip.obj
 0001:00040730       _unzGetLocalExtrafield     00441730 f   zlib_win32.release:unzip.obj
 0001:00040810       _unzCloseCurrentFile       00441810 f   zlib_win32.release:unzip.obj
 0001:000408f0       _unzGetGlobalComment       004418f0 f   zlib_win32.release:unzip.obj
 0001:000409c0       _unzGetOffset              004419c0 f   zlib_win32.release:unzip.obj
 0001:00040a20       _unzSetOffset              00441a20 f   zlib_win32.release:unzip.obj
 0001:00040a90       _uncompress                00441a90 f   zlib_win32.release:uncompr.obj
 0001:00040b70       _get_crc_table             00441b70 f   zlib_win32.release:crc32.obj
 0001:00040b80       _crc32                     00441b80 f   zlib_win32.release:crc32.obj
 0001:00041670       _crc32_combine             00442670 f   zlib_win32.release:crc32.obj
 0001:00041790       _inflateReset              00442790 f   zlib_win32.release:inflate.obj
 0001:00041880       _inflatePrime              00442880 f   zlib_win32.release:inflate.obj
 0001:00041900       _inflateInit2_             00442900 f   zlib_win32.release:inflate.obj
 0001:00041a40       _inflateInit_              00442a40 f   zlib_win32.release:inflate.obj
 0001:00041c40       _inflate                   00442c40 f   zlib_win32.release:inflate.obj
 0001:00043b50       _inflateEnd                00444b50 f   zlib_win32.release:inflate.obj
 0001:00043bd0       _inflateSetDictionary      00444bd0 f   zlib_win32.release:inflate.obj
 0001:00043d00       _inflateGetHeader          00444d00 f   zlib_win32.release:inflate.obj
 0001:00043de0       _inflateSync               00444de0 f   zlib_win32.release:inflate.obj
 0001:00043f70       _inflateSyncPoint          00444f70 f   zlib_win32.release:inflate.obj
 0001:00043fc0       _inflateCopy               00444fc0 f   zlib_win32.release:inflate.obj
 0001:00044180       ?nebula3_open_file_func@@YAPAXPAXPBDH@Z 00445180 f   zlib_win32.release:ionebula3.obj
 0001:00044280       ?nebula3_read_file_func@@YAKPAX00K@Z 00445280 f   zlib_win32.release:ionebula3.obj
 0001:000442c0       ?nebula3_write_file_func@@YAKPAX0PBXK@Z 004452c0 f   zlib_win32.release:ionebula3.obj
 0001:000442e0       ?nebula3_tell_file_func@@YAJPAX0@Z 004452e0 f   zlib_win32.release:ionebula3.obj
 0001:00044310       ?nebula3_seek_file_func@@YAJPAX0KH@Z 00445310 f   zlib_win32.release:ionebula3.obj
 0001:00044390       ?nebula3_close_file_func@@YAHPAX0@Z 00445390 f   zlib_win32.release:ionebula3.obj
 0001:000443e0       ?nebula3_error_file_func@@YAHPAX0@Z 004453e0 f   zlib_win32.release:ionebula3.obj
 0001:000443f0       _fill_nebula3_filefunc     004453f0 f   zlib_win32.release:ionebula3.obj
 0001:00044450       ??0?$Ptr@VFileStream@IO@@@@QAE@PAVFileStream@IO@@@Z 00445450 f i zlib_win32.release:ionebula3.obj
 0001:00044490       ??1?$Ptr@VFileStream@IO@@@@QAE@XZ 00445490 f i zlib_win32.release:ionebula3.obj
 0001:000444c0       ??C?$Ptr@VFileStream@IO@@@@QBEPAVFileStream@IO@@XZ 004454c0 f i zlib_win32.release:ionebula3.obj
 0001:00044500       ?get@?$Ptr@VFileStream@IO@@@@QBEPAVFileStream@IO@@XZ 00445500 f i zlib_win32.release:ionebula3.obj
 0001:00044540       _adler32                   00445540 f   zlib_win32.release:adler32.obj
 0001:000449d0       _adler32_combine           004459d0 f   zlib_win32.release:adler32.obj
 0001:00044ab0       _inflate_fast              00445ab0 f   zlib_win32.release:inffast.obj
 0001:00045210       _zlibVersion               00446210 f   zlib_win32.release:zutil.obj
 0001:00045220       _zlibCompileFlags          00446220 f   zlib_win32.release:zutil.obj
 0001:00045330       _zError                    00446330 f   zlib_win32.release:zutil.obj
 0001:00045350       _zcalloc                   00446350 f   zlib_win32.release:zutil.obj
 0001:00045380       _zcfree                    00446380 f   zlib_win32.release:zutil.obj
 0001:000453a0       _inflate_table             004463a0 f   zlib_win32.release:inftrees.obj
 0001:000459e4       _HeapAlloc@12              004469e4 f   kernel32:KERNEL32.dll
 0001:000459ea       _HeapReAlloc@16            004469ea f   kernel32:KERNEL32.dll
 0001:000459f0       _HeapSize@12               004469f0 f   kernel32:KERNEL32.dll
 0001:000459f6       _HeapFree@12               004469f6 f   kernel32:KERNEL32.dll
 0001:000459fc       _GlobalMemoryStatus@4      004469fc f   kernel32:KERNEL32.dll
 0001:00045a02       _QueryPerformanceCounter@4 00446a02 f   kernel32:KERNEL32.dll
 0001:00045a08       _QueryPerformanceFrequency@4 00446a08 f   kernel32:KERNEL32.dll
 0001:00045a0e       _CloseHandle@4             00446a0e f   kernel32:KERNEL32.dll
 0001:00045a14       _CreateEventA@16           00446a14 f   kernel32:KERNEL32.dll
 0001:00045a1a       _WaitForSingleObject@8     00446a1a f   kernel32:KERNEL32.dll
 0001:00045a20       _ResetEvent@4              00446a20 f   kernel32:KERNEL32.dll
 0001:00045a26       _IsProcessorFeaturePresent@4 00446a26 f   kernel32:KERNEL32.dll
 0001:00045a2c       _ExitProcess@4             00446a2c f   kernel32:KERNEL32.dll
 0001:00045a32       _Sleep@4                   00446a32 f   kernel32:KERNEL32.dll
 0001:00045a38       _OutputDebugStringA@4      00446a38 f   kernel32:KERNEL32.dll
 0001:00045a3e       _HeapCreate@12             00446a3e f   kernel32:KERNEL32.dll
 0001:00045a44       _HeapSetInformation@16     00446a44 f   kernel32:KERNEL32.dll
 0001:00045a4a       _InterlockedCompareExchange@12 00446a4a f   kernel32:KERNEL32.dll
 0001:00045a50       _GetCurrentThreadId@0      00446a50 f   kernel32:KERNEL32.dll
 0001:00045a56       _CreateSemaphoreA@16       00446a56 f   kernel32:KERNEL32.dll
 0001:00045a5c       _ReleaseSemaphore@12       00446a5c f   kernel32:KERNEL32.dll
 0001:00045a62       _HeapDestroy@4             00446a62 f   kernel32:KERNEL32.dll
 0001:00045a68       _GetSystemInfo@4           00446a68 f   kernel32:KERNEL32.dll
 0001:00045a6e       _SetEvent@4                00446a6e f   kernel32:KERNEL32.dll
 0001:00045a74       _CreateThread@24           00446a74 f   kernel32:KERNEL32.dll
 0001:00045a7a       _SetThreadPriority@8       00446a7a f   kernel32:KERNEL32.dll
 0001:00045a80       _ResumeThread@4            00446a80 f   kernel32:KERNEL32.dll
 0001:00045a86       _GetExitCodeThread@8       00446a86 f   kernel32:KERNEL32.dll
 0001:00045a8c       _RaiseException@16         00446a8c f   kernel32:KERNEL32.dll
 0001:00045a92       _SetUnhandledExceptionFilter@4 00446a92 f   kernel32:KERNEL32.dll
 0001:00045a98       _CreateFileA@28            00446a98 f   kernel32:KERNEL32.dll
 0001:00045a9e       _GetCurrentProcess@0       00446a9e f   kernel32:KERNEL32.dll
 0001:00045aa4       _GetCurrentProcessId@0     00446aa4 f   kernel32:KERNEL32.dll
 0001:00045aaa       _GetModuleFileNameA@12     00446aaa f   kernel32:KERNEL32.dll
 0001:00045ab0       _GetLocalTime@4            00446ab0 f   kernel32:KERNEL32.dll
 0001:00045ab6       _GetStdHandle@4            00446ab6 f   kernel32:KERNEL32.dll
 0001:00045abc       _GetConsoleMode@8          00446abc f   kernel32:KERNEL32.dll
 0001:00045ac2       _WriteConsoleA@20          00446ac2 f   kernel32:KERNEL32.dll
 0001:00045ac8       _WriteFile@20              00446ac8 f   kernel32:KERNEL32.dll
 0001:00045ace       _PeekConsoleInputA@16      00446ace f   kernel32:KERNEL32.dll
 0001:00045ad4       _FlushConsoleInputBuffer@4 00446ad4 f   kernel32:KERNEL32.dll
 0001:00045ada       _ReadConsoleA@20           00446ada f   kernel32:KERNEL32.dll
 0001:00045ae0       _CreateFileW@28            00446ae0 f   kernel32:KERNEL32.dll
 0001:00045ae6       _SetFilePointer@16         00446ae6 f   kernel32:KERNEL32.dll
 0001:00045aec       _ReadFile@20               00446aec f   kernel32:KERNEL32.dll
 0001:00045af2       _FlushFileBuffers@4        00446af2 f   kernel32:KERNEL32.dll
 0001:00045af8       _GetFileSize@8             00446af8 f   kernel32:KERNEL32.dll
 0001:00045afe       _GetFileAttributesW@4      00446afe f   kernel32:KERNEL32.dll
 0001:00045b04       _SetFileAttributesA@8      00446b04 f   kernel32:KERNEL32.dll
 0001:00045b0a       _DeleteFileW@4             00446b0a f   kernel32:KERNEL32.dll
 0001:00045b10       _RemoveDirectoryW@4        00446b10 f   kernel32:KERNEL32.dll
 0001:00045b16       _SetFileTime@16            00446b16 f   kernel32:KERNEL32.dll
 0001:00045b1c       _GetFileTime@16            00446b1c f   kernel32:KERNEL32.dll
 0001:00045b22       _CreateDirectoryW@8        00446b22 f   kernel32:KERNEL32.dll
 0001:00045b28       _FindFirstFileW@8          00446b28 f   kernel32:KERNEL32.dll
 0001:00045b2e       _FindNextFileW@8           00446b2e f   kernel32:KERNEL32.dll
 0001:00045b34       _FindClose@4               00446b34 f   kernel32:KERNEL32.dll
 0001:00045b3a       _GetTempPathW@8            00446b3a f   kernel32:KERNEL32.dll
 0001:00045b40       _GetModuleFileNameW@12     00446b40 f   kernel32:KERNEL32.dll
 0001:00045b46       _GetSystemTime@4           00446b46 f   kernel32:KERNEL32.dll
 0001:00045b4c       _SystemTimeToFileTime@8    00446b4c f   kernel32:KERNEL32.dll
 0001:00045b52       _FileTimeToSystemTime@8    00446b52 f   kernel32:KERNEL32.dll
 0001:00045b58       _LocalFileTimeToFileTime@8 00446b58 f   kernel32:KERNEL32.dll
 0001:00045b5e       _FileTimeToLocalFileTime@8 00446b5e f   kernel32:KERNEL32.dll
 0001:00045b64       _MultiByteToWideChar@24    00446b64 f   kernel32:KERNEL32.dll
 0001:00045b6a       _GetLastError@0            00446b6a f   kernel32:KERNEL32.dll
 0001:00045b70       _WideCharToMultiByte@32    00446b70 f   kernel32:KERNEL32.dll
 0001:00045b76       _MessageBoxA@16            00446b76 f   user32:USER32.dll
 0001:00045b7c       _FindWindowA@8             00446b7c f   user32:USER32.dll
 0001:00045b82       _ShowWindow@8              00446b82 f   user32:USER32.dll
 0001:00045b88       _SHGetFolderPathW@20       00446b88 f   shell32:SHELL32.dll
 0001:00045b8e       _NtCurrentTeb              00446b8e f i MSVCRT:crtexew.obj
 0001:00045eff       _WinMainCRTStartup         00446eff f   MSVCRT:crtexew.obj
 0001:00045f0a       __vsnprintf                00446f0a f   MSVCRT:MSVCR90.dll
 0001:00045f10       _strtok                    00446f10 f   MSVCRT:MSVCR90.dll
 0001:00045f16       _strchr                    00446f16 f   MSVCRT:MSVCR90.dll
 0001:00045f1c       _strpbrk                   00446f1c f   MSVCRT:MSVCR90.dll
 0001:00045f22       _strncmp                   00446f22 f   MSVCRT:MSVCR90.dll
 0001:00045f28       _strstr                    00446f28 f   MSVCRT:MSVCR90.dll
 0001:00045f2e       _strrchr                   00446f2e f   MSVCRT:MSVCR90.dll
 0001:00045f34       _tolower                   00446f34 f   MSVCRT:MSVCR90.dll
 0001:00045f3a       _toupper                   00446f3a f   MSVCRT:MSVCR90.dll
 0001:00045f40       _atoi                      00446f40 f   MSVCRT:MSVCR90.dll
 0001:00045f46       _atof                      00446f46 f   MSVCRT:MSVCR90.dll
 0001:00045f4c       _isdigit                   00446f4c f   MSVCRT:MSVCR90.dll
 0001:00045f52       _isalpha                   00446f52 f   MSVCRT:MSVCR90.dll
 0001:00045f58       _isalnum                   00446f58 f   MSVCRT:MSVCR90.dll
 0001:00045f5e       _islower                   00446f5e f   MSVCRT:MSVCR90.dll
 0001:00045f64       _isupper                   00446f64 f   MSVCRT:MSVCR90.dll
 0001:00045f6a       __onexit                   00446f6a f   MSVCRT:atonexit.obj
 0001:0004600f       _atexit                    0044700f f   MSVCRT:atonexit.obj
 0001:00046026       __cexit                    00447026 f   MSVCRT:MSVCR90.dll
 0001:0004602c       _abort                     0044702c f   MSVCRT:MSVCR90.dll
 0001:00046032       _free                      00447032 f   MSVCRT:MSVCR90.dll
 0001:00046038       _malloc                    00447038 f   MSVCRT:MSVCR90.dll
 0001:0004603e       ?__CxxUnhandledExceptionFilter@@YGJPAU_EXCEPTION_POINTERS@@@Z 0044703e f   MSVCRT:unhandld.obj
 0001:00046080       ___CxxSetUnhandledExceptionFilter 00447080 f   MSVCRT:unhandld.obj
 0001:0004608e       __amsg_exit                0044708e f   MSVCRT:MSVCR90.dll
 0001:00046094       ___getmainargs             00447094 f   MSVCRT:MSVCR90.dll
 0001:0004609a       __RTC_Initialize           0044709a f   MSVCRT:_initsect_.obj
 0001:000460c0       __RTC_Terminate            004470c0 f   MSVCRT:_initsect_.obj
 0001:000460e6       __exit                     004470e6 f   MSVCRT:MSVCR90.dll
 0001:000460ec       __XcptFilter               004470ec f   MSVCRT:MSVCR90.dll
 0001:000460f2       __ismbblead                004470f2 f   MSVCRT:MSVCR90.dll
 0001:000460f8       _exit                      004470f8 f   MSVCRT:MSVCR90.dll
 0001:00046100       __ValidateImageBase        00447100 f   MSVCRT:pesect.obj
 0001:00046140       __FindPESection            00447140 f   MSVCRT:pesect.obj
 0001:00046190       __IsNonwritableInCurrentImage 00447190 f   MSVCRT:pesect.obj
 0001:0004624e       __initterm                 0044724e f   MSVCRT:MSVCR90.dll
 0001:00046254       __initterm_e               00447254 f   MSVCRT:MSVCR90.dll
 0001:0004625c       __SEH_prolog4              0044725c f   MSVCRT:sehprolg4.obj
 0001:000462a1       __SEH_epilog4              004472a1 f   MSVCRT:sehprolg4.obj
 0001:000462b5       __except_handler4          004472b5 f   MSVCRT:chandler4gs.obj
 0001:000462da       __configthreadlocale       004472da f   MSVCRT:MSVCR90.dll
 0001:000462e0       __invoke_watson_if_error   004472e0 f i MSVCRT:fp8.obj
 0001:00046304       __setdefaultprecision      00447304 f   MSVCRT:fp8.obj
 0001:00046330       ___setusermatherr          00447330 f   MSVCRT:MSVCR90.dll
 0001:00046336       __matherr                  00447336 f   MSVCRT:merr.obj
 0001:00046339       __setargv                  00447339 f   MSVCRT:dllargv.obj
 0001:0004633c       ___p__commode              0044733c f   MSVCRT:MSVCR90.dll
 0001:00046342       ___p__fmode                00447342 f   MSVCRT:MSVCR90.dll
 0001:00046348       __encode_pointer           00447348 f   MSVCRT:MSVCR90.dll
 0001:0004634e       ___set_app_type            0044734e f   MSVCRT:MSVCR90.dll
 0001:00046354       ___security_init_cookie    00447354 f   MSVCRT:gs_support.obj
 0001:000463ea       __unlock                   004473ea f   MSVCRT:MSVCR90.dll
 0001:000463f0       ___dllonexit               004473f0 f   MSVCRT:MSVCR90.dll
 0001:000463f6       __lock                     004473f6 f   MSVCRT:MSVCR90.dll
 0001:000463fc       __decode_pointer           004473fc f   MSVCRT:MSVCR90.dll
 0001:00046402       ?terminate@@YAXXZ          00447402 f   MSVCRT:MSVCR90.dll
 0001:00046408       @__security_check_cookie@4 00447408 f   MSVCRT:secchk.obj
 0001:00046418       __except_handler4_common   00447418 f   MSVCRT:MSVCR90.dll
 0001:0004641e       __invoke_watson            0044741e f   MSVCRT:MSVCR90.dll
 0001:00046424       __controlfp_s              00447424 f   MSVCRT:MSVCR90.dll
 0001:0004642a       ___report_gsfailure        0044742a f   MSVCRT:gs_report.obj
 0001:00046530       __crt_debugger_hook        00447530 f   MSVCRT:MSVCR90.dll
 0001:00046536       _MiniDumpWriteDump@28      00447536 f   dbghelp:dbghelp.dll
 0001:0004653c       _WSAStartup@8              0044753c f   wsock32:WSOCK32.dll
 0001:00046542       _socket@12                 00447542 f   wsock32:WSOCK32.dll
 0001:00046548       _shutdown@8                00447548 f   wsock32:WSOCK32.dll
 0001:0004654e       _closesocket@4             0044754e f   wsock32:WSOCK32.dll
 0001:00046554       _setsockopt@20             00447554 f   wsock32:WSOCK32.dll
 0001:0004655a       _getsockopt@20             0044755a f   wsock32:WSOCK32.dll
 0001:00046560       _ioctlsocket@12            00447560 f   wsock32:WSOCK32.dll
 0001:00046566       _bind@12                   00447566 f   wsock32:WSOCK32.dll
 0001:0004656c       _listen@8                  0044756c f   wsock32:WSOCK32.dll
 0001:00046572       _accept@12                 00447572 f   wsock32:WSOCK32.dll
 0001:00046578       _connect@12                00447578 f   wsock32:WSOCK32.dll
 0001:0004657e       _WSAGetLastError@0         0044757e f   wsock32:WSOCK32.dll
 0001:00046584       _select@20                 00447584 f   wsock32:WSOCK32.dll
 0001:0004658a       _send@16                   0044758a f   wsock32:WSOCK32.dll
 0001:00046590       _recv@16                   00447590 f   wsock32:WSOCK32.dll
 0001:00046596       _htons@4                   00447596 f   wsock32:WSOCK32.dll
 0001:0004659c       _ntohs@4                   0044759c f   wsock32:WSOCK32.dll
 0001:000465a2       _htonl@4                   004475a2 f   wsock32:WSOCK32.dll
 0001:000465a8       _gethostname@8             004475a8 f   wsock32:WSOCK32.dll
 0001:000465ae       _gethostbyname@4           004475ae f   wsock32:WSOCK32.dll
 0001:000465b4       _inet_addr@4               004475b4 f   wsock32:WSOCK32.dll
 0001:000465ba       _InterlockedExchange@8     004475ba f   kernel32:KERNEL32.dll
 0001:000465c0       _GetStartupInfoA@4         004475c0 f   kernel32:KERNEL32.dll
 0001:000465c6       _GetTickCount@0            004475c6 f   kernel32:KERNEL32.dll
 0001:000465cc       _GetSystemTimeAsFileTime@4 004475cc f   kernel32:KERNEL32.dll
 0001:000465d2       _TerminateProcess@8        004475d2 f   kernel32:KERNEL32.dll
 0001:000465d8       _UnhandledExceptionFilter@4 004475d8 f   kernel32:KERNEL32.dll
 0001:000465de       _IsDebuggerPresent@0       004475de f   kernel32:KERNEL32.dll
 0001:000465e4       __stricmp                  004475e4 f   MSVCRT:MSVCR90.dll
 0001:000465ea       _memcpy                    004475ea f   MSVCRT:MSVCR90.dll
 0001:000465f0       _memset                    004475f0 f   MSVCRT:MSVCR90.dll
 0001:000465f6       __except_handler3          004475f6 f   MSVCRT:MSVCR90.dll
 0001:00046600       __ftol2_sse                00447600 f   MSVCRT:ftol2.obj
 0001:00046609       __ftol2_pentium4           00447609 f   MSVCRT:ftol2.obj
 0001:0004661c       __ftol2_sse_excpt          0044761c f   MSVCRT:ftol2.obj
 0001:00046636       __ftol2                    00447636 f   MSVCRT:ftol2.obj
 0001:000466b0       __alldiv                   004476b0 f   MSVCRT:lldiv.obj
 0001:00046760       __alloca_probe             00447760     MSVCRT:chkstk.obj
 0001:00046760       __chkstk                   00447760 f   MSVCRT:chkstk.obj
 0001:000467db       __get_sse2_info            004477db f   MSVCRT:cpu_disp.obj
 0001:0004683d       ___sse2_available_init     0044783d f   MSVCRT:cpu_disp.obj
 0002:00000000       __imp__HeapAlloc@12        00470000     kernel32:KERNEL32.dll
 0002:00000004       __imp__HeapReAlloc@16      00470004     kernel32:KERNEL32.dll
 0002:00000008       __imp__HeapSize@12         00470008     kernel32:KERNEL32.dll
 0002:0000000c       __imp__HeapFree@12         0047000c     kernel32:KERNEL32.dll
 0002:00000010       __imp__GlobalMemoryStatus@4 00470010     kernel32:KERNEL32.dll
 0002:00000014       __imp__QueryPerformanceCounter@4 00470014     kernel32:KERNEL32.dll
 0002:00000018       __imp__QueryPerformanceFrequency@4 00470018     kernel32:KERNEL32.dll
 0002:0000001c       __imp__CloseHandle@4       0047001c     kernel32:KERNEL32.dll
 0002:00000020       __imp__CreateEventA@16     00470020     kernel32:KERNEL32.dll
 0002:00000024       __imp__WaitForSingleObject@8 00470024     kernel32:KERNEL32.dll
 0002:00000028       __imp__ResetEvent@4        00470028     kernel32:KERNEL32.dll
 0002:0000002c       __imp__IsProcessorFeaturePresent@4 0047002c     kernel32:KERNEL32.dll
 0002:00000030       __imp__ExitProcess@4       00470030     kernel32:KERNEL32.dll
 0002:00000034       __imp__Sleep@4             00470034     kernel32:KERNEL32.dll
 0002:00000038       __imp__OutputDebugStringA@4 00470038     kernel32:KERNEL32.dll
 0002:0000003c       __imp__HeapCreate@12       0047003c     kernel32:KERNEL32.dll
 0002:00000040       __imp__HeapSetInformation@16 00470040     kernel32:KERNEL32.dll
 0002:00000044       __imp__InterlockedCompareExchange@12 00470044     kernel32:KERNEL32.dll
 0002:00000048       __imp__GetCurrentThreadId@0 00470048     kernel32:KERNEL32.dll
 0002:0000004c       __imp__CreateSemaphoreA@16 0047004c     kernel32:KERNEL32.dll
 0002:00000050       __imp__ReleaseSemaphore@12 00470050     kernel32:KERNEL32.dll
 0002:00000054       __imp__HeapDestroy@4       00470054     kernel32:KERNEL32.dll
 0002:00000058       __imp__GetSystemInfo@4     00470058     kernel32:KERNEL32.dll
 0002:0000005c       __imp__SetEvent@4          0047005c     kernel32:KERNEL32.dll
 0002:00000060       __imp__CreateThread@24     00470060     kernel32:KERNEL32.dll
 0002:00000064       __imp__SetThreadPriority@8 00470064     kernel32:KERNEL32.dll
 0002:00000068       __imp__ResumeThread@4      00470068     kernel32:KERNEL32.dll
 0002:0000006c       __imp__GetExitCodeThread@8 0047006c     kernel32:KERNEL32.dll
 0002:00000070       __imp__RaiseException@16   00470070     kernel32:KERNEL32.dll
 0002:00000074       __imp__SetUnhandledExceptionFilter@4 00470074     kernel32:KERNEL32.dll
 0002:00000078       __imp__CreateFileA@28      00470078     kernel32:KERNEL32.dll
 0002:0000007c       __imp__GetCurrentProcess@0 0047007c     kernel32:KERNEL32.dll
 0002:00000080       __imp__GetCurrentProcessId@0 00470080     kernel32:KERNEL32.dll
 0002:00000084       __imp__GetModuleFileNameA@12 00470084     kernel32:KERNEL32.dll
 0002:00000088       __imp__GetLocalTime@4      00470088     kernel32:KERNEL32.dll
 0002:0000008c       __imp__GetStdHandle@4      0047008c     kernel32:KERNEL32.dll
 0002:00000090       __imp__GetConsoleMode@8    00470090     kernel32:KERNEL32.dll
 0002:00000094       __imp__WriteConsoleA@20    00470094     kernel32:KERNEL32.dll
 0002:00000098       __imp__WriteFile@20        00470098     kernel32:KERNEL32.dll
 0002:0000009c       __imp__PeekConsoleInputA@16 0047009c     kernel32:KERNEL32.dll
 0002:000000a0       __imp__FlushConsoleInputBuffer@4 004700a0     kernel32:KERNEL32.dll
 0002:000000a4       __imp__ReadConsoleA@20     004700a4     kernel32:KERNEL32.dll
 0002:000000a8       __imp__CreateFileW@28      004700a8     kernel32:KERNEL32.dll
 0002:000000ac       __imp__SetFilePointer@16   004700ac     kernel32:KERNEL32.dll
 0002:000000b0       __imp__ReadFile@20         004700b0     kernel32:KERNEL32.dll
 0002:000000b4       __imp__FlushFileBuffers@4  004700b4     kernel32:KERNEL32.dll
 0002:000000b8       __imp__GetFileSize@8       004700b8     kernel32:KERNEL32.dll
 0002:000000bc       __imp__GetFileAttributesW@4 004700bc     kernel32:KERNEL32.dll
 0002:000000c0       __imp__SetFileAttributesA@8 004700c0     kernel32:KERNEL32.dll
 0002:000000c4       __imp__DeleteFileW@4       004700c4     kernel32:KERNEL32.dll
 0002:000000c8       __imp__RemoveDirectoryW@4  004700c8     kernel32:KERNEL32.dll
 0002:000000cc       __imp__SetFileTime@16      004700cc     kernel32:KERNEL32.dll
 0002:000000d0       __imp__GetFileTime@16      004700d0     kernel32:KERNEL32.dll
 0002:000000d4       __imp__CreateDirectoryW@8  004700d4     kernel32:KERNEL32.dll
 0002:000000d8       __imp__FindFirstFileW@8    004700d8     kernel32:KERNEL32.dll
 0002:000000dc       __imp__FindNextFileW@8     004700dc     kernel32:KERNEL32.dll
 0002:000000e0       __imp__FindClose@4         004700e0     kernel32:KERNEL32.dll
 0002:000000e4       __imp__GetTempPathW@8      004700e4     kernel32:KERNEL32.dll
 0002:000000e8       __imp__GetModuleFileNameW@12 004700e8     kernel32:KERNEL32.dll
 0002:000000ec       __imp__GetSystemTime@4     004700ec     kernel32:KERNEL32.dll
 0002:000000f0       __imp__SystemTimeToFileTime@8 004700f0     kernel32:KERNEL32.dll
 0002:000000f4       __imp__FileTimeToSystemTime@8 004700f4     kernel32:KERNEL32.dll
 0002:000000f8       __imp__LocalFileTimeToFileTime@8 004700f8     kernel32:KERNEL32.dll
 0002:000000fc       __imp__FileTimeToLocalFileTime@8 004700fc     kernel32:KERNEL32.dll
 0002:00000100       __imp__MultiByteToWideChar@24 00470100     kernel32:KERNEL32.dll
 0002:00000104       __imp__GetLastError@0      00470104     kernel32:KERNEL32.dll
 0002:00000108       __imp__WideCharToMultiByte@32 00470108     kernel32:KERNEL32.dll
 0002:0000010c       __imp__GetStartupInfoA@4   0047010c     kernel32:KERNEL32.dll
 0002:00000110       __imp__GetTickCount@0      00470110     kernel32:KERNEL32.dll
 0002:00000114       __imp__GetSystemTimeAsFileTime@4 00470114     kernel32:KERNEL32.dll
 0002:00000118       __imp__IsDebuggerPresent@0 00470118     kernel32:KERNEL32.dll
 0002:0000011c       __imp__UnhandledExceptionFilter@4 0047011c     kernel32:KERNEL32.dll
 0002:00000120       __imp__TerminateProcess@8  00470120     kernel32:KERNEL32.dll
 0002:00000124       __imp__InterlockedExchange@8 00470124     kernel32:KERNEL32.dll
 0002:00000128       \177KERNEL32_NULL_THUNK_DATA 00470128     kernel32:KERNEL32.dll
 0002:0000012c       __imp__strtok              0047012c     MSVCRT:MSVCR90.dll
 0002:00000130       __imp__strchr              00470130     MSVCRT:MSVCR90.dll
 0002:00000134       __imp__strpbrk             00470134     MSVCRT:MSVCR90.dll
 0002:00000138       __imp__strncmp             00470138     MSVCRT:MSVCR90.dll
 0002:0000013c       __imp__strstr              0047013c     MSVCRT:MSVCR90.dll
 0002:00000140       __imp__strrchr             00470140     MSVCRT:MSVCR90.dll
 0002:00000144       __imp__tolower             00470144     MSVCRT:MSVCR90.dll
 0002:00000148       __imp__toupper             00470148     MSVCRT:MSVCR90.dll
 0002:0000014c       __imp__atoi                0047014c     MSVCRT:MSVCR90.dll
 0002:00000150       __imp__atof                00470150     MSVCRT:MSVCR90.dll
 0002:00000154       __imp__isdigit             00470154     MSVCRT:MSVCR90.dll
 0002:00000158       __imp__isalpha             00470158     MSVCRT:MSVCR90.dll
 0002:0000015c       __imp__isalnum             0047015c     MSVCRT:MSVCR90.dll
 0002:00000160       __imp__islower             00470160     MSVCRT:MSVCR90.dll
 0002:00000164       __imp__isupper             00470164     MSVCRT:MSVCR90.dll
 0002:00000168       __imp___cexit              00470168     MSVCRT:MSVCR90.dll
 0002:0000016c       __imp__abort               0047016c     MSVCRT:MSVCR90.dll
 0002:00000170       __imp__free                00470170     MSVCRT:MSVCR90.dll
 0002:00000174       __imp__malloc              00470174     MSVCRT:MSVCR90.dll
 0002:00000178       __imp___amsg_exit          00470178     MSVCRT:MSVCR90.dll
 0002:0000017c       __imp____getmainargs       0047017c     MSVCRT:MSVCR90.dll
 0002:00000180       __imp___exit               00470180     MSVCRT:MSVCR90.dll
 0002:00000184       __imp___XcptFilter         00470184     MSVCRT:MSVCR90.dll
 0002:00000188       __imp___ismbblead          00470188     MSVCRT:MSVCR90.dll
 0002:0000018c       __imp__exit                0047018c     MSVCRT:MSVCR90.dll
 0002:00000190       __imp___acmdln             00470190     MSVCRT:MSVCR90.dll
 0002:00000194       __imp___initterm           00470194     MSVCRT:MSVCR90.dll
 0002:00000198       __imp___initterm_e         00470198     MSVCRT:MSVCR90.dll
 0002:0000019c       __imp___configthreadlocale 0047019c     MSVCRT:MSVCR90.dll
 0002:000001a0       __imp____setusermatherr    004701a0     MSVCRT:MSVCR90.dll
 0002:000001a4       __imp___adjust_fdiv        004701a4     MSVCRT:MSVCR90.dll
 0002:000001a8       __imp____p__commode        004701a8     MSVCRT:MSVCR90.dll
 0002:000001ac       __imp____p__fmode          004701ac     MSVCRT:MSVCR90.dll
 0002:000001b0       __imp___encode_pointer     004701b0     MSVCRT:MSVCR90.dll
 0002:000001b4       __imp____set_app_type      004701b4     MSVCRT:MSVCR90.dll
 0002:000001b8       __imp___unlock             004701b8     MSVCRT:MSVCR90.dll
 0002:000001bc       __imp____dllonexit         004701bc     MSVCRT:MSVCR90.dll
 0002:000001c0       __imp___lock               004701c0     MSVCRT:MSVCR90.dll
 0002:000001c4       __imp___onexit             004701c4     MSVCRT:MSVCR90.dll
 0002:000001c8       __imp___decode_pointer     004701c8     MSVCRT:MSVCR90.dll
 0002:000001cc       __imp_?terminate@@YAXXZ    004701cc     MSVCRT:MSVCR90.dll
 0002:000001d0       __imp___except_handler4_common 004701d0     MSVCRT:MSVCR90.dll
 0002:000001d4       __imp___invoke_watson      004701d4     MSVCRT:MSVCR90.dll
 0002:000001d8       __imp___controlfp_s        004701d8     MSVCRT:MSVCR90.dll
 0002:000001dc       __imp___crt_debugger_hook  004701dc     MSVCRT:MSVCR90.dll
 0002:000001e0       __imp___stricmp            004701e0     MSVCRT:MSVCR90.dll
 0002:000001e0       __imp__stricmp             004701e0     MSVCRT:MSVCR90.dll
 0002:000001e4       __imp__memcpy              004701e4     MSVCRT:MSVCR90.dll
 0002:000001e8       __imp__memset              004701e8     MSVCRT:MSVCR90.dll
 0002:000001ec       __imp___vsnprintf          004701ec     MSVCRT:MSVCR90.dll
 0002:000001f0       __imp___except_handler3    004701f0     MSVCRT:MSVCR90.dll
 0002:000001f4       \177MSVCR90_NULL_THUNK_DATA 004701f4     MSVCRT:MSVCR90.dll
 0002:000001f8       __imp__SHGetFolderPathW@20 004701f8     shell32:SHELL32.dll
 0002:000001fc       \177SHELL32_NULL_THUNK_DATA 004701fc     shell32:SHELL32.dll
 0002:00000200       __imp__FindWindowA@8       00470200     user32:USER32.dll
 0002:00000204       __imp__MessageBoxA@16      00470204     user32:USER32.dll
 0002:00000208       __imp__ShowWindow@8        00470208     user32:USER32.dll
 0002:0000020c       \177USER32_NULL_THUNK_DATA 0047020c     user32:USER32.dll
 0002:00000210       __imp__accept@12           00470210     wsock32:WSOCK32.dll
 0002:00000214       __imp__connect@12          00470214     wsock32:WSOCK32.dll
 0002:00000218       __imp__WSAGetLastError@0   00470218     wsock32:WSOCK32.dll
 0002:0000021c       __imp__select@20           0047021c     wsock32:WSOCK32.dll
 0002:00000220       __imp__send@16             00470220     wsock32:WSOCK32.dll
 0002:00000224       __imp__recv@16             00470224     wsock32:WSOCK32.dll
 0002:00000228       __imp__htons@4             00470228     wsock32:WSOCK32.dll
 0002:0000022c       __imp__listen@8            0047022c     wsock32:WSOCK32.dll
 0002:00000230       __imp__htonl@4             00470230     wsock32:WSOCK32.dll
 0002:00000234       __imp__gethostname@8       00470234     wsock32:WSOCK32.dll
 0002:00000238       __imp__gethostbyname@4     00470238     wsock32:WSOCK32.dll
 0002:0000023c       __imp__inet_addr@4         0047023c     wsock32:WSOCK32.dll
 0002:00000240       __imp__socket@12           00470240     wsock32:WSOCK32.dll
 0002:00000244       __imp__WSAStartup@8        00470244     wsock32:WSOCK32.dll
 0002:00000248       __imp__bind@12             00470248     wsock32:WSOCK32.dll
 0002:0000024c       __imp__ioctlsocket@12      0047024c     wsock32:WSOCK32.dll
 0002:00000250       __imp__getsockopt@20       00470250     wsock32:WSOCK32.dll
 0002:00000254       __imp__setsockopt@20       00470254     wsock32:WSOCK32.dll
 0002:00000258       __imp__closesocket@4       00470258     wsock32:WSOCK32.dll
 0002:0000025c       __imp__ntohs@4             0047025c     wsock32:WSOCK32.dll
 0002:00000260       __imp__shutdown@8          00470260     wsock32:WSOCK32.dll
 0002:00000264       \177WSOCK32_NULL_THUNK_DATA 00470264     wsock32:WSOCK32.dll
 0002:00000268       __imp__MiniDumpWriteDump@28 00470268     dbghelp:dbghelp.dll
 0002:0000026c       \177dbghelp_NULL_THUNK_DATA 0047026c     dbghelp:dbghelp.dll
 0002:00000270       ___xc_a                    00470270     MSVCRT:cinitexe.obj
 0002:00000350       ___xc_z                    00470350     MSVCRT:cinitexe.obj
 0002:00000354       ___xi_a                    00470354     MSVCRT:cinitexe.obj
 0002:00000364       ___xi_z                    00470364     MSVCRT:cinitexe.obj
 0002:00000368       ___xl_a                    00470368     MSVCRT:tlssup.obj
 0002:0000036c       ___xl_z                    0047036c     MSVCRT:tlssup.obj
 0002:0000038c       ?ProcessDetach@NativeDll@<CrtImplementationDetails>@@0IB 0047038c     MSVCRT:unhandld.obj
 0002:00000390       ?ProcessAttach@NativeDll@<CrtImplementationDetails>@@0IB 00470390     MSVCRT:unhandld.obj
 0002:00000394       ?ThreadAttach@NativeDll@<CrtImplementationDetails>@@0IB 00470394     MSVCRT:unhandld.obj
 0002:00000398       ?ThreadDetach@NativeDll@<CrtImplementationDetails>@@0IB 00470398     MSVCRT:unhandld.obj
 0002:0000039c       ?ProcessVerifier@NativeDll@<CrtImplementationDetails>@@0IB 0047039c     MSVCRT:unhandld.obj
 0002:000003a8       ??_C@_0P@GHFPNOJB@bad?5allocation?$AA@ 004703a8     stdneb.obj
 0002:000003c0       ?g_XMSinCoefficients0@@3UXMVECTORF32@@B 004703c0     stdneb.obj
 0002:000003d0       ?g_XMSinCoefficients1@@3UXMVECTORF32@@B 004703d0     stdneb.obj
 0002:000003e0       ?g_XMSinCoefficients2@@3UXMVECTORF32@@B 004703e0     stdneb.obj
 0002:000003f0       ?g_XMCosCoefficients0@@3UXMVECTORF32@@B 004703f0     stdneb.obj
 0002:00000400       ?g_XMCosCoefficients1@@3UXMVECTORF32@@B 00470400     stdneb.obj
 0002:00000410       ?g_XMCosCoefficients2@@3UXMVECTORF32@@B 00470410     stdneb.obj
 0002:00000420       ?g_XMTanCoefficients0@@3UXMVECTORF32@@B 00470420     stdneb.obj
 0002:00000430       ?g_XMTanCoefficients1@@3UXMVECTORF32@@B 00470430     stdneb.obj
 0002:00000440       ?g_XMTanCoefficients2@@3UXMVECTORF32@@B 00470440     stdneb.obj
 0002:00000450       ?g_XMASinCoefficients0@@3UXMVECTORF32@@B 00470450     stdneb.obj
 0002:00000460       ?g_XMASinCoefficients1@@3UXMVECTORF32@@B 00470460     stdneb.obj
 0002:00000470       ?g_XMASinCoefficients2@@3UXMVECTORF32@@B 00470470     stdneb.obj
 0002:00000480       ?g_XMATanCoefficients0@@3UXMVECTORF32@@B 00470480     stdneb.obj
 0002:00000490       ?g_XMATanCoefficients1@@3UXMVECTORF32@@B 00470490     stdneb.obj
 0002:000004a0       ?g_XMATanCoefficients2@@3UXMVECTORF32@@B 004704a0     stdneb.obj
 0002:000004b0       ?g_XMSinEstCoefficients@@3UXMVECTORF32@@B 004704b0     stdneb.obj
 0002:000004c0       ?g_XMCosEstCoefficients@@3UXMVECTORF32@@B 004704c0     stdneb.obj
 0002:000004d0       ?g_XMTanEstCoefficients@@3UXMVECTORF32@@B 004704d0     stdneb.obj
 0002:000004e0       ?g_XMATanEstCoefficients@@3UXMVECTORF32@@B 004704e0     stdneb.obj
 0002:000004f0       ?g_XMASinEstCoefficients@@3UXMVECTORF32@@B 004704f0     stdneb.obj
 0002:00000500       ?g_XMASinEstConstants@@3UXMVECTORF32@@B 00470500     stdneb.obj
 0002:00000510       ?g_XMPiConstants0@@3UXMVECTORF32@@B 00470510     stdneb.obj
 0002:00000520       ?g_XMIdentityR0@@3UXMVECTORF32@@B 00470520     stdneb.obj
 0002:00000530       ?g_XMIdentityR1@@3UXMVECTORF32@@B 00470530     stdneb.obj
 0002:00000540       ?g_XMIdentityR2@@3UXMVECTORF32@@B 00470540     stdneb.obj
 0002:00000550       ?g_XMIdentityR3@@3UXMVECTORF32@@B 00470550     stdneb.obj
 0002:00000560       ?g_XMNegIdentityR0@@3UXMVECTORF32@@B 00470560     stdneb.obj
 0002:00000570       ?g_XMNegIdentityR1@@3UXMVECTORF32@@B 00470570     stdneb.obj
 0002:00000580       ?g_XMNegIdentityR2@@3UXMVECTORF32@@B 00470580     stdneb.obj
 0002:00000590       ?g_XMNegIdentityR3@@3UXMVECTORF32@@B 00470590     stdneb.obj
 0002:000005a0       ?g_XMNegativeZero@@3UXMVECTORI32@@B 004705a0     stdneb.obj
 0002:000005b0       ?g_XMNegate3@@3UXMVECTORI32@@B 004705b0     stdneb.obj
 0002:000005c0       ?g_XMMask3@@3UXMVECTORI32@@B 004705c0     stdneb.obj
 0002:000005d0       ?g_XMMaskX@@3UXMVECTORI32@@B 004705d0     stdneb.obj
 0002:000005e0       ?g_XMMaskY@@3UXMVECTORI32@@B 004705e0     stdneb.obj
 0002:000005f0       ?g_XMMaskZ@@3UXMVECTORI32@@B 004705f0     stdneb.obj
 0002:00000600       ?g_XMMaskW@@3UXMVECTORI32@@B 00470600     stdneb.obj
 0002:00000610       ?g_XMOne@@3UXMVECTORF32@@B 00470610     stdneb.obj
 0002:00000620       ?g_XMOne3@@3UXMVECTORF32@@B 00470620     stdneb.obj
 0002:00000630       ?g_XMZero@@3UXMVECTORF32@@B 00470630     stdneb.obj
 0002:00000640       ?g_XMNegativeOne@@3UXMVECTORF32@@B 00470640     stdneb.obj
 0002:00000650       ?g_XMOneHalf@@3UXMVECTORF32@@B 00470650     stdneb.obj
 0002:00000660       ?g_XMNegativeOneHalf@@3UXMVECTORF32@@B 00470660     stdneb.obj
 0002:00000670       ?g_XMNegativeTwoPi@@3UXMVECTORF32@@B 00470670     stdneb.obj
 0002:00000680       ?g_XMNegativePi@@3UXMVECTORF32@@B 00470680     stdneb.obj
 0002:00000690       ?g_XMHalfPi@@3UXMVECTORF32@@B 00470690     stdneb.obj
 0002:000006a0       ?g_XMPi@@3UXMVECTORF32@@B  004706a0     stdneb.obj
 0002:000006b0       ?g_XMReciprocalPi@@3UXMVECTORF32@@B 004706b0     stdneb.obj
 0002:000006c0       ?g_XMTwoPi@@3UXMVECTORF32@@B 004706c0     stdneb.obj
 0002:000006d0       ?g_XMReciprocalTwoPi@@3UXMVECTORF32@@B 004706d0     stdneb.obj
 0002:000006e0       ?g_XMEpsilon@@3UXMVECTORF32@@B 004706e0     stdneb.obj
 0002:000006f0       ?g_XMInfinity@@3UXMVECTORI32@@B 004706f0     stdneb.obj
 0002:00000700       ?g_XMQNaN@@3UXMVECTORI32@@B 00470700     stdneb.obj
 0002:00000710       ?g_XMQNaNTest@@3UXMVECTORI32@@B 00470710     stdneb.obj
 0002:00000720       ?g_XMAbsMask@@3UXMVECTORI32@@B 00470720     stdneb.obj
 0002:00000730       ?g_XMFltMin@@3UXMVECTORI32@@B 00470730     stdneb.obj
 0002:00000740       ?g_XMFltMax@@3UXMVECTORI32@@B 00470740     stdneb.obj
 0002:00000750       ?g_XMNegOneMask@@3UXMVECTORI32@@B 00470750     stdneb.obj
 0002:00000760       ?g_XMMaskA8R8G8B8@@3UXMVECTORI32@@B 00470760     stdneb.obj
 0002:00000770       ?g_XMFlipA8R8G8B8@@3UXMVECTORI32@@B 00470770     stdneb.obj
 0002:00000780       ?g_XMFixAA8R8G8B8@@3UXMVECTORF32@@B 00470780     stdneb.obj
 0002:00000790       ?g_XMNormalizeA8R8G8B8@@3UXMVECTORF32@@B 00470790     stdneb.obj
 0002:000007a0       ?g_XMMaskA2B10G10R10@@3UXMVECTORI32@@B 004707a0     stdneb.obj
 0002:000007b0       ?g_XMFlipA2B10G10R10@@3UXMVECTORI32@@B 004707b0     stdneb.obj
 0002:000007c0       ?g_XMFixAA2B10G10R10@@3UXMVECTORF32@@B 004707c0     stdneb.obj
 0002:000007d0       ?g_XMNormalizeA2B10G10R10@@3UXMVECTORF32@@B 004707d0     stdneb.obj
 0002:000007e0       ?g_XMMaskX16Y16@@3UXMVECTORI32@@B 004707e0     stdneb.obj
 0002:000007f0       ?g_XMFlipX16Y16@@3UXMVECTORI32@@B 004707f0     stdneb.obj
 0002:00000800       ?g_XMFixX16Y16@@3UXMVECTORF32@@B 00470800     stdneb.obj
 0002:00000810       ?g_XMNormalizeX16Y16@@3UXMVECTORF32@@B 00470810     stdneb.obj
 0002:00000820       ?g_XMMaskX16Y16Z16W16@@3UXMVECTORI32@@B 00470820     stdneb.obj
 0002:00000830       ?g_XMFlipX16Y16Z16W16@@3UXMVECTORI32@@B 00470830     stdneb.obj
 0002:00000840       ?g_XMFixX16Y16Z16W16@@3UXMVECTORF32@@B 00470840     stdneb.obj
 0002:00000850       ?g_XMNormalizeX16Y16Z16W16@@3UXMVECTORF32@@B 00470850     stdneb.obj
 0002:00000860       ?g_XMNoFraction@@3UXMVECTORF32@@B 00470860     stdneb.obj
 0002:00000870       ?g_XMMaskByte@@3UXMVECTORI32@@B 00470870     stdneb.obj
 0002:00000880       ?g_XMNegateX@@3UXMVECTORF32@@B 00470880     stdneb.obj
 0002:00000890       ?g_XMNegateY@@3UXMVECTORF32@@B 00470890     stdneb.obj
 0002:000008a0       ?g_XMNegateZ@@3UXMVECTORF32@@B 004708a0     stdneb.obj
 0002:000008b0       ?g_XMNegateW@@3UXMVECTORF32@@B 004708b0     stdneb.obj
 0002:000008c0       ?g_XMSelect0101@@3UXMVECTORI32@@B 004708c0     stdneb.obj
 0002:000008d0       ?g_XMSelect1010@@3UXMVECTORI32@@B 004708d0     stdneb.obj
 0002:000008e0       ?g_XMOneHalfMinusEpsilon@@3UXMVECTORI32@@B 004708e0     stdneb.obj
 0002:000008f0       ?g_XMSelect1000@@3UXMVECTORI32@@B 004708f0     stdneb.obj
 0002:00000900       ?g_XMSelect1100@@3UXMVECTORI32@@B 00470900     stdneb.obj
 0002:00000910       ?g_XMSelect1110@@3UXMVECTORI32@@B 00470910     stdneb.obj
 0002:00000920       ?g_XMSwizzleXYXY@@3UXMVECTORI32@@B 00470920     stdneb.obj
 0002:00000930       ?g_XMSwizzleXYZX@@3UXMVECTORI32@@B 00470930     stdneb.obj
 0002:00000940       ?g_XMSwizzleYXZW@@3UXMVECTORI32@@B 00470940     stdneb.obj
 0002:00000950       ?g_XMSwizzleYZXW@@3UXMVECTORI32@@B 00470950     stdneb.obj
 0002:00000960       ?g_XMSwizzleZXYW@@3UXMVECTORI32@@B 00470960     stdneb.obj
 0002:00000970       ?g_XMPermute0X0Y1X1Y@@3UXMVECTORI32@@B 00470970     stdneb.obj
 0002:00000980       ?g_XMPermute0Z0W1Z1W@@3UXMVECTORI32@@B 00470980     stdneb.obj
 0002:00000990       ?g_XMFixupY16@@3UXMVECTORF32@@B 00470990     stdneb.obj
 0002:000009a0       ?g_XMFixupY16W16@@3UXMVECTORF32@@B 004709a0     stdneb.obj
 0002:000009b0       ?g_XMFlipY@@3UXMVECTORI32@@B 004709b0     stdneb.obj
 0002:000009c0       ?g_XMFlipZ@@3UXMVECTORI32@@B 004709c0     stdneb.obj
 0002:000009d0       ?g_XMFlipW@@3UXMVECTORI32@@B 004709d0     stdneb.obj
 0002:000009e0       ?g_XMFlipYZ@@3UXMVECTORI32@@B 004709e0     stdneb.obj
 0002:000009f0       ?g_XMFlipZW@@3UXMVECTORI32@@B 004709f0     stdneb.obj
 0002:00000a00       ?g_XMFlipYW@@3UXMVECTORI32@@B 00470a00     stdneb.obj
 0002:00000a10       ?g_XMMaskHenD3@@3UXMVECTORI32@@B 00470a10     stdneb.obj
 0002:00000a20       ?g_XMMaskDHen3@@3UXMVECTORI32@@B 00470a20     stdneb.obj
 0002:00000a30       ?g_XMAddUHenD3@@3UXMVECTORF32@@B 00470a30     stdneb.obj
 0002:00000a40       ?g_XMAddHenD3@@3UXMVECTORF32@@B 00470a40     stdneb.obj
 0002:00000a50       ?g_XMAddDHen3@@3UXMVECTORF32@@B 00470a50     stdneb.obj
 0002:00000a60       ?g_XMMulHenD3@@3UXMVECTORF32@@B 00470a60     stdneb.obj
 0002:00000a70       ?g_XMMulDHen3@@3UXMVECTORF32@@B 00470a70     stdneb.obj
 0002:00000a80       ?g_XMXorHenD3@@3UXMVECTORI32@@B 00470a80     stdneb.obj
 0002:00000a90       ?g_XMXorDHen3@@3UXMVECTORI32@@B 00470a90     stdneb.obj
 0002:00000aa0       ?g_XMMaskIco4@@3UXMVECTORI32@@B 00470aa0     stdneb.obj
 0002:00000ab0       ?g_XMXorXIco4@@3UXMVECTORI32@@B 00470ab0     stdneb.obj
 0002:00000ac0       ?g_XMXorIco4@@3UXMVECTORI32@@B 00470ac0     stdneb.obj
 0002:00000ad0       ?g_XMAddXIco4@@3UXMVECTORF32@@B 00470ad0     stdneb.obj
 0002:00000ae0       ?g_XMAddUIco4@@3UXMVECTORF32@@B 00470ae0     stdneb.obj
 0002:00000af0       ?g_XMAddIco4@@3UXMVECTORF32@@B 00470af0     stdneb.obj
 0002:00000b00       ?g_XMMulIco4@@3UXMVECTORF32@@B 00470b00     stdneb.obj
 0002:00000b10       ?g_XMMaskDec4@@3UXMVECTORI32@@B 00470b10     stdneb.obj
 0002:00000b20       ?g_XMXorDec4@@3UXMVECTORI32@@B 00470b20     stdneb.obj
 0002:00000b30       ?g_XMAddUDec4@@3UXMVECTORF32@@B 00470b30     stdneb.obj
 0002:00000b40       ?g_XMAddDec4@@3UXMVECTORF32@@B 00470b40     stdneb.obj
 0002:00000b50       ?g_XMMulDec4@@3UXMVECTORF32@@B 00470b50     stdneb.obj
 0002:00000b60       ?g_XMMaskByte4@@3UXMVECTORI32@@B 00470b60     stdneb.obj
 0002:00000b70       ?g_XMXorByte4@@3UXMVECTORI32@@B 00470b70     stdneb.obj
 0002:00000b80       ?g_XMAddByte4@@3UXMVECTORF32@@B 00470b80     stdneb.obj
 0002:00000b90       _inflate_copyright         00470b90     zlib_win32.release:inftrees.obj
 0002:00000cc0       _z_errmsg                  00470cc0     zlib_win32.release:zutil.obj
 0002:00003690       _unz_copyright             00473690     zlib_win32.release:unzip.obj
 0002:00006b5c       ?FreeBlockPattern@Win360MemoryPool@Win360@@0IB 00476b5c     jobstest.obj
 0002:00006b60       ?NewBlockPattern@Win360MemoryPool@Win360@@0IB 00476b60     jobstest.obj
 0002:00006b64       ?BlockAlign@Win360MemoryPool@Win360@@0HB 00476b64     jobstest.obj
 0002:00006b68       ?NumPools@PoolArrayAllocator@Memory@@2HB 00476b68     jobstest.obj
 0002:00006b6c       ?MinGrowSize@?$Array@VString@Util@@@Util@@0HB 00476b6c     jobstest.obj
 0002:00006b70       ?MaxGrowSize@?$Array@VString@Util@@@Util@@0HB 00476b70     jobstest.obj
 0002:00006b74       ?MinGrowSize@?$Array@V?$KeyValuePair@VFourCC@Util@@PBVRtti@Core@@@Util@@@Util@@0HB 00476b74     jobstest.obj
 0002:00006b78       ?MaxGrowSize@?$Array@V?$KeyValuePair@VFourCC@Util@@PBVRtti@Core@@@Util@@@Util@@0HB 00476b78     jobstest.obj
 0002:00006b7c       ?MinGrowSize@?$Array@V?$Ptr@VConsoleHandler@IO@@@@@Util@@0HB 00476b7c     jobstest.obj
 0002:00006b80       ?MaxGrowSize@?$Array@V?$Ptr@VConsoleHandler@IO@@@@@Util@@0HB 00476b80     jobstest.obj
 0002:00006b84       ?MinGrowSize@?$Array@V?$KeyValuePair@VString@Util@@PBVRtti@Core@@@Util@@@Util@@0HB 00476b84     jobstest.obj
 0002:00006b88       ?MaxGrowSize@?$Array@V?$KeyValuePair@VString@Util@@PBVRtti@Core@@@Util@@@Util@@0HB 00476b88     jobstest.obj
 0002:00006b8c       ?InvalidCoreId@Win32Cpu@Win32@@2KB 00476b8c     jobstest.obj
 0002:00006b90       ?MainThreadCore@Win32Cpu@Win32@@2KB 00476b90     jobstest.obj
 0002:00006b94       ?IoThreadCore@Win32Cpu@Win32@@2KB 00476b94     jobstest.obj
 0002:00006b98       ?RenderThreadCore@Win32Cpu@Win32@@2KB 00476b98     jobstest.obj
 0002:00006b9c       ?AudioThreadCore@Win32Cpu@Win32@@2KB 00476b9c     jobstest.obj
 0002:00006ba0       ?MiscThreadCore@Win32Cpu@Win32@@2KB 00476ba0     jobstest.obj
 0002:00006ba4       ?NetworkThreadCore@Win32Cpu@Win32@@2KB 00476ba4     jobstest.obj
 0002:00006ba8       ?JobThreadFirstCore@Win32Cpu@Win32@@2KB 00476ba8     jobstest.obj
 0002:00006bac       ?MinGrowSize@?$Array@UStaticString@StringAtomTableBase@Util@@@Util@@0HB 00476bac     jobstest.obj
 0002:00006bb0       ?MaxGrowSize@?$Array@UStaticString@StringAtomTableBase@Util@@@Util@@0HB 00476bb0     jobstest.obj
 0002:00006bb4       ?MaxScratchSize@TPWorkerThread@Jobs@@0HB 00476bb4     jobstest.obj
 0002:00006bb8       ?MinGrowSize@?$Array@VTPJobCommand@Jobs@@@Util@@0HB 00476bb8     jobstest.obj
 0002:00006bbc       ?MaxGrowSize@?$Array@VTPJobCommand@Jobs@@@Util@@0HB 00476bbc     jobstest.obj
 0002:00006bc0       ?NumWorkerThreads@TPJobThreadPool@Jobs@@0HB 00476bc0     jobstest.obj
 0002:00006bc4       ?MinGrowSize@?$Array@PAVTPJobSlice@Jobs@@@Util@@0HB 00476bc4     jobstest.obj
 0002:00006bc8       ?MaxGrowSize@?$Array@PAVTPJobSlice@Jobs@@@Util@@0HB 00476bc8     jobstest.obj
 0002:00006bcc       ?MaxNumBuffers@JobUniformDesc@Jobs@@2HB 00476bcc     jobstest.obj
 0002:00006bd0       ?MaxNumBuffers@JobDataDesc@Jobs@@2HB 00476bd0     jobstest.obj
 0002:00006bd4       ?MaxSliceSize@JobBase@Base@@2HB 00476bd4     jobstest.obj
 0002:00006bd8       ??_C@_0BA@ILGFJDHF@Radon?5Labs?5GmbH?$AA@ 00476bd8     jobstest.obj
 0002:00006be8       ??_C@_09ICFKCCBC@Jobs?5Test?$AA@ 00476be8     jobstest.obj
 0002:00006bf4       ??_C@_0DG@OFBDDPFF@c?3?2nebula3?2code?2foundation?2memor@ 00476bf4     jobstestapplication.obj
 0002:00006c2c       ??_C@_09EJCPEHHD@0?5?$CB?$DN?5from?$AA@ 00476c2c     jobstestapplication.obj
 0002:00006c38       ??_C@_07FEEDPIAJ@0?5?$CB?$DN?5to?$AA@ 00476c38     jobstestapplication.obj
 0002:00006c40       ??_C@_0L@FNMCDHDA@from?5?$CB?$DN?5to?$AA@ 00476c40     jobstestapplication.obj
 0002:00006c4c       ??_C@_0CO@FNEMHKPM@c?3?2nebula3?2code?2foundation?2jobs?1@ 00476c4c     jobstestapplication.obj
 0002:00006c7c       ??_C@_0BO@CLKGGDGB@sliceSize_?5?$DM?$DN?5JobMaxSliceSize?$AA@ 00476c7c     jobstestapplication.obj
 0002:00006c9c       ??_C@_0BP@PKBPOBMI@sliceSize0_?5?$DM?$DN?5JobMaxSliceSize?$AA@ 00476c9c     jobstestapplication.obj
 0002:00006cbc       ??_C@_0BP@ONDHIFAI@sliceSize1_?5?$DM?$DN?5JobMaxSliceSize?$AA@ 00476cbc     jobstestapplication.obj
 0002:00006cdc       ??_C@_0CJ@CKJAFIGD@?4?4?2tests?2jobstest?2jobstestapplic@ 00476cdc     jobstestapplication.obj
 0002:00006d08       ??_C@_0BA@GJILFILP@?$CBthis?9?$DOIsOpen?$CI?$CJ?$AA@ 00476d08     jobstestapplication.obj
 0002:00006d18       ??_C@_0O@LICAIHGE@RL?5Test?5Title?$AA@ 00476d18     jobstestapplication.obj
 0002:00006d28       ??_C@_09NEEFJHJB@RLTITLEID?$AA@ 00476d28     jobstestapplication.obj
 0002:00006d34       ??_C@_04BOFMJCLK@1?400?$AA@ 00476d34     jobstestapplication.obj
 0002:00006d3c       ??_C@_0BA@FCDOIBLM@particlesOutput?$AA@ 00476d3c     jobstestapplication.obj
 0002:00006d4c       ??_C@_0P@BOPMDDF@sliceCount?5?$DO?50?$AA@ 00476d4c     jobstestapplication.obj
 0002:00006d5c       ??_C@_0M@MKIPDLFH@sliceOutput?$AA@ 00476d5c     jobstestapplication.obj
 0002:00006d68       ??_C@_0BK@KPOFPAFH@?$CB?$CI?$CIint?$CJsliceOutput?5?$CG?50xF?$CJ?$AA@ 00476d68     jobstestapplication.obj
 0002:00006d84       ??_C@_0BA@GIGKEEPD@?$CIruns?5?$CFd?$CJ?3?5?$CFfs?6?$AA@ 00476d84     jobstestapplication.obj
 0002:00006d94       ??_C@_08LCELNNFC@result?3?6?$AA@ 00476d94     jobstestapplication.obj
 0002:00006da0       ??_C@_0CD@INKENAGK@?5?5slice?5?$CFd?5numLivingParticles?3?5?$CF@ 00476da0     jobstestapplication.obj
 0002:00006dc4       ??_C@_0CG@FGODFJOD@c?3?2nebula3?2code?2foundation?2core?1@ 00476dc4     jobstestapplication.obj
 0002:00006dec       ??_C@_0CK@GLFJIEFE@NULL?5pointer?5access?5in?5Ptr?3?3oper@ 00476dec     jobstestapplication.obj
 0002:00006e18       ??_C@_09JGKFILJK@this?9?$DOptr?$AA@ 00476e18     jobstestapplication.obj
 0002:00006e24       ??_7JobsTestApplication@Particles@@6B@ 00476e24     jobstestapplication.obj
 0002:00006e38       ??_C@_0CM@ODKKPOME@?4?4?2foundation?2memory?2win360?2win3@ 00476e38     foundation_win32.release:win360memory.obj
 0002:00006e64       ??_C@_0BI@NOOHAMNH@heapType?5?$DM?5NumHeapTypes?$AA@ 00476e64     foundation_win32.release:win360memory.obj
 0002:00006e7c       ??_C@_0BF@MFBPIJCM@0?5?$CB?$DN?5Heaps?$FLheapType?$FN?$AA@ 00476e7c     foundation_win32.release:win360memory.obj
 0002:00006e94       ??_C@_0BL@KDHBNLEK@?$CI?$CIuint?$CJallocPtr?5?$CG?515?$CJ?5?$DN?$DN?50?$AA@ 00476e94     foundation_win32.release:win360memory.obj
 0002:00006eb0       ??_C@_0EF@JMMPNDAL@Alloc?3?5Out?5of?5memory?0?5allocating@ 00476eb0     foundation_win32.release:win360memory.obj
 0002:00006ef8       ??_C@_0EE@LFKDAEPB@?$CIheapType?5?$CB?$DN?5Xbox360GraphicsHeap@ 00476ef8     foundation_win32.release:win360memory.obj
 0002:00006f3c       ??_C@_0DE@KJDCBOMA@?$CIheapType?5?$DM?5NumHeapTypes?$CJ?5?$CG?$CG?5?$CI0?5@ 00476f3c     foundation_win32.release:win360memory.obj
 0002:00006f70       ??_C@_0EH@FIPHFLEB@Realloc?3?5Out?5of?5memory?0?5allocati@ 00476f70     foundation_win32.release:win360memory.obj
 0002:00006fb8       ??_C@_0DE@NFMLABPA@DumpTotalMemoryStatus?$CI?$CJ?5not?5impl@ 00476fb8     foundation_win32.release:win360memory.obj
 0002:00006fec       ??_C@_02LIELOMNJ@on?$AA@   00476fec     foundation_win32.release:string.obj
 0002:00006ff0       ??_C@_03MCADLMAF@off?$AA@  00476ff0     foundation_win32.release:string.obj
 0002:00006ff4       ??_C@_03ICICOMAL@yes?$AA@  00476ff4     foundation_win32.release:string.obj
 0002:00006ff8       ??_C@_02KAJCLHKP@no?$AA@   00476ff8     foundation_win32.release:string.obj
 0002:00006ffc       ??_C@_0CJ@KPDBJEOK@c?3?2nebula3?2code?2foundation?2util?1@ 00476ffc     foundation_win32.release:string.obj
 0002:00007028       ??_C@_0BN@POFINLGO@newSize?5?$DO?5?$CIthis?9?$DOstrLen?5?$CL?51?$CJ?$AA@ 00477028     foundation_win32.release:string.obj
 0002:00007048       ??_C@_0BP@EEBDEGPD@newSize?5?$DO?5this?9?$DOheapBufferSize?$AA@ 00477048     foundation_win32.release:string.obj
 0002:00007068       ??_C@_04LOAJBDKD@true?$AA@ 00477068     foundation_win32.release:string.obj
 0002:00007070       ??_C@_05LAPONLG@false?$AA@ 00477070     foundation_win32.release:string.obj
 0002:00007078       ??_C@_0BC@CJPEMPAL@i?5?$DM?$DN?5this?9?$DOstrLen?$AA@ 00477078     foundation_win32.release:string.obj
 0002:0000708c       ??_C@_03NNNAMNMM@?0?5?7?$AA@ 0047708c     foundation_win32.release:string.obj
 0002:00007090       ??_C@_0BN@NDBMPMCD@?4?4?2foundation?2util?2string?4cc?$AA@ 00477090     foundation_win32.release:string.obj
 0002:000070b0       ??_C@_08COOMBJJI@0?5?$CB?$DN?5buf?$AA@ 004770b0     foundation_win32.release:string.obj
 0002:000070bc       ??_C@_0M@KILAHHOK@bufSize?5?$DO?51?$AA@ 004770bc     foundation_win32.release:string.obj
 0002:000070c8       ??_C@_06PCICMFGG@append?$AA@ 004770c8     foundation_win32.release:string.obj
 0002:000070d0       ??_C@_0BF@LMEIFOGC@from?5?$DM?$DN?5this?9?$DOstrLen?$AA@ 004770d0     foundation_win32.release:string.obj
 0002:000070e8       ??_C@_0CC@ICCFPDP@?$CIfrom?5?$CL?5numChars?$CJ?5?$DM?$DN?5this?9?$DOstrLe@ 004770e8     foundation_win32.release:string.obj
 0002:0000710c       ??_C@_0BK@ONBCDJGI@startIndex?5?$DM?5this?9?$DOstrLen?$AA@ 0047710c     foundation_win32.release:string.obj
 0002:00007128       ??_C@_0M@DLFFJCNF@s?4IsValid?$CI?$CJ?$AA@ 00477128     foundation_win32.release:string.obj
 0002:00007134       ??_C@_0BC@LKPOIPPK@charSet?4IsValid?$CI?$CJ?$AA@ 00477134     foundation_win32.release:string.obj
 0002:00007148       ??_C@_0BD@POLGAEPB@matchStr?4IsValid?$CI?$CJ?$AA@ 00477148     foundation_win32.release:string.obj
 0002:0000715c       ??_C@_0BE@BLNLEPGL@tokens?4Size?$CI?$CJ?5?$DN?$DN?516?$AA@ 0047715c     foundation_win32.release:string.obj
 0002:00007170       ??_C@_08OJCFJEAA@0?5?$CB?$DN?5str?$AA@ 00477170     foundation_win32.release:string.obj
 0002:0000717c       ??_C@_0BF@CKPCPHAL@index?5?$DM?5this?9?$DOstrLen?$AA@ 0047717c     foundation_win32.release:string.obj
 0002:00007194       ??_C@_09EEGIECFH@0?5?$CB?$DN?5cStr?$AA@ 00477194     foundation_win32.release:string.obj
 0002:000071a0       ??_C@_0BP@MKHLMGDH@Invalid?5string?5value?5for?5bool?$CB?$AA@ 004771a0     foundation_win32.release:string.obj
 0002:000071c0       ??_C@_0N@MDGKIMAM@str0?5?$CG?$CG?5str1?$AA@ 004771c0     foundation_win32.release:string.obj
 0002:000071d0       ??_C@_03OJMAPEGJ@str?$AA@  004771d0     foundation_win32.release:string.obj
 0002:000071d4       ?MinGrowSize@?$Array@V?$KeyValuePair@VString@Util@@V12@@Util@@@Util@@0HB 004771d4     foundation_win32.release:string.obj
 0002:000071d8       ?MaxGrowSize@?$Array@V?$KeyValuePair@VString@Util@@V12@@Util@@@Util@@0HB 004771d8     foundation_win32.release:string.obj
 0002:000071dc       ??_C@_04OCGLKFAE@?5?7?6?$DN?$AA@ 004771dc     foundation_win32.release:string.obj
 0002:000071e4       ??_C@_0BJ@EBIIIFLN@0?5?$DN?$DN?5?$CItokens?4Size?$CI?$CJ?5?$CG?51?$CJ?$AA@ 004771e4     foundation_win32.release:string.obj
 0002:00007200       ??_C@_01LFCBOECM@?4?$AA@   00477200     foundation_win32.release:string.obj
 0002:00007204       ??_C@_0CI@BHODGIE@c?3?2nebula3?2code?2foundation?2util?1@ 00477204     foundation_win32.release:string.obj
 0002:0000722c       ??_C@_0CH@BDOPOIPB@this?9?$DOelements?5?$CG?$CG?5?$CIindex?5?$DM?5this?9@ 0047722c     foundation_win32.release:string.obj
 0002:00007254       ??_C@_0P@NLJNLNEM@this?9?$DOelements?$AA@ 00477254     foundation_win32.release:string.obj
 0002:00007264       ??_C@_0CN@PLFFNBEJ@c?3?2nebula3?2code?2foundation?2util?1@ 00477264     foundation_win32.release:string.obj
 0002:00007294       ??_C@_0BC@GNKCGDPP@?$CBrhs?4inBulkInsert?$AA@ 00477294     foundation_win32.release:string.obj
 0002:000072a8       ??_C@_0BE@GDBIPADH@0?5?$DN?$DN?5this?9?$DOelements?$AA@ 004772a8     foundation_win32.release:string.obj
 0002:000072bc       ??_C@_0P@HBJIIKFB@this?9?$DOgrow?5?$DO?50?$AA@ 004772bc     foundation_win32.release:string.obj
 0002:000072cc       ??_C@_07DCGCMICB@0?5?$DN?$DN?5lo?$AA@ 004772cc     foundation_win32.release:string.obj
 0002:000072d4       ??_C@_0CD@BKAJLKAE@Array?3?3InsertSorted?3?5Can?8t?5happe@ 004772d4     foundation_win32.release:string.obj
 0002:000072f8       ??_C@_0BE@DJMCGKBH@index?5?$DM?$DN?5this?9?$DOsize?$AA@ 004772f8     foundation_win32.release:string.obj
 0002:0000730c       ??_C@_0BH@MMMAFPLC@fromIndex?5?$DM?5this?9?$DOsize?$AA@ 0047730c     foundation_win32.release:string.obj
 0002:00007323       ??_C@_00CNPNBAHC@?$AA@     00477323     foundation_win32.release:string.obj
 0002:00007324       ??_C@_0BD@GICHHBIJ@tokens?4Size?$CI?$CJ?5?$DN?$DN?54?$AA@ 00477324     foundation_win32.release:commandlineargs.obj
 0002:00007338       ??_C@_0BN@GKJAADI@CmdLine?3?5arg?5?8?$CFs?8?5not?5found?$CB?$AA@ 00477338     foundation_win32.release:commandlineargs.obj
 0002:00007358       ??_C@_0CG@FOMMHIEM@?4?4?2foundation?2util?2commandlinear@ 00477358     foundation_win32.release:commandlineargs.obj
 0002:00007380       ??_C@_0BG@IBKLJDFM@this?9?$DOargs?4Size?$CI?$CJ?5?$DO?50?$AA@ 00477380     foundation_win32.release:commandlineargs.obj
 0002:00007398       ??_C@_0P@IDDGJGKI@name?4IsValid?$CI?$CJ?$AA@ 00477398     foundation_win32.release:commandlineargs.obj
 0002:000073a8       ??_C@_0BE@FBECNFCF@0?5?$CB?$DN?5this?9?$DOelements?$AA@ 004773a8     foundation_win32.release:commandlineargs.obj
 0002:000073bc       ??_C@_0BE@KHGHKIJG@Nebula3?5Application?$AA@ 004773bc     foundation_win32.release:application.obj
 0002:000073d0       ??_C@_0CB@BLMPJBLF@?4?4?2foundation?2app?2application?4cc@ 004773d0     foundation_win32.release:application.obj
 0002:000073f4       ??_C@_0P@DOHPBAMI@0?5?$DN?$DN?5Singleton?$AA@ 004773f4     foundation_win32.release:application.obj
 0002:00007404       ??_C@_0O@GIEEPHFA@?$CBthis?9?$DOisOpen?$AA@ 00477404     foundation_win32.release:application.obj
 0002:00007414       ??_C@_0N@OGOAFBLL@this?9?$DOisOpen?$AA@ 00477414     foundation_win32.release:application.obj
 0002:00007424       ??_7Application@App@@6B@   00477424     foundation_win32.release:application.obj
 0002:00007438       ??_C@_0CI@GBGNMPLK@c?3?2nebula3?2code?2foundation?2io?1co@ 00477438     foundation_win32.release:debug.obj
 0002:00007460       ??_C@_0P@BAMCAPOJ@0?5?$CB?$DN?5Singleton?$AA@ 00477460     foundation_win32.release:debug.obj
 0002:00007470       ??_C@_0DL@PJMICFCM@?$CK?$CK?$CK?5NEBULA?5ASSERTION?5?$CK?$CK?$CK?6express@ 00477470     foundation_win32.release:debug.obj
 0002:000074b0       ??_C@_0EP@ECJDIGOP@?$CK?$CK?$CK?5NEBULA?5ASSERTION?5?$CK?$CK?$CK?6program@ 004774b0     foundation_win32.release:debug.obj
 0002:00007500       ??_C@_0CL@CIMOLCLO@?4?4?2foundation?2timing?2win360?2win3@ 00477500     foundation_win32.release:win360timer.obj
 0002:0000752c       ??_C@_0P@FKEILAOM@?$CBthis?9?$DOrunning?$AA@ 0047752c     foundation_win32.release:win360timer.obj
 0002:0000753c       ??_C@_0O@GNBOCPLK@this?9?$DOrunning?$AA@ 0047753c     foundation_win32.release:win360timer.obj
 0002:0000754c       ??_C@_0CI@GIFHIMPL@?4?4?2foundation?2app?2consoleapplica@ 0047754c     foundation_win32.release:consoleapplication.obj
 0002:00007574       ??_C@_0P@OLLEPKOB@this?9?$DOIsOpen?$CI?$CJ?$AA@ 00477574     foundation_win32.release:consoleapplication.obj
 0002:00007584       ??_7ConsoleApplication@App@@6B@ 00477584     foundation_win32.release:consoleapplication.obj
 0002:00007598       ??_C@_0BA@ODJFIIDN@Jobs?3?3JobSystem?$AA@ 00477598     foundation_win32.release:jobsystem.obj
 0002:000075a8       ??_C@_0CA@OMGHFGDK@?4?4?2foundation?2jobs?2jobsystem?4cc?$AA@ 004775a8     foundation_win32.release:jobsystem.obj
 0002:000075c8       ??_C@_09EHKKJHDM@Singleton?$AA@ 004775c8     foundation_win32.release:jobsystem.obj
 0002:000075d4       ??_7JobSystem@Jobs@@6B@    004775d4     foundation_win32.release:jobsystem.obj
 0002:000075dc       ??_C@_0BC@ENLDDAMK@Jobs?3?3TPJobSystem?$AA@ 004775dc     foundation_win32.release:tpjobsystem.obj
 0002:000075f0       ??_C@_0CF@FDLGHAPO@?4?4?2foundation?2jobs?2tp?2tpjobsyste@ 004775f0     foundation_win32.release:tpjobsystem.obj
 0002:00007618       ??_C@_0BB@PIIDAHLO@?$CBthis?9?$DOIsValid?$CI?$CJ?$AA@ 00477618     foundation_win32.release:tpjobsystem.obj
 0002:0000762c       ??_C@_0BA@HENCEEOP@this?9?$DOIsValid?$CI?$CJ?$AA@ 0047762c     foundation_win32.release:tpjobsystem.obj
 0002:0000763c       ??_7TPJobSystem@Jobs@@6B@  0047763c     foundation_win32.release:tpjobsystem.obj
 0002:00007644       ??_C@_0BG@EEEIEIJP@IO?3?3GameContentServer?$AA@ 00477644     foundation_win32.release:gamecontentserver.obj
 0002:0000765c       ??_C@_0CG@MFNJHFPL@?4?4?2foundation?2io?2gamecontentserv@ 0047765c     foundation_win32.release:gamecontentserver.obj
 0002:00007684       ??_7GameContentServer@IO@@6B@ 00477684     foundation_win32.release:gamecontentserver.obj
 0002:0000768c       ??_C@_0BM@GFMGFLNJ@Base?3?3GameContentServerBase?$AA@ 0047768c     foundation_win32.release:gamecontentserverbase.obj
 0002:000076a8       ??_C@_0CP@CNJBHGLL@?4?4?2foundation?2io?2base?2gameconten@ 004776a8     foundation_win32.release:gamecontentserverbase.obj
 0002:000076d8       ??_C@_0BG@HIFKEIAJ@this?9?$DOtitle?4IsValid?$CI?$CJ?$AA@ 004776d8     foundation_win32.release:gamecontentserverbase.obj
 0002:000076f0       ??_C@_0BI@OCGNGAF@this?9?$DOtitleId?4IsValid?$CI?$CJ?$AA@ 004776f0     foundation_win32.release:gamecontentserverbase.obj
 0002:00007708       ??_C@_0BI@OMIANIF@this?9?$DOversion?4IsValid?$CI?$CJ?$AA@ 00477708     foundation_win32.release:gamecontentserverbase.obj
 0002:00007720       ??_C@_0O@FMNKJAJI@this?9?$DOisValid?$AA@ 00477720     foundation_win32.release:gamecontentserverbase.obj
 0002:00007730       ??_7RefCounted@Core@@6B@   00477730     foundation_win32.release:gamecontentserverbase.obj
 0002:00007738       ??_7GameContentServerBase@Base@@6B@ 00477738     foundation_win32.release:gamecontentserverbase.obj
 0002:00007740       ??_C@_09PHOAJKGI@Jobs?3?3Job?$AA@ 00477740     foundation_win32.release:job.obj
 0002:0000774c       ??_7Job@Jobs@@6B@          0047774c     foundation_win32.release:job.obj
 0002:00007754       ??_C@_0BC@LMKNGHB@i?5?$DM?5MaxNumBuffers?$AA@ 00477754     foundation_win32.release:tpjob.obj
 0002:00007768       ??_C@_0CG@DLKBAOMP@this?9?$DOsliceSize?$FLi?$FN?5?$DM?$DN?5JobMaxSlic@ 00477768     foundation_win32.release:tpjob.obj
 0002:00007790       ??_C@_0DK@LJJKHKIJ@c?3?2nebula3?2code?2foundation?2threa@ 00477790     foundation_win32.release:tpjob.obj
 0002:000077cc       ??_C@_0BB@BOFACGGP@0?5?$CB?$DN?5this?9?$DOevent?$AA@ 004777cc     foundation_win32.release:tpjob.obj
 0002:000077e0       ??_C@_0M@NGJFCCEA@Jobs?3?3TPJob?$AA@ 004777e0     foundation_win32.release:tpjob.obj
 0002:000077ec       ??_C@_0BP@NNLIPILA@?4?4?2foundation?2jobs?2tp?2tpjob?4cc?$AA@ 004777ec     foundation_win32.release:tpjob.obj
 0002:0000780c       ??_C@_0BK@DBPGGLDP@input?4GetNumBuffers?$CI?$CJ?5?$DO?50?$AA@ 0047780c     foundation_win32.release:tpjob.obj
 0002:00007828       ??_C@_0BL@LLOIJIJD@output?4GetNumBuffers?$CI?$CJ?5?$DO?50?$AA@ 00477828     foundation_win32.release:tpjob.obj
 0002:00007844       ??_C@_0CC@EPBNOIFE@numInputSlices?5?$DN?$DN?5numOutputSlice@ 00477844     foundation_win32.release:tpjob.obj
 0002:00007868       ??_C@_0CN@DIALFDOD@c?3?2nebula3?2code?2foundation?2util?1@ 00477868     foundation_win32.release:tpjob.obj
 0002:00007898       ??_7TPJob@Jobs@@6B@        00477898     foundation_win32.release:tpjob.obj
 0002:000078a0       ??_C@_0O@DEMBFOML@Jobs?3?3JobPort?$AA@ 004778a0     foundation_win32.release:jobport.obj
 0002:000078b0       ??_7JobPort@Jobs@@6B@      004778b0     foundation_win32.release:jobport.obj
 0002:000078b8       ??_C@_0BC@KDANBIIL@Base?3?3JobPortBase?$AA@ 004778b8     foundation_win32.release:jobportbase.obj
 0002:000078cc       ??_C@_0CH@LALJHCJH@?4?4?2foundation?2jobs?2base?2jobportb@ 004778cc     foundation_win32.release:jobportbase.obj
 0002:000078f4       ?MinGrowSize@?$Array@V?$Ptr@VJob@Jobs@@@@@Util@@0HB 004778f4     foundation_win32.release:jobportbase.obj
 0002:000078f8       ?MaxGrowSize@?$Array@V?$Ptr@VJob@Jobs@@@@@Util@@0HB 004778f8     foundation_win32.release:jobportbase.obj
 0002:000078fc       ??_7JobPortBase@Base@@6B@  004778fc     foundation_win32.release:jobportbase.obj
 0002:00007904       ??_C@_0CL@CHDCBDKK@c?3?2nebula3?2code?2foundation?2jobs?1@ 00477904     foundation_win32.release:tpjobport.obj
 0002:00007930       ??_C@_0BN@FIDBNDEO@0?5?$DN?$DN?5this?9?$DOcompletionCounter?$AA@ 00477930     foundation_win32.release:tpjobport.obj
 0002:00007950       ??_C@_0CM@IHIMJMKD@c?3?2nebula3?2code?2foundation?2jobs?1@ 00477950     foundation_win32.release:tpjobport.obj
 0002:0000797c       ??_C@_0BA@IECLOLFP@Jobs?3?3TPJobPort?$AA@ 0047797c     foundation_win32.release:tpjobport.obj
 0002:0000798c       ??_C@_0CD@HFKDGPIK@?4?4?2foundation?2jobs?2tp?2tpjobport?4@ 0047798c     foundation_win32.release:tpjobport.obj
 0002:000079b0       ??_C@_0BA@PPDINLBB@?$CBjobs?4IsEmpty?$CI?$CJ?$AA@ 004779b0     foundation_win32.release:tpjobport.obj
 0002:000079c0       ??_C@_0BO@IAEJHKM@this?9?$DOlastPushedJob?4isvalid?$CI?$CJ?$AA@ 004779c0     foundation_win32.release:tpjobport.obj
 0002:000079e0       ??_C@_0CD@OACPADOP@this?9?$DOelements?5?$CG?$CG?5?$CIthis?9?$DOsize?5?$DO?5@ 004779e0     foundation_win32.release:tpjobport.obj
 0002:00007a04       ??_7TPJobPort@Jobs@@6B@    00477a04     foundation_win32.release:tpjobport.obj
 0002:00007a0c       ??_C@_0CH@KLAPDODG@c?3?2nebula3?2code?2foundation?2util?1@ 00477a0c     foundation_win32.release:win32sysfunc.obj
 0002:00007a34       ??_C@_0O@FGCIKNOJ@0?5?$DN?$DN?5DataHeap?$AA@ 00477a34     foundation_win32.release:win32sysfunc.obj
 0002:00007a44       ??_C@_0BD@BPOECNJK@Util?4Blob?4DataHeap?$AA@ 00477a44     foundation_win32.release:win32sysfunc.obj
 0002:00007a58       ??_C@_0O@FPDKANJE@0?5?$CB?$DN?5DataHeap?$AA@ 00477a58     foundation_win32.release:win32sysfunc.obj
 0002:00007a68       ?MinGrowSize@?$Array@PAD@Util@@0HB 00477a68     foundation_win32.release:win32sysfunc.obj
 0002:00007a6c       ?MaxGrowSize@?$Array@PAD@Util@@0HB 00477a6c     foundation_win32.release:win32sysfunc.obj
 0002:00007a70       ?MinGrowSize@?$Array@PBD@Util@@0HB 00477a70     foundation_win32.release:win32sysfunc.obj
 0002:00007a74       ?MaxGrowSize@?$Array@PBD@Util@@0HB 00477a74     foundation_win32.release:win32sysfunc.obj
 0002:00007a78       ??_C@_0L@HGHDALHK@MainThread?$AA@ 00477a78     foundation_win32.release:win32sysfunc.obj
 0002:00007a88       ??_C@_0EO@EGNOHIDC@no?5SSE?1SSE2?5support?5on?5this?5CPU?4@ 00477a88     foundation_win32.release:win32sysfunc.obj
 0002:00007ad8       ??_C@_0BF@LECBEOGP@NEBULA3?5SYSTEM?5ERROR?$AA@ 00477ad8     foundation_win32.release:win32sysfunc.obj
 0002:00007af0       ??_C@_0BE@OEGCBAMB@Nebula3?3?3MainWindow?$AA@ 00477af0     foundation_win32.release:win32sysfunc.obj
 0002:00007b04       ??_C@_0BA@PJFNBMAI@NEBULA3?5MESSAGE?$AA@ 00477b04     foundation_win32.release:win32sysfunc.obj
 0002:00007b14       ??_C@_0DC@EKFJFGND@?4?4?2foundation?2memory?2win360?2win3@ 00477b14     foundation_win32.release:win360memoryconfig.obj
 0002:00007b48       ??_C@_0O@CBAGDPAC@0?5?$DN?$DN?5Heaps?$FLi?$FN?$AA@ 00477b48     foundation_win32.release:win360memoryconfig.obj
 0002:00007b58       ??_C@_0ED@GGCEJJJE@Invalid?5heap?5type?5in?5Memory?3?3Set@ 00477b58     foundation_win32.release:win360memoryconfig.obj
 0002:00007b9c       ??_C@_0N@JLKAGEFF@Default?5Heap?$AA@ 00477b9c     foundation_win32.release:win360memoryconfig.obj
 0002:00007bac       ??_C@_0M@FNOKPELE@Object?5Heap?$AA@ 00477bac     foundation_win32.release:win360memoryconfig.obj
 0002:00007bb8       ??_C@_0BC@GCHAMMC@Object?5Array?5Heap?$AA@ 00477bb8     foundation_win32.release:win360memoryconfig.obj
 0002:00007bcc       ??_C@_0O@CHCHHJEE@Resource?5Heap?$AA@ 00477bcc     foundation_win32.release:win360memoryconfig.obj
 0002:00007bdc       ??_C@_0N@MNODCGCL@Scratch?5Heap?$AA@ 00477bdc     foundation_win32.release:win360memoryconfig.obj
 0002:00007bec       ??_C@_0BB@FKLHLCFD@String?5Data?5Heap?$AA@ 00477bec     foundation_win32.release:win360memoryconfig.obj
 0002:00007c00       ??_C@_0BB@LNAFBOCK@Stream?5Data?5Heap?$AA@ 00477c00     foundation_win32.release:win360memoryconfig.obj
 0002:00007c14       ??_C@_0N@DJJHFFGI@Physics?5Heap?$AA@ 00477c14     foundation_win32.release:win360memoryconfig.obj
 0002:00007c24       ??_C@_08JFNKHEMA@App?5Heap?$AA@ 00477c24     foundation_win32.release:win360memoryconfig.obj
 0002:00007c30       ??_C@_0N@LMJMIJAH@Network?5Heap?$AA@ 00477c30     foundation_win32.release:win360memoryconfig.obj
 0002:00007c40       ??_C@_0BG@FBKNDLGL@Xbox360?5Graphics?5Heap?$AA@ 00477c40     foundation_win32.release:win360memoryconfig.obj
 0002:00007c58       ??_C@_0BD@KJBJPDLN@Xbox360?5Audio?5Heap?$AA@ 00477c58     foundation_win32.release:win360memoryconfig.obj
 0002:00007c6c       ??_C@_0P@MGAAIIGN@Scaleform?5Heap?$AA@ 00477c6c     foundation_win32.release:win360memoryconfig.obj
 0002:00007c80       ??_C@_0EL@MAAJOHHH@Invalid?5HeapType?5arg?5in?5Memory?3?3@ 00477c80     foundation_win32.release:win360memoryconfig.obj
 0002:00007cd0       ??_C@_0EE@FMNLPNPG@c?3?2nebula3?2code?2foundation?2threa@ 00477cd0     foundation_win32.release:console.obj
 0002:00007d14       ??_C@_0P@OKJJAII@NULL?5?$CB?$DN?5handle?$AA@ 00477d14     foundation_win32.release:console.obj
 0002:00007d24       ??_C@_0BA@KPOMOFPA@this?9?$DOsemaphore?$AA@ 00477d24     foundation_win32.release:console.obj
 0002:00007d34       ??_C@_0M@MEPMEGKB@IO?3?3Console?$AA@ 00477d34     foundation_win32.release:console.obj
 0002:00007d40       ??_C@_0BM@HFIMCIOD@?4?4?2foundation?2io?2console?4cc?$AA@ 00477d40     foundation_win32.release:console.obj
 0002:00007d5c       ??_C@_0DB@FMDPFOIJ@Thread?3?3GetMyThreadId?$CI?$CJ?5?$DN?$DN?5this?9@ 00477d5c     foundation_win32.release:console.obj
 0002:00007d90       ??_C@_0M@PAPELKKB@h?4isvalid?$CI?$CJ?$AA@ 00477d90     foundation_win32.release:console.obj
 0002:00007d9c       ??_C@_0BG@KOPLHNID@InvalidIndex?5?$CB?$DN?5index?$AA@ 00477d9c     foundation_win32.release:console.obj
 0002:00007db4       ??_7Console@IO@@6B@        00477db4     foundation_win32.release:console.obj
 0002:00007dbc       ??_C@_0DH@DHGDJLAP@c?3?2nebula3?2code?2foundation?2util?1@ 00477dbc     foundation_win32.release:stringatom.obj
 0002:00007df4       ??_C@_0DI@MBCPNNKF@c?3?2nebula3?2code?2foundation?2util?1@ 00477df4     foundation_win32.release:stringatom.obj
 0002:00007e2c       ??_C@_0BB@BHLEFDJG@Core?3?3CoreServer?$AA@ 00477e2c     foundation_win32.release:coreserver.obj
 0002:00007e40       ??_C@_07MHMENOHJ@Nebula3?$AA@ 00477e40     foundation_win32.release:coreserver.obj
 0002:00007e48       ??_C@_05BDABMLJL@home?3?$AA@ 00477e48     foundation_win32.release:coreserver.obj
 0002:00007e50       ??_C@_0CB@DAPGMNMP@?4?4?2foundation?2core?2coreserver?4cc@ 00477e50     foundation_win32.release:coreserver.obj
 0002:00007e74       ??_7CoreServer@Core@@6B@   00477e74     foundation_win32.release:coreserver.obj
 0002:00007e7c       ??_C@_0P@IHBKLMEO@path?4IsValid?$CI?$CJ?$AA@ 00477e7c     foundation_win32.release:ioserver.obj
 0002:00007e8c       ??_C@_0CE@KMAJEGHH@c?3?2nebula3?2code?2foundation?2io?1ur@ 00477e8c     foundation_win32.release:ioserver.obj
 0002:00007eb0       ??_C@_08JGMIMLOF@validUri?$AA@ 00477eb0     foundation_win32.release:ioserver.obj
 0002:00007ebc       ??_C@_0CP@BPAAKOAB@c?3?2nebula3?2code?2foundation?2io?1as@ 00477ebc     foundation_win32.release:ioserver.obj
 0002:00007eec       ??_C@_0CP@MBOEPDJB@c?3?2nebula3?2code?2foundation?2io?1sc@ 00477eec     foundation_win32.release:ioserver.obj
 0002:00007f1c       ??_C@_01KMDKNFGN@?1?$AA@   00477f1c     foundation_win32.release:ioserver.obj
 0002:00007f20       ?Key@Crc@Util@@0IB         00477f20     foundation_win32.release:ioserver.obj
 0002:00007f24       ?NumByteValues@Crc@Util@@0IB 00477f24     foundation_win32.release:ioserver.obj
 0002:00007f28       ?MinGrowSize@?$Array@VZipFileEntry@IO@@@Util@@0HB 00477f28     foundation_win32.release:ioserver.obj
 0002:00007f2c       ?MaxGrowSize@?$Array@VZipFileEntry@IO@@@Util@@0HB 00477f2c     foundation_win32.release:ioserver.obj
 0002:00007f30       ?MinGrowSize@?$Array@VZipDirEntry@IO@@@Util@@0HB 00477f30     foundation_win32.release:ioserver.obj
 0002:00007f34       ?MaxGrowSize@?$Array@VZipDirEntry@IO@@@Util@@0HB 00477f34     foundation_win32.release:ioserver.obj
 0002:00007f38       ?MinGrowSize@?$Array@V?$KeyValuePair@VStringAtom@Util@@H@Util@@@Util@@0HB 00477f38     foundation_win32.release:ioserver.obj
 0002:00007f3c       ?MaxGrowSize@?$Array@V?$KeyValuePair@VStringAtom@Util@@H@Util@@@Util@@0HB 00477f3c     foundation_win32.release:ioserver.obj
 0002:00007f40       ?MinGrowSize@?$Array@V?$KeyValuePair@VString@Util@@V?$Ptr@VArchive@IO@@@@@Util@@@Util@@0HB 00477f40     foundation_win32.release:ioserver.obj
 0002:00007f44       ?MaxGrowSize@?$Array@V?$KeyValuePair@VString@Util@@V?$Ptr@VArchive@IO@@@@@Util@@@Util@@0HB 00477f44     foundation_win32.release:ioserver.obj
 0002:00007f48       ??_C@_0DJ@GAOKFDEI@c?3?2nebula3?2code?2foundation?2io?1ar@ 00477f48     foundation_win32.release:ioserver.obj
 0002:00007f84       ??_C@_0N@JCNNDPAO@IO?3?3IoServer?$AA@ 00477f84     foundation_win32.release:ioserver.obj
 0002:00007f94       ??_C@_0BN@CAJGJLBM@?4?4?2foundation?2io?2ioserver?4cc?$AA@ 00477f94     foundation_win32.release:ioserver.obj
 0002:00007fb4       ??_C@_0BJ@DOKDHBFF@?$CBStandardArchivesMounted?$AA@ 00477fb4     foundation_win32.release:ioserver.obj
 0002:00007fd0       ??_C@_0P@IPKFOBHM@?$CBuri?4IsEmpty?$CI?$CJ?$AA@ 00477fd0     foundation_win32.release:ioserver.obj
 0002:00007fe0       ??_C@_0EA@FEMGEELB@SchemeRegistry?3?3Instance?$CI?$CJ?9?$DOIsUr@ 00477fe0     foundation_win32.release:ioserver.obj
 0002:00008020       ??_C@_0P@NGOMFCOI@root?3export_?$CFs?$AA@ 00478020     foundation_win32.release:ioserver.obj
 0002:00008030       ??_C@_0BI@GBAIGLCI@StandardArchivesMounted?$AA@ 00478030     foundation_win32.release:ioserver.obj
 0002:00008048       ??_C@_04DAMGJPCA@file?$AA@ 00478048     foundation_win32.release:ioserver.obj
 0002:00008050       ??_C@_0BH@EECDHOIA@uri?4Scheme?$CI?$CJ?5?$DN?$DN?5?$CCfile?$CC?$AA@ 00478050     foundation_win32.release:ioserver.obj
 0002:00008068       ??_C@_03GGOFJGCG@?1?2?3?$AA@ 00478068     foundation_win32.release:ioserver.obj
 0002:0000806c       ??_C@_0DK@BNFLEOAO@IO?3?3IoServer?3?3CopyFile?$CI?$CJ?3?5could?5@ 0047806c     foundation_win32.release:ioserver.obj
 0002:000080a8       ??_C@_0DK@FDADOHLL@IO?3?3IoServer?3?3CopyFile?$CI?$CJ?3?5could?5@ 004780a8     foundation_win32.release:ioserver.obj
 0002:000080e4       ??_C@_0DK@PLKFPCKG@IO?3?3IoServer?3?3ComputeFileCrc?$CI?$CJ?3?5@ 004780e4     foundation_win32.release:ioserver.obj
 0002:00008120       ??_C@_0BC@NNKGBHDK@pattern?4IsValid?$CI?$CJ?$AA@ 00478120     foundation_win32.release:ioserver.obj
 0002:00008134       ??_C@_07GDLIKBJC@num?5?$DO?50?$AA@ 00478134     foundation_win32.release:ioserver.obj
 0002:0000813c       ??_7IoServer@IO@@6B@       0047813c     foundation_win32.release:ioserver.obj
 0002:00008144       ??_C@_0CJ@NCINIOGH@c?3?2nebula3?2code?2foundation?2io?1io@ 00478144     foundation_win32.release:logfileconsolehandler.obj
 0002:00008170       ??_C@_0CN@JFMHDALH@c?3?2nebula3?2code?2foundation?2core?1@ 00478170     foundation_win32.release:logfileconsolehandler.obj
 0002:000081a0       ??_C@_0BK@KMIMNLLI@IO?3?3LogFileConsoleHandler?$AA@ 004781a0     foundation_win32.release:logfileconsolehandler.obj
 0002:000081bc       ??_C@_0N@NKFAAPMM@bin?3logfiles?$AA@ 004781bc     foundation_win32.release:logfileconsolehandler.obj
 0002:000081cc       ??_C@_0CO@DNJEELLC@?$HLYEAR?$HN_?$HLMONTH?$HN_?$HLDAY?$HN_?$HLHOUR?$HN_?$HLMIN@ 004781cc     foundation_win32.release:logfileconsolehandler.obj
 0002:000081fc       ??_C@_0BH@IFLJGJCM@bin?3logfiles?1?$CFs_?$CFs?4txt?$AA@ 004781fc     foundation_win32.release:logfileconsolehandler.obj
 0002:00008214       ??_C@_0CK@OGNPGLEF@?4?4?2foundation?2io?2logfileconsoleh@ 00478214     foundation_win32.release:logfileconsolehandler.obj
 0002:00008240       ??_C@_08DHMHDIOB@?$FLERROR?$FN?5?$AA@ 00478240     foundation_win32.release:logfileconsolehandler.obj
 0002:0000824c       ??_C@_0L@GGEGCANA@?$FLWARNING?$FN?5?$AA@ 0047824c     foundation_win32.release:logfileconsolehandler.obj
 0002:00008258       ??_C@_0M@LNAFHJ@?$FLDEBUGOUT?$FN?5?$AA@ 00478258     foundation_win32.release:logfileconsolehandler.obj
 0002:00008264       ??_7LogFileConsoleHandler@IO@@6B@ 00478264     foundation_win32.release:logfileconsolehandler.obj
 0002:00008294       ??_C@_0BL@LNDCKHOK@?4?4?2foundation?2core?2rtti?4cc?$AA@ 00478294     foundation_win32.release:rtti.obj
 0002:000082b0       ??_C@_0P@LLDBGGLM@0?5?$CB?$DN?5className?$AA@ 004782b0     foundation_win32.release:rtti.obj
 0002:000082c0       ??_C@_0BE@PFKLFMLD@parentClass?5?$CB?$DN?5this?$AA@ 004782c0     foundation_win32.release:rtti.obj
 0002:000082d8       ??_C@_0EC@GFCMFCKH@Rtti?3?3Create?$CI?$CJ?3?5Trying?5to?5create@ 004782d8     foundation_win32.release:rtti.obj
 0002:0000831c       ??_C@_0CJ@LDPDCBJJ@c?3?2nebula3?2code?2foundation?2util?1@ 0047831c     foundation_win32.release:factory.obj
 0002:00008348       ??_C@_0M@KPOOAIDJ@f?4IsValid?$CI?$CJ?$AA@ 00478348     foundation_win32.release:factory.obj
 0002:00008354       ??_C@_04MPKDFPPK@xzyw?$AA@ 00478354     foundation_win32.release:factory.obj
 0002:0000835c       ??_C@_0BO@DJFJGNAC@?4?4?2foundation?2core?2factory?4cc?$AA@ 0047835c     foundation_win32.release:factory.obj
 0002:0000837c       ??_C@_09INDLKAHI@0?5?$CB?$DN?5rtti?$AA@ 0047837c     foundation_win32.release:factory.obj
 0002:00008388       ??_C@_0CN@FJFLAEHH@Class?5name?5?8?$CFs?8?5has?5already?5been@ 00478388     foundation_win32.release:factory.obj
 0002:000083b8       ??_C@_0DK@DFNCFKJA@Class?5fourcc?5?8?$CFs?8?5?$CIname?3?5?$CFs?$CJ?5has@ 004783b8     foundation_win32.release:factory.obj
 0002:000083f4       ??_C@_0BE@BBAEOLHN@className?4IsValid?$CI?$CJ?$AA@ 004783f4     foundation_win32.release:factory.obj
 0002:00008408       ??_C@_0BB@MAKBHHBC@fourCC?4IsValid?$CI?$CJ?$AA@ 00478408     foundation_win32.release:factory.obj
 0002:0000841c       ??_C@_0BN@OBELMPBF@this?9?$DOClassExists?$CIclassName?$CJ?$AA@ 0047841c     foundation_win32.release:factory.obj
 0002:0000843c       ??_C@_0BG@BCFKNJPL@classFourCC?4IsValid?$CI?$CJ?$AA@ 0047843c     foundation_win32.release:factory.obj
 0002:00008454       ??_C@_0BP@OAPAMIOH@this?9?$DOClassExists?$CIclassFourCC?$CJ?$AA@ 00478454     foundation_win32.release:factory.obj
 0002:00008474       ??_C@_0CL@BNBMBDPD@Factory?3?3Create?$CI?8?$CFs?8?$CJ?3?5unknown?5c@ 00478474     foundation_win32.release:factory.obj
 0002:000084a0       ??_C@_0DC@PPEDOFIN@Factory?3?3Create?$CI?8?$CFs?8?$CJ?3?5unknown?5c@ 004784a0     foundation_win32.release:factory.obj
 0002:000084d4       ??_C@_0CM@CKKKLNIB@c?3?2nebula3?2code?2foundation?2util?1@ 004784d4     foundation_win32.release:factory.obj
 0002:00008500       ??_C@_0BF@GCHCFOFO@0?5?$CB?$DN?5numHashElements?$AA@ 00478500     foundation_win32.release:factory.obj
 0002:00008518       ??_C@_0CB@JHMLCKOJ@InvalidIndex?5?$CB?$DN?5hashElementIndex@ 00478518     foundation_win32.release:factory.obj
 0002:0000853c       ??_C@_0CC@PALPEJMB@InvalidIndex?5?$CB?$DN?5keyValuePairInde@ 0047853c     foundation_win32.release:factory.obj
 0002:00008560       ??_C@_0BE@LCKAMAEE@?$CBthis?9?$DOinBulkInsert?$AA@ 00478560     foundation_win32.release:factory.obj
 0002:00008574       ??_C@_0BL@JLGDMHKO@?$CBthis?9?$DOContains?$CIkvp?4Key?$CI?$CJ?$CJ?$AA@ 00478574     foundation_win32.release:factory.obj
 0002:00008590       ??_C@_0BE@EPPEHBNF@Base?3?3JobSystemBase?$AA@ 00478590     foundation_win32.release:jobsystembase.obj
 0002:000085a4       ??_C@_0CJ@GBPEHCHI@?4?4?2foundation?2jobs?2base?2jobsyste@ 004785a4     foundation_win32.release:jobsystembase.obj
 0002:000085d0       ??_7JobSystemBase@Base@@6B@ 004785d0     foundation_win32.release:jobsystembase.obj
 0002:000085d8       ??_C@_0DL@LHDDGCA@c?3?2nebula3?2code?2foundation?2threa@ 004785d8     foundation_win32.release:tpjobthreadpool.obj
 0002:00008614       ??_C@_0M@KJOCHOMH@n?4IsValid?$CI?$CJ?$AA@ 00478614     foundation_win32.release:tpjobthreadpool.obj
 0002:00008620       ??_C@_0CJ@MHNMNAMJ@?4?4?2foundation?2jobs?2tp?2tpjobthrea@ 00478620     foundation_win32.release:tpjobthreadpool.obj
 0002:0000864c       ??_C@_0M@OBIPMKAD@JobWorker?$CFd?$AA@ 0047864c     foundation_win32.release:tpjobthreadpool.obj
 0002:00008658       ??_C@_0BA@NBEFEIAO@0?5?$CB?$DN?5firstSlice?$AA@ 00478658     foundation_win32.release:tpjobthreadpool.obj
 0002:00008668       ??_C@_0O@JOABPNDE@numSlices?5?$DO?50?$AA@ 00478668     foundation_win32.release:tpjobthreadpool.obj
 0002:00008678       ??_C@_0BB@NOEPGKJK@Core?3?3RefCounted?$AA@ 00478678     foundation_win32.release:refcounted.obj
 0002:0000868c       ??_C@_0CB@NEMGBOEL@?4?4?2foundation?2core?2refcounted?4cc@ 0047868c     foundation_win32.release:refcounted.obj
 0002:000086b0       ??_C@_0BE@CLOAMCCB@0?5?$DN?$DN?5this?9?$DOrefCount?$AA@ 004786b0     foundation_win32.release:refcounted.obj
 0002:000086c4       ??_C@_0O@IEGEBJKA@Base?3?3JobBase?$AA@ 004786c4     foundation_win32.release:jobbase.obj
 0002:000086d4       ??_C@_0CD@CKKLHJMD@?4?4?2foundation?2jobs?2base?2jobbase?4@ 004786d4     foundation_win32.release:jobbase.obj
 0002:000086f8       ??_C@_0BJ@GDGKBNMB@0?5?$DN?$DN?5this?9?$DOprivateBuffer?$AA@ 004786f8     foundation_win32.release:jobbase.obj
 0002:00008714       ??_7JobBase@Base@@6B@      00478714     foundation_win32.release:jobbase.obj
 0002:0000871c       ??_C@_0CE@MJJNNJLM@?4?4?2foundation?2jobs?2tp?2tpjobslice@ 0047871c     foundation_win32.release:tpjobslice.obj
 0002:00008740       ??_C@_0P@IKGFOFFF@0?5?$DN?$DN?5this?9?$DOjob?$AA@ 00478740     foundation_win32.release:tpjobslice.obj
 0002:00008750       ??_C@_09MLAEOCBC@0?5?$CB?$DN?5job_?$AA@ 00478750     foundation_win32.release:tpjobslice.obj
 0002:0000875c       ??_C@_0BL@JDNDNPJB@?4?4?2foundation?2util?2blob?4cc?$AA@ 0047875c     foundation_win32.release:blob.obj
 0002:00008778       ??_C@_0P@MBMNBDEP@0?5?$CB?$DN?5this?9?$DOptr?$AA@ 00478778     foundation_win32.release:blob.obj
 0002:00008788       ??_C@_0N@DHIIFFJH@0?5?$CB?$DN?5rhs?4ptr?$AA@ 00478788     foundation_win32.release:blob.obj
 0002:00008798       ??_C@_0N@CFANLGAN@0?5?$CB?$DN?5success?$AA@ 00478798     foundation_win32.release:win360heap.obj
 0002:000087a8       ??_C@_0CK@CFGCFHEK@?4?4?2foundation?2memory?2win360?2win3@ 004787a8     foundation_win32.release:win360heap.obj
 0002:000087d4       ??_C@_0O@HMFEGNAJ@0?5?$CB?$DN?5heapName?$AA@ 004787d4     foundation_win32.release:win360heap.obj
 0002:000087e4       ??_C@_0BA@GPMIBJHE@0?5?$CB?$DN?5this?9?$DOheap?$AA@ 004787e4     foundation_win32.release:win360heap.obj
 0002:000087f4       ??_C@_0BF@IHFKCJF@Win360?3?3Win360Thread?$AA@ 004787f4     foundation_win32.release:win360thread.obj
 0002:0000880c       ??_C@_0CP@PMHDAPCP@?4?4?2foundation?2threading?2win360?2w@ 0047880c     foundation_win32.release:win360thread.obj
 0002:0000883c       ??_C@_0BD@PJJJHNGI@?$CBthis?9?$DOIsRunning?$CI?$CJ?$AA@ 0047883c     foundation_win32.release:win360thread.obj
 0002:00008850       ??_C@_0BI@FGOFOLED@0?5?$DN?$DN?5this?9?$DOthreadHandle?$AA@ 00478850     foundation_win32.release:win360thread.obj
 0002:00008868       ??_C@_0BL@KMMDDLHN@NULL?5?$CB?$DN?5this?9?$DOthreadHandle?$AA@ 00478868     foundation_win32.release:win360thread.obj
 0002:00008884       ??_C@_0BC@LFOMINAG@this?9?$DOIsRunning?$CI?$CJ?$AA@ 00478884     foundation_win32.release:win360thread.obj
 0002:00008898       ??_C@_0BI@BKPABEAC@0?5?$CB?$DN?5this?9?$DOthreadHandle?$AA@ 00478898     foundation_win32.release:win360thread.obj
 0002:000088b0       ??_C@_09MNFDFHDF@0?5?$CB?$DN?5self?$AA@ 004788b0     foundation_win32.release:win360thread.obj
 0002:000088bc       ??_7Win360Thread@Win360@@6B@ 004788bc     foundation_win32.release:win360thread.obj
 0002:000088cc       ??_C@_0BF@CAEDNPCP@Win360?3?3Win360Socket?$AA@ 004788cc     foundation_win32.release:win360socket.obj
 0002:000088e4       ??_C@_0CJ@EMMGCAGF@?4?4?2foundation?2net?2win360?2win360s@ 004788e4     foundation_win32.release:win360socket.obj
 0002:00008910       ??_C@_0BD@FDLGBPFC@NetworkInitialized?$AA@ 00478910     foundation_win32.release:win360socket.obj
 0002:00008924       ??_C@_0BE@PJPACGPN@?$CBNetworkInitialized?$AA@ 00478924     foundation_win32.release:win360socket.obj
 0002:00008938       ??_C@_0BP@PCLJPGDC@WSAStartup?$CI?$CJ?5failed?5with?5?8?$CFs?8?$CB?$AA@ 00478938     foundation_win32.release:win360socket.obj
 0002:00008958       ??_C@_0BF@KNPDIJJA@Invalid?5socket?5type?$CB?$AA@ 00478958     foundation_win32.release:win360socket.obj
 0002:00008970       ??_C@_0BE@LDHIDEEA@INVALID_SOCKET?5?$CB?$DN?5s?$AA@ 00478970     foundation_win32.release:win360socket.obj
 0002:00008984       ??_C@_0DF@HHCFPGCN@Win360Socket?3?3Close?$CI?$CJ?3?5shutdown?$CI@ 00478984     foundation_win32.release:win360socket.obj
 0002:000089bc       ??_C@_0DI@LMMENDCA@Win360Socket?3?3Close?$CI?$CJ?3?5closesock@ 004789bc     foundation_win32.release:win360socket.obj
 0002:000089f4       ??_C@_0DP@IBFAEMLI@Win360Socket?3?3SetBoolOption?$CI?$CJ?3?5s@ 004789f4     foundation_win32.release:win360socket.obj
 0002:00008a34       ??_C@_0DP@CFMPFCIJ@Win360Socket?3?3GetBoolOption?$CI?$CJ?3?5g@ 00478a34     foundation_win32.release:win360socket.obj
 0002:00008a74       ??_C@_0BN@EHIGFCCH@sizeof?$CIoptVal?$CJ?5?$DN?$DN?5optValSize?$AA@ 00478a74     foundation_win32.release:win360socket.obj
 0002:00008a94       ??_C@_0DO@CMJHKPOO@Win360Socket?3?3SetIntOption?$CI?$CJ?3?5se@ 00478a94     foundation_win32.release:win360socket.obj
 0002:00008ad4       ??_C@_0DO@NLHPKJBP@Win360Socket?3?3GetIntOption?$CI?$CJ?3?5ge@ 00478ad4     foundation_win32.release:win360socket.obj
 0002:00008b14       ??_C@_0DO@BMLJDOIJ@Win360Socket?3?3SetBlocking?$CI?$CJ?3?5ioc@ 00478b14     foundation_win32.release:win360socket.obj
 0002:00008b54       ??_C@_0BB@MGLEMMHB@?$CBthis?9?$DOIsBound?$CI?$CJ?$AA@ 00478b54     foundation_win32.release:win360socket.obj
 0002:00008b68       ??_C@_0DA@DNNFPCKA@Win360Socket?3?3Bind?$CI?$CJ?3?5bind?$CI?$CJ?5fai@ 00478b68     foundation_win32.release:win360socket.obj
 0002:00008b98       ??_C@_0BA@EKOFIPCA@this?9?$DOIsBound?$CI?$CJ?$AA@ 00478b98     foundation_win32.release:win360socket.obj
 0002:00008ba8       ??_C@_0DE@HPKGIFAM@Win360Socket?3?3Listen?$CI?$CJ?3?5listen?$CI?$CJ@ 00478ba8     foundation_win32.release:win360socket.obj
 0002:00008bdc       ??_C@_0DE@LJHBLHK@Win360Socket?3?3Accept?$CI?$CJ?3?5accept?$CI?$CJ@ 00478bdc     foundation_win32.release:win360socket.obj
 0002:00008c10       ??_C@_0DG@PFJLNDLD@Win360Socket?3?3Connect?$CI?$CJ?3?5connect@ 00478c10     foundation_win32.release:win360socket.obj
 0002:00008c48       ??_C@_0DJ@IHALGLPL@Win360Socket?3?3IsConnected?$CI?$CJ?3?5sel@ 00478c48     foundation_win32.release:win360socket.obj
 0002:00008c84       ??_C@_0CP@KAPCMLKM@Win360Socket?3?3Send?$CI?$CJ?3?5send?$CI?$CJ?5fai@ 00478c84     foundation_win32.release:win360socket.obj
 0002:00008cb4       ??_C@_0DJ@FECEEJHG@Win360Socket?3?3HasRecvData?$CI?$CJ?3?5sel@ 00478cb4     foundation_win32.release:win360socket.obj
 0002:00008cf0       ??_C@_0CP@GFNALHPO@Win360Socket?3?3Recv?$CI?$CJ?3?5recv?$CI?$CJ?5fai@ 00478cf0     foundation_win32.release:win360socket.obj
 0002:00008d20       ??_C@_0CG@JIJPEHJN@Win360Socket?3?3SendTo?$CI?$CJ?3?5IMPLEMEN@ 00478d20     foundation_win32.release:win360socket.obj
 0002:00008d48       ??_C@_0CI@OHPGCLCM@Win360Socket?3?3RecvFrom?$CI?$CJ?3?5IMPLEM@ 00478d48     foundation_win32.release:win360socket.obj
 0002:00008d70       ??_C@_09MFOLKCNJ@No?5error?4?$AA@ 00478d70     foundation_win32.release:win360socket.obj
 0002:00008d7c       ??_C@_0DC@LIBAAKPF@Unknown?5error?5?$CInot?5mapped?5by?5Win@ 00478d7c     foundation_win32.release:win360socket.obj
 0002:00008db0       ??_C@_0BL@MNFCMOJL@Interrupted?5function?5call?4?$AA@ 00478db0     foundation_win32.release:win360socket.obj
 0002:00008dcc       ??_C@_0BD@FKJFEME@Permission?5denied?4?$AA@ 00478dcc     foundation_win32.release:win360socket.obj
 0002:00008de0       ??_C@_0N@GCLPIMGA@Bad?5address?4?$AA@ 00478de0     foundation_win32.release:win360socket.obj
 0002:00008df0       ??_C@_0BC@PPKPNKFJ@Invalid?5argument?4?$AA@ 00478df0     foundation_win32.release:win360socket.obj
 0002:00008e04       ??_C@_0BP@GDMEHPCG@Too?5many?5open?5files?5?$CIsockets?$CJ?4?$AA@ 00478e04     foundation_win32.release:win360socket.obj
 0002:00008e24       ??_C@_0BH@HILHEDJB@Operation?5would?5block?4?$AA@ 00478e24     foundation_win32.release:win360socket.obj
 0002:00008e3c       ??_C@_0BL@NJLLEBOH@Operation?5now?5in?5progress?4?$AA@ 00478e3c     foundation_win32.release:win360socket.obj
 0002:00008e58       ??_C@_0BP@MBKBMKHO@Operation?5already?5in?5progress?4?$AA@ 00478e58     foundation_win32.release:win360socket.obj
 0002:00008e78       ??_C@_0CA@CIBMEFJP@Socket?5operation?5on?5non?9socket?4?$AA@ 00478e78     foundation_win32.release:win360socket.obj
 0002:00008e98       ??_C@_0BN@HFCIEIME@Destination?5address?5required?$AA@ 00478e98     foundation_win32.release:win360socket.obj
 0002:00008eb8       ??_C@_0BC@KAAFDOAL@Message?5too?5long?4?$AA@ 00478eb8     foundation_win32.release:win360socket.obj
 0002:00008ecc       ??_C@_0CA@MJJGEIL@Protocol?5wrong?5type?5for?5socket?4?$AA@ 00478ecc     foundation_win32.release:win360socket.obj
 0002:00008eec       ??_C@_0BF@IHBONONG@Bad?5protocal?5option?4?$AA@ 00478eec     foundation_win32.release:win360socket.obj
 0002:00008f04       ??_C@_0BI@HCEGKLDD@Protocol?5not?5supported?4?$AA@ 00478f04     foundation_win32.release:win360socket.obj
 0002:00008f1c       ??_C@_0BL@IBGJAAEH@Socket?5type?5not?5supported?4?$AA@ 00478f1c     foundation_win32.release:win360socket.obj
 0002:00008f38       ??_C@_0BJ@OEEMOEE@Operation?5not?5supported?4?$AA@ 00478f38     foundation_win32.release:win360socket.obj
 0002:00008f54       ??_C@_0BP@EJPELDFL@Protocol?5family?5not?5supported?4?$AA@ 00478f54     foundation_win32.release:win360socket.obj
 0002:00008f74       ??_C@_0DB@BMBDNMEG@Address?5family?5not?5supported?5by?5@ 00478f74     foundation_win32.release:win360socket.obj
 0002:00008fa8       ??_C@_0BI@LBNMNFCL@Address?5already?5in?5use?4?$AA@ 00478fa8     foundation_win32.release:win360socket.obj
 0002:00008fc0       ??_C@_0CB@BKNHHCEP@Cannot?5assign?5requested?5address?4@ 00478fc0     foundation_win32.release:win360socket.obj
 0002:00008fe4       ??_C@_0BB@JNLBCFLE@Network?5is?5down?4?$AA@ 00478fe4     foundation_win32.release:win360socket.obj
 0002:00008ff8       ??_C@_0BI@GJPCFKOM@Network?5is?5unreachable?4?$AA@ 00478ff8     foundation_win32.release:win360socket.obj
 0002:00009010       ??_C@_0CF@EAAKKOEF@Network?5dropped?5connection?5on?5re@ 00479010     foundation_win32.release:win360socket.obj
 0002:00009038       ??_C@_0CC@FDGMNFNN@Software?5caused?5connection?5abort@ 00479038     foundation_win32.release:win360socket.obj
 0002:0000905c       ??_C@_0BK@NKOFGCPK@Connection?5reset?5by?5peer?4?$AA@ 0047905c     foundation_win32.release:win360socket.obj
 0002:00009078       ??_C@_0BL@HNDJEPNA@No?5buffer?5space?5available?4?$AA@ 00479078     foundation_win32.release:win360socket.obj
 0002:00009094       ??_C@_0BN@NKJOIDAP@Socket?5is?5already?5connected?4?$AA@ 00479094     foundation_win32.release:win360socket.obj
 0002:000090b4       ??_C@_0BJ@ICFPCMKN@Socket?5is?5not?5connected?4?$AA@ 004790b4     foundation_win32.release:win360socket.obj
 0002:000090d0       ??_C@_0CD@DDOPECAA@Cannot?5send?5after?5socket?5shutdow@ 004790d0     foundation_win32.release:win360socket.obj
 0002:000090f4       ??_C@_0BG@FJOOPMBM@Connection?5timed?5out?4?$AA@ 004790f4     foundation_win32.release:win360socket.obj
 0002:0000910c       ??_C@_0BE@PAAMHJLG@Connection?5refused?4?$AA@ 0047910c     foundation_win32.release:win360socket.obj
 0002:00009120       ??_C@_0O@NFGFDNC@Host?5is?5down?4?$AA@ 00479120     foundation_win32.release:win360socket.obj
 0002:00009130       ??_C@_0BC@LGEPODIC@No?5route?5to?5host?4?$AA@ 00479130     foundation_win32.release:win360socket.obj
 0002:00009144       ??_C@_0BE@LPAHEAJN@Too?5many?5processes?4?$AA@ 00479144     foundation_win32.release:win360socket.obj
 0002:00009158       ??_C@_0CC@LAPHNDHH@Network?5subsystem?5is?5unavailable@ 00479158     foundation_win32.release:win360socket.obj
 0002:0000917c       ??_C@_0CC@PPLEHHBE@Winsock?4dll?5version?5out?5of?5range@ 0047917c     foundation_win32.release:win360socket.obj
 0002:000091a0       ??_C@_0CJ@IDCKMOHB@Successful?5WSAStartup?5not?5yet?5pe@ 004791a0     foundation_win32.release:win360socket.obj
 0002:000091cc       ??_C@_0BP@LJDBFHGM@Graceful?5shutdown?5in?5progress?4?$AA@ 004791cc     foundation_win32.release:win360socket.obj
 0002:000091ec       ??_C@_0BG@DPCOFCIG@Class?5type?5not?5found?4?$AA@ 004791ec     foundation_win32.release:win360socket.obj
 0002:00009204       ??_C@_0BA@GFEMFDFG@Host?5not?5found?4?$AA@ 00479204     foundation_win32.release:win360socket.obj
 0002:00009214       ??_C@_0CB@BHFFMGGM@Nonauthoritative?5host?5not?5found?4@ 00479214     foundation_win32.release:win360socket.obj
 0002:00009238       ??_C@_0CA@MAHIFNBD@This?5is?5a?5nonrecoverable?5error?4?$AA@ 00479238     foundation_win32.release:win360socket.obj
 0002:00009258       ??_C@_0CO@JIKLALMA@Valid?5name?0?5no?5data?5record?5of?5re@ 00479258     foundation_win32.release:win360socket.obj
 0002:00009288       ??_C@_0DF@LFBAJAON@Win360Socket?3?3ErrorAsString?$CI?$CJ?3?5u@ 00479288     foundation_win32.release:win360socket.obj
 0002:000092c0       ??_7Win360Socket@Win360@@6B@ 004792c0     foundation_win32.release:win360socket.obj
 0002:000092c8       ??_C@_0BO@BOEMEOMC@?$CF04d?9?$CF02d?9?$CF02d_?$CF02d?9?$CF02d?9?$CF02d?$AA@ 004792c8     foundation_win32.release:win32minidump.obj
 0002:000092e8       ??_C@_0M@DKJCMOIE@?$CFs?$CFs_?$CFs?4dmp?$AA@ 004792e8     foundation_win32.release:win32minidump.obj
 0002:000092f4       ??_C@_0CM@PFLFHPFG@?4?4?2foundation?2util?2globalstringa@ 004792f4     foundation_win32.release:globalstringatomtable.obj
 0002:00009320       ??_C@_0CL@JONGJMFE@?4?4?2foundation?2util?2localstringat@ 00479320     foundation_win32.release:localstringatomtable.obj
 0002:0000934c       ??_7ExitHandler@Core@@6B@  0047934c     foundation_win32.release:exithandler.obj
 0002:00009354       ??_C@_0BL@JCDCJCAD@Win32?3?3Win32ConsoleHandler?$AA@ 00479354     foundation_win32.release:win32consolehandler.obj
 0002:00009370       ??_C@_0CO@FFJPCLLL@?4?4?2foundation?2io?2win32?2win32cons@ 00479370     foundation_win32.release:win32consolehandler.obj
 0002:000093a0       ??_C@_0CL@BNEANLIA@INVALID_HANDLE_VALUE?5?$CB?$DN?5this?9?$DOst@ 004793a0     foundation_win32.release:win32consolehandler.obj
 0002:000093cc       ??_C@_0CK@OFIECDKM@INVALID_HANDLE_VALUE?5?$CB?$DN?5this?9?$DOst@ 004793cc     foundation_win32.release:win32consolehandler.obj
 0002:000093f8       ??_C@_0CL@KIGMCPAH@INVALID_HANDLE_VALUE?5?$CB?$DN?5this?9?$DOst@ 004793f8     foundation_win32.release:win32consolehandler.obj
 0002:00009424       ??_C@_03BBKEAIF@?$DP?$DP?$DP?$AA@ 00479424     foundation_win32.release:win32consolehandler.obj
 0002:00009428       ??_C@_04KGFMLCPK@Main?$AA@ 00479428     foundation_win32.release:win32consolehandler.obj
 0002:00009430       ??_C@_0DD@LGGPGMPP@?$CK?$CK?$CK?5ERROR?5?$CK?$CK?$CK?6Application?3?5?$CFs?6Th@ 00479430     foundation_win32.release:win32consolehandler.obj
 0002:00009464       ??_C@_02LIIHNNHG@?6?$AN?$AA@ 00479464     foundation_win32.release:win32consolehandler.obj
 0002:00009468       ??_7Win32ConsoleHandler@Win32@@6B@ 00479468     foundation_win32.release:win32consolehandler.obj
 0002:00009498       ??_C@_0BI@PAIGFHEM@?4?4?2foundation?2io?2uri?4cc?$AA@ 00479498     foundation_win32.release:uri.obj
 0002:000094b0       ??_C@_0BE@FBICPNAD@portIndex?5?$DO?5atIndex?$AA@ 004794b0     foundation_win32.release:uri.obj
 0002:000094c4       ??_C@_0BL@IABNPJLE@queryIndex?5?$DO?5fragmentIndex?$AA@ 004794c4     foundation_win32.release:uri.obj
 0002:000094e0       ??_C@_0BB@IDAAEFJD@?$CBthis?9?$DOIsEmpty?$CI?$CJ?$AA@ 004794e0     foundation_win32.release:uri.obj
 0002:000094f4       ??_C@_03GACAABJG@?3?1?1?$AA@ 004794f4     foundation_win32.release:uri.obj
 0002:000094f8       ??_C@_01EOFPKCAF@?$EA?$AA@ 004794f8     foundation_win32.release:uri.obj
 0002:000094fc       ??_C@_01JLIPDDHJ@?3?$AA@   004794fc     foundation_win32.release:uri.obj
 0002:00009500       ??_C@_01IPJKGB@?$CD?$AA@   00479500     foundation_win32.release:uri.obj
 0002:00009504       ??_C@_01OGPIMHDM@?$DP?$AA@ 00479504     foundation_win32.release:uri.obj
 0002:00009508       ??_C@_02CBLDBPFN@?1?1?$AA@ 00479508     foundation_win32.release:uri.obj
 0002:0000950c       ??_C@_0BI@HLKDFCOG@pathComponent?4IsValid?$CI?$CJ?$AA@ 0047950c     foundation_win32.release:uri.obj
 0002:00009524       ??_C@_01HNPIGOCE@?$CG?$AA@ 00479524     foundation_win32.release:uri.obj
 0002:00009528       ??_C@_01NEMOKFLO@?$DN?$AA@ 00479528     foundation_win32.release:uri.obj
 0002:0000952c       ??_C@_0CH@KEGKFJEN@c?3?2nebula3?2code?2foundation?2io?1as@ 0047952c     foundation_win32.release:assignregistry.obj
 0002:00009554       ??_C@_0BI@MMLOIDDO@this?9?$DOkeyData?4IsValid?$CI?$CJ?$AA@ 00479554     foundation_win32.release:assignregistry.obj
 0002:0000956c       ??_C@_0BD@EDNDOHFP@IO?3?3AssignRegistry?$AA@ 0047956c     foundation_win32.release:assignregistry.obj
 0002:00009580       ??_C@_0CD@DEIIPALD@?4?4?2foundation?2io?2assignregistry?4@ 00479580     foundation_win32.release:assignregistry.obj
 0002:000095a4       ??_C@_04KLFPBEKK@home?$AA@ 004795a4     foundation_win32.release:assignregistry.obj
 0002:000095ac       ??_C@_03PDOMKJON@bin?$AA@  004795ac     foundation_win32.release:assignregistry.obj
 0002:000095b0       ??_C@_04FGEHGIFJ@temp?$AA@ 004795b0     foundation_win32.release:assignregistry.obj
 0002:000095b8       ??_C@_04CCHAHKJA@user?$AA@ 004795b8     foundation_win32.release:assignregistry.obj
 0002:000095c0       ??_C@_07KBOAIGNI@appdata?$AA@ 004795c0     foundation_win32.release:assignregistry.obj
 0002:000095c8       ??_C@_08CLLKOMAI@programs?$AA@ 004795c8     foundation_win32.release:assignregistry.obj
 0002:000095d4       ??_C@_04NBFCGMPH@root?$AA@ 004795d4     foundation_win32.release:assignregistry.obj
 0002:000095dc       ??_C@_0BC@PNHCLJBM@root?3export_win32?$AA@ 004795dc     foundation_win32.release:assignregistry.obj
 0002:000095f0       ??_C@_06NKNNMLDJ@export?$AA@ 004795f0     foundation_win32.release:assignregistry.obj
 0002:000095f8       ??_C@_0O@NCODHGJH@export?3meshes?$AA@ 004795f8     foundation_win32.release:assignregistry.obj
 0002:00009608       ??_C@_03OMGEDIJL@msh?$AA@  00479608     foundation_win32.release:assignregistry.obj
 0002:0000960c       ??_C@_0N@CBKHLAN@export?3anims?$AA@ 0047960c     foundation_win32.release:assignregistry.obj
 0002:0000961c       ??_C@_03KLFHIGEB@ani?$AA@  0047961c     foundation_win32.release:assignregistry.obj
 0002:00009620       ??_C@_0M@JGCMMHEM@export?3data?$AA@ 00479620     foundation_win32.release:assignregistry.obj
 0002:0000962c       ??_C@_04PJOLNDGD@data?$AA@ 0047962c     foundation_win32.release:assignregistry.obj
 0002:00009634       ??_C@_0N@LEOHEBAG@export?3video?$AA@ 00479634     foundation_win32.release:assignregistry.obj
 0002:00009644       ??_C@_05BPFJLLEL@video?$AA@ 00479644     foundation_win32.release:assignregistry.obj
 0002:0000964c       ??_C@_0BB@DOJMKABN@export?3sequences?$AA@ 0047964c     foundation_win32.release:assignregistry.obj
 0002:00009660       ??_C@_03NPAJGOON@seq?$AA@  00479660     foundation_win32.release:assignregistry.obj
 0002:00009664       ??_C@_0N@GDOPAMC@export?3audio?$AA@ 00479664     foundation_win32.release:assignregistry.obj
 0002:00009674       ??_C@_06DJAMKFID@stream?$AA@ 00479674     foundation_win32.release:assignregistry.obj
 0002:0000967c       ??_C@_0P@OIGBKJNL@export?3shaders?$AA@ 0047967c     foundation_win32.release:assignregistry.obj
 0002:0000968c       ??_C@_03OAGEBLKK@shd?$AA@  0047968c     foundation_win32.release:assignregistry.obj
 0002:00009690       ??_C@_0BA@GDEEKLBO@export?3textures?$AA@ 00479690     foundation_win32.release:assignregistry.obj
 0002:000096a0       ??_C@_03JDBMONBN@tex?$AA@  004796a0     foundation_win32.release:assignregistry.obj
 0002:000096a4       ??_C@_0N@GDCDKMAO@export?3frame?$AA@ 004796a4     foundation_win32.release:assignregistry.obj
 0002:000096b4       ??_C@_05MIJNFGED@frame?$AA@ 004796b4     foundation_win32.release:assignregistry.obj
 0002:000096bc       ??_C@_0O@FMADPNDB@export?3models?$AA@ 004796bc     foundation_win32.release:assignregistry.obj
 0002:000096cc       ??_C@_03JBGBEIGK@mdl?$AA@  004796cc     foundation_win32.release:assignregistry.obj
 0002:000096d0       ??_C@_05KNIAAKIP@audio?$AA@ 004796d0     foundation_win32.release:assignregistry.obj
 0002:000096d8       ??_C@_0L@DGFHJLBC@export?3sui?$AA@ 004796d8     foundation_win32.release:assignregistry.obj
 0002:000096e4       ??_C@_03EBDEFFME@sui?$AA@  004796e4     foundation_win32.release:assignregistry.obj
 0002:000096e8       ??_C@_0P@NFBELFMO@export?3wiidata?$AA@ 004796e8     foundation_win32.release:assignregistry.obj
 0002:000096f8       ??_C@_07MNKLDEDK@wiidata?$AA@ 004796f8     foundation_win32.release:assignregistry.obj
 0002:00009700       ??_C@_06BPJDDEFJ@sysmsh?$AA@ 00479700     foundation_win32.release:assignregistry.obj
 0002:00009708       ??_C@_06GAOLOBNP@systex?$AA@ 00479708     foundation_win32.release:assignregistry.obj
 0002:00009710       ??_C@_07KELKGHPK@sysanim?$AA@ 00479710     foundation_win32.release:assignregistry.obj
 0002:00009718       ??_C@_06NKCFPFEA@meshes?$AA@ 00479718     foundation_win32.release:assignregistry.obj
 0002:00009720       ??_C@_05KJKEIBEA@anims?$AA@ 00479720     foundation_win32.release:assignregistry.obj
 0002:00009728       ??_C@_08NJIMCCJK@textures?$AA@ 00479728     foundation_win32.release:assignregistry.obj
 0002:00009734       ??_C@_0BF@IPFIDEFE@assignName?4IsValid?$CI?$CJ?$AA@ 00479734     foundation_win32.release:assignregistry.obj
 0002:0000974c       ??_C@_0BM@MIGIDELI@this?9?$DOHasAssign?$CIassignName?$CJ?$AA@ 0047974c     foundation_win32.release:assignregistry.obj
 0002:00009768       ?MinGrowSize@?$Array@VAssign@IO@@@Util@@0HB 00479768     foundation_win32.release:assignregistry.obj
 0002:0000976c       ?MaxGrowSize@?$Array@VAssign@IO@@@Util@@0HB 0047976c     foundation_win32.release:assignregistry.obj
 0002:00009770       ??_C@_0P@NKJNKEKI@this?9?$DOsize?5?$DO?50?$AA@ 00479770     foundation_win32.release:assignregistry.obj
 0002:00009780       ??_7AssignRegistry@IO@@6B@ 00479780     foundation_win32.release:assignregistry.obj
 0002:00009788       ?InitialSize@MemoryStream@IO@@0HB 00479788     foundation_win32.release:schemeregistry.obj
 0002:0000978c       ??_C@_0BD@IFAOACGG@IO?3?3SchemeRegistry?$AA@ 0047978c     foundation_win32.release:schemeregistry.obj
 0002:000097a0       ??_C@_0CD@MEFJIHKK@?4?4?2foundation?2io?2schemeregistry?4@ 004797a0     foundation_win32.release:schemeregistry.obj
 0002:000097c4       ??_C@_0CG@KNMLCGCF@classRtti?4IsDerivedFrom?$CIStream?3?3@ 004797c4     foundation_win32.release:schemeregistry.obj
 0002:000097ec       ??_C@_0BE@JOJIDHAO@uriScheme?4IsValid?$CI?$CJ?$AA@ 004797ec     foundation_win32.release:schemeregistry.obj
 0002:00009800       ??_C@_0CJ@FFJMGBD@this?9?$DOschemeRegistry?4Contains?$CIur@ 00479800     foundation_win32.release:schemeregistry.obj
 0002:0000982c       ??_C@_04IAFLKNP@http?$AA@  0047982c     foundation_win32.release:schemeregistry.obj
 0002:00009834       ??_C@_06LKINPMBB@httpnz?$AA@ 00479834     foundation_win32.release:schemeregistry.obj
 0002:0000983c       ??_C@_0BL@DECPMEPA@InvalidIndex?5?$CB?$DN?5eraseIndex?$AA@ 0047983c     foundation_win32.release:schemeregistry.obj
 0002:00009858       ??_7SchemeRegistry@IO@@6B@ 00479858     foundation_win32.release:schemeregistry.obj
 0002:00009860       ??_C@_0BG@FFNKDOBO@IO?3?3ArchiveFileSystem?$AA@ 00479860     foundation_win32.release:archivefilesystem.obj
 0002:00009878       ??_C@_0CN@KMPIIJIB@?4?4?2foundation?2io?2archfs?2archivef@ 00479878     foundation_win32.release:archivefilesystem.obj
 0002:000098a8       ??_7ArchiveFileSystem@IO@@6B@ 004798a8     foundation_win32.release:archivefilesystem.obj
 0002:000098c4       ??_C@_0BC@HMJOFDPN@IO?3?3ZipFileSystem?$AA@ 004798c4     foundation_win32.release:zipfilesystem.obj
 0002:000098d8       ??_C@_0CI@COPNGKOA@?4?4?2foundation?2io?2zipfs?2zipfilesy@ 004798d8     foundation_win32.release:zipfilesystem.obj
 0002:00009900       ??_C@_03LCAAOJEC@zip?$AA@  00479900     foundation_win32.release:zipfilesystem.obj
 0002:00009904       ??_C@_0BE@GEJFAMIO@localPath?4IsValid?$CI?$CJ?$AA@ 00479904     foundation_win32.release:zipfilesystem.obj
 0002:00009918       ??_7ZipFileSystem@IO@@6B@  00479918     foundation_win32.release:zipfilesystem.obj
 0002:00009934       ??_C@_0BK@BBHBLCHM@IO?3?3ArchiveFileSystemBase?$AA@ 00479934     foundation_win32.release:archivefilesystembase.obj
 0002:00009950       ??_C@_0DB@EHABNMBK@?4?4?2foundation?2io?2archfs?2archivef@ 00479950     foundation_win32.release:archivefilesystembase.obj
 0002:00009984       ??_C@_0BG@KDJBAFLD@?$CBthis?9?$DOIsMounted?$CIuri?$CJ?$AA@ 00479984     foundation_win32.release:archivefilesystembase.obj
 0002:0000999c       ??_C@_0CD@IJPAFMBH@this?9?$DOIsMounted?$CIarchive?9?$DOGetURI?$CI@ 0047999c     foundation_win32.release:archivefilesystembase.obj
 0002:000099c0       ??_C@_0BF@NFALIHNL@this?9?$DOIsMounted?$CIuri?$CJ?$AA@ 004799c0     foundation_win32.release:archivefilesystembase.obj
 0002:000099d8       ?MinGrowSize@?$Array@V?$Ptr@VArchive@IO@@@@@Util@@0HB 004799d8     foundation_win32.release:archivefilesystembase.obj
 0002:000099dc       ?MaxGrowSize@?$Array@V?$Ptr@VArchive@IO@@@@@Util@@0HB 004799dc     foundation_win32.release:archivefilesystembase.obj
 0002:000099e0       ??_7ArchiveFileSystemBase@IO@@6B@ 004799e0     foundation_win32.release:archivefilesystembase.obj
 0002:000099fc       ??_C@_0L@GNPMIMDD@IO?3?3Stream?$AA@ 004799fc     foundation_win32.release:stream.obj
 0002:00009a08       ??_C@_0BL@CHCMBGJL@?4?4?2foundation?2io?2stream?4cc?$AA@ 00479a08     foundation_win32.release:stream.obj
 0002:00009a24       ??_C@_0BC@CPDFFPCA@?$CBthis?9?$DOIsMapped?$CI?$CJ?$AA@ 00479a24     foundation_win32.release:stream.obj
 0002:00009a38       ??_C@_0BA@JBDMANIO@?$CBthis?9?$DOisMapped?$AA@ 00479a38     foundation_win32.release:stream.obj
 0002:00009a48       ??_C@_0BE@NBADBONI@this?9?$DOCanBeMapped?$CI?$CJ?$AA@ 00479a48     foundation_win32.release:stream.obj
 0002:00009a5c       ??_C@_0P@BDADKPNA@this?9?$DOisMapped?$AA@ 00479a5c     foundation_win32.release:stream.obj
 0002:00009a70       ??_7Stream@IO@@6B@         00479a70     foundation_win32.release:stream.obj
 0002:00009ab8       ??_C@_05NMJMPJJB@win32?$AA@ 00479ab8     foundation_win32.release:systeminfobase.obj
 0002:00009ac0       ??_C@_07NEHPBJGA@xbox360?$AA@ 00479ac0     foundation_win32.release:systeminfobase.obj
 0002:00009ac8       ??_C@_03NLGKJIIH@wii?$AA@  00479ac8     foundation_win32.release:systeminfobase.obj
 0002:00009acc       ??_C@_03BHFIDDEG@ps3?$AA@  00479acc     foundation_win32.release:systeminfobase.obj
 0002:00009ad0       ??_C@_0BA@FELDNHBI@unknownplatform?$AA@ 00479ad0     foundation_win32.release:systeminfobase.obj
 0002:00009ae0       ??_C@_06CDGPGGGH@x86_32?$AA@ 00479ae0     foundation_win32.release:systeminfobase.obj
 0002:00009ae8       ??_C@_06HDPOADAK@x86_64?$AA@ 00479ae8     foundation_win32.release:systeminfobase.obj
 0002:00009af0       ??_C@_0BA@KJCALELP@powerpc_xbox360?$AA@ 00479af0     foundation_win32.release:systeminfobase.obj
 0002:00009b00       ??_C@_0M@JOPAPABN@powerpc_ps3?$AA@ 00479b00     foundation_win32.release:systeminfobase.obj
 0002:00009b0c       ??_C@_0M@FCMCFLNM@powerpc_wii?$AA@ 00479b0c     foundation_win32.release:systeminfobase.obj
 0002:00009b18       ??_C@_0P@IOANILPO@unknowncputype?$AA@ 00479b18     foundation_win32.release:systeminfobase.obj
 0002:00009b28       ??_C@_0CL@JNOEMAAH@?4?4?2foundation?2io?2win360?2win360fs@ 00479b28     foundation_win32.release:win360fswrapper.obj
 0002:00009b54       ??_C@_0M@CAPIHHNN@0?5?$CB?$DN?5handle?$AA@ 00479b54     foundation_win32.release:win360fswrapper.obj
 0002:00009b60       ??_C@_08HJPCPHLF@buf?5?$CB?$DN?50?$AA@ 00479b60     foundation_win32.release:win360fswrapper.obj
 0002:00009b6c       ??_C@_0N@KPGELDJJ@numBytes?5?$DO?50?$AA@ 00479b6c     foundation_win32.release:win360fswrapper.obj
 0002:00009b7c       ??_C@_0CF@CEKCBDHP@Win360FSWrapper?3?5WriteFile?$CI?$CJ?5fai@ 00479b7c     foundation_win32.release:win360fswrapper.obj
 0002:00009ba4       ??_C@_0CE@IILIJNKJ@Win360FSWrapper?3?5ReadFile?$CI?$CJ?5fail@ 00479ba4     foundation_win32.release:win360fswrapper.obj
 0002:00009bc8       ??_C@_0DP@NHLKLCEK@Win360FSWrapper?3?3SetFileWriteTim@ 00479bc8     foundation_win32.release:win360fswrapper.obj
 0002:00009c08       ??_C@_0BC@BJOBBEIF@dirPath?4IsValid?$CI?$CJ?$AA@ 00479c08     foundation_win32.release:win360fswrapper.obj
 0002:00009c1c       ??_C@_02DJGKEECL@?4?4?$AA@ 00479c1c     foundation_win32.release:win360fswrapper.obj
 0002:00009c20       ??_C@_0O@LGHHDKBB@SUCCEEDED?$CIhr?$CJ?$AA@ 00479c20     foundation_win32.release:win360fswrapper.obj
 0002:00009c30       ??_C@_08NPMJDGGI@file?3?1?1?1?$AA@ 00479c30     foundation_win32.release:win360fswrapper.obj
 0002:00009c3c       ??_C@_08FFGGALGD@0?5?$CB?$DN?5res?$AA@ 00479c3c     foundation_win32.release:win360fswrapper.obj
 0002:00009c48       ??_C@_0BK@PNEAEACH@?4?4?2foundation?2util?2crc?4cc?$AA@ 00479c48     foundation_win32.release:crc.obj
 0002:00009c64       ??_C@_0P@CNKMHLAG@?$CBthis?9?$DOinBegin?$AA@ 00479c64     foundation_win32.release:crc.obj
 0002:00009c74       ??_C@_0O@BKPKOEFA@this?9?$DOinBegin?$AA@ 00479c74     foundation_win32.release:crc.obj
 0002:00009c84       ??_C@_0BC@CDPCMOIA@this?9?$DOresultValid?$AA@ 00479c84     foundation_win32.release:crc.obj
 0002:00009c98       ??_C@_0P@LAMKJOCO@IO?3?3ZipArchive?$AA@ 00479c98     foundation_win32.release:ziparchive.obj
 0002:00009ca8       ??_C@_0CF@HAEBKCLF@?4?4?2foundation?2io?2zipfs?2ziparchiv@ 00479ca8     foundation_win32.release:ziparchive.obj
 0002:00009cd0       ??_C@_0BJ@PDJLMBFP@0?5?$DN?$DN?5this?9?$DOzipFileHandle?$AA@ 00479cd0     foundation_win32.release:ziparchive.obj
 0002:00009cec       ??_C@_04CLJHFACG@?4zip?$AA@ 00479cec     foundation_win32.release:ziparchive.obj
 0002:00009cf4       ??_C@_0BG@NJILEOJH@UNZ_OK?5?$DN?$DN?5fileInfoRes?$AA@ 00479cf4     foundation_win32.release:ziparchive.obj
 0002:00009d0c       ??_C@_0CN@EDPKMDN@ZipArchive?3?5error?5in?5parsing?5zip@ 00479d0c     foundation_win32.release:ziparchive.obj
 0002:00009d3c       ??_C@_02CFKBDFGI@?1?2?$AA@ 00479d3c     foundation_win32.release:ziparchive.obj
 0002:00009d40       ??_C@_0BO@EAJPGOAM@fileURI?4LocalPath?$CI?$CJ?4IsValid?$CI?$CJ?$AA@ 00479d40     foundation_win32.release:ziparchive.obj
 0002:00009d60       ??_C@_0FE@NMOILJOP@ZipArchive?3?3ConvertToZipURI?$CI?$CJ?3?5f@ 00479d60     foundation_win32.release:ziparchive.obj
 0002:00009db4       ??_C@_05FBLGKOOJ@file?$DN?$AA@ 00479db4     foundation_win32.release:ziparchive.obj
 0002:00009dbc       ??_7ZipArchive@IO@@6B@     00479dbc     foundation_win32.release:ziparchive.obj
 0002:00009dc4       ??_C@_0BD@OHCGIOAM@IO?3?3ConsoleHandler?$AA@ 00479dc4     foundation_win32.release:consolehandler.obj
 0002:00009dd8       ??_C@_0CD@LNDHOCKM@?4?4?2foundation?2io?2consolehandler?4@ 00479dd8     foundation_win32.release:consolehandler.obj
 0002:00009dfc       ??_7ConsoleHandler@IO@@6B@ 00479dfc     foundation_win32.release:consolehandler.obj
 0002:00009e2c       ??_C@_02DPKJAMEF@?$CFd?$AA@ 00479e2c     foundation_win32.release:calendartimebase.obj
 0002:00009e30       ??_C@_01GBGANLPD@0?$AA@    00479e30     foundation_win32.release:calendartimebase.obj
 0002:00009e34       ??_C@_02PLJDPFIO@00?$AA@   00479e34     foundation_win32.release:calendartimebase.obj
 0002:00009e38       ??_C@_06OBGPOIGL@?$HLYEAR?$HN?$AA@ 00479e38     foundation_win32.release:calendartimebase.obj
 0002:00009e40       ??_C@_07PHIBKEEO@?$HLMONTH?$HN?$AA@ 00479e40     foundation_win32.release:calendartimebase.obj
 0002:00009e48       ??_C@_09GBBJHKPE@?$HLWEEKDAY?$HN?$AA@ 00479e48     foundation_win32.release:calendartimebase.obj
 0002:00009e54       ??_C@_05FIPPHAAL@?$HLDAY?$HN?$AA@ 00479e54     foundation_win32.release:calendartimebase.obj
 0002:00009e5c       ??_C@_06LMCOOBDM@?$HLHOUR?$HN?$AA@ 00479e5c     foundation_win32.release:calendartimebase.obj
 0002:00009e64       ??_C@_08GFAFKKAN@?$HLMINUTE?$HN?$AA@ 00479e64     foundation_win32.release:calendartimebase.obj
 0002:00009e70       ??_C@_08GDDMKCFB@?$HLSECOND?$HN?$AA@ 00479e70     foundation_win32.release:calendartimebase.obj
 0002:00009e7c       ??_C@_0O@POKBLPHG@?$HLMILLISECOND?$HN?$AA@ 00479e7c     foundation_win32.release:calendartimebase.obj
 0002:00009e8c       ??_C@_07CGJPFGJA@January?$AA@ 00479e8c     foundation_win32.release:calendartimebase.obj
 0002:00009e94       ??_C@_08GNJGEPFN@February?$AA@ 00479e94     foundation_win32.release:calendartimebase.obj
 0002:00009ea0       ??_C@_05HPCKOFNC@March?$AA@ 00479ea0     foundation_win32.release:calendartimebase.obj
 0002:00009ea8       ??_C@_05DMJDNLEJ@April?$AA@ 00479ea8     foundation_win32.release:calendartimebase.obj
 0002:00009eb0       ??_C@_03CNMDKL@May?$AA@    00479eb0     foundation_win32.release:calendartimebase.obj
 0002:00009eb4       ??_C@_04CNLMGBGM@June?$AA@ 00479eb4     foundation_win32.release:calendartimebase.obj
 0002:00009ebc       ??_C@_04MIEPOIFP@July?$AA@ 00479ebc     foundation_win32.release:calendartimebase.obj
 0002:00009ec4       ??_C@_06LBBHFDDG@August?$AA@ 00479ec4     foundation_win32.release:calendartimebase.obj
 0002:00009ecc       ??_C@_09BHHEALKD@September?$AA@ 00479ecc     foundation_win32.release:calendartimebase.obj
 0002:00009ed8       ??_C@_07JJNFCEND@October?$AA@ 00479ed8     foundation_win32.release:calendartimebase.obj
 0002:00009ee0       ??_C@_08HCHEGEOA@November?$AA@ 00479ee0     foundation_win32.release:calendartimebase.obj
 0002:00009eec       ??_C@_08EDHMEBNP@December?$AA@ 00479eec     foundation_win32.release:calendartimebase.obj
 0002:00009ef8       ??_C@_0DK@DIEACBAA@CalendarTime?3?3StringToMonth?$CI?$CJ?3?5i@ 00479ef8     foundation_win32.release:calendartimebase.obj
 0002:00009f34       ??_C@_06OOPIFAJ@Sunday?$AA@ 00479f34     foundation_win32.release:calendartimebase.obj
 0002:00009f3c       ??_C@_06JLEDEDGH@Monday?$AA@ 00479f3c     foundation_win32.release:calendartimebase.obj
 0002:00009f44       ??_C@_07BAAGCFCM@Tuesday?$AA@ 00479f44     foundation_win32.release:calendartimebase.obj
 0002:00009f4c       ??_C@_09DLIGFAKA@Wednesday?$AA@ 00479f4c     foundation_win32.release:calendartimebase.obj
 0002:00009f58       ??_C@_08HACCIKIA@Thursday?$AA@ 00479f58     foundation_win32.release:calendartimebase.obj
 0002:00009f64       ??_C@_06JECMNKMI@Friday?$AA@ 00479f64     foundation_win32.release:calendartimebase.obj
 0002:00009f6c       ??_C@_08INBOOONO@Saturday?$AA@ 00479f6c     foundation_win32.release:calendartimebase.obj
 0002:00009f78       ??_C@_0DO@CKEMMBLM@CalendarTime?3?3StringToWeekday?$CI?$CJ?3@ 00479f78     foundation_win32.release:calendartimebase.obj
 0002:00009fb8       ??_C@_0P@FPIKFCOP@IO?3?3TextWriter?$AA@ 00479fb8     foundation_win32.release:textwriter.obj
 0002:00009fc8       ??_7TextWriter@IO@@6B@     00479fc8     foundation_win32.release:textwriter.obj
 0002:00009fd8       ??_C@_0BB@PJLFJCEH@IO?3?3StreamWriter?$AA@ 00479fd8     foundation_win32.release:streamwriter.obj
 0002:00009fec       ??_C@_0CB@KHDNGPFH@?4?4?2foundation?2io?2streamwriter?4cc@ 00479fec     foundation_win32.release:streamwriter.obj
 0002:0000a010       ??_C@_0BH@BHAEINJL@this?9?$DOstream?4isvalid?$CI?$CJ?$AA@ 0047a010     foundation_win32.release:streamwriter.obj
 0002:0000a028       ??_C@_0BJ@JJONKDGE@this?9?$DOstream?9?$DOCanWrite?$CI?$CJ?$AA@ 0047a028     foundation_win32.release:streamwriter.obj
 0002:0000a048       ??_C@_0LA@BLFADKGD@?$CIthis?9?$DOstream?9?$DOGetAccessMode?$CI?$CJ?5?$DN@ 0047a048     foundation_win32.release:streamwriter.obj
 0002:0000a0f8       ??_7StreamWriter@IO@@6B@   0047a0f8     foundation_win32.release:streamwriter.obj
 0002:0000a108       ??_C@_0DC@OACOAGCA@c?3?2nebula3?2code?2foundation?2jobs?1@ 0047a108     foundation_win32.release:tpworkerthread.obj
 0002:0000a13c       ??_C@_0BD@CDAIMNKF@Sync?5?$DN?$DN?5this?9?$DOcode?$AA@ 0047a13c     foundation_win32.release:tpworkerthread.obj
 0002:0000a150       ??_C@_0BC@GIAHJOGM@Run?5?$DN?$DN?5this?9?$DOcode?$AA@ 0047a150     foundation_win32.release:tpworkerthread.obj
 0002:0000a164       ??_C@_0DB@CJDJKANM@c?3?2nebula3?2code?2foundation?2jobs?1@ 0047a164     foundation_win32.release:tpworkerthread.obj
 0002:0000a198       ?MinGrowSize@?$Array@V?$KeyValuePair@VStringAtom@Util@@V?$Ptr@VDebugTimer@Debug@@@@@Util@@@Util@@0HB 0047a198     foundation_win32.release:tpworkerthread.obj
 0002:0000a19c       ?MaxGrowSize@?$Array@V?$KeyValuePair@VStringAtom@Util@@V?$Ptr@VDebugTimer@Debug@@@@@Util@@@Util@@0HB 0047a19c     foundation_win32.release:tpworkerthread.obj
 0002:0000a1a0       ?MinGrowSize@?$Array@V?$KeyValuePair@VStringAtom@Util@@V?$Ptr@VDebugCounter@Debug@@@@@Util@@@Util@@0HB 0047a1a0     foundation_win32.release:tpworkerthread.obj
 0002:0000a1a4       ?MaxGrowSize@?$Array@V?$KeyValuePair@VStringAtom@Util@@V?$Ptr@VDebugCounter@Debug@@@@@Util@@@Util@@0HB 0047a1a4     foundation_win32.release:tpworkerthread.obj
 0002:0000a1a8       ??_C@_0BF@GEFOJENC@Jobs?3?3TPWorkerThread?$AA@ 0047a1a8     foundation_win32.release:tpworkerthread.obj
 0002:0000a1c0       ??_C@_0CI@LELMHGDP@?4?4?2foundation?2jobs?2tp?2tpworkerth@ 0047a1c0     foundation_win32.release:tpworkerthread.obj
 0002:0000a1e8       ??_C@_0BJ@FNJMBIOA@this?9?$DOjobQueue?4IsEmpty?$CI?$CJ?$AA@ 0047a1e8     foundation_win32.release:tpworkerthread.obj
 0002:0000a204       ??_C@_0BJ@BOPOKPDK@0?5?$DN?$DN?5this?9?$DOscratchBuffer?$AA@ 0047a204     foundation_win32.release:tpworkerthread.obj
 0002:0000a220       ??_C@_0BK@GKHJLAHP@curSlice?9?$DOGetJob?$CI?$CJ?5?$DN?$DN?5job?$AA@ 0047a220     foundation_win32.release:tpworkerthread.obj
 0002:0000a23c       ??_C@_0CO@HCJNLGNL@uniformDesc?4GetScratchSize?$CI?$CJ?5?$DM?5M@ 0047a23c     foundation_win32.release:tpworkerthread.obj
 0002:0000a26c       ??_C@_0BD@FKFIGMGK@0?5?$CB?$DN?5ctx?4inputs?$FL0?$FN?$AA@ 0047a26c     foundation_win32.release:tpworkerthread.obj
 0002:0000a280       ??_C@_0BE@GGDEGLLP@0?5?$CB?$DN?5ctx?4outputs?$FL0?$FN?$AA@ 0047a280     foundation_win32.release:tpworkerthread.obj
 0002:0000a294       ??_C@_0CN@KMLPNONA@c?3?2nebula3?2code?2foundation?2util?1@ 0047a294     foundation_win32.release:tpworkerthread.obj
 0002:0000a2c4       ??_7Thread@Threading@@6B@  0047a2c4     foundation_win32.release:tpworkerthread.obj
 0002:0000a2d4       ??_7TPWorkerThread@Jobs@@6B@ 0047a2d4     foundation_win32.release:tpworkerthread.obj
 0002:0000a2e4       ??_C@_0M@PCENNPGA@?$CFd?4?$CFd?4?$CFd?4?$CFd?$AA@ 0047a2e4     foundation_win32.release:win360ipaddress.obj
 0002:0000a2f0       ??_C@_09IPAEKDAI@localhost?$AA@ 0047a2f0     foundation_win32.release:win360ipaddress.obj
 0002:0000a2fc       ??_C@_0CM@EAKOCGND@?4?4?2foundation?2net?2win360?2win360i@ 0047a2fc     foundation_win32.release:win360ipaddress.obj
 0002:0000a328       ??_C@_0BD@EJMIODFG@hostName?4IsValid?$CI?$CJ?$AA@ 0047a328     foundation_win32.release:win360ipaddress.obj
 0002:0000a33c       ??_C@_03OBJFJEBA@any?$AA@  0047a33c     foundation_win32.release:win360ipaddress.obj
 0002:0000a340       ??_C@_09OALBOHJN@broadcast?$AA@ 0047a340     foundation_win32.release:win360ipaddress.obj
 0002:0000a34c       ??_C@_04PJDNGLKJ@self?$AA@ 0047a34c     foundation_win32.release:win360ipaddress.obj
 0002:0000a354       ??_C@_08KFIKCBPJ@inetself?$AA@ 0047a354     foundation_win32.release:win360ipaddress.obj
 0002:0000a360       ??_C@_0M@LOAOIMFF@?40123456789?$AA@ 0047a360     foundation_win32.release:win360ipaddress.obj
 0002:0000a36c       ??_C@_0M@PACOMBBM@Net?3?3Socket?$AA@ 0047a36c     foundation_win32.release:socket.obj
 0002:0000a378       ??_7Socket@Net@@6B@        0047a378     foundation_win32.release:socket.obj
 0002:0000a380       ??_C@_0CD@PNKBLKLC@?4?4?2foundation?2util?2stringbuffer?4@ 0047a380     foundation_win32.release:stringbuffer.obj
 0002:0000a3a4       ??_C@_08DJGDGONI@size?5?$DO?50?$AA@ 0047a3a4     foundation_win32.release:stringbuffer.obj
 0002:0000a3b0       ??_C@_0BM@DBFHMPLN@strLength?5?$DM?5this?9?$DOchunkSize?$AA@ 0047a3b0     foundation_win32.release:stringbuffer.obj
 0002:0000a3cc       ??_C@_08PLJADLOO@0?5?$CB?$DN?5ptr?$AA@ 0047a3cc     foundation_win32.release:filestream.obj
 0002:0000a3d8       ??_C@_0P@OFMBBKIG@IO?3?3FileStream?$AA@ 0047a3d8     foundation_win32.release:filestream.obj
 0002:0000a3e8       ??_C@_0BP@DAGFDMEO@?4?4?2foundation?2io?2filestream?4cc?$AA@ 0047a3e8     foundation_win32.release:filestream.obj
 0002:0000a408       ??_C@_0BC@LAMFMDFD@0?5?$CB?$DN?5this?9?$DOhandle?$AA@ 0047a408     foundation_win32.release:filestream.obj
 0002:0000a41c       ??_C@_0BC@PBMACOAF@0?5?$DN?$DN?5this?9?$DOhandle?$AA@ 0047a41c     foundation_win32.release:filestream.obj
 0002:0000a430       ??_C@_0BN@JKJPOHPD@this?9?$DOuri?4Scheme?$CI?$CJ?5?$DN?$DN?5?$CCfile?$CC?$AA@ 0047a430     foundation_win32.release:filestream.obj
 0002:0000a450       ??_C@_0CA@EGFHHJBP@this?9?$DOuri?4LocalPath?$CI?$CJ?4IsValid?$CI?$CJ?$AA@ 0047a450     foundation_win32.release:filestream.obj
 0002:0000a470       ??_C@_0BJ@MNDIIGHJ@0?5?$DN?$DN?5this?9?$DOmappedContent?$AA@ 0047a470     foundation_win32.release:filestream.obj
 0002:0000a48c       ??_C@_0BB@GKFNADGC@readSize?5?$DN?$DN?5size?$AA@ 0047a48c     foundation_win32.release:filestream.obj
 0002:0000a4a0       ??_C@_0BJ@MMKPOCIA@0?5?$CB?$DN?5this?9?$DOmappedContent?$AA@ 0047a4a0     foundation_win32.release:filestream.obj
 0002:0000a4c0       ??_7FileStream@IO@@6B@     0047a4c0     foundation_win32.release:filestream.obj
 0002:0000a508       ?MinGrowSize@?$Array@V?$KeyValuePair@VStringAtom@Util@@UConnection@HttpClientRegistry@Http@@@Util@@@Util@@0HB 0047a508     foundation_win32.release:httpstream.obj
 0002:0000a50c       ?MaxGrowSize@?$Array@V?$KeyValuePair@VStringAtom@Util@@UConnection@HttpClientRegistry@Http@@@Util@@@Util@@0HB 0047a50c     foundation_win32.release:httpstream.obj
 0002:0000a510       ??_C@_0DF@DOPEBOE@c?3?2nebula3?2code?2foundation?2http?1@ 0047a510     foundation_win32.release:httpstream.obj
 0002:0000a548       ??_C@_0BB@CFHCOAMP@Http?3?3HttpStream?$AA@ 0047a548     foundation_win32.release:httpstream.obj
 0002:0000a55c       ??_C@_0CB@MKPJFAMM@?4?4?2foundation?2http?2httpstream?4cc@ 0047a55c     foundation_win32.release:httpstream.obj
 0002:0000a580       ??_C@_0BM@GGEGKCHK@HttpStream?3?5Opening?5?8?$CFs?8?4?4?4?$AA@ 0047a580     foundation_win32.release:httpstream.obj
 0002:0000a59c       ??_C@_04NPIFMCB@ok?$CB?6?$AA@ 0047a59c     foundation_win32.release:httpstream.obj
 0002:0000a5a4       ??_C@_08GNCACJHJ@failed?$CB?6?$AA@ 0047a5a4     foundation_win32.release:httpstream.obj
 0002:0000a5b0       ??_7HttpStream@Http@@6B@   0047a5b0     foundation_win32.release:httpstream.obj
 0002:0000a5f8       ??_C@_0BD@HOJPCJMJ@Http?3?3HttpNzStream?$AA@ 0047a5f8     foundation_win32.release:httpnzstream.obj
 0002:0000a60c       ??_C@_0CD@HFEGEKNN@?4?4?2foundation?2http?2httpnzstream?4@ 0047a60c     foundation_win32.release:httpnzstream.obj
 0002:0000a630       ??_C@_03JMPIPLI@?4nz?$AA@  0047a630     foundation_win32.release:httpnzstream.obj
 0002:0000a634       ??_C@_0BO@CJCCPDHP@HttpNzStream?3?5Opening?5?8?$CFs?8?4?4?4?$AA@ 0047a634     foundation_win32.release:httpnzstream.obj
 0002:0000a654       ??_C@_0DB@BHGANHFG@HttpNzStream?3?5stream?5?8?$CFs?8?5is?5not@ 0047a654     foundation_win32.release:httpnzstream.obj
 0002:0000a688       ??_C@_0M@EIIJLFLC@Z_OK?5?$DN?$DN?5res?$AA@ 0047a688     foundation_win32.release:httpnzstream.obj
 0002:0000a698       ??_7HttpNzStream@Http@@6B@ 0047a698     foundation_win32.release:httpnzstream.obj
 0002:0000a6e0       ??_C@_0DE@PAACAJOH@c?3?2nebula3?2code?2foundation?2io?1zi@ 0047a6e0     foundation_win32.release:zipfilestream.obj
 0002:0000a714       ??_C@_0BC@BCMMPBLF@IO?3?3ZipFileStream?$AA@ 0047a714     foundation_win32.release:zipfilestream.obj
 0002:0000a728       ??_C@_0CI@EJCAFIEF@?4?4?2foundation?2io?2zipfs?2zipfilest@ 0047a728     foundation_win32.release:zipfilestream.obj
 0002:0000a750       ??_C@_0BB@NAMCBADG@?$CBthis?9?$DOmapBuffer?$AA@ 0047a750     foundation_win32.release:zipfilestream.obj
 0002:0000a764       ??_C@_03OFKLFAAJ@pwd?$AA@  0047a764     foundation_win32.release:zipfilestream.obj
 0002:0000a768       ??_C@_0BD@HGCOOGFJ@this?9?$DOzipFileEntry?$AA@ 0047a768     foundation_win32.release:zipfilestream.obj
 0002:0000a77c       ??_C@_03PLHFFLIH@ptr?$AA@  0047a77c     foundation_win32.release:zipfilestream.obj
 0002:0000a780       ??_C@_0BP@PJHHEMLH@ReadAccess?5?$DN?$DN?5this?9?$DOaccessMode?$AA@ 0047a780     foundation_win32.release:zipfilestream.obj
 0002:0000a7a0       ??_C@_0DI@FCEFMAFJ@?$CIthis?9?$DOposition?5?$DO?$DN?50?$CJ?5?$CG?$CG?5?$CIthis?9?$DO@ 0047a7a0     foundation_win32.release:zipfilestream.obj
 0002:0000a7d8       ??_C@_0CL@GMDPHHKP@?$CIthis?9?$DOposition?5?$CL?5readBytes?$CJ?5?$DM?$DN?5@ 0047a7d8     foundation_win32.release:zipfilestream.obj
 0002:0000a804       ??_C@_0BM@FDNCBCCM@this?9?$DOposition?5?$DO?$DN?5posBefore?$AA@ 0047a804     foundation_win32.release:zipfilestream.obj
 0002:0000a820       ??_C@_0O@OJDAKMJB@readBytes?5?$DO?50?$AA@ 0047a820     foundation_win32.release:zipfilestream.obj
 0002:0000a830       ??_C@_0M@MJHADDHB@dummyBuffer?$AA@ 0047a830     foundation_win32.release:zipfilestream.obj
 0002:0000a83c       ??_C@_0BE@MPGMJIBM@this?9?$DOGetSize?$CI?$CJ?5?$DO?50?$AA@ 0047a83c     foundation_win32.release:zipfilestream.obj
 0002:0000a850       ??_C@_0BF@GIHHFFPD@0?5?$CB?$DN?5this?9?$DOmapBuffer?$AA@ 0047a850     foundation_win32.release:zipfilestream.obj
 0002:0000a868       ??_C@_07IPNMCAN@success?$AA@ 0047a868     foundation_win32.release:zipfilestream.obj
 0002:0000a870       ??_C@_0BA@FMJDFDGH@this?9?$DOmapBuffer?$AA@ 0047a870     foundation_win32.release:zipfilestream.obj
 0002:0000a880       ??_7ZipFileStream@IO@@6B@  0047a880     foundation_win32.release:zipfilestream.obj
 0002:0000a8c8       ??_C@_0M@BPKEHAOF@IO?3?3Archive?$AA@ 0047a8c8     foundation_win32.release:archive.obj
 0002:0000a8d4       ??_7Archive@IO@@6B@        0047a8d4     foundation_win32.release:archive.obj
 0002:0000a8dc       ??_C@_0DB@DOEGNDGG@?4?4?2foundation?2util?2win32?2win32st@ 0047a8dc     foundation_win32.release:win32stringconverter.obj
 0002:0000a910       ??_C@_0EK@JMANJBCL@?$CI0?5?$CB?$DN?5src?$CJ?5?$CG?$CG?5?$CI0?5?$CB?$DN?5dst?$CJ?5?$CG?$CG?5?$CIdst@ 0047a910     foundation_win32.release:win32stringconverter.obj
 0002:0000a95c       ??_C@_0CK@HILIHMDC@ERROR_INSUFFICIENT_BUFFER?5dstMax@ 0047a95c     foundation_win32.release:win32stringconverter.obj
 0002:0000a988       ??_C@_0BE@DKGAEDDL@ERROR_INVALID_FLAGS?$AA@ 0047a988     foundation_win32.release:win32stringconverter.obj
 0002:0000a9a0       ??_C@_0EI@LJHCDKNN@ERROR_INVALID_PARAMETER?3?5May?5occ@ 0047a9a0     foundation_win32.release:win32stringconverter.obj
 0002:0000a9e8       ??_C@_0DF@HALMAAOA@ERROR_NO_UNICODE_TRANSLATION?4?4?4?5@ 0047a9e8     foundation_win32.release:win32stringconverter.obj
 0002:0000aa20       ??_C@_0O@NPFKCNOE@Unknown?5Error?$AA@ 0047aa20     foundation_win32.release:win32stringconverter.obj
 0002:0000aa30       ??_C@_0FK@ELBBCAE@Win32StringConverter?3?3UTF8ToWide@ 0047aa30     foundation_win32.release:win32stringconverter.obj
 0002:0000aa8c       ??_C@_08LOHBMLKC@0?5?$CB?$DN?5src?$AA@ 0047aa8c     foundation_win32.release:win32stringconverter.obj
 0002:0000aa98       ??_C@_0CB@KCDAOLNO@numBytesWritten?5?$DM?5sizeof?$CIdstBuf?$CJ@ 0047aa98     foundation_win32.release:win32stringconverter.obj
 0002:0000aabc       ??_C@_0DO@NMOLBHGD@Win32StringConverter?3?3WideToUTF8@ 0047aabc     foundation_win32.release:win32stringconverter.obj
 0002:0000aafc       ??_C@_0BA@BNKHHPOG@IO?3?3ArchiveBase?$AA@ 0047aafc     foundation_win32.release:archivebase.obj
 0002:0000ab0c       ??_C@_0CH@OLNDPELB@?4?4?2foundation?2io?2archfs?2archiveb@ 0047ab0c     foundation_win32.release:archivebase.obj
 0002:0000ab34       ??_7ArchiveBase@IO@@6B@    0047ab34     foundation_win32.release:archivebase.obj
 0002:0000ab3c       ??_C@_0CG@LJDILOPD@?4?4?2foundation?2io?2zipfs?2zipdirent@ 0047ab3c     foundation_win32.release:zipdirentry.obj
 0002:0000ab64       ??_C@_0CH@HDHFBMAG@?4?4?2foundation?2io?2zipfs?2zipfileen@ 0047ab64     foundation_win32.release:zipfileentry.obj
 0002:0000ab8c       ??_C@_06KGNFABGC@0?5?$CB?$DN?5h?$AA@ 0047ab8c     foundation_win32.release:zipfileentry.obj
 0002:0000ab94       ??_C@_0O@GOFEANOJ@0?5?$CB?$DN?5critSect?$AA@ 0047ab94     foundation_win32.release:zipfileentry.obj
 0002:0000aba4       ??_C@_0O@GCEDCPB@UNZ_OK?5?$DN?$DN?5res?$AA@ 0047aba4     foundation_win32.release:zipfileentry.obj
 0002:0000abb4       ??_C@_0BJ@PCAMKFKG@0?5?$CB?$DN?5this?9?$DOzipFileHandle?$AA@ 0047abb4     foundation_win32.release:zipfileentry.obj
 0002:0000abd0       ??_C@_0BL@PDDKCCPH@0?5?$CB?$DN?5this?9?$DOarchiveCritSect?$AA@ 0047abd0     foundation_win32.release:zipfileentry.obj
 0002:0000abec       ??_C@_0BC@LLFDGKDH@Threading?3?3Thread?$AA@ 0047abec     foundation_win32.release:thread.obj
 0002:0000ac00       ??_C@_0BD@GOABPGOH@Debug?3?3DebugServer?$AA@ 0047ac00     foundation_win32.release:debugserver.obj
 0002:0000ac14       ??_C@_0CD@ODBJDDKK@?4?4?2foundation?2debug?2debugserver?4@ 0047ac14     foundation_win32.release:debugserver.obj
 0002:0000ac38       ??_C@_0CO@HAJMDILI@?$CBthis?9?$DOdebugTimers?4Contains?$CItime@ 0047ac38     foundation_win32.release:debugserver.obj
 0002:0000ac68       ??_C@_0CN@DDGAHKEN@this?9?$DOdebugTimers?4Contains?$CItimer@ 0047ac68     foundation_win32.release:debugserver.obj
 0002:0000ac98       ??_C@_0DC@JNOLMKLO@?$CBthis?9?$DOdebugCounters?4Contains?$CIco@ 0047ac98     foundation_win32.release:debugserver.obj
 0002:0000accc       ??_C@_0DB@IJBMLBO@this?9?$DOdebugCounters?4Contains?$CIcou@ 0047accc     foundation_win32.release:debugserver.obj
 0002:0000ad00       ?MinGrowSize@?$Array@V?$Ptr@VDebugTimer@Debug@@@@@Util@@0HB 0047ad00     foundation_win32.release:debugserver.obj
 0002:0000ad04       ?MaxGrowSize@?$Array@V?$Ptr@VDebugTimer@Debug@@@@@Util@@0HB 0047ad04     foundation_win32.release:debugserver.obj
 0002:0000ad08       ?MinGrowSize@?$Array@V?$Ptr@VDebugCounter@Debug@@@@@Util@@0HB 0047ad08     foundation_win32.release:debugserver.obj
 0002:0000ad0c       ?MaxGrowSize@?$Array@V?$Ptr@VDebugCounter@Debug@@@@@Util@@0HB 0047ad0c     foundation_win32.release:debugserver.obj
 0002:0000ad10       ??_7DebugServer@Debug@@6B@ 0047ad10     foundation_win32.release:debugserver.obj
 0002:0000ad18       ??_C@_0CP@LHNOKABP@c?3?2nebula3?2code?2foundation?2debug@ 0047ad18     foundation_win32.release:debugtimer.obj
 0002:0000ad48       ??_C@_0BC@BPJHBDEI@Debug?3?3DebugTimer?$AA@ 0047ad48     foundation_win32.release:debugtimer.obj
 0002:0000ad5c       ??_C@_0CC@KCMAIJOF@?4?4?2foundation?2debug?2debugtimer?4c@ 0047ad5c     foundation_win32.release:debugtimer.obj
 0002:0000ad80       ??_C@_0BE@CMPIKNJP@timerName?4IsValid?$CI?$CJ?$AA@ 0047ad80     foundation_win32.release:debugtimer.obj
 0002:0000ad94       ?MinGrowSize@?$Array@N@Util@@0HB 0047ad94     foundation_win32.release:debugtimer.obj
 0002:0000ad98       ?MaxGrowSize@?$Array@N@Util@@0HB 0047ad98     foundation_win32.release:debugtimer.obj
 0002:0000ad9c       ??_C@_05PGGDPDCN@c?5?$DO?50?$AA@ 0047ad9c     foundation_win32.release:debugtimer.obj
 0002:0000ada4       ??_7DebugTimer@Debug@@6B@  0047ada4     foundation_win32.release:debugtimer.obj
 0002:0000adac       ??_C@_0BB@HAKJIPDK@IO?3?3MemoryStream?$AA@ 0047adac     foundation_win32.release:memorystream.obj
 0002:0000adc0       ??_C@_0CB@BAHJKEIO@?4?4?2foundation?2io?2memorystream?4cc@ 0047adc0     foundation_win32.release:memorystream.obj
 0002:0000ade8       ??_C@_0HB@CPCFBEIF@?$CIWriteAccess?5?$DN?$DN?5this?9?$DOaccessMode@ 0047ade8     foundation_win32.release:memorystream.obj
 0002:0000ae5c       ??_C@_0CO@KMBFGOII@?$CIthis?9?$DOposition?5?$CL?5numBytes?$CJ?5?$DM?$DN?5t@ 0047ae5c     foundation_win32.release:memorystream.obj
 0002:0000ae90       ??_C@_0EK@MCLGCDEM@?$CIReadAccess?5?$DN?$DN?5this?9?$DOaccessMode?$CJ@ 0047ae90     foundation_win32.release:memorystream.obj
 0002:0000aedc       ??_C@_0P@OHADKHFC@0?5?$CB?$DN?5newBuffer?$AA@ 0047aedc     foundation_win32.release:memorystream.obj
 0002:0000aeec       ??_C@_0CH@NODHPJLB@?$CInewBuffer?5?$CL?5newSize?$CJ?5?$DM?5endOfNew@ 0047aeec     foundation_win32.release:memorystream.obj
 0002:0000af14       ??_C@_0CJ@JLOBFDAB@?$CIthis?9?$DOsize?5?$CL?5numBytes?$CJ?5?$DO?5this?9?$DO@ 0047af14     foundation_win32.release:memorystream.obj
 0002:0000af40       ??_C@_0BN@GBCCDI@newCapacity?5?$DO?5this?9?$DOcapacity?$AA@ 0047af40     foundation_win32.release:memorystream.obj
 0002:0000af60       ??_C@_0BC@BMNJOAMD@0?5?$CB?$DN?5this?9?$DObuffer?$AA@ 0047af60     foundation_win32.release:memorystream.obj
 0002:0000af78       ??_7MemoryStream@IO@@6B@   0047af78     foundation_win32.release:memorystream.obj
 0002:0000afc0       ??_C@_0BJ@LDALDNDJ@Http?3?3HttpClientRegistry?$AA@ 0047afc0     foundation_win32.release:httpclientregistry.obj
 0002:0000afdc       ??_C@_0CJ@HNGPBHBM@?4?4?2foundation?2http?2httpclientreg@ 0047afdc     foundation_win32.release:httpclientregistry.obj
 0002:0000b008       ??_C@_0P@GLIMAPMO@?$CBthis?9?$DOisValid?$AA@ 0047b008     foundation_win32.release:httpclientregistry.obj
 0002:0000b018       ??_C@_0BB@LCBJPLJK@con?4useCount?5?$DO?50?$AA@ 0047b018     foundation_win32.release:httpclientregistry.obj
 0002:0000b02c       ??_7HttpClientRegistry@Http@@6B@ 0047b02c     foundation_win32.release:httpclientregistry.obj
 0002:0000b034       ??_C@_0BB@CKEFLEEB@Http?3?3HttpClient?$AA@ 0047b034     foundation_win32.release:httpclient.obj
 0002:0000b048       ??_C@_07CHPLNACE@Mozilla?$AA@ 0047b048     foundation_win32.release:httpclient.obj
 0002:0000b050       ??_C@_0CB@EHDIFLBG@?4?4?2foundation?2http?2httpclient?4cc@ 0047b050     foundation_win32.release:httpclient.obj
 0002:0000b074       ??_C@_0BF@FAELLIHK@?$CBthis?9?$DOIsConnected?$CI?$CJ?$AA@ 0047b074     foundation_win32.release:httpclient.obj
 0002:0000b08c       ??_C@_0BO@IMGIJHLN@this?9?$DOtcpClient?9?$DOIsBlocking?$CI?$CJ?$AA@ 0047b08c     foundation_win32.release:httpclient.obj
 0002:0000b0ac       ??_C@_0CA@EEKKLGOD@result?5?$CB?$DN?5TcpClient?3?3Connecting?$AA@ 0047b0ac     foundation_win32.release:httpclient.obj
 0002:0000b0cc       ??_C@_0BE@BGIIEADK@this?9?$DOIsConnected?$CI?$CJ?$AA@ 0047b0cc     foundation_win32.release:httpclient.obj
 0002:0000b0e0       ??_C@_0CN@NMLPFANB@HttpClient?3?5Failed?5to?5open?5?8?$CFs?8?5@ 0047b0e0     foundation_win32.release:httpclient.obj
 0002:0000b110       ??_7HttpClient@Http@@6B@   0047b110     foundation_win32.release:httpclient.obj
 0002:0000b118       ??_C@_0P@KLBIEHGI@Net?3?3TcpClient?$AA@ 0047b118     foundation_win32.release:tcpclient.obj
 0002:0000b128       ??_7TcpClient@Net@@6B@     0047b128     foundation_win32.release:tcpclient.obj
 0002:0000b130       ??_C@_0BC@PEEELCPC@Net?3?3StdTcpClient?$AA@ 0047b130     foundation_win32.release:stdtcpclient.obj
 0002:0000b144       ??_C@_0CG@JKLKLFIO@?4?4?2foundation?2net?2tcp?2stdtcpclie@ 0047b144     foundation_win32.release:stdtcpclient.obj
 0002:0000b16c       ??_C@_0BI@GCGAEBFN@?$CBthis?9?$DOsocket?4isvalid?$CI?$CJ?$AA@ 0047b16c     foundation_win32.release:stdtcpclient.obj
 0002:0000b184       ??_C@_0BL@BLCAKALI@this?9?$DOsendStream?4isvalid?$CI?$CJ?$AA@ 0047b184     foundation_win32.release:stdtcpclient.obj
 0002:0000b1a0       ??_C@_0BL@JIKGIEIC@this?9?$DOrecvStream?4isvalid?$CI?$CJ?$AA@ 0047b1a0     foundation_win32.release:stdtcpclient.obj
 0002:0000b1bc       ??_C@_0DO@GMMOEAEJ@StdTcpClient?3?5failed?5to?5connect?5@ 0047b1bc     foundation_win32.release:stdtcpclient.obj
 0002:0000b1fc       ??_C@_0CG@CEDJEKIP@StdTcpClient?3?5failed?5to?5open?5soc@ 0047b1fc     foundation_win32.release:stdtcpclient.obj
 0002:0000b224       ??_C@_0BH@MMPCDEGE@this?9?$DOsocket?4isvalid?$CI?$CJ?$AA@ 0047b224     foundation_win32.release:stdtcpclient.obj
 0002:0000b23c       ??_C@_0BM@PBNPMHM@StdTcpClient?5re?9connected?$CB?6?$AA@ 0047b23c     foundation_win32.release:stdtcpclient.obj
 0002:0000b258       ??_C@_0EB@GLCGDJCN@StdTcpClient?5re?9connect?5failed?5w@ 0047b258     foundation_win32.release:stdtcpclient.obj
 0002:0000b29c       ??_C@_0CN@GAPNPFAB@StdTcpClient?5re?9connect?5failed?5w@ 0047b29c     foundation_win32.release:stdtcpclient.obj
 0002:0000b2cc       ??_7StdTcpClient@Net@@6B@  0047b2cc     foundation_win32.release:stdtcpclient.obj
 0002:0000b2d4       ??_C@_07KDKMIPIP@OPTIONS?$AA@ 0047b2d4     foundation_win32.release:httprequestwriter.obj
 0002:0000b2dc       ??_C@_03HAPOJHBM@GET?$AA@  0047b2dc     foundation_win32.release:httprequestwriter.obj
 0002:0000b2e0       ??_C@_04BINJNOJD@HEAD?$AA@ 0047b2e0     foundation_win32.release:httprequestwriter.obj
 0002:0000b2e8       ??_C@_04HCJEIHPL@POST?$AA@ 0047b2e8     foundation_win32.release:httprequestwriter.obj
 0002:0000b2f0       ??_C@_03KBBGFLEK@PUT?$AA@  0047b2f0     foundation_win32.release:httprequestwriter.obj
 0002:0000b2f4       ??_C@_06FKDAMKFP@DELETE?$AA@ 0047b2f4     foundation_win32.release:httprequestwriter.obj
 0002:0000b2fc       ??_C@_05EHILDPJH@TRACE?$AA@ 0047b2fc     foundation_win32.release:httprequestwriter.obj
 0002:0000b304       ??_C@_07FNNMGOPK@CONNECT?$AA@ 0047b304     foundation_win32.release:httprequestwriter.obj
 0002:0000b30c       ??_C@_0BC@MEIKMFJI@InvalidHttpMethod?$AA@ 0047b30c     foundation_win32.release:httprequestwriter.obj
 0002:0000b320       ??_C@_0BI@NDBIHNBJ@Http?3?3HttpRequestWriter?$AA@ 0047b320     foundation_win32.release:httprequestwriter.obj
 0002:0000b338       ??_C@_0CI@IBLKKCJF@?4?4?2foundation?2http?2httprequestwr@ 0047b338     foundation_win32.release:httprequestwriter.obj
 0002:0000b360       ??_C@_0BE@OJFLCMFP@this?9?$DOuri?4IsValid?$CI?$CJ?$AA@ 0047b360     foundation_win32.release:httprequestwriter.obj
 0002:0000b374       ??_C@_0BC@BPKCPCMK@?$CFs?5?1?$CFs?5HTTP?11?41?$AN?6?$AA@ 0047b374     foundation_win32.release:httprequestwriter.obj
 0002:0000b388       ??_C@_0L@LAAIKCML@Host?3?5?$CFs?$AN?6?$AA@ 0047b388     foundation_win32.release:httprequestwriter.obj
 0002:0000b394       ??_C@_0BB@CAJCOHBO@User?9Agent?3?5?$CFs?$AN?6?$AA@ 0047b394     foundation_win32.release:httprequestwriter.obj
 0002:0000b3a8       ??_C@_0BC@BGDFMCHK@Keep?9Alive?3?5300?$AN?6?$AA@ 0047b3a8     foundation_win32.release:httprequestwriter.obj
 0002:0000b3bc       ??_C@_0BJ@OADPLKKE@Connection?3?5keep?9alive?$AN?6?$AA@ 0047b3bc     foundation_win32.release:httprequestwriter.obj
 0002:0000b3d8       ??_7HttpRequestWriter@Http@@6B@ 0047b3d8     foundation_win32.release:httprequestwriter.obj
 0002:0000b3e8       ??_C@_02PCIJFNDE@?$AN?6?$AA@ 0047b3e8     foundation_win32.release:httprequestwriter.obj
 0002:0000b3ec       ??_C@_0BD@DOHNNGAP@tokens?4Size?$CI?$CJ?5?$DN?$DN?52?$AA@ 0047b3ec     foundation_win32.release:httpresponsereader.obj
 0002:0000b400       ??_C@_0CK@OPLCAKIL@c?3?2nebula3?2code?2foundation?2io?1me@ 0047b400     foundation_win32.release:httpresponsereader.obj
 0002:0000b42c       ??_C@_0O@OGNNOBJO@str?4IsValid?$CI?$CJ?$AA@ 0047b42c     foundation_win32.release:httpresponsereader.obj
 0002:0000b43c       ??_C@_0BJ@KDJCDBAC@Http?3?3HttpResponseReader?$AA@ 0047b43c     foundation_win32.release:httpresponsereader.obj
 0002:0000b458       ??_C@_01CLKCMJKC@?5?$AA@   0047b458     foundation_win32.release:httpresponsereader.obj
 0002:0000b45c       ??_C@_06NIIMPKCC@HTTP?1?$CK?$AA@ 0047b45c     foundation_win32.release:httpresponsereader.obj
 0002:0000b464       ??_C@_01LIIJDEN@?$AN?$AA@  0047b464     foundation_win32.release:httpresponsereader.obj
 0002:0000b468       ??_C@_0BC@JGAHHAAI@Content?9Length?3?5?$CK?$AA@ 0047b468     foundation_win32.release:httpresponsereader.obj
 0002:0000b47c       ??_C@_02BNFKLOHE@?5?3?$AA@ 0047b47c     foundation_win32.release:httpresponsereader.obj
 0002:0000b480       ??_C@_0CJ@CHFLKBLJ@?4?4?2foundation?2http?2httpresponser@ 0047b480     foundation_win32.release:httpresponsereader.obj
 0002:0000b4ac       ??_C@_0BA@DLNMFFGC@Content?9Type?3?5?$CK?$AA@ 0047b4ac     foundation_win32.release:httpresponsereader.obj
 0002:0000b4bc       ??_7HttpResponseReader@Http@@6B@ 0047b4bc     foundation_win32.release:httpresponsereader.obj
 0002:0000b4cc       ??_C@_0BB@NFDHJDJN@IO?3?3StreamReader?$AA@ 0047b4cc     foundation_win32.release:streamreader.obj
 0002:0000b4e0       ??_C@_0CB@DNIOAMNA@?4?4?2foundation?2io?2streamreader?4cc@ 0047b4e0     foundation_win32.release:streamreader.obj
 0002:0000b504       ??_C@_0BI@OLJLGIGH@this?9?$DOstream?9?$DOCanRead?$CI?$CJ?$AA@ 0047b504     foundation_win32.release:streamreader.obj
 0002:0000b520       ??_C@_0HE@IFGMJGON@?$CIthis?9?$DOstream?9?$DOGetAccessMode?$CI?$CJ?5?$DN@ 0047b520     foundation_win32.release:streamreader.obj
 0002:0000b594       ??_7StreamReader@IO@@6B@   0047b594     foundation_win32.release:streamreader.obj
 0002:0000b5a4       ??_C@_0P@HDAIFDDF@IO?3?3TextReader?$AA@ 0047b5a4     foundation_win32.release:textreader.obj
 0002:0000b5b4       ??_7TextReader@IO@@6B@     0047b5b4     foundation_win32.release:textreader.obj
 0002:0000b5c4       ??_C@_03GNABGMEE@100?$AA@  0047b5c4     foundation_win32.release:httpstatus.obj
 0002:0000b5c8       ??_C@_03HPLEMDKK@200?$AA@  0047b5c8     foundation_win32.release:httpstatus.obj
 0002:0000b5cc       ??_C@_03FKNPJMHG@400?$AA@  0047b5cc     foundation_win32.release:httpstatus.obj
 0002:0000b5d0       ??_C@_03HBPCMPLF@403?$AA@  0047b5d0     foundation_win32.release:httpstatus.obj
 0002:0000b5d4       ??_C@_03DOLDFJHC@404?$AA@  0047b5d4     foundation_win32.release:httpstatus.obj
 0002:0000b5d8       ??_C@_03CHKIGIDD@405?$AA@  0047b5d8     foundation_win32.release:httpstatus.obj
 0002:0000b5dc       ??_C@_03MIFDLPA@406?$AA@   0047b5dc     foundation_win32.release:httpstatus.obj
 0002:0000b5e0       ??_C@_03OCGDPLBD@500?$AA@  0047b5e0     foundation_win32.release:httpstatus.obj
 0002:0000b5e4       ??_C@_03MJEOKINA@503?$AA@  0047b5e4     foundation_win32.release:httpstatus.obj
 0002:0000b5e8       ??_C@_03PLHIMKFC@501?$AA@  0047b5e8     foundation_win32.release:httpstatus.obj
 0002:0000b5ec       ??_C@_0BK@OJDOMJCD@Invalid?5HTTP?5status?5code?$CB?$AA@ 0047b5ec     foundation_win32.release:httpstatus.obj
 0002:0000b608       ??_C@_08LJHDLOLO@Continue?$AA@ 0047b608     foundation_win32.release:httpstatus.obj
 0002:0000b614       ??_C@_02GIPFHKNO@OK?$AA@   0047b614     foundation_win32.release:httpstatus.obj
 0002:0000b618       ??_C@_0M@LNAIDEEG@Bad?5Request?$AA@ 0047b618     foundation_win32.release:httpstatus.obj
 0002:0000b624       ??_C@_09LMDIMFJD@Forbidden?$AA@ 0047b624     foundation_win32.release:httpstatus.obj
 0002:0000b630       ??_C@_09CFCBFJND@Not?5Found?$AA@ 0047b630     foundation_win32.release:httpstatus.obj
 0002:0000b63c       ??_C@_0BG@NJGANGCC@Internal?5Server?5Error?$AA@ 0047b63c     foundation_win32.release:httpstatus.obj
 0002:0000b654       ??_C@_0BA@JGKGKAME@Not?5Implemented?$AA@ 0047b654     foundation_win32.release:httpstatus.obj
 0002:0000b664       ??_C@_0BE@NGHLFKBN@Service?5Unavailable?$AA@ 0047b664     foundation_win32.release:httpstatus.obj
 0002:0000b678       ??_C@_0BE@POECGLAC@Invalid?5Status?5Code?$AA@ 0047b678     foundation_win32.release:httpstatus.obj
 0002:0000b68c       ??_C@_0CI@OKHDJOEL@?4?4?2render?2particles?2jobs?2particl@ 0047b68c     render_particlejob_win32.release:particlejob.obj
 0002:0000b6b4       ??_C@_0BB@DOCPNLJI@sampleIndex?5?$DO?$DN?50?$AA@ 0047b6b4     render_particlejob_win32.release:particlejob.obj
 0002:0000b6c8       ??_C@_0CP@OCOIOPON@sampleIndex?5?$DM?5ParticleSystemNumE@ 0047b6c8     render_particlejob_win32.release:particlejob.obj
 0002:0000b6f8       ??_C@_0BL@KFHMCIPB@?$CIin?4position?$CJ?4w?$CI?$CJ?5?$DO?50?4995f?$AA@ 0047b6f8     render_particlejob_win32.release:particlejob.obj
 0002:0000b714       ??_C@_0BL@FNOFCGDI@?$CIin?4position?$CJ?4w?$CI?$CJ?5?$DM?51?4005f?$AA@ 0047b714     render_particlejob_win32.release:particlejob.obj
 0002:0000b730       ??_C@_0BM@FIHHNDMN@?$CIin?4velocity?$CJ?4w?$CI?$CJ?5?$DO?5?90?4005f?$AA@ 0047b730     render_particlejob_win32.release:particlejob.obj
 0002:0000b74c       ??_C@_0BL@OCOAELKM@?$CIin?4velocity?$CJ?4w?$CI?$CJ?5?$DM?50?4005f?$AA@ 0047b74c     render_particlejob_win32.release:particlejob.obj
 0002:0000b768       ??_C@_0BM@EFIFNJOO@?$CIout?4position?$CJ?4w?$CI?$CJ?5?$DO?50?4995f?$AA@ 0047b768     render_particlejob_win32.release:particlejob.obj
 0002:0000b784       ??_C@_0BM@LNBMNHCH@?$CIout?4position?$CJ?4w?$CI?$CJ?5?$DM?51?4005f?$AA@ 0047b784     render_particlejob_win32.release:particlejob.obj
 0002:0000b7a0       ??_C@_0BN@NFJPCHMJ@?$CIout?4velocity?$CJ?4w?$CI?$CJ?5?$DO?5?90?4005f?$AA@ 0047b7a0     render_particlejob_win32.release:particlejob.obj
 0002:0000b7c0       ??_C@_0BM@CBJLKLD@?$CIout?4velocity?$CJ?4w?$CI?$CJ?5?$DM?50?4005f?$AA@ 0047b7c0     render_particlejob_win32.release:particlejob.obj
 0002:0000b7dc       ??_C@_0CO@FOFKMJCJ@ctx?4uniformSizes?$FL0?$FN?5?$DN?$DN?5sizeof?$CIJo@ 0047b7dc     render_particlejob_win32.release:particlejob.obj
 0002:0000b80c       ??_C@_0DI@LDCACBLA@?$CIctx?4outputSizes?$FL0?$FN?5?1?5sizeof?$CIPar@ 0047b80c     render_particlejob_win32.release:particlejob.obj
 0002:0000b844       ??_C@_0DB@NLJJNECB@ctx?4outputSizes?$FL1?$FN?5?$DN?$DN?5sizeof?$CIJob@ 0047b844     render_particlejob_win32.release:particlejob.obj
 0002:0000b878       ??_C@_0BE@HIHJNMPH@2?5?$DN?$DN?5ctx?4numOutputs?$AA@ 0047b878     render_particlejob_win32.release:particlejob.obj
 0002:0000b88c       ??_C@_05GDHACFMB@1?42?43?$AA@ 0047b88c     zlib_win32.release:unzip.obj
 0002:0000b894       ??_C@_0BH@LIBMMIGA@incorrect?5header?5check?$AA@ 0047b894     zlib_win32.release:inflate.obj
 0002:0000b8ac       ??_C@_0BL@IHKGDAEE@unknown?5compression?5method?$AA@ 0047b8ac     zlib_win32.release:inflate.obj
 0002:0000b8c8       ??_C@_0BE@EMOGCLGO@invalid?5window?5size?$AA@ 0047b8c8     zlib_win32.release:inflate.obj
 0002:0000b8dc       ??_C@_0BJ@BLBBCOMO@unknown?5header?5flags?5set?$AA@ 0047b8dc     zlib_win32.release:inflate.obj
 0002:0000b8f8       ??_C@_0BE@GONKLEPM@header?5crc?5mismatch?$AA@ 0047b8f8     zlib_win32.release:inflate.obj
 0002:0000b90c       ??_C@_0BD@PJCBIDD@invalid?5block?5type?$AA@ 0047b90c     zlib_win32.release:inflate.obj
 0002:0000b920       ??_C@_0BN@LGAADGOK@invalid?5stored?5block?5lengths?$AA@ 0047b920     zlib_win32.release:inflate.obj
 0002:0000b940       ??_C@_0CE@GMIGFPBB@too?5many?5length?5or?5distance?5symb@ 0047b940     zlib_win32.release:inflate.obj
 0002:0000b964       ??_C@_0BJ@HDEPPGOH@invalid?5code?5lengths?5set?$AA@ 0047b964     zlib_win32.release:inflate.obj
 0002:0000b980       ??_C@_0BK@BMMPFBBH@invalid?5bit?5length?5repeat?$AA@ 0047b980     zlib_win32.release:inflate.obj
 0002:0000b99c       ??_C@_0BM@IIMGAINC@invalid?5literal?1lengths?5set?$AA@ 0047b99c     zlib_win32.release:inflate.obj
 0002:0000b9b8       ??_C@_0BG@GMDFCBGP@invalid?5distances?5set?$AA@ 0047b9b8     zlib_win32.release:inflate.obj
 0002:0000b9d0       ??_C@_0BM@FFFLPBBC@invalid?5literal?1length?5code?$AA@ 0047b9d0     zlib_win32.release:inflate.obj
 0002:0000b9ec       ??_C@_0BG@LBKINIKP@invalid?5distance?5code?$AA@ 0047b9ec     zlib_win32.release:inflate.obj
 0002:0000ba04       ??_C@_0BO@ECPMAOGG@invalid?5distance?5too?5far?5back?$AA@ 0047ba04     zlib_win32.release:inflate.obj
 0002:0000ba24       ??_C@_0BF@MEIGEHBE@incorrect?5data?5check?$AA@ 0047ba24     zlib_win32.release:inflate.obj
 0002:0000ba3c       ??_C@_0BH@FGKKJGOC@incorrect?5length?5check?$AA@ 0047ba3c     zlib_win32.release:inflate.obj
 0002:0000ba54       ??_C@_0BN@JKNDJNKI@?4?4?2extlibs?2zlib?2ionebula3?4cc?$AA@ 0047ba54     zlib_win32.release:ionebula3.obj
 0002:0000ba78       ??_C@_0EA@FCAAOAMJ@mode?5?$DN?$DN?5?$CIZLIB_FILEFUNC_MODE_READ@ 0047ba78     zlib_win32.release:ionebula3.obj
 0002:0000bab8       ??_C@_0EC@BCGEONEM@nebula3_write_file_func?$CI?$CJ?3?5Writi@ 0047bab8     zlib_win32.release:ionebula3.obj
 0002:0000bafc       ??_C@_0CD@IHFHKNIC@NULL?5pointer?5access?5in?5Ptr?3?3get?$CI@ 0047bafc     zlib_win32.release:ionebula3.obj
 0002:0000bb20       ??_C@_0BF@CJFPCCEG@incompatible?5version?$AA@ 0047bb20     zlib_win32.release:zutil.obj
 0002:0000bb38       ??_C@_0N@DFPGLBGC@buffer?5error?$AA@ 0047bb38     zlib_win32.release:zutil.obj
 0002:0000bb48       ??_C@_0BE@OGGJBMCE@insufficient?5memory?$AA@ 0047bb48     zlib_win32.release:zutil.obj
 0002:0000bb5c       ??_C@_0L@HAHMBNLP@data?5error?$AA@ 0047bb5c     zlib_win32.release:zutil.obj
 0002:0000bb68       ??_C@_0N@MKKNPMJD@stream?5error?$AA@ 0047bb68     zlib_win32.release:zutil.obj
 0002:0000bb78       ??_C@_0L@KIJFAKBJ@file?5error?$AA@ 0047bb78     zlib_win32.release:zutil.obj
 0002:0000bb84       ??_C@_0L@FNAOCBOG@stream?5end?$AA@ 0047bb84     zlib_win32.release:zutil.obj
 0002:0000bb90       ??_C@_0BA@MOKMMFOD@need?5dictionary?$AA@ 0047bb90     zlib_win32.release:zutil.obj
 0002:0000bba0       __real@408f400000000000    0047bba0      CIL library: CIL module
 0002:0000bba8       __real@00000000            0047bba8      CIL library: CIL module
 0002:0000bbac       __real@3f000000            0047bbac      CIL library: CIL module
 0002:0000bbb0       __real@3ba3d70a            0047bbb0      CIL library: CIL module
 0002:0000bbb4       __real@bba3d70a            0047bbb4      CIL library: CIL module
 0002:0000bbb8       __real@3f80a3d7            0047bbb8      CIL library: CIL module
 0002:0000bbbc       __real@3f7eb852            0047bbbc      CIL library: CIL module
 0002:0000bbc0       __real@433f0000            0047bbc0      CIL library: CIL module
 0002:0000bbc8       __real@0000000000000000    0047bbc8      CIL library: CIL module
 0002:0000bbd0       __real@3f800000            0047bbd0      CIL library: CIL module
 0002:0000bbd4       __real@c97423f0            0047bbd4      CIL library: CIL module
 0002:0000bbd8       __real@497423f0            0047bbd8      CIL library: CIL module
 0002:0000bbdc       __real@3f82fa83            0047bbdc      CIL library: CIL module
 0002:0000bbe0       __real@3fc615ec            0047bbe0      CIL library: CIL module
 0002:0000bbe4       __real@3f8428cc            0047bbe4      CIL library: CIL module
 0002:0000bbe8       __real@3fc7df1a            0047bbe8      CIL library: CIL module
 0002:0000bbec       __real@3f855715            0047bbec      CIL library: CIL module
 0002:0000bbf0       __real@3fc9a83f            0047bbf0      CIL library: CIL module
 0002:0000bbf4       __real@3f868566            0047bbf4      CIL library: CIL module
 0002:0000bbf8       __real@3fcb716d            0047bbf8      CIL library: CIL module
 0002:0000bbfc       __real@406200e7            0047bbfc      CIL library: CIL module
 0002:0000bc00       __real@3f87b3af            0047bc00      CIL library: CIL module
 0002:0000bc04       __real@3fcd3a93            0047bc04      CIL library: CIL module
 0002:0000bc08       __real@3f5bff58            0047bc08      CIL library: CIL module
 0002:0000bc0c       __real@3f88e1f8            0047bc0c      CIL library: CIL module
 0002:0000bc10       __real@3fcf03c0            0047bc10      CIL library: CIL module
 0002:0000bc14       __real@40802fe0            0047bc14      CIL library: CIL module
 0002:0000bc18       __real@3f8a1041            0047bc18      CIL library: CIL module
 0002:0000bc1c       __real@3fd0ccee            0047bc1c      CIL library: CIL module
 0002:0000bc20       __real@40386c1e            0047bc20      CIL library: CIL module
 0002:0000bc24       __real@3f8b3e8a            0047bc24      CIL library: CIL module
 0002:0000bc28       __real@3fd29614            0047bc28      CIL library: CIL module
 0002:0000bc2c       __real@bf3c7b46            0047bc2c      CIL library: CIL module
 0002:0000bc30       __real@3f8c6cd3            0047bc30      CIL library: CIL module
 0002:0000bc34       __real@3fd45f42            0047bc34      CIL library: CIL module
 0002:0000bc38       __real@4048d90a            0047bc38      CIL library: CIL module
 0002:0000bc3c       __real@3f8d9b1b            0047bc3c      CIL library: CIL module
 0002:0000bc40       __real@3fd62867            0047bc40      CIL library: CIL module
 0002:0000bc44       __real@400cb520            0047bc44      CIL library: CIL module
 0002:0000bc48       __real@3f8ec964            0047bc48      CIL library: CIL module
 0002:0000bc4c       __real@3fd7f195            0047bc4c      CIL library: CIL module
 0002:0000bc50       __real@40390803            0047bc50      CIL library: CIL module
 0002:0000bc54       __real@3f8ff7ad            0047bc54      CIL library: CIL module
 0002:0000bc58       __real@3fd9bac3            0047bc58      CIL library: CIL module
 0002:0000bc5c       __real@3f77b1f2            0047bc5c      CIL library: CIL module
 0002:0000bc60       __real@3f9125f6            0047bc60      CIL library: CIL module
 0002:0000bc64       __real@3fdb83e8            0047bc64      CIL library: CIL module
 0002:0000bc68       __real@c0583de2            0047bc68      CIL library: CIL module
 0002:0000bc6c       __real@3f92543f            0047bc6c      CIL library: CIL module
 0002:0000bc70       __real@3fdd4d16            0047bc70      CIL library: CIL module
 0002:0000bc74       __real@c05df330            0047bc74      CIL library: CIL module
 0002:0000bc78       __real@3f938288            0047bc78      CIL library: CIL module
 0002:0000bc7c       __real@3fdf163c            0047bc7c      CIL library: CIL module
 0002:0000bc80       __real@3f88c405            0047bc80      CIL library: CIL module
 0002:0000bc84       __real@3f94b0d9            0047bc84      CIL library: CIL module
 0002:0000bc88       __real@3fe0df6a            0047bc88      CIL library: CIL module
 0002:0000bc8c       __real@401c1bb9            0047bc8c      CIL library: CIL module
 0002:0000bc90       __real@3f95df22            0047bc90      CIL library: CIL module
 0002:0000bc94       __real@3fe2a88f            0047bc94      CIL library: CIL module
 0002:0000bc98       __real@3f1d4f8b            0047bc98      CIL library: CIL module
 0002:0000bc9c       __real@3f970d6b            0047bc9c      CIL library: CIL module
 0002:0000bca0       __real@3fe471bd            0047bca0      CIL library: CIL module
 0002:0000bca4       __real@3f785a0c            0047bca4      CIL library: CIL module
 0002:0000bca8       __real@3f983bb4            0047bca8      CIL library: CIL module
 0002:0000bcac       __real@3fe63aeb            0047bcac      CIL library: CIL module
 0002:0000bcb0       __real@bfc5040c            0047bcb0      CIL library: CIL module
 0002:0000bcb4       __real@3f9969fd            0047bcb4      CIL library: CIL module
 0002:0000bcb8       __real@3fe80410            0047bcb8      CIL library: CIL module
 0002:0000bcbc       __real@c05a7681            0047bcbc      CIL library: CIL module
 0002:0000bcc0       __real@3f9a9846            0047bcc0      CIL library: CIL module
 0002:0000bcc4       __real@3fe9cd3e            0047bcc4      CIL library: CIL module
 0002:0000bcc8       __real@c06c3793            0047bcc8      CIL library: CIL module
 0002:0000bccc       __real@3f9bc68f            0047bccc      CIL library: CIL module
 0002:0000bcd0       __real@3feb9664            0047bcd0      CIL library: CIL module
 0002:0000bcd4       __real@4080a425            0047bcd4      CIL library: CIL module
 0002:0000bcd8       __real@3f9cf4d8            0047bcd8      CIL library: CIL module
 0002:0000bcdc       __real@3fed5f91            0047bcdc      CIL library: CIL module
 0002:0000bce0       __real@bf55bf38            0047bce0      CIL library: CIL module
 0002:0000bce4       __real@3f9e2321            0047bce4      CIL library: CIL module
 0002:0000bce8       __real@3fef28b7            0047bce8      CIL library: CIL module
 0002:0000bcec       __real@3f8f77f2            0047bcec      CIL library: CIL module
 0002:0000bcf0       __real@3f9f5169            0047bcf0      CIL library: CIL module
 0002:0000bcf4       __real@3ff0f1e5            0047bcf4      CIL library: CIL module
 0002:0000bcf8       __real@3fd5585c            0047bcf8      CIL library: CIL module
 0002:0000bcfc       __real@3fa07fbb            0047bcfc      CIL library: CIL module
 0002:0000bd00       __real@3ff2bb13            0047bd00      CIL library: CIL module
 0002:0000bd04       __real@c0722867            0047bd04      CIL library: CIL module
 0002:0000bd08       __real@3fa1ae04            0047bd08      CIL library: CIL module
 0002:0000bd0c       __real@3ff48438            0047bd0c      CIL library: CIL module
 0002:0000bd10       __real@3f49be1b            0047bd10      CIL library: CIL module
 0002:0000bd14       __real@3fa2dc4d            0047bd14      CIL library: CIL module
 0002:0000bd18       __real@3ff64d66            0047bd18      CIL library: CIL module
 0002:0000bd1c       __real@3f38b7e5            0047bd1c      CIL library: CIL module
 0002:0000bd20       __real@c0695515            0047bd20      CIL library: CIL module
 0002:0000bd24       __real@3f2ef8ad            0047bd24      CIL library: CIL module
 0002:0000bd28       __real@3ffa6f82            0047bd28      CIL library: CIL module
 0002:0000bd2c       __real@3fa40a96            0047bd2c      CIL library: CIL module
 0002:0000bd30       __real@3ff8168b            0047bd30      CIL library: CIL module
 0002:0000bd34       __real@3f0f6156            0047bd34      CIL library: CIL module
 0002:0000bd38       __real@3ff72485            0047bd38      CIL library: CIL module
 0002:0000bd3c       __real@3fb57ca2            0047bd3c      CIL library: CIL module
 0002:0000bd40       __real@c05b5508            0047bd40      CIL library: CIL module
 0002:0000bd44       __real@3fa538de            0047bd44      CIL library: CIL module
 0002:0000bd48       __real@3ff9dfb9            0047bd48      CIL library: CIL module
 0002:0000bd4c       __real@3f792114            0047bd4c      CIL library: CIL module
 0002:0000bd50       __real@402d33db            0047bd50      CIL library: CIL module
 0002:0000bd54       __real@3fa806d9            0047bd54      CIL library: CIL module
 0002:0000bd58       __real@403a89e3            0047bd58      CIL library: CIL module
 0002:0000bd5c       __real@3fa66727            0047bd5c      CIL library: CIL module
 0002:0000bd60       __real@3ffba8e7            0047bd60      CIL library: CIL module
 0002:0000bd64       __real@3f555810            0047bd64      CIL library: CIL module
 0002:0000bd68       __real@bcb7cfe6            0047bd68      CIL library: CIL module
 0002:0000bd6c       __real@40123c3a            0047bd6c      CIL library: CIL module
 0002:0000bd70       __real@405f470b            0047bd70      CIL library: CIL module
 0002:0000bd74       __real@3fa79570            0047bd74      CIL library: CIL module
 0002:0000bd78       __real@3ffd720d            0047bd78      CIL library: CIL module
 0002:0000bd7c       __real@3f2c13a9            0047bd7c      CIL library: CIL module
 0002:0000bd80       __real@3fd2f5ed            0047bd80      CIL library: CIL module
 0002:0000bd84       __real@3f6ff898            0047bd84      CIL library: CIL module
 0002:0000bd88       __real@c06e337f            0047bd88      CIL library: CIL module
 0002:0000bd8c       __real@3fa8c3b9            0047bd8c      CIL library: CIL module
 0002:0000bd90       __real@3fff3b3a            0047bd90      CIL library: CIL module
 0002:0000bd94       __real@3f6b5be6            0047bd94      CIL library: CIL module
 0002:0000bd98       __real@3e5d6fdb            0047bd98      CIL library: CIL module
 0002:0000bd9c       __real@c05eba8c            0047bd9c      CIL library: CIL module
 0002:0000bda0       __real@3ff84207            0047bda0      CIL library: CIL module
 0002:0000bda4       __real@3fa18b1e            0047bda4      CIL library: CIL module
 0002:0000bda8       __real@3fa9f202            0047bda8      CIL library: CIL module
 0002:0000bdac       __real@40008230            0047bdac      CIL library: CIL module
 0002:0000bdb0       __real@3fab204b            0047bdb0      CIL library: CIL module
 0002:0000bdb4       __real@400166c7            0047bdb4      CIL library: CIL module
 0002:0000bdb8       __real@3fac4e94            0047bdb8      CIL library: CIL module
 0002:0000bdbc       __real@40024b5a            0047bdbc      CIL library: CIL module
 0002:0000bdc0       __real@3fad7ce5            0047bdc0      CIL library: CIL module
 0002:0000bdc4       __real@40032ff1            0047bdc4      CIL library: CIL module
 0002:0000bdc8       __real@3faeab2e            0047bdc8      CIL library: CIL module
 0002:0000bdcc       __real@40041487            0047bdcc      CIL library: CIL module
 0002:0000bdd0       __real@3fafd977            0047bdd0      CIL library: CIL module
 0002:0000bdd4       __real@4004f91a            0047bdd4      CIL library: CIL module
 0002:0000bdd8       __real@3fb107c0            0047bdd8      CIL library: CIL module
 0002:0000bddc       __real@4005ddb1            0047bddc      CIL library: CIL module
 0002:0000bde0       __real@3fb23609            0047bde0      CIL library: CIL module
 0002:0000bde4       __real@4006c248            0047bde4      CIL library: CIL module
 0002:0000bde8       __real@3fb36452            0047bde8      CIL library: CIL module
 0002:0000bdec       __real@4007a6db            0047bdec      CIL library: CIL module
 0002:0000bdf0       __real@3fb4929b            0047bdf0      CIL library: CIL module
 0002:0000bdf4       __real@40088b72            0047bdf4      CIL library: CIL module
 0002:0000bdf8       __real@3fb5c0e4            0047bdf8      CIL library: CIL module
 0002:0000bdfc       __real@40097004            0047bdfc      CIL library: CIL module
 0002:0000be00       __real@3fb6ef2c            0047be00      CIL library: CIL module
 0002:0000be04       __real@400a549b            0047be04      CIL library: CIL module
 0002:0000be08       __real@3fb81d75            0047be08      CIL library: CIL module
 0002:0000be0c       __real@400b392e            0047be0c      CIL library: CIL module
 0002:0000be10       __real@3fb94bbe            0047be10      CIL library: CIL module
 0002:0000be14       __real@400c1dc5            0047be14      CIL library: CIL module
 0002:0000be18       __real@3fba7a10            0047be18      CIL library: CIL module
 0002:0000be1c       __real@400d025c            0047be1c      CIL library: CIL module
 0002:0000be20       __real@3fbba858            0047be20      CIL library: CIL module
 0002:0000be24       __real@400de6ef            0047be24      CIL library: CIL module
 0002:0000be28       __real@3cce3fff            0047be28      CIL library: CIL module
 0002:0000be2c       __real@3d06b053            0047be2c      CIL library: CIL module
 0002:0000be30       __real@3fa72e51            0047be30      CIL library: CIL module
 0002:0000be34       __real@3f53b18e            0047be34      CIL library: CIL module
 0002:0000be38       __real@3e435c18            0047be38      CIL library: CIL module
 0002:0000be3c       __real@bede4fb9            0047be3c      CIL library: CIL module
 0002:0000be40       __real@3da650e7            0047be40      CIL library: CIL module
 0002:0000be44       __real@3e04538f            0047be44      CIL library: CIL module
 0002:0000be48       __real@3fbd9885            0047be48      CIL library: CIL module
 0002:0000be4c       __real@408dd133            0047be4c      CIL library: CIL module
 0002:0000be50       __real@3cab6ae8            0047be50      CIL library: CIL module
 0002:0000be54       __real@3f829763            0047be54      CIL library: CIL module
 0002:0000be58       __real@c0eee8a5            0047be58      CIL library: CIL module
 0002:0000be5c       __real@3c9148fe            0047be5c      CIL library: CIL module
 0002:0000be60       __real@3cdbb9d0            0047be60      CIL library: CIL module
 0002:0000be64       __real@3f695f24            0047be64      CIL library: CIL module
 0002:0000be68       __real@3e551d69            0047be68      CIL library: CIL module
 0002:0000be6c       __real@bee47eae            0047be6c      CIL library: CIL module
 0002:0000be70       __real@3d8a98ab            0047be70      CIL library: CIL module
 0002:0000be74       __real@bffd8aa0            0047be74      CIL library: CIL module
 0002:0000be78       __real@4013232d            0047be78      CIL library: CIL module
 0002:0000be7c       __real@4058f0d0            0047be7c      CIL library: CIL module
 0002:0000be80       __real@bd416bdb            0047be80      CIL library: CIL module
 0002:0000be84       __real@3f842b49            0047be84      CIL library: CIL module
 0002:0000be88       __real@c0ee17b9            0047be88      CIL library: CIL module
 0002:0000be8c       __real@3cdcdb38            0047be8c      CIL library: CIL module
 0002:0000be90       __real@3d270197            0047be90      CIL library: CIL module
 0002:0000be94       __real@3f0c3255            0047be94      CIL library: CIL module
 0002:0000be98       __real@3e02bb23            0047be98      CIL library: CIL module
 0002:0000be9c       __real@bed820a3            0047be9c      CIL library: CIL module
 0002:0000bea0       __real@3dc20924            0047bea0      CIL library: CIL module
 0002:0000bea4       __real@3f0f764f            0047bea4      CIL library: CIL module
 0002:0000bea8       __real@3ff67497            0047bea8      CIL library: CIL module
 0002:0000beac       __real@c047fece            0047beac      CIL library: CIL module
 0002:0000beb0       __real@bc4100e7            0047beb0      CIL library: CIL module
 0002:0000beb4       __real@3f833ecd            0047beb4      CIL library: CIL module
 0002:0000beb8       __real@c0f227bf            0047beb8      CIL library: CIL module
 0002:0000bebc       __real@3d1436b9            0047bebc      CIL library: CIL module
 0002:0000bec0       __real@3d602752            0047bec0      CIL library: CIL module
 0002:0000bec4       __real@3f5ce6b0            0047bec4      CIL library: CIL module
 0002:0000bec8       __real@3e5460aa            0047bec8      CIL library: CIL module
 0002:0000becc       __real@3ec593a3            0047becc      CIL library: CIL module
 0002:0000bed0       __real@3e0a98ee            0047bed0      CIL library: CIL module
 0002:0000bed4       __real@c059cec8            0047bed4      CIL library: CIL module
 0002:0000bed8       __real@3ed9e1f4            0047bed8      CIL library: CIL module
 0002:0000bedc       __real@403c74e2            0047bedc      CIL library: CIL module
 0002:0000bee0       __real@bca85a92            0047bee0      CIL library: CIL module
 0002:0000bee4       __real@3f80a2b1            0047bee4      CIL library: CIL module
 0002:0000bee8       __real@c0ee7cb7            0047bee8      CIL library: CIL module
 0002:0000beec       __real@3d39ffd6            0047beec      CIL library: CIL module
 0002:0000bef0       __real@3d8ca687            0047bef0      CIL library: CIL module
 0002:0000bef4       __real@3f1f2ce9            0047bef4      CIL library: CIL module
 0002:0000bef8       __real@3e1da33c            0047bef8      CIL library: CIL module
 0002:0000befc       __real@beb30681            0047befc      CIL library: CIL module
 0002:0000bf00       __real@3e342d06            0047bf00      CIL library: CIL module
 0002:0000bf04       __real@c0312e62            0047bf04      CIL library: CIL module
 0002:0000bf08       __real@3fb19903            0047bf08      CIL library: CIL module
 0002:0000bf0c       __real@c01163e0            0047bf0c      CIL library: CIL module
 0002:0000bf10       __real@bc135760            0047bf10      CIL library: CIL module
 0002:0000bf14       __real@3f81ce53            0047bf14      CIL library: CIL module
 0002:0000bf18       __real@c0f186c2            0047bf18      CIL library: CIL module
 0002:0000bf1c       __real@3d5fca00            0047bf1c      CIL library: CIL module
 0002:0000bf20       __real@3da938de            0047bf20      CIL library: CIL module
 0002:0000bf24       __real@3f2a7e0f            0047bf24      CIL library: CIL module
 0002:0000bf28       __real@3e2c2225            0047bf28      CIL library: CIL module
 0002:0000bf2c       __real@bea6a876            0047bf2c      CIL library: CIL module
 0002:0000bf30       __real@3e4fe543            0047bf30      CIL library: CIL module
 0002:0000bf34       __real@4082108e            0047bf34      CIL library: CIL module
 0002:0000bf38       __real@3f4c0b03            0047bf38      CIL library: CIL module
 0002:0000bf3c       __real@be3aad1d            0047bf3c      CIL library: CIL module
 0002:0000bf40       __real@3c945953            0047bf40      CIL library: CIL module
 0002:0000bf44       __real@3f80ef78            0047bf44      CIL library: CIL module
 0002:0000bf48       __real@c0ef98ee            0047bf48      CIL library: CIL module
 0002:0000bf4c       __real@3d82c98e            0047bf4c      CIL library: CIL module
 0002:0000bf50       __real@3dc5cbbc            0047bf50      CIL library: CIL module
 0002:0000bf54       __real@3f759296            0047bf54      CIL library: CIL module
 0002:0000bf58       __real@3e7f0a5f            0047bf58      CIL library: CIL module
 0002:0000bf5c       __real@3e941b76            0047bf5c      CIL library: CIL module
 0002:0000bf60       __real@3e79795b            0047bf60      CIL library: CIL module
 0002:0000bf64       __real@4054eb18            0047bf64      CIL library: CIL module
 0002:0000bf68       __real@3f5cdc44            0047bf68      CIL library: CIL module
 0002:0000bf6c       __real@bfef1162            0047bf6c      CIL library: CIL module
 0002:0000bf70       __real@3bd04e62            0047bf70      CIL library: CIL module
 0002:0000bf74       __real@3f80d8d3            0047bf74      CIL library: CIL module
 0002:0000bf78       __real@c0f133ea            0047bf78      CIL library: CIL module
 0002:0000bf7c       __real@3d95ae1d            0047bf7c      CIL library: CIL module
 0002:0000bf80       __real@3de25e14            0047bf80      CIL library: CIL module
 0002:0000bf84       __real@3f31c5e7            0047bf84      CIL library: CIL module
 0002:0000bf88       __real@3e3dc50d            0047bf88      CIL library: CIL module
 0002:0000bf8c       __real@be818e54            0047bf8c      CIL library: CIL module
 0002:0000bf90       __real@3e9186db            0047bf90      CIL library: CIL module
 0002:0000bf94       __real@c01cbfbe            0047bf94      CIL library: CIL module
 0002:0000bf98       __real@3e3cd9e8            0047bf98      CIL library: CIL module
 0002:0000bf9c       __real@407ad7d8            0047bf9c      CIL library: CIL module
 0002:0000bfa0       __real@3b849cb2            0047bfa0      CIL library: CIL module
 0002:0000bfa4       __real@3f80254a            0047bfa4      CIL library: CIL module
 0002:0000bfa8       __real@c0eeb7fa            0047bfa8      CIL library: CIL module
 0002:0000bfac       __real@3da892ab            0047bfac      CIL library: CIL module
 0002:0000bfb0       __real@3dfef0f1            0047bfb0      CIL library: CIL module
 0002:0000bfb4       __real@3f2bd7e4            0047bfb4      CIL library: CIL module
 0002:0000bfb8       __real@3e3ac109            0047bfb8      CIL library: CIL module
 0002:0000bfbc       __real@3e6a6091            0047bfbc      CIL library: CIL module
 0002:0000bfc0       __real@3e9f62fa            0047bfc0      CIL library: CIL module
 0002:0000bfc4       __real@beea684d            0047bfc4      CIL library: CIL module
 0002:0000bfc8       __real@3f7e29d8            0047bfc8      CIL library: CIL module
 0002:0000bfcc       __real@c05f5597            0047bfcc      CIL library: CIL module
 0002:0000bfd0       __real@3c898f60            0047bfd0      CIL library: CIL module
 0002:0000bfd4       __real@3f80a83b            0047bfd4      CIL library: CIL module
 0002:0000bfd8       __real@c0f1476b            0047bfd8      CIL library: CIL module
 0002:0000bfdc       __real@3dbb773a            0047bfdc      CIL library: CIL module
 0002:0000bfe0       __real@3e0dc1a4            0047bfe0      CIL library: CIL module
 0002:0000bfe4       __real@3f5059ea            0047bfe4      CIL library: CIL module
 0002:0000bfe8       __real@3e6874c9            0047bfe8      CIL library: CIL module
 0002:0000bfec       __real@3e454691            0047bfec      CIL library: CIL module
 0002:0000bff0       __real@3eb42d06            0047bff0      CIL library: CIL module
 0002:0000bff4       __real@c01664f9            0047bff4      CIL library: CIL module
 0002:0000bff8       __real@4010ca3a            0047bff8      CIL library: CIL module
 0002:0000bffc       __real@c003be90            0047bffc      CIL library: CIL module
 0002:0000c000       __real@bcf33871            0047c000      CIL library: CIL module
 0002:0000c004       __real@3f814c3c            0047c004      CIL library: CIL module
 0002:0000c008       __real@c0efc244            0047c008      CIL library: CIL module
 0002:0000c00c       __real@3dce5bc8            0047c00c      CIL library: CIL module
 0002:0000c010       __real@3e1c0b13            0047c010      CIL library: CIL module
 0002:0000c014       __real@3f12b26c            0047c014      CIL library: CIL module
 0002:0000c018       __real@3e27e996            0047c018      CIL library: CIL module
 0002:0000c01c       __real@3e202c4d            0047c01c      CIL library: CIL module
 0002:0000c020       __real@3ec8f734            0047c020      CIL library: CIL module
 0002:0000c024       __real@4048a0f1            0047c024      CIL library: CIL module
 0002:0000c028       __real@3eaa3876            0047c028      CIL library: CIL module
 0002:0000c02c       __real@c00e56b8            0047c02c      CIL library: CIL module
 0002:0000c030       __real@bbc12275            0047c030      CIL library: CIL module
 0002:0000c034       __real@3f802e1b            0047c034      CIL library: CIL module
 0002:0000c038       __real@c0f0fc98            0047c038      CIL library: CIL module
 0002:0000c03c       __real@3de14057            0047c03c      CIL library: CIL module
 0002:0000c040       __real@3e2a5482            0047c040      CIL library: CIL module
 0002:0000c044       __real@3f538c33            0047c044      CIL library: CIL module
 0002:0000c048       __real@3e74ee39            0047c048      CIL library: CIL module
 0002:0000c04c       __real@be1854ce            0047c04c      CIL library: CIL module
 0002:0000c050       __real@3ed6d352            0047c050      CIL library: CIL module
 0002:0000c054       __real@400d013b            0047c054      CIL library: CIL module
 0002:0000c058       __real@3eac30f5            0047c058      CIL library: CIL module
 0002:0000c05c       __real@c0401316            0047c05c      CIL library: CIL module
 0002:0000c060       __real@3ce6516e            0047c060      CIL library: CIL module
 0002:0000c064       __real@3f802ccb            0047c064      CIL library: CIL module
 0002:0000c068       __real@c0efd8cb            0047c068      CIL library: CIL module
 0002:0000c06c       __real@3df424e6            0047c06c      CIL library: CIL module
 0002:0000c070       __real@3e389dae            0047c070      CIL library: CIL module
 0002:0000c074       __real@3f1d39eb            0047c074      CIL library: CIL module
 0002:0000c078       __real@3e3849cb            0047c078      CIL library: CIL module
 0002:0000c07c       __real@be103969            0047c07c      CIL library: CIL module
 0002:0000c080       __real@3eeb9d5e            0047c080      CIL library: CIL module
 0002:0000c084       __real@c0443cc0            0047c084      CIL library: CIL module
 0002:0000c088       __real@3f6b5665            0047c088      CIL library: CIL module
 0002:0000c08c       __real@c00a54e3            0047c08c      CIL library: CIL module
 0002:0000c090       __real@3bf483cb            0047c090      CIL library: CIL module
 0002:0000c094       __real@3f8072eb            0047c094      CIL library: CIL module
 0002:0000c098       __real@c0f0f139            0047c098      CIL library: CIL module
 0002:0000c09c       __real@3e0384ba            0047c09c      CIL library: CIL module
 0002:0000c0a0       __real@3e46e71d            0047c0a0      CIL library: CIL module
 0002:0000c0a4       __real@3f77a9a0            0047c0a4      CIL library: CIL module
 0002:0000c0a8       __real@3e92eb3e            0047c0a8      CIL library: CIL module
 0002:0000c0ac       __real@3e081e47            0047c0ac      CIL library: CIL module
 0002:0000c0b0       __real@3efbf6a1            0047c0b0      CIL library: CIL module
 0002:0000c0b4       __real@3ff83de6            0047c0b4      CIL library: CIL module
 0002:0000c0b8       __real@401b7332            0047c0b8      CIL library: CIL module
 0002:0000c0bc       __real@c0119b4e            0047c0bc      CIL library: CIL module
 0002:0000c0c0       __real@bc48a372            0047c0c0      CIL library: CIL module
 0002:0000c0c4       __real@3f811bbd            0047c0c4      CIL library: CIL module
 0002:0000c0c8       __real@c0efb51c            0047c0c8      CIL library: CIL module
 0002:0000c0cc       __real@3e0cf701            0047c0cc      CIL library: CIL module
 0002:0000c0d0       __real@3e553049            0047c0d0      CIL library: CIL module
 0002:0000c0d4       __real@3f7aa348            0047c0d4      CIL library: CIL module
 0002:0000c0d8       __real@3e95e13b            0047c0d8      CIL library: CIL module
 0002:0000c0dc       __real@3e02b6ae            0047c0dc      CIL library: CIL module
 0002:0000c0e0       __real@3ef7ce31            0047c0e0      CIL library: CIL module
 0002:0000c0e4       __real@c022588a            0047c0e4      CIL library: CIL module
 0002:0000c0e8       __real@3f72ece1            0047c0e8      CIL library: CIL module
 0002:0000c0ec       __real@406e0baf            0047c0ec      CIL library: CIL module
 0002:0000c0f0       __real@bce390c9            0047c0f0      CIL library: CIL module
 0002:0000c0f4       __real@3f8069ad            0047c0f4      CIL library: CIL module
 0002:0000c0f8       __real@c0f0444c            0047c0f8      CIL library: CIL module
 0002:0000c0fc       __real@3e166949            0047c0fc      CIL library: CIL module
 0002:0000c100       __real@3e6379b7            0047c100      CIL library: CIL module
 0002:0000c104       __real@3f4ed6cb            0047c104      CIL library: CIL module
 0002:0000c108       __real@3e7a56de            0047c108      CIL library: CIL module
 0002:0000c10c       __real@3df53693            0047c10c      CIL library: CIL module
 0002:0000c110       __real@3ef1919b            0047c110      CIL library: CIL module
 0002:0000c114       __real@3f5c6738            0047c114      CIL library: CIL module
 0002:0000c118       __real@40018d7e            0047c118      CIL library: CIL module
 0002:0000c11c       __real@4082b098            0047c11c      CIL library: CIL module
 0002:0000c120       __real@3cb328b7            0047c120      CIL library: CIL module
 0002:0000c124       __real@3f80d0d5            0047c124      CIL library: CIL module
 0002:0000c128       __real@c0ef0783            0047c128      CIL library: CIL module
 0002:0000c12c       __real@3e1fdbd3            0047c12c      CIL library: CIL module
 0002:0000c130       __real@3e71c326            0047c130      CIL library: CIL module
 0002:0000c134       __real@3f23326a            0047c134      CIL library: CIL module
 0002:0000c138       __real@3e47dae8            0047c138      CIL library: CIL module
 0002:0000c13c       __real@3de50050            0047c13c      CIL library: CIL module
 0002:0000c140       __real@3eeb54e3            0047c140      CIL library: CIL module
 0002:0000c144       __real@3fda7200            0047c144      CIL library: CIL module
 0002:0000c148       __real@3ff985ad            0047c148      CIL library: CIL module
 0002:0000c14c       __real@40745e2d            0047c14c      CIL library: CIL module
 0002:0000c150       __real@3cc577d9            0047c150      CIL library: CIL module
 0002:0000c154       __real@3f80b924            0047c154      CIL library: CIL module
 0002:0000c158       __real@c0f04f01            0047c158      CIL library: CIL module
 0002:0000c15c       __real@3e294e1a            0047c15c      CIL library: CIL module
 0002:0000c160       __real@3e800629            0047c160      CIL library: CIL module
 0002:0000c164       __real@3f76598e            0047c164      CIL library: CIL module
 0002:0000c168       __real@3e9804fb            0047c168      CIL library: CIL module
 0002:0000c16c       __real@bdda311f            0047c16c      CIL library: CIL module
 0002:0000c170       __real@3ee72c95            0047c170      CIL library: CIL module
 0002:0000c174       __real@c06d8a26            0047c174      CIL library: CIL module
 0002:0000c178       __real@3ff5f2c3            0047c178      CIL library: CIL module
 0002:0000c17c       __real@3ecdb78d            0047c17c      CIL library: CIL module
 0002:0000c180       __real@bcf0025c            0047c180      CIL library: CIL module
 0002:0000c184       __real@3f80ac00            0047c184      CIL library: CIL module
 0002:0000c188       __real@c0ef6608            0047c188      CIL library: CIL module
 0002:0000c18c       __real@3e32c062            0047c18c      CIL library: CIL module
 0002:0000c190       __real@3e872ae0            0047c190      CIL library: CIL module
 0002:0000c194       __real@3f10054f            0047c194      CIL library: CIL module
 0002:0000c198       __real@3e33cf2d            0047c198      CIL library: CIL module
 0002:0000c19c       __real@3dc9fa55            0047c19c      CIL library: CIL module
 0002:0000c1a0       __real@3ee0efdd            0047c1a0      CIL library: CIL module
 0002:0000c1a4       __real@3f2e9153            0047c1a4      CIL library: CIL module
 0002:0000c1a8       __real@3fc7670a            0047c1a8      CIL library: CIL module
 0002:0000c1ac       __real@408b103a            0047c1ac      CIL library: CIL module
 0002:0000c1b0       __real@bc8e4756            0047c1b0      CIL library: CIL module
 0002:0000c1b4       __real@3f808616            0047c1b4      CIL library: CIL module
 0002:0000c1b8       __real@c0f04af7            0047c1b8      CIL library: CIL module
 0002:0000c1bc       __real@3e3c32a9            0047c1bc      CIL library: CIL module
 0002:0000c1c0       __real@3e8e4f76            0047c1c0      CIL library: CIL module
 0002:0000c1c4       __real@3f60304d            0047c1c4      CIL library: CIL module
 0002:0000c1c8       __real@3e8d8dde            0047c1c8      CIL library: CIL module
 0002:0000c1cc       __real@3db9c38b            0047c1cc      CIL library: CIL module
 0002:0000c1d0       __real@3edab346            0047c1d0      CIL library: CIL module
 0002:0000c1d4       __real@3f9bcbbc            0047c1d4      CIL library: CIL module
 0002:0000c1d8       __real@3fcbfa3c            0047c1d8      CIL library: CIL module
 0002:0000c1dc       __real@40865875            0047c1dc      CIL library: CIL module
 0002:0000c1e0       __real@3cb6bb13            0047c1e0      CIL library: CIL module
 0002:0000c1e4       __real@3f8086f9            0047c1e4      CIL library: CIL module
 0002:0000c1e8       __real@c0ef1579            0047c1e8      CIL library: CIL module
 0002:0000c1ec       __real@3e45a4f0            0047c1ec      CIL library: CIL module
 0002:0000c1f0       __real@3e95742e            0047c1f0      CIL library: CIL module
 0002:0000c1f4       __real@3f2881d4            0047c1f4      CIL library: CIL module
 0002:0000c1f8       __real@3e5666aa            0047c1f8      CIL library: CIL module
 0002:0000c1fc       __real@3daef4e0            0047c1fc      CIL library: CIL module
 0002:0000c200       __real@3ed68ad7            0047c200      CIL library: CIL module
 0002:0000c204       __real@bfc64aa5            0047c204      CIL library: CIL module
 0002:0000c208       __real@3f3571d2            0047c208      CIL library: CIL module
 0002:0000c20c       __real@c051a509            0047c20c      CIL library: CIL module
 0002:0000c210       __real@3c78fcd6            0047c210      CIL library: CIL module
 0002:0000c214       __real@3f803b69            0047c214      CIL library: CIL module
 0002:0000c218       __real@c0f0ecc8            0047c218      CIL library: CIL module
 0002:0000c21c       __real@3e4f1737            0047c21c      CIL library: CIL module
 0002:0000c220       __real@3e9c98c4            0047c220      CIL library: CIL module
 0002:0000c224       __real@3f7fa51a            0047c224      CIL library: CIL module
 0002:0000c228       __real@3ea47757            0047c228      CIL library: CIL module
 0002:0000c22c       __real@bd9ebe16            0047c22c      CIL library: CIL module
 0002:0000c230       __real@3ed04e1e            0047c230      CIL library: CIL module
 0002:0000c234       __real@bf81aebc            0047c234      CIL library: CIL module
 0002:0000c238       __real@3e1375c9            0047c238      CIL library: CIL module
 0002:0000c23c       __real@c060a259            0047c23c      CIL library: CIL module
 0002:0000c240       __real@bcb1d4fa            0047c240      CIL library: CIL module
 0002:0000c244       __real@3f800bdd            0047c244      CIL library: CIL module
 0002:0000c248       __real@c0efb669            0047c248      CIL library: CIL module
 0002:0000c24c       __real@3e58897f            0047c24c      CIL library: CIL module
 0002:0000c250       __real@3ea3bd7b            0047c250      CIL library: CIL module
 0002:0000c254       __real@3f358330            0047c254      CIL library: CIL module
 0002:0000c258       __real@3e6c25d0            0047c258      CIL library: CIL module
 0002:0000c25c       __real@3d99e59f            0047c25c      CIL library: CIL module
 0002:0000c260       __real@3eca1188            0047c260      CIL library: CIL module
 0002:0000c264       __real@c0656ffc            0047c264      CIL library: CIL module
 0002:0000c268       __real@3de934ad            0047c268      CIL library: CIL module
 0002:0000c26c       __real@bfd1d1d4            0047c26c      CIL library: CIL module
 0002:0000c270       __real@bce5a145            0047c270      CIL library: CIL module
 0002:0000c274       __real@3f80093e            0047c274      CIL library: CIL module
 0002:0000c278       __real@c0f0c906            0047c278      CIL library: CIL module
 0002:0000c27c       __real@3e61fbc6            0047c27c      CIL library: CIL module
 0002:0000c280       __real@3eaae233            0047c280      CIL library: CIL module
 0002:0000c284       __real@3f4f5d14            0047c284      CIL library: CIL module
 0002:0000c288       __real@3e87e133            0047c288      CIL library: CIL module
 0002:0000c28c       __real@bd978c43            0047c28c      CIL library: CIL module
 0002:0000c290       __real@3ec5e918            0047c290      CIL library: CIL module
 0002:0000c294       __real@3fba5b3a            0047c294      CIL library: CIL module
 0002:0000c298       __real@3fbff855            0047c298      CIL library: CIL module
 0002:0000c29c       __real@c0454381            0047c29c      CIL library: CIL module
 0002:0000c2a0       __real@3cba237d            0047c2a0      CIL library: CIL module
 0002:0000c2a4       __real@3f807842            0047c2a4      CIL library: CIL module
 0002:0000c2a8       __real@c0efab8f            0047c2a8      CIL library: CIL module
 0002:0000c2ac       __real@3e6b6e0d            0047c2ac      CIL library: CIL module
 0002:0000c2b0       __real@3eb206c8            0047c2b0      CIL library: CIL module
 0002:0000c2b4       __real@3f3a2403            0047c2b4      CIL library: CIL module
 0002:0000c2b8       __real@3e769c67            0047c2b8      CIL library: CIL module
 0002:0000c2bc       __real@bd9405f7            0047c2bc      CIL library: CIL module
 0002:0000c2c0       __real@3ebfac82            0047c2c0      CIL library: CIL module
 0002:0000c2c4       __real@3f17d45a            0047c2c4      CIL library: CIL module
 0002:0000c2c8       __real@3fbe1523            0047c2c8      CIL library: CIL module
 0002:0000c2cc       __real@c0546940            0047c2cc      CIL library: CIL module
 0002:0000c2d0       __real@3ca8a3f9            0047c2d0      CIL library: CIL module
 0002:0000c2d4       __real@3f80750c            0047c2d4      CIL library: CIL module
 0002:0000c2d8       __real@c0f0e8e6            0047c2d8      CIL library: CIL module
 0002:0000c2dc       __real@3e74e054            0047c2dc      CIL library: CIL module
 0002:0000c2e0       __real@3eb92b80            0047c2e0      CIL library: CIL module
 0002:0000c2e4       __real@3f7cac8e            0047c2e4      CIL library: CIL module
 0002:0000c2e8       __real@3ea93038            0047c2e8      CIL library: CIL module
 0002:0000c2ec       __real@bd907faa            0047c2ec      CIL library: CIL module
 0002:0000c2f0       __real@3eb96fca            0047c2f0      CIL library: CIL module
 0002:0000c2f4       __real@404f5461            0047c2f4      CIL library: CIL module
 0002:0000c2f8       __real@401d55ce            0047c2f8      CIL library: CIL module
 0002:0000c2fc       __real@3fd05edd            0047c2fc      CIL library: CIL module
 0002:0000c300       __real@bc3c6a7f            0047c300      CIL library: CIL module
 0002:0000c304       __real@3f80be73            0047c304      CIL library: CIL module
 0002:0000c308       __real@c0ef4de2            0047c308      CIL library: CIL module
 0002:0000c30c       __real@3e7e529c            0047c30c      CIL library: CIL module
 0002:0000c310       __real@3ec05016            0047c310      CIL library: CIL module
 0002:0000c314       __real@3f7aead9            0047c314      CIL library: CIL module
 0002:0000c318       __real@3ea935b9            0047c318      CIL library: CIL module
 0002:0000c31c       __real@bd8e264e            0047c31c      CIL library: CIL module
 0002:0000c320       __real@3eb5475a            0047c320      CIL library: CIL module
 0002:0000c324       __real@bfa6cd5b            0047c324      CIL library: CIL module
 0002:0000c328       __real@3f767b81            0047c328      CIL library: CIL module
 0002:0000c32c       __real@c053d762            0047c32c      CIL library: CIL module
 0002:0000c330       __real@bcb5e52a            0047c330      CIL library: CIL module
 0002:0000c334       __real@3f8049ba            0047c334      CIL library: CIL module
 0002:0000c338       __real@c0f0e68c            0047c338      CIL library: CIL module
 0002:0000c33c       __real@3e83e293            0047c33c      CIL library: CIL module
 0002:0000c340       __real@3ec774cd            0047c340      CIL library: CIL module
 0002:0000c344       __real@3f7a85ba            0047c344      CIL library: CIL module
 0002:0000c348       __real@3eaabcb6            0047c348      CIL library: CIL module
 0002:0000c34c       __real@bd8aa002            0047c34c      CIL library: CIL module
 0002:0000c350       __real@3eaf0ac4            0047c350      CIL library: CIL module
 0002:0000c354       __real@c003beec            0047c354      CIL library: CIL module
 0002:0000c358       __real@3ff52bf5            0047c358      CIL library: CIL module
 0002:0000c35c       __real@c022e01a            0047c35c      CIL library: CIL module
 0002:0000c360       __real@3c6c7c95            0047c360      CIL library: CIL module
 0002:0000c364       __real@3f80900c            0047c364      CIL library: CIL module
 0002:0000c368       __real@c0ef9cf3            0047c368      CIL library: CIL module
 0002:0000c36c       __real@3e889bb7            0047c36c      CIL library: CIL module
 0002:0000c370       __real@3ece9985            0047c370      CIL library: CIL module
 0002:0000c374       __real@3f7deefe            0047c374      CIL library: CIL module
 0002:0000c378       __real@3eaee137            0047c378      CIL library: CIL module
 0002:0000c37c       __real@3d8719b5            0047c37c      CIL library: CIL module
 0002:0000c380       __real@3ea8ce2d            0047c380      CIL library: CIL module
 0002:0000c384       __real@c06cb7dc            0047c384      CIL library: CIL module
 0002:0000c388       __real@3d958213            0047c388      CIL library: CIL module
 0002:0000c38c       __real@bfb8ee18            0047c38c      CIL library: CIL module
 0002:0000c390       __real@3c3152f4            0047c390      CIL library: CIL module
 0002:0000c394       __real@3f800568            0047c394      CIL library: CIL module
 0002:0000c398       __real@c0f0c181            0047c398      CIL library: CIL module
 0002:0000c39c       __real@3e8d54da            0047c39c      CIL library: CIL module
 0002:0000c3a0       __real@3ed5be1b            0047c3a0      CIL library: CIL module
 0002:0000c3a4       __real@3f795140            0047c3a4      CIL library: CIL module
 0002:0000c3a8       __real@3eace400            0047c3a8      CIL library: CIL module
 0002:0000c3ac       __real@3d84c059            0047c3ac      CIL library: CIL module
 0002:0000c3b0       __real@3ea4a5be            0047c3b0      CIL library: CIL module
 0002:0000c3b4       __real@3ffb8801            0047c3b4      CIL library: CIL module
 0002:0000c3b8       __real@3fefe79f            0047c3b8      CIL library: CIL module
 0002:0000c3bc       __real@c02988a0            0047c3bc      CIL library: CIL module
 0002:0000c3c0       __real@bc723cc9            0047c3c0      CIL library: CIL module
 0002:0000c3c4       __real@3f8088b5            0047c3c4      CIL library: CIL module
 0002:0000c3c8       __real@c0ef9d1b            0047c3c8      CIL library: CIL module
 0002:0000c3cc       __real@3e920dfe            0047c3cc      CIL library: CIL module
 0002:0000c3d0       __real@3edce2d2            0047c3d0      CIL library: CIL module
 0002:0000c3d4       __real@3f43735c            0047c3d4      CIL library: CIL module
 0002:0000c3d8       __real@3e88ef9a            0047c3d8      CIL library: CIL module
 0002:0000c3dc       __real@bd813a0c            0047c3dc      CIL library: CIL module
 0002:0000c3e0       __real@3e9e6905            0047c3e0      CIL library: CIL module
 0002:0000c3e4       __real@c064e45c            0047c3e4      CIL library: CIL module
 0002:0000c3e8       __real@3fe40169            0047c3e8      CIL library: CIL module
 0002:0000c3ec       __real@3fe2ce9a            0047c3ec      CIL library: CIL module
 0002:0000c3f0       __real@bcdcf67b            0047c3f0      CIL library: CIL module
 0002:0000c3f4       __real@3f807f88            0047c3f4      CIL library: CIL module
 0002:0000c3f8       __real@c0f086d1            0047c3f8      CIL library: CIL module
 0002:0000c3fc       __real@3e96c722            0047c3fc      CIL library: CIL module
 0002:0000c400       __real@3ee40768            0047c400      CIL library: CIL module
 0002:0000c404       __real@3f6ed6fe            0047c404      CIL library: CIL module
 0002:0000c408       __real@3ea90b85            0047c408      CIL library: CIL module
 0002:0000c40c       __real@bd7b677f            0047c40c      CIL library: CIL module
 0002:0000c410       __real@3e982c6f            0047c410      CIL library: CIL module
 0002:0000c414       __real@402c448d            0047c414      CIL library: CIL module
 0002:0000c418       __real@401d123c            0047c418      CIL library: CIL module
 0002:0000c41c       __real@bfc79724            0047c41c      CIL library: CIL module
 0002:0000c420       __real@3ccc37e7            0047c420      CIL library: CIL module
 0002:0000c424       __real@3f80ac5c            0047c424      CIL library: CIL module
 0002:0000c428       __real@c0ef87d1            0047c428      CIL library: CIL module
 0002:0000c42c       __real@3e9b8045            0047c42c      CIL library: CIL module
 0002:0000c430       __real@3eeb2c1f            0047c430      CIL library: CIL module
 0002:0000c434       __real@3f26b607            0047c434      CIL library: CIL module
 0002:0000c438       __real@3e6d944b            0047c438      CIL library: CIL module
 0002:0000c43c       __real@3d76b4c8            0047c43c      CIL library: CIL module
 0002:0000c440       __real@3e9403ff            0047c440      CIL library: CIL module
 0002:0000c444       __real@3fd3c044            0047c444      CIL library: CIL module
 0002:0000c448       __real@3f5a8406            0047c448      CIL library: CIL module
 0002:0000c44c       __real@4088c34a            0047c44c      CIL library: CIL module
 0002:0000c450       __real@3cb99f5e            0047c450      CIL library: CIL module
 0002:0000c454       __real@3f803b2e            0047c454      CIL library: CIL module
 0002:0000c458       __real@c0f05c27            0047c458      CIL library: CIL module
 0002:0000c45c       __real@3ea03969            0047c45c      CIL library: CIL module
 0002:0000c460       __real@3ef250b5            0047c460      CIL library: CIL module
 0002:0000c464       __real@3f63f51f            0047c464      CIL library: CIL module
 0002:0000c468       __real@3ea41030            0047c468      CIL library: CIL module
 0002:0000c46c       __real@bd6fa82f            0047c46c      CIL library: CIL module
 0002:0000c470       __real@3e8dc769            0047c470      CIL library: CIL module
 0002:0000c474       __real@3f2e9c67            0047c474      CIL library: CIL module
 0002:0000c478       __real@3fc22c34            0047c478      CIL library: CIL module
 0002:0000c47c       __real@408b95ec            0047c47c      CIL library: CIL module
 0002:0000c480       __real@bc915bdd            0047c480      CIL library: CIL module
 0002:0000c484       __real@3f80671f            0047c484      CIL library: CIL module
 0002:0000c488       __real@c0ef2203            0047c488      CIL library: CIL module
 0002:0000c48c       __real@3ea4f28c            0047c48c      CIL library: CIL module
 0002:0000c490       __real@3ef9756d            0047c490      CIL library: CIL module
 0002:0000c494       __real@3f2a3726            0047c494      CIL library: CIL module
 0002:0000c498       __real@3e7772d6            0047c498      CIL library: CIL module
 0002:0000c49c       __real@bd689b95            0047c49c      CIL library: CIL module
 0002:0000c4a0       __real@3e878ab1            0047c4a0      CIL library: CIL module
 0002:0000c4a4       __real@404581cf            0047c4a4      CIL library: CIL module
 0002:0000c4a8       __real@3fa500ef            0047c4a8      CIL library: CIL module
 0002:0000c4ac       __real@bfff42b3            0047c4ac      CIL library: CIL module
 0002:0000c4b0       __real@bc531b9b            0047c4b0      CIL library: CIL module
 0002:0000c4b4       __real@3f8055e3            0047c4b4      CIL library: CIL module
 0002:0000c4b8       __real@c0f0c713            0047c4b8      CIL library: CIL module
 0002:0000c4bc       __real@3ea9abb0            0047c4bc      CIL library: CIL module
 0002:0000c4c0       __real@3f004d12            0047c4c0      CIL library: CIL module
 0002:0000c4c4       __real@3f5b0af6            0047c4c4      CIL library: CIL module
 0002:0000c4c8       __real@3ea042b7            0047c4c8      CIL library: CIL module
 0002:0000c4cc       __real@3d63e8de            0047c4cc      CIL library: CIL module
 0002:0000c4d0       __real@3e836241            0047c4d0      CIL library: CIL module
 0002:0000c4d4       __real@c062dd05            0047c4d4      CIL library: CIL module
 0002:0000c4d8       __real@4004859d            0047c4d8      CIL library: CIL module
 0002:0000c4dc       __real@3fa77bfa            0047c4dc      CIL library: CIL module
 0002:0000c4e0       __real@3c45718f            0047c4e0      CIL library: CIL module
 0002:0000c4e4       __real@3f80880e            0047c4e4      CIL library: CIL module
 0002:0000c4e8       __real@c0ef5658            0047c4e8      CIL library: CIL module
 0002:0000c4ec       __real@3eae64d4            0047c4ec      CIL library: CIL module
 0002:0000c4f0       __real@3f03df5d            0047c4f0      CIL library: CIL module
 0002:0000c4f4       __real@3f3699d9            0047c4f4      CIL library: CIL module
 0002:0000c4f8       __real@3e86b3bc            0047c4f8      CIL library: CIL module
 0002:0000c4fc       __real@3d5cdc44            0047c4fc      CIL library: CIL module
 0002:0000c500       __real@3e7a4b55            0047c500      CIL library: CIL module
 0002:0000c504       __real@c00bab9f            0047c504      CIL library: CIL module
 0002:0000c508       __real@3ffc2a4e            0047c508      CIL library: CIL module
 0002:0000c50c       __real@405f8e50            0047c50c      CIL library: CIL module
 0002:0000c510       __real@3c73ade2            0047c510      CIL library: CIL module
 0002:0000c514       __real@3f807ec8            0047c514      CIL library: CIL module
 0002:0000c518       __real@c0f06d5d            0047c518      CIL library: CIL module
 0002:0000c51c       __real@3eb31df7            0047c51c      CIL library: CIL module
 0002:0000c520       __real@3f0771b9            0047c520      CIL library: CIL module
 0002:0000c524       __real@3f43fb9c            0047c524      CIL library: CIL module
 0002:0000c528       __real@3e90f68c            0047c528      CIL library: CIL module
 0002:0000c52c       __real@3d55cfab            0047c52c      CIL library: CIL module
 0002:0000c530       __real@3e6dd228            0047c530      CIL library: CIL module
 0002:0000c534       __real@c0807ffc            0047c534      CIL library: CIL module
 0002:0000c538       __real@3e8f7ad5            0047c538      CIL library: CIL module
 0002:0000c53c       __real@3fde00fc            0047c53c      CIL library: CIL module
 0002:0000c540       __real@bcdc3372            0047c540      CIL library: CIL module
 0002:0000c544       __real@3f8011a9            0047c544      CIL library: CIL module
 0002:0000c548       __real@c0ef5029            0047c548      CIL library: CIL module
 0002:0000c54c       __real@3eb7d73d            0047c54c      CIL library: CIL module
 0002:0000c550       __real@3f0b0404            0047c550      CIL library: CIL module
 0002:0000c554       __real@3f09e482            0047c554      CIL library: CIL module
 0002:0000c558       __real@3e4c5b4b            0047c558      CIL library: CIL module
 0002:0000c55c       __real@bd511cf3            0047c55c      CIL library: CIL module
 0002:0000c560       __real@3e658149            0047c560      CIL library: CIL module
 0002:0000c564       __real@c039a1cb            0047c564      CIL library: CIL module
 0002:0000c568       __real@3dd914f5            0047c568      CIL library: CIL module
 0002:0000c56c       __real@c01ecfa7            0047c56c      CIL library: CIL module
 0002:0000c570       __real@bcc9fb61            0047c570      CIL library: CIL module
 0002:0000c574       __real@3f800696            0047c574      CIL library: CIL module
 0002:0000c578       __real@c0f0cbc7            0047c578      CIL library: CIL module
 0002:0000c57c       __real@3ebc9060            0047c57c      CIL library: CIL module
 0002:0000c580       __real@3f0e965f            0047c580      CIL library: CIL module
 0002:0000c584       __real@3f7c47c3            0047c584      CIL library: CIL module
 0002:0000c588       __real@3ebb70ef            0047c588      CIL library: CIL module
 0002:0000c58c       __real@3d4a105a            0047c58c      CIL library: CIL module
 0002:0000c590       __real@3e5907d9            0047c590      CIL library: CIL module
 0002:0000c594       __real@406e79a7            0047c594      CIL library: CIL module
 0002:0000c598       __real@3ee17657            0047c598      CIL library: CIL module
 0002:0000c59c       __real@bfac4370            0047c59c      CIL library: CIL module
 0002:0000c5a0       __real@3cd5885d            0047c5a0      CIL library: CIL module
 0002:0000c5a4       __real@3f801abd            0047c5a4      CIL library: CIL module
 0002:0000c5a8       __real@c0ef7f9b            0047c5a8      CIL library: CIL module
 0002:0000c5ac       __real@3ec14984            0047c5ac      CIL library: CIL module
 0002:0000c5b0       __real@3f1228aa            0047c5b0      CIL library: CIL module
 0002:0000c5b4       __real@3f4b67e4            0047c5b4      CIL library: CIL module
 0002:0000c5b8       __real@3e978855            0047c5b8      CIL library: CIL module
 0002:0000c5bc       __real@3d4303c0            0047c5bc      CIL library: CIL module
 0002:0000c5c0       __real@3e4c8eac            0047c5c0      CIL library: CIL module
 0002:0000c5c4       __real@405f39de            0047c5c4      CIL library: CIL module
 0002:0000c5c8       __real@4003d699            0047c5c8      CIL library: CIL module
 0002:0000c5cc       __real@3fd644c8            0047c5cc      CIL library: CIL module
 0002:0000c5d0       __real@3cd0bb6f            0047c5d0      CIL library: CIL module
 0002:0000c5d4       __real@3f807a53            0047c5d4      CIL library: CIL module
 0002:0000c5d8       __real@c0f08c0b            0047c5d8      CIL library: CIL module
 0002:0000c5dc       __real@3ec602a7            0047c5dc      CIL library: CIL module
 0002:0000c5e0       __real@3f15bb06            0047c5e0      CIL library: CIL module
 0002:0000c5e4       __real@3f763550            0047c5e4      CIL library: CIL module
 0002:0000c5e8       __real@3eb7bedb            0047c5e8      CIL library: CIL module
 0002:0000c5ec       __real@3d3e5109            0047c5ec      CIL library: CIL module
 0002:0000c5f0       __real@3e46c2f0            0047c5f0      CIL library: CIL module
 0002:0000c5f4       __real@bfef356e            0047c5f4      CIL library: CIL module
 0002:0000c5f8       __real@3f06a92e            0047c5f8      CIL library: CIL module
 0002:0000c5fc       __real@c04a6aa1            0047c5fc      CIL library: CIL module
 0002:0000c600       __real@bcb84556            0047c600      CIL library: CIL module
 0002:0000c604       __real@3f801ec5            0047c604      CIL library: CIL module
 0002:0000c608       __real@c0ef991a            0047c608      CIL library: CIL module
 0002:0000c60c       __real@3ecabbcb            0047c60c      CIL library: CIL module
 0002:0000c610       __real@3f194d62            0047c610      CIL library: CIL module
 0002:0000c614       __real@3f3bc99b            0047c614      CIL library: CIL module
 0002:0000c618       __real@3e8c851b            0047c618      CIL library: CIL module
 0002:0000c61c       __real@bd374470            0047c61c      CIL library: CIL module
 0002:0000c620       __real@3e3f6662            0047c620      CIL library: CIL module
 0002:0000c624       __real@c0620432            0047c624      CIL library: CIL module
 0002:0000c628       __real@400c0e73            0047c628      CIL library: CIL module
 0002:0000c62c       __real@3dfc5932            0047c62c      CIL library: CIL module
 0002:0000c630       __real@bccf6167            0047c630      CIL library: CIL module
 0002:0000c634       __real@3f807d03            0047c634      CIL library: CIL module
 0002:0000c638       __real@3ecf74ef            0047c638      CIL library: CIL module
 0002:0000c63c       __real@3f1cdfad            0047c63c      CIL library: CIL module
 0002:0000c640       __real@3f6265e0            0047c640      CIL library: CIL module
 0002:0000c644       __real@3ea9dc94            0047c644      CIL library: CIL module
 0002:0000c648       __real@3d3037d6            0047c648      CIL library: CIL module
 0002:0000c64c       __real@3e3809d5            0047c64c      CIL library: CIL module
 0002:0000c650       __real@406cf184            0047c650      CIL library: CIL module
 0002:0000c654       __real@3f1939da            0047c654      CIL library: CIL module
 0002:0000c658       __real@401ad6fe            0047c658      CIL library: CIL module
 0002:0000c65c       __real@3cd08f65            0047c65c      CIL library: CIL module
 0002:0000c660       __real@3f802164            0047c660      CIL library: CIL module
 0002:0000c664       __real@c0ef48c5            0047c664      CIL library: CIL module
 0002:0000c668       __real@3ed42e12            0047c668      CIL library: CIL module
 0002:0000c66c       __real@3f207208            0047c66c      CIL library: CIL module
 0002:0000c670       __real@3f5eaeb0            0047c670      CIL library: CIL module
 0002:0000c674       __real@3ea75e85            0047c674      CIL library: CIL module
 0002:0000c678       __real@bd2b851f            0047c678      CIL library: CIL module
 0002:0000c67c       __real@3e3321a3            0047c67c      CIL library: CIL module
 0002:0000c680       __real@3fbce2f3            0047c680      CIL library: CIL module
 0002:0000c684       __real@3f9a7dfe            0047c684      CIL library: CIL module
 0002:0000c688       __real@40880851            0047c688      CIL library: CIL module
 0002:0000c68c       __real@3cb13166            0047c68c      CIL library: CIL module
 0002:0000c690       __real@3f804239            0047c690      CIL library: CIL module
 0002:0000c694       __real@c0f069fd            0047c694      CIL library: CIL module
 0002:0000c698       __real@3ed8e736            0047c698      CIL library: CIL module
 0002:0000c69c       __real@3f240453            0047c69c      CIL library: CIL module
 0002:0000c6a0       __real@3f710343            0047c6a0      CIL library: CIL module
 0002:0000c6a4       __real@3eb5a038            0047c6a4      CIL library: CIL module
 0002:0000c6a8       __real@3d247885            0047c6a8      CIL library: CIL module
 0002:0000c6ac       __real@3e2bc515            0047c6ac      CIL library: CIL module
 0002:0000c6b0       __real@4021db40            0047c6b0      CIL library: CIL module
 0002:0000c6b4       __real@3ff719a4            0047c6b4      CIL library: CIL module
 0002:0000c6b8       __real@4050e5ef            0047c6b8      CIL library: CIL module
 0002:0000c6bc       __real@bc764064            0047c6bc      CIL library: CIL module
 0002:0000c6c0       __real@3f806749            0047c6c0      CIL library: CIL module
 0002:0000c6c4       __real@c0ef3e8c            0047c6c4      CIL library: CIL module
 0002:0000c6c8       __real@3edda05a            0047c6c8      CIL library: CIL module
 0002:0000c6cc       __real@3f2796af            0047c6cc      CIL library: CIL module
 0002:0000c6d0       __real@3f24dbe0            0047c6d0      CIL library: CIL module
 0002:0000c6d4       __real@3e792104            0047c6d4      CIL library: CIL module
 0002:0000c6d8       __real@3d1d6bec            0047c6d8      CIL library: CIL module
 0002:0000c6dc       __real@3e246888            0047c6dc      CIL library: CIL module
 0002:0000c6e0       __real@3cc79703            0047c6e0      CIL library: CIL module
 0002:0000c6e4       __real@3f4bf39d            0047c6e4      CIL library: CIL module
 0002:0000c6e8       __real@40941dde            0047c6e8      CIL library: CIL module
 0002:0000c6ec       __real@bc9ca18c            0047c6ec      CIL library: CIL module
 0002:0000c6f0       __real@3f80298d            0047c6f0      CIL library: CIL module
 0002:0000c6f4       __real@c0f06796            0047c6f4      CIL library: CIL module
 0002:0000c6f8       __real@3ee2597d            0047c6f8      CIL library: CIL module
 0002:0000c6fc       __real@3f2b290b            0047c6fc      CIL library: CIL module
 0002:0000c700       __real@3f47d8e0            0047c700      CIL library: CIL module
 0002:0000c704       __real@3e97442c            0047c704      CIL library: CIL module
 0002:0000c708       __real@bd18b934            0047c708      CIL library: CIL module
 0002:0000c70c       __real@3e1f8013            0047c70c      CIL library: CIL module
 0002:0000c710       __real@bf6f923a            0047c710      CIL library: CIL module
 0002:0000c714       __real@40007558            0047c714      CIL library: CIL module
 0002:0000c718       __real@40821f2a            0047c718      CIL library: CIL module
 0002:0000c71c       __real@3c90f734            0047c71c      CIL library: CIL module
 0002:0000c720       __real@3f8066dc            0047c720      CIL library: CIL module
 0002:0000c724       __real@c0ef35ce            0047c724      CIL library: CIL module
 0002:0000c728       __real@3ee712a1            0047c728      CIL library: CIL module
 0002:0000c72c       __real@3f2ebb56            0047c72c      CIL library: CIL module
 0002:0000c730       __real@3f11b739            0047c730      CIL library: CIL module
 0002:0000c734       __real@3e5d2aa6            0047c734      CIL library: CIL module
 0002:0000c738       __real@bd11ac9b            0047c738      CIL library: CIL module
 0002:0000c73c       __real@3e182385            0047c73c      CIL library: CIL module
 0002:0000c740       __real@4064a26a            0047c740      CIL library: CIL module
 0002:0000c744       __real@40036d40            0047c744      CIL library: CIL module
 0002:0000c748       __real@3fb27a8d            0047c748      CIL library: CIL module
 0002:0000c74c       __real@3cc981bf            0047c74c      CIL library: CIL module
 0002:0000c750       __real@3f80666f            0047c750      CIL library: CIL module
 0002:0000c754       __real@c0f0923c            0047c754      CIL library: CIL module
 0002:0000c758       __real@3eebcbe6            0047c758      CIL library: CIL module
 0002:0000c75c       __real@3f324db1            0047c75c      CIL library: CIL module
 0002:0000c760       __real@3f5776c5            0047c760      CIL library: CIL module
 0002:0000c764       __real@3ea3f1a6            0047c764      CIL library: CIL module
 0002:0000c768       __real@bd0aa002            0047c768      CIL library: CIL module
 0002:0000c76c       __real@3e10c6f8            0047c76c      CIL library: CIL module
 0002:0000c770       __real@3f90f35e            0047c770      CIL library: CIL module
 0002:0000c774       __real@3e94881e            0047c774      CIL library: CIL module
 0002:0000c778       __real@40914e96            0047c778      CIL library: CIL module
 0002:0000c77c       __real@bc8f3669            0047c77c      CIL library: CIL module
 0002:0000c780       __real@3f800e17            0047c780      CIL library: CIL module
 0002:0000c784       __real@c0ef3272            0047c784      CIL library: CIL module
 0002:0000c788       __real@3ef0850a            0047c788      CIL library: CIL module
 0002:0000c78c       __real@3f35dffc            0047c78c      CIL library: CIL module
 0002:0000c790       __real@3f2d5747            0047c790      CIL library: CIL module
 0002:0000c794       __real@3e841f64            0047c794      CIL library: CIL module
 0002:0000c798       __real@3d05ed4a            0047c798      CIL library: CIL module
 0002:0000c79c       __real@3e0bde83            0047c79c      CIL library: CIL module
 0002:0000c7a0       __real@c0274a80            0047c7a0      CIL library: CIL module
 0002:0000c7a4       __real@3fc2b210            0047c7a4      CIL library: CIL module
 0002:0000c7a8       __real@405aa98f            0047c7a8      CIL library: CIL module
 0002:0000c7ac       __real@bcbc126a            0047c7ac      CIL library: CIL module
 0002:0000c7b0       __real@3f80486b            0047c7b0      CIL library: CIL module
 0002:0000c7b4       __real@c0f07aa4            0047c7b4      CIL library: CIL module
 0002:0000c7b8       __real@3ef53e2d            0047c7b8      CIL library: CIL module
 0002:0000c7bc       __real@3f397258            0047c7bc      CIL library: CIL module
 0002:0000c7c0       __real@3f1ba41e            0047c7c0      CIL library: CIL module
 0002:0000c7c4       __real@3e6de1e3            0047c7c4      CIL library: CIL module
 0002:0000c7c8       __real@3cfdc161            0047c7c8      CIL library: CIL module
 0002:0000c7cc       __real@3e0481f5            0047c7cc      CIL library: CIL module
 0002:0000c7d0       __real@406d1c50            0047c7d0      CIL library: CIL module
 0002:0000c7d4       __real@3fed857b            0047c7d4      CIL library: CIL module
 0002:0000c7d8       __real@be4e160e            0047c7d8      CIL library: CIL module
 0002:0000c7dc       __real@3cc7cd8a            0047c7dc      CIL library: CIL module
 0002:0000c7e0       __real@3f8055da            0047c7e0      CIL library: CIL module
 0002:0000c7e4       __real@c0ef6b90            0047c7e4      CIL library: CIL module
 0002:0000c7e8       __real@3ef9f751            0047c7e8      CIL library: CIL module
 0002:0000c7ec       __real@3f3d04a3            0047c7ec      CIL library: CIL module
 0002:0000c7f0       __real@3f6e8e82            0047c7f0      CIL library: CIL module
 0002:0000c7f4       __real@3eb6c7a8            0047c7f4      CIL library: CIL module
 0002:0000c7f8       __real@3cefa82f            0047c7f8      CIL library: CIL module
 0002:0000c7fc       __real@3dfa4acf            0047c7fc      CIL library: CIL module
 0002:0000c800       __real@3fa4fe61            0047c800      CIL library: CIL module
 0002:0000c804       __real@401c7f78            0047c804      CIL library: CIL module
 0002:0000c808       __real@406b167b            0047c808      CIL library: CIL module
 0002:0000c80c       __real@3cab6d01            0047c80c      CIL library: CIL module
 0002:0000c810       __real@3f806dce            0047c810      CIL library: CIL module
 0002:0000c814       __real@c0f079b7            0047c814      CIL library: CIL module
 0002:0000c818       __real@3efeb075            0047c818      CIL library: CIL module
 0002:0000c81c       __real@3f4096ff            0047c81c      CIL library: CIL module
 0002:0000c820       __real@3f26718b            0047c820      CIL library: CIL module
 0002:0000c824       __real@3e7f7f06            0047c824      CIL library: CIL module
 0002:0000c828       __real@3ce642c0            0047c828      CIL library: CIL module
 0002:0000c82c       __real@3df07a6c            0047c82c      CIL library: CIL module
 0002:0000c830       __real@c029db9c            0047c830      CIL library: CIL module
 0002:0000c834       __real@4015f16f            0047c834      CIL library: CIL module
 0002:0000c838       __real@402ef291            0047c838      CIL library: CIL module
 0002:0000c83c       __real@bcba2596            0047c83c      CIL library: CIL module
 0002:0000c840       __real@3f806717            0047c840      CIL library: CIL module
 0002:0000c844       __real@c0ef4adc            0047c844      CIL library: CIL module
 0002:0000c848       __real@3f01b4cc            0047c848      CIL library: CIL module
 0002:0000c84c       __real@3f44295a            0047c84c      CIL library: CIL module
 0002:0000c850       __real@3f38141f            0047c850      CIL library: CIL module
 0002:0000c854       __real@3e8da640            0047c854      CIL library: CIL module
 0002:0000c858       __real@3cd8298d            0047c858      CIL library: CIL module
 0002:0000c85c       __real@3de1c151            0047c85c      CIL library: CIL module
 0002:0000c860       __real@4026cedd            0047c860      CIL library: CIL module
 0002:0000c864       __real@3fc62060            0047c864      CIL library: CIL module
 0002:0000c868       __real@405b4574            0047c868      CIL library: CIL module
 0002:0000c86c       __real@bc8129cc            0047c86c      CIL library: CIL module
 0002:0000c870       __real@3f804207            0047c870      CIL library: CIL module
 0002:0000c874       __real@c0f07e20            0047c874      CIL library: CIL module
 0002:0000c878       __real@3f04115e            0047c878      CIL library: CIL module
 0002:0000c87c       __real@3f47bba5            0047c87c      CIL library: CIL module
 0002:0000c880       __real@3f59b489            0047c880      CIL library: CIL module
 0002:0000c884       __real@3ea7f541            0047c884      CIL library: CIL module
 0002:0000c888       __real@3cca105a            0047c888      CIL library: CIL module
 0002:0000c88c       __real@3dd30835            0047c88c      CIL library: CIL module
 0002:0000c890       __real@c07b7896            0047c890      CIL library: CIL module
 0002:0000c894       __real@3f8d57c5            0047c894      CIL library: CIL module
 0002:0000c898       __real@3fc053da            0047c898      CIL library: CIL module
 0002:0000c89c       __real@3c68c8ac            0047c89c      CIL library: CIL module
 0002:0000c8a0       __real@3f802d95            0047c8a0      CIL library: CIL module
 0002:0000c8a4       __real@c0ef590e            0047c8a4      CIL library: CIL module
 0002:0000c8a8       __real@3f066df0            0047c8a8      CIL library: CIL module
 0002:0000c8ac       __real@3f4b4e01            0047c8ac      CIL library: CIL module
 0002:0000c8b0       __real@3f0f96c0            0047c8b0      CIL library: CIL module
 0002:0000c8b4       __real@3e5defc8            0047c8b4      CIL library: CIL module
 0002:0000c8b8       __real@3cc0aaeb            0047c8b8      CIL library: CIL module
 0002:0000c8bc       __real@3dc9374c            0047c8bc      CIL library: CIL module
 0002:0000c8c0       __real@3ebfe996            0047c8c0      CIL library: CIL module
 0002:0000c8c4       __real@401aed0b            0047c8c4      CIL library: CIL module
 0002:0000c8c8       __real@c0360071            0047c8c8      CIL library: CIL module
 0002:0000c8cc       __real@3ca0bc38            0047c8cc      CIL library: CIL module
 0002:0000c8d0       __real@3f8061c8            0047c8d0      CIL library: CIL module
 0002:0000c8d4       __real@c0f0bf12            0047c8d4      CIL library: CIL module
 0002:0000c8d8       __real@3f08ca82            0047c8d8      CIL library: CIL module
 0002:0000c8dc       __real@3f4ee04c            0047c8dc      CIL library: CIL module
 0002:0000c8e0       __real@3f435b60            0047c8e0      CIL library: CIL module
 0002:0000c8e4       __real@3e975d35            0047c8e4      CIL library: CIL module
 0002:0000c8e8       __real@bcb291b8            0047c8e8      CIL library: CIL module
 0002:0000c8ec       __real@3dba7e31            0047c8ec      CIL library: CIL module
 0002:0000c8f0       __real@3fc9a8bd            0047c8f0      CIL library: CIL module
 0002:0000c8f4       __real@3fdc4e2f            0047c8f4      CIL library: CIL module
 0002:0000c8f8       __real@c03bb5bf            0047c8f8      CIL library: CIL module
 0002:0000c8fc       __real@bc8d9514            0047c8fc      CIL library: CIL module
 0002:0000c900       __real@3f80432d            0047c900      CIL library: CIL module
 0002:0000c904       __real@c0ef84e2            0047c904      CIL library: CIL module
 0002:0000c908       __real@3f0b2713            0047c908      CIL library: CIL module
 0002:0000c90c       __real@3f5272a8            0047c90c      CIL library: CIL module
 0002:0000c910       __real@3f388bca            0047c910      CIL library: CIL module
 0002:0000c914       __real@3e8f5ad9            0047c914      CIL library: CIL module
 0002:0000c918       __real@bca47885            0047c918      CIL library: CIL module
 0002:0000c91c       __real@3dabc515            0047c91c      CIL library: CIL module
 0002:0000c920       __real@405291a7            0047c920      CIL library: CIL module
 0002:0000c924       __real@4019a537            0047c924      CIL library: CIL module
 0002:0000c928       __real@3fcd3ee6            0047c928      CIL library: CIL module
 0002:0000c92c       __real@bc7befd0            0047c92c      CIL library: CIL module
 0002:0000c930       __real@3f805a71            0047c930      CIL library: CIL module
 0002:0000c934       __real@c0f092e4            0047c934      CIL library: CIL module
 0002:0000c938       __real@3f0d83b6            0047c938      CIL library: CIL module
 0002:0000c93c       __real@3f560503            0047c93c      CIL library: CIL module
 0002:0000c940       __real@3f1c2ecb            0047c940      CIL library: CIL module
 0002:0000c944       __real@3e730f06            0047c944      CIL library: CIL module
 0002:0000c948       __real@3c9b1316            0047c948      CIL library: CIL module
 0002:0000c94c       __real@3da1f42c            0047c94c      CIL library: CIL module
 0002:0000c950       __real@c055b092            0047c950      CIL library: CIL module
 0002:0000c954       __real@3f2d24c0            0047c954      CIL library: CIL module
 0002:0000c958       __real@403e5929            0047c958      CIL library: CIL module
 0002:0000c95c       __real@3c7c86cf            0047c95c      CIL library: CIL module
 0002:0000c960       __real@3f8018df            0047c960      CIL library: CIL module
 0002:0000c964       __real@c0ef4ca1            0047c964      CIL library: CIL module
 0002:0000c968       __real@3f0fe048            0047c968      CIL library: CIL module
 0002:0000c96c       __real@3f59974e            0047c96c      CIL library: CIL module
 0002:0000c970       __real@3f16130a            0047c970      CIL library: CIL module
 0002:0000c974       __real@3e6a265f            0047c974      CIL library: CIL module
 0002:0000c978       __real@3c8cf9e4            0047c978      CIL library: CIL module
 0002:0000c97c       __real@3d933b97            0047c97c      CIL library: CIL module
 0002:0000c980       __real@407726d9            0047c980      CIL library: CIL module
 0002:0000c984       __real@3fc69b9d            0047c984      CIL library: CIL module
 0002:0000c988       __real@3f9322a7            0047c988      CIL library: CIL module
 0002:0000c98c       __real@3cbf24d9            0047c98c      CIL library: CIL module
 0002:0000c990       __real@3f8036f4            0047c990      CIL library: CIL module
 0002:0000c994       __real@c0f09783            0047c994      CIL library: CIL module
 0002:0000c998       __real@3f123cda            0047c998      CIL library: CIL module
 0002:0000c99c       __real@3f5d29aa            0047c99c      CIL library: CIL module
 0002:0000c9a0       __real@3f52b303            0047c9a0      CIL library: CIL module
 0002:0000c9a4       __real@3ea4c9a7            0047c9a4      CIL library: CIL module
 0002:0000c9a8       __real@bc7dc161            0047c9a8      CIL library: CIL module
 0002:0000c9ac       __real@3d84827b            0047c9ac      CIL library: CIL module
 0002:0000c9b0       __real@c081f675            0047c9b0      CIL library: CIL module
 0002:0000c9b4       __real@3ee98351            0047c9b4      CIL library: CIL module
 0002:0000c9b8       __real@3fc0a7e7            0047c9b8      CIL library: CIL module
 0002:0000c9bc       __real@bcbf876a            0047c9bc      CIL library: CIL module
 0002:0000c9c0       __real@3f800f88            0047c9c0      CIL library: CIL module
 0002:0000c9c4       __real@c0ef5ac9            0047c9c4      CIL library: CIL module
 0002:0000c9c8       __real@3f14996b            0047c9c8      CIL library: CIL module
 0002:0000c9cc       __real@3f60bbf5            0047c9cc      CIL library: CIL module
 0002:0000c9d0       __real@3f51d8e8            0047c9d0      CIL library: CIL module
 0002:0000c9d4       __real@3ea4664d            0047c9d4      CIL library: CIL module
 0002:0000c9d8       __real@3c6af683            0047c9d8      CIL library: CIL module
 0002:0000c9dc       __real@3d756324            0047c9dc      CIL library: CIL module
 0002:0000c9e0       __real@4063a9e7            0047c9e0      CIL library: CIL module
 0002:0000c9e4       __real@3fd015ec            0047c9e4      CIL library: CIL module
 0002:0000c9e8       __real@bf80892b            0047c9e8      CIL library: CIL module
 0002:0000c9ec       __real@bc7eef5f            0047c9ec      CIL library: CIL module
 0002:0000c9f0       __real@3f8035e7            0047c9f0      CIL library: CIL module
 0002:0000c9f4       __real@c0f0a9b5            0047c9f4      CIL library: CIL module
 0002:0000c9f8       __real@3f16f5fd            0047c9f8      CIL library: CIL module
 0002:0000c9fc       __real@3f644e51            0047c9fc      CIL library: CIL module
 0002:0000ca00       __real@3f7ed19e            0047ca00      CIL library: CIL module
 0002:0000ca04       __real@3ec82385            0047ca04      CIL library: CIL module
 0002:0000ca08       __real@bc4ec41e            0047ca08      CIL library: CIL module
 0002:0000ca0c       __real@3d57f0ed            0047ca0c      CIL library: CIL module
 0002:0000ca10       __real@bef80629            0047ca10      CIL library: CIL module
 0002:0000ca14       __real@4015e6bc            0047ca14      CIL library: CIL module
 0002:0000ca18       __real@c0383911            0047ca18      CIL library: CIL module
 0002:0000ca1c       __real@3c9919ac            0047ca1c      CIL library: CIL module
 0002:0000ca20       __real@3f804a7b            0047ca20      CIL library: CIL module
 0002:0000ca24       __real@c0ef7e2c            0047ca24      CIL library: CIL module
 0002:0000ca28       __real@3f19528f            0047ca28      CIL library: CIL module
 0002:0000ca2c       __real@3f67e09c            0047ca2c      CIL library: CIL module
 0002:0000ca30       __real@3f71fbc6            0047ca30      CIL library: CIL module
 0002:0000ca34       __real@3ebe89ec            0047ca34      CIL library: CIL module
 0002:0000ca38       __real@bc3291b8            0047ca38      CIL library: CIL module
 0002:0000ca3c       __real@3d3a7eb7            0047ca3c      CIL library: CIL module
 0002:0000ca40       __real@3fc78d69            0047ca40      CIL library: CIL module
 0002:0000ca44       __real@3f973908            0047ca44      CIL library: CIL module
 0002:0000ca48       __real@c049fa22            0047ca48      CIL library: CIL module
 0002:0000ca4c       __real@3ca8d003            0047ca4c      CIL library: CIL module
 0002:0000ca50       __real@3f8023f2            0047ca50      CIL library: CIL module
 0002:0000ca54       __real@c0f0b908            0047ca54      CIL library: CIL module
 0002:0000ca58       __real@3f1baf21            0047ca58      CIL library: CIL module
 0002:0000ca5c       __real@3f6b72f7            0047ca5c      CIL library: CIL module
 0002:0000ca60       __real@3f3f3440            0047ca60      CIL library: CIL module
 0002:0000ca64       __real@3e96ceff            0047ca64      CIL library: CIL module
 0002:0000ca68       __real@3c1fc6da            0047ca68      CIL library: CIL module
 0002:0000ca6c       __real@3d26dce4            0047ca6c      CIL library: CIL module
 0002:0000ca70       __real@bf88cfaf            0047ca70      CIL library: CIL module
 0002:0000ca74       __real@3ea7d263            0047ca74      CIL library: CIL module
 0002:0000ca78       __real@4091c2dd            0047ca78      CIL library: CIL module
 0002:0000ca7c       __real@bca4d8fd            0047ca7c      CIL library: CIL module
 0002:0000ca80       __real@3f8009ab            0047ca80      CIL library: CIL module
 0002:0000ca84       __real@c0ef455d            0047ca84      CIL library: CIL module
 0002:0000ca88       __real@3f1e0bb3            0047ca88      CIL library: CIL module
 0002:0000ca8c       __real@3f6f0553            0047ca8c      CIL library: CIL module
 0002:0000ca90       __real@3f2667f9            0047ca90      CIL library: CIL module
 0002:0000ca94       __real@3e839496            0047ca94      CIL library: CIL module
 0002:0000ca98       __real@3c039475            0047ca98      CIL library: CIL module
 0002:0000ca9c       __real@3d096aad            0047ca9c      CIL library: CIL module
 0002:0000caa0       __real@4067f866            0047caa0      CIL library: CIL module
 0002:0000caa4       __real@3ffc249a            0047caa4      CIL library: CIL module
 0002:0000caa8       __real@be9992ea            0047caa8      CIL library: CIL module
 0002:0000caac       __real@bc836c9c            0047caac      CIL library: CIL module
