 testhttpviewer

 Timestamp is 68d874d3 (Sun Sep 28 02:35:47 2025)

 Preferred load address is 00400000

 Start         Length     Name                   Class
 0001:00000000 001f57f9H .text                   CODE
 0001:001f5800 00006edfH .text$yc                CODE
 0001:001fc6e0 00007963H .text$yd                CODE
 0002:00000000 000003b0H .idata$5                DATA
 0002:000003b0 00000004H .CRT$XCA                DATA
 0002:000003b4 00000004H .CRT$XCAA               DATA
 0002:000003b8 000007bcH .CRT$XCU                DATA
 0002:00000b74 00000004H .CRT$XCZ                DATA
 0002:00000b78 00000004H .CRT$XIA                DATA
 0002:00000b7c 00000004H .CRT$XIAA               DATA
 0002:00000b80 00000004H .CRT$XIC                DATA
 0002:00000b84 00000004H .CRT$XIY                DATA
 0002:00000b88 00000004H .CRT$XIZ                DATA
 0002:00000b8c 00000004H .CRT$XLA                DATA
 0002:00000b90 00000004H .CRT$XLZ                DATA
 0002:00000ba0 00040120H .rdata                  DATA
 0002:00040cc0 00000018H .rdata$T                DATA
 0002:00040cd8 00000040H .rdata$debug            DATA
 0002:00040d20 00000008H .rdata$sxdata           DATA
 0002:00040d28 00000004H .rtc$IAA                DATA
 0002:00040d2c 00000004H .rtc$IZZ                DATA
 0002:00040d30 00000004H .rtc$TAA                DATA
 0002:00040d34 00000004H .rtc$TZZ                DATA
 0002:00040d38 00000094H .xdata$x                DATA
 0002:00040dcc 00000104H .idata$2                DATA
 0002:00040ed0 00000014H .idata$3                DATA
 0002:00040ee4 000003b0H .idata$4                DATA
 0002:00041294 00000db0H .idata$6                DATA
 0002:00042044 00000000H .edata                  DATA
 0003:00000000 00000280H .data                   DATA
 0003:00000280 00005334H .bss                    DATA
 0004:00000000 00000001H .tls                    DATA
 0004:00000004 0000007cH .stls                   DATA
 0004:00000080 00000064H .tls$                   DATA
 0004:000000e4 00000001H .tls$ZZZ                DATA
 0005:00000000 000000b8H .rsrc$01                DATA
 0005:000000c0 00000cc0H .rsrc$02                DATA

  Address         Publics by Value              Rva+Base       Lib:Object

 0000:00000000       __except_list              00000000     <absolute>
 0000:00000002       ___safe_se_handler_count   00000002     <absolute>
 0000:0000002c       __tls_array                0000002c     <absolute>
 0000:00009876       __fltused                  00009876     <absolute>
 0000:00009876       __ldused                   00009876     <absolute>
 0000:00000000       ___ImageBase               00400000     <linker-defined>
 0001:00000000       _IXACT3SoundBank_Destroy@4 00401000 f i stdneb.obj
 0001:00000020       _IXACT3SoundBank_GetCueIndex@8 00401020 f i stdneb.obj
 0001:00000040       _IXACT3SoundBank_GetNumCues@8 00401040 f i stdneb.obj
 0001:00000060       _IXACT3SoundBank_GetCueProperties@12 00401060 f i stdneb.obj
 0001:00000080       _IXACT3SoundBank_Prepare@20 00401080 f i stdneb.obj
 0001:000000b0       _IXACT3SoundBank_Play@20   004010b0 f i stdneb.obj
 0001:000000e0       _IXACT3SoundBank_Stop@12   004010e0 f i stdneb.obj
 0001:00000100       _IXACT3SoundBank_GetState@8 00401100 f i stdneb.obj
 0001:00000120       _IXACT3WaveBank_Destroy@4  00401120 f i stdneb.obj
 0001:00000140       _IXACT3WaveBank_GetNumWaves@8 00401140 f i stdneb.obj
 0001:00000160       _IXACT3WaveBank_GetWaveIndex@8 00401160 f i stdneb.obj
 0001:00000180       _IXACT3WaveBank_GetWaveProperties@12 00401180 f i stdneb.obj
 0001:000001a0       _IXACT3WaveBank_Prepare@24 004011a0 f i stdneb.obj
 0001:000001d0       _IXACT3WaveBank_Play@24    004011d0 f i stdneb.obj
 0001:00000200       _IXACT3WaveBank_Stop@12    00401200 f i stdneb.obj
 0001:00000220       _IXACT3WaveBank_GetState@8 00401220 f i stdneb.obj
 0001:00000240       _IXACT3Wave_Destroy@4      00401240 f i stdneb.obj
 0001:00000260       _IXACT3Wave_Play@4         00401260 f i stdneb.obj
 0001:00000280       _IXACT3Wave_Stop@8         00401280 f i stdneb.obj
 0001:000002a0       _IXACT3Wave_Pause@8        004012a0 f i stdneb.obj
 0001:000002c0       _IXACT3Wave_GetState@8     004012c0 f i stdneb.obj
 0001:000002e0       _IXACT3Wave_SetPitch@8     004012e0 f i stdneb.obj
 0001:00000300       _IXACT3Wave_SetVolume@8    00401300 f i stdneb.obj
 0001:00000320       _IXACT3Wave_SetMatrixCoefficients@16 00401320 f i stdneb.obj
 0001:00000350       _IXACT3Wave_GetProperties@8 00401350 f i stdneb.obj
 0001:00000370       _IXACT3Cue_Play@4          00401370 f i stdneb.obj
 0001:00000390       _IXACT3Cue_Stop@8          00401390 f i stdneb.obj
 0001:000003b0       _IXACT3Cue_GetState@8      004013b0 f i stdneb.obj
 0001:000003d0       _IXACT3Cue_Destroy@4       004013d0 f i stdneb.obj
 0001:000003f0       _IXACT3Cue_SetMatrixCoefficients@16 004013f0 f i stdneb.obj
 0001:00000420       _IXACT3Cue_GetVariableIndex@8 00401420 f i stdneb.obj
 0001:00000440       _IXACT3Cue_SetVariable@12  00401440 f i stdneb.obj
 0001:00000470       _IXACT3Cue_GetVariable@12  00401470 f i stdneb.obj
 0001:00000490       _IXACT3Cue_Pause@8         00401490 f i stdneb.obj
 0001:000004b0       _IXACT3Cue_GetProperties@8 004014b0 f i stdneb.obj
 0001:000004d0       _IXACT3Cue_SetOutputVoices@8 004014d0 f i stdneb.obj
 0001:000004f0       _IXACT3Cue_SetOutputVoiceMatrix@20 004014f0 f i stdneb.obj
 0001:00000520       _IXACT3Engine_AddRef@4     00401520 f i stdneb.obj
 0001:00000540       _IXACT3Engine_Release@4    00401540 f i stdneb.obj
 0001:00000560       _IXACT3Engine_GetRendererCount@8 00401560 f i stdneb.obj
 0001:00000580       _IXACT3Engine_GetRendererDetails@12 00401580 f i stdneb.obj
 0001:000005a0       _IXACT3Engine_GetFinalMixFormat@8 004015a0 f i stdneb.obj
 0001:000005c0       _IXACT3Engine_Initialize@8 004015c0 f i stdneb.obj
 0001:000005e0       _IXACT3Engine_ShutDown@4   004015e0 f i stdneb.obj
 0001:00000600       _IXACT3Engine_DoWork@4     00401600 f i stdneb.obj
 0001:00000620       _IXACT3Engine_CreateSoundBank@24 00401620 f i stdneb.obj
 0001:00000650       _IXACT3Engine_CreateInMemoryWaveBank@24 00401650 f i stdneb.obj
 0001:00000680       _IXACT3Engine_CreateStreamingWaveBank@12 00401680 f i stdneb.obj
 0001:000006a0       _IXACT3Engine_PrepareWave@32 004016a0 f i stdneb.obj
 0001:000006e0       _IXACT3Engine_PrepareInMemoryWave@52 004016e0 f i stdneb.obj
 0001:00000740       _IXACT3Engine_PrepareStreamingWave@68 00401740 f i stdneb.obj
 0001:000007c0       _IXACT3Engine_RegisterNotification@8 004017c0 f i stdneb.obj
 0001:000007e0       _IXACT3Engine_UnRegisterNotification@8 004017e0 f i stdneb.obj
 0001:00000800       _IXACT3Engine_GetCategory@8 00401800 f i stdneb.obj
 0001:00000820       _IXACT3Engine_Stop@12      00401820 f i stdneb.obj
 0001:00000840       _IXACT3Engine_SetVolume@12 00401840 f i stdneb.obj
 0001:00000870       _IXACT3Engine_Pause@12     00401870 f i stdneb.obj
 0001:00000890       _IXACT3Engine_GetGlobalVariableIndex@8 00401890 f i stdneb.obj
 0001:000008b0       _IXACT3Engine_SetGlobalVariable@12 004018b0 f i stdneb.obj
 0001:000008e0       _IXACT3Engine_GetGlobalVariable@12 004018e0 f i stdneb.obj
 0001:00000900       ?Decrement@Win360Interlocked@Win360@@SAHACH@Z 00401900 f i testhttpviewer.obj
 0001:00000920       ?__HeapUnalignPointer16@Memory@@YAPAEPAE@Z 00401920 f i testhttpviewer.obj
 0001:00000940       ?__HeapFree16@Memory@@YAHPAXK0@Z 00401940 f i testhttpviewer.obj
 0001:00000980       ??2@YAPAXI@Z               00401980 f i testhttpviewer.obj
 0001:000009a0       ??_U@YAPAXI@Z              004019a0 f i testhttpviewer.obj
 0001:000009c0       ??3@YAXPAX@Z               004019c0 f i testhttpviewer.obj
 0001:000009e0       ??_V@YAXPAX@Z              004019e0 f i testhttpviewer.obj
 0001:00000a00       ?Free@Win360Heap@Win360@@QAEXPAX@Z 00401a00 f i testhttpviewer.obj
 0001:00000a80       ??3String@Util@@SAXPAX@Z   00401a80 f i testhttpviewer.obj
 0001:00000aa0       ??0String@Util@@QAE@XZ     00401aa0 f i testhttpviewer.obj
 0001:00000ae0       ?Delete@String@Util@@AAEXXZ 00401ae0 f i testhttpviewer.obj
 0001:00000b30       ??1String@Util@@QAE@XZ     00401b30 f i testhttpviewer.obj
 0001:00000b80       ??0String@Util@@QAE@PBD@Z  00401b80 f i testhttpviewer.obj
 0001:00000bc0       ?AsCharPtr@String@Util@@QBEPBDXZ 00401bc0 f i testhttpviewer.obj
 0001:00000bf0       ??4String@Util@@QAEXABV01@@Z 00401bf0 f i testhttpviewer.obj
 0001:00000c30       ?SetCompanyName@Application@App@@QAEXABVString@Util@@@Z 00401c30 f i testhttpviewer.obj
 0001:00000c80       ?SetAppTitle@Application@App@@QAEXABVString@Util@@@Z 00401c80 f i testhttpviewer.obj
 0001:00000cd0       ?SetCmdLineArgs@Application@App@@QAEXABVCommandLineArgs@Util@@@Z 00401cd0 f i testhttpviewer.obj
 0001:00000d00       ??4CommandLineArgs@Util@@QAEAAV01@ABV01@@Z 00401d00 f i testhttpviewer.obj
 0001:00000d20       ?Release@RefCounted@Core@@QAEXXZ 00401d20 f i testhttpviewer.obj
 0001:00000d70       ??3Blob@Util@@SAXPAX@Z     00401d70 f i testhttpviewer.obj
 0001:00000d90       ?IsValid@Blob@Util@@QBE_NXZ 00401d90 f i testhttpviewer.obj
 0001:00000db0       ?Delete@Blob@Util@@AAEXXZ  00401db0 f i testhttpviewer.obj
 0001:00000e90       ??1Blob@Util@@QAE@XZ       00401e90 f i testhttpviewer.obj
 0001:00000eb0       ??_GString@Util@@QAEPAXI@Z 00401eb0 f i testhttpviewer.obj
 0001:00000f20       ??_H@YGXPAXIHP6EPAX0@Z@Z   00401f20 f i testhttpviewer.obj
 0001:00000f50       ?SetLogFileEnabled@RenderApplication@App@@QAEX_N@Z 00401f50 f i testhttpviewer.obj
 0001:00000f70       ?SetMountStandardArchivesEnabled@RenderApplication@App@@QAEX_N@Z 00401f70 f i testhttpviewer.obj
 0001:00000f90       ?SetOverrideRootDirectory@RenderApplication@App@@QAEXABVString@Util@@@Z 00401f90 f i testhttpviewer.obj
 0001:00000fe0       _WinMain@16                00401fe0 f   testhttpviewer.obj
 0001:00001070       ??1CommandLineArgs@Util@@QAE@XZ 00402070 f i testhttpviewer.obj
 0001:00001090       ?NebulaMain@@YAXABVCommandLineArgs@Util@@@Z 00402090 f   testhttpviewer.obj
 0001:000012f0       ??1?$Array@VString@Util@@@Util@@QAE@XZ 004022f0 f i testhttpviewer.obj
 0001:00001310       ??4?$Array@VString@Util@@@Util@@QAEXABV01@@Z 00402310 f i testhttpviewer.obj
 0001:00001440       ??_EString@Util@@QAEPAXI@Z 00402440 f i testhttpviewer.obj
 0001:00001550       ??1?$KeyValuePair@VStringAtom@Util@@V?$Ptr@VRenderTarget@CoreGraphics@@@@@Util@@QAE@XZ 00402550 f i testhttpviewer.obj
 0001:00001570       ??1?$KeyValuePair@VStringAtom@Util@@V?$Ptr@VMultipleRenderTarget@CoreGraphics@@@@@Util@@QAE@XZ 00402570 f i testhttpviewer.obj
 0001:00001590       ??1?$KeyValuePair@VStringAtom@Util@@V?$Ptr@VManagedTexture@Resources@@@@@Util@@QAE@XZ 00402590 f i testhttpviewer.obj
 0001:000015b0       ??_I@YGXPAXIHP6EX0@Z@Z     004025b0 f i testhttpviewer.obj
 0001:000015e0       ?Destroy@?$Array@VString@Util@@@Util@@AAEXPAVString@2@@Z 004025e0 f i testhttpviewer.obj
 0001:00001600       ?Copy@?$Array@VString@Util@@@Util@@AAEXABV12@@Z 00402600 f i testhttpviewer.obj
 0001:00001780       ?Delete@?$Array@VString@Util@@@Util@@AAEXXZ 00402780 f i testhttpviewer.obj
 0001:000017f0       ??1?$Ptr@VRenderTarget@CoreGraphics@@@@QAE@XZ 004027f0 f i testhttpviewer.obj
 0001:00001820       ??1?$Ptr@VMultipleRenderTarget@CoreGraphics@@@@QAE@XZ 00402820 f i testhttpviewer.obj
 0001:00001850       ??1?$Ptr@VManagedTexture@Resources@@@@QAE@XZ 00402850 f i testhttpviewer.obj
 0001:00001880       ??_E?$Ptr@VConsoleHandler@IO@@@@QAEPAXI@Z 00402880 f i testhttpviewer.obj
 0001:00001920       ??_EBlob@Util@@QAEPAXI@Z   00402920 f i testhttpviewer.obj
 0001:000019c0       ??_E?$Ptr@VResourceMapper@Resources@@@@QAEPAXI@Z 004029c0 f i testhttpviewer.obj
 0001:00001a60       ??_E?$Ptr@VVisibilitySystemBase@Visibility@@@@QAEPAXI@Z 00402a60 f i testhttpviewer.obj
 0001:00001b00       ??_ERenderShape@CoreGraphics@@QAEPAXI@Z 00402b00 f i testhttpviewer.obj
 0001:00001bb0       ??_ETextElement@CoreGraphics@@QAEPAXI@Z 00402bb0 f i testhttpviewer.obj
 0001:00001c50       ??1RenderShape@CoreGraphics@@QAE@XZ 00402c50 f i testhttpviewer.obj
 0001:00001c70       ??1TextElement@CoreGraphics@@QAE@XZ 00402c70 f i testhttpviewer.obj
 0001:00001cd0       ??1?$Ptr@VConsoleHandler@IO@@@@QAE@XZ 00402cd0 f i testhttpviewer.obj
 0001:00001d00       ??1?$Ptr@VResourceMapper@Resources@@@@QAE@XZ 00402d00 f i testhttpviewer.obj
 0001:00001d30       ??1?$Ptr@VVisibilitySystemBase@Visibility@@@@QAE@XZ 00402d30 f i testhttpviewer.obj
 0001:00001d60       ??1?$Ptr@VMemoryStream@IO@@@@QAE@XZ 00402d60 f i testhttpviewer.obj
 0001:00001d90       ??_E?$Ptr@VInternalGraphicsEntity@InternalGraphics@@@@QAEPAXI@Z 00402d90 f i testhttpviewer.obj
 0001:00001e30       ??_E?$Ptr@VShaderVariableInstance@CoreGraphics@@@@QAEPAXI@Z 00402e30 f i testhttpviewer.obj
 0001:00001ed0       ??_E?$Ptr@VFrameBatch@Frame@@@@QAEPAXI@Z 00402ed0 f i testhttpviewer.obj
 0001:00001f70       ??_E?$Ptr@VFramePassBase@Frame@@@@QAEPAXI@Z 00402f70 f i testhttpviewer.obj
 0001:00002010       ??1?$Ptr@VInternalGraphicsEntity@InternalGraphics@@@@QAE@XZ 00403010 f i testhttpviewer.obj
 0001:00002040       ??1?$Ptr@VShaderVariableInstance@CoreGraphics@@@@QAE@XZ 00403040 f i testhttpviewer.obj
 0001:00002070       ??1?$Ptr@VFrameBatch@Frame@@@@QAE@XZ 00403070 f i testhttpviewer.obj
 0001:000020a0       ??1?$Ptr@VFramePassBase@Frame@@@@QAE@XZ 004030a0 f i testhttpviewer.obj
 0001:000020d0       ??_E?$Ptr@VModel@Models@@@@QAEPAXI@Z 004030d0 f i testhttpviewer.obj
 0001:00002170       ??_E?$KeyValuePair@VStringAtom@Util@@V?$Ptr@VRenderTarget@CoreGraphics@@@@@Util@@QAEPAXI@Z 00403170 f i testhttpviewer.obj
 0001:00002210       ??_E?$KeyValuePair@VStringAtom@Util@@V?$Ptr@VMultipleRenderTarget@CoreGraphics@@@@@Util@@QAEPAXI@Z 00403210 f i testhttpviewer.obj
 0001:000022b0       ??_E?$KeyValuePair@VStringAtom@Util@@V?$Ptr@VManagedTexture@Resources@@@@@Util@@QAEPAXI@Z 004032b0 f i testhttpviewer.obj
 0001:00002350       ??1?$Ptr@VModel@Models@@@@QAE@XZ 00403350 f i testhttpviewer.obj
 0001:00002380       ?Increment@Win360Interlocked@Win360@@SAHACH@Z 00403380 f i testhttpviewerapplication.obj
 0001:000023a0       ?n_sin@Math@@YAMM@Z        004033a0 f i testhttpviewerapplication.obj
 0001:000023c0       ?n_deg2rad@Math@@YAMM@Z    004033c0 f i testhttpviewerapplication.obj
 0001:000023e0       ??0float4@Math@@QAE@MMMM@Z 004033e0 f i testhttpviewerapplication.obj
 0001:00002430       ??0float2@Math@@QAE@MM@Z   00403430 f i testhttpviewerapplication.obj
 0001:00002460       ??4float2@Math@@QAEXABV01@@Z 00403460 f i testhttpviewerapplication.obj
 0001:00002490       ??0matrix44@Math@@QAE@ABU_XMMATRIX@@@Z 00403490 f i testhttpviewerapplication.obj
 0001:000024c0       ?translate@matrix44@Math@@QAEXABVfloat4@2@@Z 004034c0 f i testhttpviewerapplication.obj
 0001:00002520       ?rotationx@matrix44@Math@@SA?AV12@M@Z 00403520 f i testhttpviewerapplication.obj
 0001:00002560       ?translation@matrix44@Math@@SA?AV12@MMM@Z 00403560 f i testhttpviewerapplication.obj
 0001:00002620       ??4String@Util@@QAEXPBD@Z  00403620 f i testhttpviewerapplication.obj
 0001:00002640       ?IsOpen@Application@App@@QBE_NXZ 00403640 f i testhttpviewerapplication.obj
 0001:00002660       ?AddRef@RefCounted@Core@@QAEXXZ 00403660 f i testhttpviewerapplication.obj
 0001:00002680       ??0StringAtom@Util@@QAE@PBD@Z 00403680 f i testhttpviewerapplication.obj
 0001:000026b0       ??4StringAtom@Util@@QAEXABV01@@Z 004036b0 f i testhttpviewerapplication.obj
 0001:000026d0       ??0DisplayMode@CoreGraphics@@QAE@IIW4Code@PixelFormat@1@@Z 004036d0 f i testhttpviewerapplication.obj
 0001:00002740       ?SetClipName@AnimPlayClip@Graphics@@QAEXABVStringAtom@Util@@@Z 00403740 f i testhttpviewerapplication.obj
 0001:00002780       ?SetTrackIndex@AnimPlayClip@Graphics@@QAEXH@Z 00403780 f i testhttpviewerapplication.obj
 0001:000027c0       ?SetLoopCount@AnimPlayClip@Graphics@@QAEXM@Z 004037c0 f i testhttpviewerapplication.obj
 0001:00002800       ?SetSkinList@ApplySkinList@Graphics@@QAEXABVStringAtom@Util@@@Z 00403800 f i testhttpviewerapplication.obj
 0001:00002840       ?SetThreadId@RenderDebugView@Debug@@QAEXABK@Z 00403840 f i testhttpviewerapplication.obj
 0001:00002880       ?SetEnableDebugRendering@RenderDebugView@Debug@@QAEX_N@Z 00403880 f i testhttpviewerapplication.obj
 0001:000028c0       ?Instance@GraphicsInterface@Graphics@@SAPAV12@XZ 004038c0 f i testhttpviewerapplication.obj
 0001:000028f0       ?DisplayMode@DisplaySettings@Graphics@@QAEAAV0CoreGraphics@@XZ 004038f0 f i testhttpviewerapplication.obj
 0001:00002910       ?SetVerticalSyncEnabled@DisplaySettings@Graphics@@QAEX_N@Z 00403910 f i testhttpviewerapplication.obj
 0001:00002930       ?Settings@Display@Graphics@@QAEAAVDisplaySettings@2@XZ 00403930 f i testhttpviewerapplication.obj
 0001:00002950       ?GetDefaultKeyboard@InputServerBase@Base@@QBEABV?$Ptr@VKeyboard@Input@@@@XZ 00403950 f i testhttpviewerapplication.obj
 0001:00002990       ?Instance@InputServer@Input@@SAPAV12@XZ 00403990 f i testhttpviewerapplication.obj
 0001:000029c0       ?GetTime@RenderApplication@App@@IBENXZ 004039c0 f i testhttpviewerapplication.obj
 0001:000029e0       ?GetFrameTime@RenderApplication@App@@IBENXZ 004039e0 f i testhttpviewerapplication.obj
 0001:00002a00       ?SetOrbitButton@MayaCameraUtil@RenderUtil@@QAEX_N@Z 00403a00 f i testhttpviewerapplication.obj
 0001:00002a20       ?GetCameraTransform@MayaCameraUtil@RenderUtil@@QBEABVmatrix44@Math@@XZ 00403a20 f i testhttpviewerapplication.obj
 0001:00002a40       ?SetOrbiting@MayaCameraUtil@RenderUtil@@QAEXABVfloat2@Math@@@Z 00403a40 f i testhttpviewerapplication.obj
 0001:00002a70       ?Instance@DebugTextRenderer@Debug@@SAPAV12@XZ 00403a70 f i testhttpviewerapplication.obj
 0001:00002ab0       ?SetResourceId@ModelEntity@Graphics@@QAEXABVStringAtom@Util@@@Z 00403ab0 f i testhttpviewerapplication.obj
 0001:00002ad0       ?KeyDown@KeyboardBase@Base@@QBE_NW4Code@Key@Input@@@Z 00403ad0 f i testhttpviewerapplication.obj
 0001:00002af0       ??0TestHttpViewerApplication@Tools@@QAE@XZ 00403af0 f   testhttpviewerapplication.obj
 0001:00002b90       ??_GTestHttpViewerApplication@Tools@@UAEPAXI@Z 00403b90 f i testhttpviewerapplication.obj
 0001:00002b90       ??_ETestHttpViewerApplication@Tools@@UAEPAXI@Z 00403b90 f i  CIL library: CIL module
 0001:00002bc0       ??1TestHttpViewerApplication@Tools@@UAE@XZ 00403bc0 f   testhttpviewerapplication.obj
 0001:00002c50       ?Open@TestHttpViewerApplication@Tools@@UAE_NXZ 00403c50 f   testhttpviewerapplication.obj
 0001:000035d0       ?Close@TestHttpViewerApplication@Tools@@UAEXXZ 004045d0 f   testhttpviewerapplication.obj
 0001:00003720       ?OnConfigureDisplay@TestHttpViewerApplication@Tools@@EAEXXZ 00404720 f   testhttpviewerapplication.obj
 0001:000037c0       ?OnProcessInput@TestHttpViewerApplication@Tools@@EAEXXZ 004047c0 f   testhttpviewerapplication.obj
 0001:00003a00       ?OnUpdateFrame@TestHttpViewerApplication@Tools@@EAEXXZ 00404a00 f   testhttpviewerapplication.obj
 0001:000041e0       ??0?$Array@Vmatrix44@Math@@@Util@@QAE@XZ 004051e0 f i testhttpviewerapplication.obj
 0001:00004220       ??1?$Array@Vmatrix44@Math@@@Util@@QAE@XZ 00405220 f i testhttpviewerapplication.obj
 0001:00004240       ??A?$Array@Vmatrix44@Math@@@Util@@QBEAAVmatrix44@Math@@H@Z 00405240 f i testhttpviewerapplication.obj
 0001:00004290       ??C?$Ptr@VKeyboard@Input@@@@QBEPAVKeyboard@Input@@XZ 00405290 f i testhttpviewerapplication.obj
 0001:000042d0       ??C?$Ptr@VDisplay@Graphics@@@@QBEPAVDisplay@Graphics@@XZ 004052d0 f i testhttpviewerapplication.obj
 0001:00004310       ??C?$Ptr@VStage@Graphics@@@@QBEPAVStage@Graphics@@XZ 00405310 f i testhttpviewerapplication.obj
 0001:00004350       ??C?$Ptr@VCameraEntity@Graphics@@@@QBEPAVCameraEntity@Graphics@@XZ 00405350 f i testhttpviewerapplication.obj
 0001:00004390       ??0?$Ptr@VModelEntity@Graphics@@@@QAE@PAVModelEntity@Graphics@@@Z 00405390 f i testhttpviewerapplication.obj
 0001:000043d0       ??0?$Ptr@VModelEntity@Graphics@@@@QAE@XZ 004053d0 f i testhttpviewerapplication.obj
 0001:000043f0       ??1?$Ptr@VModelEntity@Graphics@@@@QAE@XZ 004053f0 f i testhttpviewerapplication.obj
 0001:00004420       ??4?$Ptr@VModelEntity@Graphics@@@@QAEXPAVModelEntity@Graphics@@@Z 00405420 f i testhttpviewerapplication.obj
 0001:00004480       ??C?$Ptr@VModelEntity@Graphics@@@@QBEPAVModelEntity@Graphics@@XZ 00405480 f i testhttpviewerapplication.obj
 0001:000044c0       ??0?$Array@V?$Ptr@VModelEntity@Graphics@@@@@Util@@QAE@XZ 004054c0 f i testhttpviewerapplication.obj
 0001:00004500       ??1?$Array@V?$Ptr@VModelEntity@Graphics@@@@@Util@@QAE@XZ 00405500 f i testhttpviewerapplication.obj
 0001:00004520       ??A?$Array@V?$Ptr@VModelEntity@Graphics@@@@@Util@@QBEAAV?$Ptr@VModelEntity@Graphics@@@@H@Z 00405520 f i testhttpviewerapplication.obj
 0001:00004570       ?Append@?$Array@V?$Ptr@VModelEntity@Graphics@@@@@Util@@QAEXABV?$Ptr@VModelEntity@Graphics@@@@@Z 00405570 f i testhttpviewerapplication.obj
 0001:000045f0       ?Size@?$Array@V?$Ptr@VModelEntity@Graphics@@@@@Util@@QBEHXZ 004055f0 f i testhttpviewerapplication.obj
 0001:00004610       ?Clear@?$Array@V?$Ptr@VModelEntity@Graphics@@@@@Util@@QAEXXZ 00405610 f i testhttpviewerapplication.obj
 0001:00004660       ??0?$Ptr@VGlobalLightEntity@Graphics@@@@QAE@XZ 00405660 f i testhttpviewerapplication.obj
 0001:00004680       ??1?$Ptr@VGlobalLightEntity@Graphics@@@@QAE@XZ 00405680 f i testhttpviewerapplication.obj
 0001:000046b0       ??4?$Ptr@VGlobalLightEntity@Graphics@@@@QAEXPAVGlobalLightEntity@Graphics@@@Z 004056b0 f i testhttpviewerapplication.obj
 0001:00004710       ??C?$Ptr@VGlobalLightEntity@Graphics@@@@QBEPAVGlobalLightEntity@Graphics@@XZ 00405710 f i testhttpviewerapplication.obj
 0001:00004750       ??0?$Array@V?$Ptr@VPointLightEntity@Graphics@@@@@Util@@QAE@XZ 00405750 f i testhttpviewerapplication.obj
 0001:00004790       ??1?$Array@V?$Ptr@VPointLightEntity@Graphics@@@@@Util@@QAE@XZ 00405790 f i testhttpviewerapplication.obj
 0001:000047b0       ??A?$Array@V?$Ptr@VPointLightEntity@Graphics@@@@@Util@@QBEAAV?$Ptr@VPointLightEntity@Graphics@@@@H@Z 004057b0 f i testhttpviewerapplication.obj
 0001:00004800       ?Size@?$Array@V?$Ptr@VPointLightEntity@Graphics@@@@@Util@@QBEHXZ 00405800 f i testhttpviewerapplication.obj
 0001:00004820       ?Clear@?$Array@V?$Ptr@VPointLightEntity@Graphics@@@@@Util@@QAEXXZ 00405820 f i testhttpviewerapplication.obj
 0001:00004870       ??0?$Array@N@Util@@QAE@XZ  00405870 f i testhttpviewerapplication.obj
 0001:000048b0       ??1?$Array@N@Util@@QAE@XZ  004058b0 f i testhttpviewerapplication.obj
 0001:000048d0       ??A?$Array@N@Util@@QBEAANH@Z 004058d0 f i testhttpviewerapplication.obj
 0001:00004920       ?Append@?$Array@N@Util@@QAEXABN@Z 00405920 f i testhttpviewerapplication.obj
 0001:00004990       ?Size@?$Array@N@Util@@QBEHXZ 00405990 f i testhttpviewerapplication.obj
 0001:000049b0       ??A?$FixedArray@VKeyState@KeyboardBase@Base@@@Util@@QBEAAVKeyState@KeyboardBase@Base@@H@Z 004059b0 f i testhttpviewerapplication.obj
 0001:00004a00       ??$cast@VGraphicsEntity@Graphics@@@?$Ptr@VGlobalLightEntity@Graphics@@@@QBEABV?$Ptr@VGraphicsEntity@Graphics@@@@XZ 00405a00 f i testhttpviewerapplication.obj
 0001:00004a10       ??$cast@VGraphicsEntity@Graphics@@@?$Ptr@VModelEntity@Graphics@@@@QBEABV?$Ptr@VGraphicsEntity@Graphics@@@@XZ 00405a10 f i testhttpviewerapplication.obj
 0001:00004a20       ??0?$Ptr@VApplySkinList@Graphics@@@@QAE@PAVApplySkinList@Graphics@@@Z 00405a20 f i testhttpviewerapplication.obj
 0001:00004a60       ??1?$Ptr@VApplySkinList@Graphics@@@@QAE@XZ 00405a60 f i testhttpviewerapplication.obj
 0001:00004a90       ??C?$Ptr@VApplySkinList@Graphics@@@@QBEPAVApplySkinList@Graphics@@XZ 00405a90 f i testhttpviewerapplication.obj
 0001:00004ad0       ??$cast@VGraphicsEntityMessage@Graphics@@@?$Ptr@VApplySkinList@Graphics@@@@QBEABV?$Ptr@VGraphicsEntityMessage@Graphics@@@@XZ 00405ad0 f i testhttpviewerapplication.obj
 0001:00004ae0       ??0?$Ptr@VAnimPlayClip@Graphics@@@@QAE@PAVAnimPlayClip@Graphics@@@Z 00405ae0 f i testhttpviewerapplication.obj
 0001:00004b20       ??1?$Ptr@VAnimPlayClip@Graphics@@@@QAE@XZ 00405b20 f i testhttpviewerapplication.obj
 0001:00004b50       ??C?$Ptr@VAnimPlayClip@Graphics@@@@QBEPAVAnimPlayClip@Graphics@@XZ 00405b50 f i testhttpviewerapplication.obj
 0001:00004b90       ??$cast@VGraphicsEntityMessage@Graphics@@@?$Ptr@VAnimPlayClip@Graphics@@@@QBEABV?$Ptr@VGraphicsEntityMessage@Graphics@@@@XZ 00405b90 f i testhttpviewerapplication.obj
 0001:00004ba0       ??C?$Ptr@VPointLightEntity@Graphics@@@@QBEPAVPointLightEntity@Graphics@@XZ 00405ba0 f i testhttpviewerapplication.obj
 0001:00004be0       ??$cast@VGraphicsEntity@Graphics@@@?$Ptr@VPointLightEntity@Graphics@@@@QBEABV?$Ptr@VGraphicsEntity@Graphics@@@@XZ 00405be0 f i testhttpviewerapplication.obj
 0001:00004bf0       ??0?$Ptr@VRenderDebugView@Debug@@@@QAE@PAVRenderDebugView@Debug@@@Z 00405bf0 f i testhttpviewerapplication.obj
 0001:00004c30       ??1?$Ptr@VRenderDebugView@Debug@@@@QAE@XZ 00405c30 f i testhttpviewerapplication.obj
 0001:00004c60       ??C?$Ptr@VRenderDebugView@Debug@@@@QBEPAVRenderDebugView@Debug@@XZ 00405c60 f i testhttpviewerapplication.obj
 0001:00004ca0       ??$cast@VMessage@Messaging@@@?$Ptr@VRenderDebugView@Debug@@@@QBEABV?$Ptr@VMessage@Messaging@@@@XZ 00405ca0 f i testhttpviewerapplication.obj
 0001:00004cb0       ?Delete@?$Array@Vmatrix44@Math@@@Util@@AAEXXZ 00405cb0 f i testhttpviewerapplication.obj
 0001:00004d10       ??4?$Ptr@VModelEntity@Graphics@@@@QAEXABV0@@Z 00405d10 f i testhttpviewerapplication.obj
 0001:00004d70       ?Destroy@?$Array@V?$Ptr@VModelEntity@Graphics@@@@@Util@@AAEXPAV?$Ptr@VModelEntity@Graphics@@@@@Z 00405d70 f i testhttpviewerapplication.obj
 0001:00004da0       ?Delete@?$Array@V?$Ptr@VModelEntity@Graphics@@@@@Util@@AAEXXZ 00405da0 f i testhttpviewerapplication.obj
 0001:00004e10       ?Grow@?$Array@V?$Ptr@VModelEntity@Graphics@@@@@Util@@AAEXXZ 00405e10 f i testhttpviewerapplication.obj
 0001:00004e90       ?Destroy@?$Array@V?$Ptr@VPointLightEntity@Graphics@@@@@Util@@AAEXPAV?$Ptr@VPointLightEntity@Graphics@@@@@Z 00405e90 f i testhttpviewerapplication.obj
 0001:00004ec0       ?Delete@?$Array@V?$Ptr@VPointLightEntity@Graphics@@@@@Util@@AAEXXZ 00405ec0 f i testhttpviewerapplication.obj
 0001:00004f30       ?Delete@?$Array@N@Util@@AAEXXZ 00405f30 f i testhttpviewerapplication.obj
 0001:00004f90       ?Grow@?$Array@N@Util@@AAEXXZ 00405f90 f i testhttpviewerapplication.obj
 0001:00005010       ??_G?$Ptr@VModelEntity@Graphics@@@@QAEPAXI@Z 00406010 f i testhttpviewerapplication.obj
 0001:00005040       ??_E?$Ptr@VModelEntity@Graphics@@@@QAEPAXI@Z 00406040 f i testhttpviewerapplication.obj
 0001:000050e0       ??_G?$Ptr@VPointLightEntity@Graphics@@@@QAEPAXI@Z 004060e0 f i testhttpviewerapplication.obj
 0001:00005110       ??_E?$Ptr@VPointLightEntity@Graphics@@@@QAEPAXI@Z 00406110 f i testhttpviewerapplication.obj
 0001:000051b0       ?GrowTo@?$Array@V?$Ptr@VModelEntity@Graphics@@@@@Util@@AAEXH@Z 004061b0 f i testhttpviewerapplication.obj
 0001:000052d0       ??1?$Ptr@VPointLightEntity@Graphics@@@@QAE@XZ 004062d0 f i testhttpviewerapplication.obj
 0001:00005300       ?GrowTo@?$Array@N@Util@@AAEXH@Z 00406300 f i testhttpviewerapplication.obj
 0001:000053b0       ?XMMatrixTranslation@@YA?AU_XMMATRIX@@MMM@Z 004063b0 f i testhttpviewerapplication.obj
 0001:00005450       ?XMMatrixRotationX@@YA?AU_XMMATRIX@@M@Z 00406450 f i testhttpviewerapplication.obj
 0001:000055d0       ??Y@YAAAT__m128@@AAT0@T0@@Z 004065d0 f i testhttpviewerapplication.obj
 0001:00005620       ??0_XMMATRIX@@QAE@XZ       00406620 f i testhttpviewerapplication.obj
 0001:00005630       ??BXMVECTORF32@@QBE?AT__m128@@XZ 00406630 f i testhttpviewerapplication.obj
 0001:00005660       ?XMVectorAdd@@YA?AT__m128@@T1@0@Z 00406660 f i testhttpviewerapplication.obj
 0001:00005690       ?XMVectorSet@@YA?AT__m128@@MMMM@Z 00406690 f i testhttpviewerapplication.obj
 0001:000056d0       _cosf                      004066d0 f i testhttpviewerapplication.obj
 0001:000056f0       _sinf                      004066f0 f i testhttpviewerapplication.obj
 0001:00005710       ?XMScalarSin@@YAMM@Z       00406710 f i testhttpviewerapplication.obj
 0001:00005730       ?Instance@Console@IO@@SAPAV12@XZ 00406730 f i foundation_win32.release:debug.obj
 0001:00005760       ?HasInstance@Console@IO@@SA_NXZ 00406760 f i foundation_win32.release:debug.obj
 0001:00005780       ?n_barf@@YAXPBD0H@Z        00406780 f   foundation_win32.release:debug.obj
 0001:00005820       ?n_barf2@@YAXPBD00H@Z      00406820 f   foundation_win32.release:debug.obj
 0001:000058c0       ?n_error@@YAXPBDZZ         004068c0 f   foundation_win32.release:debug.obj
 0001:00005980       ?n_warning@@YAXPBDZZ       00406980 f   foundation_win32.release:debug.obj
 0001:00005a40       ?n_confirm@@YAXPBDZZ       00406a40 f   foundation_win32.release:debug.obj
 0001:00005b00       ?n_printf@@YAXPBDZZ        00406b00 f   foundation_win32.release:debug.obj
 0001:00005b50       ?n_dbgout@@YAXPBDZZ        00406b50 f   foundation_win32.release:debug.obj
 0001:00005ba0       ?n_sleep@@YAXN@Z           00406ba0 f   foundation_win32.release:debug.obj
 0001:00005bc0       ?__HeapAlignPointerAndWritePadding16@Memory@@YAPAEPAE@Z 00406bc0 f i foundation_win32.release:win360memory.obj
 0001:00005bf0       ?__HeapAlloc16@Memory@@YAPAXPAXKK@Z 00406bf0 f i foundation_win32.release:win360memory.obj
 0001:00005c40       ?__HeapReAlloc16@Memory@@YAPAXPAXK0K@Z 00406c40 f i foundation_win32.release:win360memory.obj
 0001:00005d60       ?Copy@Memory@@YAXPBXPAXI@Z 00406d60 f i foundation_win32.release:win360memory.obj
 0001:00005dd0       ?Alloc@Memory@@YAPAXW4HeapType@1@I@Z 00406dd0 f   foundation_win32.release:win360memory.obj
 0001:00005ec0       ?Realloc@Memory@@YAPAXW4HeapType@1@PAXI@Z 00406ec0 f   foundation_win32.release:win360memory.obj
 0001:00006070       ?Free@Memory@@YAXW4HeapType@1@PAX@Z 00407070 f   foundation_win32.release:win360memory.obj
 0001:00006100       ?DuplicateCString@Memory@@YAPADPBD@Z 00407100 f   foundation_win32.release:win360memory.obj
 0001:000061e0       ?IsOverlapping@Memory@@YA_NPBEI0I@Z 004071e0 f   foundation_win32.release:win360memory.obj
 0001:00006220       ?GetTotalMemoryStatus@Memory@@YA?AUTotalMemoryStatus@1@XZ 00407220 f   foundation_win32.release:win360memory.obj
 0001:00006290       ?DumpTotalMemoryStatus@Memory@@YAXXZ 00407290 f   foundation_win32.release:win360memory.obj
 0001:000062b0       ??0matrix44@Math@@QAE@ABVfloat4@1@000@Z 004072b0 f i foundation_win32.release:string.obj
 0001:00006300       ?Alloc@String@Util@@AAEXH@Z 00407300 f i foundation_win32.release:string.obj
 0001:000063a0       ?Realloc@String@Util@@AAEXH@Z 004073a0 f i foundation_win32.release:string.obj
 0001:000064f0       ?Reserve@String@Util@@QAEXH@Z 004074f0 f i foundation_win32.release:string.obj
 0001:00006520       ??0String@Util@@QAE@ABV01@@Z 00407520 f i foundation_win32.release:string.obj
 0001:00006580       ?Append@String@Util@@QAEXABV12@@Z 00407580 f i foundation_win32.release:string.obj
 0001:000065c0       ??AString@Util@@QBEDH@Z    004075c0 f i foundation_win32.release:string.obj
 0001:00006620       ??AString@Util@@QAEAADH@Z  00407620 f i foundation_win32.release:string.obj
 0001:00006680       ?Length@String@Util@@QBEHXZ 00407680 f i foundation_win32.release:string.obj
 0001:000066a0       ?IsValid@String@Util@@QBE_NXZ 004076a0 f i foundation_win32.release:string.obj
 0001:00006760       ?CopyToBuffer@String@Util@@QBE_NPADH@Z 00407760 f   foundation_win32.release:string.obj
 0001:00006810       ?Format@String@Util@@QAAXPBDZZ 00407810 f   foundation_win32.release:string.obj
 0001:000068a0       ?FormatArgList@String@Util@@QAAXPBDPAD@Z 004078a0 f   foundation_win32.release:string.obj
 0001:00006910       ?Set@String@Util@@QAEXPBDH@Z 00407910 f   foundation_win32.release:string.obj
 0001:00006b80       ?AppendRange@String@Util@@QAEXPBDH@Z 00407b80 f   foundation_win32.release:string.obj
 0001:00006da0       ?Tokenize@String@Util@@QBEHABV12@AAV?$Array@VString@Util@@@2@@Z 00407da0 f   foundation_win32.release:string.obj
 0001:00006ed0       ?Tokenize@String@Util@@QBE?AV?$Array@VString@Util@@@2@ABV12@@Z 00407ed0 f   foundation_win32.release:string.obj
 0001:00006f10       ?Tokenize@String@Util@@QBEHABV12@DAAV?$Array@VString@Util@@@2@@Z 00407f10 f   foundation_win32.release:string.obj
 0001:00007260       ?Tokenize@String@Util@@QBE?AV?$Array@VString@Util@@@2@ABV12@D@Z 00408260 f   foundation_win32.release:string.obj
 0001:000072b0       ?ExtractRange@String@Util@@QBE?AV12@HH@Z 004082b0 f   foundation_win32.release:string.obj
 0001:00007370       ?ExtractToEnd@String@Util@@QBE?AV12@H@Z 00408370 f   foundation_win32.release:string.obj
 0001:000073a0       ?Strip@String@Util@@QAEXABV12@@Z 004083a0 f   foundation_win32.release:string.obj
 0001:00007460       ?FindStringIndex@String@Util@@QBEHABV12@H@Z 00408460 f   foundation_win32.release:string.obj
 0001:00007550       ?FindCharIndex@String@Util@@QBEHDH@Z 00408550 f   foundation_win32.release:string.obj
 0001:00007600       ?TrimLeft@String@Util@@QAEXABV12@@Z 00408600 f   foundation_win32.release:string.obj
 0001:000077e0       ?TrimRight@String@Util@@QAEXABV12@@Z 004087e0 f   foundation_win32.release:string.obj
 0001:000079c0       ?Trim@String@Util@@QAEXABV12@@Z 004089c0 f   foundation_win32.release:string.obj
 0001:000079f0       ?SubstituteString@String@Util@@QAEXABV12@0@Z 004089f0 f   foundation_win32.release:string.obj
 0001:00007b40       ?ExtractLastDirName@String@Util@@QBE?AV12@XZ 00408b40 f   foundation_win32.release:string.obj
 0001:00007c70       ?ExtractDirName@String@Util@@QBE?AV12@XZ 00408c70 f   foundation_win32.release:string.obj
 0001:00007d60       ?MatchPattern@String@Util@@SA_NABV12@0@Z 00408d60 f   foundation_win32.release:string.obj
 0001:00008070       ?ReplaceChars@String@Util@@QAEXABV12@D@Z 00409070 f   foundation_win32.release:string.obj
 0001:00008120       ?AsMatrix44@String@Util@@QBE?AVmatrix44@Math@@XZ 00409120 f   foundation_win32.release:string.obj
 0001:00008570       ?Concatenate@String@Util@@SA?AV12@ABV?$Array@VString@Util@@@2@ABV12@@Z 00409570 f   foundation_win32.release:string.obj
 0001:00008670       ?SetCharPtr@String@Util@@QAEXPBD@Z 00409670 f   foundation_win32.release:string.obj
 0001:000086d0       ?Append@String@Util@@QAEXPBD@Z 004096d0 f   foundation_win32.release:string.obj
 0001:00008740       ?TerminateAtIndex@String@Util@@QAEXH@Z 00409740 f   foundation_win32.release:string.obj
 0001:000087d0       ?StripFileExtension@String@Util@@QAEXXZ 004097d0 f   foundation_win32.release:string.obj
 0001:00008870       ??8Util@@YA_NABVString@0@0@Z 00409870 f   foundation_win32.release:string.obj
 0001:00008920       ??8Util@@YA_NABVString@0@PBD@Z 00409920 f   foundation_win32.release:string.obj
 0001:000089d0       ??8Util@@YA_NPBDABVString@0@@Z 004099d0 f   foundation_win32.release:string.obj
 0001:00008a80       ??9Util@@YA_NABVString@0@0@Z 00409a80 f   foundation_win32.release:string.obj
 0001:00008b30       ??MUtil@@YA_NABVString@0@0@Z 00409b30 f   foundation_win32.release:string.obj
 0001:00008be0       ??OUtil@@YA_NABVString@0@0@Z 00409be0 f   foundation_win32.release:string.obj
 0001:00008c90       ??NUtil@@YA_NABVString@0@0@Z 00409c90 f   foundation_win32.release:string.obj
 0001:00008d40       ??PUtil@@YA_NABVString@0@0@Z 00409d40 f   foundation_win32.release:string.obj
 0001:00008df0       ?ToLower@String@Util@@QAEXXZ 00409df0 f   foundation_win32.release:string.obj
 0001:00008e50       ?ToUpper@String@Util@@QAEXXZ 00409e50 f   foundation_win32.release:string.obj
 0001:00008eb0       ?FirstCharToUpper@String@Util@@QAEXXZ 00409eb0 f   foundation_win32.release:string.obj
 0001:00008ef0       ?ContainsCharFromSet@String@Util@@QBE_NABV12@@Z 00409ef0 f   foundation_win32.release:string.obj
 0001:00008f60       ?GetFileExtension@String@Util@@QBE?AV12@XZ 00409f60 f   foundation_win32.release:string.obj
 0001:00009020       ?GetLastSlash@String@Util@@ABEPADXZ 0040a020 f   foundation_win32.release:string.obj
 0001:00009090       ?IsValidBool@String@Util@@QBE_NXZ 0040a090 f   foundation_win32.release:string.obj
 0001:00009100       ?AsInt@String@Util@@QBEHXZ 0040a100 f   foundation_win32.release:string.obj
 0001:00009140       ?AsFloat@String@Util@@QBEMXZ 0040a140 f   foundation_win32.release:string.obj
 0001:00009180       ?AsBool@String@Util@@QBE_NXZ 0040a180 f   foundation_win32.release:string.obj
 0001:00009210       ?IsDigit@String@Util@@SA_ND@Z 0040a210 f   foundation_win32.release:string.obj
 0001:00009230       ?IsAlpha@String@Util@@SA_ND@Z 0040a230 f   foundation_win32.release:string.obj
 0001:00009250       ?IsAlNum@String@Util@@SA_ND@Z 0040a250 f   foundation_win32.release:string.obj
 0001:00009270       ?IsLower@String@Util@@SA_ND@Z 0040a270 f   foundation_win32.release:string.obj
 0001:00009290       ?IsUpper@String@Util@@SA_ND@Z 0040a290 f   foundation_win32.release:string.obj
 0001:000092b0       ?StrCmp@String@Util@@SAHPBD0@Z 0040a2b0 f   foundation_win32.release:string.obj
 0001:00009340       ?StrLen@String@Util@@SAHPBD@Z 0040a340 f   foundation_win32.release:string.obj
 0001:000093a0       ?StrChr@String@Util@@SAPBDPBDH@Z 0040a3a0 f   foundation_win32.release:string.obj
 0001:000093e0       ?ParseKeyValuePairs@String@Util@@SA?AV?$Dictionary@VString@Util@@V12@@2@ABV12@@Z 0040a3e0 f   foundation_win32.release:string.obj
 0001:000094e0       ??1?$Dictionary@VString@Util@@V12@@Util@@QAE@XZ 0040a4e0 f i foundation_win32.release:string.obj
 0001:00009500       ?ChangeFileExtension@String@Util@@QAEXABV12@@Z 0040a500 f   foundation_win32.release:string.obj
 0001:000095e0       ??0?$Array@VString@Util@@@Util@@QAE@ABV01@@Z 0040a5e0 f i foundation_win32.release:string.obj
 0001:00009630       ??0?$Array@VString@Util@@@Util@@QAE@HH@Z 0040a630 f i foundation_win32.release:string.obj
 0001:00009740       ??0?$Array@VString@Util@@@Util@@QAE@XZ 0040a740 f i foundation_win32.release:string.obj
 0001:00009780       ??A?$Array@VString@Util@@@Util@@QBEAAVString@1@H@Z 0040a780 f i foundation_win32.release:string.obj
 0001:000097d0       ?Append@?$Array@VString@Util@@@Util@@QAEXABVString@2@@Z 0040a7d0 f i foundation_win32.release:string.obj
 0001:00009870       ?Size@?$Array@VString@Util@@@Util@@QBEHXZ 0040a870 f i foundation_win32.release:string.obj
 0001:00009890       ?Clear@?$Array@VString@Util@@@Util@@QAEXXZ 0040a890 f i foundation_win32.release:string.obj
 0001:000098e0       ??1?$Array@V?$KeyValuePair@VString@Util@@V12@@Util@@@Util@@QAE@XZ 0040a8e0 f i foundation_win32.release:string.obj
 0001:00009900       ??0?$Dictionary@VString@Util@@V12@@Util@@QAE@ABV01@@Z 0040a900 f i foundation_win32.release:string.obj
 0001:00009950       ??0?$Dictionary@VString@Util@@V12@@Util@@QAE@XZ 0040a950 f i foundation_win32.release:string.obj
 0001:00009970       ?Add@?$Dictionary@VString@Util@@V12@@Util@@QAEXABVString@2@0@Z 0040a970 f i foundation_win32.release:string.obj
 0001:000099c0       ??1?$KeyValuePair@VString@Util@@V12@@Util@@QAE@XZ 0040a9c0 f i foundation_win32.release:string.obj
 0001:00009a50       ?Grow@?$Array@VString@Util@@@Util@@AAEXXZ 0040aa50 f i foundation_win32.release:string.obj
 0001:00009ad0       ??0?$Array@V?$KeyValuePair@VString@Util@@V12@@Util@@@Util@@QAE@ABV01@@Z 0040aad0 f i foundation_win32.release:string.obj
 0001:00009b20       ??0?$Array@V?$KeyValuePair@VString@Util@@V12@@Util@@@Util@@QAE@XZ 0040ab20 f i foundation_win32.release:string.obj
 0001:00009b60       ?Append@?$Array@V?$KeyValuePair@VString@Util@@V12@@Util@@@Util@@QAEXABV?$KeyValuePair@VString@Util@@V12@@2@@Z 0040ab60 f i foundation_win32.release:string.obj
 0001:00009be0       ?InsertSorted@?$Array@V?$KeyValuePair@VString@Util@@V12@@Util@@@Util@@QAEHABV?$KeyValuePair@VString@Util@@V12@@2@@Z 0040abe0 f i foundation_win32.release:string.obj
 0001:00009e50       ?Delete@?$Array@V?$KeyValuePair@VString@Util@@V12@@Util@@@Util@@AAEXXZ 0040ae50 f i foundation_win32.release:string.obj
 0001:00009ec0       ??0?$KeyValuePair@VString@Util@@V12@@Util@@QAE@ABVString@1@0@Z 0040aec0 f i foundation_win32.release:string.obj
 0001:00009f80       ??_E?$KeyValuePair@VString@Util@@V12@@Util@@QAEPAXI@Z 0040af80 f i foundation_win32.release:string.obj
 0001:0000a020       ?GrowTo@?$Array@VString@Util@@@Util@@AAEXH@Z 0040b020 f i foundation_win32.release:string.obj
 0001:0000a190       ?Size@?$Array@V?$KeyValuePair@VString@Util@@V12@@Util@@@Util@@QBEHXZ 0040b190 f i foundation_win32.release:string.obj
 0001:0000a1b0       ?Insert@?$Array@V?$KeyValuePair@VString@Util@@V12@@Util@@@Util@@QAEXHABV?$KeyValuePair@VString@Util@@V12@@2@@Z 0040b1b0 f i foundation_win32.release:string.obj
 0001:0000a220       ?InsertAtEndOfIdenticalRange@?$Array@V?$KeyValuePair@VString@Util@@V12@@Util@@@Util@@QAEHHABV?$KeyValuePair@VString@Util@@V12@@2@@Z 0040b220 f i foundation_win32.release:string.obj
 0001:0000a2a0       ?Copy@?$Array@V?$KeyValuePair@VString@Util@@V12@@Util@@@Util@@AAEXABV12@@Z 0040b2a0 f i foundation_win32.release:string.obj
 0001:0000a3d0       ?Grow@?$Array@V?$KeyValuePair@VString@Util@@V12@@Util@@@Util@@AAEXXZ 0040b3d0 f i foundation_win32.release:string.obj
 0001:0000a450       ??4?$KeyValuePair@VString@Util@@V12@@Util@@QAEXABV01@@Z 0040b450 f i foundation_win32.release:string.obj
 0001:0000a4e0       ??O?$KeyValuePair@VString@Util@@V12@@Util@@QBE_NABV01@@Z 0040b4e0 f i foundation_win32.release:string.obj
 0001:0000a500       ??M?$KeyValuePair@VString@Util@@V12@@Util@@QBE_NABV01@@Z 0040b500 f i foundation_win32.release:string.obj
 0001:0000a520       ?GrowTo@?$Array@V?$KeyValuePair@VString@Util@@V12@@Util@@@Util@@AAEXH@Z 0040b520 f i foundation_win32.release:string.obj
 0001:0000a640       ?Move@?$Array@V?$KeyValuePair@VString@Util@@V12@@Util@@@Util@@AAEXHH@Z 0040b640 f i foundation_win32.release:string.obj
 0001:0000a7d0       ??0?$KeyValuePair@VString@Util@@V12@@Util@@QAE@XZ 0040b7d0 f i foundation_win32.release:string.obj
 0001:0000a840       ??9?$KeyValuePair@VString@Util@@V12@@Util@@QBE_NABV01@@Z 0040b840 f i foundation_win32.release:string.obj
 0001:0000a860       ?Destroy@?$Array@V?$KeyValuePair@VString@Util@@V12@@Util@@@Util@@AAEXPAV?$KeyValuePair@VString@Util@@V12@@2@@Z 0040b860 f i foundation_win32.release:string.obj
 0001:0000a890       ??_G?$KeyValuePair@VString@Util@@V12@@Util@@QAEPAXI@Z 0040b890 f i foundation_win32.release:string.obj
 0001:0000a8c0       ?strrchr@@YAPADPADH@Z      0040b8c0 f i foundation_win32.release:string.obj
 0001:0000a8e0       ?strpbrk@@YAPADPADPBD@Z    0040b8e0 f i foundation_win32.release:string.obj
 0001:0000a900       ?strchr@@YAPADPADH@Z       0040b900 f i foundation_win32.release:string.obj
 0001:0000a9d0       ?StringCchVPrintfA@@YGJPADIPBD0@Z 0040b9d0 f i foundation_win32.release:string.obj
 0001:0000abf0       ?StringCchCopyA@@YGJPADIPBD@Z 0040bbf0 f i foundation_win32.release:string.obj
 0001:0000ac40       ?BinaryCompare@Blob@Util@@ABEHABV12@@Z 0040bc40 f   foundation_win32.release:blob.obj
 0001:0000acf0       ?AsFloat4@String@Util@@QBE?AVfloat4@Math@@XZ 0040bcf0 f i foundation_win32.release:commandlineargs.obj
 0001:0000ae70       ??0CommandLineArgs@Util@@QAE@XZ 0040be70 f   foundation_win32.release:commandlineargs.obj
 0001:0000ae90       ??0CommandLineArgs@Util@@QAE@ABVString@1@@Z 0040be90 f   foundation_win32.release:commandlineargs.obj
 0001:0000af20       ??0CommandLineArgs@Util@@QAE@HPAPBD@Z 0040bf20 f   foundation_win32.release:commandlineargs.obj
 0001:0000afc0       ?Error@CommandLineArgs@Util@@ABEXABVString@2@@Z 0040bfc0 f   foundation_win32.release:commandlineargs.obj
 0001:0000b000       ?GetCmdName@CommandLineArgs@Util@@QBEABVString@2@XZ 0040c000 f   foundation_win32.release:commandlineargs.obj
 0001:0000b040       ?HasArg@CommandLineArgs@Util@@QBE_NABVString@2@@Z 0040c040 f   foundation_win32.release:commandlineargs.obj
 0001:0000b070       ?FindArgIndex@CommandLineArgs@Util@@ABEHABVString@2@@Z 0040c070 f   foundation_win32.release:commandlineargs.obj
 0001:0000b0d0       ?GetString@CommandLineArgs@Util@@QBEABVString@2@ABV32@0@Z 0040c0d0 f   foundation_win32.release:commandlineargs.obj
 0001:0000b110       ?GetInt@CommandLineArgs@Util@@QBEHABVString@2@H@Z 0040c110 f   foundation_win32.release:commandlineargs.obj
 0001:0000b160       ?GetFloat@CommandLineArgs@Util@@QBEMABVString@2@M@Z 0040c160 f   foundation_win32.release:commandlineargs.obj
 0001:0000b1b0       ?GetBool@CommandLineArgs@Util@@QBE_NABVString@2@_N@Z 0040c1b0 f   foundation_win32.release:commandlineargs.obj
 0001:0000b200       ?GetBoolFlag@CommandLineArgs@Util@@QBE_NABVString@2@@Z 0040c200 f   foundation_win32.release:commandlineargs.obj
 0001:0000b220       ?GetFloat4@CommandLineArgs@Util@@QBE?AVfloat4@Math@@ABVString@2@ABV34@@Z 0040c220 f   foundation_win32.release:commandlineargs.obj
 0001:0000b290       ?GetMatrix44@CommandLineArgs@Util@@QBE?AVmatrix44@Math@@ABVString@2@ABV34@@Z 0040c290 f   foundation_win32.release:commandlineargs.obj
 0001:0000b2f0       ?GetNumArgs@CommandLineArgs@Util@@QBEHXZ 0040c2f0 f   foundation_win32.release:commandlineargs.obj
 0001:0000b330       ?GetStringAtIndex@CommandLineArgs@Util@@QBEABVString@2@H@Z 0040c330 f   foundation_win32.release:commandlineargs.obj
 0001:0000b350       ?GetIntAtIndex@CommandLineArgs@Util@@QBEHH@Z 0040c350 f   foundation_win32.release:commandlineargs.obj
 0001:0000b380       ?GetFloatAtIndex@CommandLineArgs@Util@@QBEMH@Z 0040c380 f   foundation_win32.release:commandlineargs.obj
 0001:0000b3b0       ?GetBoolAtIndex@CommandLineArgs@Util@@QBE_NH@Z 0040c3b0 f   foundation_win32.release:commandlineargs.obj
 0001:0000b3e0       ?GetFloat4AtIndex@CommandLineArgs@Util@@QBE?AVfloat4@Math@@H@Z 0040c3e0 f   foundation_win32.release:commandlineargs.obj
 0001:0000b410       ?GetMatrix44AtIndex@CommandLineArgs@Util@@QBE?AVmatrix44@Math@@H@Z 0040c410 f   foundation_win32.release:commandlineargs.obj
 0001:0000b440       ?AppendCommandString@CommandLineArgs@Util@@QAEXABV12@@Z 0040c440 f   foundation_win32.release:commandlineargs.obj
 0001:0000b490       ?FindIndex@?$Array@VString@Util@@@Util@@QBEHABVString@2@@Z 0040c490 f i foundation_win32.release:commandlineargs.obj
 0001:0000b4f0       ??0Application@App@@QAE@XZ 0040c4f0 f   foundation_win32.release:application.obj
 0001:0000b660       ??_GApplication@App@@UAEPAXI@Z 0040c660 f i foundation_win32.release:application.obj
 0001:0000b660       ??_EApplication@App@@UAEPAXI@Z 0040c660 f i  CIL library: CIL module
 0001:0000b690       ??1Application@App@@UAE@XZ 0040c690 f   foundation_win32.release:application.obj
 0001:0000b7f0       ?Open@Application@App@@UAE_NXZ 0040c7f0 f   foundation_win32.release:application.obj
 0001:0000b830       ?Close@Application@App@@UAEXXZ 0040c830 f   foundation_win32.release:application.obj
 0001:0000b870       ?Run@Application@App@@UAEXXZ 0040c870 f   foundation_win32.release:application.obj
 0001:0000b880       ?Exit@Application@App@@UAEXXZ 0040c880 f   foundation_win32.release:application.obj
 0001:0000b8a0       ?Instance@LocalStringAtomTable@Util@@SAPAV12@XZ 0040c8a0 f i foundation_win32.release:stringatom.obj
 0001:0000b8e0       ?Instance@GlobalStringAtomTable@Util@@SAPAV12@XZ 0040c8e0 f i foundation_win32.release:stringatom.obj
 0001:0000b910       ?Setup@StringAtom@Util@@AAEXPBD@Z 0040c910 f   foundation_win32.release:stringatom.obj
 0001:0000b9e0       ??8StringAtom@Util@@QBE_NPBD@Z 0040c9e0 f   foundation_win32.release:stringatom.obj
 0001:0000ba60       ??9StringAtom@Util@@QBE_NPBD@Z 0040ca60 f   foundation_win32.release:stringatom.obj
 0001:0000bae0       ??0FourCC@Util@@QAE@I@Z    0040cae0 f i foundation_win32.release:win360thread.obj
 0001:0000bb00       ??3RefCounted@Core@@SAXPAX@Z 0040cb00 f i foundation_win32.release:win360thread.obj
 0001:0000bb20       ??0RefCounted@Core@@QAE@XZ 0040cb20 f i foundation_win32.release:win360thread.obj
 0001:0000bb50       ??_ERefCounted@Core@@MAEPAXI@Z 0040cb50 f i  CIL library: CIL module
 0001:0000bb50       ??_GRefCounted@Core@@MAEPAXI@Z 0040cb50 f i foundation_win32.release:win360thread.obj
 0001:0000bb80       ??0Win360Event@Win360@@QAE@_N@Z 0040cb80 f i foundation_win32.release:win360thread.obj
 0001:0000bbd0       ??1Win360Event@Win360@@QAE@XZ 0040cbd0 f i foundation_win32.release:win360thread.obj
 0001:0000bbf0       ?Signal@Win360Event@Win360@@QAEXXZ 0040cbf0 f i foundation_win32.release:win360thread.obj
 0001:0000bc10       ?Wait@Win360Event@Win360@@QBEXXZ 0040cc10 f i foundation_win32.release:win360thread.obj
 0001:0000bc30       ??2Win360Thread@Win360@@SAPAXI@Z 0040cc30 f i foundation_win32.release:win360thread.obj
 0001:0000bc40       ??3Win360Thread@Win360@@SAXPAX@Z 0040cc40 f i foundation_win32.release:win360thread.obj
 0001:0000bc60       ?GetName@Win360Thread@Win360@@QBEABVString@Util@@XZ 0040cc60 f i foundation_win32.release:win360thread.obj
 0001:0000bc80       ??1Rtti@Core@@QAE@XZ       0040cc80 f i foundation_win32.release:win360thread.obj
 0001:0000bcd0       ?GetRtti@Win360Thread@Win360@@UBEPAVRtti@Core@@XZ 0040ccd0 f   foundation_win32.release:win360thread.obj
 0001:0000bce0       ?FactoryCreator@Win360Thread@Win360@@SAPAVRefCounted@Core@@XZ 0040cce0 f   foundation_win32.release:win360thread.obj
 0001:0000bcf0       ?Create@Win360Thread@Win360@@SAPAV12@XZ 0040ccf0 f   foundation_win32.release:win360thread.obj
 0001:0000bd30       ?RegisterWithFactory@Win360Thread@Win360@@SA_NXZ 0040cd30 f   foundation_win32.release:win360thread.obj
 0001:0000be30       ??0Win360Thread@Win360@@QAE@XZ 0040ce30 f   foundation_win32.release:win360thread.obj
 0001:0000bf30       ??_EWin360Thread@Win360@@UAEPAXI@Z 0040cf30 f i  CIL library: CIL module
 0001:0000bf30       ??_GWin360Thread@Win360@@UAEPAXI@Z 0040cf30 f i foundation_win32.release:win360thread.obj
 0001:0000bf70       ??1Win360Thread@Win360@@UAE@XZ 0040cf70 f   foundation_win32.release:win360thread.obj
 0001:0000c030       ?Start@Win360Thread@Win360@@QAEXXZ 0040d030 f   foundation_win32.release:win360thread.obj
 0001:0000c130       ?EmitWakeupSignal@Win360Thread@Win360@@MAEXXZ 0040d130 f   foundation_win32.release:win360thread.obj
 0001:0000c140       ?Stop@Win360Thread@Win360@@QAEXXZ 0040d140 f   foundation_win32.release:win360thread.obj
 0001:0000c1e0       ?IsRunning@Win360Thread@Win360@@QBE_NXZ 0040d1e0 f   foundation_win32.release:win360thread.obj
 0001:0000c230       ?DoWork@Win360Thread@Win360@@MAEXXZ 0040d230 f   foundation_win32.release:win360thread.obj
 0001:0000c240       ?ThreadProc@Win360Thread@Win360@@CGKPAX@Z 0040d240 f   foundation_win32.release:win360thread.obj
 0001:0000c2e0       ?SetMyThreadName@Win360Thread@Win360@@SAXPBD@Z 0040d2e0 f   foundation_win32.release:win360thread.obj
 0001:0000c380       ?GetMyThreadName@Win360Thread@Win360@@SAPBDXZ 0040d380 f   foundation_win32.release:win360thread.obj
 0001:0000c3a0       ?GetMyThreadId@Win360Thread@Win360@@SAKXZ 0040d3a0 f   foundation_win32.release:win360thread.obj
 0001:0000c3b0       ?YieldThread@Win360Thread@Win360@@SAXXZ 0040d3b0 f   foundation_win32.release:win360thread.obj
 0001:0000c3c0       ?WaiterPlus@Win360CriticalSection@Win360@@ABEXXZ 0040d3c0 f i foundation_win32.release:console.obj
 0001:0000c3e0       ?WaiterMinus@Win360CriticalSection@Win360@@ABEXXZ 0040d3e0 f i foundation_win32.release:console.obj
 0001:0000c400       ?PerfLockImmediate@Win360CriticalSection@Win360@@ABE_NK@Z 0040d400 f i foundation_win32.release:console.obj
 0001:0000c430       ?Enter@Win360CriticalSection@Win360@@QBEXXZ 0040d430 f i foundation_win32.release:console.obj
 0001:0000c4a0       ?AllocateKernelSemaphore@Win360CriticalSection@Win360@@ABEXXZ 0040d4a0 f i foundation_win32.release:console.obj
 0001:0000c510       ?PerfLock@Win360CriticalSection@Win360@@ABE_NK@Z 0040d510 f i foundation_win32.release:console.obj
 0001:0000c590       ?PerfLockKernel@Win360CriticalSection@Win360@@ABE_NK@Z 0040d590 f i foundation_win32.release:console.obj
 0001:0000c630       ?Leave@Win360CriticalSection@Win360@@QBEXXZ 0040d630 f i foundation_win32.release:console.obj
 0001:0000c660       ?PerfUnlock@Win360CriticalSection@Win360@@ABEXXZ 0040d660 f i foundation_win32.release:console.obj
 0001:0000c6a0       ??2Console@IO@@SAPAXI@Z    0040d6a0 f i foundation_win32.release:console.obj
 0001:0000c6b0       ??3Console@IO@@SAXPAX@Z    0040d6b0 f i foundation_win32.release:console.obj
 0001:0000c6d0       ?IsOpen@Console@IO@@QBE_NXZ 0040d6d0 f i foundation_win32.release:console.obj
 0001:0000c6f0       ?GetRtti@Console@IO@@UBEPAVRtti@Core@@XZ 0040d6f0 f   foundation_win32.release:console.obj
 0001:0000c700       ?FactoryCreator@Console@IO@@SAPAVRefCounted@Core@@XZ 0040d700 f   foundation_win32.release:console.obj
 0001:0000c710       ?Create@Console@IO@@SAPAV12@XZ 0040d710 f   foundation_win32.release:console.obj
 0001:0000c750       ?RegisterWithFactory@Console@IO@@SA_NXZ 0040d750 f   foundation_win32.release:console.obj
 0001:0000c850       ??0Console@IO@@QAE@XZ      0040d850 f   foundation_win32.release:console.obj
 0001:0000c8d0       ??_EConsole@IO@@UAEPAXI@Z  0040d8d0 f i  CIL library: CIL module
 0001:0000c8d0       ??_GConsole@IO@@UAEPAXI@Z  0040d8d0 f i foundation_win32.release:console.obj
 0001:0000c900       ??0CriticalSection@Threading@@QAE@XZ 0040d900 f i foundation_win32.release:console.obj
 0001:0000c920       ??1CriticalSection@Threading@@QAE@XZ 0040d920 f i foundation_win32.release:console.obj
 0001:0000c940       ??1Console@IO@@UAE@XZ      0040d940 f   foundation_win32.release:console.obj
 0001:0000c9f0       ?Open@Console@IO@@QAEXXZ   0040d9f0 f   foundation_win32.release:console.obj
 0001:0000ca80       ?Close@Console@IO@@QAEXXZ  0040da80 f   foundation_win32.release:console.obj
 0001:0000cb20       ?Update@Console@IO@@QAEXXZ 0040db20 f   foundation_win32.release:console.obj
 0001:0000cbd0       ?AttachHandler@Console@IO@@QAEXABV?$Ptr@VConsoleHandler@IO@@@@@Z 0040dbd0 f   foundation_win32.release:console.obj
 0001:0000cc60       ?RemoveHandler@Console@IO@@QAEXABV?$Ptr@VConsoleHandler@IO@@@@@Z 0040dc60 f   foundation_win32.release:console.obj
 0001:0000cd30       ?HasInput@Console@IO@@QBE_NXZ 0040dd30 f   foundation_win32.release:console.obj
 0001:0000ce00       ?GetInput@Console@IO@@QBE?AVString@Util@@XZ 0040de00 f   foundation_win32.release:console.obj
 0001:0000cf90       ?Print@Console@IO@@QAAXPBDZZ 0040df90 f   foundation_win32.release:console.obj
 0001:0000cff0       ?Print@Console@IO@@QAAXPBDPAD@Z 0040dff0 f   foundation_win32.release:console.obj
 0001:0000d0e0       ?Print@Console@IO@@QAEXABVString@Util@@@Z 0040e0e0 f   foundation_win32.release:console.obj
 0001:0000d1a0       ?Error@Console@IO@@QAAXPBDZZ 0040e1a0 f   foundation_win32.release:console.obj
 0001:0000d200       ?Error@Console@IO@@QAAXPBDPAD@Z 0040e200 f   foundation_win32.release:console.obj
 0001:0000d2f0       ?DebugOut@Console@IO@@QAAXPBDZZ 0040e2f0 f   foundation_win32.release:console.obj
 0001:0000d350       ?DebugOut@Console@IO@@QAAXPBDPAD@Z 0040e350 f   foundation_win32.release:console.obj
 0001:0000d440       ?Warning@Console@IO@@QAAXPBDZZ 0040e440 f   foundation_win32.release:console.obj
 0001:0000d4a0       ?Warning@Console@IO@@QAAXPBDPAD@Z 0040e4a0 f   foundation_win32.release:console.obj
 0001:0000d590       ?Confirm@Console@IO@@QAAXPBDZZ 0040e590 f   foundation_win32.release:console.obj
 0001:0000d5f0       ?Confirm@Console@IO@@QAAXPBDPAD@Z 0040e5f0 f   foundation_win32.release:console.obj
 0001:0000d6e0       ??0?$Array@V?$Ptr@VConsoleHandler@IO@@@@@Util@@QAE@XZ 0040e6e0 f i foundation_win32.release:console.obj
 0001:0000d720       ??1?$Array@V?$Ptr@VConsoleHandler@IO@@@@@Util@@QAE@XZ 0040e720 f i foundation_win32.release:console.obj
 0001:0000d740       ??A?$Array@V?$Ptr@VConsoleHandler@IO@@@@@Util@@QBEAAV?$Ptr@VConsoleHandler@IO@@@@H@Z 0040e740 f i foundation_win32.release:console.obj
 0001:0000d790       ?Size@?$Array@V?$Ptr@VConsoleHandler@IO@@@@@Util@@QBEHXZ 0040e790 f i foundation_win32.release:console.obj
 0001:0000d7b0       ?EraseIndex@?$Array@V?$Ptr@VConsoleHandler@IO@@@@@Util@@QAEXH@Z 0040e7b0 f i foundation_win32.release:console.obj
 0001:0000d830       ?Insert@?$Array@V?$Ptr@VConsoleHandler@IO@@@@@Util@@QAEXHABV?$Ptr@VConsoleHandler@IO@@@@@Z 0040e830 f i foundation_win32.release:console.obj
 0001:0000d8a0       ?FindIndex@?$Array@V?$Ptr@VConsoleHandler@IO@@@@@Util@@QBEHABV?$Ptr@VConsoleHandler@IO@@@@@Z 0040e8a0 f i foundation_win32.release:console.obj
 0001:0000d900       ??0?$Ptr@VConsoleHandler@IO@@@@QAE@PAVConsoleHandler@IO@@@Z 0040e900 f i foundation_win32.release:console.obj
 0001:0000d940       ??C?$Ptr@VConsoleHandler@IO@@@@QBEPAVConsoleHandler@IO@@XZ 0040e940 f i foundation_win32.release:console.obj
 0001:0000d980       ?isvalid@?$Ptr@VConsoleHandler@IO@@@@QBE_NXZ 0040e980 f i foundation_win32.release:console.obj
 0001:0000d9a0       ?Append@?$Array@V?$Ptr@VConsoleHandler@IO@@@@@Util@@QAEXABV?$Ptr@VConsoleHandler@IO@@@@@Z 0040e9a0 f i foundation_win32.release:console.obj
 0001:0000da20       ?Destroy@?$Array@V?$Ptr@VConsoleHandler@IO@@@@@Util@@AAEXPAV?$Ptr@VConsoleHandler@IO@@@@@Z 0040ea20 f i foundation_win32.release:console.obj
 0001:0000da50       ?Delete@?$Array@V?$Ptr@VConsoleHandler@IO@@@@@Util@@AAEXXZ 0040ea50 f i foundation_win32.release:console.obj
 0001:0000dac0       ?Move@?$Array@V?$Ptr@VConsoleHandler@IO@@@@@Util@@AAEXHH@Z 0040eac0 f i foundation_win32.release:console.obj
 0001:0000dc50       ??4?$Ptr@VConsoleHandler@IO@@@@QAEXABV0@@Z 0040ec50 f i foundation_win32.release:console.obj
 0001:0000dcb0       ??8?$Ptr@VConsoleHandler@IO@@@@QBE_NABV0@@Z 0040ecb0 f i foundation_win32.release:console.obj
 0001:0000dcd0       ??_G?$Ptr@VConsoleHandler@IO@@@@QAEPAXI@Z 0040ecd0 f i foundation_win32.release:console.obj
 0001:0000dd00       ?Grow@?$Array@V?$Ptr@VConsoleHandler@IO@@@@@Util@@AAEXXZ 0040ed00 f i foundation_win32.release:console.obj
 0001:0000dd80       ??0?$Ptr@VConsoleHandler@IO@@@@QAE@XZ 0040ed80 f i foundation_win32.release:console.obj
 0001:0000dda0       ?GrowTo@?$Array@V?$Ptr@VConsoleHandler@IO@@@@@Util@@AAEXH@Z 0040eda0 f i foundation_win32.release:console.obj
 0001:0000dec0       ___InlineInterlockedCompareExchangePointer 0040eec0 f i foundation_win32.release:console.obj
 0001:0000dee0       ?Setup@Blob@Util@@SAXXZ    0040eee0 f i foundation_win32.release:win32sysfunc.obj
 0001:0000df50       ?Shutdown@Blob@Util@@SAXXZ 0040ef50 f i foundation_win32.release:win32sysfunc.obj
 0001:0000dfd0       ??_GWin360Heap@Win360@@QAEPAXI@Z 0040efd0 f i foundation_win32.release:win32sysfunc.obj
 0001:0000e000       ??0SystemInfo@System@@QAE@XZ 0040f000 f i foundation_win32.release:win32sysfunc.obj
 0001:0000e020       ?Setup@SysFunc@Win32@@SAXXZ 0040f020 f   foundation_win32.release:win32sysfunc.obj
 0001:0000e0e0       ?Exit@SysFunc@Win32@@SAXH@Z 0040f0e0 f   foundation_win32.release:win32sysfunc.obj
 0001:0000e1c0       ??_GGlobalStringAtomTable@Util@@QAEPAXI@Z 0040f1c0 f i foundation_win32.release:win32sysfunc.obj
 0001:0000e1f0       ??_GLocalStringAtomTable@Util@@QAEPAXI@Z 0040f1f0 f i foundation_win32.release:win32sysfunc.obj
 0001:0000e220       ?Error@SysFunc@Win32@@SAXPBD@Z 0040f220 f   foundation_win32.release:win32sysfunc.obj
 0001:0000e250       ?MessageBoxA@SysFunc@Win32@@SAXPBD@Z 0040f250 f   foundation_win32.release:win32sysfunc.obj
 0001:0000e290       ?Sleep@SysFunc@Win32@@SAXN@Z 0040f290 f   foundation_win32.release:win32sysfunc.obj
 0001:0000e2c0       ?DebugOut@SysFunc@Win32@@SAXPBD@Z 0040f2c0 f   foundation_win32.release:win32sysfunc.obj
 0001:0000e2d0       ?RegisterExitHandler@SysFunc@Win32@@CAPBVExitHandler@Core@@PBV34@@Z 0040f2d0 f   foundation_win32.release:win32sysfunc.obj
 0001:0000e2f0       ?GetSystemInfo@SysFunc@Win32@@SAPBVSystemInfo@System@@XZ 0040f2f0 f   foundation_win32.release:win32sysfunc.obj
 0001:0000e300       ?XMVerifyCPUSupport@@YAHXZ 0040f300 f i foundation_win32.release:win32sysfunc.obj
 0001:0000e340       ?SetupHeaps@Memory@@YAXXZ  0040f340 f   foundation_win32.release:win360memoryconfig.obj
 0001:0000e4a0       ?GetHeapTypeName@Memory@@YAPBDW4HeapType@1@@Z 0040f4a0 f   foundation_win32.release:win360memoryconfig.obj
 0001:0000e560       ??0LocalStringAtomTable@Util@@QAE@XZ 0040f560 f   foundation_win32.release:localstringatomtable.obj
 0001:0000e5b0       ??1LocalStringAtomTable@Util@@QAE@XZ 0040f5b0 f   foundation_win32.release:localstringatomtable.obj
 0001:0000e600       ?Add@LocalStringAtomTable@Util@@AAEXPBD@Z 0040f600 f   foundation_win32.release:localstringatomtable.obj
 0001:0000e630       ?InsertSorted@?$Array@UStaticString@StringAtomTableBase@Util@@@Util@@QAEHABUStaticString@StringAtomTableBase@2@@Z 0040f630 f i foundation_win32.release:localstringatomtable.obj
 0001:0000e8a0       ?Append@?$Array@UStaticString@StringAtomTableBase@Util@@@Util@@QAEXABUStaticString@StringAtomTableBase@2@@Z 0040f8a0 f i foundation_win32.release:localstringatomtable.obj
 0001:0000e910       ?Size@?$Array@UStaticString@StringAtomTableBase@Util@@@Util@@QBEHXZ 0040f910 f i foundation_win32.release:localstringatomtable.obj
 0001:0000e930       ?Insert@?$Array@UStaticString@StringAtomTableBase@Util@@@Util@@QAEXHABUStaticString@StringAtomTableBase@2@@Z 0040f930 f i foundation_win32.release:localstringatomtable.obj
 0001:0000e9a0       ?InsertAtEndOfIdenticalRange@?$Array@UStaticString@StringAtomTableBase@Util@@@Util@@QAEHHABUStaticString@StringAtomTableBase@2@@Z 0040f9a0 f i foundation_win32.release:localstringatomtable.obj
 0001:0000ea20       ?Grow@?$Array@UStaticString@StringAtomTableBase@Util@@@Util@@AAEXXZ 0040fa20 f i foundation_win32.release:localstringatomtable.obj
 0001:0000eaa0       ?Move@?$Array@UStaticString@StringAtomTableBase@Util@@@Util@@AAEXHH@Z 0040faa0 f i foundation_win32.release:localstringatomtable.obj
 0001:0000ec20       ?Destroy@?$Array@UStaticString@StringAtomTableBase@Util@@@Util@@AAEXPAUStaticString@StringAtomTableBase@2@@Z 0040fc20 f i foundation_win32.release:localstringatomtable.obj
 0001:0000ec30       ?GrowTo@?$Array@UStaticString@StringAtomTableBase@Util@@@Util@@AAEXH@Z 0040fc30 f i foundation_win32.release:localstringatomtable.obj
 0001:0000ece0       ?GetNumChunks@StringBuffer@Util@@QBEHXZ 0040fce0 f i foundation_win32.release:globalstringatomtable.obj
 0001:0000ed00       ??0GlobalStringAtomTable@Util@@QAE@XZ 0040fd00 f   foundation_win32.release:globalstringatomtable.obj
 0001:0000ed70       ??1GlobalStringAtomTable@Util@@QAE@XZ 0040fd70 f   foundation_win32.release:globalstringatomtable.obj
 0001:0000ee10       ?Lock@GlobalStringAtomTable@Util@@AAEXXZ 0040fe10 f   foundation_win32.release:globalstringatomtable.obj
 0001:0000ee30       ?Unlock@GlobalStringAtomTable@Util@@AAEXXZ 0040fe30 f   foundation_win32.release:globalstringatomtable.obj
 0001:0000ee70       ?Add@GlobalStringAtomTable@Util@@AAEPBDPBD@Z 0040fe70 f   foundation_win32.release:globalstringatomtable.obj
 0001:0000eea0       ?GetDebugInfo@GlobalStringAtomTable@Util@@QBE?AUDebugInfo@12@XZ 0040fea0 f   foundation_win32.release:globalstringatomtable.obj
 0001:0000efc0       ??0DebugInfo@GlobalStringAtomTable@Util@@QAE@XZ 0040ffc0 f i foundation_win32.release:globalstringatomtable.obj
 0001:0000efe0       ??1DebugInfo@GlobalStringAtomTable@Util@@QAE@XZ 0040ffe0 f i foundation_win32.release:globalstringatomtable.obj
 0001:0000f000       ??0DebugInfo@GlobalStringAtomTable@Util@@QAE@ABU012@@Z 00410000 f i foundation_win32.release:globalstringatomtable.obj
 0001:0000f060       ??A?$Array@UStaticString@StringAtomTableBase@Util@@@Util@@QBEAAUStaticString@StringAtomTableBase@1@H@Z 00410060 f i foundation_win32.release:globalstringatomtable.obj
 0001:0000f0b0       ?Size@?$Array@PAD@Util@@QBEHXZ 004100b0 f i foundation_win32.release:globalstringatomtable.obj
 0001:0000f0d0       ??0?$Array@PBD@Util@@QAE@ABV01@@Z 004100d0 f i foundation_win32.release:globalstringatomtable.obj
 0001:0000f120       ??0?$Array@PBD@Util@@QAE@XZ 00410120 f i foundation_win32.release:globalstringatomtable.obj
 0001:0000f160       ??1?$Array@PBD@Util@@QAE@XZ 00410160 f i foundation_win32.release:globalstringatomtable.obj
 0001:0000f180       ?Append@?$Array@PBD@Util@@QAEXABQBD@Z 00410180 f i foundation_win32.release:globalstringatomtable.obj
 0001:0000f1f0       ?Reserve@?$Array@PBD@Util@@QAEXH@Z 004101f0 f i foundation_win32.release:globalstringatomtable.obj
 0001:0000f240       ?Copy@?$Array@PBD@Util@@AAEXABV12@@Z 00410240 f i foundation_win32.release:globalstringatomtable.obj
 0001:0000f310       ?Delete@?$Array@PBD@Util@@AAEXXZ 00410310 f i foundation_win32.release:globalstringatomtable.obj
 0001:0000f370       ?Grow@?$Array@PBD@Util@@AAEXXZ 00410370 f i foundation_win32.release:globalstringatomtable.obj
 0001:0000f3f0       ?GrowTo@?$Array@PBD@Util@@AAEXH@Z 004103f0 f i foundation_win32.release:globalstringatomtable.obj
 0001:0000f4a0       ??0StringAtomTableBase@Util@@QAE@XZ 004104a0 f   foundation_win32.release:stringatomtablebase.obj
 0001:0000f4c0       ??1StringAtomTableBase@Util@@QAE@XZ 004104c0 f   foundation_win32.release:stringatomtablebase.obj
 0001:0000f4e0       ?Find@StringAtomTableBase@Util@@IBEPBDPBD@Z 004104e0 f   foundation_win32.release:stringatomtablebase.obj
 0001:0000f520       ??8StaticString@StringAtomTableBase@Util@@QBE_NABU012@@Z 00410520 f   foundation_win32.release:stringatomtablebase.obj
 0001:0000f5a0       ??9StaticString@StringAtomTableBase@Util@@QBE_NABU012@@Z 004105a0 f   foundation_win32.release:stringatomtablebase.obj
 0001:0000f620       ??MStaticString@StringAtomTableBase@Util@@QBE_NABU012@@Z 00410620 f   foundation_win32.release:stringatomtablebase.obj
 0001:0000f6a0       ??OStaticString@StringAtomTableBase@Util@@QBE_NABU012@@Z 004106a0 f   foundation_win32.release:stringatomtablebase.obj
 0001:0000f720       ??0?$Array@UStaticString@StringAtomTableBase@Util@@@Util@@QAE@XZ 00410720 f i foundation_win32.release:stringatomtablebase.obj
 0001:0000f760       ??1?$Array@UStaticString@StringAtomTableBase@Util@@@Util@@QAE@XZ 00410760 f i foundation_win32.release:stringatomtablebase.obj
 0001:0000f780       ?BinarySearchIndex@?$Array@UStaticString@StringAtomTableBase@Util@@@Util@@QBEHABUStaticString@StringAtomTableBase@2@@Z 00410780 f i foundation_win32.release:stringatomtablebase.obj
 0001:0000f8b0       ?Delete@?$Array@UStaticString@StringAtomTableBase@Util@@@Util@@AAEXXZ 004108b0 f i foundation_win32.release:stringatomtablebase.obj
 0001:0000f910       ??0FourCC@Util@@QAE@XZ     00410910 f i foundation_win32.release:rtti.obj
 0001:0000f930       ??8FourCC@Util@@QBE_NABV01@@Z 00410930 f i foundation_win32.release:rtti.obj
 0001:0000f950       ?IsValid@FourCC@Util@@QBE_NXZ 00410950 f i foundation_win32.release:rtti.obj
 0001:0000f970       ?GetParent@Rtti@Core@@QBEPBV12@XZ 00410970 f i foundation_win32.release:rtti.obj
 0001:0000f990       ?Construct@Rtti@Core@@AAEXPBDVFourCC@Util@@P6APAVRefCounted@2@XZPBV12@H@Z 00410990 f   foundation_win32.release:rtti.obj
 0001:0000fa80       ??0Rtti@Core@@QAE@PBDVFourCC@Util@@P6APAVRefCounted@1@XZPBV01@H@Z 00410a80 f   foundation_win32.release:rtti.obj
 0001:0000faf0       ??0Rtti@Core@@QAE@PBDP6APAVRefCounted@1@XZPBV01@H@Z 00410af0 f   foundation_win32.release:rtti.obj
 0001:0000fb60       ?Create@Rtti@Core@@QBEPAVRefCounted@2@XZ 00410b60 f   foundation_win32.release:rtti.obj
 0001:0000fbc0       ?IsDerivedFrom@Rtti@Core@@QBE_NABV12@@Z 00410bc0 f   foundation_win32.release:rtti.obj
 0001:0000fc00       ?IsDerivedFrom@Rtti@Core@@QBE_NABVString@Util@@@Z 00410c00 f   foundation_win32.release:rtti.obj
 0001:0000fc50       ?IsDerivedFrom@Rtti@Core@@QBE_NABVFourCC@Util@@@Z 00410c50 f   foundation_win32.release:rtti.obj
 0001:0000fca0       ?AllocInstanceMemory@Rtti@Core@@QAEPAXXZ 00410ca0 f   foundation_win32.release:rtti.obj
 0001:0000fcd0       ?FreeInstanceMemory@Rtti@Core@@QAEXPAX@Z 00410cd0 f   foundation_win32.release:rtti.obj
 0001:0000fcf0       ??2RefCounted@Core@@SAPAXI@Z 00410cf0 f i foundation_win32.release:refcounted.obj
 0001:0000fd00       ?GetRtti@RefCounted@Core@@UBEPAVRtti@2@XZ 00410d00 f   foundation_win32.release:refcounted.obj
 0001:0000fd10       ?FactoryCreator@RefCounted@Core@@SAPAV12@XZ 00410d10 f   foundation_win32.release:refcounted.obj
 0001:0000fd20       ?Create@RefCounted@Core@@SAPAV12@XZ 00410d20 f   foundation_win32.release:refcounted.obj
 0001:0000fd70       ?RegisterWithFactory@RefCounted@Core@@SA_NXZ 00410d70 f   foundation_win32.release:refcounted.obj
 0001:0000fe70       ??1RefCounted@Core@@MAE@XZ 00410e70 f   foundation_win32.release:refcounted.obj
 0001:0000feb0       ?DumpRefCountingLeaks@RefCounted@Core@@SAXXZ 00410eb0 f   foundation_win32.release:refcounted.obj
 0001:0000fec0       ?HashCode@String@Util@@QBEHXZ 00410ec0 f i foundation_win32.release:factory.obj
 0001:0000ff70       ??9FourCC@Util@@QBE_NABV01@@Z 00410f70 f i foundation_win32.release:factory.obj
 0001:0000ff90       ??OFourCC@Util@@QBE_NABV01@@Z 00410f90 f i foundation_win32.release:factory.obj
 0001:0000ffb0       ??MFourCC@Util@@QBE_NABV01@@Z 00410fb0 f i foundation_win32.release:factory.obj
 0001:0000ffd0       ?AsString@FourCC@Util@@QBE?AVString@2@XZ 00410fd0 f i foundation_win32.release:factory.obj
 0001:00010000       ?ToString@FourCC@Util@@SA?AVString@2@ABV12@@Z 00411000 f i foundation_win32.release:factory.obj
 0001:00010190       ?Instance@Factory@Core@@SAPAV12@XZ 00411190 f   foundation_win32.release:factory.obj
 0001:00010200       ?Destroy@Factory@Core@@SAXXZ 00411200 f   foundation_win32.release:factory.obj
 0001:00010260       ??_GFactory@Core@@AAEPAXI@Z 00411260 f i foundation_win32.release:factory.obj
 0001:00010290       ??0Factory@Core@@AAE@XZ    00411290 f   foundation_win32.release:factory.obj
 0001:000102c0       ??1?$HashTable@VString@Util@@PBVRtti@Core@@@Util@@QAE@XZ 004112c0 f i foundation_win32.release:factory.obj
 0001:000102e0       ??1?$Dictionary@VFourCC@Util@@PBVRtti@Core@@@Util@@QAE@XZ 004112e0 f i foundation_win32.release:factory.obj
 0001:00010300       ??1Factory@Core@@AAE@XZ    00411300 f   foundation_win32.release:factory.obj
 0001:00010340       ?Register@Factory@Core@@QAEXPBVRtti@2@ABVString@Util@@ABVFourCC@5@@Z 00411340 f   foundation_win32.release:factory.obj
 0001:00010530       ?Register@Factory@Core@@QAEXPBVRtti@2@ABVString@Util@@@Z 00411530 f   foundation_win32.release:factory.obj
 0001:00010600       ?ClassExists@Factory@Core@@QBE_NABVString@Util@@@Z 00411600 f   foundation_win32.release:factory.obj
 0001:00010650       ?ClassExists@Factory@Core@@QBE_NVFourCC@Util@@@Z 00411650 f   foundation_win32.release:factory.obj
 0001:000106a0       ?GetClassRtti@Factory@Core@@QBEPBVRtti@2@ABVString@Util@@@Z 004116a0 f   foundation_win32.release:factory.obj
 0001:00010710       ?GetClassRtti@Factory@Core@@QBEPBVRtti@2@ABVFourCC@Util@@@Z 00411710 f   foundation_win32.release:factory.obj
 0001:00010790       ?Create@Factory@Core@@QBEPAVRefCounted@2@ABVString@Util@@@Z 00411790 f   foundation_win32.release:factory.obj
 0001:000108a0       ?Create@Factory@Core@@QBEPAVRefCounted@2@VFourCC@Util@@@Z 004118a0 f   foundation_win32.release:factory.obj
 0001:000109f0       ??1?$FixedArray@V?$Array@V?$KeyValuePair@VString@Util@@PBVRtti@Core@@@Util@@@Util@@@Util@@QAE@XZ 004119f0 f i foundation_win32.release:factory.obj
 0001:00010a10       ??0?$HashTable@VString@Util@@PBVRtti@Core@@@Util@@QAE@H@Z 00411a10 f i foundation_win32.release:factory.obj
 0001:00010a40       ??A?$HashTable@VString@Util@@PBVRtti@Core@@@Util@@QBEAAPBVRtti@Core@@ABVString@1@@Z 00411a40 f i foundation_win32.release:factory.obj
 0001:00010b40       ?Clear@?$HashTable@VString@Util@@PBVRtti@Core@@@Util@@QAEXXZ 00411b40 f i foundation_win32.release:factory.obj
 0001:00010ba0       ?Add@?$HashTable@VString@Util@@PBVRtti@Core@@@Util@@QAEXABVString@2@ABQBVRtti@Core@@@Z 00411ba0 f i foundation_win32.release:factory.obj
 0001:00010be0       ?Contains@?$HashTable@VString@Util@@PBVRtti@Core@@@Util@@QBE_NABVString@2@@Z 00411be0 f i foundation_win32.release:factory.obj
 0001:00010c80       ??1?$Array@V?$KeyValuePair@VFourCC@Util@@PBVRtti@Core@@@Util@@@Util@@QAE@XZ 00411c80 f i foundation_win32.release:factory.obj
 0001:00010ca0       ??0?$Dictionary@VFourCC@Util@@PBVRtti@Core@@@Util@@QAE@XZ 00411ca0 f i foundation_win32.release:factory.obj
 0001:00010cc0       ??A?$Dictionary@VFourCC@Util@@PBVRtti@Core@@@Util@@QBEABQBVRtti@Core@@ABVFourCC@1@@Z 00411cc0 f i foundation_win32.release:factory.obj
 0001:00010d10       ?Clear@?$Dictionary@VFourCC@Util@@PBVRtti@Core@@@Util@@QAEXXZ 00411d10 f i foundation_win32.release:factory.obj
 0001:00010d50       ?Add@?$Dictionary@VFourCC@Util@@PBVRtti@Core@@@Util@@QAEXABVFourCC@2@ABQBVRtti@Core@@@Z 00411d50 f i foundation_win32.release:factory.obj
 0001:00010da0       ?Contains@?$Dictionary@VFourCC@Util@@PBVRtti@Core@@@Util@@QBE_NABVFourCC@2@@Z 00411da0 f i foundation_win32.release:factory.obj
 0001:00010e00       ??1?$KeyValuePair@VString@Util@@PBVRtti@Core@@@Util@@QAE@XZ 00411e00 f i foundation_win32.release:factory.obj
 0001:00010e50       ??0?$FixedArray@V?$Array@V?$KeyValuePair@VString@Util@@PBVRtti@Core@@@Util@@@Util@@@Util@@QAE@H@Z 00411e50 f i foundation_win32.release:factory.obj
 0001:00010e80       ??A?$FixedArray@V?$Array@V?$KeyValuePair@VString@Util@@PBVRtti@Core@@@Util@@@Util@@@Util@@QBEAAV?$Array@V?$KeyValuePair@VString@Util@@PBVRtti@Core@@@Util@@@1@H@Z 00411e80 f i foundation_win32.release:factory.obj
 0001:00010ed0       ?Size@?$FixedArray@V?$Array@V?$KeyValuePair@VString@Util@@PBVRtti@Core@@@Util@@@Util@@@Util@@QBEHXZ 00411ed0 f i foundation_win32.release:factory.obj
 0001:00010ee0       ?Delete@?$FixedArray@V?$Array@V?$KeyValuePair@VString@Util@@PBVRtti@Core@@@Util@@@Util@@@Util@@AAEXXZ 00411ee0 f i foundation_win32.release:factory.obj
 0001:00010f40       ?Add@?$HashTable@VString@Util@@PBVRtti@Core@@@Util@@QAEXABV?$KeyValuePair@VString@Util@@PBVRtti@Core@@@2@@Z 00411f40 f i foundation_win32.release:factory.obj
 0001:00010fd0       ??A?$Array@V?$KeyValuePair@VString@Util@@PBVRtti@Core@@@Util@@@Util@@QBEAAV?$KeyValuePair@VString@Util@@PBVRtti@Core@@@1@H@Z 00411fd0 f i foundation_win32.release:factory.obj
 0001:00011020       ?Size@?$Array@V?$KeyValuePair@VString@Util@@PBVRtti@Core@@@Util@@@Util@@QBEHXZ 00412020 f i foundation_win32.release:factory.obj
 0001:00011040       ?Clear@?$Array@V?$KeyValuePair@VString@Util@@PBVRtti@Core@@@Util@@@Util@@QAEXXZ 00412040 f i foundation_win32.release:factory.obj
 0001:00011090       ?BinarySearchIndex@?$Array@V?$KeyValuePair@VString@Util@@PBVRtti@Core@@@Util@@@Util@@QBEHABV?$KeyValuePair@VString@Util@@PBVRtti@Core@@@2@@Z 00412090 f i foundation_win32.release:factory.obj
 0001:000111c0       ??0?$KeyValuePair@VString@Util@@PBVRtti@Core@@@Util@@QAE@ABVString@1@@Z 004121c0 f i foundation_win32.release:factory.obj
 0001:00011220       ??0?$KeyValuePair@VString@Util@@PBVRtti@Core@@@Util@@QAE@ABVString@1@ABQBVRtti@Core@@@Z 00412220 f i foundation_win32.release:factory.obj
 0001:00011290       ?Value@?$KeyValuePair@VString@Util@@PBVRtti@Core@@@Util@@QAEAAPBVRtti@Core@@XZ 00412290 f i foundation_win32.release:factory.obj
 0001:000112b0       ??0?$Array@V?$KeyValuePair@VFourCC@Util@@PBVRtti@Core@@@Util@@@Util@@QAE@XZ 004122b0 f i foundation_win32.release:factory.obj
 0001:000112f0       ??A?$Array@V?$KeyValuePair@VFourCC@Util@@PBVRtti@Core@@@Util@@@Util@@QBEAAV?$KeyValuePair@VFourCC@Util@@PBVRtti@Core@@@1@H@Z 004122f0 f i foundation_win32.release:factory.obj
 0001:00011340       ?Append@?$Array@V?$KeyValuePair@VFourCC@Util@@PBVRtti@Core@@@Util@@@Util@@QAEXABV?$KeyValuePair@VFourCC@Util@@PBVRtti@Core@@@2@@Z 00412340 f i foundation_win32.release:factory.obj
 0001:000113c0       ?InsertSorted@?$Array@V?$KeyValuePair@VFourCC@Util@@PBVRtti@Core@@@Util@@@Util@@QAEHABV?$KeyValuePair@VFourCC@Util@@PBVRtti@Core@@@2@@Z 004123c0 f i foundation_win32.release:factory.obj
 0001:00011630       ?Clear@?$Array@V?$KeyValuePair@VFourCC@Util@@PBVRtti@Core@@@Util@@@Util@@QAEXXZ 00412630 f i foundation_win32.release:factory.obj
 0001:00011680       ?BinarySearchIndex@?$Array@V?$KeyValuePair@VFourCC@Util@@PBVRtti@Core@@@Util@@@Util@@QBEHABV?$KeyValuePair@VFourCC@Util@@PBVRtti@Core@@@2@@Z 00412680 f i foundation_win32.release:factory.obj
 0001:000117b0       ?Delete@?$Array@V?$KeyValuePair@VFourCC@Util@@PBVRtti@Core@@@Util@@@Util@@AAEXXZ 004127b0 f i foundation_win32.release:factory.obj
 0001:00011810       ?FindIndex@?$Dictionary@VFourCC@Util@@PBVRtti@Core@@@Util@@QBEHABVFourCC@2@@Z 00412810 f i foundation_win32.release:factory.obj
 0001:00011860       ??0?$KeyValuePair@VFourCC@Util@@PBVRtti@Core@@@Util@@QAE@ABVFourCC@1@@Z 00412860 f i foundation_win32.release:factory.obj
 0001:00011880       ??0?$KeyValuePair@VFourCC@Util@@PBVRtti@Core@@@Util@@QAE@ABVFourCC@1@ABQBVRtti@Core@@@Z 00412880 f i foundation_win32.release:factory.obj
 0001:000118b0       ?Value@?$KeyValuePair@VFourCC@Util@@PBVRtti@Core@@@Util@@QAEAAPBVRtti@Core@@XZ 004128b0 f i foundation_win32.release:factory.obj
 0001:000118d0       ??_E?$Array@V?$KeyValuePair@VString@Util@@PBVRtti@Core@@@Util@@@Util@@QAEPAXI@Z 004128d0 f i foundation_win32.release:factory.obj
 0001:00011970       ?Alloc@?$FixedArray@V?$Array@V?$KeyValuePair@VString@Util@@PBVRtti@Core@@@Util@@@Util@@@Util@@AAEXH@Z 00412970 f i foundation_win32.release:factory.obj
 0001:00011a40       ??1?$Array@V?$KeyValuePair@VString@Util@@PBVRtti@Core@@@Util@@@Util@@QAE@XZ 00412a40 f i foundation_win32.release:factory.obj
 0001:00011a60       ?InsertSorted@?$Array@V?$KeyValuePair@VString@Util@@PBVRtti@Core@@@Util@@@Util@@QAEHABV?$KeyValuePair@VString@Util@@PBVRtti@Core@@@2@@Z 00412a60 f i foundation_win32.release:factory.obj
 0001:00011cd0       ?Destroy@?$Array@V?$KeyValuePair@VString@Util@@PBVRtti@Core@@@Util@@@Util@@AAEXPAV?$KeyValuePair@VString@Util@@PBVRtti@Core@@@2@@Z 00412cd0 f i foundation_win32.release:factory.obj
 0001:00011cf0       ??9?$KeyValuePair@VString@Util@@PBVRtti@Core@@@Util@@QBE_NABV01@@Z 00412cf0 f i foundation_win32.release:factory.obj
 0001:00011d10       ??O?$KeyValuePair@VString@Util@@PBVRtti@Core@@@Util@@QBE_NABV01@@Z 00412d10 f i foundation_win32.release:factory.obj
 0001:00011d30       ??M?$KeyValuePair@VString@Util@@PBVRtti@Core@@@Util@@QBE_NABV01@@Z 00412d30 f i foundation_win32.release:factory.obj
 0001:00011d50       ?Key@?$KeyValuePair@VString@Util@@PBVRtti@Core@@@Util@@QBEABVString@2@XZ 00412d50 f i foundation_win32.release:factory.obj
 0001:00011d60       ?Size@?$Array@V?$KeyValuePair@VFourCC@Util@@PBVRtti@Core@@@Util@@@Util@@QBEHXZ 00412d60 f i foundation_win32.release:factory.obj
 0001:00011d80       ?Insert@?$Array@V?$KeyValuePair@VFourCC@Util@@PBVRtti@Core@@@Util@@@Util@@QAEXHABV?$KeyValuePair@VFourCC@Util@@PBVRtti@Core@@@2@@Z 00412d80 f i foundation_win32.release:factory.obj
 0001:00011df0       ?InsertAtEndOfIdenticalRange@?$Array@V?$KeyValuePair@VFourCC@Util@@PBVRtti@Core@@@Util@@@Util@@QAEHHABV?$KeyValuePair@VFourCC@Util@@PBVRtti@Core@@@2@@Z 00412df0 f i foundation_win32.release:factory.obj
 0001:00011e70       ?Destroy@?$Array@V?$KeyValuePair@VFourCC@Util@@PBVRtti@Core@@@Util@@@Util@@AAEXPAV?$KeyValuePair@VFourCC@Util@@PBVRtti@Core@@@2@@Z 00412e70 f i foundation_win32.release:factory.obj
 0001:00011e80       ?Grow@?$Array@V?$KeyValuePair@VFourCC@Util@@PBVRtti@Core@@@Util@@@Util@@AAEXXZ 00412e80 f i foundation_win32.release:factory.obj
 0001:00011f00       ??4?$KeyValuePair@VFourCC@Util@@PBVRtti@Core@@@Util@@QAEXABV01@@Z 00412f00 f i foundation_win32.release:factory.obj
 0001:00011f30       ??9?$KeyValuePair@VFourCC@Util@@PBVRtti@Core@@@Util@@QBE_NABV01@@Z 00412f30 f i foundation_win32.release:factory.obj
 0001:00011f50       ??O?$KeyValuePair@VFourCC@Util@@PBVRtti@Core@@@Util@@QBE_NABV01@@Z 00412f50 f i foundation_win32.release:factory.obj
 0001:00011f70       ??M?$KeyValuePair@VFourCC@Util@@PBVRtti@Core@@@Util@@QBE_NABV01@@Z 00412f70 f i foundation_win32.release:factory.obj
 0001:00011f90       ??_G?$KeyValuePair@VString@Util@@PBVRtti@Core@@@Util@@QAEPAXI@Z 00412f90 f i foundation_win32.release:factory.obj
 0001:00012000       ??0?$Array@V?$KeyValuePair@VString@Util@@PBVRtti@Core@@@Util@@@Util@@QAE@XZ 00413000 f i foundation_win32.release:factory.obj
 0001:00012040       ?Append@?$Array@V?$KeyValuePair@VString@Util@@PBVRtti@Core@@@Util@@@Util@@QAEXABV?$KeyValuePair@VString@Util@@PBVRtti@Core@@@2@@Z 00413040 f i foundation_win32.release:factory.obj
 0001:000120c0       ?Insert@?$Array@V?$KeyValuePair@VString@Util@@PBVRtti@Core@@@Util@@@Util@@QAEXHABV?$KeyValuePair@VString@Util@@PBVRtti@Core@@@2@@Z 004130c0 f i foundation_win32.release:factory.obj
 0001:00012130       ?InsertAtEndOfIdenticalRange@?$Array@V?$KeyValuePair@VString@Util@@PBVRtti@Core@@@Util@@@Util@@QAEHHABV?$KeyValuePair@VString@Util@@PBVRtti@Core@@@2@@Z 00413130 f i foundation_win32.release:factory.obj
 0001:000121b0       ?Delete@?$Array@V?$KeyValuePair@VString@Util@@PBVRtti@Core@@@Util@@@Util@@AAEXXZ 004131b0 f i foundation_win32.release:factory.obj
 0001:00012220       ?GrowTo@?$Array@V?$KeyValuePair@VFourCC@Util@@PBVRtti@Core@@@Util@@@Util@@AAEXH@Z 00413220 f i foundation_win32.release:factory.obj
 0001:00012310       ?Move@?$Array@V?$KeyValuePair@VFourCC@Util@@PBVRtti@Core@@@Util@@@Util@@AAEXHH@Z 00413310 f i foundation_win32.release:factory.obj
 0001:000124a0       ??_E?$KeyValuePair@VString@Util@@PBVRtti@Core@@@Util@@QAEPAXI@Z 004134a0 f i foundation_win32.release:factory.obj
 0001:000125b0       ?Grow@?$Array@V?$KeyValuePair@VString@Util@@PBVRtti@Core@@@Util@@@Util@@AAEXXZ 004135b0 f i foundation_win32.release:factory.obj
 0001:00012630       ?Move@?$Array@V?$KeyValuePair@VString@Util@@PBVRtti@Core@@@Util@@@Util@@AAEXHH@Z 00413630 f i foundation_win32.release:factory.obj
 0001:000127c0       ??4?$KeyValuePair@VString@Util@@PBVRtti@Core@@@Util@@QAEXABV01@@Z 004137c0 f i foundation_win32.release:factory.obj
 0001:00012810       ??0?$KeyValuePair@VFourCC@Util@@PBVRtti@Core@@@Util@@QAE@XZ 00413810 f i foundation_win32.release:factory.obj
 0001:00012830       ?GrowTo@?$Array@V?$KeyValuePair@VString@Util@@PBVRtti@Core@@@Util@@@Util@@AAEXH@Z 00413830 f i foundation_win32.release:factory.obj
 0001:00012950       ??0?$KeyValuePair@VString@Util@@PBVRtti@Core@@@Util@@QAE@XZ 00413950 f i foundation_win32.release:factory.obj
 0001:00012990       ?GetNumCpuCores@SystemInfoBase@Base@@QBEHXZ 00413990 f i foundation_win32.release:win360criticalsection.obj
 0001:000129b0       ??0Win360CriticalSection@Win360@@QAE@XZ 004139b0 f   foundation_win32.release:win360criticalsection.obj
 0001:00012a20       ??1Win360CriticalSection@Win360@@QAE@XZ 00413a20 f   foundation_win32.release:win360criticalsection.obj
 0001:00012a50       ??2Win32ConsoleHandler@Win32@@SAPAXI@Z 00413a50 f i foundation_win32.release:win32consolehandler.obj
 0001:00012a60       ??3Win32ConsoleHandler@Win32@@SAXPAX@Z 00413a60 f i foundation_win32.release:win32consolehandler.obj
 0001:00012a80       ?Value@StringAtom@Util@@QBEPBDXZ 00413a80 f i foundation_win32.release:win32consolehandler.obj
 0001:00012a90       ?Instance@CoreServer@Core@@SAPAV12@XZ 00413a90 f i foundation_win32.release:win32consolehandler.obj
 0001:00012ad0       ?HasInstance@CoreServer@Core@@SA_NXZ 00413ad0 f i foundation_win32.release:win32consolehandler.obj
 0001:00012af0       ?GetAppName@CoreServer@Core@@QBEABVStringAtom@Util@@XZ 00413af0 f i foundation_win32.release:win32consolehandler.obj
 0001:00012b10       ?GetRtti@Win32ConsoleHandler@Win32@@UBEPAVRtti@Core@@XZ 00413b10 f   foundation_win32.release:win32consolehandler.obj
 0001:00012b20       ?FactoryCreator@Win32ConsoleHandler@Win32@@SAPAVRefCounted@Core@@XZ 00413b20 f   foundation_win32.release:win32consolehandler.obj
 0001:00012b30       ?Create@Win32ConsoleHandler@Win32@@SAPAV12@XZ 00413b30 f   foundation_win32.release:win32consolehandler.obj
 0001:00012b70       ?RegisterWithFactory@Win32ConsoleHandler@Win32@@SA_NXZ 00413b70 f   foundation_win32.release:win32consolehandler.obj
 0001:00012c70       ??0Win32ConsoleHandler@Win32@@QAE@XZ 00413c70 f   foundation_win32.release:win32consolehandler.obj
 0001:00012d10       ??_GWin32ConsoleHandler@Win32@@UAEPAXI@Z 00413d10 f i foundation_win32.release:win32consolehandler.obj
 0001:00012d10       ??_EWin32ConsoleHandler@Win32@@UAEPAXI@Z 00413d10 f i  CIL library: CIL module
 0001:00012d40       ??1Win32ConsoleHandler@Win32@@UAE@XZ 00413d40 f i foundation_win32.release:win32consolehandler.obj
 0001:00012d60       ?Print@Win32ConsoleHandler@Win32@@UAEXABVString@Util@@@Z 00413d60 f   foundation_win32.release:win32consolehandler.obj
 0001:00012e30       ?DebugOut@Win32ConsoleHandler@Win32@@UAEXABVString@Util@@@Z 00413e30 f   foundation_win32.release:win32consolehandler.obj
 0001:00012e70       ?Error@Win32ConsoleHandler@Win32@@UAEXABVString@Util@@@Z 00413e70 f   foundation_win32.release:win32consolehandler.obj
 0001:00012fb0       ?Warning@Win32ConsoleHandler@Win32@@UAEXABVString@Util@@@Z 00413fb0 f   foundation_win32.release:win32consolehandler.obj
 0001:00013000       ?Confirm@Win32ConsoleHandler@Win32@@UAEXABVString@Util@@@Z 00414000 f   foundation_win32.release:win32consolehandler.obj
 0001:00013080       ?HasInput@Win32ConsoleHandler@Win32@@UAE_NXZ 00414080 f   foundation_win32.release:win32consolehandler.obj
 0001:00013130       ?GetInput@Win32ConsoleHandler@Win32@@UAE?AVString@Util@@XZ 00414130 f   foundation_win32.release:win32consolehandler.obj
 0001:00013270       ?Setup@Win360Heap@Win360@@SAXXZ 00414270 f   foundation_win32.release:win360heap.obj
 0001:00013280       ??0Win360Heap@Win360@@QAE@PBDII@Z 00414280 f   foundation_win32.release:win360heap.obj
 0001:00013310       ??1Win360Heap@Win360@@QAE@XZ 00414310 f   foundation_win32.release:win360heap.obj
 0001:00013350       ??0Win32SystemInfo@Win32@@QAE@XZ 00414350 f   foundation_win32.release:win32systeminfo.obj
 0001:000133d0       ??2Win360Socket@Win360@@SAPAXI@Z 004143d0 f i foundation_win32.release:win360socket.obj
 0001:000133e0       ??3Win360Socket@Win360@@SAXPAX@Z 004143e0 f i foundation_win32.release:win360socket.obj
 0001:00013400       ?IsOpen@Win360Socket@Win360@@QBE_NXZ 00414400 f i foundation_win32.release:win360socket.obj
 0001:00013420       ?IsBound@Win360Socket@Win360@@QBE_NXZ 00414420 f i foundation_win32.release:win360socket.obj
 0001:00013440       ?SetAddress@Win360Socket@Win360@@QAEXABVWin360IpAddress@2@@Z 00414440 f i foundation_win32.release:win360socket.obj
 0001:00013460       ??4Win360IpAddress@Win360@@QAEAAV01@ABV01@@Z 00414460 f i foundation_win32.release:win360socket.obj
 0001:00013510       ?GetBlocking@Win360Socket@Win360@@QBE_NXZ 00414510 f i foundation_win32.release:win360socket.obj
 0001:00013530       ?GetRtti@Win360Socket@Win360@@UBEPAVRtti@Core@@XZ 00414530 f   foundation_win32.release:win360socket.obj
 0001:00013540       ?FactoryCreator@Win360Socket@Win360@@SAPAVRefCounted@Core@@XZ 00414540 f   foundation_win32.release:win360socket.obj
 0001:00013550       ?Create@Win360Socket@Win360@@SAPAV12@XZ 00414550 f   foundation_win32.release:win360socket.obj
 0001:00013590       ?RegisterWithFactory@Win360Socket@Win360@@SA_NXZ 00414590 f   foundation_win32.release:win360socket.obj
 0001:00013690       ??0Win360Socket@Win360@@QAE@XZ 00414690 f   foundation_win32.release:win360socket.obj
 0001:00013710       ??_EWin360Socket@Win360@@UAEPAXI@Z 00414710 f i  CIL library: CIL module
 0001:00013710       ??_GWin360Socket@Win360@@UAEPAXI@Z 00414710 f i foundation_win32.release:win360socket.obj
 0001:00013740       ??1Win360IpAddress@Win360@@QAE@XZ 00414740 f i foundation_win32.release:win360socket.obj
 0001:000137d0       ??1Win360Socket@Win360@@UAE@XZ 004147d0 f   foundation_win32.release:win360socket.obj
 0001:00013820       ?InitNetwork@Win360Socket@Win360@@SAXXZ 00414820 f   foundation_win32.release:win360socket.obj
 0001:00013920       ?Open@Win360Socket@Win360@@QAE_NW4Protocol@12@@Z 00414920 f   foundation_win32.release:win360socket.obj
 0001:000139f0       ?OpenWithExistingSocket@Win360Socket@Win360@@AAEXI@Z 004149f0 f   foundation_win32.release:win360socket.obj
 0001:00013a50       ?Close@Win360Socket@Win360@@QAEXXZ 00414a50 f   foundation_win32.release:win360socket.obj
 0001:00013bd0       ?SetBoolOption@Win360Socket@Win360@@AAEXH_N@Z 00414bd0 f   foundation_win32.release:win360socket.obj
 0001:00013cd0       ?GetBoolOption@Win360Socket@Win360@@AAE_NH@Z 00414cd0 f   foundation_win32.release:win360socket.obj
 0001:00013e00       ?SetIntOption@Win360Socket@Win360@@AAEXHH@Z 00414e00 f   foundation_win32.release:win360socket.obj
 0001:00013ee0       ?GetIntOption@Win360Socket@Win360@@AAEHH@Z 00414ee0 f   foundation_win32.release:win360socket.obj
 0001:00013ff0       ?SetBlocking@Win360Socket@Win360@@QAEX_N@Z 00414ff0 f   foundation_win32.release:win360socket.obj
 0001:000140e0       ?Bind@Win360Socket@Win360@@QAE_NXZ 004150e0 f   foundation_win32.release:win360socket.obj
 0001:000141f0       ?Listen@Win360Socket@Win360@@QAE_NXZ 004151f0 f   foundation_win32.release:win360socket.obj
 0001:000142f0       ?Accept@Win360Socket@Win360@@QAE_NAAV?$Ptr@VSocket@Net@@@@@Z 004152f0 f   foundation_win32.release:win360socket.obj
 0001:000144c0       ?Connect@Win360Socket@Win360@@QAE?AW4Result@12@XZ 004154c0 f   foundation_win32.release:win360socket.obj
 0001:00014630       ?IsConnected@Win360Socket@Win360@@QAE_NXZ 00415630 f   foundation_win32.release:win360socket.obj
 0001:00014790       ?Send@Win360Socket@Win360@@QAE?AW4Result@12@PBXHAAH@Z 00415790 f   foundation_win32.release:win360socket.obj
 0001:000148c0       ?HasRecvData@Win360Socket@Win360@@QAE_NXZ 004158c0 f   foundation_win32.release:win360socket.obj
 0001:00014a20       ?Recv@Win360Socket@Win360@@QAE?AW4Result@12@PAXHAAH@Z 00415a20 f   foundation_win32.release:win360socket.obj
 0001:00014b90       ?SendTo@Win360Socket@Win360@@QAE?AW4Result@12@PBXHIGAAH@Z 00415b90 f   foundation_win32.release:win360socket.obj
 0001:00014bb0       ?RecvFrom@Win360Socket@Win360@@QAE?AW4Result@12@PAXHIGAAH@Z 00415bb0 f   foundation_win32.release:win360socket.obj
 0001:00014bd0       ?ClearError@Win360Socket@Win360@@AAEXXZ 00415bd0 f   foundation_win32.release:win360socket.obj
 0001:00014bf0       ?SetToLastWSAError@Win360Socket@Win360@@AAEXXZ 00415bf0 f   foundation_win32.release:win360socket.obj
 0001:00014c10       ?SetWSAError@Win360Socket@Win360@@AAEXH@Z 00415c10 f   foundation_win32.release:win360socket.obj
 0001:00014c30       ?WSAErrorToErrorCode@Win360Socket@Win360@@CA?AW4ErrorCode@12@H@Z 00415c30 f   foundation_win32.release:win360socket.obj
 0001:00014ff0       ?ErrorAsString@Win360Socket@Win360@@CA?AVString@Util@@W4ErrorCode@12@@Z 00415ff0 f   foundation_win32.release:win360socket.obj
 0001:00015a50       ?WSAErrorToString@Win360Socket@Win360@@CA?AVString@Util@@H@Z 00416a50 f   foundation_win32.release:win360socket.obj
 0001:00015a80       ?GetErrorString@Win360Socket@Win360@@QBE?AVString@Util@@XZ 00416a80 f   foundation_win32.release:win360socket.obj
 0001:00015ab0       ?IsNetworkInitialized@Win360Socket@Win360@@SA_NXZ 00416ab0 f   foundation_win32.release:win360socket.obj
 0001:00015ac0       ??4?$Ptr@VSocket@Net@@@@QAEXPAVSocket@Net@@@Z 00416ac0 f i foundation_win32.release:win360socket.obj
 0001:00015b20       ??C?$Ptr@VSocket@Net@@@@QBEPAVSocket@Net@@XZ 00416b20 f i foundation_win32.release:win360socket.obj
 0001:00015b60       ?Clear@Memory@@YAXPAXI@Z   00416b60 f i foundation_win32.release:win32minidump.obj
 0001:00015b80       ?ExtractFileName@String@Util@@QBE?AV12@XZ 00416b80 f i foundation_win32.release:win32minidump.obj
 0001:00015c20       ?ExtractToLastSlash@String@Util@@QBE?AV12@XZ 00416c20 f i foundation_win32.release:win32minidump.obj
 0001:00015cb0       ?Setup@Win32MiniDump@Win32@@SAXXZ 00416cb0 f   foundation_win32.release:win32minidump.obj
 0001:00015cc0       ?WriteMiniDump@Win32MiniDump@Win32@@SA_NXZ 00416cc0 f   foundation_win32.release:win32minidump.obj
 0001:00015cd0       ?WriteMiniDumpInternal@Win32MiniDump@Win32@@CA_NPAU_EXCEPTION_POINTERS@@@Z 00416cd0 f   foundation_win32.release:win32minidump.obj
 0001:00015df0       ?BuildMiniDumpFilename@Win32MiniDump@Win32@@CA?AVString@Util@@XZ 00416df0 f   foundation_win32.release:win32minidump.obj
 0001:00016090       ?ExceptionCallback@Win32MiniDump@Win32@@CGJPAU_EXCEPTION_POINTERS@@@Z 00417090 f   foundation_win32.release:win32minidump.obj
 0001:000160b0       ??0ExitHandler@Core@@QAE@XZ 004170b0 f   foundation_win32.release:exithandler.obj
 0001:000160e0       ??_GExitHandler@Core@@UAEPAXI@Z 004170e0 f i foundation_win32.release:exithandler.obj
 0001:000160e0       ??_EExitHandler@Core@@UAEPAXI@Z 004170e0 f i  CIL library: CIL module
 0001:00016110       ??1ExitHandler@Core@@UAE@XZ 00417110 f   foundation_win32.release:exithandler.obj
 0001:00016130       ?Next@ExitHandler@Core@@QBEPBV12@XZ 00417130 f   foundation_win32.release:exithandler.obj
 0001:00016150       ?OnExit@ExitHandler@Core@@UBEXXZ 00417150 f   foundation_win32.release:exithandler.obj
 0001:00016160       ?IsValid@StringBuffer@Util@@QBE_NXZ 00417160 f i foundation_win32.release:stringbuffer.obj
 0001:00016180       ??0StringBuffer@Util@@QAE@XZ 00417180 f   foundation_win32.release:stringbuffer.obj
 0001:000161b0       ??1StringBuffer@Util@@QAE@XZ 004171b0 f   foundation_win32.release:stringbuffer.obj
 0001:000161e0       ?Setup@StringBuffer@Util@@QAEXH@Z 004171e0 f   foundation_win32.release:stringbuffer.obj
 0001:00016240       ?Discard@StringBuffer@Util@@QAEXXZ 00417240 f   foundation_win32.release:stringbuffer.obj
 0001:000162e0       ?AllocNewChunk@StringBuffer@Util@@AAEXXZ 004172e0 f   foundation_win32.release:stringbuffer.obj
 0001:00016320       ?AddString@StringBuffer@Util@@QAEPBDPBD@Z 00417320 f   foundation_win32.release:stringbuffer.obj
 0001:00016440       ??0?$Array@PAD@Util@@QAE@XZ 00417440 f i foundation_win32.release:stringbuffer.obj
 0001:00016480       ??1?$Array@PAD@Util@@QAE@XZ 00417480 f i foundation_win32.release:stringbuffer.obj
 0001:000164a0       ??A?$Array@PAD@Util@@QBEAAPADH@Z 004174a0 f i foundation_win32.release:stringbuffer.obj
 0001:000164f0       ?Append@?$Array@PAD@Util@@QAEXABQAD@Z 004174f0 f i foundation_win32.release:stringbuffer.obj
 0001:00016560       ?Back@?$Array@PAD@Util@@QBEAAPADXZ 00417560 f i foundation_win32.release:stringbuffer.obj
 0001:000165b0       ?Clear@?$Array@PAD@Util@@QAEXXZ 004175b0 f i foundation_win32.release:stringbuffer.obj
 0001:00016600       ?Destroy@?$Array@PAD@Util@@AAEXPAPAD@Z 00417600 f i foundation_win32.release:stringbuffer.obj
 0001:00016610       ?Delete@?$Array@PAD@Util@@AAEXXZ 00417610 f i foundation_win32.release:stringbuffer.obj
 0001:00016670       ?Grow@?$Array@PAD@Util@@AAEXXZ 00417670 f i foundation_win32.release:stringbuffer.obj
 0001:000166f0       ?GrowTo@?$Array@PAD@Util@@AAEXH@Z 004176f0 f i foundation_win32.release:stringbuffer.obj
 0001:000167a0       ??2ConsoleHandler@IO@@SAPAXI@Z 004177a0 f i foundation_win32.release:consolehandler.obj
 0001:000167b0       ??3ConsoleHandler@IO@@SAXPAX@Z 004177b0 f i foundation_win32.release:consolehandler.obj
 0001:000167d0       ?IsOpen@ConsoleHandler@IO@@QBE_NXZ 004177d0 f i foundation_win32.release:consolehandler.obj
 0001:000167f0       ?GetRtti@ConsoleHandler@IO@@UBEPAVRtti@Core@@XZ 004177f0 f   foundation_win32.release:consolehandler.obj
 0001:00016800       ?FactoryCreator@ConsoleHandler@IO@@SAPAVRefCounted@Core@@XZ 00417800 f   foundation_win32.release:consolehandler.obj
 0001:00016810       ?Create@ConsoleHandler@IO@@SAPAV12@XZ 00417810 f   foundation_win32.release:consolehandler.obj
 0001:00016850       ?RegisterWithFactory@ConsoleHandler@IO@@SA_NXZ 00417850 f   foundation_win32.release:consolehandler.obj
 0001:00016950       ??0ConsoleHandler@IO@@QAE@XZ 00417950 f   foundation_win32.release:consolehandler.obj
 0001:00016990       ??_EConsoleHandler@IO@@UAEPAXI@Z 00417990 f i  CIL library: CIL module
 0001:00016990       ??_GConsoleHandler@IO@@UAEPAXI@Z 00417990 f i foundation_win32.release:consolehandler.obj
 0001:000169c0       ??1ConsoleHandler@IO@@UAE@XZ 004179c0 f   foundation_win32.release:consolehandler.obj
 0001:00016a00       ?Open@ConsoleHandler@IO@@UAEXXZ 00417a00 f   foundation_win32.release:consolehandler.obj
 0001:00016a40       ?Close@ConsoleHandler@IO@@UAEXXZ 00417a40 f   foundation_win32.release:consolehandler.obj
 0001:00016a80       ?Update@ConsoleHandler@IO@@UAEXXZ 00417a80 f   foundation_win32.release:consolehandler.obj
 0001:00016ac0       ?Print@ConsoleHandler@IO@@UAEXABVString@Util@@@Z 00417ac0 f   foundation_win32.release:consolehandler.obj
 0001:00016ad0       ?Error@ConsoleHandler@IO@@UAEXABVString@Util@@@Z 00417ad0 f   foundation_win32.release:consolehandler.obj
 0001:00016ae0       ?Warning@ConsoleHandler@IO@@UAEXABVString@Util@@@Z 00417ae0 f   foundation_win32.release:consolehandler.obj
 0001:00016af0       ?Confirm@ConsoleHandler@IO@@UAEXABVString@Util@@@Z 00417af0 f   foundation_win32.release:consolehandler.obj
 0001:00016b00       ?DebugOut@ConsoleHandler@IO@@UAEXABVString@Util@@@Z 00417b00 f   foundation_win32.release:consolehandler.obj
 0001:00016b10       ?HasInput@ConsoleHandler@IO@@UAE_NXZ 00417b10 f   foundation_win32.release:consolehandler.obj
 0001:00016b20       ?GetInput@ConsoleHandler@IO@@UAE?AVString@Util@@XZ 00417b20 f   foundation_win32.release:consolehandler.obj
 0001:00016b70       ??2CoreServer@Core@@SAPAXI@Z 00417b70 f i foundation_win32.release:coreserver.obj
 0001:00016b80       ??3CoreServer@Core@@SAXPAX@Z 00417b80 f i foundation_win32.release:coreserver.obj
 0001:00016ba0       ?IsOpen@CoreServer@Core@@QBE_NXZ 00417ba0 f i foundation_win32.release:coreserver.obj
 0001:00016bc0       ?GetRtti@CoreServer@Core@@UBEPAVRtti@2@XZ 00417bc0 f   foundation_win32.release:coreserver.obj
 0001:00016bd0       ?FactoryCreator@CoreServer@Core@@SAPAVRefCounted@2@XZ 00417bd0 f   foundation_win32.release:coreserver.obj
 0001:00016be0       ?Create@CoreServer@Core@@SAPAV12@XZ 00417be0 f   foundation_win32.release:coreserver.obj
 0001:00016c20       ?RegisterWithFactory@CoreServer@Core@@SA_NXZ 00417c20 f   foundation_win32.release:coreserver.obj
 0001:00016d20       ??0CoreServer@Core@@QAE@XZ 00417d20 f   foundation_win32.release:coreserver.obj
 0001:00016e10       ??_GCoreServer@Core@@UAEPAXI@Z 00417e10 f i foundation_win32.release:coreserver.obj
 0001:00016e10       ??_ECoreServer@Core@@UAEPAXI@Z 00417e10 f i  CIL library: CIL module
 0001:00016e40       ??1CoreServer@Core@@UAE@XZ 00417e40 f   foundation_win32.release:coreserver.obj
 0001:00016ec0       ?Open@CoreServer@Core@@QAEXXZ 00417ec0 f   foundation_win32.release:coreserver.obj
 0001:00016f20       ?Close@CoreServer@Core@@QAEXXZ 00417f20 f   foundation_win32.release:coreserver.obj
 0001:00016f70       ?Trigger@CoreServer@Core@@QAEXXZ 00417f70 f   foundation_win32.release:coreserver.obj
 0001:00016f90       ??0?$Ptr@VConsole@IO@@@@QAE@XZ 00417f90 f i foundation_win32.release:coreserver.obj
 0001:00016fb0       ??1?$Ptr@VConsole@IO@@@@QAE@XZ 00417fb0 f i foundation_win32.release:coreserver.obj
 0001:00016fe0       ??4?$Ptr@VConsole@IO@@@@QAEXPAVConsole@IO@@@Z 00417fe0 f i foundation_win32.release:coreserver.obj
 0001:00017040       ??C?$Ptr@VConsole@IO@@@@QBEPAVConsole@IO@@XZ 00418040 f i foundation_win32.release:coreserver.obj
 0001:00017080       ??0SystemInfoBase@Base@@QAE@XZ 00418080 f   foundation_win32.release:systeminfobase.obj
 0001:000170c0       ?PlatformAsString@SystemInfoBase@Base@@SA?AVString@Util@@W4Platform@12@@Z 004180c0 f   foundation_win32.release:systeminfobase.obj
 0001:00017210       ?CpuTypeAsString@SystemInfoBase@Base@@SA?AVString@Util@@W4CpuType@12@@Z 00418210 f   foundation_win32.release:systeminfobase.obj
 0001:000173a0       ?CheckValidCharSet@String@Util@@QBE_NABV12@@Z 004183a0 f i foundation_win32.release:win360ipaddress.obj
 0001:00017440       ?Host@URI@IO@@QBEABVString@Util@@XZ 00418440 f i foundation_win32.release:win360ipaddress.obj
 0001:00017460       ?Port@URI@IO@@QBEABVString@Util@@XZ 00418460 f i foundation_win32.release:win360ipaddress.obj
 0001:00017480       ??0Win360IpAddress@Win360@@QAE@XZ 00418480 f   foundation_win32.release:win360ipaddress.obj
 0001:00017510       ??0Win360IpAddress@Win360@@QAE@ABV01@@Z 00418510 f   foundation_win32.release:win360ipaddress.obj
 0001:000175f0       ??0Win360IpAddress@Win360@@QAE@ABVString@Util@@G@Z 004185f0 f   foundation_win32.release:win360ipaddress.obj
 0001:00017690       ??0Win360IpAddress@Win360@@QAE@ABVURI@IO@@@Z 00418690 f   foundation_win32.release:win360ipaddress.obj
 0001:00017720       ??0Win360IpAddress@Win360@@AAE@ABUsockaddr_in@@@Z 00418720 f   foundation_win32.release:win360ipaddress.obj
 0001:000177b0       ?SetSockAddr@Win360IpAddress@Win360@@AAEXABUsockaddr_in@@@Z 004187b0 f   foundation_win32.release:win360ipaddress.obj
 0001:00017850       ?GetSockAddr@Win360IpAddress@Win360@@ABEABUsockaddr_in@@XZ 00418850 f   foundation_win32.release:win360ipaddress.obj
 0001:00017870       ?ExtractFromUri@Win360IpAddress@Win360@@QAEXABVURI@IO@@@Z 00418870 f   foundation_win32.release:win360ipaddress.obj
 0001:00017930       ?SetPort@Win360IpAddress@Win360@@QAEXG@Z 00418930 f   foundation_win32.release:win360ipaddress.obj
 0001:00017950       ?GetPort@Win360IpAddress@Win360@@QBEGXZ 00418950 f   foundation_win32.release:win360ipaddress.obj
 0001:00017970       ?SetHostName@Win360IpAddress@Win360@@QAEXABVString@Util@@@Z 00418970 f   foundation_win32.release:win360ipaddress.obj
 0001:00017a30       ?GetHostName@Win360IpAddress@Win360@@QBEABVString@Util@@XZ 00418a30 f   foundation_win32.release:win360ipaddress.obj
 0001:00017a40       ?GetHostAddr@Win360IpAddress@Win360@@QBEABVString@Util@@XZ 00418a40 f   foundation_win32.release:win360ipaddress.obj
 0001:00017a60       ?GetHostByName@Win360IpAddress@Win360@@CA_NABVString@Util@@AAUin_addr@@@Z 00418a60 f   foundation_win32.release:win360ipaddress.obj
 0001:00017d50       ?IsInetAddr@Win360IpAddress@Win360@@CA_NPBUin_addr@@@Z 00418d50 f   foundation_win32.release:win360ipaddress.obj
 0001:00017f50       ??2Socket@Net@@SAPAXI@Z    00418f50 f i foundation_win32.release:socket.obj
 0001:00017f60       ??3Socket@Net@@SAXPAX@Z    00418f60 f i foundation_win32.release:socket.obj
 0001:00017f80       ?GetRtti@Socket@Net@@UBEPAVRtti@Core@@XZ 00418f80 f   foundation_win32.release:socket.obj
 0001:00017f90       ?FactoryCreator@Socket@Net@@SAPAVRefCounted@Core@@XZ 00418f90 f   foundation_win32.release:socket.obj
 0001:00017fa0       ?Create@Socket@Net@@SAPAV12@XZ 00418fa0 f   foundation_win32.release:socket.obj
 0001:00017fe0       ??0Socket@Net@@QAE@XZ      00418fe0 f i foundation_win32.release:socket.obj
 0001:00018000       ??_ESocket@Net@@UAEPAXI@Z  00419000 f i  CIL library: CIL module
 0001:00018000       ??_GSocket@Net@@UAEPAXI@Z  00419000 f i foundation_win32.release:socket.obj
 0001:00018030       ??1Socket@Net@@UAE@XZ      00419030 f i foundation_win32.release:socket.obj
 0001:00018050       ?RegisterWithFactory@Socket@Net@@SA_NXZ 00419050 f   foundation_win32.release:socket.obj
 0001:00018150       ??0StringAtom@Util@@QAE@ABVString@1@@Z 00419150 f i render_win32.release:renderapplication.obj
 0001:00018190       ?Start@DebugTimer@Debug@@QAEXXZ 00419190 f i render_win32.release:renderapplication.obj
 0001:000181b0       ?Stop@DebugTimer@Debug@@QAEXXZ 004191b0 f i render_win32.release:renderapplication.obj
 0001:00018230       ?GetAppTitle@Application@App@@QBEABVString@Util@@XZ 00419230 f i render_win32.release:renderapplication.obj
 0001:00018250       ?GetAppID@Application@App@@QBEABVString@Util@@XZ 00419250 f i render_win32.release:renderapplication.obj
 0001:00018270       ?GetAppVersion@Application@App@@QBEABVString@Util@@XZ 00419270 f i render_win32.release:renderapplication.obj
 0001:00018290       ?SetCompanyName@CoreServer@Core@@QAEXABVStringAtom@Util@@@Z 00419290 f i render_win32.release:renderapplication.obj
 0001:000182b0       ?SetAppName@CoreServer@Core@@QAEXABVStringAtom@Util@@@Z 004192b0 f i render_win32.release:renderapplication.obj
 0001:000182d0       ?SetRootDirectory@CoreServer@Core@@QAEXABVStringAtom@Util@@@Z 004192d0 f i render_win32.release:renderapplication.obj
 0001:000182f0       ??0DisplayMode@CoreGraphics@@QAE@XZ 004192f0 f i render_win32.release:renderapplication.obj
 0001:00018340       ?SetXPos@DisplayMode@CoreGraphics@@QAEXI@Z 00419340 f i render_win32.release:renderapplication.obj
 0001:00018360       ?SetYPos@DisplayMode@CoreGraphics@@QAEXI@Z 00419360 f i render_win32.release:renderapplication.obj
 0001:00018380       ?SetWidth@DisplayMode@CoreGraphics@@QAEXI@Z 00419380 f i render_win32.release:renderapplication.obj
 0001:000183a0       ?GetWidth@DisplayMode@CoreGraphics@@QBEIXZ 004193a0 f i render_win32.release:renderapplication.obj
 0001:000183c0       ?SetHeight@DisplayMode@CoreGraphics@@QAEXI@Z 004193c0 f i render_win32.release:renderapplication.obj
 0001:000183e0       ?GetHeight@DisplayMode@CoreGraphics@@QBEIXZ 004193e0 f i render_win32.release:renderapplication.obj
 0001:00018400       ?SetAspectRatio@DisplayMode@CoreGraphics@@QAEXM@Z 00419400 f i render_win32.release:renderapplication.obj
 0001:00018420       ?IsAttachedToResourceManager@ResourceMapper@Resources@@QBE_NXZ 00419420 f i render_win32.release:renderapplication.obj
 0001:00018440       ?SetPlaceholderResourceId@ResourceMapper@Resources@@QAEXABVStringAtom@Util@@@Z 00419440 f i render_win32.release:renderapplication.obj
 0001:00018480       ?GetTime@FrameSyncTimer@FrameSync@@QBENXZ 00419480 f i render_win32.release:renderapplication.obj
 0001:000184a0       ?GetFrameTime@FrameSyncTimer@FrameSync@@QBENXZ 004194a0 f i render_win32.release:renderapplication.obj
 0001:000184c0       ?SetAntiAliasQuality@DisplaySettings@Graphics@@QAEXW4Code@AntiAliasQuality@CoreGraphics@@@Z 004194c0 f i render_win32.release:renderapplication.obj
 0001:000184e0       ?SetAdapter@DisplaySettings@Graphics@@QAEXW4Code@Adapter@CoreGraphics@@@Z 004194e0 f i render_win32.release:renderapplication.obj
 0001:00018500       ?SetFullscreen@DisplaySettings@Graphics@@QAEX_N@Z 00419500 f i render_win32.release:renderapplication.obj
 0001:00018520       ?SetAlwaysOnTop@DisplaySettings@Graphics@@QAEX_N@Z 00419520 f i render_win32.release:renderapplication.obj
 0001:00018540       ?SetParentWindow@Display@Graphics@@QAEXPAX@Z 00419540 f i render_win32.release:renderapplication.obj
 0001:00018560       ?SetResourceMappers@Display@Graphics@@QAEXABV?$Array@V?$Ptr@VResourceMapper@Resources@@@@@Util@@@Z 00419560 f i render_win32.release:renderapplication.obj
 0001:00018580       ?IsQuitRequested@InputServerBase@Base@@QBE_NXZ 00419580 f i render_win32.release:renderapplication.obj
 0001:000185a0       ?SetTitle@GameContentServerBase@Base@@QAEXABVString@Util@@@Z 004195a0 f i render_win32.release:renderapplication.obj
 0001:000185f0       ?SetTitleId@GameContentServerBase@Base@@QAEXABVString@Util@@@Z 004195f0 f i render_win32.release:renderapplication.obj
 0001:00018640       ?SetVersion@GameContentServerBase@Base@@QAEXABVString@Util@@@Z 00419640 f i render_win32.release:renderapplication.obj
 0001:00018690       ?IsQuitRequested@RenderApplication@App@@IBE_NXZ 00419690 f i render_win32.release:renderapplication.obj
 0001:000186b0       ?SetResourceClass@SimpleResourceMapper@Resources@@QAEXABVRtti@Core@@@Z 004196b0 f i render_win32.release:renderapplication.obj
 0001:000186f0       ?SetResourceLoaderClass@SimpleResourceMapper@Resources@@QAEXABVRtti@Core@@@Z 004196f0 f i render_win32.release:renderapplication.obj
 0001:00018730       ?SetManagedResourceClass@SimpleResourceMapper@Resources@@QAEXABVRtti@Core@@@Z 00419730 f i render_win32.release:renderapplication.obj
 0001:00018770       ??0RenderApplication@App@@QAE@XZ 00419770 f   render_win32.release:renderapplication.obj
 0001:000188d0       ??_ERenderApplication@App@@UAEPAXI@Z 004198d0 f i  CIL library: CIL module
 0001:000188d0       ??_GRenderApplication@App@@UAEPAXI@Z 004198d0 f i render_win32.release:renderapplication.obj
 0001:00018900       ??1RenderApplication@App@@UAE@XZ 00419900 f   render_win32.release:renderapplication.obj
 0001:00018a60       ?LookupProjectDirectory@RenderApplication@App@@IAE?AVString@Util@@XZ 00419a60 f   render_win32.release:renderapplication.obj
 0001:00018d00       ?Open@RenderApplication@App@@UAE_NXZ 00419d00 f   render_win32.release:renderapplication.obj
 0001:000195f0       ?OnConfigureDisplay@RenderApplication@App@@MAEXXZ 0041a5f0 f   render_win32.release:renderapplication.obj
 0001:0001a030       ?OnSetupResourceMappers@RenderApplication@App@@MAEXXZ 0041b030 f   render_win32.release:renderapplication.obj
 0001:0001a3d0       ?Close@RenderApplication@App@@UAEXXZ 0041b3d0 f   render_win32.release:renderapplication.obj
 0001:0001a660       ?Run@RenderApplication@App@@UAEXXZ 0041b660 f   render_win32.release:renderapplication.obj
 0001:0001a860       ?OnProcessInput@RenderApplication@App@@MAEXXZ 0041b860 f   render_win32.release:renderapplication.obj
 0001:0001a870       ?OnUpdateFrame@RenderApplication@App@@MAEXXZ 0041b870 f   render_win32.release:renderapplication.obj
 0001:0001a880       ?UpdateTime@RenderApplication@App@@QAEXXZ 0041b880 f   render_win32.release:renderapplication.obj
 0001:0001a8e0       ?Add@?$RingBuffer@N@Util@@QAEXABN@Z 0041b8e0 f i render_win32.release:renderapplication.obj
 0001:0001a990       ??0?$Ptr@VDebugTimer@Debug@@@@QAE@XZ 0041b990 f i render_win32.release:renderapplication.obj
 0001:0001a9b0       ??1?$Ptr@VDebugTimer@Debug@@@@QAE@XZ 0041b9b0 f i render_win32.release:renderapplication.obj
 0001:0001a9e0       ??4?$Ptr@VDebugTimer@Debug@@@@QAEXPAVDebugTimer@Debug@@@Z 0041b9e0 f i render_win32.release:renderapplication.obj
 0001:0001aa40       ??C?$Ptr@VDebugTimer@Debug@@@@QBEPAVDebugTimer@Debug@@XZ 0041ba40 f i render_win32.release:renderapplication.obj
 0001:0001aa80       ??0?$Array@V?$Ptr@VResourceMapper@Resources@@@@@Util@@QAE@XZ 0041ba80 f i render_win32.release:renderapplication.obj
 0001:0001aac0       ??1?$Array@V?$Ptr@VResourceMapper@Resources@@@@@Util@@QAE@XZ 0041bac0 f i render_win32.release:renderapplication.obj
 0001:0001aae0       ??4?$Array@V?$Ptr@VResourceMapper@Resources@@@@@Util@@QAEXABV01@@Z 0041bae0 f i render_win32.release:renderapplication.obj
 0001:0001abd0       ?Append@?$Array@V?$Ptr@VResourceMapper@Resources@@@@@Util@@QAEXABV?$Ptr@VResourceMapper@Resources@@@@@Z 0041bbd0 f i render_win32.release:renderapplication.obj
 0001:0001ac50       ??4?$Ptr@VResourceMapper@Resources@@@@QAEXABV0@@Z 0041bc50 f i render_win32.release:renderapplication.obj
 0001:0001acb0       ??0?$Ptr@VFrameSyncTimer@FrameSync@@@@QAE@XZ 0041bcb0 f i render_win32.release:renderapplication.obj
 0001:0001acd0       ??1?$Ptr@VFrameSyncTimer@FrameSync@@@@QAE@XZ 0041bcd0 f i render_win32.release:renderapplication.obj
 0001:0001ad00       ??4?$Ptr@VFrameSyncTimer@FrameSync@@@@QAEXPAVFrameSyncTimer@FrameSync@@@Z 0041bd00 f i render_win32.release:renderapplication.obj
 0001:0001ad60       ??C?$Ptr@VFrameSyncTimer@FrameSync@@@@QBEPAVFrameSyncTimer@FrameSync@@XZ 0041bd60 f i render_win32.release:renderapplication.obj
 0001:0001ada0       ??0?$Ptr@VIoServer@IO@@@@QAE@XZ 0041bda0 f i render_win32.release:renderapplication.obj
 0001:0001adc0       ??1?$Ptr@VIoServer@IO@@@@QAE@XZ 0041bdc0 f i render_win32.release:renderapplication.obj
 0001:0001adf0       ??4?$Ptr@VIoServer@IO@@@@QAEXPAVIoServer@IO@@@Z 0041bdf0 f i render_win32.release:renderapplication.obj
 0001:0001ae50       ??C?$Ptr@VIoServer@IO@@@@QBEPAVIoServer@IO@@XZ 0041be50 f i render_win32.release:renderapplication.obj
 0001:0001ae90       ??0?$Ptr@VHttpServerProxy@Http@@@@QAE@XZ 0041be90 f i render_win32.release:renderapplication.obj
 0001:0001aeb0       ??1?$Ptr@VHttpServerProxy@Http@@@@QAE@XZ 0041beb0 f i render_win32.release:renderapplication.obj
 0001:0001aee0       ??4?$Ptr@VHttpServerProxy@Http@@@@QAEXPAVHttpServerProxy@Http@@@Z 0041bee0 f i render_win32.release:renderapplication.obj
 0001:0001af40       ??C?$Ptr@VHttpServerProxy@Http@@@@QBEPAVHttpServerProxy@Http@@XZ 0041bf40 f i render_win32.release:renderapplication.obj
 0001:0001af80       ??0?$Ptr@VHttpClientRegistry@Http@@@@QAE@XZ 0041bf80 f i render_win32.release:renderapplication.obj
 0001:0001afa0       ??1?$Ptr@VHttpClientRegistry@Http@@@@QAE@XZ 0041bfa0 f i render_win32.release:renderapplication.obj
 0001:0001afd0       ??4?$Ptr@VHttpClientRegistry@Http@@@@QAEXPAVHttpClientRegistry@Http@@@Z 0041bfd0 f i render_win32.release:renderapplication.obj
 0001:0001b030       ??C?$Ptr@VHttpClientRegistry@Http@@@@QBEPAVHttpClientRegistry@Http@@XZ 0041c030 f i render_win32.release:renderapplication.obj
 0001:0001b070       ??0?$Ptr@VCoreServer@Core@@@@QAE@XZ 0041c070 f i render_win32.release:renderapplication.obj
 0001:0001b090       ??1?$Ptr@VCoreServer@Core@@@@QAE@XZ 0041c090 f i render_win32.release:renderapplication.obj
 0001:0001b0c0       ??4?$Ptr@VCoreServer@Core@@@@QAEXPAVCoreServer@Core@@@Z 0041c0c0 f i render_win32.release:renderapplication.obj
 0001:0001b120       ??C?$Ptr@VCoreServer@Core@@@@QBEPAVCoreServer@Core@@XZ 0041c120 f i render_win32.release:renderapplication.obj
 0001:0001b160       ??0?$Ptr@VJobSystem@Jobs@@@@QAE@XZ 0041c160 f i render_win32.release:renderapplication.obj
 0001:0001b180       ??1?$Ptr@VJobSystem@Jobs@@@@QAE@XZ 0041c180 f i render_win32.release:renderapplication.obj
 0001:0001b1b0       ??4?$Ptr@VJobSystem@Jobs@@@@QAEXPAVJobSystem@Jobs@@@Z 0041c1b0 f i render_win32.release:renderapplication.obj
 0001:0001b210       ??C?$Ptr@VJobSystem@Jobs@@@@QBEPAVJobSystem@Jobs@@XZ 0041c210 f i render_win32.release:renderapplication.obj
 0001:0001b250       ??0?$Ptr@VGameContentServer@IO@@@@QAE@XZ 0041c250 f i render_win32.release:renderapplication.obj
 0001:0001b270       ??1?$Ptr@VGameContentServer@IO@@@@QAE@XZ 0041c270 f i render_win32.release:renderapplication.obj
 0001:0001b2a0       ??4?$Ptr@VGameContentServer@IO@@@@QAEXPAVGameContentServer@IO@@@Z 0041c2a0 f i render_win32.release:renderapplication.obj
 0001:0001b300       ??C?$Ptr@VGameContentServer@IO@@@@QBEPAVGameContentServer@IO@@XZ 0041c300 f i render_win32.release:renderapplication.obj
 0001:0001b340       ??0?$Ptr@VIoInterface@IO@@@@QAE@XZ 0041c340 f i render_win32.release:renderapplication.obj
 0001:0001b360       ??1?$Ptr@VIoInterface@IO@@@@QAE@XZ 0041c360 f i render_win32.release:renderapplication.obj
 0001:0001b390       ??4?$Ptr@VIoInterface@IO@@@@QAEXPAVIoInterface@IO@@@Z 0041c390 f i render_win32.release:renderapplication.obj
 0001:0001b3f0       ??C?$Ptr@VIoInterface@IO@@@@QBEPAVIoInterface@IO@@XZ 0041c3f0 f i render_win32.release:renderapplication.obj
 0001:0001b430       ??0?$Ptr@VGraphicsInterface@Graphics@@@@QAE@XZ 0041c430 f i render_win32.release:renderapplication.obj
 0001:0001b450       ??1?$Ptr@VGraphicsInterface@Graphics@@@@QAE@XZ 0041c450 f i render_win32.release:renderapplication.obj
 0001:0001b480       ??4?$Ptr@VGraphicsInterface@Graphics@@@@QAEXPAVGraphicsInterface@Graphics@@@Z 0041c480 f i render_win32.release:renderapplication.obj
 0001:0001b4e0       ??C?$Ptr@VGraphicsInterface@Graphics@@@@QBEPAVGraphicsInterface@Graphics@@XZ 0041c4e0 f i render_win32.release:renderapplication.obj
 0001:0001b520       ??0?$Ptr@VDisplay@Graphics@@@@QAE@XZ 0041c520 f i render_win32.release:renderapplication.obj
 0001:0001b540       ??1?$Ptr@VDisplay@Graphics@@@@QAE@XZ 0041c540 f i render_win32.release:renderapplication.obj
 0001:0001b570       ??4?$Ptr@VDisplay@Graphics@@@@QAEXPAVDisplay@Graphics@@@Z 0041c570 f i render_win32.release:renderapplication.obj
 0001:0001b5d0       ??0?$Ptr@VInputServer@Input@@@@QAE@XZ 0041c5d0 f i render_win32.release:renderapplication.obj
 0001:0001b5f0       ??1?$Ptr@VInputServer@Input@@@@QAE@XZ 0041c5f0 f i render_win32.release:renderapplication.obj
 0001:0001b620       ??4?$Ptr@VInputServer@Input@@@@QAEXPAVInputServer@Input@@@Z 0041c620 f i render_win32.release:renderapplication.obj
 0001:0001b680       ??C?$Ptr@VInputServer@Input@@@@QBEPAVInputServer@Input@@XZ 0041c680 f i render_win32.release:renderapplication.obj
 0001:0001b6c0       ??0?$Ptr@VDebugInterface@Debug@@@@QAE@XZ 0041c6c0 f i render_win32.release:renderapplication.obj
 0001:0001b6e0       ??1?$Ptr@VDebugInterface@Debug@@@@QAE@XZ 0041c6e0 f i render_win32.release:renderapplication.obj
 0001:0001b710       ??4?$Ptr@VDebugInterface@Debug@@@@QAEXPAVDebugInterface@Debug@@@Z 0041c710 f i render_win32.release:renderapplication.obj
 0001:0001b770       ??C?$Ptr@VDebugInterface@Debug@@@@QBEPAVDebugInterface@Debug@@XZ 0041c770 f i render_win32.release:renderapplication.obj
 0001:0001b7b0       ??0?$Ptr@VHttpInterface@Http@@@@QAE@XZ 0041c7b0 f i render_win32.release:renderapplication.obj
 0001:0001b7d0       ??1?$Ptr@VHttpInterface@Http@@@@QAE@XZ 0041c7d0 f i render_win32.release:renderapplication.obj
 0001:0001b800       ??4?$Ptr@VHttpInterface@Http@@@@QAEXPAVHttpInterface@Http@@@Z 0041c800 f i render_win32.release:renderapplication.obj
 0001:0001b860       ??C?$Ptr@VHttpInterface@Http@@@@QBEPAVHttpInterface@Http@@XZ 0041c860 f i render_win32.release:renderapplication.obj
 0001:0001b8a0       ??0?$Ptr@VLogFileConsoleHandler@IO@@@@QAE@PAVLogFileConsoleHandler@IO@@@Z 0041c8a0 f i render_win32.release:renderapplication.obj
 0001:0001b8e0       ??1?$Ptr@VLogFileConsoleHandler@IO@@@@QAE@XZ 0041c8e0 f i render_win32.release:renderapplication.obj
 0001:0001b910       ??$upcast@VConsoleHandler@IO@@@?$Ptr@VLogFileConsoleHandler@IO@@@@QBEABV?$Ptr@VConsoleHandler@IO@@@@XZ 0041c910 f i render_win32.release:renderapplication.obj
 0001:0001b920       ??0?$Ptr@VHttpRequestHandler@Http@@@@QAE@PAVHttpRequestHandler@Http@@@Z 0041c920 f i render_win32.release:renderapplication.obj
 0001:0001b960       ??1?$Ptr@VHttpRequestHandler@Http@@@@QAE@XZ 0041c960 f i render_win32.release:renderapplication.obj
 0001:0001b990       ??0?$Ptr@VSimpleResourceMapper@Resources@@@@QAE@PAVSimpleResourceMapper@Resources@@@Z 0041c990 f i render_win32.release:renderapplication.obj
 0001:0001b9d0       ??1?$Ptr@VSimpleResourceMapper@Resources@@@@QAE@XZ 0041c9d0 f i render_win32.release:renderapplication.obj
 0001:0001ba00       ??C?$Ptr@VSimpleResourceMapper@Resources@@@@QBEPAVSimpleResourceMapper@Resources@@XZ 0041ca00 f i render_win32.release:renderapplication.obj
 0001:0001ba40       ??$upcast@VResourceMapper@Resources@@@?$Ptr@VSimpleResourceMapper@Resources@@@@QBEABV?$Ptr@VResourceMapper@Resources@@@@XZ 0041ca40 f i render_win32.release:renderapplication.obj
 0001:0001ba50       ?Destroy@?$Array@V?$Ptr@VResourceMapper@Resources@@@@@Util@@AAEXPAV?$Ptr@VResourceMapper@Resources@@@@@Z 0041ca50 f i render_win32.release:renderapplication.obj
 0001:0001ba80       ?Copy@?$Array@V?$Ptr@VResourceMapper@Resources@@@@@Util@@AAEXABV12@@Z 0041ca80 f i render_win32.release:renderapplication.obj
 0001:0001bbb0       ?Delete@?$Array@V?$Ptr@VResourceMapper@Resources@@@@@Util@@AAEXXZ 0041cbb0 f i render_win32.release:renderapplication.obj
 0001:0001bc20       ?Grow@?$Array@V?$Ptr@VResourceMapper@Resources@@@@@Util@@AAEXXZ 0041cc20 f i render_win32.release:renderapplication.obj
 0001:0001bca0       ??_G?$Ptr@VResourceMapper@Resources@@@@QAEPAXI@Z 0041cca0 f i render_win32.release:renderapplication.obj
 0001:0001bcd0       ?GrowTo@?$Array@V?$Ptr@VResourceMapper@Resources@@@@@Util@@AAEXH@Z 0041ccd0 f i render_win32.release:renderapplication.obj
 0001:0001bdf0       ??0?$Ptr@VResourceMapper@Resources@@@@QAE@XZ 0041cdf0 f i render_win32.release:renderapplication.obj
 0001:0001be10       ?SetStackSize@Win360Thread@Win360@@QAEXH@Z 0041ce10 f i render_win32.release:graphicsinterface.obj
 0001:0001be30       ?SetName@Win360Thread@Win360@@QAEXABVString@Util@@@Z 0041ce30 f i render_win32.release:graphicsinterface.obj
 0001:0001beb0       ?SetCoreId@Win360Thread@Win360@@QAEXK@Z 0041ceb0 f i render_win32.release:graphicsinterface.obj
 0001:0001bed0       ??0Event@Threading@@QAE@_N@Z 0041ced0 f i render_win32.release:graphicsinterface.obj
 0001:0001bf20       ?SetHandlerThread@AsyncPort@Messaging@@QAEXABV?$Ptr@VHandlerThreadBase@Messaging@@@@@Z 0041cf20 f i render_win32.release:graphicsinterface.obj
 0001:0001bf70       ?IsOpen@AsyncPort@Messaging@@QBE_NXZ 0041cf70 f i render_win32.release:graphicsinterface.obj
 0001:0001bf90       ??2GraphicsInterface@Graphics@@SAPAXI@Z 0041cf90 f i render_win32.release:graphicsinterface.obj
 0001:0001bfa0       ??3GraphicsInterface@Graphics@@SAXPAX@Z 0041cfa0 f i render_win32.release:graphicsinterface.obj
 0001:0001bfc0       ?GetRtti@GraphicsInterface@Graphics@@UBEPAVRtti@Core@@XZ 0041cfc0 f   render_win32.release:graphicsinterface.obj
 0001:0001bfd0       ?FactoryCreator@GraphicsInterface@Graphics@@SAPAVRefCounted@Core@@XZ 0041cfd0 f   render_win32.release:graphicsinterface.obj
 0001:0001bfe0       ?Create@GraphicsInterface@Graphics@@SAPAV12@XZ 0041cfe0 f   render_win32.release:graphicsinterface.obj
 0001:0001c020       ?RegisterWithFactory@GraphicsInterface@Graphics@@SA_NXZ 0041d020 f   render_win32.release:graphicsinterface.obj
 0001:0001c120       ??0GraphicsInterface@Graphics@@QAE@XZ 0041d120 f   render_win32.release:graphicsinterface.obj
 0001:0001c1d0       ??_GGraphicsInterface@Graphics@@UAEPAXI@Z 0041d1d0 f i render_win32.release:graphicsinterface.obj
 0001:0001c1d0       ??_EGraphicsInterface@Graphics@@UAEPAXI@Z 0041d1d0 f i  CIL library: CIL module
 0001:0001c200       ??1Event@Threading@@QAE@XZ 0041d200 f i render_win32.release:graphicsinterface.obj
 0001:0001c220       ??1GraphicsInterface@Graphics@@UAE@XZ 0041d220 f   render_win32.release:graphicsinterface.obj
 0001:0001c2b0       ?Open@GraphicsInterface@Graphics@@UAEXXZ 0041d2b0 f   render_win32.release:graphicsinterface.obj
 0001:0001c420       ?Close@GraphicsInterface@Graphics@@UAEXXZ 0041d420 f   render_win32.release:graphicsinterface.obj
 0001:0001c460       ?EnterLockStepMode@GraphicsInterface@Graphics@@QAEXXZ 0041d460 f   render_win32.release:graphicsinterface.obj
 0001:0001c4a0       ?LeaveLockStepMode@GraphicsInterface@Graphics@@QAEXXZ 0041d4a0 f   render_win32.release:graphicsinterface.obj
 0001:0001c4e0       ?GameThreadWaitForFrameSync@GraphicsInterface@Graphics@@QAEXXZ 0041d4e0 f   render_win32.release:graphicsinterface.obj
 0001:0001c520       ?WaitForPendingResources@GraphicsInterface@Graphics@@QAEXXZ 0041d520 f   render_win32.release:graphicsinterface.obj
 0001:0001c540       ?SendBatched@GraphicsInterface@Graphics@@QAEXABV?$Ptr@VMessage@Messaging@@@@@Z 0041d540 f   render_win32.release:graphicsinterface.obj
 0001:0001c570       ?FlushBatchedMessages@GraphicsInterface@Graphics@@QAEXXZ 0041d570 f   render_win32.release:graphicsinterface.obj
 0001:0001c5d0       ?Size@?$Array@V?$Ptr@VMessage@Messaging@@@@@Util@@QBEHXZ 0041d5d0 f i render_win32.release:graphicsinterface.obj
 0001:0001c5f0       ??4?$Ptr@VHandlerThreadBase@Messaging@@@@QAEXABV0@@Z 0041d5f0 f i render_win32.release:graphicsinterface.obj
 0001:0001c650       ??0?$Ptr@VFrameSyncHandlerThread@FrameSync@@@@QAE@XZ 0041d650 f i render_win32.release:graphicsinterface.obj
 0001:0001c670       ??1?$Ptr@VFrameSyncHandlerThread@FrameSync@@@@QAE@XZ 0041d670 f i render_win32.release:graphicsinterface.obj
 0001:0001c6a0       ??4?$Ptr@VFrameSyncHandlerThread@FrameSync@@@@QAEXPAVFrameSyncHandlerThread@FrameSync@@@Z 0041d6a0 f i render_win32.release:graphicsinterface.obj
 0001:0001c700       ??C?$Ptr@VFrameSyncHandlerThread@FrameSync@@@@QBEPAVFrameSyncHandlerThread@FrameSync@@XZ 0041d700 f i render_win32.release:graphicsinterface.obj
 0001:0001c740       ??0?$Ptr@VGraphicsHandler@Graphics@@@@QAE@XZ 0041d740 f i render_win32.release:graphicsinterface.obj
 0001:0001c760       ??1?$Ptr@VGraphicsHandler@Graphics@@@@QAE@XZ 0041d760 f i render_win32.release:graphicsinterface.obj
 0001:0001c790       ??4?$Ptr@VGraphicsHandler@Graphics@@@@QAEXPAVGraphicsHandler@Graphics@@@Z 0041d790 f i render_win32.release:graphicsinterface.obj
 0001:0001c7f0       ??C?$Ptr@VGraphicsHandler@Graphics@@@@QBEPAVGraphicsHandler@Graphics@@XZ 0041d7f0 f i render_win32.release:graphicsinterface.obj
 0001:0001c830       ??0?$Ptr@VBatchMessage@Messaging@@@@QAE@XZ 0041d830 f i render_win32.release:graphicsinterface.obj
 0001:0001c850       ??1?$Ptr@VBatchMessage@Messaging@@@@QAE@XZ 0041d850 f i render_win32.release:graphicsinterface.obj
 0001:0001c880       ??4?$Ptr@VBatchMessage@Messaging@@@@QAEXPAVBatchMessage@Messaging@@@Z 0041d880 f i render_win32.release:graphicsinterface.obj
 0001:0001c8e0       ??C?$Ptr@VBatchMessage@Messaging@@@@QBEPAVBatchMessage@Messaging@@XZ 0041d8e0 f i render_win32.release:graphicsinterface.obj
 0001:0001c920       ??$cast@VHandler@Messaging@@@?$Ptr@VGraphicsHandler@Graphics@@@@QBEABV?$Ptr@VHandler@Messaging@@@@XZ 0041d920 f i render_win32.release:graphicsinterface.obj
 0001:0001c930       ??0?$Ptr@VHandler@Messaging@@@@QAE@PAVHandler@Messaging@@@Z 0041d930 f i render_win32.release:graphicsinterface.obj
 0001:0001c970       ??1?$Ptr@VHandler@Messaging@@@@QAE@XZ 0041d970 f i render_win32.release:graphicsinterface.obj
 0001:0001c9a0       ??$cast@VHandlerThreadBase@Messaging@@@?$Ptr@VFrameSyncHandlerThread@FrameSync@@@@QBEABV?$Ptr@VHandlerThreadBase@Messaging@@@@XZ 0041d9a0 f i render_win32.release:graphicsinterface.obj
 0001:0001c9b0       ??$cast@VMessage@Messaging@@@?$Ptr@VBatchMessage@Messaging@@@@QBEABV?$Ptr@VMessage@Messaging@@@@XZ 0041d9b0 f i render_win32.release:graphicsinterface.obj
 0001:0001c9c0       ??$Send@VMessage@Messaging@@@AsyncPort@Messaging@@QAEXABV?$Ptr@VMessage@Messaging@@@@@Z 0041d9c0 f i render_win32.release:graphicsinterface.obj
 0001:0001c9e0       ??2InputServer@Input@@SAPAXI@Z 0041d9e0 f i render_win32.release:inputserver.obj
 0001:0001c9f0       ??3InputServer@Input@@SAXPAX@Z 0041d9f0 f i render_win32.release:inputserver.obj
 0001:0001ca10       ?GetRtti@InputServer@Input@@UBEPAVRtti@Core@@XZ 0041da10 f   render_win32.release:inputserver.obj
 0001:0001ca20       ?FactoryCreator@InputServer@Input@@SAPAVRefCounted@Core@@XZ 0041da20 f   render_win32.release:inputserver.obj
 0001:0001ca30       ?Create@InputServer@Input@@SAPAV12@XZ 0041da30 f   render_win32.release:inputserver.obj
 0001:0001ca70       ?RegisterWithFactory@InputServer@Input@@SA_NXZ 0041da70 f   render_win32.release:inputserver.obj
 0001:0001cb70       ??0InputServer@Input@@QAE@XZ 0041db70 f   render_win32.release:inputserver.obj
 0001:0001cbc0       ??_GInputServer@Input@@UAEPAXI@Z 0041dbc0 f i render_win32.release:inputserver.obj
 0001:0001cbc0       ??_EInputServer@Input@@UAEPAXI@Z 0041dbc0 f i  CIL library: CIL module
 0001:0001cbf0       ??1InputServer@Input@@UAE@XZ 0041dbf0 f   render_win32.release:inputserver.obj
 0001:0001cc40       ??0float4@Math@@QAE@T__m128@@@Z 0041dc40 f i render_win32.release:debugtextrenderer.obj
 0001:0001cc70       ??4float4@Math@@QAEXABV01@@Z 0041dc70 f i render_win32.release:debugtextrenderer.obj
 0001:0001cc90       ?x@float4@Math@@QAEAAMXZ   0041dc90 f i render_win32.release:debugtextrenderer.obj
 0001:0001cca0       ?y@float4@Math@@QAEAAMXZ   0041dca0 f i render_win32.release:debugtextrenderer.obj
 0001:0001ccc0       ?w@float4@Math@@QAEAAMXZ   0041dcc0 f i render_win32.release:debugtextrenderer.obj
 0001:0001cce0       ?transform@matrix44@Math@@SA?AVfloat4@2@ABV32@ABV12@@Z 0041dce0 f i render_win32.release:debugtextrenderer.obj
 0001:0001ced0       ??2DebugTextRenderer@Debug@@SAPAXI@Z 0041ded0 f i render_win32.release:debugtextrenderer.obj
 0001:0001cee0       ??3DebugTextRenderer@Debug@@SAXPAX@Z 0041dee0 f i render_win32.release:debugtextrenderer.obj
 0001:0001cf00       ?SetThreadId@RenderDebugText@Debug@@QAEXABK@Z 0041df00 f i render_win32.release:debugtextrenderer.obj
 0001:0001cf40       ?SetTextElements@RenderDebugText@Debug@@QAEXABV?$Array@VTextElement@CoreGraphics@@@Util@@@Z 0041df40 f i render_win32.release:debugtextrenderer.obj
 0001:0001cf80       ?GetViewProjTransform@CameraSettings@Shared@@QBEABVmatrix44@Math@@XZ 0041df80 f i render_win32.release:debugtextrenderer.obj
 0001:0001cfb0       ?Instance@GraphicsServer@Graphics@@SAPAV12@XZ 0041dfb0 f i render_win32.release:debugtextrenderer.obj
 0001:0001cff0       ?GetViewProjTransform@CameraEntity@Graphics@@QBEABVmatrix44@Math@@XZ 0041dff0 f i render_win32.release:debugtextrenderer.obj
 0001:0001d030       ?GetRtti@DebugTextRenderer@Debug@@UBEPAVRtti@Core@@XZ 0041e030 f   render_win32.release:debugtextrenderer.obj
 0001:0001d040       ?FactoryCreator@DebugTextRenderer@Debug@@SAPAVRefCounted@Core@@XZ 0041e040 f   render_win32.release:debugtextrenderer.obj
 0001:0001d050       ?Create@DebugTextRenderer@Debug@@SAPAV12@XZ 0041e050 f   render_win32.release:debugtextrenderer.obj
 0001:0001d090       ?RegisterWithFactory@DebugTextRenderer@Debug@@SA_NXZ 0041e090 f   render_win32.release:debugtextrenderer.obj
 0001:0001d190       ??0DebugTextRenderer@Debug@@QAE@XZ 0041e190 f   render_win32.release:debugtextrenderer.obj
 0001:0001d200       ??_GDebugTextRenderer@Debug@@UAEPAXI@Z 0041e200 f i render_win32.release:debugtextrenderer.obj
 0001:0001d200       ??_EDebugTextRenderer@Debug@@UAEPAXI@Z 0041e200 f i  CIL library: CIL module
 0001:0001d230       ??1DebugTextRenderer@Debug@@UAE@XZ 0041e230 f   render_win32.release:debugtextrenderer.obj
 0001:0001d290       ?DrawTextA@DebugTextRenderer@Debug@@QAEXABVString@Util@@ABVfloat4@Math@@ABVfloat2@6@@Z 0041e290 f   render_win32.release:debugtextrenderer.obj
 0001:0001d2e0       ?DrawText3D@DebugTextRenderer@Debug@@QAEXABVString@Util@@ABVfloat4@Math@@ABVpoint@6@@Z 0041e2e0 f   render_win32.release:debugtextrenderer.obj
 0001:0001d660       ?OnFrame@DebugTextRenderer@Debug@@QAEXXZ 0041e660 f   render_win32.release:debugtextrenderer.obj
 0001:0001d740       ??0?$Array@VTextElement@CoreGraphics@@@Util@@QAE@XZ 0041e740 f i render_win32.release:debugtextrenderer.obj
 0001:0001d780       ??1?$Array@VTextElement@CoreGraphics@@@Util@@QAE@XZ 0041e780 f i render_win32.release:debugtextrenderer.obj
 0001:0001d7a0       ??4?$Array@VTextElement@CoreGraphics@@@Util@@QAEXABV01@@Z 0041e7a0 f i render_win32.release:debugtextrenderer.obj
 0001:0001d890       ?Append@?$Array@VTextElement@CoreGraphics@@@Util@@QAEXABVTextElement@CoreGraphics@@@Z 0041e890 f i render_win32.release:debugtextrenderer.obj
 0001:0001d910       ?Clear@?$Array@VTextElement@CoreGraphics@@@Util@@QAEXXZ 0041e910 f i render_win32.release:debugtextrenderer.obj
 0001:0001d960       ??0?$Ptr@VCameraEntity@Graphics@@@@QAE@ABV0@@Z 0041e960 f i render_win32.release:debugtextrenderer.obj
 0001:0001d9a0       ??1?$Ptr@VCameraEntity@Graphics@@@@QAE@XZ 0041e9a0 f i render_win32.release:debugtextrenderer.obj
 0001:0001d9d0       ??C?$Ptr@VView@Graphics@@@@QBEPAVView@Graphics@@XZ 0041e9d0 f i render_win32.release:debugtextrenderer.obj
 0001:0001da10       ??0?$Ptr@VRenderDebugText@Debug@@@@QAE@PAVRenderDebugText@Debug@@@Z 0041ea10 f i render_win32.release:debugtextrenderer.obj
 0001:0001da50       ??1?$Ptr@VRenderDebugText@Debug@@@@QAE@XZ 0041ea50 f i render_win32.release:debugtextrenderer.obj
 0001:0001da80       ??C?$Ptr@VRenderDebugText@Debug@@@@QBEPAVRenderDebugText@Debug@@XZ 0041ea80 f i render_win32.release:debugtextrenderer.obj
 0001:0001dac0       ??$cast@VMessage@Messaging@@@?$Ptr@VRenderDebugText@Debug@@@@QBEABV?$Ptr@VMessage@Messaging@@@@XZ 0041eac0 f i render_win32.release:debugtextrenderer.obj
 0001:0001dad0       ??4TextElement@CoreGraphics@@QAEAAV01@ABV01@@Z 0041ead0 f i render_win32.release:debugtextrenderer.obj
 0001:0001db80       ?Destroy@?$Array@VTextElement@CoreGraphics@@@Util@@AAEXPAVTextElement@CoreGraphics@@@Z 0041eb80 f i render_win32.release:debugtextrenderer.obj
 0001:0001dbb0       ?Copy@?$Array@VTextElement@CoreGraphics@@@Util@@AAEXABV12@@Z 0041ebb0 f i render_win32.release:debugtextrenderer.obj
 0001:0001dce0       ?Delete@?$Array@VTextElement@CoreGraphics@@@Util@@AAEXXZ 0041ece0 f i render_win32.release:debugtextrenderer.obj
 0001:0001dd50       ?Grow@?$Array@VTextElement@CoreGraphics@@@Util@@AAEXXZ 0041ed50 f i render_win32.release:debugtextrenderer.obj
 0001:0001ddd0       ??_GTextElement@CoreGraphics@@QAEPAXI@Z 0041edd0 f i render_win32.release:debugtextrenderer.obj
 0001:0001de00       ?GrowTo@?$Array@VTextElement@CoreGraphics@@@Util@@AAEXH@Z 0041ee00 f i render_win32.release:debugtextrenderer.obj
 0001:0001df20       ?XMVector4Transform@@YA?AT__m128@@T1@ABU_XMMATRIX@@@Z 0041ef20 f i render_win32.release:debugtextrenderer.obj
 0001:0001e0e0       ?x@float2@Math@@QAEAAMXZ   0041f0e0 f i render_win32.release:viewerapplication.obj
 0001:0001e0f0       ?y@float2@Math@@QAEAAMXZ   0041f0f0 f i render_win32.release:viewerapplication.obj
 0001:0001e110       ??0vector@Math@@QAE@MMM@Z  0041f110 f i render_win32.release:viewerapplication.obj
 0001:0001e170       ??0point@Math@@QAE@XZ      0041f170 f i render_win32.release:viewerapplication.obj
 0001:0001e200       ??0point@Math@@QAE@MMM@Z   0041f200 f i render_win32.release:viewerapplication.obj
 0001:0001e260       ??0point@Math@@QAE@T__m128@@@Z 0041f260 f i render_win32.release:viewerapplication.obj
 0001:0001e290       ??4point@Math@@QAEXABV01@@Z 0041f290 f i render_win32.release:viewerapplication.obj
 0001:0001e2b0       ??Hpoint@Math@@QBE?AV01@ABVvector@1@@Z 0041f2b0 f i render_win32.release:viewerapplication.obj
 0001:0001e310       ??Gpoint@Math@@QBE?AV01@ABVvector@1@@Z 0041f310 f i render_win32.release:viewerapplication.obj
 0001:0001e370       ??0bbox@Math@@QAE@ABVpoint@1@ABVvector@1@@Z 0041f370 f i render_win32.release:viewerapplication.obj
 0001:0001e580       ??4bbox@Math@@QAEAAV01@ABV01@@Z 0041f580 f i render_win32.release:viewerapplication.obj
 0001:0001e5c0       ?GetDefaultMouse@InputServerBase@Base@@QBEABV?$Ptr@VMouse@Input@@@@XZ 0041f5c0 f i render_win32.release:viewerapplication.obj
 0001:0001e600       ?Instance@Win32InputServer@Win32@@SAPAV12@XZ 0041f600 f i render_win32.release:viewerapplication.obj
 0001:0001e640       ?GetMouseMovement@Win32InputServer@Win32@@IBEABVfloat2@Math@@XZ 0041f640 f i render_win32.release:viewerapplication.obj
 0001:0001e660       ?SetQuitRequested@RenderApplication@App@@IAEX_N@Z 0041f660 f i render_win32.release:viewerapplication.obj
 0001:0001e680       ?SetPanButton@MayaCameraUtil@RenderUtil@@QAEX_N@Z 0041f680 f i render_win32.release:viewerapplication.obj
 0001:0001e6a0       ?SetZoomButton@MayaCameraUtil@RenderUtil@@QAEX_N@Z 0041f6a0 f i render_win32.release:viewerapplication.obj
 0001:0001e6c0       ?SetZoomInButton@MayaCameraUtil@RenderUtil@@QAEX_N@Z 0041f6c0 f i render_win32.release:viewerapplication.obj
 0001:0001e6e0       ?SetZoomOutButton@MayaCameraUtil@RenderUtil@@QAEX_N@Z 0041f6e0 f i render_win32.release:viewerapplication.obj
 0001:0001e700       ?SetMouseMovement@MayaCameraUtil@RenderUtil@@QAEXABVfloat2@Math@@@Z 0041f700 f i render_win32.release:viewerapplication.obj
 0001:0001e730       ?SetZoomIn@MayaCameraUtil@RenderUtil@@QAEXM@Z 0041f730 f i render_win32.release:viewerapplication.obj
 0001:0001e750       ?SetZoomOut@MayaCameraUtil@RenderUtil@@QAEXM@Z 0041f750 f i render_win32.release:viewerapplication.obj
 0001:0001e770       ?SetPanning@MayaCameraUtil@RenderUtil@@QAEXABVfloat2@Math@@@Z 0041f770 f i render_win32.release:viewerapplication.obj
 0001:0001e7a0       ?SetQuadTreeSettings@VisibilityQuadtree@Visibility@@QAEXEABVbbox@Math@@@Z 0041f7a0 f i render_win32.release:viewerapplication.obj
 0001:0001e7f0       ?KeyPressed@KeyboardBase@Base@@QBE_NW4Code@Key@Input@@@Z 0041f7f0 f i render_win32.release:viewerapplication.obj
 0001:0001e810       ?ButtonPressed@MouseBase@Base@@QBE_NW4Code@MouseButton@Input@@@Z 0041f810 f i render_win32.release:viewerapplication.obj
 0001:0001e830       ?WheelForward@MouseBase@Base@@QBE_NXZ 0041f830 f i render_win32.release:viewerapplication.obj
 0001:0001e850       ?WheelBackward@MouseBase@Base@@QBE_NXZ 0041f850 f i render_win32.release:viewerapplication.obj
 0001:0001e870       ?GetMovement@Win32Mouse@Win32@@QBEABVfloat2@Math@@XZ 0041f870 f i render_win32.release:viewerapplication.obj
 0001:0001e8c0       ?IsConnected@GamePadBase@Base@@QBE_NXZ 0041f8c0 f i render_win32.release:viewerapplication.obj
 0001:0001e900       ?ButtonDown@GamePadBase@Base@@QBE_NW4Button@12@@Z 0041f900 f i render_win32.release:viewerapplication.obj
 0001:0001e950       ?GetAxisValue@GamePadBase@Base@@QBEMW4Axis@12@@Z 0041f950 f i render_win32.release:viewerapplication.obj
 0001:0001e9a0       ??0ViewerApplication@App@@QAE@XZ 0041f9a0 f   render_win32.release:viewerapplication.obj
 0001:0001ea30       ??_EViewerApplication@App@@UAEPAXI@Z 0041fa30 f i  CIL library: CIL module
 0001:0001ea30       ??_GViewerApplication@App@@UAEPAXI@Z 0041fa30 f i render_win32.release:viewerapplication.obj
 0001:0001ea60       ??1ViewerApplication@App@@UAE@XZ 0041fa60 f   render_win32.release:viewerapplication.obj
 0001:0001eb00       ?Open@ViewerApplication@App@@UAE_NXZ 0041fb00 f   render_win32.release:viewerapplication.obj
 0001:0001f160       ?Close@ViewerApplication@App@@UAEXXZ 00420160 f   render_win32.release:viewerapplication.obj
 0001:0001f250       ?OnProcessInput@ViewerApplication@App@@MAEXXZ 00420250 f   render_win32.release:viewerapplication.obj
 0001:0001fa50       ?OnUpdateFrame@ViewerApplication@App@@MAEXXZ 00420a50 f   render_win32.release:viewerapplication.obj
 0001:0001faa0       ??0?$Array@V?$Ptr@VVisibilitySystemBase@Visibility@@@@@Util@@QAE@XZ 00420aa0 f i render_win32.release:viewerapplication.obj
 0001:0001fae0       ??1?$Array@V?$Ptr@VVisibilitySystemBase@Visibility@@@@@Util@@QAE@XZ 00420ae0 f i render_win32.release:viewerapplication.obj
 0001:0001fb00       ?Append@?$Array@V?$Ptr@VVisibilitySystemBase@Visibility@@@@@Util@@QAEXABV?$Ptr@VVisibilitySystemBase@Visibility@@@@@Z 00420b00 f i render_win32.release:viewerapplication.obj
 0001:0001fb80       ??C?$Ptr@VMouse@Input@@@@QBEPAVMouse@Input@@XZ 00420b80 f i render_win32.release:viewerapplication.obj
 0001:0001fbc0       ??0?$Ptr@VStage@Graphics@@@@QAE@XZ 00420bc0 f i render_win32.release:viewerapplication.obj
 0001:0001fbe0       ??1?$Ptr@VStage@Graphics@@@@QAE@XZ 00420be0 f i render_win32.release:viewerapplication.obj
 0001:0001fc10       ??4?$Ptr@VStage@Graphics@@@@QAEXPAVStage@Graphics@@@Z 00420c10 f i render_win32.release:viewerapplication.obj
 0001:0001fc70       ??4?$Ptr@VStage@Graphics@@@@QAEXABV0@@Z 00420c70 f i render_win32.release:viewerapplication.obj
 0001:0001fcd0       ?isvalid@?$Ptr@VStage@Graphics@@@@QBE_NXZ 00420cd0 f i render_win32.release:viewerapplication.obj
 0001:0001fcf0       ??0?$Ptr@VCameraEntity@Graphics@@@@QAE@XZ 00420cf0 f i render_win32.release:viewerapplication.obj
 0001:0001fd10       ??4?$Ptr@VCameraEntity@Graphics@@@@QAEXPAVCameraEntity@Graphics@@@Z 00420d10 f i render_win32.release:viewerapplication.obj
 0001:0001fd70       ??0?$Ptr@VView@Graphics@@@@QAE@XZ 00420d70 f i render_win32.release:viewerapplication.obj
 0001:0001fd90       ??1?$Ptr@VView@Graphics@@@@QAE@XZ 00420d90 f i render_win32.release:viewerapplication.obj
 0001:0001fdc0       ??4?$Ptr@VView@Graphics@@@@QAEXPAVView@Graphics@@@Z 00420dc0 f i render_win32.release:viewerapplication.obj
 0001:0001fe20       ??4?$Ptr@VView@Graphics@@@@QAEXABV0@@Z 00420e20 f i render_win32.release:viewerapplication.obj
 0001:0001fe80       ??0?$Ptr@VGraphicsServer@Graphics@@@@QAE@XZ 00420e80 f i render_win32.release:viewerapplication.obj
 0001:0001fea0       ??1?$Ptr@VGraphicsServer@Graphics@@@@QAE@XZ 00420ea0 f i render_win32.release:viewerapplication.obj
 0001:0001fed0       ??4?$Ptr@VGraphicsServer@Graphics@@@@QAEXPAVGraphicsServer@Graphics@@@Z 00420ed0 f i render_win32.release:viewerapplication.obj
 0001:0001ff30       ??C?$Ptr@VGraphicsServer@Graphics@@@@QBEPAVGraphicsServer@Graphics@@XZ 00420f30 f i render_win32.release:viewerapplication.obj
 0001:0001ff70       ??0?$Ptr@VDebugShapeRenderer@Debug@@@@QAE@XZ 00420f70 f i render_win32.release:viewerapplication.obj
 0001:0001ff90       ??1?$Ptr@VDebugShapeRenderer@Debug@@@@QAE@XZ 00420f90 f i render_win32.release:viewerapplication.obj
 0001:0001ffc0       ??4?$Ptr@VDebugShapeRenderer@Debug@@@@QAEXPAVDebugShapeRenderer@Debug@@@Z 00420fc0 f i render_win32.release:viewerapplication.obj
 0001:00020020       ??C?$Ptr@VDebugShapeRenderer@Debug@@@@QBEPAVDebugShapeRenderer@Debug@@XZ 00421020 f i render_win32.release:viewerapplication.obj
 0001:00020060       ??0?$Ptr@VDebugTextRenderer@Debug@@@@QAE@XZ 00421060 f i render_win32.release:viewerapplication.obj
 0001:00020080       ??1?$Ptr@VDebugTextRenderer@Debug@@@@QAE@XZ 00421080 f i render_win32.release:viewerapplication.obj
 0001:000200b0       ??4?$Ptr@VDebugTextRenderer@Debug@@@@QAEXPAVDebugTextRenderer@Debug@@@Z 004210b0 f i render_win32.release:viewerapplication.obj
 0001:00020110       ??C?$Ptr@VDebugTextRenderer@Debug@@@@QBEPAVDebugTextRenderer@Debug@@XZ 00421110 f i render_win32.release:viewerapplication.obj
 0001:00020150       ??A?$FixedArray@UButtonState@MouseBase@Base@@@Util@@QBEAAUButtonState@MouseBase@Base@@H@Z 00421150 f i render_win32.release:viewerapplication.obj
 0001:000201a0       ??A?$FixedArray@UButtonState@GamePadBase@Base@@@Util@@QBEAAUButtonState@GamePadBase@Base@@H@Z 004211a0 f i render_win32.release:viewerapplication.obj
 0001:000201f0       ??A?$FixedArray@M@Util@@QBEAAMH@Z 004211f0 f i render_win32.release:viewerapplication.obj
 0001:00020240       ??0?$Ptr@VVisibilityQuadtree@Visibility@@@@QAE@PAVVisibilityQuadtree@Visibility@@@Z 00421240 f i render_win32.release:viewerapplication.obj
 0001:00020280       ??1?$Ptr@VVisibilityQuadtree@Visibility@@@@QAE@XZ 00421280 f i render_win32.release:viewerapplication.obj
 0001:000202b0       ??C?$Ptr@VVisibilityQuadtree@Visibility@@@@QBEPAVVisibilityQuadtree@Visibility@@XZ 004212b0 f i render_win32.release:viewerapplication.obj
 0001:000202f0       ??0?$Ptr@VVisibilityClusterSystem@Visibility@@@@QAE@PAVVisibilityClusterSystem@Visibility@@@Z 004212f0 f i render_win32.release:viewerapplication.obj
 0001:00020330       ??1?$Ptr@VVisibilityClusterSystem@Visibility@@@@QAE@XZ 00421330 f i render_win32.release:viewerapplication.obj
 0001:00020360       ??0?$Ptr@VVisibilityBoxSystem@Visibility@@@@QAE@PAVVisibilityBoxSystem@Visibility@@@Z 00421360 f i render_win32.release:viewerapplication.obj
 0001:000203a0       ??1?$Ptr@VVisibilityBoxSystem@Visibility@@@@QAE@XZ 004213a0 f i render_win32.release:viewerapplication.obj
 0001:000203d0       ??$cast@VVisibilitySystemBase@Visibility@@@?$Ptr@VVisibilityQuadtree@Visibility@@@@QBEABV?$Ptr@VVisibilitySystemBase@Visibility@@@@XZ 004213d0 f i render_win32.release:viewerapplication.obj
 0001:000203e0       ??$cast@VGraphicsEntity@Graphics@@@?$Ptr@VCameraEntity@Graphics@@@@QBEABV?$Ptr@VGraphicsEntity@Graphics@@@@XZ 004213e0 f i render_win32.release:viewerapplication.obj
 0001:000203f0       ??1?$Ptr@VGamePad@Input@@@@QAE@XZ 004213f0 f i render_win32.release:viewerapplication.obj
 0001:00020420       ??C?$Ptr@VGamePad@Input@@@@QBEPAVGamePad@Input@@XZ 00421420 f i render_win32.release:viewerapplication.obj
 0001:00020460       ?Delete@?$Array@V?$Ptr@VVisibilitySystemBase@Visibility@@@@@Util@@AAEXXZ 00421460 f i render_win32.release:viewerapplication.obj
 0001:000204d0       ?Grow@?$Array@V?$Ptr@VVisibilitySystemBase@Visibility@@@@@Util@@AAEXXZ 004214d0 f i render_win32.release:viewerapplication.obj
 0001:00020550       ??4?$Ptr@VVisibilitySystemBase@Visibility@@@@QAEXABV0@@Z 00421550 f i render_win32.release:viewerapplication.obj
 0001:000205b0       ??_E?$Ptr@VVisibilityContext@Visibility@@@@QAEPAXI@Z 004215b0 f i render_win32.release:viewerapplication.obj
 0001:00020650       ?GrowTo@?$Array@V?$Ptr@VVisibilitySystemBase@Visibility@@@@@Util@@AAEXH@Z 00421650 f i render_win32.release:viewerapplication.obj
 0001:00020770       ??0?$Ptr@VVisibilitySystemBase@Visibility@@@@QAE@XZ 00421770 f i render_win32.release:viewerapplication.obj
 0001:00020790       ??1?$Ptr@VVisibilityContext@Visibility@@@@QAE@XZ 00421790 f i render_win32.release:viewerapplication.obj
 0001:000207c0       ??_E?$Ptr@VInternalView@InternalGraphics@@@@QAEPAXI@Z 004217c0 f i render_win32.release:viewerapplication.obj
 0001:00020860       ??1?$Ptr@VInternalView@InternalGraphics@@@@QAE@XZ 00421860 f i render_win32.release:viewerapplication.obj
 0001:00020890       ?XMVectorSubtract@@YA?AT__m128@@T1@0@Z 00421890 f i render_win32.release:viewerapplication.obj
 0001:000208c0       ??4matrix44@Math@@QAEXABV01@@Z 004218c0 f i render_win32.release:globallightentity.obj
 0001:00020910       ?SetStageName@CreateGraphicsEntity@Graphics@@QAEXABVStringAtom@Util@@@Z 00421910 f i render_win32.release:globallightentity.obj
 0001:00020950       ?SetTransform@CreateGraphicsEntity@Graphics@@QAEXABVmatrix44@Math@@@Z 00421950 f i render_win32.release:globallightentity.obj
 0001:000209d0       ?SetVisible@CreateGraphicsEntity@Graphics@@QAEX_N@Z 004219d0 f i render_win32.release:globallightentity.obj
 0001:00020a10       ?SetLightColor@CreateGlobalLightEntity@Graphics@@QAEXABVfloat4@Math@@@Z 00421a10 f i render_win32.release:globallightentity.obj
 0001:00020a60       ?SetProjMapUvOffsetAndScale@CreateGlobalLightEntity@Graphics@@QAEXABVfloat4@Math@@@Z 00421a60 f i render_win32.release:globallightentity.obj
 0001:00020ab0       ?SetCastShadows@CreateGlobalLightEntity@Graphics@@QAEX_N@Z 00421ab0 f i render_win32.release:globallightentity.obj
 0001:00020af0       ?SetBackLightColor@CreateGlobalLightEntity@Graphics@@QAEXABVfloat4@Math@@@Z 00421af0 f i render_win32.release:globallightentity.obj
 0001:00020b40       ?SetAmbientLightColor@CreateGlobalLightEntity@Graphics@@QAEXABVfloat4@Math@@@Z 00421b40 f i render_win32.release:globallightentity.obj
 0001:00020b90       ?SetBackLightOffset@CreateGlobalLightEntity@Graphics@@QAEXM@Z 00421b90 f i render_win32.release:globallightentity.obj
 0001:00020bd0       ?SetColor@SetGlobalBackLightColor@Graphics@@QAEXABVfloat4@Math@@@Z 00421bd0 f i render_win32.release:globallightentity.obj
 0001:00020c20       ?SetColor@SetGlobalAmbientLightColor@Graphics@@QAEXABVfloat4@Math@@@Z 00421c20 f i render_win32.release:globallightentity.obj
 0001:00020c70       ?SetOffset@SetGlobalBackLightOffset@Graphics@@QAEXM@Z 00421c70 f i render_win32.release:globallightentity.obj
 0001:00020cb0       ?SetLightColor@SetGlobalLightParams@Graphics@@QAEXABVfloat4@Math@@@Z 00421cb0 f i render_win32.release:globallightentity.obj
 0001:00020d00       ?SetBackLightColor@SetGlobalLightParams@Graphics@@QAEXABVfloat4@Math@@@Z 00421d00 f i render_win32.release:globallightentity.obj
 0001:00020d50       ?SetAmbientLightColor@SetGlobalLightParams@Graphics@@QAEXABVfloat4@Math@@@Z 00421d50 f i render_win32.release:globallightentity.obj
 0001:00020da0       ?SetBackLightOffset@SetGlobalLightParams@Graphics@@QAEXM@Z 00421da0 f i render_win32.release:globallightentity.obj
 0001:00020de0       ?SetCastShadows@SetGlobalLightParams@Graphics@@QAEX_N@Z 00421de0 f i render_win32.release:globallightentity.obj
 0001:00020e20       ?SetLightType@AbstractLightEntity@Graphics@@IAEXW4Code@LightType@Lighting@@@Z 00421e20 f i render_win32.release:globallightentity.obj
 0001:00020e40       ??2GlobalLightEntity@Graphics@@SAPAXI@Z 00421e40 f i render_win32.release:globallightentity.obj
 0001:00020e50       ??3GlobalLightEntity@Graphics@@SAXPAX@Z 00421e50 f i render_win32.release:globallightentity.obj
 0001:00020e70       ?GetName@Stage@Graphics@@QBEABVStringAtom@Util@@XZ 00421e70 f i render_win32.release:globallightentity.obj
 0001:00020e90       ?GetRtti@GlobalLightEntity@Graphics@@UBEPAVRtti@Core@@XZ 00421e90 f   render_win32.release:globallightentity.obj
 0001:00020ea0       ?FactoryCreator@GlobalLightEntity@Graphics@@SAPAVRefCounted@Core@@XZ 00421ea0 f   render_win32.release:globallightentity.obj
 0001:00020eb0       ?Create@GlobalLightEntity@Graphics@@SAPAV12@XZ 00421eb0 f   render_win32.release:globallightentity.obj
 0001:00020ef0       ?RegisterWithFactory@GlobalLightEntity@Graphics@@SA_NXZ 00421ef0 f   render_win32.release:globallightentity.obj
 0001:00020ff0       ??0GlobalLightEntity@Graphics@@QAE@XZ 00421ff0 f   render_win32.release:globallightentity.obj
 0001:00021140       ??_EGlobalLightEntity@Graphics@@UAEPAXI@Z 00422140 f i  CIL library: CIL module
 0001:00021140       ??_GGlobalLightEntity@Graphics@@UAEPAXI@Z 00422140 f i render_win32.release:globallightentity.obj
 0001:00021170       ??1GlobalLightEntity@Graphics@@UAE@XZ 00422170 f i render_win32.release:globallightentity.obj
 0001:00021190       ?Setup@GlobalLightEntity@Graphics@@EAEXABV?$Ptr@VStage@Graphics@@@@@Z 00422190 f   render_win32.release:globallightentity.obj
 0001:00021430       ?SetBackLightColor@GlobalLightEntity@Graphics@@QAEXABVfloat4@Math@@@Z 00422430 f   render_win32.release:globallightentity.obj
 0001:000214d0       ?SetAmbientLightColor@GlobalLightEntity@Graphics@@QAEXABVfloat4@Math@@@Z 004224d0 f   render_win32.release:globallightentity.obj
 0001:00021570       ?SetBackLightOffset@GlobalLightEntity@Graphics@@QAEXM@Z 00422570 f   render_win32.release:globallightentity.obj
 0001:00021600       ?SetAllParams@GlobalLightEntity@Graphics@@QAEXABVfloat4@Math@@00M_N@Z 00422600 f   render_win32.release:globallightentity.obj
 0001:000217d0       ??0?$Ptr@VCreateGlobalLightEntity@Graphics@@@@QAE@PAVCreateGlobalLightEntity@Graphics@@@Z 004227d0 f i render_win32.release:globallightentity.obj
 0001:00021810       ??1?$Ptr@VCreateGlobalLightEntity@Graphics@@@@QAE@XZ 00422810 f i render_win32.release:globallightentity.obj
 0001:00021840       ??C?$Ptr@VCreateGlobalLightEntity@Graphics@@@@QBEPAVCreateGlobalLightEntity@Graphics@@XZ 00422840 f i render_win32.release:globallightentity.obj
 0001:00021880       ??$cast@VCreateGraphicsEntity@Graphics@@@?$Ptr@VCreateGlobalLightEntity@Graphics@@@@QBEABV?$Ptr@VCreateGraphicsEntity@Graphics@@@@XZ 00422880 f i render_win32.release:globallightentity.obj
 0001:00021890       ??0?$Ptr@VSetGlobalBackLightColor@Graphics@@@@QAE@PAVSetGlobalBackLightColor@Graphics@@@Z 00422890 f i render_win32.release:globallightentity.obj
 0001:000218d0       ??1?$Ptr@VSetGlobalBackLightColor@Graphics@@@@QAE@XZ 004228d0 f i render_win32.release:globallightentity.obj
 0001:00021900       ??C?$Ptr@VSetGlobalBackLightColor@Graphics@@@@QBEPAVSetGlobalBackLightColor@Graphics@@XZ 00422900 f i render_win32.release:globallightentity.obj
 0001:00021940       ??$cast@VGraphicsEntityMessage@Graphics@@@?$Ptr@VSetGlobalBackLightColor@Graphics@@@@QBEABV?$Ptr@VGraphicsEntityMessage@Graphics@@@@XZ 00422940 f i render_win32.release:globallightentity.obj
 0001:00021950       ??0?$Ptr@VSetGlobalAmbientLightColor@Graphics@@@@QAE@PAVSetGlobalAmbientLightColor@Graphics@@@Z 00422950 f i render_win32.release:globallightentity.obj
 0001:00021990       ??1?$Ptr@VSetGlobalAmbientLightColor@Graphics@@@@QAE@XZ 00422990 f i render_win32.release:globallightentity.obj
 0001:000219c0       ??C?$Ptr@VSetGlobalAmbientLightColor@Graphics@@@@QBEPAVSetGlobalAmbientLightColor@Graphics@@XZ 004229c0 f i render_win32.release:globallightentity.obj
 0001:00021a00       ??$cast@VGraphicsEntityMessage@Graphics@@@?$Ptr@VSetGlobalAmbientLightColor@Graphics@@@@QBEABV?$Ptr@VGraphicsEntityMessage@Graphics@@@@XZ 00422a00 f i render_win32.release:globallightentity.obj
 0001:00021a10       ??0?$Ptr@VSetGlobalBackLightOffset@Graphics@@@@QAE@PAVSetGlobalBackLightOffset@Graphics@@@Z 00422a10 f i render_win32.release:globallightentity.obj
 0001:00021a50       ??1?$Ptr@VSetGlobalBackLightOffset@Graphics@@@@QAE@XZ 00422a50 f i render_win32.release:globallightentity.obj
 0001:00021a80       ??C?$Ptr@VSetGlobalBackLightOffset@Graphics@@@@QBEPAVSetGlobalBackLightOffset@Graphics@@XZ 00422a80 f i render_win32.release:globallightentity.obj
 0001:00021ac0       ??$cast@VGraphicsEntityMessage@Graphics@@@?$Ptr@VSetGlobalBackLightOffset@Graphics@@@@QBEABV?$Ptr@VGraphicsEntityMessage@Graphics@@@@XZ 00422ac0 f i render_win32.release:globallightentity.obj
 0001:00021ad0       ??0?$Ptr@VSetGlobalLightParams@Graphics@@@@QAE@PAVSetGlobalLightParams@Graphics@@@Z 00422ad0 f i render_win32.release:globallightentity.obj
 0001:00021b10       ??1?$Ptr@VSetGlobalLightParams@Graphics@@@@QAE@XZ 00422b10 f i render_win32.release:globallightentity.obj
 0001:00021b40       ??C?$Ptr@VSetGlobalLightParams@Graphics@@@@QBEPAVSetGlobalLightParams@Graphics@@XZ 00422b40 f i render_win32.release:globallightentity.obj
 0001:00021b80       ??$cast@VGraphicsEntityMessage@Graphics@@@?$Ptr@VSetGlobalLightParams@Graphics@@@@QBEABV?$Ptr@VGraphicsEntityMessage@Graphics@@@@XZ 00422b80 f i render_win32.release:globallightentity.obj
 0001:00021b90       ??4_XMMATRIX@@QAEAAU0@ABU0@@Z 00422b90 f i render_win32.release:globallightentity.obj
 0001:00021bf0       ?identity@matrix44@Math@@SA?AV12@XZ 00422bf0 f i render_win32.release:graphicsentity.obj
 0001:00021ca0       ??0bbox@Math@@QAE@XZ       00422ca0 f i render_win32.release:graphicsentity.obj
 0001:00021db0       ??0GraphicsEntityShared@Shared@@QAE@XZ 00422db0 f i render_win32.release:graphicsentity.obj
 0001:00021e10       ?IsValid@ObjectRef@Threading@@QBE_NXZ 00422e10 f i render_win32.release:graphicsentity.obj
 0001:00021e30       ?SetObjectRef@CreateGraphicsEntity@Graphics@@QAEXABV?$Ptr@VObjectRef@Threading@@@@@Z 00422e30 f i render_win32.release:graphicsentity.obj
 0001:00021e70       ?SetSharedData@CreateGraphicsEntity@Graphics@@QAEXABV?$Ptr@VFrameSyncSharedData@FrameSync@@@@@Z 00422e70 f i render_win32.release:graphicsentity.obj
 0001:00021eb0       ?SetObjectRef@GraphicsEntityMessage@Graphics@@QAEXABV?$Ptr@VObjectRef@Threading@@@@@Z 00422eb0 f i render_win32.release:graphicsentity.obj
 0001:00021ef0       ?SetTransform@UpdateTransform@Graphics@@QAEXABVmatrix44@Math@@@Z 00422ef0 f i render_win32.release:graphicsentity.obj
 0001:00021f70       ?SetVisible@SetVisibility@Graphics@@QAEX_N@Z 00422f70 f i render_win32.release:graphicsentity.obj
 0001:00021fb0       ??2GraphicsEntity@Graphics@@SAPAXI@Z 00422fb0 f i render_win32.release:graphicsentity.obj
 0001:00021fc0       ??3GraphicsEntity@Graphics@@SAXPAX@Z 00422fc0 f i render_win32.release:graphicsentity.obj
 0001:00021fe0       ?IsObjectRefValid@GraphicsEntity@Graphics@@QBE_NXZ 00422fe0 f i render_win32.release:graphicsentity.obj
 0001:00022010       ?GetRtti@GraphicsEntity@Graphics@@UBEPAVRtti@Core@@XZ 00423010 f   render_win32.release:graphicsentity.obj
 0001:00022020       ?FactoryCreator@GraphicsEntity@Graphics@@SAPAVRefCounted@Core@@XZ 00423020 f   render_win32.release:graphicsentity.obj
 0001:00022030       ?Create@GraphicsEntity@Graphics@@SAPAV12@XZ 00423030 f   render_win32.release:graphicsentity.obj
 0001:00022070       ?RegisterWithFactory@GraphicsEntity@Graphics@@SA_NXZ 00423070 f   render_win32.release:graphicsentity.obj
 0001:00022170       ??0GraphicsEntity@Graphics@@QAE@XZ 00423170 f   render_win32.release:graphicsentity.obj
 0001:000222c0       ??_EGraphicsEntity@Graphics@@UAEPAXI@Z 004232c0 f i  CIL library: CIL module
 0001:000222c0       ??_GGraphicsEntity@Graphics@@UAEPAXI@Z 004232c0 f i render_win32.release:graphicsentity.obj
 0001:000222f0       ??1GraphicsEntity@Graphics@@UAE@XZ 004232f0 f   render_win32.release:graphicsentity.obj
 0001:00022350       ?IsValid@GraphicsEntity@Graphics@@QBE_NXZ 00423350 f   render_win32.release:graphicsentity.obj
 0001:00022370       ?GetStage@GraphicsEntity@Graphics@@QBEABV?$Ptr@VStage@Graphics@@@@XZ 00423370 f   render_win32.release:graphicsentity.obj
 0001:00022390       ?Setup@GraphicsEntity@Graphics@@MAEXABV?$Ptr@VStage@Graphics@@@@@Z 00423390 f   render_win32.release:graphicsentity.obj
 0001:00022440       ?Discard@GraphicsEntity@Graphics@@MAEXXZ 00423440 f   render_win32.release:graphicsentity.obj
 0001:00022530       ?OnSetupSharedData@GraphicsEntity@Graphics@@MAEXXZ 00423530 f   render_win32.release:graphicsentity.obj
 0001:000225a0       ?OnDiscardSharedData@GraphicsEntity@Graphics@@MAEXXZ 004235a0 f   render_win32.release:graphicsentity.obj
 0001:00022600       ?SendMsg@GraphicsEntity@Graphics@@QAEXABV?$Ptr@VGraphicsEntityMessage@Graphics@@@@@Z 00423600 f   render_win32.release:graphicsentity.obj
 0001:000226b0       ?SendCreateMsg@GraphicsEntity@Graphics@@IAEXABV?$Ptr@VCreateGraphicsEntity@Graphics@@@@@Z 004236b0 f   render_win32.release:graphicsentity.obj
 0001:000227b0       ?SetTransform@GraphicsEntity@Graphics@@QAEXABVmatrix44@Math@@@Z 004237b0 f   render_win32.release:graphicsentity.obj
 0001:00022820       ?OnTransformChanged@GraphicsEntity@Graphics@@MAEXXZ 00423820 f   render_win32.release:graphicsentity.obj
 0001:00022880       ?SetVisible@GraphicsEntity@Graphics@@QAEX_N@Z 00423880 f   render_win32.release:graphicsentity.obj
 0001:00022910       ??0?$Ptr@VFrameSyncSharedData@FrameSync@@@@QAE@XZ 00423910 f i render_win32.release:graphicsentity.obj
 0001:00022930       ??1?$Ptr@VFrameSyncSharedData@FrameSync@@@@QAE@XZ 00423930 f i render_win32.release:graphicsentity.obj
 0001:00022960       ??4?$Ptr@VFrameSyncSharedData@FrameSync@@@@QAEXPAVFrameSyncSharedData@FrameSync@@@Z 00423960 f i render_win32.release:graphicsentity.obj
 0001:000229c0       ??4?$Ptr@VFrameSyncSharedData@FrameSync@@@@QAEXABV0@@Z 004239c0 f i render_win32.release:graphicsentity.obj
 0001:00022a20       ??C?$Ptr@VFrameSyncSharedData@FrameSync@@@@QBEPAVFrameSyncSharedData@FrameSync@@XZ 00423a20 f i render_win32.release:graphicsentity.obj
 0001:00022a60       ?isvalid@?$Ptr@VFrameSyncSharedData@FrameSync@@@@QBE_NXZ 00423a60 f i render_win32.release:graphicsentity.obj
 0001:00022a80       ??0?$Ptr@VObjectRef@Threading@@@@QAE@XZ 00423a80 f i render_win32.release:graphicsentity.obj
 0001:00022aa0       ??1?$Ptr@VObjectRef@Threading@@@@QAE@XZ 00423aa0 f i render_win32.release:graphicsentity.obj
 0001:00022ad0       ??4?$Ptr@VObjectRef@Threading@@@@QAEXPAVObjectRef@Threading@@@Z 00423ad0 f i render_win32.release:graphicsentity.obj
 0001:00022b30       ??4?$Ptr@VObjectRef@Threading@@@@QAEXABV0@@Z 00423b30 f i render_win32.release:graphicsentity.obj
 0001:00022b90       ??C?$Ptr@VObjectRef@Threading@@@@QBEPAVObjectRef@Threading@@XZ 00423b90 f i render_win32.release:graphicsentity.obj
 0001:00022bd0       ?isvalid@?$Ptr@VObjectRef@Threading@@@@QBE_NXZ 00423bd0 f i render_win32.release:graphicsentity.obj
 0001:00022bf0       ??0?$Ptr@VDiscardGraphicsEntity@Graphics@@@@QAE@PAVDiscardGraphicsEntity@Graphics@@@Z 00423bf0 f i render_win32.release:graphicsentity.obj
 0001:00022c30       ??1?$Ptr@VDiscardGraphicsEntity@Graphics@@@@QAE@XZ 00423c30 f i render_win32.release:graphicsentity.obj
 0001:00022c60       ??C?$Ptr@VDiscardGraphicsEntity@Graphics@@@@QBEPAVDiscardGraphicsEntity@Graphics@@XZ 00423c60 f i render_win32.release:graphicsentity.obj
 0001:00022ca0       ??$cast@VMessage@Messaging@@@?$Ptr@VDiscardGraphicsEntity@Graphics@@@@QBEABV?$Ptr@VMessage@Messaging@@@@XZ 00423ca0 f i render_win32.release:graphicsentity.obj
 0001:00022cb0       ??$OwnerSetup@VGraphicsEntityShared@Shared@@@FrameSyncSharedData@FrameSync@@QAEXPAVGraphicsEntityShared@Shared@@@Z 00423cb0 f i render_win32.release:graphicsentity.obj
 0001:00022d60       ??$OwnerDiscard@VGraphicsEntityShared@Shared@@@FrameSyncSharedData@FrameSync@@QAEXPAVGraphicsEntityShared@Shared@@@Z 00423d60 f i render_win32.release:graphicsentity.obj
 0001:00022dc0       ??C?$Ptr@VGraphicsEntityMessage@Graphics@@@@QBEPAVGraphicsEntityMessage@Graphics@@XZ 00423dc0 f i render_win32.release:graphicsentity.obj
 0001:00022e00       ??$cast@VMessage@Messaging@@@?$Ptr@VGraphicsEntityMessage@Graphics@@@@QBEABV?$Ptr@VMessage@Messaging@@@@XZ 00423e00 f i render_win32.release:graphicsentity.obj
 0001:00022e10       ??C?$Ptr@VCreateGraphicsEntity@Graphics@@@@QBEPAVCreateGraphicsEntity@Graphics@@XZ 00423e10 f i render_win32.release:graphicsentity.obj
 0001:00022e50       ??$cast@VMessage@Messaging@@@?$Ptr@VCreateGraphicsEntity@Graphics@@@@QBEABV?$Ptr@VMessage@Messaging@@@@XZ 00423e50 f i render_win32.release:graphicsentity.obj
 0001:00022e60       ??0?$Ptr@VUpdateTransform@Graphics@@@@QAE@PAVUpdateTransform@Graphics@@@Z 00423e60 f i render_win32.release:graphicsentity.obj
 0001:00022ea0       ??1?$Ptr@VUpdateTransform@Graphics@@@@QAE@XZ 00423ea0 f i render_win32.release:graphicsentity.obj
 0001:00022ed0       ??C?$Ptr@VUpdateTransform@Graphics@@@@QBEPAVUpdateTransform@Graphics@@XZ 00423ed0 f i render_win32.release:graphicsentity.obj
 0001:00022f10       ??$cast@VGraphicsEntityMessage@Graphics@@@?$Ptr@VUpdateTransform@Graphics@@@@QBEABV?$Ptr@VGraphicsEntityMessage@Graphics@@@@XZ 00423f10 f i render_win32.release:graphicsentity.obj
 0001:00022f20       ??0?$Ptr@VSetVisibility@Graphics@@@@QAE@PAVSetVisibility@Graphics@@@Z 00423f20 f i render_win32.release:graphicsentity.obj
 0001:00022f60       ??1?$Ptr@VSetVisibility@Graphics@@@@QAE@XZ 00423f60 f i render_win32.release:graphicsentity.obj
 0001:00022f90       ??C?$Ptr@VSetVisibility@Graphics@@@@QBEPAVSetVisibility@Graphics@@XZ 00423f90 f i render_win32.release:graphicsentity.obj
 0001:00022fd0       ??$cast@VGraphicsEntityMessage@Graphics@@@?$Ptr@VSetVisibility@Graphics@@@@QBEABV?$Ptr@VGraphicsEntityMessage@Graphics@@@@XZ 00423fd0 f i render_win32.release:graphicsentity.obj
 0001:00022fe0       ??$CreateDataObjects@VGraphicsEntityShared@Shared@@@FrameSyncSharedData@FrameSync@@AAEXPAVGraphicsEntityShared@Shared@@@Z 00423fe0 f i render_win32.release:graphicsentity.obj
 0001:000230d0       ??$DestroyDataObjects@VGraphicsEntityShared@Shared@@@FrameSyncSharedData@FrameSync@@AAEXPAVGraphicsEntityShared@Shared@@@Z 004240d0 f i render_win32.release:graphicsentity.obj
 0001:00023190       ?XMMatrixIdentity@@YA?AU_XMMATRIX@@XZ 00424190 f i render_win32.release:graphicsentity.obj
 0001:00023220       ?SetColor@SetLightColor@Graphics@@QAEXABVfloat4@Math@@@Z 00424220 f i render_win32.release:abstractlightentity.obj
 0001:00023270       ?SetCastShadows@SetLightCastShadows@Graphics@@QAEX_N@Z 00424270 f i render_win32.release:abstractlightentity.obj
 0001:000232b0       ?SetType@GraphicsEntity@Graphics@@IAEXW4Code@InternalGraphicsEntityType@InternalGraphics@@@Z 004242b0 f i render_win32.release:abstractlightentity.obj
 0001:000232d0       ??2AbstractLightEntity@Graphics@@SAPAXI@Z 004242d0 f i render_win32.release:abstractlightentity.obj
 0001:000232e0       ??3AbstractLightEntity@Graphics@@SAXPAX@Z 004242e0 f i render_win32.release:abstractlightentity.obj
 0001:00023300       ?GetRtti@AbstractLightEntity@Graphics@@UBEPAVRtti@Core@@XZ 00424300 f   render_win32.release:abstractlightentity.obj
 0001:00023310       ?FactoryCreator@AbstractLightEntity@Graphics@@SAPAVRefCounted@Core@@XZ 00424310 f   render_win32.release:abstractlightentity.obj
 0001:00023320       ?Create@AbstractLightEntity@Graphics@@SAPAV12@XZ 00424320 f   render_win32.release:abstractlightentity.obj
 0001:00023360       ?RegisterWithFactory@AbstractLightEntity@Graphics@@SA_NXZ 00424360 f   render_win32.release:abstractlightentity.obj
 0001:00023460       ??0AbstractLightEntity@Graphics@@QAE@XZ 00424460 f   render_win32.release:abstractlightentity.obj
 0001:000235c0       ??_GAbstractLightEntity@Graphics@@UAEPAXI@Z 004245c0 f i render_win32.release:abstractlightentity.obj
 0001:000235c0       ??_EAbstractLightEntity@Graphics@@UAEPAXI@Z 004245c0 f i  CIL library: CIL module
 0001:000235f0       ??1AbstractLightEntity@Graphics@@UAE@XZ 004245f0 f   render_win32.release:abstractlightentity.obj
 0001:00023610       ?SetColor@AbstractLightEntity@Graphics@@QAEXABVfloat4@Math@@@Z 00424610 f   render_win32.release:abstractlightentity.obj
 0001:000236b0       ?SetCastShadows@AbstractLightEntity@Graphics@@QAEX_N@Z 004246b0 f   render_win32.release:abstractlightentity.obj
 0001:00023740       ??0?$Ptr@VSetLightColor@Graphics@@@@QAE@PAVSetLightColor@Graphics@@@Z 00424740 f i render_win32.release:abstractlightentity.obj
 0001:00023780       ??1?$Ptr@VSetLightColor@Graphics@@@@QAE@XZ 00424780 f i render_win32.release:abstractlightentity.obj
 0001:000237b0       ??C?$Ptr@VSetLightColor@Graphics@@@@QBEPAVSetLightColor@Graphics@@XZ 004247b0 f i render_win32.release:abstractlightentity.obj
 0001:000237f0       ??$cast@VGraphicsEntityMessage@Graphics@@@?$Ptr@VSetLightColor@Graphics@@@@QBEABV?$Ptr@VGraphicsEntityMessage@Graphics@@@@XZ 004247f0 f i render_win32.release:abstractlightentity.obj
 0001:00023800       ??0?$Ptr@VSetLightCastShadows@Graphics@@@@QAE@PAVSetLightCastShadows@Graphics@@@Z 00424800 f i render_win32.release:abstractlightentity.obj
 0001:00023840       ??1?$Ptr@VSetLightCastShadows@Graphics@@@@QAE@XZ 00424840 f i render_win32.release:abstractlightentity.obj
 0001:00023870       ??C?$Ptr@VSetLightCastShadows@Graphics@@@@QBEPAVSetLightCastShadows@Graphics@@XZ 00424870 f i render_win32.release:abstractlightentity.obj
 0001:000238b0       ??$cast@VGraphicsEntityMessage@Graphics@@@?$Ptr@VSetLightCastShadows@Graphics@@@@QBEABV?$Ptr@VGraphicsEntityMessage@Graphics@@@@XZ 004248b0 f i render_win32.release:abstractlightentity.obj
 0001:000238c0       ??0StringAtom@Util@@QAE@XZ 004248c0 f i render_win32.release:stage.obj
 0001:000238e0       ?IsValid@StringAtom@Util@@QBE_NXZ 004248e0 f i render_win32.release:stage.obj
 0001:00023920       ?Handled@Message@Messaging@@QBE_NXZ 00424920 f i render_win32.release:stage.obj
 0001:00023940       ?SetName@CreateGraphicsStage@Graphics@@QAEXABVStringAtom@Util@@@Z 00424940 f i render_win32.release:stage.obj
 0001:00023980       ?SetVisibleSystems@CreateGraphicsStage@Graphics@@QAEXABV?$Array@V?$Ptr@VVisibilitySystemBase@Visibility@@@@@Util@@@Z 00424980 f i render_win32.release:stage.obj
 0001:000239c0       ?SetObjectRef@CreateGraphicsStage@Graphics@@QAEXABV?$Ptr@VObjectRef@Threading@@@@@Z 004249c0 f i render_win32.release:stage.obj
 0001:00023a00       ?SetObjectRef@DiscardGraphicsStage@Graphics@@QAEXABV?$Ptr@VObjectRef@Threading@@@@@Z 00424a00 f i render_win32.release:stage.obj
 0001:00023a40       ?GetType@GraphicsEntity@Graphics@@QBE?AW4Code@InternalGraphicsEntityType@InternalGraphics@@XZ 00424a40 f i render_win32.release:stage.obj
 0001:00023a60       ??2Stage@Graphics@@SAPAXI@Z 00424a60 f i render_win32.release:stage.obj
 0001:00023a70       ??3Stage@Graphics@@SAXPAX@Z 00424a70 f i render_win32.release:stage.obj
 0001:00023a90       ?IsValid@Stage@Graphics@@QBE_NXZ 00424a90 f i render_win32.release:stage.obj
 0001:00023ab0       ?GetRtti@Stage@Graphics@@UBEPAVRtti@Core@@XZ 00424ab0 f   render_win32.release:stage.obj
 0001:00023ac0       ?FactoryCreator@Stage@Graphics@@SAPAVRefCounted@Core@@XZ 00424ac0 f   render_win32.release:stage.obj
 0001:00023ad0       ?Create@Stage@Graphics@@SAPAV12@XZ 00424ad0 f   render_win32.release:stage.obj
 0001:00023b10       ?RegisterWithFactory@Stage@Graphics@@SA_NXZ 00424b10 f   render_win32.release:stage.obj
 0001:00023c10       ??0Stage@Graphics@@QAE@XZ  00424c10 f   render_win32.release:stage.obj
 0001:00023ca0       ??_EStage@Graphics@@UAEPAXI@Z 00424ca0 f i  CIL library: CIL module
 0001:00023ca0       ??_GStage@Graphics@@UAEPAXI@Z 00424ca0 f i render_win32.release:stage.obj
 0001:00023cd0       ??1Stage@Graphics@@UAE@XZ  00424cd0 f   render_win32.release:stage.obj
 0001:00023d80       ?Setup@Stage@Graphics@@AAEXABV?$Array@V?$Ptr@VVisibilitySystemBase@Visibility@@@@@Util@@@Z 00424d80 f   render_win32.release:stage.obj
 0001:00023f80       ?Discard@Stage@Graphics@@AAEXXZ 00424f80 f   render_win32.release:stage.obj
 0001:00024090       ?AttachEntity@Stage@Graphics@@QAEXABV?$Ptr@VGraphicsEntity@Graphics@@@@@Z 00425090 f   render_win32.release:stage.obj
 0001:00024160       ?RemoveEntity@Stage@Graphics@@QAEXABV?$Ptr@VGraphicsEntity@Graphics@@@@@Z 00425160 f   render_win32.release:stage.obj
 0001:000242f0       ?OnFrame@Stage@Graphics@@AAEXXZ 004252f0 f   render_win32.release:stage.obj
 0001:00024330       ??4?$Array@V?$Ptr@VVisibilitySystemBase@Visibility@@@@@Util@@QAEXABV01@@Z 00425330 f i render_win32.release:stage.obj
 0001:00024420       ??0?$Ptr@VStage@Graphics@@@@QAE@PAVStage@Graphics@@@Z 00425420 f i render_win32.release:stage.obj
 0001:00024460       ?get@?$Ptr@VStage@Graphics@@@@QBEPAVStage@Graphics@@XZ 00425460 f i render_win32.release:stage.obj
 0001:000244a0       ??0?$Array@V?$Ptr@VGraphicsEntity@Graphics@@@@@Util@@QAE@XZ 004254a0 f i render_win32.release:stage.obj
 0001:000244e0       ??1?$Array@V?$Ptr@VGraphicsEntity@Graphics@@@@@Util@@QAE@XZ 004254e0 f i render_win32.release:stage.obj
 0001:00024500       ?Append@?$Array@V?$Ptr@VGraphicsEntity@Graphics@@@@@Util@@QAEXABV?$Ptr@VGraphicsEntity@Graphics@@@@@Z 00425500 f i render_win32.release:stage.obj
 0001:00024580       ?EraseIndex@?$Array@V?$Ptr@VGraphicsEntity@Graphics@@@@@Util@@QAEXH@Z 00425580 f i render_win32.release:stage.obj
 0001:00024600       ?Clear@?$Array@V?$Ptr@VGraphicsEntity@Graphics@@@@@Util@@QAEXXZ 00425600 f i render_win32.release:stage.obj
 0001:00024650       ?FindIndex@?$Array@V?$Ptr@VGraphicsEntity@Graphics@@@@@Util@@QBEHABV?$Ptr@VGraphicsEntity@Graphics@@@@@Z 00425650 f i render_win32.release:stage.obj
 0001:000246b0       ??0?$Ptr@VCreateGraphicsStage@Graphics@@@@QAE@PAVCreateGraphicsStage@Graphics@@@Z 004256b0 f i render_win32.release:stage.obj
 0001:000246f0       ??1?$Ptr@VCreateGraphicsStage@Graphics@@@@QAE@XZ 004256f0 f i render_win32.release:stage.obj
 0001:00024720       ??C?$Ptr@VCreateGraphicsStage@Graphics@@@@QBEPAVCreateGraphicsStage@Graphics@@XZ 00425720 f i render_win32.release:stage.obj
 0001:00024760       ??$cast@VMessage@Messaging@@@?$Ptr@VCreateGraphicsStage@Graphics@@@@QBEABV?$Ptr@VMessage@Messaging@@@@XZ 00425760 f i render_win32.release:stage.obj
 0001:00024770       ??$SendWait@VMessage@Messaging@@@AsyncPort@Messaging@@QAEXABV?$Ptr@VMessage@Messaging@@@@@Z 00425770 f i render_win32.release:stage.obj
 0001:00024790       ??0?$Ptr@VDiscardGraphicsStage@Graphics@@@@QAE@PAVDiscardGraphicsStage@Graphics@@@Z 00425790 f i render_win32.release:stage.obj
 0001:000247d0       ??1?$Ptr@VDiscardGraphicsStage@Graphics@@@@QAE@XZ 004257d0 f i render_win32.release:stage.obj
 0001:00024800       ??C?$Ptr@VDiscardGraphicsStage@Graphics@@@@QBEPAVDiscardGraphicsStage@Graphics@@XZ 00425800 f i render_win32.release:stage.obj
 0001:00024840       ??$cast@VMessage@Messaging@@@?$Ptr@VDiscardGraphicsStage@Graphics@@@@QBEABV?$Ptr@VMessage@Messaging@@@@XZ 00425840 f i render_win32.release:stage.obj
 0001:00024850       ??C?$Ptr@VGraphicsEntity@Graphics@@@@QBEPAVGraphicsEntity@Graphics@@XZ 00425850 f i render_win32.release:stage.obj
 0001:00024890       ?Destroy@?$Array@V?$Ptr@VVisibilitySystemBase@Visibility@@@@@Util@@AAEXPAV?$Ptr@VVisibilitySystemBase@Visibility@@@@@Z 00425890 f i render_win32.release:stage.obj
 0001:000248c0       ?Copy@?$Array@V?$Ptr@VVisibilitySystemBase@Visibility@@@@@Util@@AAEXABV12@@Z 004258c0 f i render_win32.release:stage.obj
 0001:000249f0       ?Destroy@?$Array@V?$Ptr@VGraphicsEntity@Graphics@@@@@Util@@AAEXPAV?$Ptr@VGraphicsEntity@Graphics@@@@@Z 004259f0 f i render_win32.release:stage.obj
 0001:00024a20       ?Delete@?$Array@V?$Ptr@VGraphicsEntity@Graphics@@@@@Util@@AAEXXZ 00425a20 f i render_win32.release:stage.obj
 0001:00024a90       ?Grow@?$Array@V?$Ptr@VGraphicsEntity@Graphics@@@@@Util@@AAEXXZ 00425a90 f i render_win32.release:stage.obj
 0001:00024b10       ?Move@?$Array@V?$Ptr@VGraphicsEntity@Graphics@@@@@Util@@AAEXHH@Z 00425b10 f i render_win32.release:stage.obj
 0001:00024ca0       ??4?$Ptr@VGraphicsEntity@Graphics@@@@QAEXABV0@@Z 00425ca0 f i render_win32.release:stage.obj
 0001:00024d00       ??8?$Ptr@VGraphicsEntity@Graphics@@@@QBE_NABV0@@Z 00425d00 f i render_win32.release:stage.obj
 0001:00024d20       ??_G?$Ptr@VVisibilitySystemBase@Visibility@@@@QAEPAXI@Z 00425d20 f i render_win32.release:stage.obj
 0001:00024d50       ??_G?$Ptr@VGraphicsEntity@Graphics@@@@QAEPAXI@Z 00425d50 f i render_win32.release:stage.obj
 0001:00024d80       ??_E?$Ptr@VGraphicsEntity@Graphics@@@@QAEPAXI@Z 00425d80 f i render_win32.release:stage.obj
 0001:00024e20       ?GrowTo@?$Array@V?$Ptr@VGraphicsEntity@Graphics@@@@@Util@@AAEXH@Z 00425e20 f i render_win32.release:stage.obj
 0001:00024f40       ??1?$Ptr@VGraphicsEntity@Graphics@@@@QAE@XZ 00425f40 f i render_win32.release:stage.obj
 0001:00024f70       ??0?$Ptr@VGraphicsEntity@Graphics@@@@QAE@XZ 00425f70 f i render_win32.release:stage.obj
 0001:00024f90       ?Alloc@Win360Heap@Win360@@QAEPAXI@Z 00425f90 f i render_win32.release:modelentity.obj
 0001:00024ff0       ??0float4@Math@@QAE@XZ     00425ff0 f i render_win32.release:modelentity.obj
 0001:00025000       ?nullvec@vector@Math@@SA?AV12@XZ 00426000 f i render_win32.release:modelentity.obj
 0001:00025090       ??0matrix44@Math@@QAE@XZ   00426090 f i render_win32.release:modelentity.obj
 0001:00025130       ??2String@Util@@SAPAXI@Z   00426130 f i render_win32.release:modelentity.obj
 0001:00025150       ??2Win32Guid@Win32@@SAPAXI@Z 00426150 f i render_win32.release:modelentity.obj
 0001:00025170       ??3Win32Guid@Win32@@SAXPAX@Z 00426170 f i render_win32.release:modelentity.obj
 0001:00025190       ??0Win32Guid@Win32@@QAE@XZ 00426190 f i render_win32.release:modelentity.obj
 0001:000251b0       ??0Win32Guid@Win32@@QAE@ABV01@@Z 004261b0 f i render_win32.release:modelentity.obj
 0001:000251e0       ??2Blob@Util@@SAPAXI@Z     004261e0 f i render_win32.release:modelentity.obj
 0001:00025200       ??0Blob@Util@@QAE@XZ       00426200 f i render_win32.release:modelentity.obj
 0001:00025230       ?Allocate@Blob@Util@@AAEXH@Z 00426230 f i render_win32.release:modelentity.obj
 0001:00025300       ?Copy@Blob@Util@@AAEXPBXH@Z 00426300 f i render_win32.release:modelentity.obj
 0001:000253e0       ??0Blob@Util@@QAE@ABV01@@Z 004263e0 f i render_win32.release:modelentity.obj
 0001:00025440       ??4Blob@Util@@QAEXABV01@@Z 00426440 f i render_win32.release:modelentity.obj
 0001:00025480       ??8StringAtom@Util@@QBE_NABV01@@Z 00426480 f i render_win32.release:modelentity.obj
 0001:000254a0       ?Delete@Variant@Util@@AAEXXZ 004264a0 f i render_win32.release:modelentity.obj
 0001:00025a60       ??_GBlob@Util@@QAEPAXI@Z   00426a60 f i render_win32.release:modelentity.obj
 0001:00025a90       ??_G?$Array@H@Util@@QAEPAXI@Z 00426a90 f i render_win32.release:modelentity.obj
 0001:00025ac0       ??_G?$Array@M@Util@@QAEPAXI@Z 00426ac0 f i render_win32.release:modelentity.obj
 0001:00025af0       ??_G?$Array@_N@Util@@QAEPAXI@Z 00426af0 f i render_win32.release:modelentity.obj
 0001:00025b20       ??_G?$Array@Vfloat4@Math@@@Util@@QAEPAXI@Z 00426b20 f i render_win32.release:modelentity.obj
 0001:00025b50       ??_G?$Array@Vmatrix44@Math@@@Util@@QAEPAXI@Z 00426b50 f i render_win32.release:modelentity.obj
 0001:00025b80       ??_G?$Array@VString@Util@@@Util@@QAEPAXI@Z 00426b80 f i render_win32.release:modelentity.obj
 0001:00025bb0       ??_G?$Array@VWin32Guid@Win32@@@Util@@QAEPAXI@Z 00426bb0 f i render_win32.release:modelentity.obj
 0001:00025be0       ??_G?$Array@VBlob@Util@@@Util@@QAEPAXI@Z 00426be0 f i render_win32.release:modelentity.obj
 0001:00025c10       ?Copy@Variant@Util@@AAEXABV12@@Z 00426c10 f i render_win32.release:modelentity.obj
 0001:000260f0       ??4Variant@Util@@QAEXABV01@@Z 004270f0 f i render_win32.release:modelentity.obj
 0001:00026120       ?GetFrameCount@FrameSyncHandlerThread@FrameSync@@QBEHXZ 00427120 f i render_win32.release:modelentity.obj
 0001:00026140       ?SetResourceId@CreateModelEntity@Graphics@@QAEXABVStringAtom@Util@@@Z 00427140 f i render_win32.release:modelentity.obj
 0001:00026180       ?SetRootNodePath@CreateModelEntity@Graphics@@QAEXABVStringAtom@Util@@@Z 00427180 f i render_win32.release:modelentity.obj
 0001:000261c0       ?SetAnimDrivenMotionEnabled@CreateModelEntity@Graphics@@QAEX_N@Z 004271c0 f i render_win32.release:modelentity.obj
 0001:00026200       ?SetAnimDrivenMotionJointName@CreateModelEntity@Graphics@@QAEXABVStringAtom@Util@@@Z 00427200 f i render_win32.release:modelentity.obj
 0001:00026240       ?SetAnimEventsEnabled@CreateModelEntity@Graphics@@QAEX_N@Z 00427240 f i render_win32.release:modelentity.obj
 0001:00026280       ?SetAnimEventsOnlyDominatingClip@CreateModelEntity@Graphics@@QAEX_N@Z 00427280 f i render_win32.release:modelentity.obj
 0001:000262c0       ?SetCharJointTrackingEnabled@CreateModelEntity@Graphics@@QAEX_N@Z 004272c0 f i render_win32.release:modelentity.obj
 0001:00026300       ?SetTrackedCharJointNames@CreateModelEntity@Graphics@@QAEXABV?$Array@VStringAtom@Util@@@Util@@@Z 00427300 f i render_win32.release:modelentity.obj
 0001:00026340       ?SetJointName@AddTrackedCharJoint@Graphics@@QAEXABVStringAtom@Util@@@Z 00427340 f i render_win32.release:modelentity.obj
 0001:00026380       ?SetModelNodeInstanceName@UpdModelNodeInstanceShaderVariable@Graphics@@QAEXABVStringAtom@Util@@@Z 00427380 f i render_win32.release:modelentity.obj
 0001:000263c0       ?SetSemantic@UpdModelNodeInstanceShaderVariable@Graphics@@QAEXABVStringAtom@Util@@@Z 004273c0 f i render_win32.release:modelentity.obj
 0001:00026400       ?SetValue@UpdModelNodeInstanceShaderVariable@Graphics@@QAEXABVVariant@Util@@@Z 00427400 f i render_win32.release:modelentity.obj
 0001:00026450       ?SetModelNodeInstanceName@UpdModelNodeInstanceVisibility@Graphics@@QAEXABVStringAtom@Util@@@Z 00427450 f i render_win32.release:modelentity.obj
 0001:00026490       ?SetVisible@UpdModelNodeInstanceVisibility@Graphics@@QAEX_N@Z 00427490 f i render_win32.release:modelentity.obj
 0001:000264d0       ?GetJointName@CharJointInfo@Shared@@QBEABVStringAtom@Util@@XZ 004274d0 f i render_win32.release:modelentity.obj
 0001:000264f0       ??0ModelEntityShared@Shared@@QAE@XZ 004274f0 f i render_win32.release:modelentity.obj
 0001:000265c0       ??2ModelEntity@Graphics@@SAPAXI@Z 004275c0 f i render_win32.release:modelentity.obj
 0001:000265d0       ??3ModelEntity@Graphics@@SAXPAX@Z 004275d0 f i render_win32.release:modelentity.obj
 0001:000265f0       ?GetRtti@ModelEntity@Graphics@@UBEPAVRtti@Core@@XZ 004275f0 f   render_win32.release:modelentity.obj
 0001:00026600       ?FactoryCreator@ModelEntity@Graphics@@SAPAVRefCounted@Core@@XZ 00427600 f   render_win32.release:modelentity.obj
 0001:00026610       ?Create@ModelEntity@Graphics@@SAPAV12@XZ 00427610 f   render_win32.release:modelentity.obj
 0001:00026650       ?RegisterWithFactory@ModelEntity@Graphics@@SA_NXZ 00427650 f   render_win32.release:modelentity.obj
 0001:00026750       ??0ModelEntity@Graphics@@QAE@XZ 00427750 f   render_win32.release:modelentity.obj
 0001:000268d0       ??_EModelEntity@Graphics@@UAEPAXI@Z 004278d0 f i  CIL library: CIL module
 0001:000268d0       ??_GModelEntity@Graphics@@UAEPAXI@Z 004278d0 f i render_win32.release:modelentity.obj
 0001:00026900       ??1ModelEntity@Graphics@@UAE@XZ 00427900 f   render_win32.release:modelentity.obj
 0001:00026950       ?ConfigureAnimDrivenMotionTracking@ModelEntity@Graphics@@QAEX_NABVStringAtom@Util@@@Z 00427950 f   render_win32.release:modelentity.obj
 0001:00026980       ?ConfigureAnimEventTracking@ModelEntity@Graphics@@QAEX_N0@Z 00427980 f   render_win32.release:modelentity.obj
 0001:000269b0       ?ConfigureCharJointTracking@ModelEntity@Graphics@@QAEX_NABV?$Array@VStringAtom@Util@@@Util@@@Z 004279b0 f   render_win32.release:modelentity.obj
 0001:000269e0       ?Setup@ModelEntity@Graphics@@EAEXABV?$Ptr@VStage@Graphics@@@@@Z 004279e0 f   render_win32.release:modelentity.obj
 0001:00026d10       ?OnSetupSharedData@ModelEntity@Graphics@@EAEXXZ 00427d10 f   render_win32.release:modelentity.obj
 0001:00026d50       ?OnDiscardSharedData@ModelEntity@Graphics@@EAEXXZ 00427d50 f   render_win32.release:modelentity.obj
 0001:00026d80       ?UpdateModelNodeInstanceShaderVariable@ModelEntity@Graphics@@QAEXABVStringAtom@Util@@0ABVVariant@4@@Z 00427d80 f   render_win32.release:modelentity.obj
 0001:00026e60       ?UpdateModelNodeInstanceVisibility@ModelEntity@Graphics@@QAEXABVStringAtom@Util@@_N@Z 00427e60 f   render_win32.release:modelentity.obj
 0001:00026f30       ?AddTrackedCharJoint@ModelEntity@Graphics@@QAEXABVStringAtom@Util@@@Z 00427f30 f   render_win32.release:modelentity.obj
 0001:00027010       ?GetTrackedCharJointInfo@ModelEntity@Graphics@@QBEPBVCharJointInfo@Shared@@ABVStringAtom@Util@@@Z 00428010 f   render_win32.release:modelentity.obj
 0001:000270c0       ??0?$Array@H@Util@@QAE@ABV01@@Z 004280c0 f i render_win32.release:modelentity.obj
 0001:00027110       ??1?$Array@H@Util@@QAE@XZ  00428110 f i render_win32.release:modelentity.obj
 0001:00027130       ??0?$Array@M@Util@@QAE@ABV01@@Z 00428130 f i render_win32.release:modelentity.obj
 0001:00027180       ??1?$Array@M@Util@@QAE@XZ  00428180 f i render_win32.release:modelentity.obj
 0001:000271a0       ??0?$Array@_N@Util@@QAE@ABV01@@Z 004281a0 f i render_win32.release:modelentity.obj
 0001:000271f0       ??1?$Array@_N@Util@@QAE@XZ 004281f0 f i render_win32.release:modelentity.obj
 0001:00027210       ??0?$Array@Vfloat4@Math@@@Util@@QAE@ABV01@@Z 00428210 f i render_win32.release:modelentity.obj
 0001:00027260       ??1?$Array@Vfloat4@Math@@@Util@@QAE@XZ 00428260 f i render_win32.release:modelentity.obj
 0001:00027280       ??0?$Array@Vmatrix44@Math@@@Util@@QAE@ABV01@@Z 00428280 f i render_win32.release:modelentity.obj
 0001:000272d0       ??0?$Array@VWin32Guid@Win32@@@Util@@QAE@ABV01@@Z 004282d0 f i render_win32.release:modelentity.obj
 0001:00027320       ??1?$Array@VWin32Guid@Win32@@@Util@@QAE@XZ 00428320 f i render_win32.release:modelentity.obj
 0001:00027340       ??0?$Array@VBlob@Util@@@Util@@QAE@ABV01@@Z 00428340 f i render_win32.release:modelentity.obj
 0001:00027390       ??1?$Array@VBlob@Util@@@Util@@QAE@XZ 00428390 f i render_win32.release:modelentity.obj
 0001:000273b0       ??0?$Array@VStringAtom@Util@@@Util@@QAE@XZ 004283b0 f i render_win32.release:modelentity.obj
 0001:000273f0       ??1?$Array@VStringAtom@Util@@@Util@@QAE@XZ 004283f0 f i render_win32.release:modelentity.obj
 0001:00027410       ??4?$Array@VStringAtom@Util@@@Util@@QAEXABV01@@Z 00428410 f i render_win32.release:modelentity.obj
 0001:00027510       ?Append@?$Array@VStringAtom@Util@@@Util@@QAEXABVStringAtom@2@@Z 00428510 f i render_win32.release:modelentity.obj
 0001:00027580       ?FindIndex@?$Array@VStringAtom@Util@@@Util@@QBEHABVStringAtom@2@@Z 00428580 f i render_win32.release:modelentity.obj
 0001:000275e0       ??0?$Array@VAnimEventInfo@Animation@@@Util@@QAE@XZ 004285e0 f i render_win32.release:modelentity.obj
 0001:00027620       ??1?$Array@VAnimEventInfo@Animation@@@Util@@QAE@XZ 00428620 f i render_win32.release:modelentity.obj
 0001:00027640       ??0?$Array@VCharJointInfo@Shared@@@Util@@QAE@XZ 00428640 f i render_win32.release:modelentity.obj
 0001:00027680       ??1?$Array@VCharJointInfo@Shared@@@Util@@QAE@XZ 00428680 f i render_win32.release:modelentity.obj
 0001:000276a0       ??A?$Array@VCharJointInfo@Shared@@@Util@@QBEAAVCharJointInfo@Shared@@H@Z 004286a0 f i render_win32.release:modelentity.obj
 0001:000276f0       ?Size@?$Array@VCharJointInfo@Shared@@@Util@@QBEHXZ 004286f0 f i render_win32.release:modelentity.obj
 0001:00027710       ??$Owner@VModelEntityShared@Shared@@@FrameSyncSharedData@FrameSync@@QAEAAVModelEntityShared@Shared@@XZ 00428710 f i render_win32.release:modelentity.obj
 0001:00027780       ??0?$Ptr@VCreateModelEntity@Graphics@@@@QAE@PAVCreateModelEntity@Graphics@@@Z 00428780 f i render_win32.release:modelentity.obj
 0001:000277c0       ??1?$Ptr@VCreateModelEntity@Graphics@@@@QAE@XZ 004287c0 f i render_win32.release:modelentity.obj
 0001:000277f0       ??C?$Ptr@VCreateModelEntity@Graphics@@@@QBEPAVCreateModelEntity@Graphics@@XZ 004287f0 f i render_win32.release:modelentity.obj
 0001:00027830       ??$cast@VCreateGraphicsEntity@Graphics@@@?$Ptr@VCreateModelEntity@Graphics@@@@QBEABV?$Ptr@VCreateGraphicsEntity@Graphics@@@@XZ 00428830 f i render_win32.release:modelentity.obj
 0001:00027840       ??$OwnerSetup@VModelEntityShared@Shared@@@FrameSyncSharedData@FrameSync@@QAEXPAVModelEntityShared@Shared@@@Z 00428840 f i render_win32.release:modelentity.obj
 0001:000278f0       ??$OwnerDiscard@VModelEntityShared@Shared@@@FrameSyncSharedData@FrameSync@@QAEXPAVModelEntityShared@Shared@@@Z 004288f0 f i render_win32.release:modelentity.obj
 0001:00027950       ??0?$Ptr@VUpdModelNodeInstanceShaderVariable@Graphics@@@@QAE@PAVUpdModelNodeInstanceShaderVariable@Graphics@@@Z 00428950 f i render_win32.release:modelentity.obj
 0001:00027990       ??1?$Ptr@VUpdModelNodeInstanceShaderVariable@Graphics@@@@QAE@XZ 00428990 f i render_win32.release:modelentity.obj
 0001:000279c0       ??C?$Ptr@VUpdModelNodeInstanceShaderVariable@Graphics@@@@QBEPAVUpdModelNodeInstanceShaderVariable@Graphics@@XZ 004289c0 f i render_win32.release:modelentity.obj
 0001:00027a00       ??$cast@VGraphicsEntityMessage@Graphics@@@?$Ptr@VUpdModelNodeInstanceShaderVariable@Graphics@@@@QBEABV?$Ptr@VGraphicsEntityMessage@Graphics@@@@XZ 00428a00 f i render_win32.release:modelentity.obj
 0001:00027a10       ??0?$Ptr@VUpdModelNodeInstanceVisibility@Graphics@@@@QAE@PAVUpdModelNodeInstanceVisibility@Graphics@@@Z 00428a10 f i render_win32.release:modelentity.obj
 0001:00027a50       ??1?$Ptr@VUpdModelNodeInstanceVisibility@Graphics@@@@QAE@XZ 00428a50 f i render_win32.release:modelentity.obj
 0001:00027a80       ??C?$Ptr@VUpdModelNodeInstanceVisibility@Graphics@@@@QBEPAVUpdModelNodeInstanceVisibility@Graphics@@XZ 00428a80 f i render_win32.release:modelentity.obj
 0001:00027ac0       ??$cast@VGraphicsEntityMessage@Graphics@@@?$Ptr@VUpdModelNodeInstanceVisibility@Graphics@@@@QBEABV?$Ptr@VGraphicsEntityMessage@Graphics@@@@XZ 00428ac0 f i render_win32.release:modelentity.obj
 0001:00027ad0       ??0?$Ptr@VAddTrackedCharJoint@Graphics@@@@QAE@PAVAddTrackedCharJoint@Graphics@@@Z 00428ad0 f i render_win32.release:modelentity.obj
 0001:00027b10       ??1?$Ptr@VAddTrackedCharJoint@Graphics@@@@QAE@XZ 00428b10 f i render_win32.release:modelentity.obj
 0001:00027b40       ??C?$Ptr@VAddTrackedCharJoint@Graphics@@@@QBEPAVAddTrackedCharJoint@Graphics@@XZ 00428b40 f i render_win32.release:modelentity.obj
 0001:00027b80       ??$cast@VGraphicsEntityMessage@Graphics@@@?$Ptr@VAddTrackedCharJoint@Graphics@@@@QBEABV?$Ptr@VGraphicsEntityMessage@Graphics@@@@XZ 00428b80 f i render_win32.release:modelentity.obj
 0001:00027b90       ?Copy@?$Array@H@Util@@AAEXABV12@@Z 00428b90 f i render_win32.release:modelentity.obj
 0001:00027c60       ?Delete@?$Array@H@Util@@AAEXXZ 00428c60 f i render_win32.release:modelentity.obj
 0001:00027cc0       ?Copy@?$Array@M@Util@@AAEXABV12@@Z 00428cc0 f i render_win32.release:modelentity.obj
 0001:00027d90       ?Delete@?$Array@M@Util@@AAEXXZ 00428d90 f i render_win32.release:modelentity.obj
 0001:00027df0       ?Copy@?$Array@_N@Util@@AAEXABV12@@Z 00428df0 f i render_win32.release:modelentity.obj
 0001:00027eb0       ?Delete@?$Array@_N@Util@@AAEXXZ 00428eb0 f i render_win32.release:modelentity.obj
 0001:00027f10       ?Copy@?$Array@Vfloat4@Math@@@Util@@AAEXABV12@@Z 00428f10 f i render_win32.release:modelentity.obj
 0001:00028050       ?Delete@?$Array@Vfloat4@Math@@@Util@@AAEXXZ 00429050 f i render_win32.release:modelentity.obj
 0001:000280b0       ?Copy@?$Array@Vmatrix44@Math@@@Util@@AAEXABV12@@Z 004290b0 f i render_win32.release:modelentity.obj
 0001:00028300       ?Copy@?$Array@VWin32Guid@Win32@@@Util@@AAEXABV12@@Z 00429300 f i render_win32.release:modelentity.obj
 0001:00028420       ?Delete@?$Array@VWin32Guid@Win32@@@Util@@AAEXXZ 00429420 f i render_win32.release:modelentity.obj
 0001:00028480       ?Copy@?$Array@VBlob@Util@@@Util@@AAEXABV12@@Z 00429480 f i render_win32.release:modelentity.obj
 0001:000285f0       ?Delete@?$Array@VBlob@Util@@@Util@@AAEXXZ 004295f0 f i render_win32.release:modelentity.obj
 0001:00028660       ?Destroy@?$Array@VStringAtom@Util@@@Util@@AAEXPAVStringAtom@2@@Z 00429660 f i render_win32.release:modelentity.obj
 0001:00028670       ?Copy@?$Array@VStringAtom@Util@@@Util@@AAEXABV12@@Z 00429670 f i render_win32.release:modelentity.obj
 0001:00028790       ?Delete@?$Array@VStringAtom@Util@@@Util@@AAEXXZ 00429790 f i render_win32.release:modelentity.obj
 0001:000287f0       ?Grow@?$Array@VStringAtom@Util@@@Util@@AAEXXZ 004297f0 f i render_win32.release:modelentity.obj
 0001:00028870       ?Delete@?$Array@VAnimEventInfo@Animation@@@Util@@AAEXXZ 00429870 f i render_win32.release:modelentity.obj
 0001:000288d0       ?Delete@?$Array@VCharJointInfo@Shared@@@Util@@AAEXXZ 004298d0 f i render_win32.release:modelentity.obj
 0001:00028930       ??$CreateDataObjects@VModelEntityShared@Shared@@@FrameSyncSharedData@FrameSync@@AAEXPAVModelEntityShared@Shared@@@Z 00429930 f i render_win32.release:modelentity.obj
 0001:00028a20       ??$DestroyDataObjects@VModelEntityShared@Shared@@@FrameSyncSharedData@FrameSync@@AAEXPAVModelEntityShared@Shared@@@Z 00429a20 f i render_win32.release:modelentity.obj
 0001:00028b60       ??_GModelEntityShared@Shared@@QAEPAXI@Z 00429b60 f i render_win32.release:modelentity.obj
 0001:00028ba0       ??1ModelEntityShared@Shared@@QAE@XZ 00429ba0 f i render_win32.release:modelentity.obj
 0001:00028bd0       ?GrowTo@?$Array@VStringAtom@Util@@@Util@@AAEXH@Z 00429bd0 f i render_win32.release:modelentity.obj
 0001:00028cc0       ??0Id@Messaging@@QAE@XZ    00429cc0 f i render_win32.release:graphicsprotocol.obj
 0001:00028cd0       ??0Variant@Util@@QAE@XZ    00429cd0 f i render_win32.release:graphicsprotocol.obj
 0001:00028d00       ??1Variant@Util@@QAE@XZ    00429d00 f i render_win32.release:graphicsprotocol.obj
 0001:00028d20       ??0AdapterInfo@CoreGraphics@@QAE@XZ 00429d20 f i render_win32.release:graphicsprotocol.obj
 0001:00028e10       ??2RegisterRTPlugin@Graphics@@SAPAXI@Z 00429e10 f i render_win32.release:graphicsprotocol.obj
 0001:00028e20       ??3RegisterRTPlugin@Graphics@@SAXPAX@Z 00429e20 f i render_win32.release:graphicsprotocol.obj
 0001:00028e40       ??0RegisterRTPlugin@Graphics@@QAE@XZ 00429e40 f i render_win32.release:graphicsprotocol.obj
 0001:00028e60       ??_GRegisterRTPlugin@Graphics@@UAEPAXI@Z 00429e60 f i render_win32.release:graphicsprotocol.obj
 0001:00028e60       ??_ERegisterRTPlugin@Graphics@@UAEPAXI@Z 00429e60 f i  CIL library: CIL module
 0001:00028e90       ??1Message@Messaging@@UAE@XZ 00429e90 f i render_win32.release:graphicsprotocol.obj
 0001:00028eb0       ??1RegisterRTPlugin@Graphics@@UAE@XZ 00429eb0 f i render_win32.release:graphicsprotocol.obj
 0001:00028ed0       ??2UnregisterRTPlugin@Graphics@@SAPAXI@Z 00429ed0 f i render_win32.release:graphicsprotocol.obj
 0001:00028ee0       ??3UnregisterRTPlugin@Graphics@@SAXPAX@Z 00429ee0 f i render_win32.release:graphicsprotocol.obj
 0001:00028f00       ??0UnregisterRTPlugin@Graphics@@QAE@XZ 00429f00 f i render_win32.release:graphicsprotocol.obj
 0001:00028f20       ??_EUnregisterRTPlugin@Graphics@@UAEPAXI@Z 00429f20 f i  CIL library: CIL module
 0001:00028f20       ??_GUnregisterRTPlugin@Graphics@@UAEPAXI@Z 00429f20 f i render_win32.release:graphicsprotocol.obj
 0001:00028f50       ??1UnregisterRTPlugin@Graphics@@UAE@XZ 00429f50 f i render_win32.release:graphicsprotocol.obj
 0001:00028f70       ??2SetupGraphics@Graphics@@SAPAXI@Z 00429f70 f i render_win32.release:graphicsprotocol.obj
 0001:00028f80       ??3SetupGraphics@Graphics@@SAXPAX@Z 00429f80 f i render_win32.release:graphicsprotocol.obj
 0001:00028fa0       ??0SetupGraphics@Graphics@@QAE@XZ 00429fa0 f i render_win32.release:graphicsprotocol.obj
 0001:000290c0       ??_ESetupGraphics@Graphics@@UAEPAXI@Z 0042a0c0 f i  CIL library: CIL module
 0001:000290c0       ??_GSetupGraphics@Graphics@@UAEPAXI@Z 0042a0c0 f i render_win32.release:graphicsprotocol.obj
 0001:000290f0       ??1SetupGraphics@Graphics@@UAE@XZ 0042a0f0 f i render_win32.release:graphicsprotocol.obj
 0001:000291a0       ??2AdapterExists@Graphics@@SAPAXI@Z 0042a1a0 f i render_win32.release:graphicsprotocol.obj
 0001:000291b0       ??3AdapterExists@Graphics@@SAXPAX@Z 0042a1b0 f i render_win32.release:graphicsprotocol.obj
 0001:000291d0       ??0AdapterExists@Graphics@@QAE@XZ 0042a1d0 f i render_win32.release:graphicsprotocol.obj
 0001:000291f0       ??_GAdapterExists@Graphics@@UAEPAXI@Z 0042a1f0 f i render_win32.release:graphicsprotocol.obj
 0001:000291f0       ??_EAdapterExists@Graphics@@UAEPAXI@Z 0042a1f0 f i  CIL library: CIL module
 0001:00029220       ??1AdapterExists@Graphics@@UAE@XZ 0042a220 f i render_win32.release:graphicsprotocol.obj
 0001:00029240       ??2GetAvailableDisplayModes@Graphics@@SAPAXI@Z 0042a240 f i render_win32.release:graphicsprotocol.obj
 0001:00029250       ??3GetAvailableDisplayModes@Graphics@@SAXPAX@Z 0042a250 f i render_win32.release:graphicsprotocol.obj
 0001:00029270       ??0GetAvailableDisplayModes@Graphics@@QAE@XZ 0042a270 f i render_win32.release:graphicsprotocol.obj
 0001:000292a0       ??_GGetAvailableDisplayModes@Graphics@@UAEPAXI@Z 0042a2a0 f i render_win32.release:graphicsprotocol.obj
 0001:000292a0       ??_EGetAvailableDisplayModes@Graphics@@UAEPAXI@Z 0042a2a0 f i  CIL library: CIL module
 0001:000292e0       ??1GetAvailableDisplayModes@Graphics@@UAE@XZ 0042a2e0 f i render_win32.release:graphicsprotocol.obj
 0001:00029300       ??2SupportsDisplayMode@Graphics@@SAPAXI@Z 0042a300 f i render_win32.release:graphicsprotocol.obj
 0001:00029310       ??3SupportsDisplayMode@Graphics@@SAXPAX@Z 0042a310 f i render_win32.release:graphicsprotocol.obj
 0001:00029330       ??0SupportsDisplayMode@Graphics@@QAE@XZ 0042a330 f i render_win32.release:graphicsprotocol.obj
 0001:000293a0       ??_ESupportsDisplayMode@Graphics@@UAEPAXI@Z 0042a3a0 f i  CIL library: CIL module
 0001:000293a0       ??_GSupportsDisplayMode@Graphics@@UAEPAXI@Z 0042a3a0 f i render_win32.release:graphicsprotocol.obj
 0001:000293d0       ??1SupportsDisplayMode@Graphics@@UAE@XZ 0042a3d0 f i render_win32.release:graphicsprotocol.obj
 0001:000293f0       ??2AdjustDisplaySize@Graphics@@SAPAXI@Z 0042a3f0 f i render_win32.release:graphicsprotocol.obj
 0001:00029400       ??3AdjustDisplaySize@Graphics@@SAXPAX@Z 0042a400 f i render_win32.release:graphicsprotocol.obj
 0001:00029420       ??0AdjustDisplaySize@Graphics@@QAE@XZ 0042a420 f i render_win32.release:graphicsprotocol.obj
 0001:00029440       ??_GAdjustDisplaySize@Graphics@@UAEPAXI@Z 0042a440 f i render_win32.release:graphicsprotocol.obj
 0001:00029440       ??_EAdjustDisplaySize@Graphics@@UAEPAXI@Z 0042a440 f i  CIL library: CIL module
 0001:00029470       ??1AdjustDisplaySize@Graphics@@UAE@XZ 0042a470 f i render_win32.release:graphicsprotocol.obj
 0001:00029490       ??2GetCurrentAdapterDisplayMode@Graphics@@SAPAXI@Z 0042a490 f i render_win32.release:graphicsprotocol.obj
 0001:000294a0       ??3GetCurrentAdapterDisplayMode@Graphics@@SAXPAX@Z 0042a4a0 f i render_win32.release:graphicsprotocol.obj
 0001:000294c0       ??0GetCurrentAdapterDisplayMode@Graphics@@QAE@XZ 0042a4c0 f i render_win32.release:graphicsprotocol.obj
 0001:00029530       ??_EGetCurrentAdapterDisplayMode@Graphics@@UAEPAXI@Z 0042a530 f i  CIL library: CIL module
 0001:00029530       ??_GGetCurrentAdapterDisplayMode@Graphics@@UAEPAXI@Z 0042a530 f i render_win32.release:graphicsprotocol.obj
 0001:00029560       ??1GetCurrentAdapterDisplayMode@Graphics@@UAE@XZ 0042a560 f i render_win32.release:graphicsprotocol.obj
 0001:00029580       ??2GetAdapterInfo@Graphics@@SAPAXI@Z 0042a580 f i render_win32.release:graphicsprotocol.obj
 0001:00029590       ??3GetAdapterInfo@Graphics@@SAXPAX@Z 0042a590 f i render_win32.release:graphicsprotocol.obj
 0001:000295b0       ??0GetAdapterInfo@Graphics@@QAE@XZ 0042a5b0 f i render_win32.release:graphicsprotocol.obj
 0001:000295e0       ??_GGetAdapterInfo@Graphics@@UAEPAXI@Z 0042a5e0 f i render_win32.release:graphicsprotocol.obj
 0001:000295e0       ??_EGetAdapterInfo@Graphics@@UAEPAXI@Z 0042a5e0 f i  CIL library: CIL module
 0001:00029620       ??1AdapterInfo@CoreGraphics@@QAE@XZ 0042a620 f i render_win32.release:graphicsprotocol.obj
 0001:00029700       ??1GetAdapterInfo@Graphics@@UAE@XZ 0042a700 f i render_win32.release:graphicsprotocol.obj
 0001:00029720       ??2AttachDisplayEventHandler@Graphics@@SAPAXI@Z 0042a720 f i render_win32.release:graphicsprotocol.obj
 0001:00029730       ??3AttachDisplayEventHandler@Graphics@@SAXPAX@Z 0042a730 f i render_win32.release:graphicsprotocol.obj
 0001:00029750       ??0AttachDisplayEventHandler@Graphics@@QAE@XZ 0042a750 f i render_win32.release:graphicsprotocol.obj
 0001:00029780       ??_EAttachDisplayEventHandler@Graphics@@UAEPAXI@Z 0042a780 f i  CIL library: CIL module
 0001:00029780       ??_GAttachDisplayEventHandler@Graphics@@UAEPAXI@Z 0042a780 f i render_win32.release:graphicsprotocol.obj
 0001:000297c0       ??1AttachDisplayEventHandler@Graphics@@UAE@XZ 0042a7c0 f i render_win32.release:graphicsprotocol.obj
 0001:000297e0       ??2RemoveDisplayEventHandler@Graphics@@SAPAXI@Z 0042a7e0 f i render_win32.release:graphicsprotocol.obj
 0001:000297f0       ??3RemoveDisplayEventHandler@Graphics@@SAXPAX@Z 0042a7f0 f i render_win32.release:graphicsprotocol.obj
 0001:00029810       ??0RemoveDisplayEventHandler@Graphics@@QAE@XZ 0042a810 f i render_win32.release:graphicsprotocol.obj
 0001:00029840       ??_GRemoveDisplayEventHandler@Graphics@@UAEPAXI@Z 0042a840 f i render_win32.release:graphicsprotocol.obj
 0001:00029840       ??_ERemoveDisplayEventHandler@Graphics@@UAEPAXI@Z 0042a840 f i  CIL library: CIL module
 0001:00029880       ??1RemoveDisplayEventHandler@Graphics@@UAE@XZ 0042a880 f i render_win32.release:graphicsprotocol.obj
 0001:000298a0       ??2AttachRenderEventHandler@Graphics@@SAPAXI@Z 0042a8a0 f i render_win32.release:graphicsprotocol.obj
 0001:000298b0       ??3AttachRenderEventHandler@Graphics@@SAXPAX@Z 0042a8b0 f i render_win32.release:graphicsprotocol.obj
 0001:000298d0       ??0AttachRenderEventHandler@Graphics@@QAE@XZ 0042a8d0 f i render_win32.release:graphicsprotocol.obj
 0001:00029900       ??_EAttachRenderEventHandler@Graphics@@UAEPAXI@Z 0042a900 f i  CIL library: CIL module
 0001:00029900       ??_GAttachRenderEventHandler@Graphics@@UAEPAXI@Z 0042a900 f i render_win32.release:graphicsprotocol.obj
 0001:00029940       ??1AttachRenderEventHandler@Graphics@@UAE@XZ 0042a940 f i render_win32.release:graphicsprotocol.obj
 0001:00029960       ??2RemoveRenderEventHandler@Graphics@@SAPAXI@Z 0042a960 f i render_win32.release:graphicsprotocol.obj
 0001:00029970       ??3RemoveRenderEventHandler@Graphics@@SAXPAX@Z 0042a970 f i render_win32.release:graphicsprotocol.obj
 0001:00029990       ??0RemoveRenderEventHandler@Graphics@@QAE@XZ 0042a990 f i render_win32.release:graphicsprotocol.obj
 0001:000299c0       ??_GRemoveRenderEventHandler@Graphics@@UAEPAXI@Z 0042a9c0 f i render_win32.release:graphicsprotocol.obj
 0001:000299c0       ??_ERemoveRenderEventHandler@Graphics@@UAEPAXI@Z 0042a9c0 f i  CIL library: CIL module
 0001:00029a00       ??1RemoveRenderEventHandler@Graphics@@UAE@XZ 0042aa00 f i render_win32.release:graphicsprotocol.obj
 0001:00029a20       ??2CreateGraphicsStage@Graphics@@SAPAXI@Z 0042aa20 f i render_win32.release:graphicsprotocol.obj
 0001:00029a30       ??3CreateGraphicsStage@Graphics@@SAXPAX@Z 0042aa30 f i render_win32.release:graphicsprotocol.obj
 0001:00029a50       ??0CreateGraphicsStage@Graphics@@QAE@XZ 0042aa50 f i render_win32.release:graphicsprotocol.obj
 0001:00029aa0       ??_ECreateGraphicsStage@Graphics@@UAEPAXI@Z 0042aaa0 f i  CIL library: CIL module
 0001:00029aa0       ??_GCreateGraphicsStage@Graphics@@UAEPAXI@Z 0042aaa0 f i render_win32.release:graphicsprotocol.obj
 0001:00029af0       ??1CreateGraphicsStage@Graphics@@UAE@XZ 0042aaf0 f i render_win32.release:graphicsprotocol.obj
 0001:00029b20       ??2DiscardGraphicsStage@Graphics@@SAPAXI@Z 0042ab20 f i render_win32.release:graphicsprotocol.obj
 0001:00029b30       ??3DiscardGraphicsStage@Graphics@@SAXPAX@Z 0042ab30 f i render_win32.release:graphicsprotocol.obj
 0001:00029b50       ??0DiscardGraphicsStage@Graphics@@QAE@XZ 0042ab50 f i render_win32.release:graphicsprotocol.obj
 0001:00029b80       ??_GDiscardGraphicsStage@Graphics@@UAEPAXI@Z 0042ab80 f i render_win32.release:graphicsprotocol.obj
 0001:00029b80       ??_EDiscardGraphicsStage@Graphics@@UAEPAXI@Z 0042ab80 f i  CIL library: CIL module
 0001:00029bc0       ??1DiscardGraphicsStage@Graphics@@UAE@XZ 0042abc0 f i render_win32.release:graphicsprotocol.obj
 0001:00029be0       ??2CreateGraphicsView@Graphics@@SAPAXI@Z 0042abe0 f i render_win32.release:graphicsprotocol.obj
 0001:00029bf0       ??3CreateGraphicsView@Graphics@@SAXPAX@Z 0042abf0 f i render_win32.release:graphicsprotocol.obj
 0001:00029c10       ??0CreateGraphicsView@Graphics@@QAE@XZ 0042ac10 f i render_win32.release:graphicsprotocol.obj
 0001:00029c90       ??_GCreateGraphicsView@Graphics@@UAEPAXI@Z 0042ac90 f i render_win32.release:graphicsprotocol.obj
 0001:00029c90       ??_ECreateGraphicsView@Graphics@@UAEPAXI@Z 0042ac90 f i  CIL library: CIL module
 0001:00029cd0       ??1CreateGraphicsView@Graphics@@UAE@XZ 0042acd0 f i render_win32.release:graphicsprotocol.obj
 0001:00029cf0       ??2DiscardGraphicsView@Graphics@@SAPAXI@Z 0042acf0 f i render_win32.release:graphicsprotocol.obj
 0001:00029d00       ??3DiscardGraphicsView@Graphics@@SAXPAX@Z 0042ad00 f i render_win32.release:graphicsprotocol.obj
 0001:00029d20       ??0DiscardGraphicsView@Graphics@@QAE@XZ 0042ad20 f i render_win32.release:graphicsprotocol.obj
 0001:00029d50       ??_GDiscardGraphicsView@Graphics@@UAEPAXI@Z 0042ad50 f i render_win32.release:graphicsprotocol.obj
 0001:00029d50       ??_EDiscardGraphicsView@Graphics@@UAEPAXI@Z 0042ad50 f i  CIL library: CIL module
 0001:00029d90       ??1DiscardGraphicsView@Graphics@@UAE@XZ 0042ad90 f i render_win32.release:graphicsprotocol.obj
 0001:00029db0       ??2SetDefaultGraphicsView@Graphics@@SAPAXI@Z 0042adb0 f i render_win32.release:graphicsprotocol.obj
 0001:00029dc0       ??3SetDefaultGraphicsView@Graphics@@SAXPAX@Z 0042adc0 f i render_win32.release:graphicsprotocol.obj
 0001:00029de0       ??0SetDefaultGraphicsView@Graphics@@QAE@XZ 0042ade0 f i render_win32.release:graphicsprotocol.obj
 0001:00029e10       ??_GSetDefaultGraphicsView@Graphics@@UAEPAXI@Z 0042ae10 f i render_win32.release:graphicsprotocol.obj
 0001:00029e10       ??_ESetDefaultGraphicsView@Graphics@@UAEPAXI@Z 0042ae10 f i  CIL library: CIL module
 0001:00029e50       ??1SetDefaultGraphicsView@Graphics@@UAE@XZ 0042ae50 f i render_win32.release:graphicsprotocol.obj
 0001:00029e70       ??2CreateGraphicsEntity@Graphics@@SAPAXI@Z 0042ae70 f i render_win32.release:graphicsprotocol.obj
 0001:00029e80       ??3CreateGraphicsEntity@Graphics@@SAXPAX@Z 0042ae80 f i render_win32.release:graphicsprotocol.obj
 0001:00029ea0       ??0CreateGraphicsEntity@Graphics@@QAE@XZ 0042aea0 f i render_win32.release:graphicsprotocol.obj
 0001:00029fb0       ??_GCreateGraphicsEntity@Graphics@@UAEPAXI@Z 0042afb0 f i render_win32.release:graphicsprotocol.obj
 0001:00029fb0       ??_ECreateGraphicsEntity@Graphics@@UAEPAXI@Z 0042afb0 f i  CIL library: CIL module
 0001:0002a000       ??1CreateGraphicsEntity@Graphics@@UAE@XZ 0042b000 f i render_win32.release:graphicsprotocol.obj
 0001:0002a030       ??2CreateModelEntity@Graphics@@SAPAXI@Z 0042b030 f i render_win32.release:graphicsprotocol.obj
 0001:0002a040       ??3CreateModelEntity@Graphics@@SAXPAX@Z 0042b040 f i render_win32.release:graphicsprotocol.obj
 0001:0002a060       ??0CreateModelEntity@Graphics@@QAE@XZ 0042b060 f i render_win32.release:graphicsprotocol.obj
 0001:0002a1c0       ??_ECreateModelEntity@Graphics@@UAEPAXI@Z 0042b1c0 f i  CIL library: CIL module
 0001:0002a1c0       ??_GCreateModelEntity@Graphics@@UAEPAXI@Z 0042b1c0 f i render_win32.release:graphicsprotocol.obj
 0001:0002a1f0       ??1CreateModelEntity@Graphics@@UAE@XZ 0042b1f0 f i render_win32.release:graphicsprotocol.obj
 0001:0002a230       ??2CreateCameraEntity@Graphics@@SAPAXI@Z 0042b230 f i render_win32.release:graphicsprotocol.obj
 0001:0002a240       ??3CreateCameraEntity@Graphics@@SAXPAX@Z 0042b240 f i render_win32.release:graphicsprotocol.obj
 0001:0002a260       ??0CreateCameraEntity@Graphics@@QAE@XZ 0042b260 f i render_win32.release:graphicsprotocol.obj
 0001:0002a2a0       ??_GCreateCameraEntity@Graphics@@UAEPAXI@Z 0042b2a0 f i render_win32.release:graphicsprotocol.obj
 0001:0002a2a0       ??_ECreateCameraEntity@Graphics@@UAEPAXI@Z 0042b2a0 f i  CIL library: CIL module
 0001:0002a2f0       ??1CreateCameraEntity@Graphics@@UAE@XZ 0042b2f0 f i render_win32.release:graphicsprotocol.obj
 0001:0002a320       ??2CreateGlobalLightEntity@Graphics@@SAPAXI@Z 0042b320 f i render_win32.release:graphicsprotocol.obj
 0001:0002a330       ??3CreateGlobalLightEntity@Graphics@@SAXPAX@Z 0042b330 f i render_win32.release:graphicsprotocol.obj
 0001:0002a350       ??0CreateGlobalLightEntity@Graphics@@QAE@XZ 0042b350 f i render_win32.release:graphicsprotocol.obj
 0001:0002a380       ??_ECreateGlobalLightEntity@Graphics@@UAEPAXI@Z 0042b380 f i  CIL library: CIL module
 0001:0002a380       ??_GCreateGlobalLightEntity@Graphics@@UAEPAXI@Z 0042b380 f i render_win32.release:graphicsprotocol.obj
 0001:0002a3d0       ??1CreateGlobalLightEntity@Graphics@@UAE@XZ 0042b3d0 f i render_win32.release:graphicsprotocol.obj
 0001:0002a400       ??2CreateSpotLightEntity@Graphics@@SAPAXI@Z 0042b400 f i render_win32.release:graphicsprotocol.obj
 0001:0002a410       ??3CreateSpotLightEntity@Graphics@@SAXPAX@Z 0042b410 f i render_win32.release:graphicsprotocol.obj
 0001:0002a430       ??0CreateSpotLightEntity@Graphics@@QAE@XZ 0042b430 f i render_win32.release:graphicsprotocol.obj
 0001:0002a460       ??_ECreateSpotLightEntity@Graphics@@UAEPAXI@Z 0042b460 f i  CIL library: CIL module
 0001:0002a460       ??_GCreateSpotLightEntity@Graphics@@UAEPAXI@Z 0042b460 f i render_win32.release:graphicsprotocol.obj
 0001:0002a4b0       ??1CreateSpotLightEntity@Graphics@@UAE@XZ 0042b4b0 f i render_win32.release:graphicsprotocol.obj
 0001:0002a4e0       ??2CreatePointLightEntity@Graphics@@SAPAXI@Z 0042b4e0 f i render_win32.release:graphicsprotocol.obj
 0001:0002a4f0       ??3CreatePointLightEntity@Graphics@@SAXPAX@Z 0042b4f0 f i render_win32.release:graphicsprotocol.obj
 0001:0002a510       ??0CreatePointLightEntity@Graphics@@QAE@XZ 0042b510 f i render_win32.release:graphicsprotocol.obj
 0001:0002a540       ??_ECreatePointLightEntity@Graphics@@UAEPAXI@Z 0042b540 f i  CIL library: CIL module
 0001:0002a540       ??_GCreatePointLightEntity@Graphics@@UAEPAXI@Z 0042b540 f i render_win32.release:graphicsprotocol.obj
 0001:0002a590       ??1CreatePointLightEntity@Graphics@@UAE@XZ 0042b590 f i render_win32.release:graphicsprotocol.obj
 0001:0002a5c0       ??2GraphicsEntityMessage@Graphics@@SAPAXI@Z 0042b5c0 f i render_win32.release:graphicsprotocol.obj
 0001:0002a5d0       ??3GraphicsEntityMessage@Graphics@@SAXPAX@Z 0042b5d0 f i render_win32.release:graphicsprotocol.obj
 0001:0002a5f0       ??0GraphicsEntityMessage@Graphics@@QAE@XZ 0042b5f0 f i render_win32.release:graphicsprotocol.obj
 0001:0002a620       ??_GGraphicsEntityMessage@Graphics@@UAEPAXI@Z 0042b620 f i render_win32.release:graphicsprotocol.obj
 0001:0002a620       ??_EGraphicsEntityMessage@Graphics@@UAEPAXI@Z 0042b620 f i  CIL library: CIL module
 0001:0002a660       ??1GraphicsEntityMessage@Graphics@@UAE@XZ 0042b660 f i render_win32.release:graphicsprotocol.obj
 0001:0002a680       ??2DiscardGraphicsEntity@Graphics@@SAPAXI@Z 0042b680 f i render_win32.release:graphicsprotocol.obj
 0001:0002a690       ??3DiscardGraphicsEntity@Graphics@@SAXPAX@Z 0042b690 f i render_win32.release:graphicsprotocol.obj
 0001:0002a6b0       ??0DiscardGraphicsEntity@Graphics@@QAE@XZ 0042b6b0 f i render_win32.release:graphicsprotocol.obj
 0001:0002a6f0       ??_GDiscardGraphicsEntity@Graphics@@UAEPAXI@Z 0042b6f0 f i render_win32.release:graphicsprotocol.obj
 0001:0002a6f0       ??_EDiscardGraphicsEntity@Graphics@@UAEPAXI@Z 0042b6f0 f i  CIL library: CIL module
 0001:0002a730       ??1DiscardGraphicsEntity@Graphics@@UAE@XZ 0042b730 f i render_win32.release:graphicsprotocol.obj
 0001:0002a750       ??2AddTrackedCharJoint@Graphics@@SAPAXI@Z 0042b750 f i render_win32.release:graphicsprotocol.obj
 0001:0002a760       ??3AddTrackedCharJoint@Graphics@@SAXPAX@Z 0042b760 f i render_win32.release:graphicsprotocol.obj
 0001:0002a780       ??0AddTrackedCharJoint@Graphics@@QAE@XZ 0042b780 f i render_win32.release:graphicsprotocol.obj
 0001:0002a7d0       ??_GAddTrackedCharJoint@Graphics@@UAEPAXI@Z 0042b7d0 f i render_win32.release:graphicsprotocol.obj
 0001:0002a7d0       ??_EAddTrackedCharJoint@Graphics@@UAEPAXI@Z 0042b7d0 f i  CIL library: CIL module
 0001:0002a810       ??1AddTrackedCharJoint@Graphics@@UAE@XZ 0042b810 f i render_win32.release:graphicsprotocol.obj
 0001:0002a830       ??2SetLightColor@Graphics@@SAPAXI@Z 0042b830 f i render_win32.release:graphicsprotocol.obj
 0001:0002a840       ??3SetLightColor@Graphics@@SAXPAX@Z 0042b840 f i render_win32.release:graphicsprotocol.obj
 0001:0002a860       ??0SetLightColor@Graphics@@QAE@XZ 0042b860 f i render_win32.release:graphicsprotocol.obj
 0001:0002a8a0       ??_GSetLightColor@Graphics@@UAEPAXI@Z 0042b8a0 f i render_win32.release:graphicsprotocol.obj
 0001:0002a8a0       ??_ESetLightColor@Graphics@@UAEPAXI@Z 0042b8a0 f i  CIL library: CIL module
 0001:0002a8e0       ??1SetLightColor@Graphics@@UAE@XZ 0042b8e0 f i render_win32.release:graphicsprotocol.obj
 0001:0002a900       ??2SetLightCastShadows@Graphics@@SAPAXI@Z 0042b900 f i render_win32.release:graphicsprotocol.obj
 0001:0002a910       ??3SetLightCastShadows@Graphics@@SAXPAX@Z 0042b910 f i render_win32.release:graphicsprotocol.obj
 0001:0002a930       ??0SetLightCastShadows@Graphics@@QAE@XZ 0042b930 f i render_win32.release:graphicsprotocol.obj
 0001:0002a970       ??_GSetLightCastShadows@Graphics@@UAEPAXI@Z 0042b970 f i render_win32.release:graphicsprotocol.obj
 0001:0002a970       ??_ESetLightCastShadows@Graphics@@UAEPAXI@Z 0042b970 f i  CIL library: CIL module
 0001:0002a9b0       ??1SetLightCastShadows@Graphics@@UAE@XZ 0042b9b0 f i render_win32.release:graphicsprotocol.obj
 0001:0002a9d0       ??2SetGlobalBackLightColor@Graphics@@SAPAXI@Z 0042b9d0 f i render_win32.release:graphicsprotocol.obj
 0001:0002a9e0       ??3SetGlobalBackLightColor@Graphics@@SAXPAX@Z 0042b9e0 f i render_win32.release:graphicsprotocol.obj
 0001:0002aa00       ??0SetGlobalBackLightColor@Graphics@@QAE@XZ 0042ba00 f i render_win32.release:graphicsprotocol.obj
 0001:0002aa40       ??_ESetGlobalBackLightColor@Graphics@@UAEPAXI@Z 0042ba40 f i  CIL library: CIL module
 0001:0002aa40       ??_GSetGlobalBackLightColor@Graphics@@UAEPAXI@Z 0042ba40 f i render_win32.release:graphicsprotocol.obj
 0001:0002aa80       ??1SetGlobalBackLightColor@Graphics@@UAE@XZ 0042ba80 f i render_win32.release:graphicsprotocol.obj
 0001:0002aaa0       ??2SetGlobalAmbientLightColor@Graphics@@SAPAXI@Z 0042baa0 f i render_win32.release:graphicsprotocol.obj
 0001:0002aab0       ??3SetGlobalAmbientLightColor@Graphics@@SAXPAX@Z 0042bab0 f i render_win32.release:graphicsprotocol.obj
 0001:0002aad0       ??0SetGlobalAmbientLightColor@Graphics@@QAE@XZ 0042bad0 f i render_win32.release:graphicsprotocol.obj
 0001:0002ab10       ??_GSetGlobalAmbientLightColor@Graphics@@UAEPAXI@Z 0042bb10 f i render_win32.release:graphicsprotocol.obj
 0001:0002ab10       ??_ESetGlobalAmbientLightColor@Graphics@@UAEPAXI@Z 0042bb10 f i  CIL library: CIL module
 0001:0002ab50       ??1SetGlobalAmbientLightColor@Graphics@@UAE@XZ 0042bb50 f i render_win32.release:graphicsprotocol.obj
 0001:0002ab70       ??2SetGlobalBackLightOffset@Graphics@@SAPAXI@Z 0042bb70 f i render_win32.release:graphicsprotocol.obj
 0001:0002ab80       ??3SetGlobalBackLightOffset@Graphics@@SAXPAX@Z 0042bb80 f i render_win32.release:graphicsprotocol.obj
 0001:0002aba0       ??0SetGlobalBackLightOffset@Graphics@@QAE@XZ 0042bba0 f i render_win32.release:graphicsprotocol.obj
 0001:0002abe0       ??_ESetGlobalBackLightOffset@Graphics@@UAEPAXI@Z 0042bbe0 f i  CIL library: CIL module
 0001:0002abe0       ??_GSetGlobalBackLightOffset@Graphics@@UAEPAXI@Z 0042bbe0 f i render_win32.release:graphicsprotocol.obj
 0001:0002ac20       ??1SetGlobalBackLightOffset@Graphics@@UAE@XZ 0042bc20 f i render_win32.release:graphicsprotocol.obj
 0001:0002ac40       ??2SetGlobalLightParams@Graphics@@SAPAXI@Z 0042bc40 f i render_win32.release:graphicsprotocol.obj
 0001:0002ac50       ??3SetGlobalLightParams@Graphics@@SAXPAX@Z 0042bc50 f i render_win32.release:graphicsprotocol.obj
 0001:0002ac70       ??0SetGlobalLightParams@Graphics@@QAE@XZ 0042bc70 f i render_win32.release:graphicsprotocol.obj
 0001:0002acb0       ??_ESetGlobalLightParams@Graphics@@UAEPAXI@Z 0042bcb0 f i  CIL library: CIL module
 0001:0002acb0       ??_GSetGlobalLightParams@Graphics@@UAEPAXI@Z 0042bcb0 f i render_win32.release:graphicsprotocol.obj
 0001:0002acf0       ??1SetGlobalLightParams@Graphics@@UAE@XZ 0042bcf0 f i render_win32.release:graphicsprotocol.obj
 0001:0002ad10       ??2SetGlobalLightColor@Graphics@@SAPAXI@Z 0042bd10 f i render_win32.release:graphicsprotocol.obj
 0001:0002ad20       ??3SetGlobalLightColor@Graphics@@SAXPAX@Z 0042bd20 f i render_win32.release:graphicsprotocol.obj
 0001:0002ad40       ??0SetGlobalLightColor@Graphics@@QAE@XZ 0042bd40 f i render_win32.release:graphicsprotocol.obj
 0001:0002ad80       ??_ESetGlobalLightColor@Graphics@@UAEPAXI@Z 0042bd80 f i  CIL library: CIL module
 0001:0002ad80       ??_GSetGlobalLightColor@Graphics@@UAEPAXI@Z 0042bd80 f i render_win32.release:graphicsprotocol.obj
 0001:0002adc0       ??1SetGlobalLightColor@Graphics@@UAE@XZ 0042bdc0 f i render_win32.release:graphicsprotocol.obj
 0001:0002ade0       ??2UpdateTransform@Graphics@@SAPAXI@Z 0042bde0 f i render_win32.release:graphicsprotocol.obj
 0001:0002adf0       ??3UpdateTransform@Graphics@@SAXPAX@Z 0042bdf0 f i render_win32.release:graphicsprotocol.obj
 0001:0002ae10       ??0UpdateTransform@Graphics@@QAE@XZ 0042be10 f i render_win32.release:graphicsprotocol.obj
 0001:0002aef0       ??_EUpdateTransform@Graphics@@UAEPAXI@Z 0042bef0 f i  CIL library: CIL module
 0001:0002aef0       ??_GUpdateTransform@Graphics@@UAEPAXI@Z 0042bef0 f i render_win32.release:graphicsprotocol.obj
 0001:0002af30       ??1UpdateTransform@Graphics@@UAE@XZ 0042bf30 f i render_win32.release:graphicsprotocol.obj
 0001:0002af50       ??2SetVisibility@Graphics@@SAPAXI@Z 0042bf50 f i render_win32.release:graphicsprotocol.obj
 0001:0002af60       ??3SetVisibility@Graphics@@SAXPAX@Z 0042bf60 f i render_win32.release:graphicsprotocol.obj
 0001:0002af80       ??0SetVisibility@Graphics@@QAE@XZ 0042bf80 f i render_win32.release:graphicsprotocol.obj
 0001:0002afc0       ??_GSetVisibility@Graphics@@UAEPAXI@Z 0042bfc0 f i render_win32.release:graphicsprotocol.obj
 0001:0002afc0       ??_ESetVisibility@Graphics@@UAEPAXI@Z 0042bfc0 f i  CIL library: CIL module
 0001:0002b000       ??1SetVisibility@Graphics@@UAE@XZ 0042c000 f i render_win32.release:graphicsprotocol.obj
 0001:0002b020       ??2AttachCameraToView@Graphics@@SAPAXI@Z 0042c020 f i render_win32.release:graphicsprotocol.obj
 0001:0002b030       ??3AttachCameraToView@Graphics@@SAXPAX@Z 0042c030 f i render_win32.release:graphicsprotocol.obj
 0001:0002b050       ??0AttachCameraToView@Graphics@@QAE@XZ 0042c050 f i render_win32.release:graphicsprotocol.obj
 0001:0002b0a0       ??_GAttachCameraToView@Graphics@@UAEPAXI@Z 0042c0a0 f i render_win32.release:graphicsprotocol.obj
 0001:0002b0a0       ??_EAttachCameraToView@Graphics@@UAEPAXI@Z 0042c0a0 f i  CIL library: CIL module
 0001:0002b0e0       ??1AttachCameraToView@Graphics@@UAE@XZ 0042c0e0 f i render_win32.release:graphicsprotocol.obj
 0001:0002b100       ??2RemoveCameraFromView@Graphics@@SAPAXI@Z 0042c100 f i render_win32.release:graphicsprotocol.obj
 0001:0002b110       ??3RemoveCameraFromView@Graphics@@SAXPAX@Z 0042c110 f i render_win32.release:graphicsprotocol.obj
 0001:0002b130       ??0RemoveCameraFromView@Graphics@@QAE@XZ 0042c130 f i render_win32.release:graphicsprotocol.obj
 0001:0002b180       ??_GRemoveCameraFromView@Graphics@@UAEPAXI@Z 0042c180 f i render_win32.release:graphicsprotocol.obj
 0001:0002b180       ??_ERemoveCameraFromView@Graphics@@UAEPAXI@Z 0042c180 f i  CIL library: CIL module
 0001:0002b1c0       ??1RemoveCameraFromView@Graphics@@UAE@XZ 0042c1c0 f i render_win32.release:graphicsprotocol.obj
 0001:0002b1e0       ??2UpdModelNodeInstanceShaderVariable@Graphics@@SAPAXI@Z 0042c1e0 f i render_win32.release:graphicsprotocol.obj
 0001:0002b1f0       ??3UpdModelNodeInstanceShaderVariable@Graphics@@SAXPAX@Z 0042c1f0 f i render_win32.release:graphicsprotocol.obj
 0001:0002b210       ??0UpdModelNodeInstanceShaderVariable@Graphics@@QAE@XZ 0042c210 f i render_win32.release:graphicsprotocol.obj
 0001:0002b290       ??_GUpdModelNodeInstanceShaderVariable@Graphics@@UAEPAXI@Z 0042c290 f i render_win32.release:graphicsprotocol.obj
 0001:0002b290       ??_EUpdModelNodeInstanceShaderVariable@Graphics@@UAEPAXI@Z 0042c290 f i  CIL library: CIL module
 0001:0002b2e0       ??1UpdModelNodeInstanceShaderVariable@Graphics@@UAE@XZ 0042c2e0 f i render_win32.release:graphicsprotocol.obj
 0001:0002b310       ??2UpdModelNodeInstanceVisibility@Graphics@@SAPAXI@Z 0042c310 f i render_win32.release:graphicsprotocol.obj
 0001:0002b320       ??3UpdModelNodeInstanceVisibility@Graphics@@SAXPAX@Z 0042c320 f i render_win32.release:graphicsprotocol.obj
 0001:0002b340       ??0UpdModelNodeInstanceVisibility@Graphics@@QAE@XZ 0042c340 f i render_win32.release:graphicsprotocol.obj
 0001:0002b390       ??_GUpdModelNodeInstanceVisibility@Graphics@@UAEPAXI@Z 0042c390 f i render_win32.release:graphicsprotocol.obj
 0001:0002b390       ??_EUpdModelNodeInstanceVisibility@Graphics@@UAEPAXI@Z 0042c390 f i  CIL library: CIL module
 0001:0002b3d0       ??1UpdModelNodeInstanceVisibility@Graphics@@UAE@XZ 0042c3d0 f i render_win32.release:graphicsprotocol.obj
 0001:0002b3f0       ??2UpdateSharedShaderVariable@Graphics@@SAPAXI@Z 0042c3f0 f i render_win32.release:graphicsprotocol.obj
 0001:0002b400       ??3UpdateSharedShaderVariable@Graphics@@SAXPAX@Z 0042c400 f i render_win32.release:graphicsprotocol.obj
 0001:0002b420       ??0UpdateSharedShaderVariable@Graphics@@QAE@XZ 0042c420 f i render_win32.release:graphicsprotocol.obj
 0001:0002b470       ??_EUpdateSharedShaderVariable@Graphics@@UAEPAXI@Z 0042c470 f i  CIL library: CIL module
 0001:0002b470       ??_GUpdateSharedShaderVariable@Graphics@@UAEPAXI@Z 0042c470 f i render_win32.release:graphicsprotocol.obj
 0001:0002b4b0       ??1UpdateSharedShaderVariable@Graphics@@UAE@XZ 0042c4b0 f i render_win32.release:graphicsprotocol.obj
 0001:0002b4d0       ??2AnimPlayClip@Graphics@@SAPAXI@Z 0042c4d0 f i render_win32.release:graphicsprotocol.obj
 0001:0002b4e0       ??3AnimPlayClip@Graphics@@SAXPAX@Z 0042c4e0 f i render_win32.release:graphicsprotocol.obj
 0001:0002b500       ??0AnimPlayClip@Graphics@@QAE@XZ 0042c500 f i render_win32.release:graphicsprotocol.obj
 0001:0002b5b0       ??_EAnimPlayClip@Graphics@@UAEPAXI@Z 0042c5b0 f i  CIL library: CIL module
 0001:0002b5b0       ??_GAnimPlayClip@Graphics@@UAEPAXI@Z 0042c5b0 f i render_win32.release:graphicsprotocol.obj
 0001:0002b5f0       ??1AnimPlayClip@Graphics@@UAE@XZ 0042c5f0 f i render_win32.release:graphicsprotocol.obj
 0001:0002b610       ??2AnimStopTrack@Graphics@@SAPAXI@Z 0042c610 f i render_win32.release:graphicsprotocol.obj
 0001:0002b620       ??3AnimStopTrack@Graphics@@SAXPAX@Z 0042c620 f i render_win32.release:graphicsprotocol.obj
 0001:0002b640       ??0AnimStopTrack@Graphics@@QAE@XZ 0042c640 f i render_win32.release:graphicsprotocol.obj
 0001:0002b690       ??_EAnimStopTrack@Graphics@@UAEPAXI@Z 0042c690 f i  CIL library: CIL module
 0001:0002b690       ??_GAnimStopTrack@Graphics@@UAEPAXI@Z 0042c690 f i render_win32.release:graphicsprotocol.obj
 0001:0002b6d0       ??1AnimStopTrack@Graphics@@UAE@XZ 0042c6d0 f i render_win32.release:graphicsprotocol.obj
 0001:0002b6f0       ??2AnimStopAllTracks@Graphics@@SAPAXI@Z 0042c6f0 f i render_win32.release:graphicsprotocol.obj
 0001:0002b700       ??3AnimStopAllTracks@Graphics@@SAXPAX@Z 0042c700 f i render_win32.release:graphicsprotocol.obj
 0001:0002b720       ??0AnimStopAllTracks@Graphics@@QAE@XZ 0042c720 f i render_win32.release:graphicsprotocol.obj
 0001:0002b760       ??_GAnimStopAllTracks@Graphics@@UAEPAXI@Z 0042c760 f i render_win32.release:graphicsprotocol.obj
 0001:0002b760       ??_EAnimStopAllTracks@Graphics@@UAEPAXI@Z 0042c760 f i  CIL library: CIL module
 0001:0002b7a0       ??1AnimStopAllTracks@Graphics@@UAE@XZ 0042c7a0 f i render_win32.release:graphicsprotocol.obj
 0001:0002b7c0       ??2AnimModifyBlendWeight@Graphics@@SAPAXI@Z 0042c7c0 f i render_win32.release:graphicsprotocol.obj
 0001:0002b7d0       ??3AnimModifyBlendWeight@Graphics@@SAXPAX@Z 0042c7d0 f i render_win32.release:graphicsprotocol.obj
 0001:0002b7f0       ??0AnimModifyBlendWeight@Graphics@@QAE@XZ 0042c7f0 f i render_win32.release:graphicsprotocol.obj
 0001:0002b840       ??_GAnimModifyBlendWeight@Graphics@@UAEPAXI@Z 0042c840 f i render_win32.release:graphicsprotocol.obj
 0001:0002b840       ??_EAnimModifyBlendWeight@Graphics@@UAEPAXI@Z 0042c840 f i  CIL library: CIL module
 0001:0002b880       ??1AnimModifyBlendWeight@Graphics@@UAE@XZ 0042c880 f i render_win32.release:graphicsprotocol.obj
 0001:0002b8a0       ??2AnimModifyTimeFactor@Graphics@@SAPAXI@Z 0042c8a0 f i render_win32.release:graphicsprotocol.obj
 0001:0002b8b0       ??3AnimModifyTimeFactor@Graphics@@SAXPAX@Z 0042c8b0 f i render_win32.release:graphicsprotocol.obj
 0001:0002b8d0       ??0AnimModifyTimeFactor@Graphics@@QAE@XZ 0042c8d0 f i render_win32.release:graphicsprotocol.obj
 0001:0002b920       ??_GAnimModifyTimeFactor@Graphics@@UAEPAXI@Z 0042c920 f i render_win32.release:graphicsprotocol.obj
 0001:0002b920       ??_EAnimModifyTimeFactor@Graphics@@UAEPAXI@Z 0042c920 f i  CIL library: CIL module
 0001:0002b960       ??1AnimModifyTimeFactor@Graphics@@UAE@XZ 0042c960 f i render_win32.release:graphicsprotocol.obj
 0001:0002b980       ??2AnimIsClipPlaying@Graphics@@SAPAXI@Z 0042c980 f i render_win32.release:graphicsprotocol.obj
 0001:0002b990       ??3AnimIsClipPlaying@Graphics@@SAXPAX@Z 0042c990 f i render_win32.release:graphicsprotocol.obj
 0001:0002b9b0       ??0AnimIsClipPlaying@Graphics@@QAE@XZ 0042c9b0 f i render_win32.release:graphicsprotocol.obj
 0001:0002ba00       ??_GAnimIsClipPlaying@Graphics@@UAEPAXI@Z 0042ca00 f i render_win32.release:graphicsprotocol.obj
 0001:0002ba00       ??_EAnimIsClipPlaying@Graphics@@UAEPAXI@Z 0042ca00 f i  CIL library: CIL module
 0001:0002ba40       ??1AnimIsClipPlaying@Graphics@@UAE@XZ 0042ca40 f i render_win32.release:graphicsprotocol.obj
 0001:0002ba60       ??2ApplySkinList@Graphics@@SAPAXI@Z 0042ca60 f i render_win32.release:graphicsprotocol.obj
 0001:0002ba70       ??3ApplySkinList@Graphics@@SAXPAX@Z 0042ca70 f i render_win32.release:graphicsprotocol.obj
 0001:0002ba90       ??0ApplySkinList@Graphics@@QAE@XZ 0042ca90 f i render_win32.release:graphicsprotocol.obj
 0001:0002bae0       ??_EApplySkinList@Graphics@@UAEPAXI@Z 0042cae0 f i  CIL library: CIL module
 0001:0002bae0       ??_GApplySkinList@Graphics@@UAEPAXI@Z 0042cae0 f i render_win32.release:graphicsprotocol.obj
 0001:0002bb20       ??1ApplySkinList@Graphics@@UAE@XZ 0042cb20 f i render_win32.release:graphicsprotocol.obj
 0001:0002bb40       ??2ShowSkin@Graphics@@SAPAXI@Z 0042cb40 f i render_win32.release:graphicsprotocol.obj
 0001:0002bb50       ??3ShowSkin@Graphics@@SAXPAX@Z 0042cb50 f i render_win32.release:graphicsprotocol.obj
 0001:0002bb70       ??0ShowSkin@Graphics@@QAE@XZ 0042cb70 f i render_win32.release:graphicsprotocol.obj
 0001:0002bbc0       ??_GShowSkin@Graphics@@UAEPAXI@Z 0042cbc0 f i render_win32.release:graphicsprotocol.obj
 0001:0002bbc0       ??_EShowSkin@Graphics@@UAEPAXI@Z 0042cbc0 f i  CIL library: CIL module
 0001:0002bc00       ??1ShowSkin@Graphics@@UAE@XZ 0042cc00 f i render_win32.release:graphicsprotocol.obj
 0001:0002bc20       ??2HideSkin@Graphics@@SAPAXI@Z 0042cc20 f i render_win32.release:graphicsprotocol.obj
 0001:0002bc30       ??3HideSkin@Graphics@@SAXPAX@Z 0042cc30 f i render_win32.release:graphicsprotocol.obj
 0001:0002bc50       ??0HideSkin@Graphics@@QAE@XZ 0042cc50 f i render_win32.release:graphicsprotocol.obj
 0001:0002bca0       ??_EHideSkin@Graphics@@UAEPAXI@Z 0042cca0 f i  CIL library: CIL module
 0001:0002bca0       ??_GHideSkin@Graphics@@UAEPAXI@Z 0042cca0 f i render_win32.release:graphicsprotocol.obj
 0001:0002bce0       ??1HideSkin@Graphics@@UAE@XZ 0042cce0 f i render_win32.release:graphicsprotocol.obj
 0001:0002bd00       ??2SetVariation@Graphics@@SAPAXI@Z 0042cd00 f i render_win32.release:graphicsprotocol.obj
 0001:0002bd10       ??3SetVariation@Graphics@@SAXPAX@Z 0042cd10 f i render_win32.release:graphicsprotocol.obj
 0001:0002bd30       ??0SetVariation@Graphics@@QAE@XZ 0042cd30 f i render_win32.release:graphicsprotocol.obj
 0001:0002bd80       ??_ESetVariation@Graphics@@UAEPAXI@Z 0042cd80 f i  CIL library: CIL module
 0001:0002bd80       ??_GSetVariation@Graphics@@UAEPAXI@Z 0042cd80 f i render_win32.release:graphicsprotocol.obj
 0001:0002bdc0       ??1SetVariation@Graphics@@UAE@XZ 0042cdc0 f i render_win32.release:graphicsprotocol.obj
 0001:0002bde0       ??2SetTimeFactor@Graphics@@SAPAXI@Z 0042cde0 f i render_win32.release:graphicsprotocol.obj
 0001:0002bdf0       ??3SetTimeFactor@Graphics@@SAXPAX@Z 0042cdf0 f i render_win32.release:graphicsprotocol.obj
 0001:0002be10       ??0SetTimeFactor@Graphics@@QAE@XZ 0042ce10 f i render_win32.release:graphicsprotocol.obj
 0001:0002be30       ??_ESetTimeFactor@Graphics@@UAEPAXI@Z 0042ce30 f i  CIL library: CIL module
 0001:0002be30       ??_GSetTimeFactor@Graphics@@UAEPAXI@Z 0042ce30 f i render_win32.release:graphicsprotocol.obj
 0001:0002be60       ??1SetTimeFactor@Graphics@@UAE@XZ 0042ce60 f i render_win32.release:graphicsprotocol.obj
 0001:0002be80       ??2UnbindAttachment@Graphics@@SAPAXI@Z 0042ce80 f i render_win32.release:graphicsprotocol.obj
 0001:0002be90       ??3UnbindAttachment@Graphics@@SAXPAX@Z 0042ce90 f i render_win32.release:graphicsprotocol.obj
 0001:0002beb0       ??0UnbindAttachment@Graphics@@QAE@XZ 0042ceb0 f i render_win32.release:graphicsprotocol.obj
 0001:0002bf10       ??_GUnbindAttachment@Graphics@@UAEPAXI@Z 0042cf10 f i render_win32.release:graphicsprotocol.obj
 0001:0002bf10       ??_EUnbindAttachment@Graphics@@UAEPAXI@Z 0042cf10 f i  CIL library: CIL module
 0001:0002bf60       ??1UnbindAttachment@Graphics@@UAE@XZ 0042cf60 f i render_win32.release:graphicsprotocol.obj
 0001:0002bf90       ??2BindAttachment@Graphics@@SAPAXI@Z 0042cf90 f i render_win32.release:graphicsprotocol.obj
 0001:0002bfa0       ??3BindAttachment@Graphics@@SAXPAX@Z 0042cfa0 f i render_win32.release:graphicsprotocol.obj
 0001:0002bfc0       ??0BindAttachment@Graphics@@QAE@XZ 0042cfc0 f i render_win32.release:graphicsprotocol.obj
 0001:0002c080       ??_GBindAttachment@Graphics@@UAEPAXI@Z 0042d080 f i render_win32.release:graphicsprotocol.obj
 0001:0002c080       ??_EBindAttachment@Graphics@@UAEPAXI@Z 0042d080 f i  CIL library: CIL module
 0001:0002c0d0       ??1BindAttachment@Graphics@@UAE@XZ 0042d0d0 f i render_win32.release:graphicsprotocol.obj
 0001:0002c100       ??2SwitchAttachmentToNewJoint@Graphics@@SAPAXI@Z 0042d100 f i render_win32.release:graphicsprotocol.obj
 0001:0002c110       ??3SwitchAttachmentToNewJoint@Graphics@@SAXPAX@Z 0042d110 f i render_win32.release:graphicsprotocol.obj
 0001:0002c130       ??0SwitchAttachmentToNewJoint@Graphics@@QAE@XZ 0042d130 f i render_win32.release:graphicsprotocol.obj
 0001:0002c180       ??_GSwitchAttachmentToNewJoint@Graphics@@UAEPAXI@Z 0042d180 f i render_win32.release:graphicsprotocol.obj
 0001:0002c180       ??_ESwitchAttachmentToNewJoint@Graphics@@UAEPAXI@Z 0042d180 f i  CIL library: CIL module
 0001:0002c1d0       ??1SwitchAttachmentToNewJoint@Graphics@@UAE@XZ 0042d1d0 f i render_win32.release:graphicsprotocol.obj
 0001:0002c200       ??2BaseAnimEventMessage@Graphics@@SAPAXI@Z 0042d200 f i render_win32.release:graphicsprotocol.obj
 0001:0002c210       ??3BaseAnimEventMessage@Graphics@@SAXPAX@Z 0042d210 f i render_win32.release:graphicsprotocol.obj
 0001:0002c230       ??0BaseAnimEventMessage@Graphics@@QAE@XZ 0042d230 f i render_win32.release:graphicsprotocol.obj
 0001:0002c270       ??_GBaseAnimEventMessage@Graphics@@UAEPAXI@Z 0042d270 f i render_win32.release:graphicsprotocol.obj
 0001:0002c270       ??_EBaseAnimEventMessage@Graphics@@UAEPAXI@Z 0042d270 f i  CIL library: CIL module
 0001:0002c2b0       ??1BaseAnimEventMessage@Graphics@@UAE@XZ 0042d2b0 f i render_win32.release:graphicsprotocol.obj
 0001:0002c2d0       ??2RegisterAnimEventHandler@Graphics@@SAPAXI@Z 0042d2d0 f i render_win32.release:graphicsprotocol.obj
 0001:0002c2e0       ??3RegisterAnimEventHandler@Graphics@@SAXPAX@Z 0042d2e0 f i render_win32.release:graphicsprotocol.obj
 0001:0002c300       ??0RegisterAnimEventHandler@Graphics@@QAE@XZ 0042d300 f i render_win32.release:graphicsprotocol.obj
 0001:0002c330       ??_GRegisterAnimEventHandler@Graphics@@UAEPAXI@Z 0042d330 f i render_win32.release:graphicsprotocol.obj
 0001:0002c330       ??_ERegisterAnimEventHandler@Graphics@@UAEPAXI@Z 0042d330 f i  CIL library: CIL module
 0001:0002c370       ??1RegisterAnimEventHandler@Graphics@@UAE@XZ 0042d370 f i render_win32.release:graphicsprotocol.obj
 0001:0002c390       ??2UnregisterAnimEventHandler@Graphics@@SAPAXI@Z 0042d390 f i render_win32.release:graphicsprotocol.obj
 0001:0002c3a0       ??3UnregisterAnimEventHandler@Graphics@@SAXPAX@Z 0042d3a0 f i render_win32.release:graphicsprotocol.obj
 0001:0002c3c0       ??0UnregisterAnimEventHandler@Graphics@@QAE@XZ 0042d3c0 f i render_win32.release:graphicsprotocol.obj
 0001:0002c400       ??_EUnregisterAnimEventHandler@Graphics@@UAEPAXI@Z 0042d400 f i  CIL library: CIL module
 0001:0002c400       ??_GUnregisterAnimEventHandler@Graphics@@UAEPAXI@Z 0042d400 f i render_win32.release:graphicsprotocol.obj
 0001:0002c430       ??1UnregisterAnimEventHandler@Graphics@@UAE@XZ 0042d430 f i render_win32.release:graphicsprotocol.obj
 0001:0002c450       ??2PreloadMousePointerTextures@Graphics@@SAPAXI@Z 0042d450 f i render_win32.release:graphicsprotocol.obj
 0001:0002c460       ??3PreloadMousePointerTextures@Graphics@@SAXPAX@Z 0042d460 f i render_win32.release:graphicsprotocol.obj
 0001:0002c480       ??0PreloadMousePointerTextures@Graphics@@QAE@XZ 0042d480 f i render_win32.release:graphicsprotocol.obj
 0001:0002c4b0       ??_EPreloadMousePointerTextures@Graphics@@UAEPAXI@Z 0042d4b0 f i  CIL library: CIL module
 0001:0002c4b0       ??_GPreloadMousePointerTextures@Graphics@@UAEPAXI@Z 0042d4b0 f i render_win32.release:graphicsprotocol.obj
 0001:0002c4f0       ??1PreloadMousePointerTextures@Graphics@@UAE@XZ 0042d4f0 f i render_win32.release:graphicsprotocol.obj
 0001:0002c510       ??2UpdateMousePointers@Graphics@@SAPAXI@Z 0042d510 f i render_win32.release:graphicsprotocol.obj
 0001:0002c520       ??3UpdateMousePointers@Graphics@@SAXPAX@Z 0042d520 f i render_win32.release:graphicsprotocol.obj
 0001:0002c540       ??0UpdateMousePointers@Graphics@@QAE@XZ 0042d540 f i render_win32.release:graphicsprotocol.obj
 0001:0002c570       ??_EUpdateMousePointers@Graphics@@UAEPAXI@Z 0042d570 f i  CIL library: CIL module
 0001:0002c570       ??_GUpdateMousePointers@Graphics@@UAEPAXI@Z 0042d570 f i render_win32.release:graphicsprotocol.obj
 0001:0002c5b0       ??1UpdateMousePointers@Graphics@@UAE@XZ 0042d5b0 f i render_win32.release:graphicsprotocol.obj
 0001:0002c5d0       ??2HoldSharedResources@Graphics@@SAPAXI@Z 0042d5d0 f i render_win32.release:graphicsprotocol.obj
 0001:0002c5e0       ??3HoldSharedResources@Graphics@@SAXPAX@Z 0042d5e0 f i render_win32.release:graphicsprotocol.obj
 0001:0002c600       ??0HoldSharedResources@Graphics@@QAE@XZ 0042d600 f i render_win32.release:graphicsprotocol.obj
 0001:0002c620       ??_GHoldSharedResources@Graphics@@UAEPAXI@Z 0042d620 f i render_win32.release:graphicsprotocol.obj
 0001:0002c620       ??_EHoldSharedResources@Graphics@@UAEPAXI@Z 0042d620 f i  CIL library: CIL module
 0001:0002c650       ??1HoldSharedResources@Graphics@@UAE@XZ 0042d650 f i render_win32.release:graphicsprotocol.obj
 0001:0002c670       ??2ReleaseSharedResources@Graphics@@SAPAXI@Z 0042d670 f i render_win32.release:graphicsprotocol.obj
 0001:0002c680       ??3ReleaseSharedResources@Graphics@@SAXPAX@Z 0042d680 f i render_win32.release:graphicsprotocol.obj
 0001:0002c6a0       ??0ReleaseSharedResources@Graphics@@QAE@XZ 0042d6a0 f i render_win32.release:graphicsprotocol.obj
 0001:0002c6c0       ??_GReleaseSharedResources@Graphics@@UAEPAXI@Z 0042d6c0 f i render_win32.release:graphicsprotocol.obj
 0001:0002c6c0       ??_EReleaseSharedResources@Graphics@@UAEPAXI@Z 0042d6c0 f i  CIL library: CIL module
 0001:0002c6f0       ??1ReleaseSharedResources@Graphics@@UAE@XZ 0042d6f0 f i render_win32.release:graphicsprotocol.obj
 0001:0002c710       ??2SetAnimatorTime@Graphics@@SAPAXI@Z 0042d710 f i render_win32.release:graphicsprotocol.obj
 0001:0002c720       ??3SetAnimatorTime@Graphics@@SAXPAX@Z 0042d720 f i render_win32.release:graphicsprotocol.obj
 0001:0002c740       ??0SetAnimatorTime@Graphics@@QAE@XZ 0042d740 f i render_win32.release:graphicsprotocol.obj
 0001:0002c790       ??_GSetAnimatorTime@Graphics@@UAEPAXI@Z 0042d790 f i render_win32.release:graphicsprotocol.obj
 0001:0002c790       ??_ESetAnimatorTime@Graphics@@UAEPAXI@Z 0042d790 f i  CIL library: CIL module
 0001:0002c7d0       ??1SetAnimatorTime@Graphics@@UAE@XZ 0042d7d0 f i render_win32.release:graphicsprotocol.obj
 0001:0002c7f0       ??2UpdateCameraEntity@Graphics@@SAPAXI@Z 0042d7f0 f i render_win32.release:graphicsprotocol.obj
 0001:0002c800       ??3UpdateCameraEntity@Graphics@@SAXPAX@Z 0042d800 f i render_win32.release:graphicsprotocol.obj
 0001:0002c820       ??0UpdateCameraEntity@Graphics@@QAE@XZ 0042d820 f i render_win32.release:graphicsprotocol.obj
 0001:0002c860       ??_GUpdateCameraEntity@Graphics@@UAEPAXI@Z 0042d860 f i render_win32.release:graphicsprotocol.obj
 0001:0002c860       ??_EUpdateCameraEntity@Graphics@@UAEPAXI@Z 0042d860 f i  CIL library: CIL module
 0001:0002c8a0       ??1UpdateCameraEntity@Graphics@@UAE@XZ 0042d8a0 f i render_win32.release:graphicsprotocol.obj
 0001:0002c8c0       ??2SetShadowPointOfInterest@Graphics@@SAPAXI@Z 0042d8c0 f i render_win32.release:graphicsprotocol.obj
 0001:0002c8d0       ??3SetShadowPointOfInterest@Graphics@@SAXPAX@Z 0042d8d0 f i render_win32.release:graphicsprotocol.obj
 0001:0002c8f0       ??0SetShadowPointOfInterest@Graphics@@QAE@XZ 0042d8f0 f i render_win32.release:graphicsprotocol.obj
 0001:0002c9a0       ??_GSetShadowPointOfInterest@Graphics@@UAEPAXI@Z 0042d9a0 f i render_win32.release:graphicsprotocol.obj
 0001:0002c9a0       ??_ESetShadowPointOfInterest@Graphics@@UAEPAXI@Z 0042d9a0 f i  CIL library: CIL module
 0001:0002c9d0       ??1SetShadowPointOfInterest@Graphics@@UAE@XZ 0042d9d0 f i render_win32.release:graphicsprotocol.obj
 0001:0002c9f0       ?GetRtti@RegisterRTPlugin@Graphics@@UBEPAVRtti@Core@@XZ 0042d9f0 f   render_win32.release:graphicsprotocol.obj
 0001:0002ca00       ?FactoryCreator@RegisterRTPlugin@Graphics@@SAPAVRefCounted@Core@@XZ 0042da00 f   render_win32.release:graphicsprotocol.obj
 0001:0002ca10       ?Create@RegisterRTPlugin@Graphics@@SAPAV12@XZ 0042da10 f   render_win32.release:graphicsprotocol.obj
 0001:0002ca50       ?RegisterWithFactory@RegisterRTPlugin@Graphics@@SA_NXZ 0042da50 f   render_win32.release:graphicsprotocol.obj
 0001:0002cb50       ?GetId@RegisterRTPlugin@Graphics@@UBEABVId@Messaging@@XZ 0042db50 f   render_win32.release:graphicsprotocol.obj
 0001:0002cb60       ?GetRtti@UnregisterRTPlugin@Graphics@@UBEPAVRtti@Core@@XZ 0042db60 f   render_win32.release:graphicsprotocol.obj
 0001:0002cb70       ?FactoryCreator@UnregisterRTPlugin@Graphics@@SAPAVRefCounted@Core@@XZ 0042db70 f   render_win32.release:graphicsprotocol.obj
 0001:0002cb80       ?Create@UnregisterRTPlugin@Graphics@@SAPAV12@XZ 0042db80 f   render_win32.release:graphicsprotocol.obj
 0001:0002cbc0       ?RegisterWithFactory@UnregisterRTPlugin@Graphics@@SA_NXZ 0042dbc0 f   render_win32.release:graphicsprotocol.obj
 0001:0002ccc0       ?GetId@UnregisterRTPlugin@Graphics@@UBEABVId@Messaging@@XZ 0042dcc0 f   render_win32.release:graphicsprotocol.obj
 0001:0002ccd0       ?GetRtti@SetupGraphics@Graphics@@UBEPAVRtti@Core@@XZ 0042dcd0 f   render_win32.release:graphicsprotocol.obj
 0001:0002cce0       ?FactoryCreator@SetupGraphics@Graphics@@SAPAVRefCounted@Core@@XZ 0042dce0 f   render_win32.release:graphicsprotocol.obj
 0001:0002ccf0       ?Create@SetupGraphics@Graphics@@SAPAV12@XZ 0042dcf0 f   render_win32.release:graphicsprotocol.obj
 0001:0002cd30       ?RegisterWithFactory@SetupGraphics@Graphics@@SA_NXZ 0042dd30 f   render_win32.release:graphicsprotocol.obj
 0001:0002ce30       ?GetId@SetupGraphics@Graphics@@UBEABVId@Messaging@@XZ 0042de30 f   render_win32.release:graphicsprotocol.obj
 0001:0002ce40       ?GetRtti@AdapterExists@Graphics@@UBEPAVRtti@Core@@XZ 0042de40 f   render_win32.release:graphicsprotocol.obj
 0001:0002ce50       ?FactoryCreator@AdapterExists@Graphics@@SAPAVRefCounted@Core@@XZ 0042de50 f   render_win32.release:graphicsprotocol.obj
 0001:0002ce60       ?Create@AdapterExists@Graphics@@SAPAV12@XZ 0042de60 f   render_win32.release:graphicsprotocol.obj
 0001:0002cea0       ?RegisterWithFactory@AdapterExists@Graphics@@SA_NXZ 0042dea0 f   render_win32.release:graphicsprotocol.obj
 0001:0002cfa0       ?GetId@AdapterExists@Graphics@@UBEABVId@Messaging@@XZ 0042dfa0 f   render_win32.release:graphicsprotocol.obj
 0001:0002cfb0       ?GetRtti@GetAvailableDisplayModes@Graphics@@UBEPAVRtti@Core@@XZ 0042dfb0 f   render_win32.release:graphicsprotocol.obj
 0001:0002cfc0       ?FactoryCreator@GetAvailableDisplayModes@Graphics@@SAPAVRefCounted@Core@@XZ 0042dfc0 f   render_win32.release:graphicsprotocol.obj
 0001:0002cfd0       ?Create@GetAvailableDisplayModes@Graphics@@SAPAV12@XZ 0042dfd0 f   render_win32.release:graphicsprotocol.obj
 0001:0002d020       ?RegisterWithFactory@GetAvailableDisplayModes@Graphics@@SA_NXZ 0042e020 f   render_win32.release:graphicsprotocol.obj
 0001:0002d120       ?GetId@GetAvailableDisplayModes@Graphics@@UBEABVId@Messaging@@XZ 0042e120 f   render_win32.release:graphicsprotocol.obj
 0001:0002d130       ?GetRtti@SupportsDisplayMode@Graphics@@UBEPAVRtti@Core@@XZ 0042e130 f   render_win32.release:graphicsprotocol.obj
 0001:0002d140       ?FactoryCreator@SupportsDisplayMode@Graphics@@SAPAVRefCounted@Core@@XZ 0042e140 f   render_win32.release:graphicsprotocol.obj
 0001:0002d150       ?Create@SupportsDisplayMode@Graphics@@SAPAV12@XZ 0042e150 f   render_win32.release:graphicsprotocol.obj
 0001:0002d190       ?RegisterWithFactory@SupportsDisplayMode@Graphics@@SA_NXZ 0042e190 f   render_win32.release:graphicsprotocol.obj
 0001:0002d290       ?GetId@SupportsDisplayMode@Graphics@@UBEABVId@Messaging@@XZ 0042e290 f   render_win32.release:graphicsprotocol.obj
 0001:0002d2a0       ?GetRtti@AdjustDisplaySize@Graphics@@UBEPAVRtti@Core@@XZ 0042e2a0 f   render_win32.release:graphicsprotocol.obj
 0001:0002d2b0       ?FactoryCreator@AdjustDisplaySize@Graphics@@SAPAVRefCounted@Core@@XZ 0042e2b0 f   render_win32.release:graphicsprotocol.obj
 0001:0002d2c0       ?Create@AdjustDisplaySize@Graphics@@SAPAV12@XZ 0042e2c0 f   render_win32.release:graphicsprotocol.obj
 0001:0002d300       ?RegisterWithFactory@AdjustDisplaySize@Graphics@@SA_NXZ 0042e300 f   render_win32.release:graphicsprotocol.obj
 0001:0002d400       ?GetId@AdjustDisplaySize@Graphics@@UBEABVId@Messaging@@XZ 0042e400 f   render_win32.release:graphicsprotocol.obj
 0001:0002d410       ?GetRtti@GetCurrentAdapterDisplayMode@Graphics@@UBEPAVRtti@Core@@XZ 0042e410 f   render_win32.release:graphicsprotocol.obj
 0001:0002d420       ?FactoryCreator@GetCurrentAdapterDisplayMode@Graphics@@SAPAVRefCounted@Core@@XZ 0042e420 f   render_win32.release:graphicsprotocol.obj
 0001:0002d430       ?Create@GetCurrentAdapterDisplayMode@Graphics@@SAPAV12@XZ 0042e430 f   render_win32.release:graphicsprotocol.obj
 0001:0002d470       ?RegisterWithFactory@GetCurrentAdapterDisplayMode@Graphics@@SA_NXZ 0042e470 f   render_win32.release:graphicsprotocol.obj
 0001:0002d570       ?GetId@GetCurrentAdapterDisplayMode@Graphics@@UBEABVId@Messaging@@XZ 0042e570 f   render_win32.release:graphicsprotocol.obj
 0001:0002d580       ?GetRtti@GetAdapterInfo@Graphics@@UBEPAVRtti@Core@@XZ 0042e580 f   render_win32.release:graphicsprotocol.obj
 0001:0002d590       ?FactoryCreator@GetAdapterInfo@Graphics@@SAPAVRefCounted@Core@@XZ 0042e590 f   render_win32.release:graphicsprotocol.obj
 0001:0002d5a0       ?Create@GetAdapterInfo@Graphics@@SAPAV12@XZ 0042e5a0 f   render_win32.release:graphicsprotocol.obj
 0001:0002d5f0       ?RegisterWithFactory@GetAdapterInfo@Graphics@@SA_NXZ 0042e5f0 f   render_win32.release:graphicsprotocol.obj
 0001:0002d6f0       ?GetId@GetAdapterInfo@Graphics@@UBEABVId@Messaging@@XZ 0042e6f0 f   render_win32.release:graphicsprotocol.obj
 0001:0002d700       ?GetRtti@AttachDisplayEventHandler@Graphics@@UBEPAVRtti@Core@@XZ 0042e700 f   render_win32.release:graphicsprotocol.obj
 0001:0002d710       ?FactoryCreator@AttachDisplayEventHandler@Graphics@@SAPAVRefCounted@Core@@XZ 0042e710 f   render_win32.release:graphicsprotocol.obj
 0001:0002d720       ?Create@AttachDisplayEventHandler@Graphics@@SAPAV12@XZ 0042e720 f   render_win32.release:graphicsprotocol.obj
 0001:0002d770       ?RegisterWithFactory@AttachDisplayEventHandler@Graphics@@SA_NXZ 0042e770 f   render_win32.release:graphicsprotocol.obj
 0001:0002d870       ?GetId@AttachDisplayEventHandler@Graphics@@UBEABVId@Messaging@@XZ 0042e870 f   render_win32.release:graphicsprotocol.obj
 0001:0002d880       ?GetRtti@RemoveDisplayEventHandler@Graphics@@UBEPAVRtti@Core@@XZ 0042e880 f   render_win32.release:graphicsprotocol.obj
 0001:0002d890       ?FactoryCreator@RemoveDisplayEventHandler@Graphics@@SAPAVRefCounted@Core@@XZ 0042e890 f   render_win32.release:graphicsprotocol.obj
 0001:0002d8a0       ?Create@RemoveDisplayEventHandler@Graphics@@SAPAV12@XZ 0042e8a0 f   render_win32.release:graphicsprotocol.obj
 0001:0002d8f0       ?RegisterWithFactory@RemoveDisplayEventHandler@Graphics@@SA_NXZ 0042e8f0 f   render_win32.release:graphicsprotocol.obj
 0001:0002d9f0       ?GetId@RemoveDisplayEventHandler@Graphics@@UBEABVId@Messaging@@XZ 0042e9f0 f   render_win32.release:graphicsprotocol.obj
 0001:0002da00       ?GetRtti@AttachRenderEventHandler@Graphics@@UBEPAVRtti@Core@@XZ 0042ea00 f   render_win32.release:graphicsprotocol.obj
 0001:0002da10       ?FactoryCreator@AttachRenderEventHandler@Graphics@@SAPAVRefCounted@Core@@XZ 0042ea10 f   render_win32.release:graphicsprotocol.obj
 0001:0002da20       ?Create@AttachRenderEventHandler@Graphics@@SAPAV12@XZ 0042ea20 f   render_win32.release:graphicsprotocol.obj
 0001:0002da70       ?RegisterWithFactory@AttachRenderEventHandler@Graphics@@SA_NXZ 0042ea70 f   render_win32.release:graphicsprotocol.obj
 0001:0002db70       ?GetId@AttachRenderEventHandler@Graphics@@UBEABVId@Messaging@@XZ 0042eb70 f   render_win32.release:graphicsprotocol.obj
 0001:0002db80       ?GetRtti@RemoveRenderEventHandler@Graphics@@UBEPAVRtti@Core@@XZ 0042eb80 f   render_win32.release:graphicsprotocol.obj
 0001:0002db90       ?FactoryCreator@RemoveRenderEventHandler@Graphics@@SAPAVRefCounted@Core@@XZ 0042eb90 f   render_win32.release:graphicsprotocol.obj
 0001:0002dba0       ?Create@RemoveRenderEventHandler@Graphics@@SAPAV12@XZ 0042eba0 f   render_win32.release:graphicsprotocol.obj
 0001:0002dbf0       ?RegisterWithFactory@RemoveRenderEventHandler@Graphics@@SA_NXZ 0042ebf0 f   render_win32.release:graphicsprotocol.obj
 0001:0002dcf0       ?GetId@RemoveRenderEventHandler@Graphics@@UBEABVId@Messaging@@XZ 0042ecf0 f   render_win32.release:graphicsprotocol.obj
 0001:0002dd00       ?GetRtti@CreateGraphicsStage@Graphics@@UBEPAVRtti@Core@@XZ 0042ed00 f   render_win32.release:graphicsprotocol.obj
 0001:0002dd10       ?FactoryCreator@CreateGraphicsStage@Graphics@@SAPAVRefCounted@Core@@XZ 0042ed10 f   render_win32.release:graphicsprotocol.obj
 0001:0002dd20       ?Create@CreateGraphicsStage@Graphics@@SAPAV12@XZ 0042ed20 f   render_win32.release:graphicsprotocol.obj
 0001:0002dd60       ?RegisterWithFactory@CreateGraphicsStage@Graphics@@SA_NXZ 0042ed60 f   render_win32.release:graphicsprotocol.obj
 0001:0002de60       ?GetId@CreateGraphicsStage@Graphics@@UBEABVId@Messaging@@XZ 0042ee60 f   render_win32.release:graphicsprotocol.obj
 0001:0002de70       ?GetRtti@DiscardGraphicsStage@Graphics@@UBEPAVRtti@Core@@XZ 0042ee70 f   render_win32.release:graphicsprotocol.obj
 0001:0002de80       ?FactoryCreator@DiscardGraphicsStage@Graphics@@SAPAVRefCounted@Core@@XZ 0042ee80 f   render_win32.release:graphicsprotocol.obj
 0001:0002de90       ?Create@DiscardGraphicsStage@Graphics@@SAPAV12@XZ 0042ee90 f   render_win32.release:graphicsprotocol.obj
 0001:0002dee0       ?RegisterWithFactory@DiscardGraphicsStage@Graphics@@SA_NXZ 0042eee0 f   render_win32.release:graphicsprotocol.obj
 0001:0002dfe0       ?GetId@DiscardGraphicsStage@Graphics@@UBEABVId@Messaging@@XZ 0042efe0 f   render_win32.release:graphicsprotocol.obj
 0001:0002dff0       ?GetRtti@CreateGraphicsView@Graphics@@UBEPAVRtti@Core@@XZ 0042eff0 f   render_win32.release:graphicsprotocol.obj
 0001:0002e000       ?FactoryCreator@CreateGraphicsView@Graphics@@SAPAVRefCounted@Core@@XZ 0042f000 f   render_win32.release:graphicsprotocol.obj
 0001:0002e010       ?Create@CreateGraphicsView@Graphics@@SAPAV12@XZ 0042f010 f   render_win32.release:graphicsprotocol.obj
 0001:0002e050       ?RegisterWithFactory@CreateGraphicsView@Graphics@@SA_NXZ 0042f050 f   render_win32.release:graphicsprotocol.obj
 0001:0002e150       ?GetId@CreateGraphicsView@Graphics@@UBEABVId@Messaging@@XZ 0042f150 f   render_win32.release:graphicsprotocol.obj
 0001:0002e160       ?GetRtti@DiscardGraphicsView@Graphics@@UBEPAVRtti@Core@@XZ 0042f160 f   render_win32.release:graphicsprotocol.obj
 0001:0002e170       ?FactoryCreator@DiscardGraphicsView@Graphics@@SAPAVRefCounted@Core@@XZ 0042f170 f   render_win32.release:graphicsprotocol.obj
 0001:0002e180       ?Create@DiscardGraphicsView@Graphics@@SAPAV12@XZ 0042f180 f   render_win32.release:graphicsprotocol.obj
 0001:0002e1d0       ?RegisterWithFactory@DiscardGraphicsView@Graphics@@SA_NXZ 0042f1d0 f   render_win32.release:graphicsprotocol.obj
 0001:0002e2d0       ?GetId@DiscardGraphicsView@Graphics@@UBEABVId@Messaging@@XZ 0042f2d0 f   render_win32.release:graphicsprotocol.obj
 0001:0002e2e0       ?GetRtti@SetDefaultGraphicsView@Graphics@@UBEPAVRtti@Core@@XZ 0042f2e0 f   render_win32.release:graphicsprotocol.obj
 0001:0002e2f0       ?FactoryCreator@SetDefaultGraphicsView@Graphics@@SAPAVRefCounted@Core@@XZ 0042f2f0 f   render_win32.release:graphicsprotocol.obj
 0001:0002e300       ?Create@SetDefaultGraphicsView@Graphics@@SAPAV12@XZ 0042f300 f   render_win32.release:graphicsprotocol.obj
 0001:0002e350       ?RegisterWithFactory@SetDefaultGraphicsView@Graphics@@SA_NXZ 0042f350 f   render_win32.release:graphicsprotocol.obj
 0001:0002e450       ?GetId@SetDefaultGraphicsView@Graphics@@UBEABVId@Messaging@@XZ 0042f450 f   render_win32.release:graphicsprotocol.obj
 0001:0002e460       ?GetRtti@CreateGraphicsEntity@Graphics@@UBEPAVRtti@Core@@XZ 0042f460 f   render_win32.release:graphicsprotocol.obj
 0001:0002e470       ?FactoryCreator@CreateGraphicsEntity@Graphics@@SAPAVRefCounted@Core@@XZ 0042f470 f   render_win32.release:graphicsprotocol.obj
 0001:0002e480       ?Create@CreateGraphicsEntity@Graphics@@SAPAV12@XZ 0042f480 f   render_win32.release:graphicsprotocol.obj
 0001:0002e4c0       ?RegisterWithFactory@CreateGraphicsEntity@Graphics@@SA_NXZ 0042f4c0 f   render_win32.release:graphicsprotocol.obj
 0001:0002e5c0       ?GetId@CreateGraphicsEntity@Graphics@@UBEABVId@Messaging@@XZ 0042f5c0 f   render_win32.release:graphicsprotocol.obj
 0001:0002e5d0       ?GetRtti@CreateModelEntity@Graphics@@UBEPAVRtti@Core@@XZ 0042f5d0 f   render_win32.release:graphicsprotocol.obj
 0001:0002e5e0       ?FactoryCreator@CreateModelEntity@Graphics@@SAPAVRefCounted@Core@@XZ 0042f5e0 f   render_win32.release:graphicsprotocol.obj
 0001:0002e5f0       ?Create@CreateModelEntity@Graphics@@SAPAV12@XZ 0042f5f0 f   render_win32.release:graphicsprotocol.obj
 0001:0002e630       ?RegisterWithFactory@CreateModelEntity@Graphics@@SA_NXZ 0042f630 f   render_win32.release:graphicsprotocol.obj
 0001:0002e730       ?GetId@CreateModelEntity@Graphics@@UBEABVId@Messaging@@XZ 0042f730 f   render_win32.release:graphicsprotocol.obj
 0001:0002e740       ?GetRtti@CreateCameraEntity@Graphics@@UBEPAVRtti@Core@@XZ 0042f740 f   render_win32.release:graphicsprotocol.obj
 0001:0002e750       ?FactoryCreator@CreateCameraEntity@Graphics@@SAPAVRefCounted@Core@@XZ 0042f750 f   render_win32.release:graphicsprotocol.obj
 0001:0002e760       ?Create@CreateCameraEntity@Graphics@@SAPAV12@XZ 0042f760 f   render_win32.release:graphicsprotocol.obj
 0001:0002e7c0       ?RegisterWithFactory@CreateCameraEntity@Graphics@@SA_NXZ 0042f7c0 f   render_win32.release:graphicsprotocol.obj
 0001:0002e8c0       ?GetId@CreateCameraEntity@Graphics@@UBEABVId@Messaging@@XZ 0042f8c0 f   render_win32.release:graphicsprotocol.obj
 0001:0002e8d0       ?GetRtti@CreateGlobalLightEntity@Graphics@@UBEPAVRtti@Core@@XZ 0042f8d0 f   render_win32.release:graphicsprotocol.obj
 0001:0002e8e0       ?FactoryCreator@CreateGlobalLightEntity@Graphics@@SAPAVRefCounted@Core@@XZ 0042f8e0 f   render_win32.release:graphicsprotocol.obj
 0001:0002e8f0       ?Create@CreateGlobalLightEntity@Graphics@@SAPAV12@XZ 0042f8f0 f   render_win32.release:graphicsprotocol.obj
 0001:0002e940       ?RegisterWithFactory@CreateGlobalLightEntity@Graphics@@SA_NXZ 0042f940 f   render_win32.release:graphicsprotocol.obj
 0001:0002ea40       ?GetId@CreateGlobalLightEntity@Graphics@@UBEABVId@Messaging@@XZ 0042fa40 f   render_win32.release:graphicsprotocol.obj
 0001:0002ea50       ?GetRtti@CreateSpotLightEntity@Graphics@@UBEPAVRtti@Core@@XZ 0042fa50 f   render_win32.release:graphicsprotocol.obj
 0001:0002ea60       ?FactoryCreator@CreateSpotLightEntity@Graphics@@SAPAVRefCounted@Core@@XZ 0042fa60 f   render_win32.release:graphicsprotocol.obj
 0001:0002ea70       ?Create@CreateSpotLightEntity@Graphics@@SAPAV12@XZ 0042fa70 f   render_win32.release:graphicsprotocol.obj
 0001:0002eac0       ?RegisterWithFactory@CreateSpotLightEntity@Graphics@@SA_NXZ 0042fac0 f   render_win32.release:graphicsprotocol.obj
 0001:0002ebc0       ?GetId@CreateSpotLightEntity@Graphics@@UBEABVId@Messaging@@XZ 0042fbc0 f   render_win32.release:graphicsprotocol.obj
 0001:0002ebd0       ?GetRtti@CreatePointLightEntity@Graphics@@UBEPAVRtti@Core@@XZ 0042fbd0 f   render_win32.release:graphicsprotocol.obj
 0001:0002ebe0       ?FactoryCreator@CreatePointLightEntity@Graphics@@SAPAVRefCounted@Core@@XZ 0042fbe0 f   render_win32.release:graphicsprotocol.obj
 0001:0002ebf0       ?Create@CreatePointLightEntity@Graphics@@SAPAV12@XZ 0042fbf0 f   render_win32.release:graphicsprotocol.obj
 0001:0002ec40       ?RegisterWithFactory@CreatePointLightEntity@Graphics@@SA_NXZ 0042fc40 f   render_win32.release:graphicsprotocol.obj
 0001:0002ed40       ?GetId@CreatePointLightEntity@Graphics@@UBEABVId@Messaging@@XZ 0042fd40 f   render_win32.release:graphicsprotocol.obj
 0001:0002ed50       ?GetRtti@GraphicsEntityMessage@Graphics@@UBEPAVRtti@Core@@XZ 0042fd50 f   render_win32.release:graphicsprotocol.obj
 0001:0002ed60       ?FactoryCreator@GraphicsEntityMessage@Graphics@@SAPAVRefCounted@Core@@XZ 0042fd60 f   render_win32.release:graphicsprotocol.obj
 0001:0002ed70       ?Create@GraphicsEntityMessage@Graphics@@SAPAV12@XZ 0042fd70 f   render_win32.release:graphicsprotocol.obj
 0001:0002edc0       ?RegisterWithFactory@GraphicsEntityMessage@Graphics@@SA_NXZ 0042fdc0 f   render_win32.release:graphicsprotocol.obj
 0001:0002eec0       ?GetId@GraphicsEntityMessage@Graphics@@UBEABVId@Messaging@@XZ 0042fec0 f   render_win32.release:graphicsprotocol.obj
 0001:0002eed0       ?GetRtti@DiscardGraphicsEntity@Graphics@@UBEPAVRtti@Core@@XZ 0042fed0 f   render_win32.release:graphicsprotocol.obj
 0001:0002eee0       ?FactoryCreator@DiscardGraphicsEntity@Graphics@@SAPAVRefCounted@Core@@XZ 0042fee0 f   render_win32.release:graphicsprotocol.obj
 0001:0002eef0       ?Create@DiscardGraphicsEntity@Graphics@@SAPAV12@XZ 0042fef0 f   render_win32.release:graphicsprotocol.obj
 0001:0002ef50       ?RegisterWithFactory@DiscardGraphicsEntity@Graphics@@SA_NXZ 0042ff50 f   render_win32.release:graphicsprotocol.obj
 0001:0002f050       ?GetId@DiscardGraphicsEntity@Graphics@@UBEABVId@Messaging@@XZ 00430050 f   render_win32.release:graphicsprotocol.obj
 0001:0002f060       ?GetRtti@AddTrackedCharJoint@Graphics@@UBEPAVRtti@Core@@XZ 00430060 f   render_win32.release:graphicsprotocol.obj
 0001:0002f070       ?FactoryCreator@AddTrackedCharJoint@Graphics@@SAPAVRefCounted@Core@@XZ 00430070 f   render_win32.release:graphicsprotocol.obj
 0001:0002f080       ?Create@AddTrackedCharJoint@Graphics@@SAPAV12@XZ 00430080 f   render_win32.release:graphicsprotocol.obj
 0001:0002f0f0       ?RegisterWithFactory@AddTrackedCharJoint@Graphics@@SA_NXZ 004300f0 f   render_win32.release:graphicsprotocol.obj
 0001:0002f1f0       ?GetId@AddTrackedCharJoint@Graphics@@UBEABVId@Messaging@@XZ 004301f0 f   render_win32.release:graphicsprotocol.obj
 0001:0002f200       ?GetRtti@SetLightColor@Graphics@@UBEPAVRtti@Core@@XZ 00430200 f   render_win32.release:graphicsprotocol.obj
 0001:0002f210       ?FactoryCreator@SetLightColor@Graphics@@SAPAVRefCounted@Core@@XZ 00430210 f   render_win32.release:graphicsprotocol.obj
 0001:0002f220       ?Create@SetLightColor@Graphics@@SAPAV12@XZ 00430220 f   render_win32.release:graphicsprotocol.obj
 0001:0002f280       ?RegisterWithFactory@SetLightColor@Graphics@@SA_NXZ 00430280 f   render_win32.release:graphicsprotocol.obj
 0001:0002f380       ?GetId@SetLightColor@Graphics@@UBEABVId@Messaging@@XZ 00430380 f   render_win32.release:graphicsprotocol.obj
 0001:0002f390       ?GetRtti@SetLightCastShadows@Graphics@@UBEPAVRtti@Core@@XZ 00430390 f   render_win32.release:graphicsprotocol.obj
 0001:0002f3a0       ?FactoryCreator@SetLightCastShadows@Graphics@@SAPAVRefCounted@Core@@XZ 004303a0 f   render_win32.release:graphicsprotocol.obj
 0001:0002f3b0       ?Create@SetLightCastShadows@Graphics@@SAPAV12@XZ 004303b0 f   render_win32.release:graphicsprotocol.obj
 0001:0002f410       ?RegisterWithFactory@SetLightCastShadows@Graphics@@SA_NXZ 00430410 f   render_win32.release:graphicsprotocol.obj
 0001:0002f510       ?GetId@SetLightCastShadows@Graphics@@UBEABVId@Messaging@@XZ 00430510 f   render_win32.release:graphicsprotocol.obj
 0001:0002f520       ?GetRtti@SetGlobalBackLightColor@Graphics@@UBEPAVRtti@Core@@XZ 00430520 f   render_win32.release:graphicsprotocol.obj
 0001:0002f530       ?FactoryCreator@SetGlobalBackLightColor@Graphics@@SAPAVRefCounted@Core@@XZ 00430530 f   render_win32.release:graphicsprotocol.obj
 0001:0002f540       ?Create@SetGlobalBackLightColor@Graphics@@SAPAV12@XZ 00430540 f   render_win32.release:graphicsprotocol.obj
 0001:0002f5a0       ?RegisterWithFactory@SetGlobalBackLightColor@Graphics@@SA_NXZ 004305a0 f   render_win32.release:graphicsprotocol.obj
 0001:0002f6a0       ?GetId@SetGlobalBackLightColor@Graphics@@UBEABVId@Messaging@@XZ 004306a0 f   render_win32.release:graphicsprotocol.obj
 0001:0002f6b0       ?GetRtti@SetGlobalAmbientLightColor@Graphics@@UBEPAVRtti@Core@@XZ 004306b0 f   render_win32.release:graphicsprotocol.obj
 0001:0002f6c0       ?FactoryCreator@SetGlobalAmbientLightColor@Graphics@@SAPAVRefCounted@Core@@XZ 004306c0 f   render_win32.release:graphicsprotocol.obj
 0001:0002f6d0       ?Create@SetGlobalAmbientLightColor@Graphics@@SAPAV12@XZ 004306d0 f   render_win32.release:graphicsprotocol.obj
 0001:0002f730       ?RegisterWithFactory@SetGlobalAmbientLightColor@Graphics@@SA_NXZ 00430730 f   render_win32.release:graphicsprotocol.obj
 0001:0002f830       ?GetId@SetGlobalAmbientLightColor@Graphics@@UBEABVId@Messaging@@XZ 00430830 f   render_win32.release:graphicsprotocol.obj
 0001:0002f840       ?GetRtti@SetGlobalBackLightOffset@Graphics@@UBEPAVRtti@Core@@XZ 00430840 f   render_win32.release:graphicsprotocol.obj
 0001:0002f850       ?FactoryCreator@SetGlobalBackLightOffset@Graphics@@SAPAVRefCounted@Core@@XZ 00430850 f   render_win32.release:graphicsprotocol.obj
 0001:0002f860       ?Create@SetGlobalBackLightOffset@Graphics@@SAPAV12@XZ 00430860 f   render_win32.release:graphicsprotocol.obj
 0001:0002f8c0       ?RegisterWithFactory@SetGlobalBackLightOffset@Graphics@@SA_NXZ 004308c0 f   render_win32.release:graphicsprotocol.obj
 0001:0002f9c0       ?GetId@SetGlobalBackLightOffset@Graphics@@UBEABVId@Messaging@@XZ 004309c0 f   render_win32.release:graphicsprotocol.obj
 0001:0002f9d0       ?GetRtti@SetGlobalLightParams@Graphics@@UBEPAVRtti@Core@@XZ 004309d0 f   render_win32.release:graphicsprotocol.obj
 0001:0002f9e0       ?FactoryCreator@SetGlobalLightParams@Graphics@@SAPAVRefCounted@Core@@XZ 004309e0 f   render_win32.release:graphicsprotocol.obj
 0001:0002f9f0       ?Create@SetGlobalLightParams@Graphics@@SAPAV12@XZ 004309f0 f   render_win32.release:graphicsprotocol.obj
 0001:0002fa50       ?RegisterWithFactory@SetGlobalLightParams@Graphics@@SA_NXZ 00430a50 f   render_win32.release:graphicsprotocol.obj
 0001:0002fb50       ?GetId@SetGlobalLightParams@Graphics@@UBEABVId@Messaging@@XZ 00430b50 f   render_win32.release:graphicsprotocol.obj
 0001:0002fb60       ?GetRtti@SetGlobalLightColor@Graphics@@UBEPAVRtti@Core@@XZ 00430b60 f   render_win32.release:graphicsprotocol.obj
 0001:0002fb70       ?FactoryCreator@SetGlobalLightColor@Graphics@@SAPAVRefCounted@Core@@XZ 00430b70 f   render_win32.release:graphicsprotocol.obj
 0001:0002fb80       ?Create@SetGlobalLightColor@Graphics@@SAPAV12@XZ 00430b80 f   render_win32.release:graphicsprotocol.obj
 0001:0002fbe0       ?RegisterWithFactory@SetGlobalLightColor@Graphics@@SA_NXZ 00430be0 f   render_win32.release:graphicsprotocol.obj
 0001:0002fce0       ?GetId@SetGlobalLightColor@Graphics@@UBEABVId@Messaging@@XZ 00430ce0 f   render_win32.release:graphicsprotocol.obj
 0001:0002fcf0       ?GetRtti@UpdateTransform@Graphics@@UBEPAVRtti@Core@@XZ 00430cf0 f   render_win32.release:graphicsprotocol.obj
 0001:0002fd00       ?FactoryCreator@UpdateTransform@Graphics@@SAPAVRefCounted@Core@@XZ 00430d00 f   render_win32.release:graphicsprotocol.obj
 0001:0002fd10       ?Create@UpdateTransform@Graphics@@SAPAV12@XZ 00430d10 f   render_win32.release:graphicsprotocol.obj
 0001:0002fd50       ?RegisterWithFactory@UpdateTransform@Graphics@@SA_NXZ 00430d50 f   render_win32.release:graphicsprotocol.obj
 0001:0002fe50       ?GetId@UpdateTransform@Graphics@@UBEABVId@Messaging@@XZ 00430e50 f   render_win32.release:graphicsprotocol.obj
 0001:0002fe60       ?GetRtti@SetVisibility@Graphics@@UBEPAVRtti@Core@@XZ 00430e60 f   render_win32.release:graphicsprotocol.obj
 0001:0002fe70       ?FactoryCreator@SetVisibility@Graphics@@SAPAVRefCounted@Core@@XZ 00430e70 f   render_win32.release:graphicsprotocol.obj
 0001:0002fe80       ?Create@SetVisibility@Graphics@@SAPAV12@XZ 00430e80 f   render_win32.release:graphicsprotocol.obj
 0001:0002fee0       ?RegisterWithFactory@SetVisibility@Graphics@@SA_NXZ 00430ee0 f   render_win32.release:graphicsprotocol.obj
 0001:0002ffe0       ?GetId@SetVisibility@Graphics@@UBEABVId@Messaging@@XZ 00430fe0 f   render_win32.release:graphicsprotocol.obj
 0001:0002fff0       ?GetRtti@AttachCameraToView@Graphics@@UBEPAVRtti@Core@@XZ 00430ff0 f   render_win32.release:graphicsprotocol.obj
 0001:00030000       ?FactoryCreator@AttachCameraToView@Graphics@@SAPAVRefCounted@Core@@XZ 00431000 f   render_win32.release:graphicsprotocol.obj
 0001:00030010       ?Create@AttachCameraToView@Graphics@@SAPAV12@XZ 00431010 f   render_win32.release:graphicsprotocol.obj
 0001:00030080       ?RegisterWithFactory@AttachCameraToView@Graphics@@SA_NXZ 00431080 f   render_win32.release:graphicsprotocol.obj
 0001:00030180       ?GetId@AttachCameraToView@Graphics@@UBEABVId@Messaging@@XZ 00431180 f   render_win32.release:graphicsprotocol.obj
 0001:00030190       ?GetRtti@RemoveCameraFromView@Graphics@@UBEPAVRtti@Core@@XZ 00431190 f   render_win32.release:graphicsprotocol.obj
 0001:000301a0       ?FactoryCreator@RemoveCameraFromView@Graphics@@SAPAVRefCounted@Core@@XZ 004311a0 f   render_win32.release:graphicsprotocol.obj
 0001:000301b0       ?Create@RemoveCameraFromView@Graphics@@SAPAV12@XZ 004311b0 f   render_win32.release:graphicsprotocol.obj
 0001:00030220       ?RegisterWithFactory@RemoveCameraFromView@Graphics@@SA_NXZ 00431220 f   render_win32.release:graphicsprotocol.obj
 0001:00030320       ?GetId@RemoveCameraFromView@Graphics@@UBEABVId@Messaging@@XZ 00431320 f   render_win32.release:graphicsprotocol.obj
 0001:00030330       ?GetRtti@UpdModelNodeInstanceShaderVariable@Graphics@@UBEPAVRtti@Core@@XZ 00431330 f   render_win32.release:graphicsprotocol.obj
 0001:00030340       ?FactoryCreator@UpdModelNodeInstanceShaderVariable@Graphics@@SAPAVRefCounted@Core@@XZ 00431340 f   render_win32.release:graphicsprotocol.obj
 0001:00030350       ?Create@UpdModelNodeInstanceShaderVariable@Graphics@@SAPAV12@XZ 00431350 f   render_win32.release:graphicsprotocol.obj
 0001:00030390       ?RegisterWithFactory@UpdModelNodeInstanceShaderVariable@Graphics@@SA_NXZ 00431390 f   render_win32.release:graphicsprotocol.obj
 0001:00030490       ?GetId@UpdModelNodeInstanceShaderVariable@Graphics@@UBEABVId@Messaging@@XZ 00431490 f   render_win32.release:graphicsprotocol.obj
 0001:000304a0       ?GetRtti@UpdModelNodeInstanceVisibility@Graphics@@UBEPAVRtti@Core@@XZ 004314a0 f   render_win32.release:graphicsprotocol.obj
 0001:000304b0       ?FactoryCreator@UpdModelNodeInstanceVisibility@Graphics@@SAPAVRefCounted@Core@@XZ 004314b0 f   render_win32.release:graphicsprotocol.obj
 0001:000304c0       ?Create@UpdModelNodeInstanceVisibility@Graphics@@SAPAV12@XZ 004314c0 f   render_win32.release:graphicsprotocol.obj
 0001:00030530       ?RegisterWithFactory@UpdModelNodeInstanceVisibility@Graphics@@SA_NXZ 00431530 f   render_win32.release:graphicsprotocol.obj
 0001:00030630       ?GetId@UpdModelNodeInstanceVisibility@Graphics@@UBEABVId@Messaging@@XZ 00431630 f   render_win32.release:graphicsprotocol.obj
 0001:00030640       ?GetRtti@UpdateSharedShaderVariable@Graphics@@UBEPAVRtti@Core@@XZ 00431640 f   render_win32.release:graphicsprotocol.obj
 0001:00030650       ?FactoryCreator@UpdateSharedShaderVariable@Graphics@@SAPAVRefCounted@Core@@XZ 00431650 f   render_win32.release:graphicsprotocol.obj
 0001:00030660       ?Create@UpdateSharedShaderVariable@Graphics@@SAPAV12@XZ 00431660 f   render_win32.release:graphicsprotocol.obj
 0001:000306d0       ?RegisterWithFactory@UpdateSharedShaderVariable@Graphics@@SA_NXZ 004316d0 f   render_win32.release:graphicsprotocol.obj
 0001:000307d0       ?GetId@UpdateSharedShaderVariable@Graphics@@UBEABVId@Messaging@@XZ 004317d0 f   render_win32.release:graphicsprotocol.obj
 0001:000307e0       ?GetRtti@AnimPlayClip@Graphics@@UBEPAVRtti@Core@@XZ 004317e0 f   render_win32.release:graphicsprotocol.obj
 0001:000307f0       ?FactoryCreator@AnimPlayClip@Graphics@@SAPAVRefCounted@Core@@XZ 004317f0 f   render_win32.release:graphicsprotocol.obj
 0001:00030800       ?Create@AnimPlayClip@Graphics@@SAPAV12@XZ 00431800 f   render_win32.release:graphicsprotocol.obj
 0001:00030840       ?RegisterWithFactory@AnimPlayClip@Graphics@@SA_NXZ 00431840 f   render_win32.release:graphicsprotocol.obj
 0001:00030940       ?GetId@AnimPlayClip@Graphics@@UBEABVId@Messaging@@XZ 00431940 f   render_win32.release:graphicsprotocol.obj
 0001:00030950       ?GetRtti@AnimStopTrack@Graphics@@UBEPAVRtti@Core@@XZ 00431950 f   render_win32.release:graphicsprotocol.obj
 0001:00030960       ?FactoryCreator@AnimStopTrack@Graphics@@SAPAVRefCounted@Core@@XZ 00431960 f   render_win32.release:graphicsprotocol.obj
 0001:00030970       ?Create@AnimStopTrack@Graphics@@SAPAV12@XZ 00431970 f   render_win32.release:graphicsprotocol.obj
 0001:000309b0       ?RegisterWithFactory@AnimStopTrack@Graphics@@SA_NXZ 004319b0 f   render_win32.release:graphicsprotocol.obj
 0001:00030ab0       ?GetId@AnimStopTrack@Graphics@@UBEABVId@Messaging@@XZ 00431ab0 f   render_win32.release:graphicsprotocol.obj
 0001:00030ac0       ?GetRtti@AnimStopAllTracks@Graphics@@UBEPAVRtti@Core@@XZ 00431ac0 f   render_win32.release:graphicsprotocol.obj
 0001:00030ad0       ?FactoryCreator@AnimStopAllTracks@Graphics@@SAPAVRefCounted@Core@@XZ 00431ad0 f   render_win32.release:graphicsprotocol.obj
 0001:00030ae0       ?Create@AnimStopAllTracks@Graphics@@SAPAV12@XZ 00431ae0 f   render_win32.release:graphicsprotocol.obj
 0001:00030b40       ?RegisterWithFactory@AnimStopAllTracks@Graphics@@SA_NXZ 00431b40 f   render_win32.release:graphicsprotocol.obj
 0001:00030c40       ?GetId@AnimStopAllTracks@Graphics@@UBEABVId@Messaging@@XZ 00431c40 f   render_win32.release:graphicsprotocol.obj
 0001:00030c50       ?GetRtti@AnimModifyBlendWeight@Graphics@@UBEPAVRtti@Core@@XZ 00431c50 f   render_win32.release:graphicsprotocol.obj
 0001:00030c60       ?FactoryCreator@AnimModifyBlendWeight@Graphics@@SAPAVRefCounted@Core@@XZ 00431c60 f   render_win32.release:graphicsprotocol.obj
 0001:00030c70       ?Create@AnimModifyBlendWeight@Graphics@@SAPAV12@XZ 00431c70 f   render_win32.release:graphicsprotocol.obj
 0001:00030cb0       ?RegisterWithFactory@AnimModifyBlendWeight@Graphics@@SA_NXZ 00431cb0 f   render_win32.release:graphicsprotocol.obj
 0001:00030db0       ?GetId@AnimModifyBlendWeight@Graphics@@UBEABVId@Messaging@@XZ 00431db0 f   render_win32.release:graphicsprotocol.obj
 0001:00030dc0       ?GetRtti@AnimModifyTimeFactor@Graphics@@UBEPAVRtti@Core@@XZ 00431dc0 f   render_win32.release:graphicsprotocol.obj
 0001:00030dd0       ?FactoryCreator@AnimModifyTimeFactor@Graphics@@SAPAVRefCounted@Core@@XZ 00431dd0 f   render_win32.release:graphicsprotocol.obj
 0001:00030de0       ?Create@AnimModifyTimeFactor@Graphics@@SAPAV12@XZ 00431de0 f   render_win32.release:graphicsprotocol.obj
 0001:00030e20       ?RegisterWithFactory@AnimModifyTimeFactor@Graphics@@SA_NXZ 00431e20 f   render_win32.release:graphicsprotocol.obj
 0001:00030f20       ?GetId@AnimModifyTimeFactor@Graphics@@UBEABVId@Messaging@@XZ 00431f20 f   render_win32.release:graphicsprotocol.obj
 0001:00030f30       ?GetRtti@AnimIsClipPlaying@Graphics@@UBEPAVRtti@Core@@XZ 00431f30 f   render_win32.release:graphicsprotocol.obj
 0001:00030f40       ?FactoryCreator@AnimIsClipPlaying@Graphics@@SAPAVRefCounted@Core@@XZ 00431f40 f   render_win32.release:graphicsprotocol.obj
 0001:00030f50       ?Create@AnimIsClipPlaying@Graphics@@SAPAV12@XZ 00431f50 f   render_win32.release:graphicsprotocol.obj
 0001:00030fc0       ?RegisterWithFactory@AnimIsClipPlaying@Graphics@@SA_NXZ 00431fc0 f   render_win32.release:graphicsprotocol.obj
 0001:000310c0       ?GetId@AnimIsClipPlaying@Graphics@@UBEABVId@Messaging@@XZ 004320c0 f   render_win32.release:graphicsprotocol.obj
 0001:000310d0       ?GetRtti@ApplySkinList@Graphics@@UBEPAVRtti@Core@@XZ 004320d0 f   render_win32.release:graphicsprotocol.obj
 0001:000310e0       ?FactoryCreator@ApplySkinList@Graphics@@SAPAVRefCounted@Core@@XZ 004320e0 f   render_win32.release:graphicsprotocol.obj
 0001:000310f0       ?Create@ApplySkinList@Graphics@@SAPAV12@XZ 004320f0 f   render_win32.release:graphicsprotocol.obj
 0001:00031160       ?RegisterWithFactory@ApplySkinList@Graphics@@SA_NXZ 00432160 f   render_win32.release:graphicsprotocol.obj
 0001:00031260       ?GetId@ApplySkinList@Graphics@@UBEABVId@Messaging@@XZ 00432260 f   render_win32.release:graphicsprotocol.obj
 0001:00031270       ?GetRtti@ShowSkin@Graphics@@UBEPAVRtti@Core@@XZ 00432270 f   render_win32.release:graphicsprotocol.obj
 0001:00031280       ?FactoryCreator@ShowSkin@Graphics@@SAPAVRefCounted@Core@@XZ 00432280 f   render_win32.release:graphicsprotocol.obj
 0001:00031290       ?Create@ShowSkin@Graphics@@SAPAV12@XZ 00432290 f   render_win32.release:graphicsprotocol.obj
 0001:00031300       ?RegisterWithFactory@ShowSkin@Graphics@@SA_NXZ 00432300 f   render_win32.release:graphicsprotocol.obj
 0001:00031400       ?GetId@ShowSkin@Graphics@@UBEABVId@Messaging@@XZ 00432400 f   render_win32.release:graphicsprotocol.obj
 0001:00031410       ?GetRtti@HideSkin@Graphics@@UBEPAVRtti@Core@@XZ 00432410 f   render_win32.release:graphicsprotocol.obj
 0001:00031420       ?FactoryCreator@HideSkin@Graphics@@SAPAVRefCounted@Core@@XZ 00432420 f   render_win32.release:graphicsprotocol.obj
 0001:00031430       ?Create@HideSkin@Graphics@@SAPAV12@XZ 00432430 f   render_win32.release:graphicsprotocol.obj
 0001:000314a0       ?RegisterWithFactory@HideSkin@Graphics@@SA_NXZ 004324a0 f   render_win32.release:graphicsprotocol.obj
 0001:000315a0       ?GetId@HideSkin@Graphics@@UBEABVId@Messaging@@XZ 004325a0 f   render_win32.release:graphicsprotocol.obj
 0001:000315b0       ?GetRtti@SetVariation@Graphics@@UBEPAVRtti@Core@@XZ 004325b0 f   render_win32.release:graphicsprotocol.obj
 0001:000315c0       ?FactoryCreator@SetVariation@Graphics@@SAPAVRefCounted@Core@@XZ 004325c0 f   render_win32.release:graphicsprotocol.obj
 0001:000315d0       ?Create@SetVariation@Graphics@@SAPAV12@XZ 004325d0 f   render_win32.release:graphicsprotocol.obj
 0001:00031640       ?RegisterWithFactory@SetVariation@Graphics@@SA_NXZ 00432640 f   render_win32.release:graphicsprotocol.obj
 0001:00031740       ?GetId@SetVariation@Graphics@@UBEABVId@Messaging@@XZ 00432740 f   render_win32.release:graphicsprotocol.obj
 0001:00031750       ?GetRtti@SetTimeFactor@Graphics@@UBEPAVRtti@Core@@XZ 00432750 f   render_win32.release:graphicsprotocol.obj
 0001:00031760       ?FactoryCreator@SetTimeFactor@Graphics@@SAPAVRefCounted@Core@@XZ 00432760 f   render_win32.release:graphicsprotocol.obj
 0001:00031770       ?Create@SetTimeFactor@Graphics@@SAPAV12@XZ 00432770 f   render_win32.release:graphicsprotocol.obj
 0001:000317b0       ?RegisterWithFactory@SetTimeFactor@Graphics@@SA_NXZ 004327b0 f   render_win32.release:graphicsprotocol.obj
 0001:000318b0       ?GetId@SetTimeFactor@Graphics@@UBEABVId@Messaging@@XZ 004328b0 f   render_win32.release:graphicsprotocol.obj
 0001:000318c0       ?GetRtti@UnbindAttachment@Graphics@@UBEPAVRtti@Core@@XZ 004328c0 f   render_win32.release:graphicsprotocol.obj
 0001:000318d0       ?FactoryCreator@UnbindAttachment@Graphics@@SAPAVRefCounted@Core@@XZ 004328d0 f   render_win32.release:graphicsprotocol.obj
 0001:000318e0       ?Create@UnbindAttachment@Graphics@@SAPAV12@XZ 004328e0 f   render_win32.release:graphicsprotocol.obj
 0001:00031920       ?RegisterWithFactory@UnbindAttachment@Graphics@@SA_NXZ 00432920 f   render_win32.release:graphicsprotocol.obj
 0001:00031a20       ?GetId@UnbindAttachment@Graphics@@UBEABVId@Messaging@@XZ 00432a20 f   render_win32.release:graphicsprotocol.obj
 0001:00031a30       ?GetRtti@BindAttachment@Graphics@@UBEPAVRtti@Core@@XZ 00432a30 f   render_win32.release:graphicsprotocol.obj
 0001:00031a40       ?FactoryCreator@BindAttachment@Graphics@@SAPAVRefCounted@Core@@XZ 00432a40 f   render_win32.release:graphicsprotocol.obj
 0001:00031a50       ?Create@BindAttachment@Graphics@@SAPAV12@XZ 00432a50 f   render_win32.release:graphicsprotocol.obj
 0001:00031a90       ?RegisterWithFactory@BindAttachment@Graphics@@SA_NXZ 00432a90 f   render_win32.release:graphicsprotocol.obj
 0001:00031b90       ?GetId@BindAttachment@Graphics@@UBEABVId@Messaging@@XZ 00432b90 f   render_win32.release:graphicsprotocol.obj
 0001:00031ba0       ?GetRtti@SwitchAttachmentToNewJoint@Graphics@@UBEPAVRtti@Core@@XZ 00432ba0 f   render_win32.release:graphicsprotocol.obj
 0001:00031bb0       ?FactoryCreator@SwitchAttachmentToNewJoint@Graphics@@SAPAVRefCounted@Core@@XZ 00432bb0 f   render_win32.release:graphicsprotocol.obj
 0001:00031bc0       ?Create@SwitchAttachmentToNewJoint@Graphics@@SAPAV12@XZ 00432bc0 f   render_win32.release:graphicsprotocol.obj
 0001:00031c30       ?RegisterWithFactory@SwitchAttachmentToNewJoint@Graphics@@SA_NXZ 00432c30 f   render_win32.release:graphicsprotocol.obj
 0001:00031d30       ?GetId@SwitchAttachmentToNewJoint@Graphics@@UBEABVId@Messaging@@XZ 00432d30 f   render_win32.release:graphicsprotocol.obj
 0001:00031d40       ?GetRtti@BaseAnimEventMessage@Graphics@@UBEPAVRtti@Core@@XZ 00432d40 f   render_win32.release:graphicsprotocol.obj
 0001:00031d50       ?FactoryCreator@BaseAnimEventMessage@Graphics@@SAPAVRefCounted@Core@@XZ 00432d50 f   render_win32.release:graphicsprotocol.obj
 0001:00031d60       ?Create@BaseAnimEventMessage@Graphics@@SAPAV12@XZ 00432d60 f   render_win32.release:graphicsprotocol.obj
 0001:00031dc0       ?RegisterWithFactory@BaseAnimEventMessage@Graphics@@SA_NXZ 00432dc0 f   render_win32.release:graphicsprotocol.obj
 0001:00031ec0       ?GetId@BaseAnimEventMessage@Graphics@@UBEABVId@Messaging@@XZ 00432ec0 f   render_win32.release:graphicsprotocol.obj
 0001:00031ed0       ?GetRtti@RegisterAnimEventHandler@Graphics@@UBEPAVRtti@Core@@XZ 00432ed0 f   render_win32.release:graphicsprotocol.obj
 0001:00031ee0       ?FactoryCreator@RegisterAnimEventHandler@Graphics@@SAPAVRefCounted@Core@@XZ 00432ee0 f   render_win32.release:graphicsprotocol.obj
 0001:00031ef0       ?Create@RegisterAnimEventHandler@Graphics@@SAPAV12@XZ 00432ef0 f   render_win32.release:graphicsprotocol.obj
 0001:00031f40       ?RegisterWithFactory@RegisterAnimEventHandler@Graphics@@SA_NXZ 00432f40 f   render_win32.release:graphicsprotocol.obj
 0001:00032040       ?GetId@RegisterAnimEventHandler@Graphics@@UBEABVId@Messaging@@XZ 00433040 f   render_win32.release:graphicsprotocol.obj
 0001:00032050       ?GetRtti@UnregisterAnimEventHandler@Graphics@@UBEPAVRtti@Core@@XZ 00433050 f   render_win32.release:graphicsprotocol.obj
 0001:00032060       ?FactoryCreator@UnregisterAnimEventHandler@Graphics@@SAPAVRefCounted@Core@@XZ 00433060 f   render_win32.release:graphicsprotocol.obj
 0001:00032070       ?Create@UnregisterAnimEventHandler@Graphics@@SAPAV12@XZ 00433070 f   render_win32.release:graphicsprotocol.obj
 0001:000320d0       ?RegisterWithFactory@UnregisterAnimEventHandler@Graphics@@SA_NXZ 004330d0 f   render_win32.release:graphicsprotocol.obj
 0001:000321d0       ?GetId@UnregisterAnimEventHandler@Graphics@@UBEABVId@Messaging@@XZ 004331d0 f   render_win32.release:graphicsprotocol.obj
 0001:000321e0       ?GetRtti@PreloadMousePointerTextures@Graphics@@UBEPAVRtti@Core@@XZ 004331e0 f   render_win32.release:graphicsprotocol.obj
 0001:000321f0       ?FactoryCreator@PreloadMousePointerTextures@Graphics@@SAPAVRefCounted@Core@@XZ 004331f0 f   render_win32.release:graphicsprotocol.obj
 0001:00032200       ?Create@PreloadMousePointerTextures@Graphics@@SAPAV12@XZ 00433200 f   render_win32.release:graphicsprotocol.obj
 0001:00032250       ?RegisterWithFactory@PreloadMousePointerTextures@Graphics@@SA_NXZ 00433250 f   render_win32.release:graphicsprotocol.obj
 0001:00032350       ?GetId@PreloadMousePointerTextures@Graphics@@UBEABVId@Messaging@@XZ 00433350 f   render_win32.release:graphicsprotocol.obj
 0001:00032360       ?GetRtti@UpdateMousePointers@Graphics@@UBEPAVRtti@Core@@XZ 00433360 f   render_win32.release:graphicsprotocol.obj
 0001:00032370       ?FactoryCreator@UpdateMousePointers@Graphics@@SAPAVRefCounted@Core@@XZ 00433370 f   render_win32.release:graphicsprotocol.obj
 0001:00032380       ?Create@UpdateMousePointers@Graphics@@SAPAV12@XZ 00433380 f   render_win32.release:graphicsprotocol.obj
 0001:000323d0       ?RegisterWithFactory@UpdateMousePointers@Graphics@@SA_NXZ 004333d0 f   render_win32.release:graphicsprotocol.obj
 0001:000324d0       ?GetId@UpdateMousePointers@Graphics@@UBEABVId@Messaging@@XZ 004334d0 f   render_win32.release:graphicsprotocol.obj
 0001:000324e0       ?GetRtti@HoldSharedResources@Graphics@@UBEPAVRtti@Core@@XZ 004334e0 f   render_win32.release:graphicsprotocol.obj
 0001:000324f0       ?FactoryCreator@HoldSharedResources@Graphics@@SAPAVRefCounted@Core@@XZ 004334f0 f   render_win32.release:graphicsprotocol.obj
 0001:00032500       ?Create@HoldSharedResources@Graphics@@SAPAV12@XZ 00433500 f   render_win32.release:graphicsprotocol.obj
 0001:00032540       ?RegisterWithFactory@HoldSharedResources@Graphics@@SA_NXZ 00433540 f   render_win32.release:graphicsprotocol.obj
 0001:00032640       ?GetId@HoldSharedResources@Graphics@@UBEABVId@Messaging@@XZ 00433640 f   render_win32.release:graphicsprotocol.obj
 0001:00032650       ?GetRtti@ReleaseSharedResources@Graphics@@UBEPAVRtti@Core@@XZ 00433650 f   render_win32.release:graphicsprotocol.obj
 0001:00032660       ?FactoryCreator@ReleaseSharedResources@Graphics@@SAPAVRefCounted@Core@@XZ 00433660 f   render_win32.release:graphicsprotocol.obj
 0001:00032670       ?Create@ReleaseSharedResources@Graphics@@SAPAV12@XZ 00433670 f   render_win32.release:graphicsprotocol.obj
 0001:000326b0       ?RegisterWithFactory@ReleaseSharedResources@Graphics@@SA_NXZ 004336b0 f   render_win32.release:graphicsprotocol.obj
 0001:000327b0       ?GetId@ReleaseSharedResources@Graphics@@UBEABVId@Messaging@@XZ 004337b0 f   render_win32.release:graphicsprotocol.obj
 0001:000327c0       ?GetRtti@SetAnimatorTime@Graphics@@UBEPAVRtti@Core@@XZ 004337c0 f   render_win32.release:graphicsprotocol.obj
 0001:000327d0       ?FactoryCreator@SetAnimatorTime@Graphics@@SAPAVRefCounted@Core@@XZ 004337d0 f   render_win32.release:graphicsprotocol.obj
 0001:000327e0       ?Create@SetAnimatorTime@Graphics@@SAPAV12@XZ 004337e0 f   render_win32.release:graphicsprotocol.obj
 0001:00032850       ?RegisterWithFactory@SetAnimatorTime@Graphics@@SA_NXZ 00433850 f   render_win32.release:graphicsprotocol.obj
 0001:00032950       ?GetId@SetAnimatorTime@Graphics@@UBEABVId@Messaging@@XZ 00433950 f   render_win32.release:graphicsprotocol.obj
 0001:00032960       ?GetRtti@UpdateCameraEntity@Graphics@@UBEPAVRtti@Core@@XZ 00433960 f   render_win32.release:graphicsprotocol.obj
 0001:00032970       ?FactoryCreator@UpdateCameraEntity@Graphics@@SAPAVRefCounted@Core@@XZ 00433970 f   render_win32.release:graphicsprotocol.obj
 0001:00032980       ?Create@UpdateCameraEntity@Graphics@@SAPAV12@XZ 00433980 f   render_win32.release:graphicsprotocol.obj
 0001:000329c0       ?RegisterWithFactory@UpdateCameraEntity@Graphics@@SA_NXZ 004339c0 f   render_win32.release:graphicsprotocol.obj
 0001:00032ac0       ?GetId@UpdateCameraEntity@Graphics@@UBEABVId@Messaging@@XZ 00433ac0 f   render_win32.release:graphicsprotocol.obj
 0001:00032ad0       ?GetRtti@SetShadowPointOfInterest@Graphics@@UBEPAVRtti@Core@@XZ 00433ad0 f   render_win32.release:graphicsprotocol.obj
 0001:00032ae0       ?FactoryCreator@SetShadowPointOfInterest@Graphics@@SAPAVRefCounted@Core@@XZ 00433ae0 f   render_win32.release:graphicsprotocol.obj
 0001:00032af0       ?Create@SetShadowPointOfInterest@Graphics@@SAPAV12@XZ 00433af0 f   render_win32.release:graphicsprotocol.obj
 0001:00032b30       ?RegisterWithFactory@SetShadowPointOfInterest@Graphics@@SA_NXZ 00433b30 f   render_win32.release:graphicsprotocol.obj
 0001:00032c30       ?GetId@SetShadowPointOfInterest@Graphics@@UBEABVId@Messaging@@XZ 00433c30 f   render_win32.release:graphicsprotocol.obj
 0001:00032c40       ??0?$Array@VDisplayMode@CoreGraphics@@@Util@@QAE@XZ 00433c40 f i render_win32.release:graphicsprotocol.obj
 0001:00032c80       ??1?$Array@VDisplayMode@CoreGraphics@@@Util@@QAE@XZ 00433c80 f i render_win32.release:graphicsprotocol.obj
 0001:00032ca0       ??0?$Ptr@VThreadSafeDisplayEventHandler@CoreGraphics@@@@QAE@XZ 00433ca0 f i render_win32.release:graphicsprotocol.obj
 0001:00032cc0       ??1?$Ptr@VThreadSafeDisplayEventHandler@CoreGraphics@@@@QAE@XZ 00433cc0 f i render_win32.release:graphicsprotocol.obj
 0001:00032cf0       ??0?$Ptr@VThreadSafeRenderEventHandler@CoreGraphics@@@@QAE@XZ 00433cf0 f i render_win32.release:graphicsprotocol.obj
 0001:00032d10       ??1?$Ptr@VThreadSafeRenderEventHandler@CoreGraphics@@@@QAE@XZ 00433d10 f i render_win32.release:graphicsprotocol.obj
 0001:00032d40       ??0?$Ptr@VAnimEventHandlerBase@Animation@@@@QAE@XZ 00433d40 f i render_win32.release:graphicsprotocol.obj
 0001:00032d60       ??1?$Ptr@VAnimEventHandlerBase@Animation@@@@QAE@XZ 00433d60 f i render_win32.release:graphicsprotocol.obj
 0001:00032d90       ??0?$Array@VMousePointer@CoreGraphics@@@Util@@QAE@XZ 00433d90 f i render_win32.release:graphicsprotocol.obj
 0001:00032dd0       ??1?$Array@VMousePointer@CoreGraphics@@@Util@@QAE@XZ 00433dd0 f i render_win32.release:graphicsprotocol.obj
 0001:00032df0       ?Delete@?$Array@VDisplayMode@CoreGraphics@@@Util@@AAEXXZ 00433df0 f i render_win32.release:graphicsprotocol.obj
 0001:00032e50       ?Delete@?$Array@VMousePointer@CoreGraphics@@@Util@@AAEXXZ 00433e50 f i render_win32.release:graphicsprotocol.obj
 0001:00032eb0       ??2RenderDebugText@Debug@@SAPAXI@Z 00433eb0 f i render_win32.release:debugrenderprotocol.obj
 0001:00032ec0       ??3RenderDebugText@Debug@@SAXPAX@Z 00433ec0 f i render_win32.release:debugrenderprotocol.obj
 0001:00032ee0       ??0RenderDebugText@Debug@@QAE@XZ 00433ee0 f i render_win32.release:debugrenderprotocol.obj
 0001:00032f10       ??_GRenderDebugText@Debug@@UAEPAXI@Z 00433f10 f i render_win32.release:debugrenderprotocol.obj
 0001:00032f10       ??_ERenderDebugText@Debug@@UAEPAXI@Z 00433f10 f i  CIL library: CIL module
 0001:00032f50       ??1RenderDebugText@Debug@@UAE@XZ 00433f50 f i render_win32.release:debugrenderprotocol.obj
 0001:00032f70       ??2RenderDebugShapes@Debug@@SAPAXI@Z 00433f70 f i render_win32.release:debugrenderprotocol.obj
 0001:00032f80       ??3RenderDebugShapes@Debug@@SAXPAX@Z 00433f80 f i render_win32.release:debugrenderprotocol.obj
 0001:00032fa0       ??0RenderDebugShapes@Debug@@QAE@XZ 00433fa0 f i render_win32.release:debugrenderprotocol.obj
 0001:00032fd0       ??_GRenderDebugShapes@Debug@@UAEPAXI@Z 00433fd0 f i render_win32.release:debugrenderprotocol.obj
 0001:00032fd0       ??_ERenderDebugShapes@Debug@@UAEPAXI@Z 00433fd0 f i  CIL library: CIL module
 0001:00033010       ??1RenderDebugShapes@Debug@@UAE@XZ 00434010 f i render_win32.release:debugrenderprotocol.obj
 0001:00033030       ??2RenderDebugView@Debug@@SAPAXI@Z 00434030 f i render_win32.release:debugrenderprotocol.obj
 0001:00033040       ??3RenderDebugView@Debug@@SAXPAX@Z 00434040 f i render_win32.release:debugrenderprotocol.obj
 0001:00033060       ??0RenderDebugView@Debug@@QAE@XZ 00434060 f i render_win32.release:debugrenderprotocol.obj
 0001:00033080       ??_GRenderDebugView@Debug@@UAEPAXI@Z 00434080 f i render_win32.release:debugrenderprotocol.obj
 0001:00033080       ??_ERenderDebugView@Debug@@UAEPAXI@Z 00434080 f i  CIL library: CIL module
 0001:000330b0       ??1RenderDebugView@Debug@@UAE@XZ 004340b0 f i render_win32.release:debugrenderprotocol.obj
 0001:000330d0       ??2IncrDebugShaderLayer@Debug@@SAPAXI@Z 004340d0 f i render_win32.release:debugrenderprotocol.obj
 0001:000330e0       ??3IncrDebugShaderLayer@Debug@@SAXPAX@Z 004340e0 f i render_win32.release:debugrenderprotocol.obj
 0001:00033100       ??0IncrDebugShaderLayer@Debug@@QAE@XZ 00434100 f i render_win32.release:debugrenderprotocol.obj
 0001:00033120       ??_GIncrDebugShaderLayer@Debug@@UAEPAXI@Z 00434120 f i render_win32.release:debugrenderprotocol.obj
 0001:00033120       ??_EIncrDebugShaderLayer@Debug@@UAEPAXI@Z 00434120 f i  CIL library: CIL module
 0001:00033150       ??1IncrDebugShaderLayer@Debug@@UAE@XZ 00434150 f i render_win32.release:debugrenderprotocol.obj
 0001:00033170       ??2SetFloatShaderVariable@Debug@@SAPAXI@Z 00434170 f i render_win32.release:debugrenderprotocol.obj
 0001:00033180       ??3SetFloatShaderVariable@Debug@@SAXPAX@Z 00434180 f i render_win32.release:debugrenderprotocol.obj
 0001:000331a0       ??0SetFloatShaderVariable@Debug@@QAE@XZ 004341a0 f i render_win32.release:debugrenderprotocol.obj
 0001:000331e0       ??_ESetFloatShaderVariable@Debug@@UAEPAXI@Z 004341e0 f i  CIL library: CIL module
 0001:000331e0       ??_GSetFloatShaderVariable@Debug@@UAEPAXI@Z 004341e0 f i render_win32.release:debugrenderprotocol.obj
 0001:00033210       ??1SetFloatShaderVariable@Debug@@UAE@XZ 00434210 f i render_win32.release:debugrenderprotocol.obj
 0001:00033230       ??2ControlPerfHUD@Debug@@SAPAXI@Z 00434230 f i render_win32.release:debugrenderprotocol.obj
 0001:00033240       ??3ControlPerfHUD@Debug@@SAXPAX@Z 00434240 f i render_win32.release:debugrenderprotocol.obj
 0001:00033260       ??0ControlPerfHUD@Debug@@QAE@XZ 00434260 f i render_win32.release:debugrenderprotocol.obj
 0001:00033290       ??_EControlPerfHUD@Debug@@UAEPAXI@Z 00434290 f i  CIL library: CIL module
 0001:00033290       ??_GControlPerfHUD@Debug@@UAEPAXI@Z 00434290 f i render_win32.release:debugrenderprotocol.obj
 0001:000332c0       ??1ControlPerfHUD@Debug@@UAE@XZ 004342c0 f i render_win32.release:debugrenderprotocol.obj
 0001:000332e0       ?GetRtti@RenderDebugText@Debug@@UBEPAVRtti@Core@@XZ 004342e0 f   render_win32.release:debugrenderprotocol.obj
 0001:000332f0       ?FactoryCreator@RenderDebugText@Debug@@SAPAVRefCounted@Core@@XZ 004342f0 f   render_win32.release:debugrenderprotocol.obj
 0001:00033300       ?Create@RenderDebugText@Debug@@SAPAV12@XZ 00434300 f   render_win32.release:debugrenderprotocol.obj
 0001:00033350       ?RegisterWithFactory@RenderDebugText@Debug@@SA_NXZ 00434350 f   render_win32.release:debugrenderprotocol.obj
 0001:00033450       ?GetId@RenderDebugText@Debug@@UBEABVId@Messaging@@XZ 00434450 f   render_win32.release:debugrenderprotocol.obj
 0001:00033460       ?GetRtti@RenderDebugShapes@Debug@@UBEPAVRtti@Core@@XZ 00434460 f   render_win32.release:debugrenderprotocol.obj
 0001:00033470       ?FactoryCreator@RenderDebugShapes@Debug@@SAPAVRefCounted@Core@@XZ 00434470 f   render_win32.release:debugrenderprotocol.obj
 0001:00033480       ?Create@RenderDebugShapes@Debug@@SAPAV12@XZ 00434480 f   render_win32.release:debugrenderprotocol.obj
 0001:000334d0       ?RegisterWithFactory@RenderDebugShapes@Debug@@SA_NXZ 004344d0 f   render_win32.release:debugrenderprotocol.obj
 0001:000335d0       ?GetId@RenderDebugShapes@Debug@@UBEABVId@Messaging@@XZ 004345d0 f   render_win32.release:debugrenderprotocol.obj
 0001:000335e0       ?GetRtti@RenderDebugView@Debug@@UBEPAVRtti@Core@@XZ 004345e0 f   render_win32.release:debugrenderprotocol.obj
 0001:000335f0       ?FactoryCreator@RenderDebugView@Debug@@SAPAVRefCounted@Core@@XZ 004345f0 f   render_win32.release:debugrenderprotocol.obj
 0001:00033600       ?Create@RenderDebugView@Debug@@SAPAV12@XZ 00434600 f   render_win32.release:debugrenderprotocol.obj
 0001:00033640       ?RegisterWithFactory@RenderDebugView@Debug@@SA_NXZ 00434640 f   render_win32.release:debugrenderprotocol.obj
 0001:00033740       ?GetId@RenderDebugView@Debug@@UBEABVId@Messaging@@XZ 00434740 f   render_win32.release:debugrenderprotocol.obj
 0001:00033750       ?GetRtti@IncrDebugShaderLayer@Debug@@UBEPAVRtti@Core@@XZ 00434750 f   render_win32.release:debugrenderprotocol.obj
 0001:00033760       ?FactoryCreator@IncrDebugShaderLayer@Debug@@SAPAVRefCounted@Core@@XZ 00434760 f   render_win32.release:debugrenderprotocol.obj
 0001:00033770       ?Create@IncrDebugShaderLayer@Debug@@SAPAV12@XZ 00434770 f   render_win32.release:debugrenderprotocol.obj
 0001:000337b0       ?RegisterWithFactory@IncrDebugShaderLayer@Debug@@SA_NXZ 004347b0 f   render_win32.release:debugrenderprotocol.obj
 0001:000338b0       ?GetId@IncrDebugShaderLayer@Debug@@UBEABVId@Messaging@@XZ 004348b0 f   render_win32.release:debugrenderprotocol.obj
 0001:000338c0       ?GetRtti@SetFloatShaderVariable@Debug@@UBEPAVRtti@Core@@XZ 004348c0 f   render_win32.release:debugrenderprotocol.obj
 0001:000338d0       ?FactoryCreator@SetFloatShaderVariable@Debug@@SAPAVRefCounted@Core@@XZ 004348d0 f   render_win32.release:debugrenderprotocol.obj
 0001:000338e0       ?Create@SetFloatShaderVariable@Debug@@SAPAV12@XZ 004348e0 f   render_win32.release:debugrenderprotocol.obj
 0001:00033940       ?RegisterWithFactory@SetFloatShaderVariable@Debug@@SA_NXZ 00434940 f   render_win32.release:debugrenderprotocol.obj
 0001:00033a40       ?GetId@SetFloatShaderVariable@Debug@@UBEABVId@Messaging@@XZ 00434a40 f   render_win32.release:debugrenderprotocol.obj
 0001:00033a50       ?GetRtti@ControlPerfHUD@Debug@@UBEPAVRtti@Core@@XZ 00434a50 f   render_win32.release:debugrenderprotocol.obj
 0001:00033a60       ?FactoryCreator@ControlPerfHUD@Debug@@SAPAVRefCounted@Core@@XZ 00434a60 f   render_win32.release:debugrenderprotocol.obj
 0001:00033a70       ?Create@ControlPerfHUD@Debug@@SAPAV12@XZ 00434a70 f   render_win32.release:debugrenderprotocol.obj
 0001:00033ac0       ?RegisterWithFactory@ControlPerfHUD@Debug@@SA_NXZ 00434ac0 f   render_win32.release:debugrenderprotocol.obj
 0001:00033bc0       ?GetId@ControlPerfHUD@Debug@@UBEABVId@Messaging@@XZ 00434bc0 f   render_win32.release:debugrenderprotocol.obj
 0001:00033bd0       ??0?$Array@VRenderShape@CoreGraphics@@@Util@@QAE@XZ 00434bd0 f i render_win32.release:debugrenderprotocol.obj
 0001:00033c10       ??1?$Array@VRenderShape@CoreGraphics@@@Util@@QAE@XZ 00434c10 f i render_win32.release:debugrenderprotocol.obj
 0001:00033c30       ?Delete@?$Array@VRenderShape@CoreGraphics@@@Util@@AAEXXZ 00434c30 f i render_win32.release:debugrenderprotocol.obj
 0001:00033ca0       ?n_asin@Math@@YAMM@Z       00434ca0 f i render_win32.release:mayacamerautil.obj
 0001:00033cc0       ?n_acos@Math@@YAMM@Z       00434cc0 f i render_win32.release:mayacamerautil.obj
 0001:00033ce0       ?n_sqrt@Math@@YAMM@Z       00434ce0 f i render_win32.release:mayacamerautil.obj
 0001:00033d00       ?n_max@Math@@YAMMM@Z       00434d00 f i render_win32.release:mayacamerautil.obj
 0001:00033d30       ??Dfloat4@Math@@QBE?AV01@M@Z 00434d30 f i render_win32.release:mayacamerautil.obj
 0001:00033d90       ?z@float4@Math@@QAEAAMXZ   00434d90 f i render_win32.release:mayacamerautil.obj
 0001:00033db0       ?set_w@float4@Math@@QAEXM@Z 00434db0 f i render_win32.release:mayacamerautil.obj
 0001:00033e60       ?length@float4@Math@@QBEMXZ 00434e60 f i render_win32.release:mayacamerautil.obj
 0001:00033fe0       ?normalize@float4@Math@@SA?AV12@ABV12@@Z 00434fe0 f i render_win32.release:mayacamerautil.obj
 0001:00034420       ?equal3_all@float4@Math@@SA_NABV12@0@Z 00435420 f i render_win32.release:mayacamerautil.obj
 0001:000344b0       ?unpack_x@float4@Math@@SAMT__m128@@@Z 004354b0 f i render_win32.release:mayacamerautil.obj
 0001:000344e0       ??0vector@Math@@QAE@ABVfloat4@1@@Z 004354e0 f i render_win32.release:mayacamerautil.obj
 0001:000345d0       ??0vector@Math@@QAE@T__m128@@@Z 004355d0 f i render_win32.release:mayacamerautil.obj
 0001:00034600       ??4vector@Math@@QAEXABV01@@Z 00435600 f i render_win32.release:mayacamerautil.obj
 0001:00034620       ??Hvector@Math@@QBE?AV01@ABV01@@Z 00435620 f i render_win32.release:mayacamerautil.obj
 0001:00034680       ??Ypoint@Math@@QAEXABVvector@1@@Z 00435680 f i render_win32.release:mayacamerautil.obj
 0001:000346d0       ??Zpoint@Math@@QAEXABVvector@1@@Z 004356d0 f i render_win32.release:mayacamerautil.obj
 0001:00034720       ??Gpoint@Math@@QBE?AVvector@1@ABV01@@Z 00435720 f i render_win32.release:mayacamerautil.obj
 0001:00034780       ?getrow0@matrix44@Math@@QBEABVfloat4@2@XZ 00435780 f i render_win32.release:mayacamerautil.obj
 0001:00034790       ?getrow1@matrix44@Math@@QBEABVfloat4@2@XZ 00435790 f i render_win32.release:mayacamerautil.obj
 0001:000347b0       ?getrow2@matrix44@Math@@QBEABVfloat4@2@XZ 004357b0 f i render_win32.release:mayacamerautil.obj
 0001:000347d0       ?multiply@matrix44@Math@@SA?AV12@ABV12@0@Z 004357d0 f i render_win32.release:mayacamerautil.obj
 0001:00034fd0       ?rotationy@matrix44@Math@@SA?AV12@M@Z 00435fd0 f i render_win32.release:mayacamerautil.obj
 0001:00035010       ?translation@matrix44@Math@@SA?AV12@ABVfloat4@2@@Z 00436010 f i render_win32.release:mayacamerautil.obj
 0001:00035130       ?set@float2@Math@@QAEXMM@Z 00436130 f i render_win32.release:mayacamerautil.obj
 0001:00035150       ?length@float2@Math@@QBEMXZ 00436150 f i render_win32.release:mayacamerautil.obj
 0001:00035190       ?normalize@float2@Math@@SA?AV12@ABV12@@Z 00436190 f i render_win32.release:mayacamerautil.obj
 0001:00035220       ??0polar@Math@@QAE@XZ      00436220 f i render_win32.release:mayacamerautil.obj
 0001:00035240       ?set@polar@Math@@QAEXABVvector@2@@Z 00436240 f i render_win32.release:mayacamerautil.obj
 0001:000359f0       ??0MayaCameraUtil@RenderUtil@@QAE@XZ 004369f0 f   render_win32.release:mayacamerautil.obj
 0001:00036040       ?Setup@MayaCameraUtil@RenderUtil@@QAEXABVpoint@Math@@0ABVvector@4@@Z 00437040 f   render_win32.release:mayacamerautil.obj
 0001:00036090       ?Reset@MayaCameraUtil@RenderUtil@@QAEXXZ 00437090 f   render_win32.release:mayacamerautil.obj
 0001:00036960       ?Update@MayaCameraUtil@RenderUtil@@QAEXXZ 00437960 f   render_win32.release:mayacamerautil.obj
 0001:00039040       ?XMMatrixTranslationFromVector@@YA?AU_XMMATRIX@@T__m128@@@Z 0043a040 f i render_win32.release:mayacamerautil.obj
 0001:00039130       ?XMMatrixRotationY@@YA?AU_XMMATRIX@@M@Z 0043a130 f i render_win32.release:mayacamerautil.obj
 0001:000392b0       ?XMMatrixMultiply@@YA?AU_XMMATRIX@@ABU1@0@Z 0043a2b0 f i render_win32.release:mayacamerautil.obj
 0001:00039a90       ?XMVectorGetXPtr@@YAXPAMT__m128@@@Z 0043aa90 f i render_win32.release:mayacamerautil.obj
 0001:00039ab0       ?XMVector3EqualR@@YAIT__m128@@0@Z 0043aab0 f i render_win32.release:mayacamerautil.obj
 0001:00039b20       ?XMVector4Normalize@@YA?AT__m128@@T1@@Z 0043ab20 f i render_win32.release:mayacamerautil.obj
 0001:00039dd0       ??BXMVECTORI32@@QBE?AT__m128@@XZ 0043add0 f i render_win32.release:mayacamerautil.obj
 0001:00039e00       ?XMVector4Length@@YA?AT__m128@@T1@@Z 0043ae00 f i render_win32.release:mayacamerautil.obj
 0001:00039f40       ?XMVectorSetWPtr@@YA?AT__m128@@T1@PBM@Z 0043af40 f i render_win32.release:mayacamerautil.obj
 0001:00039fd0       ?XMVectorScale@@YA?AT__m128@@T1@M@Z 0043afd0 f i render_win32.release:mayacamerautil.obj
 0001:0003a010       _sqrtf                     0043b010 f i render_win32.release:mayacamerautil.obj
 0001:0003a030       _acosf                     0043b030 f i render_win32.release:mayacamerautil.obj
 0001:0003a050       ?XMScalarACos@@YAMM@Z      0043b050 f i render_win32.release:mayacamerautil.obj
 0001:0003a070       _asinf                     0043b070 f i render_win32.release:mayacamerautil.obj
 0001:0003a090       ?XMScalarASin@@YAMM@Z      0043b090 f i render_win32.release:mayacamerautil.obj
 0001:0003a0b0       ??2Resource@Resources@@SAPAXI@Z 0043b0b0 f i render_win32.release:resource.obj
 0001:0003a0c0       ??3Resource@Resources@@SAXPAX@Z 0043b0c0 f i render_win32.release:resource.obj
 0001:0003a0e0       ?SetState@Resource@Resources@@QAEXW4State@12@@Z 0043b0e0 f i render_win32.release:resource.obj
 0001:0003a100       ?IsLoaded@Resource@Resources@@QBE_NXZ 0043b100 f i render_win32.release:resource.obj
 0001:0003a120       ?IsPending@Resource@Resources@@QBE_NXZ 0043b120 f i render_win32.release:resource.obj
 0001:0003a140       ?GetState@ResourceLoader@Resources@@QBE?AW4State@Resource@2@XZ 0043b140 f i render_win32.release:resource.obj
 0001:0003a160       ?GetRtti@Resource@Resources@@UBEPAVRtti@Core@@XZ 0043b160 f   render_win32.release:resource.obj
 0001:0003a170       ?FactoryCreator@Resource@Resources@@SAPAVRefCounted@Core@@XZ 0043b170 f   render_win32.release:resource.obj
 0001:0003a180       ?Create@Resource@Resources@@SAPAV12@XZ 0043b180 f   render_win32.release:resource.obj
 0001:0003a1c0       ?RegisterWithFactory@Resource@Resources@@SA_NXZ 0043b1c0 f   render_win32.release:resource.obj
 0001:0003a2c0       ??0Resource@Resources@@QAE@XZ 0043b2c0 f   render_win32.release:resource.obj
 0001:0003a340       ??_GResource@Resources@@UAEPAXI@Z 0043b340 f i render_win32.release:resource.obj
 0001:0003a340       ??_EResource@Resources@@UAEPAXI@Z 0043b340 f i  CIL library: CIL module
 0001:0003a370       ??1Resource@Resources@@UAE@XZ 0043b370 f   render_win32.release:resource.obj
 0001:0003a440       ?Load@Resource@Resources@@UAE?AW4State@12@XZ 0043b440 f   render_win32.release:resource.obj
 0001:0003a530       ?Unload@Resource@Resources@@UAEXXZ 0043b530 f   render_win32.release:resource.obj
 0001:0003a580       ?Save@Resource@Resources@@UAE_NXZ 0043b580 f   render_win32.release:resource.obj
 0001:0003a600       ?SetLoader@Resource@Resources@@QAEXABV?$Ptr@VResourceLoader@Resources@@@@@Z 0043b600 f   render_win32.release:resource.obj
 0001:0003a6a0       ?GetLoader@Resource@Resources@@QBEABV?$Ptr@VResourceLoader@Resources@@@@XZ 0043b6a0 f   render_win32.release:resource.obj
 0001:0003a6c0       ?SetSaver@Resource@Resources@@QAEXABV?$Ptr@VResourceSaver@Resources@@@@@Z 0043b6c0 f   render_win32.release:resource.obj
 0001:0003a760       ?GetSaver@Resource@Resources@@QBEABV?$Ptr@VResourceSaver@Resources@@@@XZ 0043b760 f   render_win32.release:resource.obj
 0001:0003a780       ??0?$Ptr@VResourceLoader@Resources@@@@QAE@XZ 0043b780 f i render_win32.release:resource.obj
 0001:0003a7a0       ??1?$Ptr@VResourceLoader@Resources@@@@QAE@XZ 0043b7a0 f i render_win32.release:resource.obj
 0001:0003a7d0       ??4?$Ptr@VResourceLoader@Resources@@@@QAEXPAVResourceLoader@Resources@@@Z 0043b7d0 f i render_win32.release:resource.obj
 0001:0003a830       ??4?$Ptr@VResourceLoader@Resources@@@@QAEXABV0@@Z 0043b830 f i render_win32.release:resource.obj
 0001:0003a890       ??C?$Ptr@VResourceLoader@Resources@@@@QBEPAVResourceLoader@Resources@@XZ 0043b890 f i render_win32.release:resource.obj
 0001:0003a8d0       ?isvalid@?$Ptr@VResourceLoader@Resources@@@@QBE_NXZ 0043b8d0 f i render_win32.release:resource.obj
 0001:0003a8f0       ??0?$Ptr@VResourceSaver@Resources@@@@QAE@XZ 0043b8f0 f i render_win32.release:resource.obj
 0001:0003a910       ??1?$Ptr@VResourceSaver@Resources@@@@QAE@XZ 0043b910 f i render_win32.release:resource.obj
 0001:0003a940       ??4?$Ptr@VResourceSaver@Resources@@@@QAEXPAVResourceSaver@Resources@@@Z 0043b940 f i render_win32.release:resource.obj
 0001:0003a9a0       ??4?$Ptr@VResourceSaver@Resources@@@@QAEXABV0@@Z 0043b9a0 f i render_win32.release:resource.obj
 0001:0003aa00       ??C?$Ptr@VResourceSaver@Resources@@@@QBEPAVResourceSaver@Resources@@XZ 0043ba00 f i render_win32.release:resource.obj
 0001:0003aa40       ?isvalid@?$Ptr@VResourceSaver@Resources@@@@QBE_NXZ 0043ba40 f i render_win32.release:resource.obj
 0001:0003aa60       ??0?$Ptr@VResource@Resources@@@@QAE@PAVResource@Resources@@@Z 0043ba60 f i render_win32.release:resource.obj
 0001:0003aaa0       ??1?$Ptr@VResource@Resources@@@@QAE@XZ 0043baa0 f i render_win32.release:resource.obj
 0001:0003aad0       ??2Texture@CoreGraphics@@SAPAXI@Z 0043bad0 f i render_win32.release:texture.obj
 0001:0003aae0       ??3Texture@CoreGraphics@@SAXPAX@Z 0043bae0 f i render_win32.release:texture.obj
 0001:0003ab00       ?GetRtti@Texture@CoreGraphics@@UBEPAVRtti@Core@@XZ 0043bb00 f   render_win32.release:texture.obj
 0001:0003ab10       ?FactoryCreator@Texture@CoreGraphics@@SAPAVRefCounted@Core@@XZ 0043bb10 f   render_win32.release:texture.obj
 0001:0003ab20       ?Create@Texture@CoreGraphics@@SAPAV12@XZ 0043bb20 f   render_win32.release:texture.obj
 0001:0003ab60       ??0Texture@CoreGraphics@@QAE@XZ 0043bb60 f i render_win32.release:texture.obj
 0001:0003ab80       ??_GTexture@CoreGraphics@@UAEPAXI@Z 0043bb80 f i render_win32.release:texture.obj
 0001:0003ab80       ??_ETexture@CoreGraphics@@UAEPAXI@Z 0043bb80 f i  CIL library: CIL module
 0001:0003abb0       ??1Texture@CoreGraphics@@UAE@XZ 0043bbb0 f i render_win32.release:texture.obj
 0001:0003abd0       ?RegisterWithFactory@Texture@CoreGraphics@@SA_NXZ 0043bbd0 f   render_win32.release:texture.obj
 0001:0003acd0       ??0float2@Math@@QAE@XZ     0043bcd0 f i render_win32.release:managedresource.obj
 0001:0003ace0       ?maximize@float2@Math@@SA?AV12@ABV12@0@Z 0043bce0 f i render_win32.release:managedresource.obj
 0001:0003ad60       ??2ManagedResource@Resources@@SAPAXI@Z 0043bd60 f i render_win32.release:managedresource.obj
 0001:0003ad70       ??3ManagedResource@Resources@@SAXPAX@Z 0043bd70 f i render_win32.release:managedresource.obj
 0001:0003ad90       ?GetRtti@ManagedResource@Resources@@UBEPAVRtti@Core@@XZ 0043bd90 f   render_win32.release:managedresource.obj
 0001:0003ada0       ?FactoryCreator@ManagedResource@Resources@@SAPAVRefCounted@Core@@XZ 0043bda0 f   render_win32.release:managedresource.obj
 0001:0003adb0       ?Create@ManagedResource@Resources@@SAPAV12@XZ 0043bdb0 f   render_win32.release:managedresource.obj
 0001:0003adf0       ?RegisterWithFactory@ManagedResource@Resources@@SA_NXZ 0043bdf0 f   render_win32.release:managedresource.obj
 0001:0003aef0       ??0ManagedResource@Resources@@QAE@XZ 0043bef0 f   render_win32.release:managedresource.obj
 0001:0003af80       ??_GManagedResource@Resources@@UAEPAXI@Z 0043bf80 f i render_win32.release:managedresource.obj
 0001:0003af80       ??_EManagedResource@Resources@@UAEPAXI@Z 0043bf80 f i  CIL library: CIL module
 0001:0003afb0       ??1ManagedResource@Resources@@UAE@XZ 0043bfb0 f   render_win32.release:managedresource.obj
 0001:0003aff0       ?ClearRenderStats@ManagedResource@Resources@@QAEXXZ 0043bff0 f   render_win32.release:managedresource.obj
 0001:0003b030       ?UpdateRenderStats@ManagedResource@Resources@@QAEXM@Z 0043c030 f   render_win32.release:managedresource.obj
 0001:0003b070       ?UpdateRenderStats@ManagedResource@Resources@@QAEXABVfloat2@Math@@@Z 0043c070 f   render_win32.release:managedresource.obj
 0001:0003b120       ??0?$Ptr@VResource@Resources@@@@QAE@XZ 0043c120 f i render_win32.release:managedresource.obj
 0001:0003b140       ??2ManagedTexture@Resources@@SAPAXI@Z 0043c140 f i render_win32.release:managedtexture.obj
 0001:0003b150       ??3ManagedTexture@Resources@@SAXPAX@Z 0043c150 f i render_win32.release:managedtexture.obj
 0001:0003b170       ?GetRtti@ManagedTexture@Resources@@UBEPAVRtti@Core@@XZ 0043c170 f   render_win32.release:managedtexture.obj
 0001:0003b180       ?FactoryCreator@ManagedTexture@Resources@@SAPAVRefCounted@Core@@XZ 0043c180 f   render_win32.release:managedtexture.obj
 0001:0003b190       ?Create@ManagedTexture@Resources@@SAPAV12@XZ 0043c190 f   render_win32.release:managedtexture.obj
 0001:0003b1d0       ??0ManagedTexture@Resources@@QAE@XZ 0043c1d0 f i render_win32.release:managedtexture.obj
 0001:0003b1f0       ??_EManagedTexture@Resources@@UAEPAXI@Z 0043c1f0 f i  CIL library: CIL module
 0001:0003b1f0       ??_GManagedTexture@Resources@@UAEPAXI@Z 0043c1f0 f i render_win32.release:managedtexture.obj
 0001:0003b220       ??1ManagedTexture@Resources@@UAE@XZ 0043c220 f i render_win32.release:managedtexture.obj
 0001:0003b240       ?RegisterWithFactory@ManagedTexture@Resources@@SA_NXZ 0043c240 f   render_win32.release:managedtexture.obj
 0001:0003b340       ??2Mesh@CoreGraphics@@SAPAXI@Z 0043c340 f i render_win32.release:mesh.obj
 0001:0003b350       ??3Mesh@CoreGraphics@@SAXPAX@Z 0043c350 f i render_win32.release:mesh.obj
 0001:0003b370       ?GetRtti@Mesh@CoreGraphics@@UBEPAVRtti@Core@@XZ 0043c370 f   render_win32.release:mesh.obj
 0001:0003b380       ?FactoryCreator@Mesh@CoreGraphics@@SAPAVRefCounted@Core@@XZ 0043c380 f   render_win32.release:mesh.obj
 0001:0003b390       ?Create@Mesh@CoreGraphics@@SAPAV12@XZ 0043c390 f   render_win32.release:mesh.obj
 0001:0003b3d0       ??0Mesh@CoreGraphics@@QAE@XZ 0043c3d0 f i render_win32.release:mesh.obj
 0001:0003b3f0       ??_GMesh@CoreGraphics@@UAEPAXI@Z 0043c3f0 f i render_win32.release:mesh.obj
 0001:0003b3f0       ??_EMesh@CoreGraphics@@UAEPAXI@Z 0043c3f0 f i  CIL library: CIL module
 0001:0003b420       ??1Mesh@CoreGraphics@@UAE@XZ 0043c420 f i render_win32.release:mesh.obj
 0001:0003b440       ?RegisterWithFactory@Mesh@CoreGraphics@@SA_NXZ 0043c440 f   render_win32.release:mesh.obj
 0001:0003b540       ??2ManagedMesh@Resources@@SAPAXI@Z 0043c540 f i render_win32.release:managedmesh.obj
 0001:0003b550       ??3ManagedMesh@Resources@@SAXPAX@Z 0043c550 f i render_win32.release:managedmesh.obj
 0001:0003b570       ?GetRtti@ManagedMesh@Resources@@UBEPAVRtti@Core@@XZ 0043c570 f   render_win32.release:managedmesh.obj
 0001:0003b580       ?FactoryCreator@ManagedMesh@Resources@@SAPAVRefCounted@Core@@XZ 0043c580 f   render_win32.release:managedmesh.obj
 0001:0003b590       ?Create@ManagedMesh@Resources@@SAPAV12@XZ 0043c590 f   render_win32.release:managedmesh.obj
 0001:0003b5d0       ??0ManagedMesh@Resources@@QAE@XZ 0043c5d0 f i render_win32.release:managedmesh.obj
 0001:0003b5f0       ??_GManagedMesh@Resources@@UAEPAXI@Z 0043c5f0 f i render_win32.release:managedmesh.obj
 0001:0003b5f0       ??_EManagedMesh@Resources@@UAEPAXI@Z 0043c5f0 f i  CIL library: CIL module
 0001:0003b620       ??1ManagedMesh@Resources@@UAE@XZ 0043c620 f i render_win32.release:managedmesh.obj
 0001:0003b640       ?RegisterWithFactory@ManagedMesh@Resources@@SA_NXZ 0043c640 f   render_win32.release:managedmesh.obj
 0001:0003b740       ??2ResourceLoader@Resources@@SAPAXI@Z 0043c740 f i render_win32.release:resourceloader.obj
 0001:0003b750       ??3ResourceLoader@Resources@@SAXPAX@Z 0043c750 f i render_win32.release:resourceloader.obj
 0001:0003b770       ?SetState@ResourceLoader@Resources@@IAEXW4State@Resource@2@@Z 0043c770 f i render_win32.release:resourceloader.obj
 0001:0003b790       ?GetRtti@ResourceLoader@Resources@@UBEPAVRtti@Core@@XZ 0043c790 f   render_win32.release:resourceloader.obj
 0001:0003b7a0       ?FactoryCreator@ResourceLoader@Resources@@SAPAVRefCounted@Core@@XZ 0043c7a0 f   render_win32.release:resourceloader.obj
 0001:0003b7b0       ?Create@ResourceLoader@Resources@@SAPAV12@XZ 0043c7b0 f   render_win32.release:resourceloader.obj
 0001:0003b7f0       ?RegisterWithFactory@ResourceLoader@Resources@@SA_NXZ 0043c7f0 f   render_win32.release:resourceloader.obj
 0001:0003b8f0       ??0ResourceLoader@Resources@@QAE@XZ 0043c8f0 f   render_win32.release:resourceloader.obj
 0001:0003b930       ??_EResourceLoader@Resources@@UAEPAXI@Z 0043c930 f i  CIL library: CIL module
 0001:0003b930       ??_GResourceLoader@Resources@@UAEPAXI@Z 0043c930 f i render_win32.release:resourceloader.obj
 0001:0003b960       ??1ResourceLoader@Resources@@UAE@XZ 0043c960 f   render_win32.release:resourceloader.obj
 0001:0003b9b0       ?OnAttachToResource@ResourceLoader@Resources@@UAEXABV?$Ptr@VResource@Resources@@@@@Z 0043c9b0 f   render_win32.release:resourceloader.obj
 0001:0003b9f0       ?OnRemoveFromResource@ResourceLoader@Resources@@UAEXXZ 0043c9f0 f   render_win32.release:resourceloader.obj
 0001:0003ba50       ?IsAttachedToResource@ResourceLoader@Resources@@QBE_NXZ 0043ca50 f   render_win32.release:resourceloader.obj
 0001:0003ba70       ?GetResource@ResourceLoader@Resources@@QBEABV?$Ptr@VResource@Resources@@@@XZ 0043ca70 f   render_win32.release:resourceloader.obj
 0001:0003ba90       ?CanLoadAsync@ResourceLoader@Resources@@UBE_NXZ 0043ca90 f   render_win32.release:resourceloader.obj
 0001:0003baa0       ?OnLoadRequested@ResourceLoader@Resources@@UAE_NXZ 0043caa0 f   render_win32.release:resourceloader.obj
 0001:0003bab0       ?OnLoadCancelled@ResourceLoader@Resources@@UAEXXZ 0043cab0 f   render_win32.release:resourceloader.obj
 0001:0003bad0       ?OnPending@ResourceLoader@Resources@@UAE_NXZ 0043cad0 f   render_win32.release:resourceloader.obj
 0001:0003bae0       ?Reset@ResourceLoader@Resources@@UAEXXZ 0043cae0 f   render_win32.release:resourceloader.obj
 0001:0003bb10       ??4?$Ptr@VResource@Resources@@@@QAEXPAVResource@Resources@@@Z 0043cb10 f i render_win32.release:resourceloader.obj
 0001:0003bb70       ??4?$Ptr@VResource@Resources@@@@QAEXABV0@@Z 0043cb70 f i render_win32.release:resourceloader.obj
 0001:0003bbd0       ?isvalid@?$Ptr@VResource@Resources@@@@QBE_NXZ 0043cbd0 f i render_win32.release:resourceloader.obj
 0001:0003bbf0       ??0StringAtom@Util@@QAE@ABV01@@Z 0043cbf0 f i render_win32.release:animresource.obj
 0001:0003bc10       ??9StringAtom@Util@@QBE_NABV01@@Z 0043cc10 f i render_win32.release:animresource.obj
 0001:0003bc30       ??OStringAtom@Util@@QBE_NABV01@@Z 0043cc30 f i render_win32.release:animresource.obj
 0001:0003bc50       ??MStringAtom@Util@@QBE_NABV01@@Z 0043cc50 f i render_win32.release:animresource.obj
 0001:0003bc70       ?GetKeySliceFirstKeyIndex@AnimClip@CoreAnimation@@QBEHXZ 0043cc70 f i render_win32.release:animresource.obj
 0001:0003bc90       ?GetKeySliceByteSize@AnimClip@CoreAnimation@@QBEHXZ 0043cc90 f i render_win32.release:animresource.obj
 0001:0003bcb0       ?AreKeySliceValuesValid@AnimClip@CoreAnimation@@QBE_NXZ 0043ccb0 f i render_win32.release:animresource.obj
 0001:0003bcd0       ?GetName@AnimClip@CoreAnimation@@QBEABVStringAtom@Util@@XZ 0043ccd0 f i render_win32.release:animresource.obj
 0001:0003bce0       ?GetKeyStride@AnimClip@CoreAnimation@@QBEHXZ 0043cce0 f i render_win32.release:animresource.obj
 0001:0003bd00       ?GetKeyBufferPointer@AnimKeyBuffer@CoreAnimation@@QBEPAVfloat4@Math@@XZ 0043cd00 f i render_win32.release:animresource.obj
 0001:0003bd20       ??2AnimResource@CoreAnimation@@SAPAXI@Z 0043cd20 f i render_win32.release:animresource.obj
 0001:0003bd30       ??3AnimResource@CoreAnimation@@SAXPAX@Z 0043cd30 f i render_win32.release:animresource.obj
 0001:0003bd50       ?GetRtti@AnimResource@CoreAnimation@@UBEPAVRtti@Core@@XZ 0043cd50 f   render_win32.release:animresource.obj
 0001:0003bd60       ?FactoryCreator@AnimResource@CoreAnimation@@SAPAVRefCounted@Core@@XZ 0043cd60 f   render_win32.release:animresource.obj
 0001:0003bd70       ?Create@AnimResource@CoreAnimation@@SAPAV12@XZ 0043cd70 f   render_win32.release:animresource.obj
 0001:0003bdb0       ?RegisterWithFactory@AnimResource@CoreAnimation@@SA_NXZ 0043cdb0 f   render_win32.release:animresource.obj
 0001:0003beb0       ??0AnimResource@CoreAnimation@@QAE@XZ 0043ceb0 f   render_win32.release:animresource.obj
 0001:0003bef0       ??_EAnimResource@CoreAnimation@@UAEPAXI@Z 0043cef0 f i  CIL library: CIL module
 0001:0003bef0       ??_GAnimResource@CoreAnimation@@UAEPAXI@Z 0043cef0 f i render_win32.release:animresource.obj
 0001:0003bf20       ??1?$Dictionary@VStringAtom@Util@@H@Util@@QAE@XZ 0043cf20 f i render_win32.release:animresource.obj
 0001:0003bf40       ??1AnimResource@CoreAnimation@@UAE@XZ 0043cf40 f   render_win32.release:animresource.obj
 0001:0003bfb0       ?Unload@AnimResource@CoreAnimation@@UAEXXZ 0043cfb0 f   render_win32.release:animresource.obj
 0001:0003c010       ?SetupKeyBuffer@AnimResource@CoreAnimation@@AAEABV?$Ptr@VAnimKeyBuffer@CoreAnimation@@@@H@Z 0043d010 f   render_win32.release:animresource.obj
 0001:0003c070       ?BeginSetupClips@AnimResource@CoreAnimation@@AAEXH@Z 0043d070 f   render_win32.release:animresource.obj
 0001:0003c0e0       ?Clip@AnimResource@CoreAnimation@@AAEAAVAnimClip@2@H@Z 0043d0e0 f   render_win32.release:animresource.obj
 0001:0003c100       ?EndSetupClips@AnimResource@CoreAnimation@@AAEXXZ 0043d100 f   render_win32.release:animresource.obj
 0001:0003c180       ?BuildClipIndexMap@AnimResource@CoreAnimation@@AAEXXZ 0043d180 f   render_win32.release:animresource.obj
 0001:0003c280       ?ComputeKeySlicePointerAndSize@AnimResource@CoreAnimation@@QBEPBVfloat4@Math@@HHAAH@Z 0043d280 f   render_win32.release:animresource.obj
 0001:0003c340       ??1?$Array@V?$KeyValuePair@VStringAtom@Util@@H@Util@@@Util@@QAE@XZ 0043d340 f i render_win32.release:animresource.obj
 0001:0003c360       ??0?$Dictionary@VStringAtom@Util@@H@Util@@QAE@XZ 0043d360 f i render_win32.release:animresource.obj
 0001:0003c380       ?Clear@?$Dictionary@VStringAtom@Util@@H@Util@@QAEXXZ 0043d380 f i render_win32.release:animresource.obj
 0001:0003c3c0       ?IsEmpty@?$Dictionary@VStringAtom@Util@@H@Util@@QBE_NXZ 0043d3c0 f i render_win32.release:animresource.obj
 0001:0003c3e0       ?Reserve@?$Dictionary@VStringAtom@Util@@H@Util@@QAEXH@Z 0043d3e0 f i render_win32.release:animresource.obj
 0001:0003c400       ?BeginBulkAdd@?$Dictionary@VStringAtom@Util@@H@Util@@QAEXXZ 0043d400 f i render_win32.release:animresource.obj
 0001:0003c440       ?Add@?$Dictionary@VStringAtom@Util@@H@Util@@QAEXABVStringAtom@2@ABH@Z 0043d440 f i render_win32.release:animresource.obj
 0001:0003c490       ?EndBulkAdd@?$Dictionary@VStringAtom@Util@@H@Util@@QAEXXZ 0043d490 f i render_win32.release:animresource.obj
 0001:0003c4d0       ??0?$FixedArray@VAnimClip@CoreAnimation@@@Util@@QAE@XZ 0043d4d0 f i render_win32.release:animresource.obj
 0001:0003c500       ??1?$FixedArray@VAnimClip@CoreAnimation@@@Util@@QAE@XZ 0043d500 f i render_win32.release:animresource.obj
 0001:0003c520       ??A?$FixedArray@VAnimClip@CoreAnimation@@@Util@@QBEAAVAnimClip@CoreAnimation@@H@Z 0043d520 f i render_win32.release:animresource.obj
 0001:0003c570       ?SetSize@?$FixedArray@VAnimClip@CoreAnimation@@@Util@@QAEXH@Z 0043d570 f i render_win32.release:animresource.obj
 0001:0003c5a0       ?Size@?$FixedArray@VAnimClip@CoreAnimation@@@Util@@QBEHXZ 0043d5a0 f i render_win32.release:animresource.obj
 0001:0003c5b0       ?IsEmpty@?$FixedArray@VAnimClip@CoreAnimation@@@Util@@QBE_NXZ 0043d5b0 f i render_win32.release:animresource.obj
 0001:0003c5d0       ?Clear@?$FixedArray@VAnimClip@CoreAnimation@@@Util@@QAEXXZ 0043d5d0 f i render_win32.release:animresource.obj
 0001:0003c5f0       ??0?$Ptr@VAnimKeyBuffer@CoreAnimation@@@@QAE@XZ 0043d5f0 f i render_win32.release:animresource.obj
 0001:0003c610       ??1?$Ptr@VAnimKeyBuffer@CoreAnimation@@@@QAE@XZ 0043d610 f i render_win32.release:animresource.obj
 0001:0003c640       ??4?$Ptr@VAnimKeyBuffer@CoreAnimation@@@@QAEXPAVAnimKeyBuffer@CoreAnimation@@@Z 0043d640 f i render_win32.release:animresource.obj
 0001:0003c6a0       ??C?$Ptr@VAnimKeyBuffer@CoreAnimation@@@@QBEPAVAnimKeyBuffer@CoreAnimation@@XZ 0043d6a0 f i render_win32.release:animresource.obj
 0001:0003c6e0       ?isvalid@?$Ptr@VAnimKeyBuffer@CoreAnimation@@@@QBE_NXZ 0043d6e0 f i render_win32.release:animresource.obj
 0001:0003c700       ??0?$Array@V?$KeyValuePair@VStringAtom@Util@@H@Util@@@Util@@QAE@XZ 0043d700 f i render_win32.release:animresource.obj
 0001:0003c740       ?Append@?$Array@V?$KeyValuePair@VStringAtom@Util@@H@Util@@@Util@@QAEXABV?$KeyValuePair@VStringAtom@Util@@H@2@@Z 0043d740 f i render_win32.release:animresource.obj
 0001:0003c7c0       ?Reserve@?$Array@V?$KeyValuePair@VStringAtom@Util@@H@Util@@@Util@@QAEXH@Z 0043d7c0 f i render_win32.release:animresource.obj
 0001:0003c810       ?Size@?$Array@V?$KeyValuePair@VStringAtom@Util@@H@Util@@@Util@@QBEHXZ 0043d810 f i render_win32.release:animresource.obj
 0001:0003c830       ?InsertSorted@?$Array@V?$KeyValuePair@VStringAtom@Util@@H@Util@@@Util@@QAEHABV?$KeyValuePair@VStringAtom@Util@@H@2@@Z 0043d830 f i render_win32.release:animresource.obj
 0001:0003caa0       ?Clear@?$Array@V?$KeyValuePair@VStringAtom@Util@@H@Util@@@Util@@QAEXXZ 0043daa0 f i render_win32.release:animresource.obj
 0001:0003caf0       ?Sort@?$Array@V?$KeyValuePair@VStringAtom@Util@@H@Util@@@Util@@QAEXXZ 0043daf0 f i render_win32.release:animresource.obj
 0001:0003cb60       ?Delete@?$Array@V?$KeyValuePair@VStringAtom@Util@@H@Util@@@Util@@AAEXXZ 0043db60 f i render_win32.release:animresource.obj
 0001:0003cbc0       ??0?$KeyValuePair@VStringAtom@Util@@H@Util@@QAE@ABVStringAtom@1@ABH@Z 0043dbc0 f i render_win32.release:animresource.obj
 0001:0003cbf0       ?Delete@?$FixedArray@VAnimClip@CoreAnimation@@@Util@@AAEXXZ 0043dbf0 f i render_win32.release:animresource.obj
 0001:0003cc50       ?Alloc@?$FixedArray@VAnimClip@CoreAnimation@@@Util@@AAEXH@Z 0043dc50 f i render_win32.release:animresource.obj
 0001:0003cd20       ??_EAnimClip@CoreAnimation@@QAEPAXI@Z 0043dd20 f i render_win32.release:animresource.obj
 0001:0003cdf0       ??1AnimClip@CoreAnimation@@QAE@XZ 0043ddf0 f i render_win32.release:animresource.obj
 0001:0003ce20       ?Insert@?$Array@V?$KeyValuePair@VStringAtom@Util@@H@Util@@@Util@@QAEXHABV?$KeyValuePair@VStringAtom@Util@@H@2@@Z 0043de20 f i render_win32.release:animresource.obj
 0001:0003ce90       ?InsertAtEndOfIdenticalRange@?$Array@V?$KeyValuePair@VStringAtom@Util@@H@Util@@@Util@@QAEHHABV?$KeyValuePair@VStringAtom@Util@@H@2@@Z 0043de90 f i render_win32.release:animresource.obj
 0001:0003cf10       ?Begin@?$Array@V?$KeyValuePair@VStringAtom@Util@@H@Util@@@Util@@QBEPAV?$KeyValuePair@VStringAtom@Util@@H@2@XZ 0043df10 f i render_win32.release:animresource.obj
 0001:0003cf30       ?End@?$Array@V?$KeyValuePair@VStringAtom@Util@@H@Util@@@Util@@QBEPAV?$KeyValuePair@VStringAtom@Util@@H@2@XZ 0043df30 f i render_win32.release:animresource.obj
 0001:0003cf50       ?Destroy@?$Array@V?$KeyValuePair@VStringAtom@Util@@H@Util@@@Util@@AAEXPAV?$KeyValuePair@VStringAtom@Util@@H@2@@Z 0043df50 f i render_win32.release:animresource.obj
 0001:0003cf60       ?Grow@?$Array@V?$KeyValuePair@VStringAtom@Util@@H@Util@@@Util@@AAEXXZ 0043df60 f i render_win32.release:animresource.obj
 0001:0003cfe0       ?GrowTo@?$Array@V?$KeyValuePair@VStringAtom@Util@@H@Util@@@Util@@AAEXH@Z 0043dfe0 f i render_win32.release:animresource.obj
 0001:0003d0d0       ??4?$KeyValuePair@VStringAtom@Util@@H@Util@@QAEXABV01@@Z 0043e0d0 f i render_win32.release:animresource.obj
 0001:0003d100       ??9?$KeyValuePair@VStringAtom@Util@@H@Util@@QBE_NABV01@@Z 0043e100 f i render_win32.release:animresource.obj
 0001:0003d120       ??O?$KeyValuePair@VStringAtom@Util@@H@Util@@QBE_NABV01@@Z 0043e120 f i render_win32.release:animresource.obj
 0001:0003d140       ??M?$KeyValuePair@VStringAtom@Util@@H@Util@@QBE_NABV01@@Z 0043e140 f i render_win32.release:animresource.obj
 0001:0003d160       ??$sort@PAV?$KeyValuePair@VStringAtom@Util@@H@Util@@@std@@YAXPAV?$KeyValuePair@VStringAtom@Util@@H@Util@@0@Z 0043e160 f i render_win32.release:animresource.obj
 0001:0003d190       ??1?$FixedArray@VAnimCurve@CoreAnimation@@@Util@@QAE@XZ 0043e190 f i render_win32.release:animresource.obj
 0001:0003d1b0       ??1?$Array@VAnimEvent@CoreAnimation@@@Util@@QAE@XZ 0043e1b0 f i render_win32.release:animresource.obj
 0001:0003d1d0       ?Move@?$Array@V?$KeyValuePair@VStringAtom@Util@@H@Util@@@Util@@AAEXHH@Z 0043e1d0 f i render_win32.release:animresource.obj
 0001:0003d360       ??0?$KeyValuePair@VStringAtom@Util@@H@Util@@QAE@XZ 0043e360 f i render_win32.release:animresource.obj
 0001:0003d380       ??$_Checked_base@PAV?$KeyValuePair@VStringAtom@Util@@H@Util@@@std@@YAPAV?$KeyValuePair@VStringAtom@Util@@H@Util@@AAPAV12@@Z 0043e380 f i render_win32.release:animresource.obj
 0001:0003d3a0       ??$_Sort@PAV?$KeyValuePair@VStringAtom@Util@@H@Util@@H@std@@YAXPAV?$KeyValuePair@VStringAtom@Util@@H@Util@@0H@Z 0043e3a0 f i render_win32.release:animresource.obj
 0001:0003d4d0       ?Delete@?$FixedArray@VAnimCurve@CoreAnimation@@@Util@@AAEXXZ 0043e4d0 f i render_win32.release:animresource.obj
 0001:0003d510       ?Delete@?$Array@VAnimEvent@CoreAnimation@@@Util@@AAEXXZ 0043e510 f i render_win32.release:animresource.obj
 0001:0003d570       ??$_Checked_base@PAV?$KeyValuePair@VStringAtom@Util@@H@Util@@@std@@YAPAV?$KeyValuePair@VStringAtom@Util@@H@Util@@AAPAV12@U_Unchanged_checked_iterator_base_type_tag@0@@Z 0043e570 f i render_win32.release:animresource.obj
 0001:0003d580       ??$_Unguarded_partition@PAV?$KeyValuePair@VStringAtom@Util@@H@Util@@@std@@YA?AU?$pair@PAV?$KeyValuePair@VStringAtom@Util@@H@Util@@PAV12@@0@PAV?$KeyValuePair@VStringAtom@Util@@H@Util@@0@Z 0043e580 f i render_win32.release:animresource.obj
 0001:0003d910       ??$make_heap@PAV?$KeyValuePair@VStringAtom@Util@@H@Util@@@std@@YAXPAV?$KeyValuePair@VStringAtom@Util@@H@Util@@0@Z 0043e910 f i render_win32.release:animresource.obj
 0001:0003d950       ??$sort_heap@PAV?$KeyValuePair@VStringAtom@Util@@H@Util@@@std@@YAXPAV?$KeyValuePair@VStringAtom@Util@@H@Util@@0@Z 0043e950 f i render_win32.release:animresource.obj
 0001:0003d970       ??$_Insertion_sort@PAV?$KeyValuePair@VStringAtom@Util@@H@Util@@@std@@YAXPAV?$KeyValuePair@VStringAtom@Util@@H@Util@@0@Z 0043e970 f i render_win32.release:animresource.obj
 0001:0003d990       ??0?$pair@PAV?$KeyValuePair@VStringAtom@Util@@H@Util@@PAV12@@std@@QAE@ABQAV?$KeyValuePair@VStringAtom@Util@@H@Util@@0@Z 0043e990 f i render_win32.release:animresource.obj
 0001:0003d9c0       ??$_Median@PAV?$KeyValuePair@VStringAtom@Util@@H@Util@@@std@@YAXPAV?$KeyValuePair@VStringAtom@Util@@H@Util@@00@Z 0043e9c0 f i render_win32.release:animresource.obj
 0001:0003daa0       ??$iter_swap@PAV?$KeyValuePair@VStringAtom@Util@@H@Util@@PAV12@@std@@YAXPAV?$KeyValuePair@VStringAtom@Util@@H@Util@@0@Z 0043eaa0 f i render_win32.release:animresource.obj
 0001:0003dae0       ??$_Dist_type@PAV?$KeyValuePair@VStringAtom@Util@@H@Util@@@std@@YAPAHPAV?$KeyValuePair@VStringAtom@Util@@H@Util@@@Z 0043eae0 f i render_win32.release:animresource.obj
 0001:0003daf0       ??$_Val_type@PAV?$KeyValuePair@VStringAtom@Util@@H@Util@@@std@@YAPAV?$KeyValuePair@VStringAtom@Util@@H@Util@@PAV12@@Z 0043eaf0 f i render_win32.release:animresource.obj
 0001:0003db00       ??$_Make_heap@PAV?$KeyValuePair@VStringAtom@Util@@H@Util@@HV12@@std@@YAXPAV?$KeyValuePair@VStringAtom@Util@@H@Util@@0PAH0@Z 0043eb00 f i render_win32.release:animresource.obj
 0001:0003db60       ??$_Sort_heap@PAV?$KeyValuePair@VStringAtom@Util@@H@Util@@@std@@YAXPAV?$KeyValuePair@VStringAtom@Util@@H@Util@@0@Z 0043eb60 f i render_win32.release:animresource.obj
 0001:0003dbc0       ??$_Insertion_sort1@PAV?$KeyValuePair@VStringAtom@Util@@H@Util@@V12@@std@@YAXPAV?$KeyValuePair@VStringAtom@Util@@H@Util@@00@Z 0043ebc0 f i render_win32.release:animresource.obj
 0001:0003dc90       ??$_Med3@PAV?$KeyValuePair@VStringAtom@Util@@H@Util@@@std@@YAXPAV?$KeyValuePair@VStringAtom@Util@@H@Util@@00@Z 0043ec90 f i render_win32.release:animresource.obj
 0001:0003dd60       ??$swap@V?$KeyValuePair@VStringAtom@Util@@H@Util@@@std@@YAXAAV?$KeyValuePair@VStringAtom@Util@@H@Util@@0@Z 0043ed60 f i render_win32.release:animresource.obj
 0001:0003dda0       ??$_Adjust_heap@PAV?$KeyValuePair@VStringAtom@Util@@H@Util@@HV12@@std@@YAXPAV?$KeyValuePair@VStringAtom@Util@@H@Util@@HHV12@@Z 0043eda0 f i render_win32.release:animresource.obj
 0001:0003de70       ??0?$KeyValuePair@VStringAtom@Util@@H@Util@@QAE@ABV01@@Z 0043ee70 f i render_win32.release:animresource.obj
 0001:0003dea0       ??$pop_heap@PAV?$KeyValuePair@VStringAtom@Util@@H@Util@@@std@@YAXPAV?$KeyValuePair@VStringAtom@Util@@H@Util@@0@Z 0043eea0 f i render_win32.release:animresource.obj
 0001:0003ded0       ??$unchecked_copy_backward@PAV?$KeyValuePair@VStringAtom@Util@@H@Util@@PAV12@@stdext@@YAPAV?$KeyValuePair@VStringAtom@Util@@H@Util@@PAV12@00@Z 0043eed0 f i render_win32.release:animresource.obj
 0001:0003df70       ??$_Push_heap@PAV?$KeyValuePair@VStringAtom@Util@@H@Util@@HV12@@std@@YAXPAV?$KeyValuePair@VStringAtom@Util@@H@Util@@HHV12@@Z 0043ef70 f i render_win32.release:animresource.obj
 0001:0003dff0       ??$_Pop_heap_0@PAV?$KeyValuePair@VStringAtom@Util@@H@Util@@V12@@std@@YAXPAV?$KeyValuePair@VStringAtom@Util@@H@Util@@00@Z 0043eff0 f i render_win32.release:animresource.obj
 0001:0003e050       ??$_Iter_random@PAV?$KeyValuePair@VStringAtom@Util@@H@Util@@PAV12@@std@@YA?AUrandom_access_iterator_tag@0@ABQAV?$KeyValuePair@VStringAtom@Util@@H@Util@@0@Z 0043f050 f i render_win32.release:animresource.obj
 0001:0003e060       ??$_Ptr_cat@PAV?$KeyValuePair@VStringAtom@Util@@H@Util@@PAV12@@std@@YA?AU_Nonscalar_ptr_iterator_tag@0@AAPAV?$KeyValuePair@VStringAtom@Util@@H@Util@@0@Z 0043f060 f i render_win32.release:animresource.obj
 0001:0003e070       ??$_Copy_backward_opt@PAV?$KeyValuePair@VStringAtom@Util@@H@Util@@PAV12@@std@@YAPAV?$KeyValuePair@VStringAtom@Util@@H@Util@@PAV12@00Urandom_access_iterator_tag@0@U_Nonscalar_ptr_iterator_tag@0@U_Range_checked_iterator_tag@0@@Z 0043f070 f i render_win32.release:animresource.obj
 0001:0003e0e0       ??$_Pop_heap@PAV?$KeyValuePair@VStringAtom@Util@@H@Util@@HV12@@std@@YAXPAV?$KeyValuePair@VStringAtom@Util@@H@Util@@00V12@PAH@Z 0043f0e0 f i render_win32.release:animresource.obj
 0001:0003e120       ??$_Copy_backward_opt@PAV?$KeyValuePair@VStringAtom@Util@@H@Util@@PAV12@Uforward_iterator_tag@std@@@std@@YAPAV?$KeyValuePair@VStringAtom@Util@@H@Util@@PAV12@00Uforward_iterator_tag@0@U_Nonscalar_ptr_iterator_tag@0@U_Range_checked_iterator_tag@0@@Z 0043f120 f i render_win32.release:animresource.obj
 0001:0003e150       ??2ManagedAnimResource@CoreAnimation@@SAPAXI@Z 0043f150 f i render_win32.release:managedanimresource.obj
 0001:0003e160       ??3ManagedAnimResource@CoreAnimation@@SAXPAX@Z 0043f160 f i render_win32.release:managedanimresource.obj
 0001:0003e180       ?GetRtti@ManagedAnimResource@CoreAnimation@@UBEPAVRtti@Core@@XZ 0043f180 f   render_win32.release:managedanimresource.obj
 0001:0003e190       ?FactoryCreator@ManagedAnimResource@CoreAnimation@@SAPAVRefCounted@Core@@XZ 0043f190 f   render_win32.release:managedanimresource.obj
 0001:0003e1a0       ?Create@ManagedAnimResource@CoreAnimation@@SAPAV12@XZ 0043f1a0 f   render_win32.release:managedanimresource.obj
 0001:0003e1e0       ??0ManagedAnimResource@CoreAnimation@@QAE@XZ 0043f1e0 f i render_win32.release:managedanimresource.obj
 0001:0003e200       ??_EManagedAnimResource@CoreAnimation@@UAEPAXI@Z 0043f200 f i  CIL library: CIL module
 0001:0003e200       ??_GManagedAnimResource@CoreAnimation@@UAEPAXI@Z 0043f200 f i render_win32.release:managedanimresource.obj
 0001:0003e230       ??1ManagedAnimResource@CoreAnimation@@UAE@XZ 0043f230 f i render_win32.release:managedanimresource.obj
 0001:0003e250       ?RegisterWithFactory@ManagedAnimResource@CoreAnimation@@SA_NXZ 0043f250 f   render_win32.release:managedanimresource.obj
 0001:0003e350       ?storeu@float4@Math@@QBEXPAM@Z 0043f350 f i render_win32.release:animatornodeinstance.obj
 0001:0003e380       ??Hfloat4@Math@@QBE?AV01@ABV01@@Z 0043f380 f i render_win32.release:animatornodeinstance.obj
 0001:0003e3e0       ??Gfloat4@Math@@QBE?AV01@ABV01@@Z 0043f3e0 f i render_win32.release:animatornodeinstance.obj
 0001:0003e440       ?x@float4@Math@@QBEMXZ     0043f440 f i render_win32.release:animatornodeinstance.obj
 0001:0003e470       ?y@float4@Math@@QBEMXZ     0043f470 f i render_win32.release:animatornodeinstance.obj
 0001:0003e4c0       ?z@float4@Math@@QBEMXZ     0043f4c0 f i render_win32.release:animatornodeinstance.obj
 0001:0003e510       ?multiply@float4@Math@@SA?AV12@ABV12@0@Z 0043f510 f i render_win32.release:animatornodeinstance.obj
 0001:0003e560       ?unpack_y@float4@Math@@SAMT__m128@@@Z 0043f560 f i render_win32.release:animatornodeinstance.obj
 0001:0003e5a0       ?unpack_z@float4@Math@@SAMT__m128@@@Z 0043f5a0 f i render_win32.release:animatornodeinstance.obj
 0001:0003e5e0       ??0vector@Math@@QAE@XZ     0043f5e0 f i render_win32.release:animatornodeinstance.obj
 0001:0003e670       ??Gvector@Math@@QBE?AV01@ABV01@@Z 0043f670 f i render_win32.release:animatornodeinstance.obj
 0001:0003e6d0       ??Dvector@Math@@QBE?AV01@M@Z 0043f6d0 f i render_win32.release:animatornodeinstance.obj
 0001:0003e730       ??0point@Math@@QAE@ABVfloat4@1@@Z 0043f730 f i render_win32.release:animatornodeinstance.obj
 0001:0003e820       ??0quaternion@Math@@QAE@ABVfloat4@1@@Z 0043f820 f i render_win32.release:animatornodeinstance.obj
 0001:0003e850       ??0quaternion@Math@@QAE@T__m128@@@Z 0043f850 f i render_win32.release:animatornodeinstance.obj
 0001:0003e880       ??4quaternion@Math@@QAEXABV01@@Z 0043f880 f i render_win32.release:animatornodeinstance.obj
 0001:0003e8a0       ?rotationyawpitchroll@quaternion@Math@@SA?AV12@MMM@Z 0043f8a0 f i render_win32.release:animatornodeinstance.obj
 0001:0003f120       ?set_position@matrix44@Math@@QAEXABVfloat4@2@@Z 00440120 f i render_win32.release:animatornodeinstance.obj
 0001:0003f150       ?scale@matrix44@Math@@QAEXABVfloat4@2@@Z 00440150 f i render_win32.release:animatornodeinstance.obj
 0001:0003f490       ?rotationyawpitchroll@matrix44@Math@@SA?AV12@MMM@Z 00440490 f i render_win32.release:animatornodeinstance.obj
 0001:0003f4e0       ?IsA@RefCounted@Core@@QBE_NABVRtti@2@@Z 004404e0 f i render_win32.release:animatornodeinstance.obj
 0001:0003f510       ?SecondsToTicks@Timing@@YAHN@Z 00440510 f i render_win32.release:animatornodeinstance.obj
 0001:0003f530       ?GetType@Variant@Util@@QBE?AW4Type@12@XZ 00440530 f i render_win32.release:animatornodeinstance.obj
 0001:0003f540       ??4Variant@Util@@QAEXH@Z   00440540 f i render_win32.release:animatornodeinstance.obj
 0001:0003f570       ??4Variant@Util@@QAEXM@Z   00440570 f i render_win32.release:animatornodeinstance.obj
 0001:0003f5a0       ??4Variant@Util@@QAEXABVfloat4@Math@@@Z 004405a0 f i render_win32.release:animatornodeinstance.obj
 0001:0003f5e0       ??4Variant@Util@@QAEXABVmatrix44@Math@@@Z 004405e0 f i render_win32.release:animatornodeinstance.obj
 0001:0003f6a0       ?SetInt@ShaderVariableInstanceBase@Base@@QAEXH@Z 004406a0 f i render_win32.release:animatornodeinstance.obj
 0001:0003f700       ?SetFloat@ShaderVariableInstanceBase@Base@@QAEXM@Z 00440700 f i render_win32.release:animatornodeinstance.obj
 0001:0003f760       ?SetFloat4@ShaderVariableInstanceBase@Base@@QAEXABVfloat4@Math@@@Z 00440760 f i render_win32.release:animatornodeinstance.obj
 0001:0003f7d0       ?SetMatrix@ShaderVariableInstanceBase@Base@@QAEXABVmatrix44@Math@@@Z 004407d0 f i render_win32.release:animatornodeinstance.obj
 0001:0003f820       ??2AnimatorNodeInstance@Models@@SAPAXI@Z 00440820 f i render_win32.release:animatornodeinstance.obj
 0001:0003f830       ??3AnimatorNodeInstance@Models@@SAXPAX@Z 00440830 f i render_win32.release:animatornodeinstance.obj
 0001:0003f850       ?OverwriteAnimationTime@AnimatorNodeInstance@Models@@UAEXN@Z 00440850 f i render_win32.release:animatornodeinstance.obj
 0001:0003f870       ?setposition@transform44@Math@@QAEXABVpoint@2@@Z 00440870 f i render_win32.release:animatornodeinstance.obj
 0001:0003f8a0       ?setrotate@transform44@Math@@QAEXABVquaternion@2@@Z 004408a0 f i render_win32.release:animatornodeinstance.obj
 0001:0003f8d0       ?setscale@transform44@Math@@QAEXABVvector@2@@Z 004408d0 f i render_win32.release:animatornodeinstance.obj
 0001:0003f900       ?SetPosition@TransformNodeInstance@Models@@QAEXABVpoint@Math@@@Z 00440900 f i render_win32.release:animatornodeinstance.obj
 0001:0003f940       ?SetRotate@TransformNodeInstance@Models@@QAEXABVquaternion@Math@@@Z 00440940 f i render_win32.release:animatornodeinstance.obj
 0001:0003f980       ?SetScale@TransformNodeInstance@Models@@QAEXABVvector@Math@@@Z 00440980 f i render_win32.release:animatornodeinstance.obj
 0001:0003f9c0       ?GetLoadedResource@ManagedResource@Resources@@QBEABV?$Ptr@VResource@Resources@@@@XZ 004409c0 f i render_win32.release:animatornodeinstance.obj
 0001:0003f9f0       ?GetStartTime@AnimClip@CoreAnimation@@QBEHXZ 004409f0 f i render_win32.release:animatornodeinstance.obj
 0001:0003fa10       ?GetClipByIndex@AnimResource@CoreAnimation@@QBEABVAnimClip@2@H@Z 00440a10 f i render_win32.release:animatornodeinstance.obj
 0001:0003fa30       ?GetAnimResource@ManagedAnimResource@CoreAnimation@@QBEABV?$Ptr@VAnimResource@CoreAnimation@@@@XZ 00440a30 f i render_win32.release:animatornodeinstance.obj
 0001:0003fa70       ?GetLoopType@AnimatorNode@Models@@QBEAAW4Type@AnimLoopType@2@H@Z 00440a70 f i render_win32.release:animatornodeinstance.obj
 0001:0003faa0       ?GetShaderVariableSemantic@AnimatorNode@Models@@QBEABVStringAtom@Util@@H@Z 00440aa0 f i render_win32.release:animatornodeinstance.obj
 0001:0003fad0       ?GetAnimationGroup@AnimatorNode@Models@@QAEHH@Z 00440ad0 f i render_win32.release:animatornodeinstance.obj
 0001:0003fb00       ?GetManagedAnimResource@AnimatorNode@Models@@QAEAAV?$Ptr@VManagedAnimResource@CoreAnimation@@@@H@Z 00440b00 f i render_win32.release:animatornodeinstance.obj
 0001:0003fb30       ?GetFloat4KeyArray@AnimatorNode@Models@@QAEAAV?$AnimKeyArray@V?$AnimKey@Vfloat4@Math@@@Models@@@2@H@Z 00440b30 f i render_win32.release:animatornodeinstance.obj
 0001:0003fb60       ?GetFloatKeyArray@AnimatorNode@Models@@QAEAAV?$AnimKeyArray@V?$AnimKey@M@Models@@@2@H@Z 00440b60 f i render_win32.release:animatornodeinstance.obj
 0001:0003fb90       ?GetIntKeyArray@AnimatorNode@Models@@QAEAAV?$AnimKeyArray@V?$AnimKey@H@Models@@@2@H@Z 00440b90 f i render_win32.release:animatornodeinstance.obj
 0001:0003fbc0       ?GetAnimationNodeType@AnimatorNode@Models@@QAE?AW4NodeType@12@H@Z 00440bc0 f i render_win32.release:animatornodeinstance.obj
 0001:0003fbf0       ?GetAllAnimatedNodesPaths@AnimatorNode@Models@@QAE?AV?$Array@VString@Util@@@Util@@H@Z 00440bf0 f i render_win32.release:animatornodeinstance.obj
 0001:0003fc20       ?GetPosArray@AnimatorNode@Models@@QAEAAV?$AnimKeyArray@V?$AnimKey@Vvector@Math@@@Models@@@2@H@Z 00440c20 f i render_win32.release:animatornodeinstance.obj
 0001:0003fc50       ?GetEulerArray@AnimatorNode@Models@@QAEAAV?$AnimKeyArray@V?$AnimKey@Vvector@Math@@@Models@@@2@H@Z 00440c50 f i render_win32.release:animatornodeinstance.obj
 0001:0003fc80       ?GetScaleArray@AnimatorNode@Models@@QAEAAV?$AnimKeyArray@V?$AnimKey@Vvector@Math@@@Models@@@2@H@Z 00440c80 f i render_win32.release:animatornodeinstance.obj
 0001:0003fcb0       ?GetNumAnimSections@AnimatorNode@Models@@QBEHXZ 00440cb0 f i render_win32.release:animatornodeinstance.obj
 0001:0003fcd0       ?GetNumSamples@AnimSampleBuffer@CoreAnimation@@QBEHXZ 00440cd0 f i render_win32.release:animatornodeinstance.obj
 0001:0003fcf0       ?GetSamplesPointer@AnimSampleBuffer@CoreAnimation@@QBEPAVfloat4@Math@@XZ 00440cf0 f i render_win32.release:animatornodeinstance.obj
 0001:0003fd10       ?GetRtti@AnimatorNodeInstance@Models@@UBEPAVRtti@Core@@XZ 00440d10 f   render_win32.release:animatornodeinstance.obj
 0001:0003fd20       ?FactoryCreator@AnimatorNodeInstance@Models@@SAPAVRefCounted@Core@@XZ 00440d20 f   render_win32.release:animatornodeinstance.obj
 0001:0003fd30       ?Create@AnimatorNodeInstance@Models@@SAPAV12@XZ 00440d30 f   render_win32.release:animatornodeinstance.obj
 0001:0003fd70       ?RegisterWithFactory@AnimatorNodeInstance@Models@@SA_NXZ 00440d70 f   render_win32.release:animatornodeinstance.obj
 0001:0003fe70       ??0AnimatorNodeInstance@Models@@QAE@XZ 00440e70 f   render_win32.release:animatornodeinstance.obj
 0001:0003fec0       ??_EAnimatorNodeInstance@Models@@UAEPAXI@Z 00440ec0 f i  CIL library: CIL module
 0001:0003fec0       ??_GAnimatorNodeInstance@Models@@UAEPAXI@Z 00440ec0 f i render_win32.release:animatornodeinstance.obj
 0001:0003fef0       ??1AnimatorNodeInstance@Models@@UAE@XZ 00440ef0 f   render_win32.release:animatornodeinstance.obj
 0001:0003ff20       ?Setup@AnimatorNodeInstance@Models@@UAEXABV?$Ptr@VModelInstance@Models@@@@ABV?$Ptr@VModelNode@Models@@@@ABV?$Ptr@VModelNodeInstance@Models@@@@@Z 00440f20 f   render_win32.release:animatornodeinstance.obj
 0001:00040220       ??0AnimatedNode@AnimatorNodeInstance@Models@@QAE@XZ 00441220 f i render_win32.release:animatornodeinstance.obj
 0001:00040250       ??1AnimatedNode@AnimatorNodeInstance@Models@@QAE@XZ 00441250 f i render_win32.release:animatornodeinstance.obj
 0001:00040270       ?OnShow@AnimatorNodeInstance@Models@@EAEXN@Z 00441270 f   render_win32.release:animatornodeinstance.obj
 0001:000402b0       ?OnNotifyCullingVisible@AnimatorNodeInstance@Models@@UAEXHN@Z 004412b0 f   render_win32.release:animatornodeinstance.obj
 0001:00040310       ?Animate@AnimatorNodeInstance@Models@@AAEXN@Z 00441310 f   render_win32.release:animatornodeinstance.obj
 0001:00042b40       ??C?$Ptr@VModelInstance@Models@@@@QBEPAVModelInstance@Models@@XZ 00443b40 f i render_win32.release:animatornodeinstance.obj
 0001:00042b80       ??0?$Ptr@VModelNodeInstance@Models@@@@QAE@XZ 00443b80 f i render_win32.release:animatornodeinstance.obj
 0001:00042ba0       ??1?$Ptr@VModelNodeInstance@Models@@@@QAE@XZ 00443ba0 f i render_win32.release:animatornodeinstance.obj
 0001:00042bd0       ??4?$Ptr@VModelNodeInstance@Models@@@@QAEXABV0@@Z 00443bd0 f i render_win32.release:animatornodeinstance.obj
 0001:00042c30       ??C?$Ptr@VModelNodeInstance@Models@@@@QBEPAVModelNodeInstance@Models@@XZ 00443c30 f i render_win32.release:animatornodeinstance.obj
 0001:00042c70       ?isvalid@?$Ptr@VModelNodeInstance@Models@@@@QBE_NXZ 00443c70 f i render_win32.release:animatornodeinstance.obj
 0001:00042c90       ??0?$Ptr@VShaderVariableInstance@CoreGraphics@@@@QAE@XZ 00443c90 f i render_win32.release:animatornodeinstance.obj
 0001:00042cb0       ??4?$Ptr@VShaderVariableInstance@CoreGraphics@@@@QAEXABV0@@Z 00443cb0 f i render_win32.release:animatornodeinstance.obj
 0001:00042d10       ??C?$Ptr@VShaderVariableInstance@CoreGraphics@@@@QBEPAVShaderVariableInstance@CoreGraphics@@XZ 00443d10 f i render_win32.release:animatornodeinstance.obj
 0001:00042d50       ?isvalid@?$Ptr@VShaderVariableInstance@CoreGraphics@@@@QBE_NXZ 00443d50 f i render_win32.release:animatornodeinstance.obj
 0001:00042d70       ??0?$Array@V?$Array@UAnimatedNode@AnimatorNodeInstance@Models@@@Util@@@Util@@QAE@XZ 00443d70 f i render_win32.release:animatornodeinstance.obj
 0001:00042db0       ??1?$Array@V?$Array@UAnimatedNode@AnimatorNodeInstance@Models@@@Util@@@Util@@QAE@XZ 00443db0 f i render_win32.release:animatornodeinstance.obj
 0001:00042dd0       ??A?$Array@V?$Array@UAnimatedNode@AnimatorNodeInstance@Models@@@Util@@@Util@@QBEAAV?$Array@UAnimatedNode@AnimatorNodeInstance@Models@@@1@H@Z 00443dd0 f i render_win32.release:animatornodeinstance.obj
 0001:00042e20       ?Append@?$Array@V?$Array@UAnimatedNode@AnimatorNodeInstance@Models@@@Util@@@Util@@QAEXABV?$Array@UAnimatedNode@AnimatorNodeInstance@Models@@@2@@Z 00443e20 f i render_win32.release:animatornodeinstance.obj
 0001:00042ea0       ??0?$Ptr@VTransformNodeInstance@Models@@@@QAE@ABV0@@Z 00443ea0 f i render_win32.release:animatornodeinstance.obj
 0001:00042ee0       ??1?$Ptr@VTransformNodeInstance@Models@@@@QAE@XZ 00443ee0 f i render_win32.release:animatornodeinstance.obj
 0001:00042f10       ??C?$Ptr@VTransformNodeInstance@Models@@@@QBEPAVTransformNodeInstance@Models@@XZ 00443f10 f i render_win32.release:animatornodeinstance.obj
 0001:00042f50       ??$downcast@VAnimResource@CoreAnimation@@@?$Ptr@VResource@Resources@@@@QBEABV?$Ptr@VAnimResource@CoreAnimation@@@@XZ 00443f50 f i render_win32.release:animatornodeinstance.obj
 0001:00042f70       ?Sample@?$AnimKeyArray@V?$AnimKey@Vvector@Math@@@Models@@@Models@@QAE_NMW4Type@AnimLoopType@2@AAV?$AnimKey@Vvector@Math@@@2@@Z 00443f70 f i render_win32.release:animatornodeinstance.obj
 0001:00043140       ?Sample@?$AnimKeyArray@V?$AnimKey@Vfloat4@Math@@@Models@@@Models@@QAE_NMW4Type@AnimLoopType@2@AAV?$AnimKey@Vfloat4@Math@@@2@@Z 00444140 f i render_win32.release:animatornodeinstance.obj
 0001:00043310       ?Sample@?$AnimKeyArray@V?$AnimKey@M@Models@@@Models@@QAE_NMW4Type@AnimLoopType@2@AAV?$AnimKey@M@2@@Z 00444310 f i render_win32.release:animatornodeinstance.obj
 0001:000434e0       ?Sample@?$AnimKeyArray@V?$AnimKey@H@Models@@@Models@@QAE_NMW4Type@AnimLoopType@2@AAV?$AnimKey@H@2@@Z 004444e0 f i render_win32.release:animatornodeinstance.obj
 0001:000436b0       ??C?$Ptr@VManagedAnimResource@CoreAnimation@@@@QBEPAVManagedAnimResource@CoreAnimation@@XZ 004446b0 f i render_win32.release:animatornodeinstance.obj
 0001:000436f0       ??A?$Array@UAnimSection@AnimatorNode@Models@@@Util@@QBEAAUAnimSection@AnimatorNode@Models@@H@Z 004446f0 f i render_win32.release:animatornodeinstance.obj
 0001:00043740       ?Size@?$Array@UAnimSection@AnimatorNode@Models@@@Util@@QBEHXZ 00444740 f i render_win32.release:animatornodeinstance.obj
 0001:00043760       ??C?$Ptr@VAnimResource@CoreAnimation@@@@QBEPAVAnimResource@CoreAnimation@@XZ 00444760 f i render_win32.release:animatornodeinstance.obj
 0001:000437a0       ?isvalid@?$Ptr@VAnimResource@CoreAnimation@@@@QBE_NXZ 004447a0 f i render_win32.release:animatornodeinstance.obj
 0001:000437c0       ??0?$Ptr@VAnimSampleBuffer@CoreAnimation@@@@QAE@PAVAnimSampleBuffer@CoreAnimation@@@Z 004447c0 f i render_win32.release:animatornodeinstance.obj
 0001:00043800       ??1?$Ptr@VAnimSampleBuffer@CoreAnimation@@@@QAE@XZ 00444800 f i render_win32.release:animatornodeinstance.obj
 0001:00043830       ??C?$Ptr@VAnimSampleBuffer@CoreAnimation@@@@QBEPAVAnimSampleBuffer@CoreAnimation@@XZ 00444830 f i render_win32.release:animatornodeinstance.obj
 0001:00043870       ??$cast@VAnimatorNode@Models@@@?$Ptr@VModelNode@Models@@@@QBEABV?$Ptr@VAnimatorNode@Models@@@@XZ 00444870 f i render_win32.release:animatornodeinstance.obj
 0001:00043880       ??C?$Ptr@VAnimatorNode@Models@@@@QBEPAVAnimatorNode@Models@@XZ 00444880 f i render_win32.release:animatornodeinstance.obj
 0001:000438c0       ??0?$Array@UAnimatedNode@AnimatorNodeInstance@Models@@@Util@@QAE@XZ 004448c0 f i render_win32.release:animatornodeinstance.obj
 0001:00043900       ??1?$Array@UAnimatedNode@AnimatorNodeInstance@Models@@@Util@@QAE@XZ 00444900 f i render_win32.release:animatornodeinstance.obj
 0001:00043920       ??A?$Array@UAnimatedNode@AnimatorNodeInstance@Models@@@Util@@QBEAAUAnimatedNode@AnimatorNodeInstance@Models@@H@Z 00444920 f i render_win32.release:animatornodeinstance.obj
 0001:00043970       ?Append@?$Array@UAnimatedNode@AnimatorNodeInstance@Models@@@Util@@QAEXABUAnimatedNode@AnimatorNodeInstance@Models@@@Z 00444970 f i render_win32.release:animatornodeinstance.obj
 0001:00043a00       ?Size@?$Array@UAnimatedNode@AnimatorNodeInstance@Models@@@Util@@QBEHXZ 00444a00 f i render_win32.release:animatornodeinstance.obj
 0001:00043a20       ??0?$Ptr@VStateNodeInstance@Models@@@@QAE@ABV0@@Z 00444a20 f i render_win32.release:animatornodeinstance.obj
 0001:00043a60       ??1?$Ptr@VStateNodeInstance@Models@@@@QAE@XZ 00444a60 f i render_win32.release:animatornodeinstance.obj
 0001:00043a90       ??C?$Ptr@VStateNodeInstance@Models@@@@QBEPAVStateNodeInstance@Models@@XZ 00444a90 f i render_win32.release:animatornodeinstance.obj
 0001:00043ad0       ??$cast@VStateNodeInstance@Models@@@?$Ptr@VModelNodeInstance@Models@@@@QBEABV?$Ptr@VStateNodeInstance@Models@@@@XZ 00444ad0 f i render_win32.release:animatornodeinstance.obj
 0001:00043ae0       ??$downcast@VStateNodeInstance@Models@@@?$Ptr@VModelNodeInstance@Models@@@@QBEABV?$Ptr@VStateNodeInstance@Models@@@@XZ 00444ae0 f i render_win32.release:animatornodeinstance.obj
 0001:00043af0       ??$downcast@VTransformNodeInstance@Models@@@?$Ptr@VModelNodeInstance@Models@@@@QBEABV?$Ptr@VTransformNodeInstance@Models@@@@XZ 00444af0 f i render_win32.release:animatornodeinstance.obj
 0001:00043b00       ??0?$AnimKey@Vfloat4@Math@@@Models@@QAE@XZ 00444b00 f i render_win32.release:animatornodeinstance.obj
 0001:00043b20       ?GetValue@?$AnimKey@Vfloat4@Math@@@Models@@QBEABVfloat4@Math@@XZ 00444b20 f i render_win32.release:animatornodeinstance.obj
 0001:00043b40       ??0?$AnimKey@M@Models@@QAE@XZ 00444b40 f i render_win32.release:animatornodeinstance.obj
 0001:00043b60       ?GetValue@?$AnimKey@M@Models@@QBEABMXZ 00444b60 f i render_win32.release:animatornodeinstance.obj
 0001:00043b80       ??0?$AnimKey@H@Models@@QAE@XZ 00444b80 f i render_win32.release:animatornodeinstance.obj
 0001:00043ba0       ?GetValue@?$AnimKey@H@Models@@QBEABHXZ 00444ba0 f i render_win32.release:animatornodeinstance.obj
 0001:00043bc0       ??0?$AnimKey@Vvector@Math@@@Models@@QAE@XZ 00444bc0 f i render_win32.release:animatornodeinstance.obj
 0001:00043c60       ?GetValue@?$AnimKey@Vvector@Math@@@Models@@QBEABVvector@Math@@XZ 00444c60 f i render_win32.release:animatornodeinstance.obj
 0001:00043c80       ??4AnimatedNode@AnimatorNodeInstance@Models@@QAEAAU012@ABU012@@Z 00444c80 f i render_win32.release:animatornodeinstance.obj
 0001:00043cb0       ?Delete@?$Array@V?$Array@UAnimatedNode@AnimatorNodeInstance@Models@@@Util@@@Util@@AAEXXZ 00444cb0 f i render_win32.release:animatornodeinstance.obj
 0001:00043d20       ?Grow@?$Array@V?$Array@UAnimatedNode@AnimatorNodeInstance@Models@@@Util@@@Util@@AAEXXZ 00444d20 f i render_win32.release:animatornodeinstance.obj
 0001:00043da0       ??4?$Array@UAnimatedNode@AnimatorNodeInstance@Models@@@Util@@QAEXABV01@@Z 00444da0 f i render_win32.release:animatornodeinstance.obj
 0001:00043eb0       ?Delete@?$Array@UAnimatedNode@AnimatorNodeInstance@Models@@@Util@@AAEXXZ 00444eb0 f i render_win32.release:animatornodeinstance.obj
 0001:00043f20       ?Grow@?$Array@UAnimatedNode@AnimatorNodeInstance@Models@@@Util@@AAEXXZ 00444f20 f i render_win32.release:animatornodeinstance.obj
 0001:00043fa0       ??A?$Array@V?$AnimKey@Vvector@Math@@@Models@@@Util@@QBEAAV?$AnimKey@Vvector@Math@@@Models@@H@Z 00444fa0 f i render_win32.release:animatornodeinstance.obj
 0001:00043ff0       ?Size@?$Array@V?$AnimKey@Vvector@Math@@@Models@@@Util@@QBEHXZ 00444ff0 f i render_win32.release:animatornodeinstance.obj
 0001:00044010       ?Front@?$Array@V?$AnimKey@Vvector@Math@@@Models@@@Util@@QBEAAV?$AnimKey@Vvector@Math@@@Models@@XZ 00445010 f i render_win32.release:animatornodeinstance.obj
 0001:00044050       ?Back@?$Array@V?$AnimKey@Vvector@Math@@@Models@@@Util@@QBEAAV?$AnimKey@Vvector@Math@@@Models@@XZ 00445050 f i render_win32.release:animatornodeinstance.obj
 0001:000440a0       ?SetTime@?$AnimKey@Vvector@Math@@@Models@@QAEXM@Z 004450a0 f i render_win32.release:animatornodeinstance.obj
 0001:000440c0       ?GetTime@?$AnimKey@Vvector@Math@@@Models@@QBEMXZ 004450c0 f i render_win32.release:animatornodeinstance.obj
 0001:000440d0       ?Lerp@?$AnimKey@Vvector@Math@@@Models@@QAEXABVvector@Math@@0M@Z 004450d0 f i render_win32.release:animatornodeinstance.obj
 0001:000441f0       ??A?$Array@V?$AnimKey@Vfloat4@Math@@@Models@@@Util@@QBEAAV?$AnimKey@Vfloat4@Math@@@Models@@H@Z 004451f0 f i render_win32.release:animatornodeinstance.obj
 0001:00044240       ?Size@?$Array@V?$AnimKey@Vfloat4@Math@@@Models@@@Util@@QBEHXZ 00445240 f i render_win32.release:animatornodeinstance.obj
 0001:00044260       ?Front@?$Array@V?$AnimKey@Vfloat4@Math@@@Models@@@Util@@QBEAAV?$AnimKey@Vfloat4@Math@@@Models@@XZ 00445260 f i render_win32.release:animatornodeinstance.obj
 0001:000442a0       ?Back@?$Array@V?$AnimKey@Vfloat4@Math@@@Models@@@Util@@QBEAAV?$AnimKey@Vfloat4@Math@@@Models@@XZ 004452a0 f i render_win32.release:animatornodeinstance.obj
 0001:000442f0       ?SetTime@?$AnimKey@Vfloat4@Math@@@Models@@QAEXM@Z 004452f0 f i render_win32.release:animatornodeinstance.obj
 0001:00044310       ?GetTime@?$AnimKey@Vfloat4@Math@@@Models@@QBEMXZ 00445310 f i render_win32.release:animatornodeinstance.obj
 0001:00044320       ?Lerp@?$AnimKey@Vfloat4@Math@@@Models@@QAEXABVfloat4@Math@@0M@Z 00445320 f i render_win32.release:animatornodeinstance.obj
 0001:00044440       ??A?$Array@V?$AnimKey@M@Models@@@Util@@QBEAAV?$AnimKey@M@Models@@H@Z 00445440 f i render_win32.release:animatornodeinstance.obj
 0001:00044490       ?Size@?$Array@V?$AnimKey@M@Models@@@Util@@QBEHXZ 00445490 f i render_win32.release:animatornodeinstance.obj
 0001:000444b0       ?Front@?$Array@V?$AnimKey@M@Models@@@Util@@QBEAAV?$AnimKey@M@Models@@XZ 004454b0 f i render_win32.release:animatornodeinstance.obj
 0001:000444f0       ?Back@?$Array@V?$AnimKey@M@Models@@@Util@@QBEAAV?$AnimKey@M@Models@@XZ 004454f0 f i render_win32.release:animatornodeinstance.obj
 0001:00044540       ?SetTime@?$AnimKey@M@Models@@QAEXM@Z 00445540 f i render_win32.release:animatornodeinstance.obj
 0001:00044560       ?GetTime@?$AnimKey@M@Models@@QBEMXZ 00445560 f i render_win32.release:animatornodeinstance.obj
 0001:00044570       ?Lerp@?$AnimKey@M@Models@@QAEXABM0M@Z 00445570 f i render_win32.release:animatornodeinstance.obj
 0001:000445a0       ??A?$Array@V?$AnimKey@H@Models@@@Util@@QBEAAV?$AnimKey@H@Models@@H@Z 004455a0 f i render_win32.release:animatornodeinstance.obj
 0001:000445f0       ?Size@?$Array@V?$AnimKey@H@Models@@@Util@@QBEHXZ 004455f0 f i render_win32.release:animatornodeinstance.obj
 0001:00044610       ?Front@?$Array@V?$AnimKey@H@Models@@@Util@@QBEAAV?$AnimKey@H@Models@@XZ 00445610 f i render_win32.release:animatornodeinstance.obj
 0001:00044650       ?Back@?$Array@V?$AnimKey@H@Models@@@Util@@QBEAAV?$AnimKey@H@Models@@XZ 00445650 f i render_win32.release:animatornodeinstance.obj
 0001:000446a0       ?SetTime@?$AnimKey@H@Models@@QAEXM@Z 004456a0 f i render_win32.release:animatornodeinstance.obj
 0001:000446c0       ?GetTime@?$AnimKey@H@Models@@QBEMXZ 004456c0 f i render_win32.release:animatornodeinstance.obj
 0001:000446d0       ?Lerp@?$AnimKey@H@Models@@QAEXABH0M@Z 004456d0 f i render_win32.release:animatornodeinstance.obj
 0001:00044710       ??_E?$Array@UAnimatedNode@AnimatorNodeInstance@Models@@@Util@@QAEPAXI@Z 00445710 f i render_win32.release:animatornodeinstance.obj
 0001:000447b0       ??_EAnimatedNode@AnimatorNodeInstance@Models@@QAEPAXI@Z 004457b0 f i render_win32.release:animatornodeinstance.obj
 0001:00044860       ?GrowTo@?$Array@V?$Array@UAnimatedNode@AnimatorNodeInstance@Models@@@Util@@@Util@@AAEXH@Z 00445860 f i render_win32.release:animatornodeinstance.obj
 0001:00044980       ?Destroy@?$Array@UAnimatedNode@AnimatorNodeInstance@Models@@@Util@@AAEXPAUAnimatedNode@AnimatorNodeInstance@Models@@@Z 00445980 f i render_win32.release:animatornodeinstance.obj
 0001:000449c0       ?Copy@?$Array@UAnimatedNode@AnimatorNodeInstance@Models@@@Util@@AAEXABV12@@Z 004459c0 f i render_win32.release:animatornodeinstance.obj
 0001:00044b20       ?GrowTo@?$Array@UAnimatedNode@AnimatorNodeInstance@Models@@@Util@@AAEXH@Z 00445b20 f i render_win32.release:animatornodeinstance.obj
 0001:00044c70       ??_GAnimatedNode@AnimatorNodeInstance@Models@@QAEPAXI@Z 00445c70 f i render_win32.release:animatornodeinstance.obj
 0001:00044cb0       ?floor@@YAMM@Z             00445cb0 f i render_win32.release:animatornodeinstance.obj
 0001:00044cd0       ?XMMatrixRotationQuaternion@@YA?AU_XMMATRIX@@T__m128@@@Z 00445cd0 f i render_win32.release:animatornodeinstance.obj
 0001:000451a0       ?XMMatrixRotationRollPitchYawFromVector@@YA?AU_XMMATRIX@@T__m128@@@Z 004461a0 f i render_win32.release:animatornodeinstance.obj
 0001:00045f00       ?XMMatrixRotationRollPitchYaw@@YA?AU_XMMATRIX@@MMM@Z 00446f00 f i render_win32.release:animatornodeinstance.obj
 0001:00045fd0       ?XMQuaternionRotationRollPitchYawFromVector@@YA?AT__m128@@T1@@Z 00446fd0 f i render_win32.release:animatornodeinstance.obj
 0001:000467c0       ?XMQuaternionRotationRollPitchYaw@@YA?AT__m128@@MMM@Z 004477c0 f i render_win32.release:animatornodeinstance.obj
 0001:00047030       ?XMVectorMultiplyAdd@@YA?AT__m128@@T1@00@Z 00448030 f i render_win32.release:animatornodeinstance.obj
 0001:00047080       ?XMVectorSinCos@@YAXPAT__m128@@0T1@@Z 00448080 f i render_win32.release:animatornodeinstance.obj
 0001:000483a0       ??BXMVECTORI32@@QBE?AT__m128i@@XZ 004493a0 f i render_win32.release:animatornodeinstance.obj
 0001:000483c0       ??BXMVECTORF32@@QBE?AT__m128i@@XZ 004493c0 f i render_win32.release:animatornodeinstance.obj
 0001:000483e0       ?XMVectorRound@@YA?AT__m128@@T1@@Z 004493e0 f i render_win32.release:animatornodeinstance.obj
 0001:00048520       ?XMVectorModAngles@@YA?AT__m128@@T1@@Z 00449520 f i render_win32.release:animatornodeinstance.obj
 0001:00048720       ??BXMVECTORU8@@QBE?AT__m128@@XZ 00449720 f i render_win32.release:animatornodeinstance.obj
 0001:00048750       ?XMVectorPermute@@YA?AT__m128@@T1@00@Z 00449750 f i render_win32.release:animatornodeinstance.obj
 0001:00048800       ?XMVectorGetZPtr@@YAXPAMT__m128@@@Z 00449800 f i render_win32.release:animatornodeinstance.obj
 0001:00048840       ?XMVectorGetYPtr@@YAXPAMT__m128@@@Z 00449840 f i render_win32.release:animatornodeinstance.obj
 0001:00048880       ?XMVectorMultiply@@YA?AT__m128@@T1@0@Z 00449880 f i render_win32.release:animatornodeinstance.obj
 0001:000488b0       ?XMStoreFloat4@@YAXPAU_XMFLOAT4@@T__m128@@@Z 004498b0 f i render_win32.release:animatornodeinstance.obj
 0001:000488d0       _floorf                    004498d0 f i render_win32.release:animatornodeinstance.obj
 0001:000488f0       ?AsString@URI@IO@@QBE?AVString@Util@@XZ 004498f0 f i render_win32.release:modelnode.obj
 0001:00048910       ??2ModelNode@Models@@SAPAXI@Z 00449910 f i render_win32.release:modelnode.obj
 0001:00048920       ??3ModelNode@Models@@SAXPAX@Z 00449920 f i render_win32.release:modelnode.obj
 0001:00048940       ?SetType@ModelNode@Models@@QAEXH@Z 00449940 f i render_win32.release:modelnode.obj
 0001:00048960       ?GetName@ModelNode@Models@@QBEABVStringAtom@Util@@XZ 00449960 f i render_win32.release:modelnode.obj
 0001:00048980       ?SetBoundingBox@ModelNode@Models@@QAEXABVbbox@Math@@@Z 00449980 f i render_win32.release:modelnode.obj
 0001:000489c0       ?HasStringAttr@ModelNode@Models@@QBE_NABVStringAtom@Util@@@Z 004499c0 f i render_win32.release:modelnode.obj
 0001:000489e0       ?SetStringAttr@ModelNode@Models@@QAEXABVStringAtom@Util@@0@Z 004499e0 f i render_win32.release:modelnode.obj
 0001:00048a40       ?GetRtti@ModelNode@Models@@UBEPAVRtti@Core@@XZ 00449a40 f   render_win32.release:modelnode.obj
 0001:00048a50       ?FactoryCreator@ModelNode@Models@@SAPAVRefCounted@Core@@XZ 00449a50 f   render_win32.release:modelnode.obj
 0001:00048a60       ?Create@ModelNode@Models@@SAPAV12@XZ 00449a60 f   render_win32.release:modelnode.obj
 0001:00048aa0       ?RegisterWithFactory@ModelNode@Models@@SA_NXZ 00449aa0 f   render_win32.release:modelnode.obj
 0001:00048ba0       ??0ModelNode@Models@@QAE@XZ 00449ba0 f   render_win32.release:modelnode.obj
 0001:00048c80       ??_EModelNode@Models@@UAEPAXI@Z 00449c80 f i  CIL library: CIL module
 0001:00048c80       ??_GModelNode@Models@@UAEPAXI@Z 00449c80 f i render_win32.release:modelnode.obj
 0001:00048cb0       ??1?$VisResolveContainer@VModelNodeInstance@Models@@@Models@@QAE@XZ 00449cb0 f i render_win32.release:modelnode.obj
 0001:00048cd0       ??1?$Dictionary@VStringAtom@Util@@V12@@Util@@QAE@XZ 00449cd0 f i render_win32.release:modelnode.obj
 0001:00048cf0       ??1ModelNode@Models@@UAE@XZ 00449cf0 f   render_win32.release:modelnode.obj
 0001:00048da0       ?IsAttachedToModel@ModelNode@Models@@QBE_NXZ 00449da0 f   render_win32.release:modelnode.obj
 0001:00048dc0       ?GetModel@ModelNode@Models@@QBEABV?$Ptr@VModel@Models@@@@XZ 00449dc0 f   render_win32.release:modelnode.obj
 0001:00048de0       ?CreateNodeInstance@ModelNode@Models@@UBE?AV?$Ptr@VModelNodeInstance@Models@@@@XZ 00449de0 f   render_win32.release:modelnode.obj
 0001:00048e10       ?CreateNodeInstanceHierarchy@ModelNode@Models@@QAE?AV?$Ptr@VModelNodeInstance@Models@@@@ABV?$Ptr@VModelInstance@Models@@@@@Z 00449e10 f   render_win32.release:modelnode.obj
 0001:00048e50       ?RecurseCreateNodeInstanceHierarchy@ModelNode@Models@@MAE?AV?$Ptr@VModelNodeInstance@Models@@@@ABV?$Ptr@VModelInstance@Models@@@@ABV3@@Z 00449e50 f   render_win32.release:modelnode.obj
 0001:00048f20       ?OnAttachToModel@ModelNode@Models@@UAEXABV?$Ptr@VModel@Models@@@@@Z 00449f20 f   render_win32.release:modelnode.obj
 0001:00048f60       ?OnRemoveFromModel@ModelNode@Models@@UAEXXZ 00449f60 f   render_win32.release:modelnode.obj
 0001:00048ff0       ?LoadResources@ModelNode@Models@@UAEXXZ 00449ff0 f   render_win32.release:modelnode.obj
 0001:00049030       ?UnloadResources@ModelNode@Models@@UAEXXZ 0044a030 f   render_win32.release:modelnode.obj
 0001:00049070       ?GetResourceState@ModelNode@Models@@UBE?AW4State@Resource@Resources@@XZ 0044a070 f   render_win32.release:modelnode.obj
 0001:00049080       ?OnResourcesLoaded@ModelNode@Models@@UAEXXZ 0044a080 f   render_win32.release:modelnode.obj
 0001:00049090       ?ApplySharedState@ModelNode@Models@@UAEXH@Z 0044a090 f   render_win32.release:modelnode.obj
 0001:000490a0       ?AddVisibleNodeInstance@ModelNode@Models@@QAEXHABV?$Ptr@VModelNodeInstance@Models@@@@@Z 0044a0a0 f   render_win32.release:modelnode.obj
 0001:00049130       ?BeginParseDataTags@ModelNode@Models@@UAEXXZ 0044a130 f   render_win32.release:modelnode.obj
 0001:00049140       ?ParseDataTag@ModelNode@Models@@UAE_NABVFourCC@Util@@ABV?$Ptr@VBinaryReader@IO@@@@@Z 0044a140 f   render_win32.release:modelnode.obj
 0001:00049720       ?EndParseDataTags@ModelNode@Models@@UAEXXZ 0044a720 f   render_win32.release:modelnode.obj
 0001:00049730       ?AddChild@ModelNode@Models@@QAEXABV?$Ptr@VModelNode@Models@@@@@Z 0044a730 f   render_win32.release:modelnode.obj
 0001:000497c0       ?HasChild@ModelNode@Models@@QBE_NABVStringAtom@Util@@@Z 0044a7c0 f   render_win32.release:modelnode.obj
 0001:000497e0       ?LookupChild@ModelNode@Models@@QBEABV?$Ptr@VModelNode@Models@@@@ABVStringAtom@Util@@@Z 0044a7e0 f   render_win32.release:modelnode.obj
 0001:00049810       ??A?$Dictionary@VStringAtom@Util@@H@Util@@QBEABHABVStringAtom@1@@Z 0044a810 f i render_win32.release:modelnode.obj
 0001:00049860       ?Contains@?$Dictionary@VStringAtom@Util@@H@Util@@QBE_NABVStringAtom@2@@Z 0044a860 f i render_win32.release:modelnode.obj
 0001:000498c0       ??C?$Ptr@VStream@IO@@@@QBEPAVStream@IO@@XZ 0044a8c0 f i render_win32.release:modelnode.obj
 0001:00049900       ??0?$Ptr@VModel@Models@@@@QAE@XZ 0044a900 f i render_win32.release:modelnode.obj
 0001:00049920       ??4?$Ptr@VModel@Models@@@@QAEXPAVModel@Models@@@Z 0044a920 f i render_win32.release:modelnode.obj
 0001:00049980       ??4?$Ptr@VModel@Models@@@@QAEXABV0@@Z 0044a980 f i render_win32.release:modelnode.obj
 0001:000499e0       ??C?$Ptr@VModel@Models@@@@QBEPAVModel@Models@@XZ 0044a9e0 f i render_win32.release:modelnode.obj
 0001:00049a20       ?isvalid@?$Ptr@VModel@Models@@@@QBE_NXZ 0044aa20 f i render_win32.release:modelnode.obj
 0001:00049a40       ??0?$Ptr@VModelNode@Models@@@@QAE@PAVModelNode@Models@@@Z 0044aa40 f i render_win32.release:modelnode.obj
 0001:00049a80       ??0?$Ptr@VModelNode@Models@@@@QAE@XZ 0044aa80 f i render_win32.release:modelnode.obj
 0001:00049aa0       ??1?$Ptr@VModelNode@Models@@@@QAE@XZ 0044aaa0 f i render_win32.release:modelnode.obj
 0001:00049ad0       ??4?$Ptr@VModelNode@Models@@@@QAEXPAVModelNode@Models@@@Z 0044aad0 f i render_win32.release:modelnode.obj
 0001:00049b30       ??4?$Ptr@VModelNode@Models@@@@QAEXABV0@@Z 0044ab30 f i render_win32.release:modelnode.obj
 0001:00049b90       ??C?$Ptr@VModelNode@Models@@@@QBEPAVModelNode@Models@@XZ 0044ab90 f i render_win32.release:modelnode.obj
 0001:00049bd0       ??0?$Array@V?$Ptr@VModelNode@Models@@@@@Util@@QAE@XZ 0044abd0 f i render_win32.release:modelnode.obj
 0001:00049c10       ??1?$Array@V?$Ptr@VModelNode@Models@@@@@Util@@QAE@XZ 0044ac10 f i render_win32.release:modelnode.obj
 0001:00049c30       ??A?$Array@V?$Ptr@VModelNode@Models@@@@@Util@@QBEAAV?$Ptr@VModelNode@Models@@@@H@Z 0044ac30 f i render_win32.release:modelnode.obj
 0001:00049c80       ?Append@?$Array@V?$Ptr@VModelNode@Models@@@@@Util@@QAEXABV?$Ptr@VModelNode@Models@@@@@Z 0044ac80 f i render_win32.release:modelnode.obj
 0001:00049d00       ?Size@?$Array@V?$Ptr@VModelNode@Models@@@@@Util@@QBEHXZ 0044ad00 f i render_win32.release:modelnode.obj
 0001:00049d20       ?Clear@?$Array@V?$Ptr@VModelNode@Models@@@@@Util@@QAEXXZ 0044ad20 f i render_win32.release:modelnode.obj
 0001:00049d70       ??1?$FixedArray@UEntry@?$VisResolveContainer@VModelNodeInstance@Models@@@Models@@@Util@@QAE@XZ 0044ad70 f i render_win32.release:modelnode.obj
 0001:00049d90       ??0?$VisResolveContainer@VModelNodeInstance@Models@@@Models@@QAE@XZ 0044ad90 f i render_win32.release:modelnode.obj
 0001:00049dc0       ?Reset@?$VisResolveContainer@VModelNodeInstance@Models@@@Models@@QAEXXZ 0044adc0 f i render_win32.release:modelnode.obj
 0001:00049e10       ?SetResolved@?$VisResolveContainer@VModelNodeInstance@Models@@@Models@@QAEXH_N@Z 0044ae10 f i render_win32.release:modelnode.obj
 0001:00049e30       ?IsResolved@?$VisResolveContainer@VModelNodeInstance@Models@@@Models@@QBE_NH@Z 0044ae30 f i render_win32.release:modelnode.obj
 0001:00049e50       ?Add@?$VisResolveContainer@VModelNodeInstance@Models@@@Models@@QAEXHHABV?$Ptr@VModelNodeInstance@Models@@@@@Z 0044ae50 f i render_win32.release:modelnode.obj
 0001:00049e90       ??1?$Array@V?$KeyValuePair@VStringAtom@Util@@V12@@Util@@@Util@@QAE@XZ 0044ae90 f i render_win32.release:modelnode.obj
 0001:00049eb0       ??0?$Dictionary@VStringAtom@Util@@V12@@Util@@QAE@XZ 0044aeb0 f i render_win32.release:modelnode.obj
 0001:00049ed0       ??A?$Dictionary@VStringAtom@Util@@V12@@Util@@QAEAAVStringAtom@1@ABV21@@Z 0044aed0 f i render_win32.release:modelnode.obj
 0001:00049f20       ?Add@?$Dictionary@VStringAtom@Util@@V12@@Util@@QAEXABVStringAtom@2@0@Z 0044af20 f i render_win32.release:modelnode.obj
 0001:00049f70       ?Contains@?$Dictionary@VStringAtom@Util@@V12@@Util@@QBE_NABVStringAtom@2@@Z 0044af70 f i render_win32.release:modelnode.obj
 0001:00049fd0       ??0?$Ptr@VModelNodeInstance@Models@@@@QAE@ABV0@@Z 0044afd0 f i render_win32.release:modelnode.obj
 0001:0004a010       ??0?$Ptr@VModelNodeInstance@Models@@@@QAE@PAVModelNodeInstance@Models@@@Z 0044b010 f i render_win32.release:modelnode.obj
 0001:0004a050       ??C?$Ptr@VBinaryReader@IO@@@@QBEPAVBinaryReader@IO@@XZ 0044b050 f i render_win32.release:modelnode.obj
 0001:0004a090       ??A?$Array@V?$KeyValuePair@VStringAtom@Util@@H@Util@@@Util@@QBEAAV?$KeyValuePair@VStringAtom@Util@@H@1@H@Z 0044b090 f i render_win32.release:modelnode.obj
 0001:0004a0e0       ?BinarySearchIndex@?$Array@V?$KeyValuePair@VStringAtom@Util@@H@Util@@@Util@@QBEHABV?$KeyValuePair@VStringAtom@Util@@H@2@@Z 0044b0e0 f i render_win32.release:modelnode.obj
 0001:0004a210       ?FindIndex@?$Dictionary@VStringAtom@Util@@H@Util@@QBEHABVStringAtom@2@@Z 0044b210 f i render_win32.release:modelnode.obj
 0001:0004a260       ??0?$KeyValuePair@VStringAtom@Util@@H@Util@@QAE@ABVStringAtom@1@@Z 0044b260 f i render_win32.release:modelnode.obj
 0001:0004a280       ?Value@?$KeyValuePair@VStringAtom@Util@@H@Util@@QAEAAHXZ 0044b280 f i render_win32.release:modelnode.obj
 0001:0004a2a0       ?Destroy@?$Array@V?$Ptr@VModelNode@Models@@@@@Util@@AAEXPAV?$Ptr@VModelNode@Models@@@@@Z 0044b2a0 f i render_win32.release:modelnode.obj
 0001:0004a2d0       ?Delete@?$Array@V?$Ptr@VModelNode@Models@@@@@Util@@AAEXXZ 0044b2d0 f i render_win32.release:modelnode.obj
 0001:0004a340       ?Grow@?$Array@V?$Ptr@VModelNode@Models@@@@@Util@@AAEXXZ 0044b340 f i render_win32.release:modelnode.obj
 0001:0004a3c0       ??0?$FixedArray@UEntry@?$VisResolveContainer@VModelNodeInstance@Models@@@Models@@@Util@@QAE@H@Z 0044b3c0 f i render_win32.release:modelnode.obj
 0001:0004a3f0       ??A?$FixedArray@UEntry@?$VisResolveContainer@VModelNodeInstance@Models@@@Models@@@Util@@QBEAAUEntry@?$VisResolveContainer@VModelNodeInstance@Models@@@Models@@H@Z 0044b3f0 f i render_win32.release:modelnode.obj
 0001:0004a440       ?Delete@?$FixedArray@UEntry@?$VisResolveContainer@VModelNodeInstance@Models@@@Models@@@Util@@AAEXXZ 0044b440 f i render_win32.release:modelnode.obj
 0001:0004a4a0       ?Append@?$Array@V?$Ptr@VModelNodeInstance@Models@@@@@Util@@QAEXABV?$Ptr@VModelNodeInstance@Models@@@@@Z 0044b4a0 f i render_win32.release:modelnode.obj
 0001:0004a520       ?Clear@?$Array@V?$Ptr@VModelNodeInstance@Models@@@@@Util@@QAEXXZ 0044b520 f i render_win32.release:modelnode.obj
 0001:0004a570       ??0?$Array@V?$KeyValuePair@VStringAtom@Util@@V12@@Util@@@Util@@QAE@XZ 0044b570 f i render_win32.release:modelnode.obj
 0001:0004a5b0       ??A?$Array@V?$KeyValuePair@VStringAtom@Util@@V12@@Util@@@Util@@QBEAAV?$KeyValuePair@VStringAtom@Util@@V12@@1@H@Z 0044b5b0 f i render_win32.release:modelnode.obj
 0001:0004a600       ?Append@?$Array@V?$KeyValuePair@VStringAtom@Util@@V12@@Util@@@Util@@QAEXABV?$KeyValuePair@VStringAtom@Util@@V12@@2@@Z 0044b600 f i render_win32.release:modelnode.obj
 0001:0004a680       ?InsertSorted@?$Array@V?$KeyValuePair@VStringAtom@Util@@V12@@Util@@@Util@@QAEHABV?$KeyValuePair@VStringAtom@Util@@V12@@2@@Z 0044b680 f i render_win32.release:modelnode.obj
 0001:0004a8f0       ?BinarySearchIndex@?$Array@V?$KeyValuePair@VStringAtom@Util@@V12@@Util@@@Util@@QBEHABV?$KeyValuePair@VStringAtom@Util@@V12@@2@@Z 0044b8f0 f i render_win32.release:modelnode.obj
 0001:0004aa20       ?Delete@?$Array@V?$KeyValuePair@VStringAtom@Util@@V12@@Util@@@Util@@AAEXXZ 0044ba20 f i render_win32.release:modelnode.obj
 0001:0004aa80       ?FindIndex@?$Dictionary@VStringAtom@Util@@V12@@Util@@QBEHABVStringAtom@2@@Z 0044ba80 f i render_win32.release:modelnode.obj
 0001:0004aad0       ??0?$KeyValuePair@VStringAtom@Util@@V12@@Util@@QAE@ABVStringAtom@1@@Z 0044bad0 f i render_win32.release:modelnode.obj
 0001:0004ab00       ??0?$KeyValuePair@VStringAtom@Util@@V12@@Util@@QAE@ABVStringAtom@1@0@Z 0044bb00 f i render_win32.release:modelnode.obj
 0001:0004ab30       ?Value@?$KeyValuePair@VStringAtom@Util@@V12@@Util@@QAEAAVStringAtom@2@XZ 0044bb30 f i render_win32.release:modelnode.obj
 0001:0004ab50       ??_G?$Ptr@VModelNode@Models@@@@QAEPAXI@Z 0044bb50 f i render_win32.release:modelnode.obj
 0001:0004ab80       ??_E?$Ptr@VModelNode@Models@@@@QAEPAXI@Z 0044bb80 f i render_win32.release:modelnode.obj
 0001:0004ac20       ??_EEntry@?$VisResolveContainer@VModelNodeInstance@Models@@@Models@@QAEPAXI@Z 0044bc20 f i render_win32.release:modelnode.obj
 0001:0004acc0       ??1Entry@?$VisResolveContainer@VModelNodeInstance@Models@@@Models@@QAE@XZ 0044bcc0 f i render_win32.release:modelnode.obj
 0001:0004ace0       ?GrowTo@?$Array@V?$Ptr@VModelNode@Models@@@@@Util@@AAEXH@Z 0044bce0 f i render_win32.release:modelnode.obj
 0001:0004ae00       ?Alloc@?$FixedArray@UEntry@?$VisResolveContainer@VModelNodeInstance@Models@@@Models@@@Util@@AAEXH@Z 0044be00 f i render_win32.release:modelnode.obj
 0001:0004aee0       ??1?$Array@V?$Ptr@VModelNodeInstance@Models@@@@@Util@@QAE@XZ 0044bee0 f i render_win32.release:modelnode.obj
 0001:0004af00       ?Destroy@?$Array@V?$Ptr@VModelNodeInstance@Models@@@@@Util@@AAEXPAV?$Ptr@VModelNodeInstance@Models@@@@@Z 0044bf00 f i render_win32.release:modelnode.obj
 0001:0004af30       ?Grow@?$Array@V?$Ptr@VModelNodeInstance@Models@@@@@Util@@AAEXXZ 0044bf30 f i render_win32.release:modelnode.obj
 0001:0004afb0       ?Size@?$Array@V?$KeyValuePair@VStringAtom@Util@@V12@@Util@@@Util@@QBEHXZ 0044bfb0 f i render_win32.release:modelnode.obj
 0001:0004afd0       ?Insert@?$Array@V?$KeyValuePair@VStringAtom@Util@@V12@@Util@@@Util@@QAEXHABV?$KeyValuePair@VStringAtom@Util@@V12@@2@@Z 0044bfd0 f i render_win32.release:modelnode.obj
 0001:0004b040       ?InsertAtEndOfIdenticalRange@?$Array@V?$KeyValuePair@VStringAtom@Util@@V12@@Util@@@Util@@QAEHHABV?$KeyValuePair@VStringAtom@Util@@V12@@2@@Z 0044c040 f i render_win32.release:modelnode.obj
 0001:0004b0c0       ?Grow@?$Array@V?$KeyValuePair@VStringAtom@Util@@V12@@Util@@@Util@@AAEXXZ 0044c0c0 f i render_win32.release:modelnode.obj
 0001:0004b140       ??4?$KeyValuePair@VStringAtom@Util@@V12@@Util@@QAEXABV01@@Z 0044c140 f i render_win32.release:modelnode.obj
 0001:0004b170       ??9?$KeyValuePair@VStringAtom@Util@@V12@@Util@@QBE_NABV01@@Z 0044c170 f i render_win32.release:modelnode.obj
 0001:0004b190       ??O?$KeyValuePair@VStringAtom@Util@@V12@@Util@@QBE_NABV01@@Z 0044c190 f i render_win32.release:modelnode.obj
 0001:0004b1b0       ??M?$KeyValuePair@VStringAtom@Util@@V12@@Util@@QBE_NABV01@@Z 0044c1b0 f i render_win32.release:modelnode.obj
 0001:0004b1d0       ??_G?$Ptr@VModelNodeInstance@Models@@@@QAEPAXI@Z 0044c1d0 f i render_win32.release:modelnode.obj
 0001:0004b200       ??0Entry@?$VisResolveContainer@VModelNodeInstance@Models@@@Models@@QAE@XZ 0044c200 f i render_win32.release:modelnode.obj
 0001:0004b220       ??0?$Array@V?$Ptr@VModelNodeInstance@Models@@@@@Util@@QAE@XZ 0044c220 f i render_win32.release:modelnode.obj
 0001:0004b260       ?Delete@?$Array@V?$Ptr@VModelNodeInstance@Models@@@@@Util@@AAEXXZ 0044c260 f i render_win32.release:modelnode.obj
 0001:0004b2d0       ?GrowTo@?$Array@V?$Ptr@VModelNodeInstance@Models@@@@@Util@@AAEXH@Z 0044c2d0 f i render_win32.release:modelnode.obj
 0001:0004b3f0       ?GrowTo@?$Array@V?$KeyValuePair@VStringAtom@Util@@V12@@Util@@@Util@@AAEXH@Z 0044c3f0 f i render_win32.release:modelnode.obj
 0001:0004b4e0       ?Move@?$Array@V?$KeyValuePair@VStringAtom@Util@@V12@@Util@@@Util@@AAEXHH@Z 0044c4e0 f i render_win32.release:modelnode.obj
 0001:0004b670       ??_E?$Ptr@VModelNodeInstance@Models@@@@QAEPAXI@Z 0044c670 f i render_win32.release:modelnode.obj
 0001:0004b710       ?Destroy@?$Array@V?$KeyValuePair@VStringAtom@Util@@V12@@Util@@@Util@@AAEXPAV?$KeyValuePair@VStringAtom@Util@@V12@@2@@Z 0044c710 f i render_win32.release:modelnode.obj
 0001:0004b720       ??0?$KeyValuePair@VStringAtom@Util@@V12@@Util@@QAE@XZ 0044c720 f i render_win32.release:modelnode.obj
 0001:0004b750       ?GetState@Resource@Resources@@QBE?AW4State@12@XZ 0044c750 f i render_win32.release:shapenode.obj
 0001:0004b770       ?GetState@ManagedResource@Resources@@QBE?AW4State@Resource@2@XZ 0044c770 f i render_win32.release:shapenode.obj
 0001:0004b7c0       ?GetMesh@ManagedMesh@Resources@@QBEABV?$Ptr@VMesh@CoreGraphics@@@@XZ 0044c7c0 f i render_win32.release:shapenode.obj
 0001:0004b800       ??2ShapeNode@Models@@SAPAXI@Z 0044c800 f i render_win32.release:shapenode.obj
 0001:0004b810       ??3ShapeNode@Models@@SAXPAX@Z 0044c810 f i render_win32.release:shapenode.obj
 0001:0004b830       ?SetMeshResourceId@ShapeNode@Models@@QAEXABVStringAtom@Util@@@Z 0044c830 f i render_win32.release:shapenode.obj
 0001:0004b850       ?SetPrimitiveGroupIndex@ShapeNode@Models@@QAEXH@Z 0044c850 f i render_win32.release:shapenode.obj
 0001:0004b870       ?Instance@ResourceManager@Resources@@SAPAV12@XZ 0044c870 f i render_win32.release:shapenode.obj
 0001:0004b8b0       ?GetRtti@ShapeNode@Models@@UBEPAVRtti@Core@@XZ 0044c8b0 f   render_win32.release:shapenode.obj
 0001:0004b8c0       ?FactoryCreator@ShapeNode@Models@@SAPAVRefCounted@Core@@XZ 0044c8c0 f   render_win32.release:shapenode.obj
 0001:0004b8d0       ?Create@ShapeNode@Models@@SAPAV12@XZ 0044c8d0 f   render_win32.release:shapenode.obj
 0001:0004b910       ?RegisterWithFactory@ShapeNode@Models@@SA_NXZ 0044c910 f   render_win32.release:shapenode.obj
 0001:0004ba10       ??0ShapeNode@Models@@QAE@XZ 0044ca10 f   render_win32.release:shapenode.obj
 0001:0004ba70       ??_EShapeNode@Models@@UAEPAXI@Z 0044ca70 f i  CIL library: CIL module
 0001:0004ba70       ??_GShapeNode@Models@@UAEPAXI@Z 0044ca70 f i render_win32.release:shapenode.obj
 0001:0004baa0       ??1ShapeNode@Models@@UAE@XZ 0044caa0 f   render_win32.release:shapenode.obj
 0001:0004bb10       ?CreateNodeInstance@ShapeNode@Models@@UBE?AV?$Ptr@VModelNodeInstance@Models@@@@XZ 0044cb10 f   render_win32.release:shapenode.obj
 0001:0004bb50       ?ParseDataTag@ShapeNode@Models@@UAE_NABVFourCC@Util@@ABV?$Ptr@VBinaryReader@IO@@@@@Z 0044cb50 f   render_win32.release:shapenode.obj
 0001:0004bc50       ?GetResourceState@ShapeNode@Models@@UBE?AW4State@Resource@Resources@@XZ 0044cc50 f   render_win32.release:shapenode.obj
 0001:0004bca0       ?LoadResources@ShapeNode@Models@@UAEXXZ 0044cca0 f   render_win32.release:shapenode.obj
 0001:0004bde0       ?UnloadResources@ShapeNode@Models@@UAEXXZ 0044cde0 f   render_win32.release:shapenode.obj
 0001:0004be80       ?ApplySharedState@ShapeNode@Models@@UAEXH@Z 0044ce80 f   render_win32.release:shapenode.obj
 0001:0004bf50       ??C?$Ptr@VResource@Resources@@@@QBEPAVResource@Resources@@XZ 0044cf50 f i render_win32.release:shapenode.obj
 0001:0004bf90       ??$downcast@VMesh@CoreGraphics@@@?$Ptr@VResource@Resources@@@@QBEABV?$Ptr@VMesh@CoreGraphics@@@@XZ 0044cf90 f i render_win32.release:shapenode.obj
 0001:0004bfa0       ??0?$Ptr@VManagedMesh@Resources@@@@QAE@XZ 0044cfa0 f i render_win32.release:shapenode.obj
 0001:0004bfc0       ??1?$Ptr@VManagedMesh@Resources@@@@QAE@XZ 0044cfc0 f i render_win32.release:shapenode.obj
 0001:0004bff0       ??4?$Ptr@VManagedMesh@Resources@@@@QAEXPAVManagedMesh@Resources@@@Z 0044cff0 f i render_win32.release:shapenode.obj
 0001:0004c050       ??4?$Ptr@VManagedMesh@Resources@@@@QAEXABV0@@Z 0044d050 f i render_win32.release:shapenode.obj
 0001:0004c0b0       ??C?$Ptr@VManagedMesh@Resources@@@@QBEPAVManagedMesh@Resources@@XZ 0044d0b0 f i render_win32.release:shapenode.obj
 0001:0004c0f0       ?isvalid@?$Ptr@VManagedMesh@Resources@@@@QBE_NXZ 0044d0f0 f i render_win32.release:shapenode.obj
 0001:0004c110       ??1?$Ptr@VManagedResource@Resources@@@@QAE@XZ 0044d110 f i render_win32.release:shapenode.obj
 0001:0004c140       ??$downcast@VManagedMesh@Resources@@@?$Ptr@VManagedResource@Resources@@@@QBEABV?$Ptr@VManagedMesh@Resources@@@@XZ 0044d140 f i render_win32.release:shapenode.obj
 0001:0004c150       ??$upcast@VManagedResource@Resources@@@?$Ptr@VManagedMesh@Resources@@@@QBEABV?$Ptr@VManagedResource@Resources@@@@XZ 0044d150 f i render_win32.release:shapenode.obj
 0001:0004c160       ??C?$Ptr@VMesh@CoreGraphics@@@@QBEPAVMesh@CoreGraphics@@XZ 0044d160 f i render_win32.release:shapenode.obj
 0001:0004c1a0       ?n_isdenormal@Math@@YA_NM@Z 0044d1a0 f i render_win32.release:characternode.obj
 0001:0004c1c0       ?n_undenormalize@Math@@YAMM@Z 0044d1c0 f i render_win32.release:characternode.obj
 0001:0004c1f0       ?set_x@quaternion@Math@@QAEXM@Z 0044d1f0 f i render_win32.release:characternode.obj
 0001:0004c260       ?set_y@quaternion@Math@@QAEXM@Z 0044d260 f i render_win32.release:characternode.obj
 0001:0004c310       ?set_z@quaternion@Math@@QAEXM@Z 0044d310 f i render_win32.release:characternode.obj
 0001:0004c3c0       ?set_w@quaternion@Math@@QAEXM@Z 0044d3c0 f i render_win32.release:characternode.obj
 0001:0004c470       ?x@quaternion@Math@@QAEAAMXZ 0044d470 f i render_win32.release:characternode.obj
 0001:0004c480       ?y@quaternion@Math@@QAEAAMXZ 0044d480 f i render_win32.release:characternode.obj
 0001:0004c4a0       ?z@quaternion@Math@@QAEAAMXZ 0044d4a0 f i render_win32.release:characternode.obj
 0001:0004c4c0       ?w@quaternion@Math@@QAEAAMXZ 0044d4c0 f i render_win32.release:characternode.obj
 0001:0004c4e0       ?undenormalize@quaternion@Math@@QAEXXZ 0044d4e0 f i render_win32.release:characternode.obj
 0001:0004c6c0       ??4StringAtom@Util@@QAEXABVString@1@@Z 0044d6c0 f i render_win32.release:characternode.obj
 0001:0004c700       ?Skeleton@Character@Characters@@QAEAAVCharacterSkeleton@2@XZ 0044d700 f i render_win32.release:characternode.obj
 0001:0004c720       ?SkinLibrary@Character@Characters@@QAEAAVCharacterSkinLibrary@2@XZ 0044d720 f i render_win32.release:characternode.obj
 0001:0004c740       ?AnimationLibrary@Character@Characters@@QAEAAVCharacterAnimationLibrary@2@XZ 0044d740 f i render_win32.release:characternode.obj
 0001:0004c760       ?VariationLibrary@Character@Characters@@QAEAAVCharacterVariationLibrary@2@XZ 0044d760 f i render_win32.release:characternode.obj
 0001:0004c780       ??2CharacterNode@Characters@@SAPAXI@Z 0044d780 f i render_win32.release:characternode.obj
 0001:0004c790       ??3CharacterNode@Characters@@SAXPAX@Z 0044d790 f i render_win32.release:characternode.obj
 0001:0004c7b0       ?GetRtti@CharacterNode@Characters@@UBEPAVRtti@Core@@XZ 0044d7b0 f   render_win32.release:characternode.obj
 0001:0004c7c0       ?FactoryCreator@CharacterNode@Characters@@SAPAVRefCounted@Core@@XZ 0044d7c0 f   render_win32.release:characternode.obj
 0001:0004c7d0       ?Create@CharacterNode@Characters@@SAPAV12@XZ 0044d7d0 f   render_win32.release:characternode.obj
 0001:0004c810       ?RegisterWithFactory@CharacterNode@Characters@@SA_NXZ 0044d810 f   render_win32.release:characternode.obj
 0001:0004c910       ??0CharacterNode@Characters@@QAE@XZ 0044d910 f   render_win32.release:characternode.obj
 0001:0004c990       ??_GCharacterNode@Characters@@UAEPAXI@Z 0044d990 f i render_win32.release:characternode.obj
 0001:0004c990       ??_ECharacterNode@Characters@@UAEPAXI@Z 0044d990 f i  CIL library: CIL module
 0001:0004c9c0       ??1CharacterNode@Characters@@UAE@XZ 0044d9c0 f   render_win32.release:characternode.obj
 0001:0004ca90       ?CreateNodeInstance@CharacterNode@Characters@@UBE?AV?$Ptr@VModelNodeInstance@Models@@@@XZ 0044da90 f   render_win32.release:characternode.obj
 0001:0004cad0       ?RecurseCreateNodeInstanceHierarchy@CharacterNode@Characters@@EAE?AV?$Ptr@VModelNodeInstance@Models@@@@ABV?$Ptr@VModelInstance@Models@@@@ABV3@@Z 0044dad0 f   render_win32.release:characternode.obj
 0001:0004cb40       ?OnAttachToModel@CharacterNode@Characters@@UAEXABV?$Ptr@VModel@Models@@@@@Z 0044db40 f   render_win32.release:characternode.obj
 0001:0004cbb0       ?OnRemoveFromModel@CharacterNode@Characters@@UAEXXZ 0044dbb0 f   render_win32.release:characternode.obj
 0001:0004cc20       ?LoadResources@CharacterNode@Characters@@UAEXXZ 0044dc20 f   render_win32.release:characternode.obj
 0001:0004cf10       ?UnloadResources@CharacterNode@Characters@@UAEXXZ 0044df10 f   render_win32.release:characternode.obj
 0001:0004d020       ?GetResourceState@CharacterNode@Characters@@UBE?AW4State@Resource@Resources@@XZ 0044e020 f   render_win32.release:characternode.obj
 0001:0004d0c0       ?OnResourcesLoaded@CharacterNode@Characters@@UAEXXZ 0044e0c0 f   render_win32.release:characternode.obj
 0001:0004d1d0       ?ParseDataTag@CharacterNode@Characters@@UAE_NABVFourCC@Util@@ABV?$Ptr@VBinaryReader@IO@@@@@Z 0044e1d0 f   render_win32.release:characternode.obj
 0001:0004dd50       ??0?$Ptr@VResourceLoader@Resources@@@@QAE@PAVResourceLoader@Resources@@@Z 0044ed50 f i render_win32.release:characternode.obj
 0001:0004dd90       ??0?$Ptr@VCharacter@Characters@@@@QAE@XZ 0044ed90 f i render_win32.release:characternode.obj
 0001:0004ddb0       ??1?$Ptr@VCharacter@Characters@@@@QAE@XZ 0044edb0 f i render_win32.release:characternode.obj
 0001:0004dde0       ??4?$Ptr@VCharacter@Characters@@@@QAEXPAVCharacter@Characters@@@Z 0044ede0 f i render_win32.release:characternode.obj
 0001:0004de40       ??C?$Ptr@VCharacter@Characters@@@@QBEPAVCharacter@Characters@@XZ 0044ee40 f i render_win32.release:characternode.obj
 0001:0004de80       ?isvalid@?$Ptr@VCharacter@Characters@@@@QBE_NXZ 0044ee80 f i render_win32.release:characternode.obj
 0001:0004dea0       ??0?$Ptr@VManagedAnimResource@CoreAnimation@@@@QAE@XZ 0044eea0 f i render_win32.release:characternode.obj
 0001:0004dec0       ??1?$Ptr@VManagedAnimResource@CoreAnimation@@@@QAE@XZ 0044eec0 f i render_win32.release:characternode.obj
 0001:0004def0       ??4?$Ptr@VManagedAnimResource@CoreAnimation@@@@QAEXPAVManagedAnimResource@CoreAnimation@@@Z 0044eef0 f i render_win32.release:characternode.obj
 0001:0004df50       ??4?$Ptr@VManagedAnimResource@CoreAnimation@@@@QAEXABV0@@Z 0044ef50 f i render_win32.release:characternode.obj
 0001:0004dfb0       ?isvalid@?$Ptr@VManagedAnimResource@CoreAnimation@@@@QBE_NXZ 0044efb0 f i render_win32.release:characternode.obj
 0001:0004dfd0       ??$downcast@VManagedAnimResource@CoreAnimation@@@?$Ptr@VManagedResource@Resources@@@@QBEABV?$Ptr@VManagedAnimResource@CoreAnimation@@@@XZ 0044efd0 f i render_win32.release:characternode.obj
 0001:0004dfe0       ??$upcast@VManagedResource@Resources@@@?$Ptr@VManagedAnimResource@CoreAnimation@@@@QBEABV?$Ptr@VManagedResource@Resources@@@@XZ 0044efe0 f i render_win32.release:characternode.obj
 0001:0004dff0       ?XMVectorSetZPtr@@YA?AT__m128@@T1@PBM@Z 0044eff0 f i render_win32.release:characternode.obj
 0001:0004e080       ?XMVectorSetYPtr@@YA?AT__m128@@T1@PBM@Z 0044f080 f i render_win32.release:characternode.obj
 0001:0004e110       ?XMVectorSetXPtr@@YA?AT__m128@@T1@PBM@Z 0044f110 f i render_win32.release:characternode.obj
 0001:0004e160       ??2CharacterSkinNode@Characters@@SAPAXI@Z 0044f160 f i render_win32.release:characterskinnode.obj
 0001:0004e170       ??3CharacterSkinNode@Characters@@SAXPAX@Z 0044f170 f i render_win32.release:characterskinnode.obj
 0001:0004e190       ??0Fragment@CharacterSkinNode@Characters@@QAE@XZ 0044f190 f i render_win32.release:characterskinnode.obj
 0001:0004e1c0       ?FeatureStringToMask@ShaderServerBase@Base@@QAEIABVString@Util@@@Z 0044f1c0 f i render_win32.release:characterskinnode.obj
 0001:0004e1e0       ?SetFeatureBits@ShaderServerBase@Base@@QAEXI@Z 0044f1e0 f i render_win32.release:characterskinnode.obj
 0001:0004e200       ?Instance@ShaderServer@CoreGraphics@@SAPAV12@XZ 0044f200 f i render_win32.release:characterskinnode.obj
 0001:0004e240       ?GetRtti@CharacterSkinNode@Characters@@UBEPAVRtti@Core@@XZ 0044f240 f   render_win32.release:characterskinnode.obj
 0001:0004e250       ?FactoryCreator@CharacterSkinNode@Characters@@SAPAVRefCounted@Core@@XZ 0044f250 f   render_win32.release:characterskinnode.obj
 0001:0004e260       ?Create@CharacterSkinNode@Characters@@SAPAV12@XZ 0044f260 f   render_win32.release:characterskinnode.obj
 0001:0004e2a0       ?RegisterWithFactory@CharacterSkinNode@Characters@@SA_NXZ 0044f2a0 f   render_win32.release:characterskinnode.obj
 0001:0004e3a0       ??0CharacterSkinNode@Characters@@QAE@XZ 0044f3a0 f   render_win32.release:characterskinnode.obj
 0001:0004e470       ??_GCharacterSkinNode@Characters@@UAEPAXI@Z 0044f470 f i render_win32.release:characterskinnode.obj
 0001:0004e470       ??_ECharacterSkinNode@Characters@@UAEPAXI@Z 0044f470 f i  CIL library: CIL module
 0001:0004e4a0       ??1CharacterSkinNode@Characters@@UAE@XZ 0044f4a0 f   render_win32.release:characterskinnode.obj
 0001:0004e4d0       ?CreateNodeInstance@CharacterSkinNode@Characters@@UBE?AV?$Ptr@VModelNodeInstance@Models@@@@XZ 0044f4d0 f   render_win32.release:characterskinnode.obj
 0001:0004e510       ?ParseDataTag@CharacterSkinNode@Characters@@UAE_NABVFourCC@Util@@ABV?$Ptr@VBinaryReader@IO@@@@@Z 0044f510 f   render_win32.release:characterskinnode.obj
 0001:0004e620       ?ReserveFragments@CharacterSkinNode@Characters@@QAEXH@Z 0044f620 f   render_win32.release:characterskinnode.obj
 0001:0004e650       ?AddFragment@CharacterSkinNode@Characters@@QAEXHABV?$Array@H@Util@@@Z 0044f650 f   render_win32.release:characterskinnode.obj
 0001:0004e6c0       ??1Fragment@CharacterSkinNode@Characters@@QAE@XZ 0044f6c0 f i render_win32.release:characterskinnode.obj
 0001:0004e6e0       ?ApplySharedState@CharacterSkinNode@Characters@@UAEXH@Z 0044f6e0 f   render_win32.release:characterskinnode.obj
 0001:0004e780       ??0?$Array@H@Util@@QAE@XZ  0044f780 f i render_win32.release:characterskinnode.obj
 0001:0004e7c0       ??4?$Array@H@Util@@QAEXABV01@@Z 0044f7c0 f i render_win32.release:characterskinnode.obj
 0001:0004e8b0       ?Append@?$Array@H@Util@@QAEXABH@Z 0044f8b0 f i render_win32.release:characterskinnode.obj
 0001:0004e920       ?Reserve@?$Array@H@Util@@QAEXH@Z 0044f920 f i render_win32.release:characterskinnode.obj
 0001:0004e970       ??0?$Array@VFragment@CharacterSkinNode@Characters@@@Util@@QAE@XZ 0044f970 f i render_win32.release:characterskinnode.obj
 0001:0004e9b0       ??1?$Array@VFragment@CharacterSkinNode@Characters@@@Util@@QAE@XZ 0044f9b0 f i render_win32.release:characterskinnode.obj
 0001:0004e9d0       ?Append@?$Array@VFragment@CharacterSkinNode@Characters@@@Util@@QAEXABVFragment@CharacterSkinNode@Characters@@@Z 0044f9d0 f i render_win32.release:characterskinnode.obj
 0001:0004ea60       ?Reserve@?$Array@VFragment@CharacterSkinNode@Characters@@@Util@@QAEXH@Z 0044fa60 f i render_win32.release:characterskinnode.obj
 0001:0004eab0       ?Back@?$Array@VFragment@CharacterSkinNode@Characters@@@Util@@QBEAAVFragment@CharacterSkinNode@Characters@@XZ 0044fab0 f i render_win32.release:characterskinnode.obj
 0001:0004eb00       ?Clear@?$Array@VFragment@CharacterSkinNode@Characters@@@Util@@QAEXXZ 0044fb00 f i render_win32.release:characterskinnode.obj
 0001:0004eb50       ??4Fragment@CharacterSkinNode@Characters@@QAEAAV012@ABV012@@Z 0044fb50 f i render_win32.release:characterskinnode.obj
 0001:0004eb80       ?Destroy@?$Array@H@Util@@AAEXPAH@Z 0044fb80 f i render_win32.release:characterskinnode.obj
 0001:0004eb90       ?Grow@?$Array@H@Util@@AAEXXZ 0044fb90 f i render_win32.release:characterskinnode.obj
 0001:0004ec10       ?GrowTo@?$Array@H@Util@@AAEXH@Z 0044fc10 f i render_win32.release:characterskinnode.obj
 0001:0004ecc0       ?Destroy@?$Array@VFragment@CharacterSkinNode@Characters@@@Util@@AAEXPAVFragment@CharacterSkinNode@Characters@@@Z 0044fcc0 f i render_win32.release:characterskinnode.obj
 0001:0004ecf0       ?Delete@?$Array@VFragment@CharacterSkinNode@Characters@@@Util@@AAEXXZ 0044fcf0 f i render_win32.release:characterskinnode.obj
 0001:0004ed60       ?Grow@?$Array@VFragment@CharacterSkinNode@Characters@@@Util@@AAEXXZ 0044fd60 f i render_win32.release:characterskinnode.obj
 0001:0004ede0       ?GrowTo@?$Array@VFragment@CharacterSkinNode@Characters@@@Util@@AAEXH@Z 0044fde0 f i render_win32.release:characterskinnode.obj
 0001:0004ef30       ??_GFragment@CharacterSkinNode@Characters@@QAEPAXI@Z 0044ff30 f i render_win32.release:characterskinnode.obj
 0001:0004ef70       ??_EFragment@CharacterSkinNode@Characters@@QAEPAXI@Z 0044ff70 f i render_win32.release:characterskinnode.obj
 0001:0004f010       ?SetFloat@EmitterAttrs@Particles@@QAEXW4FloatAttr@12@M@Z 00450010 f i render_win32.release:particlesystemnode.obj
 0001:0004f030       ?SetBool@EmitterAttrs@Particles@@QAEXW4BoolAttr@12@_N@Z 00450030 f i render_win32.release:particlesystemnode.obj
 0001:0004f050       ?SetInt@EmitterAttrs@Particles@@QAEXW4IntAttr@12@H@Z 00450050 f i render_win32.release:particlesystemnode.obj
 0001:0004f070       ?SetEnvelope@EmitterAttrs@Particles@@QAEXW4EnvelopeAttr@12@ABVEnvelopeCurve@2@@Z 00450070 f i render_win32.release:particlesystemnode.obj
 0001:0004f0a0       ?IsValid@ParticleSystem@Particles@@QBE_NXZ 004500a0 f i render_win32.release:particlesystemnode.obj
 0001:0004f0c0       ??2ParticleSystemNode@Particles@@SAPAXI@Z 004500c0 f i render_win32.release:particlesystemnode.obj
 0001:0004f0d0       ??3ParticleSystemNode@Particles@@SAXPAX@Z 004500d0 f i render_win32.release:particlesystemnode.obj
 0001:0004f0f0       ?SetEmitterMeshResourceId@ParticleSystemNode@Particles@@QAEXABVStringAtom@Util@@@Z 004500f0 f i render_win32.release:particlesystemnode.obj
 0001:0004f110       ?SetPrimitiveGroupIndex@ParticleSystemNode@Particles@@QAEXH@Z 00450110 f i render_win32.release:particlesystemnode.obj
 0001:0004f130       ?SetUsage@D3D9StreamMeshLoader@Win360@@QAEXW4Usage@ResourceBase@Base@@@Z 00450130 f i render_win32.release:particlesystemnode.obj
 0001:0004f150       ?SetAccess@D3D9StreamMeshLoader@Win360@@QAEXW4Access@ResourceBase@Base@@@Z 00450150 f i render_win32.release:particlesystemnode.obj
 0001:0004f170       ?GetRtti@ParticleSystemNode@Particles@@UBEPAVRtti@Core@@XZ 00450170 f   render_win32.release:particlesystemnode.obj
 0001:0004f180       ?FactoryCreator@ParticleSystemNode@Particles@@SAPAVRefCounted@Core@@XZ 00450180 f   render_win32.release:particlesystemnode.obj
 0001:0004f190       ?Create@ParticleSystemNode@Particles@@SAPAV12@XZ 00450190 f   render_win32.release:particlesystemnode.obj
 0001:0004f1d0       ?RegisterWithFactory@ParticleSystemNode@Particles@@SA_NXZ 004501d0 f   render_win32.release:particlesystemnode.obj
 0001:0004f2d0       ??0ParticleSystemNode@Particles@@QAE@XZ 004502d0 f   render_win32.release:particlesystemnode.obj
 0001:0004f340       ??_EParticleSystemNode@Particles@@UAEPAXI@Z 00450340 f i  CIL library: CIL module
 0001:0004f340       ??_GParticleSystemNode@Particles@@UAEPAXI@Z 00450340 f i render_win32.release:particlesystemnode.obj
 0001:0004f370       ??1ParticleSystemNode@Particles@@UAE@XZ 00450370 f   render_win32.release:particlesystemnode.obj
 0001:0004f400       ?CreateNodeInstance@ParticleSystemNode@Particles@@UBE?AV?$Ptr@VModelNodeInstance@Models@@@@XZ 00450400 f   render_win32.release:particlesystemnode.obj
 0001:0004f440       ?OnAttachToModel@ParticleSystemNode@Particles@@UAEXABV?$Ptr@VModel@Models@@@@@Z 00450440 f   render_win32.release:particlesystemnode.obj
 0001:0004f4a0       ?OnRemoveFromModel@ParticleSystemNode@Particles@@UAEXXZ 004504a0 f   render_win32.release:particlesystemnode.obj
 0001:0004f520       ?LoadResources@ParticleSystemNode@Particles@@UAEXXZ 00450520 f   render_win32.release:particlesystemnode.obj
 0001:0004f660       ?UnloadResources@ParticleSystemNode@Particles@@UAEXXZ 00450660 f   render_win32.release:particlesystemnode.obj
 0001:0004f710       ?GetResourceState@ParticleSystemNode@Particles@@UBE?AW4State@Resource@Resources@@XZ 00450710 f   render_win32.release:particlesystemnode.obj
 0001:0004f760       ?OnResourcesLoaded@ParticleSystemNode@Particles@@UAEXXZ 00450760 f   render_win32.release:particlesystemnode.obj
 0001:0004f820       ?ParseEnvelopeCurveData@ParticleSystemNode@Particles@@ABE?AVEnvelopeCurve@2@ABV?$Ptr@VBinaryReader@IO@@@@@Z 00450820 f   render_win32.release:particlesystemnode.obj
 0001:0004f940       ?ParseDataTag@ParticleSystemNode@Particles@@UAE_NABVFourCC@Util@@ABV?$Ptr@VBinaryReader@IO@@@@@Z 00450940 f   render_win32.release:particlesystemnode.obj
 0001:000506a0       ??0?$Ptr@VParticleSystem@Particles@@@@QAE@XZ 004516a0 f i render_win32.release:particlesystemnode.obj
 0001:000506c0       ??1?$Ptr@VParticleSystem@Particles@@@@QAE@XZ 004516c0 f i render_win32.release:particlesystemnode.obj
 0001:000506f0       ??4?$Ptr@VParticleSystem@Particles@@@@QAEXPAVParticleSystem@Particles@@@Z 004516f0 f i render_win32.release:particlesystemnode.obj
 0001:00050750       ??C?$Ptr@VParticleSystem@Particles@@@@QBEPAVParticleSystem@Particles@@XZ 00451750 f i render_win32.release:particlesystemnode.obj
 0001:00050790       ?isvalid@?$Ptr@VParticleSystem@Particles@@@@QBE_NXZ 00451790 f i render_win32.release:particlesystemnode.obj
 0001:000507b0       ??0?$Ptr@VStreamMeshLoader@CoreGraphics@@@@QAE@PAVStreamMeshLoader@CoreGraphics@@@Z 004517b0 f i render_win32.release:particlesystemnode.obj
 0001:000507f0       ??1?$Ptr@VStreamMeshLoader@CoreGraphics@@@@QAE@XZ 004517f0 f i render_win32.release:particlesystemnode.obj
 0001:00050820       ??C?$Ptr@VStreamMeshLoader@CoreGraphics@@@@QBEPAVStreamMeshLoader@CoreGraphics@@XZ 00451820 f i render_win32.release:particlesystemnode.obj
 0001:00050860       ??$upcast@VResourceLoader@Resources@@@?$Ptr@VStreamMeshLoader@CoreGraphics@@@@QBEABV?$Ptr@VResourceLoader@Resources@@@@XZ 00451860 f i render_win32.release:particlesystemnode.obj
 0001:00050870       ?SetClearColor@RenderTargetBase@Base@@QAEXABVfloat4@Math@@@Z 00451870 f i render_win32.release:framepass.obj
 0001:000508a0       ?SetClearDepth@RenderTargetBase@Base@@QAEXM@Z 004518a0 f i render_win32.release:framepass.obj
 0001:000508c0       ?SetClearStencil@RenderTargetBase@Base@@QAEXE@Z 004518c0 f i render_win32.release:framepass.obj
 0001:000508e0       ?SetClearFlags@RenderTargetBase@Base@@QAEXI@Z 004518e0 f i render_win32.release:framepass.obj
 0001:00050900       ??2FramePass@Frame@@SAPAXI@Z 00451900 f i render_win32.release:framepass.obj
 0001:00050910       ??3FramePass@Frame@@SAXPAX@Z 00451910 f i render_win32.release:framepass.obj
 0001:00050930       ?Instance@RenderDevice@CoreGraphics@@SAPAV12@XZ 00451930 f i render_win32.release:framepass.obj
 0001:00050970       ?GetRtti@FramePass@Frame@@UBEPAVRtti@Core@@XZ 00451970 f   render_win32.release:framepass.obj
 0001:00050980       ?FactoryCreator@FramePass@Frame@@SAPAVRefCounted@Core@@XZ 00451980 f   render_win32.release:framepass.obj
 0001:00050990       ?Create@FramePass@Frame@@SAPAV12@XZ 00451990 f   render_win32.release:framepass.obj
 0001:000509d0       ?RegisterWithFactory@FramePass@Frame@@SA_NXZ 004519d0 f   render_win32.release:framepass.obj
 0001:00050ad0       ??0FramePass@Frame@@QAE@XZ 00451ad0 f   render_win32.release:framepass.obj
 0001:00050b00       ??_GFramePass@Frame@@UAEPAXI@Z 00451b00 f i render_win32.release:framepass.obj
 0001:00050b00       ??_EFramePass@Frame@@UAEPAXI@Z 00451b00 f i  CIL library: CIL module
 0001:00050b30       ??1FramePass@Frame@@UAE@XZ 00451b30 f   render_win32.release:framepass.obj
 0001:00050b60       ?Discard@FramePass@Frame@@UAEXXZ 00451b60 f   render_win32.release:framepass.obj
 0001:00050ba0       ?Render@FramePass@Frame@@UAEXXZ 00451ba0 f   render_win32.release:framepass.obj
 0001:00050e40       ?SetFramePassDebugTimer@FramePass@Frame@@QAEXABVString@Util@@@Z 00451e40 f   render_win32.release:framepass.obj
 0001:00050ea0       ??C?$Ptr@VRenderTarget@CoreGraphics@@@@QBEPAVRenderTarget@CoreGraphics@@XZ 00451ea0 f i render_win32.release:framepass.obj
 0001:00050ee0       ?isvalid@?$Ptr@VRenderTarget@CoreGraphics@@@@QBE_NXZ 00451ee0 f i render_win32.release:framepass.obj
 0001:00050f00       ??A?$Array@V?$Ptr@VShaderVariableInstance@CoreGraphics@@@@@Util@@QBEAAV?$Ptr@VShaderVariableInstance@CoreGraphics@@@@H@Z 00451f00 f i render_win32.release:framepass.obj
 0001:00050f50       ?Size@?$Array@V?$Ptr@VShaderVariableInstance@CoreGraphics@@@@@Util@@QBEHXZ 00451f50 f i render_win32.release:framepass.obj
 0001:00050f70       ?isvalid@?$Ptr@VMultipleRenderTarget@CoreGraphics@@@@QBE_NXZ 00451f70 f i render_win32.release:framepass.obj
 0001:00050f90       ??A?$Array@V?$Ptr@VFrameBatch@Frame@@@@@Util@@QBEAAV?$Ptr@VFrameBatch@Frame@@@@H@Z 00451f90 f i render_win32.release:framepass.obj
 0001:00050fe0       ?Size@?$Array@V?$Ptr@VFrameBatch@Frame@@@@@Util@@QBEHXZ 00451fe0 f i render_win32.release:framepass.obj
 0001:00051000       ??C?$Ptr@VFrameBatch@Frame@@@@QBEPAVFrameBatch@Frame@@XZ 00452000 f i render_win32.release:framepass.obj
 0001:00051040       ??3D3D9StreamTextureLoader@Direct3D9@@SAXPAX@Z 00452040 f i render_win32.release:streamtextureloader.obj
 0001:00051060       ??2StreamTextureLoader@CoreGraphics@@SAPAXI@Z 00452060 f i render_win32.release:streamtextureloader.obj
 0001:00051070       ??3StreamTextureLoader@CoreGraphics@@SAXPAX@Z 00452070 f i render_win32.release:streamtextureloader.obj
 0001:00051090       ?GetRtti@StreamTextureLoader@CoreGraphics@@UBEPAVRtti@Core@@XZ 00452090 f   render_win32.release:streamtextureloader.obj
 0001:000510a0       ?FactoryCreator@StreamTextureLoader@CoreGraphics@@SAPAVRefCounted@Core@@XZ 004520a0 f   render_win32.release:streamtextureloader.obj
 0001:000510b0       ?Create@StreamTextureLoader@CoreGraphics@@SAPAV12@XZ 004520b0 f   render_win32.release:streamtextureloader.obj
 0001:00051100       ??0StreamTextureLoader@CoreGraphics@@QAE@XZ 00452100 f i render_win32.release:streamtextureloader.obj
 0001:00051130       ??_EStreamTextureLoader@CoreGraphics@@UAEPAXI@Z 00452130 f i  CIL library: CIL module
 0001:00051130       ??_GStreamTextureLoader@CoreGraphics@@UAEPAXI@Z 00452130 f i render_win32.release:streamtextureloader.obj
 0001:00051160       ??0D3D9StreamTextureLoader@Direct3D9@@QAE@XZ 00452160 f i render_win32.release:streamtextureloader.obj
 0001:00051180       ??1D3D9StreamTextureLoader@Direct3D9@@UAE@XZ 00452180 f i render_win32.release:streamtextureloader.obj
 0001:000511a0       ??1StreamTextureLoader@CoreGraphics@@UAE@XZ 004521a0 f i render_win32.release:streamtextureloader.obj
 0001:000511c0       ??_ED3D9StreamTextureLoader@Direct3D9@@UAEPAXI@Z 004521c0 f i  CIL library: CIL module
 0001:000511c0       ??_GD3D9StreamTextureLoader@Direct3D9@@UAEPAXI@Z 004521c0 f i render_win32.release:streamtextureloader.obj
 0001:000511f0       ?RegisterWithFactory@StreamTextureLoader@CoreGraphics@@SA_NXZ 004521f0 f   render_win32.release:streamtextureloader.obj
 0001:000512f0       ??2StreamMeshLoader@CoreGraphics@@SAPAXI@Z 004522f0 f i render_win32.release:streammeshloader.obj
 0001:00051300       ??3StreamMeshLoader@CoreGraphics@@SAXPAX@Z 00452300 f i render_win32.release:streammeshloader.obj
 0001:00051320       ?GetRtti@StreamMeshLoader@CoreGraphics@@UBEPAVRtti@Core@@XZ 00452320 f   render_win32.release:streammeshloader.obj
 0001:00051330       ?FactoryCreator@StreamMeshLoader@CoreGraphics@@SAPAVRefCounted@Core@@XZ 00452330 f   render_win32.release:streammeshloader.obj
 0001:00051340       ?Create@StreamMeshLoader@CoreGraphics@@SAPAV12@XZ 00452340 f   render_win32.release:streammeshloader.obj
 0001:00051380       ??0StreamMeshLoader@CoreGraphics@@QAE@XZ 00452380 f i render_win32.release:streammeshloader.obj
 0001:000513a0       ??_EStreamMeshLoader@CoreGraphics@@UAEPAXI@Z 004523a0 f i  CIL library: CIL module
 0001:000513a0       ??_GStreamMeshLoader@CoreGraphics@@UAEPAXI@Z 004523a0 f i render_win32.release:streammeshloader.obj
 0001:000513d0       ??1D3D9StreamMeshLoader@Win360@@UAE@XZ 004523d0 f i render_win32.release:streammeshloader.obj
 0001:000513f0       ??1StreamMeshLoader@CoreGraphics@@UAE@XZ 004523f0 f i render_win32.release:streammeshloader.obj
 0001:00051410       ?RegisterWithFactory@StreamMeshLoader@CoreGraphics@@SA_NXZ 00452410 f   render_win32.release:streammeshloader.obj
 0001:00051510       ??0StringAtom@Util@@QAE@PAD@Z 00452510 f i render_win32.release:streamanimationloader.obj
 0001:00051540       ??2StreamAnimationLoader@CoreAnimation@@SAPAXI@Z 00452540 f i render_win32.release:streamanimationloader.obj
 0001:00051550       ??3StreamAnimationLoader@CoreAnimation@@SAXPAX@Z 00452550 f i render_win32.release:streamanimationloader.obj
 0001:00051570       ?SetActive@AnimCurve@CoreAnimation@@QAEX_N@Z 00452570 f i render_win32.release:streamanimationloader.obj
 0001:00051590       ?SetStatic@AnimCurve@CoreAnimation@@QAEX_N@Z 00452590 f i render_win32.release:streamanimationloader.obj
 0001:000515b0       ?SetStaticKey@AnimCurve@CoreAnimation@@QAEXABVfloat4@Math@@@Z 004525b0 f i render_win32.release:streamanimationloader.obj
 0001:000515d0       ?SetFirstKeyIndex@AnimCurve@CoreAnimation@@QAEXH@Z 004525d0 f i render_win32.release:streamanimationloader.obj
 0001:000515f0       ?SetCurveType@AnimCurve@CoreAnimation@@QAEXW4Code@CurveType@2@@Z 004525f0 f i render_win32.release:streamanimationloader.obj
 0001:00051610       ??0AnimEvent@CoreAnimation@@QAE@ABVStringAtom@Util@@0H@Z 00452610 f i render_win32.release:streamanimationloader.obj
 0001:00051650       ?SetName@AnimClip@CoreAnimation@@QAEXABVStringAtom@Util@@@Z 00452650 f i render_win32.release:streamanimationloader.obj
 0001:00051670       ?SetNumKeys@AnimClip@CoreAnimation@@QAEXH@Z 00452670 f i render_win32.release:streamanimationloader.obj
 0001:00051690       ?SetKeyStride@AnimClip@CoreAnimation@@QAEXH@Z 00452690 f i render_win32.release:streamanimationloader.obj
 0001:000516b0       ?SetKeyDuration@AnimClip@CoreAnimation@@QAEXH@Z 004526b0 f i render_win32.release:streamanimationloader.obj
 0001:000516d0       ?GetKeyDuration@AnimClip@CoreAnimation@@QBEHXZ 004526d0 f i render_win32.release:streamanimationloader.obj
 0001:000516f0       ?SetPreInfinityType@AnimClip@CoreAnimation@@QAEXW4Code@InfinityType@2@@Z 004526f0 f i render_win32.release:streamanimationloader.obj
 0001:00051710       ?SetPostInfinityType@AnimClip@CoreAnimation@@QAEXW4Code@InfinityType@2@@Z 00452710 f i render_win32.release:streamanimationloader.obj
 0001:00051730       ?SetStartKeyIndex@AnimClip@CoreAnimation@@QAEXH@Z 00452730 f i render_win32.release:streamanimationloader.obj
 0001:00051750       ?GetByteSize@AnimKeyBuffer@CoreAnimation@@QBEHXZ 00452750 f i render_win32.release:streamanimationloader.obj
 0001:00051770       ?GetRtti@StreamAnimationLoader@CoreAnimation@@UBEPAVRtti@Core@@XZ 00452770 f   render_win32.release:streamanimationloader.obj
 0001:00051780       ?FactoryCreator@StreamAnimationLoader@CoreAnimation@@SAPAVRefCounted@Core@@XZ 00452780 f   render_win32.release:streamanimationloader.obj
 0001:00051790       ?Create@StreamAnimationLoader@CoreAnimation@@SAPAV12@XZ 00452790 f   render_win32.release:streamanimationloader.obj
 0001:000517d0       ??0StreamAnimationLoader@CoreAnimation@@QAE@XZ 004527d0 f i render_win32.release:streamanimationloader.obj
 0001:000517f0       ??_EStreamAnimationLoader@CoreAnimation@@UAEPAXI@Z 004527f0 f i  CIL library: CIL module
 0001:000517f0       ??_GStreamAnimationLoader@CoreAnimation@@UAEPAXI@Z 004527f0 f i render_win32.release:streamanimationloader.obj
 0001:00051820       ??1StreamAnimationLoader@CoreAnimation@@UAE@XZ 00452820 f i render_win32.release:streamanimationloader.obj
 0001:00051840       ?RegisterWithFactory@StreamAnimationLoader@CoreAnimation@@SA_NXZ 00452840 f   render_win32.release:streamanimationloader.obj
 0001:00051940       ?SetupResourceFromStream@StreamAnimationLoader@CoreAnimation@@MAE_NABV?$Ptr@VStream@IO@@@@@Z 00452940 f   render_win32.release:streamanimationloader.obj
 0001:000519b0       ?SetupFromNax3@StreamAnimationLoader@CoreAnimation@@IAE_NABV?$Ptr@VStream@IO@@@@@Z 004529b0 f   render_win32.release:streamanimationloader.obj
 0001:00052170       ?isvalid@?$Ptr@VStream@IO@@@@QBE_NXZ 00453170 f i render_win32.release:streamanimationloader.obj
 0001:00052190       ?GetAntiAliasQuality@DisplaySettings@Graphics@@QBE?AW4Code@AntiAliasQuality@CoreGraphics@@XZ 00453190 f i render_win32.release:display.obj
 0001:000521b0       ?GetAdapter@DisplaySettings@Graphics@@QBE?AW4Code@Adapter@CoreGraphics@@XZ 004531b0 f i render_win32.release:display.obj
 0001:000521c0       ?IsAutoAdjustSize@DisplaySettings@Graphics@@QBE_NXZ 004531c0 f i render_win32.release:display.obj
 0001:000521e0       ?IsFullscreen@DisplaySettings@Graphics@@QBE_NXZ 004531e0 f i render_win32.release:display.obj
 0001:00052200       ?IsDisplayModeSwitchEnabled@DisplaySettings@Graphics@@QBE_NXZ 00453200 f i render_win32.release:display.obj
 0001:00052220       ?IsTripleBufferingEnabled@DisplaySettings@Graphics@@QBE_NXZ 00453220 f i render_win32.release:display.obj
 0001:00052240       ?IsAlwaysOnTop@DisplaySettings@Graphics@@QBE_NXZ 00453240 f i render_win32.release:display.obj
 0001:00052260       ?IsVerticalSyncEnabled@DisplaySettings@Graphics@@QBE_NXZ 00453260 f i render_win32.release:display.obj
 0001:00052280       ?GetIconName@DisplaySettings@Graphics@@QBEABVString@Util@@XZ 00453280 f i render_win32.release:display.obj
 0001:000522a0       ?GetWindowTitle@DisplaySettings@Graphics@@QBEABVString@Util@@XZ 004532a0 f i render_win32.release:display.obj
 0001:000522c0       ??2Display@Graphics@@SAPAXI@Z 004532c0 f i render_win32.release:display.obj
 0001:000522d0       ??3Display@Graphics@@SAXPAX@Z 004532d0 f i render_win32.release:display.obj
 0001:000522f0       ?SetAdapter@SetupGraphics@Graphics@@QAEXABW4Code@Adapter@CoreGraphics@@@Z 004532f0 f i render_win32.release:display.obj
 0001:00052330       ?SetDisplayMode@SetupGraphics@Graphics@@QAEXABVDisplayMode@CoreGraphics@@@Z 00453330 f i render_win32.release:display.obj
 0001:00052390       ?SetAntiAliasQuality@SetupGraphics@Graphics@@QAEXABW4Code@AntiAliasQuality@CoreGraphics@@@Z 00453390 f i render_win32.release:display.obj
 0001:000523d0       ?SetFullscreen@SetupGraphics@Graphics@@QAEX_N@Z 004533d0 f i render_win32.release:display.obj
 0001:00052410       ?SetAutoAdjustSize@SetupGraphics@Graphics@@QAEX_N@Z 00453410 f i render_win32.release:display.obj
 0001:00052450       ?SetDisplayModeSwitchEnabled@SetupGraphics@Graphics@@QAEX_N@Z 00453450 f i render_win32.release:display.obj
 0001:00052490       ?SetTripleBufferingEnabled@SetupGraphics@Graphics@@QAEX_N@Z 00453490 f i render_win32.release:display.obj
 0001:000524d0       ?SetAlwaysOnTop@SetupGraphics@Graphics@@QAEX_N@Z 004534d0 f i render_win32.release:display.obj
 0001:00052510       ?SetVerticalSyncEnabled@SetupGraphics@Graphics@@QAEX_N@Z 00453510 f i render_win32.release:display.obj
 0001:00052550       ?SetIconName@SetupGraphics@Graphics@@QAEXABVString@Util@@@Z 00453550 f i render_win32.release:display.obj
 0001:000525c0       ?SetWindowTitle@SetupGraphics@Graphics@@QAEXABVString@Util@@@Z 004535c0 f i render_win32.release:display.obj
 0001:00052630       ?SetParentWindow@SetupGraphics@Graphics@@QAEXPAX@Z 00453630 f i render_win32.release:display.obj
 0001:00052670       ?SetResourceMappers@SetupGraphics@Graphics@@QAEXABV?$Array@V?$Ptr@VResourceMapper@Resources@@@@@Util@@@Z 00453670 f i render_win32.release:display.obj
 0001:000526b0       ?GetActualDisplayMode@SetupGraphics@Graphics@@QBEABVDisplayMode@CoreGraphics@@XZ 004536b0 f i render_win32.release:display.obj
 0001:000526f0       ?GetActualFullscreen@SetupGraphics@Graphics@@QBE_NXZ 004536f0 f i render_win32.release:display.obj
 0001:00052730       ?GetActualAdapter@SetupGraphics@Graphics@@QBEABW4Code@Adapter@CoreGraphics@@XZ 00453730 f i render_win32.release:display.obj
 0001:00052770       ?SetAdapter@AdapterExists@Graphics@@QAEXABW4Code@Adapter@CoreGraphics@@@Z 00453770 f i render_win32.release:display.obj
 0001:000527b0       ?GetResult@AdapterExists@Graphics@@QBE_NXZ 004537b0 f i render_win32.release:display.obj
 0001:000527f0       ?SetAdapter@GetAvailableDisplayModes@Graphics@@QAEXABW4Code@Adapter@CoreGraphics@@@Z 004537f0 f i render_win32.release:display.obj
 0001:00052830       ?SetPixelFormat@GetAvailableDisplayModes@Graphics@@QAEXABW4Code@PixelFormat@CoreGraphics@@@Z 00453830 f i render_win32.release:display.obj
 0001:00052870       ?GetResult@GetAvailableDisplayModes@Graphics@@QBEABV?$Array@VDisplayMode@CoreGraphics@@@Util@@XZ 00453870 f i render_win32.release:display.obj
 0001:000528b0       ?SetAdapter@SupportsDisplayMode@Graphics@@QAEXABW4Code@Adapter@CoreGraphics@@@Z 004538b0 f i render_win32.release:display.obj
 0001:000528f0       ?SetDisplayMode@SupportsDisplayMode@Graphics@@QAEXABVDisplayMode@CoreGraphics@@@Z 004538f0 f i render_win32.release:display.obj
 0001:00052950       ?GetResult@SupportsDisplayMode@Graphics@@QBE_NXZ 00453950 f i render_win32.release:display.obj
 0001:00052990       ?SetAdapter@GetCurrentAdapterDisplayMode@Graphics@@QAEXABW4Code@Adapter@CoreGraphics@@@Z 00453990 f i render_win32.release:display.obj
 0001:000529d0       ?GetResult@GetCurrentAdapterDisplayMode@Graphics@@QBEABVDisplayMode@CoreGraphics@@XZ 004539d0 f i render_win32.release:display.obj
 0001:00052a10       ?SetAdapter@GetAdapterInfo@Graphics@@QAEXABW4Code@Adapter@CoreGraphics@@@Z 00453a10 f i render_win32.release:display.obj
 0001:00052a50       ?GetResult@GetAdapterInfo@Graphics@@QBEABVAdapterInfo@CoreGraphics@@XZ 00453a50 f i render_win32.release:display.obj
 0001:00052a90       ?SetHandler@AttachDisplayEventHandler@Graphics@@QAEXABV?$Ptr@VThreadSafeDisplayEventHandler@CoreGraphics@@@@@Z 00453a90 f i render_win32.release:display.obj
 0001:00052ad0       ?SetHandler@RemoveDisplayEventHandler@Graphics@@QAEXABV?$Ptr@VThreadSafeDisplayEventHandler@CoreGraphics@@@@@Z 00453ad0 f i render_win32.release:display.obj
 0001:00052b10       ?SetHandler@AttachRenderEventHandler@Graphics@@QAEXABV?$Ptr@VThreadSafeRenderEventHandler@CoreGraphics@@@@@Z 00453b10 f i render_win32.release:display.obj
 0001:00052b50       ?SetHandler@RemoveRenderEventHandler@Graphics@@QAEXABV?$Ptr@VThreadSafeRenderEventHandler@CoreGraphics@@@@@Z 00453b50 f i render_win32.release:display.obj
 0001:00052b90       ?GetRtti@Display@Graphics@@UBEPAVRtti@Core@@XZ 00453b90 f   render_win32.release:display.obj
 0001:00052ba0       ?FactoryCreator@Display@Graphics@@SAPAVRefCounted@Core@@XZ 00453ba0 f   render_win32.release:display.obj
 0001:00052bb0       ?Create@Display@Graphics@@SAPAV12@XZ 00453bb0 f   render_win32.release:display.obj
 0001:00052bf0       ?RegisterWithFactory@Display@Graphics@@SA_NXZ 00453bf0 f   render_win32.release:display.obj
 0001:00052cf0       ??0Display@Graphics@@QAE@XZ 00453cf0 f   render_win32.release:display.obj
 0001:00052d80       ??_GDisplay@Graphics@@UAEPAXI@Z 00453d80 f i render_win32.release:display.obj
 0001:00052d80       ??_EDisplay@Graphics@@UAEPAXI@Z 00453d80 f i  CIL library: CIL module
 0001:00052db0       ??1DisplaySettings@Graphics@@QAE@XZ 00453db0 f i render_win32.release:display.obj
 0001:00052e50       ??1Display@Graphics@@UAE@XZ 00453e50 f   render_win32.release:display.obj
 0001:00052ee0       ?Open@Display@Graphics@@QAEXXZ 00453ee0 f   render_win32.release:display.obj
 0001:000533e0       ?Close@Display@Graphics@@QAEXXZ 004543e0 f   render_win32.release:display.obj
 0001:00053420       ?AdapterExists@Display@Graphics@@QAE_NW4Code@Adapter@CoreGraphics@@@Z 00454420 f   render_win32.release:display.obj
 0001:00053520       ?GetAvailableDisplayModes@Display@Graphics@@QAE?AV?$Array@VDisplayMode@CoreGraphics@@@Util@@W4Code@Adapter@CoreGraphics@@W45PixelFormat@7@@Z 00454520 f   render_win32.release:display.obj
 0001:00053660       ?SupportsDisplayMode@Display@Graphics@@QAE_NW4Code@Adapter@CoreGraphics@@ABVDisplayMode@5@@Z 00454660 f   render_win32.release:display.obj
 0001:000537c0       ?AdjustSize@Display@Graphics@@QAEXXZ 004547c0 f   render_win32.release:display.obj
 0001:00053820       ?GetCurrentAdapterDisplayMode@Display@Graphics@@QAE?AVDisplayMode@CoreGraphics@@W4Code@Adapter@4@@Z 00454820 f   render_win32.release:display.obj
 0001:00053950       ?GetAdapterInfo@Display@Graphics@@QAE?AVAdapterInfo@CoreGraphics@@W4Code@Adapter@4@@Z 00454950 f   render_win32.release:display.obj
 0001:00053a60       ??0AdapterInfo@CoreGraphics@@QAE@ABV01@@Z 00454a60 f i render_win32.release:display.obj
 0001:00053bf0       ?AttachDisplayEventHandler@Display@Graphics@@QAEXABV?$Ptr@VThreadSafeDisplayEventHandler@CoreGraphics@@@@@Z 00454bf0 f   render_win32.release:display.obj
 0001:00053cb0       ?RemoveDisplayEventHandler@Display@Graphics@@QAEXABV?$Ptr@VThreadSafeDisplayEventHandler@CoreGraphics@@@@@Z 00454cb0 f   render_win32.release:display.obj
 0001:00053d70       ?AttachRenderEventHandler@Display@Graphics@@QAEXABV?$Ptr@VThreadSafeRenderEventHandler@CoreGraphics@@@@@Z 00454d70 f   render_win32.release:display.obj
 0001:00053e30       ?RemoveRenderEventHandler@Display@Graphics@@QAEXABV?$Ptr@VThreadSafeRenderEventHandler@CoreGraphics@@@@@Z 00454e30 f   render_win32.release:display.obj
 0001:00053ef0       ?IsEmpty@?$Array@V?$Ptr@VResourceMapper@Resources@@@@@Util@@QBE_NXZ 00454ef0 f i render_win32.release:display.obj
 0001:00053f10       ?Clear@?$Array@V?$Ptr@VResourceMapper@Resources@@@@@Util@@QAEXXZ 00454f10 f i render_win32.release:display.obj
 0001:00053f60       ??0?$Array@VDisplayMode@CoreGraphics@@@Util@@QAE@ABV01@@Z 00454f60 f i render_win32.release:display.obj
 0001:00053fb0       ??4?$Ptr@VThreadSafeDisplayEventHandler@CoreGraphics@@@@QAEXABV0@@Z 00454fb0 f i render_win32.release:display.obj
 0001:00054010       ??4?$Ptr@VThreadSafeRenderEventHandler@CoreGraphics@@@@QAEXABV0@@Z 00455010 f i render_win32.release:display.obj
 0001:00054070       ??0?$Ptr@VSetupGraphics@Graphics@@@@QAE@PAVSetupGraphics@Graphics@@@Z 00455070 f i render_win32.release:display.obj
 0001:000540b0       ??1?$Ptr@VSetupGraphics@Graphics@@@@QAE@XZ 004550b0 f i render_win32.release:display.obj
 0001:000540e0       ??C?$Ptr@VSetupGraphics@Graphics@@@@QBEPAVSetupGraphics@Graphics@@XZ 004550e0 f i render_win32.release:display.obj
 0001:00054120       ??$cast@VMessage@Messaging@@@?$Ptr@VSetupGraphics@Graphics@@@@QBEABV?$Ptr@VMessage@Messaging@@@@XZ 00455120 f i render_win32.release:display.obj
 0001:00054130       ??0?$Ptr@VAdapterExists@Graphics@@@@QAE@PAVAdapterExists@Graphics@@@Z 00455130 f i render_win32.release:display.obj
 0001:00054170       ??1?$Ptr@VAdapterExists@Graphics@@@@QAE@XZ 00455170 f i render_win32.release:display.obj
 0001:000541a0       ??C?$Ptr@VAdapterExists@Graphics@@@@QBEPAVAdapterExists@Graphics@@XZ 004551a0 f i render_win32.release:display.obj
 0001:000541e0       ??$cast@VMessage@Messaging@@@?$Ptr@VAdapterExists@Graphics@@@@QBEABV?$Ptr@VMessage@Messaging@@@@XZ 004551e0 f i render_win32.release:display.obj
 0001:000541f0       ??0?$Ptr@VGetAvailableDisplayModes@Graphics@@@@QAE@PAVGetAvailableDisplayModes@Graphics@@@Z 004551f0 f i render_win32.release:display.obj
 0001:00054230       ??1?$Ptr@VGetAvailableDisplayModes@Graphics@@@@QAE@XZ 00455230 f i render_win32.release:display.obj
 0001:00054260       ??C?$Ptr@VGetAvailableDisplayModes@Graphics@@@@QBEPAVGetAvailableDisplayModes@Graphics@@XZ 00455260 f i render_win32.release:display.obj
 0001:000542a0       ??$cast@VMessage@Messaging@@@?$Ptr@VGetAvailableDisplayModes@Graphics@@@@QBEABV?$Ptr@VMessage@Messaging@@@@XZ 004552a0 f i render_win32.release:display.obj
 0001:000542b0       ??0?$Ptr@VSupportsDisplayMode@Graphics@@@@QAE@PAVSupportsDisplayMode@Graphics@@@Z 004552b0 f i render_win32.release:display.obj
 0001:000542f0       ??1?$Ptr@VSupportsDisplayMode@Graphics@@@@QAE@XZ 004552f0 f i render_win32.release:display.obj
 0001:00054320       ??C?$Ptr@VSupportsDisplayMode@Graphics@@@@QBEPAVSupportsDisplayMode@Graphics@@XZ 00455320 f i render_win32.release:display.obj
 0001:00054360       ??$cast@VMessage@Messaging@@@?$Ptr@VSupportsDisplayMode@Graphics@@@@QBEABV?$Ptr@VMessage@Messaging@@@@XZ 00455360 f i render_win32.release:display.obj
 0001:00054370       ??0?$Ptr@VAdjustDisplaySize@Graphics@@@@QAE@PAVAdjustDisplaySize@Graphics@@@Z 00455370 f i render_win32.release:display.obj
 0001:000543b0       ??1?$Ptr@VAdjustDisplaySize@Graphics@@@@QAE@XZ 004553b0 f i render_win32.release:display.obj
 0001:000543e0       ??$cast@VMessage@Messaging@@@?$Ptr@VAdjustDisplaySize@Graphics@@@@QBEABV?$Ptr@VMessage@Messaging@@@@XZ 004553e0 f i render_win32.release:display.obj
 0001:000543f0       ??0?$Ptr@VGetCurrentAdapterDisplayMode@Graphics@@@@QAE@PAVGetCurrentAdapterDisplayMode@Graphics@@@Z 004553f0 f i render_win32.release:display.obj
 0001:00054430       ??1?$Ptr@VGetCurrentAdapterDisplayMode@Graphics@@@@QAE@XZ 00455430 f i render_win32.release:display.obj
 0001:00054460       ??C?$Ptr@VGetCurrentAdapterDisplayMode@Graphics@@@@QBEPAVGetCurrentAdapterDisplayMode@Graphics@@XZ 00455460 f i render_win32.release:display.obj
 0001:000544a0       ??$cast@VMessage@Messaging@@@?$Ptr@VGetCurrentAdapterDisplayMode@Graphics@@@@QBEABV?$Ptr@VMessage@Messaging@@@@XZ 004554a0 f i render_win32.release:display.obj
 0001:000544b0       ??0?$Ptr@VGetAdapterInfo@Graphics@@@@QAE@PAVGetAdapterInfo@Graphics@@@Z 004554b0 f i render_win32.release:display.obj
 0001:000544f0       ??1?$Ptr@VGetAdapterInfo@Graphics@@@@QAE@XZ 004554f0 f i render_win32.release:display.obj
 0001:00054520       ??C?$Ptr@VGetAdapterInfo@Graphics@@@@QBEPAVGetAdapterInfo@Graphics@@XZ 00455520 f i render_win32.release:display.obj
 0001:00054560       ??$cast@VMessage@Messaging@@@?$Ptr@VGetAdapterInfo@Graphics@@@@QBEABV?$Ptr@VMessage@Messaging@@@@XZ 00455560 f i render_win32.release:display.obj
 0001:00054570       ??0?$Ptr@VAttachDisplayEventHandler@Graphics@@@@QAE@PAVAttachDisplayEventHandler@Graphics@@@Z 00455570 f i render_win32.release:display.obj
 0001:000545b0       ??1?$Ptr@VAttachDisplayEventHandler@Graphics@@@@QAE@XZ 004555b0 f i render_win32.release:display.obj
 0001:000545e0       ??C?$Ptr@VAttachDisplayEventHandler@Graphics@@@@QBEPAVAttachDisplayEventHandler@Graphics@@XZ 004555e0 f i render_win32.release:display.obj
 0001:00054620       ??$cast@VMessage@Messaging@@@?$Ptr@VAttachDisplayEventHandler@Graphics@@@@QBEABV?$Ptr@VMessage@Messaging@@@@XZ 00455620 f i render_win32.release:display.obj
 0001:00054630       ??0?$Ptr@VRemoveDisplayEventHandler@Graphics@@@@QAE@PAVRemoveDisplayEventHandler@Graphics@@@Z 00455630 f i render_win32.release:display.obj
 0001:00054670       ??1?$Ptr@VRemoveDisplayEventHandler@Graphics@@@@QAE@XZ 00455670 f i render_win32.release:display.obj
 0001:000546a0       ??C?$Ptr@VRemoveDisplayEventHandler@Graphics@@@@QBEPAVRemoveDisplayEventHandler@Graphics@@XZ 004556a0 f i render_win32.release:display.obj
 0001:000546e0       ??$cast@VMessage@Messaging@@@?$Ptr@VRemoveDisplayEventHandler@Graphics@@@@QBEABV?$Ptr@VMessage@Messaging@@@@XZ 004556e0 f i render_win32.release:display.obj
 0001:000546f0       ??0?$Ptr@VAttachRenderEventHandler@Graphics@@@@QAE@PAVAttachRenderEventHandler@Graphics@@@Z 004556f0 f i render_win32.release:display.obj
 0001:00054730       ??1?$Ptr@VAttachRenderEventHandler@Graphics@@@@QAE@XZ 00455730 f i render_win32.release:display.obj
 0001:00054760       ??C?$Ptr@VAttachRenderEventHandler@Graphics@@@@QBEPAVAttachRenderEventHandler@Graphics@@XZ 00455760 f i render_win32.release:display.obj
 0001:000547a0       ??$cast@VMessage@Messaging@@@?$Ptr@VAttachRenderEventHandler@Graphics@@@@QBEABV?$Ptr@VMessage@Messaging@@@@XZ 004557a0 f i render_win32.release:display.obj
 0001:000547b0       ??0?$Ptr@VRemoveRenderEventHandler@Graphics@@@@QAE@PAVRemoveRenderEventHandler@Graphics@@@Z 004557b0 f i render_win32.release:display.obj
 0001:000547f0       ??1?$Ptr@VRemoveRenderEventHandler@Graphics@@@@QAE@XZ 004557f0 f i render_win32.release:display.obj
 0001:00054820       ??C?$Ptr@VRemoveRenderEventHandler@Graphics@@@@QBEPAVRemoveRenderEventHandler@Graphics@@XZ 00455820 f i render_win32.release:display.obj
 0001:00054860       ??$cast@VMessage@Messaging@@@?$Ptr@VRemoveRenderEventHandler@Graphics@@@@QBEABV?$Ptr@VMessage@Messaging@@@@XZ 00455860 f i render_win32.release:display.obj
 0001:00054870       ?Copy@?$Array@VDisplayMode@CoreGraphics@@@Util@@AAEXABV12@@Z 00455870 f i render_win32.release:display.obj
 0001:000549e0       ?FromString@Adapter@CoreGraphics@@SA?AW4Code@12@ABVString@Util@@@Z 004559e0 f   render_win32.release:adapter.obj
 0001:00054a80       ?ToString@Adapter@CoreGraphics@@SA?AVString@Util@@W4Code@12@@Z 00455a80 f   render_win32.release:adapter.obj
 0001:00054b90       ?FromString@AntiAliasQuality@CoreGraphics@@SA?AW4Code@12@ABVString@Util@@@Z 00455b90 f   render_win32.release:antialiasquality.obj
 0001:00054c50       ?ToString@AntiAliasQuality@CoreGraphics@@SA?AVString@Util@@W4Code@12@@Z 00455c50 f   render_win32.release:antialiasquality.obj
 0001:00054db0       ?GetName@Rtti@Core@@QBEABVString@Util@@XZ 00455db0 f i render_win32.release:simpleresourcemapper.obj
 0001:00054dc0       ?IsInstanceOf@RefCounted@Core@@QBE_NABVRtti@2@@Z 00455dc0 f i render_win32.release:simpleresourcemapper.obj
 0001:00054df0       ?SetAsyncEnabled@Resource@Resources@@QAEX_N@Z 00455df0 f i render_win32.release:simpleresourcemapper.obj
 0001:00054e10       ?GetUseCount@Resource@Resources@@QBEHXZ 00455e10 f i render_win32.release:simpleresourcemapper.obj
 0001:00054e30       ?SetResourceId@Resource@Resources@@QAEXABVStringAtom@Util@@@Z 00455e30 f i render_win32.release:simpleresourcemapper.obj
 0001:00054e50       ?GetResourceId@Resource@Resources@@QBEABVStringAtom@Util@@XZ 00455e50 f i render_win32.release:simpleresourcemapper.obj
 0001:00054e70       ?LoadFailed@Resource@Resources@@QBE_NXZ 00455e70 f i render_win32.release:simpleresourcemapper.obj
 0001:00054e90       ?SetResourceId@ManagedResource@Resources@@QAEXABVStringAtom@Util@@@Z 00455e90 f i render_win32.release:simpleresourcemapper.obj
 0001:00054eb0       ?GetResourceId@ManagedResource@Resources@@QBEABVStringAtom@Util@@XZ 00455eb0 f i render_win32.release:simpleresourcemapper.obj
 0001:00054ed0       ?SetResourceType@ManagedResource@Resources@@QAEXPBVRtti@Core@@@Z 00455ed0 f i render_win32.release:simpleresourcemapper.obj
 0001:00054f10       ?GetResourceType@ManagedResource@Resources@@QBEPBVRtti@Core@@XZ 00455f10 f i render_win32.release:simpleresourcemapper.obj
 0001:00054f50       ?IncrClientCount@ManagedResource@Resources@@QAEXXZ 00455f50 f i render_win32.release:simpleresourcemapper.obj
 0001:00054f70       ?DecrClientCount@ManagedResource@Resources@@QAEXXZ 00455f70 f i render_win32.release:simpleresourcemapper.obj
 0001:00054fb0       ?GetClientCount@ManagedResource@Resources@@QBEHXZ 00455fb0 f i render_win32.release:simpleresourcemapper.obj
 0001:00054fd0       ?SetResource@ManagedResource@Resources@@QAEXABV?$Ptr@VResource@Resources@@@@@Z 00455fd0 f i render_win32.release:simpleresourcemapper.obj
 0001:00054ff0       ?SetPlaceholder@ManagedResource@Resources@@QAEXABV?$Ptr@VResource@Resources@@@@@Z 00455ff0 f i render_win32.release:simpleresourcemapper.obj
 0001:00055010       ?GetResource@ManagedResource@Resources@@QBEABV?$Ptr@VResource@Resources@@@@XZ 00456010 f i render_win32.release:simpleresourcemapper.obj
 0001:00055030       ?Clear@ManagedResource@Resources@@QAEXXZ 00456030 f i render_win32.release:simpleresourcemapper.obj
 0001:00055060       ??2SimpleResourceMapper@Resources@@SAPAXI@Z 00456060 f i render_win32.release:simpleresourcemapper.obj
 0001:00055070       ??3SimpleResourceMapper@Resources@@SAXPAX@Z 00456070 f i render_win32.release:simpleresourcemapper.obj
 0001:00055090       ?GetRtti@SimpleResourceMapper@Resources@@UBEPAVRtti@Core@@XZ 00456090 f   render_win32.release:simpleresourcemapper.obj
 0001:000550a0       ?FactoryCreator@SimpleResourceMapper@Resources@@SAPAVRefCounted@Core@@XZ 004560a0 f   render_win32.release:simpleresourcemapper.obj
 0001:000550b0       ?Create@SimpleResourceMapper@Resources@@SAPAV12@XZ 004560b0 f   render_win32.release:simpleresourcemapper.obj
 0001:000550f0       ?RegisterWithFactory@SimpleResourceMapper@Resources@@SA_NXZ 004560f0 f   render_win32.release:simpleresourcemapper.obj
 0001:000551f0       ??0SimpleResourceMapper@Resources@@QAE@XZ 004561f0 f   render_win32.release:simpleresourcemapper.obj
 0001:00055250       ??_GSimpleResourceMapper@Resources@@UAEPAXI@Z 00456250 f i render_win32.release:simpleresourcemapper.obj
 0001:00055250       ??_ESimpleResourceMapper@Resources@@UAEPAXI@Z 00456250 f i  CIL library: CIL module
 0001:00055280       ??1?$Dictionary@VStringAtom@Util@@V?$Ptr@VManagedResource@Resources@@@@@Util@@QAE@XZ 00456280 f i render_win32.release:simpleresourcemapper.obj
 0001:000552a0       ??1?$Dictionary@VStringAtom@Util@@V?$Ptr@VResource@Resources@@@@@Util@@QAE@XZ 004562a0 f i render_win32.release:simpleresourcemapper.obj
 0001:000552c0       ??1SimpleResourceMapper@Resources@@UAE@XZ 004562c0 f   render_win32.release:simpleresourcemapper.obj
 0001:00055330       ?GetResourceType@SimpleResourceMapper@Resources@@UBEABVRtti@Core@@XZ 00456330 f   render_win32.release:simpleresourcemapper.obj
 0001:00055370       ?OnAttachToResourceManager@SimpleResourceMapper@Resources@@UAEXXZ 00456370 f   render_win32.release:simpleresourcemapper.obj
 0001:00055570       ?OnRemoveFromResourceManager@SimpleResourceMapper@Resources@@UAEXXZ 00456570 f   render_win32.release:simpleresourcemapper.obj
 0001:00055670       ?OnCreateManagedResource@SimpleResourceMapper@Resources@@UAE?AV?$Ptr@VManagedResource@Resources@@@@ABVRtti@Core@@ABVStringAtom@Util@@ABV?$Ptr@VResourceLoader@Resources@@@@@Z 00456670 f   render_win32.release:simpleresourcemapper.obj
 0001:000559c0       ?OnDiscardManagedResource@SimpleResourceMapper@Resources@@UAEXABV?$Ptr@VManagedResource@Resources@@@@@Z 004569c0 f   render_win32.release:simpleresourcemapper.obj
 0001:00055c90       ?OnPrepare@SimpleResourceMapper@Resources@@UAEX_N@Z 00456c90 f   render_win32.release:simpleresourcemapper.obj
 0001:00055f40       ?OnUpdate@SimpleResourceMapper@Resources@@UAEXH@Z 00456f40 f   render_win32.release:simpleresourcemapper.obj
 0001:00055f50       ?GetNumPendingResources@SimpleResourceMapper@Resources@@UBEHXZ 00456f50 f   render_win32.release:simpleresourcemapper.obj
 0001:00055f70       ??0?$Ptr@VResourceSaver@Resources@@@@QAE@PAVResourceSaver@Resources@@@Z 00456f70 f i render_win32.release:simpleresourcemapper.obj
 0001:00055fb0       ??1?$Array@V?$KeyValuePair@VStringAtom@Util@@V?$Ptr@VManagedResource@Resources@@@@@Util@@@Util@@QAE@XZ 00456fb0 f i render_win32.release:simpleresourcemapper.obj
 0001:00055fd0       ??0?$Dictionary@VStringAtom@Util@@V?$Ptr@VManagedResource@Resources@@@@@Util@@QAE@XZ 00456fd0 f i render_win32.release:simpleresourcemapper.obj
 0001:00055ff0       ??A?$Dictionary@VStringAtom@Util@@V?$Ptr@VManagedResource@Resources@@@@@Util@@QAEAAV?$Ptr@VManagedResource@Resources@@@@ABVStringAtom@1@@Z 00456ff0 f i render_win32.release:simpleresourcemapper.obj
 0001:00056040       ?Size@?$Dictionary@VStringAtom@Util@@V?$Ptr@VManagedResource@Resources@@@@@Util@@QBEHXZ 00457040 f i render_win32.release:simpleresourcemapper.obj
 0001:00056060       ?IsEmpty@?$Dictionary@VStringAtom@Util@@V?$Ptr@VManagedResource@Resources@@@@@Util@@QBE_NXZ 00457060 f i render_win32.release:simpleresourcemapper.obj
 0001:00056080       ?Add@?$Dictionary@VStringAtom@Util@@V?$Ptr@VManagedResource@Resources@@@@@Util@@QAEXABVStringAtom@2@ABV?$Ptr@VManagedResource@Resources@@@@@Z 00457080 f i render_win32.release:simpleresourcemapper.obj
 0001:000560d0       ?Erase@?$Dictionary@VStringAtom@Util@@V?$Ptr@VManagedResource@Resources@@@@@Util@@QAEXABVStringAtom@2@@Z 004570d0 f i render_win32.release:simpleresourcemapper.obj
 0001:00056150       ?Contains@?$Dictionary@VStringAtom@Util@@V?$Ptr@VManagedResource@Resources@@@@@Util@@QBE_NABVStringAtom@2@@Z 00457150 f i render_win32.release:simpleresourcemapper.obj
 0001:000561b0       ?ValueAtIndex@?$Dictionary@VStringAtom@Util@@V?$Ptr@VManagedResource@Resources@@@@@Util@@QAEAAV?$Ptr@VManagedResource@Resources@@@@H@Z 004571b0 f i render_win32.release:simpleresourcemapper.obj
 0001:00056200       ??1?$Array@V?$KeyValuePair@VStringAtom@Util@@V?$Ptr@VResource@Resources@@@@@Util@@@Util@@QAE@XZ 00457200 f i render_win32.release:simpleresourcemapper.obj
 0001:00056220       ??0?$Dictionary@VStringAtom@Util@@V?$Ptr@VResource@Resources@@@@@Util@@QAE@XZ 00457220 f i render_win32.release:simpleresourcemapper.obj
 0001:00056240       ?Size@?$Dictionary@VStringAtom@Util@@V?$Ptr@VResource@Resources@@@@@Util@@QBEHXZ 00457240 f i render_win32.release:simpleresourcemapper.obj
 0001:00056260       ?IsEmpty@?$Dictionary@VStringAtom@Util@@V?$Ptr@VResource@Resources@@@@@Util@@QBE_NXZ 00457260 f i render_win32.release:simpleresourcemapper.obj
 0001:00056280       ?Add@?$Dictionary@VStringAtom@Util@@V?$Ptr@VResource@Resources@@@@@Util@@QAEXABVStringAtom@2@ABV?$Ptr@VResource@Resources@@@@@Z 00457280 f i render_win32.release:simpleresourcemapper.obj
 0001:000562d0       ?Erase@?$Dictionary@VStringAtom@Util@@V?$Ptr@VResource@Resources@@@@@Util@@QAEXABVStringAtom@2@@Z 004572d0 f i render_win32.release:simpleresourcemapper.obj
 0001:00056350       ?EraseAtIndex@?$Dictionary@VStringAtom@Util@@V?$Ptr@VResource@Resources@@@@@Util@@QAEXH@Z 00457350 f i render_win32.release:simpleresourcemapper.obj
 0001:00056390       ?Contains@?$Dictionary@VStringAtom@Util@@V?$Ptr@VResource@Resources@@@@@Util@@QBE_NABVStringAtom@2@@Z 00457390 f i render_win32.release:simpleresourcemapper.obj
 0001:000563f0       ?ValueAtIndex@?$Dictionary@VStringAtom@Util@@V?$Ptr@VResource@Resources@@@@@Util@@QAEAAV?$Ptr@VResource@Resources@@@@H@Z 004573f0 f i render_win32.release:simpleresourcemapper.obj
 0001:00056440       ??0?$Ptr@VManagedResource@Resources@@@@QAE@ABV0@@Z 00457440 f i render_win32.release:simpleresourcemapper.obj
 0001:00056480       ??0?$Ptr@VManagedResource@Resources@@@@QAE@PAVManagedResource@Resources@@@Z 00457480 f i render_win32.release:simpleresourcemapper.obj
 0001:000564c0       ??C?$Ptr@VManagedResource@Resources@@@@QBEPAVManagedResource@Resources@@XZ 004574c0 f i render_win32.release:simpleresourcemapper.obj
 0001:00056500       ??0?$Ptr@VResourceManager@Resources@@@@QAE@PAVResourceManager@Resources@@@Z 00457500 f i render_win32.release:simpleresourcemapper.obj
 0001:00056540       ??1?$Ptr@VResourceManager@Resources@@@@QAE@XZ 00457540 f i render_win32.release:simpleresourcemapper.obj
 0001:00056570       ??1?$KeyValuePair@VStringAtom@Util@@V?$Ptr@VManagedResource@Resources@@@@@Util@@QAE@XZ 00457570 f i render_win32.release:simpleresourcemapper.obj
 0001:00056590       ??1?$KeyValuePair@VStringAtom@Util@@V?$Ptr@VResource@Resources@@@@@Util@@QAE@XZ 00457590 f i render_win32.release:simpleresourcemapper.obj
 0001:000565b0       ??0?$Array@V?$KeyValuePair@VStringAtom@Util@@V?$Ptr@VManagedResource@Resources@@@@@Util@@@Util@@QAE@XZ 004575b0 f i render_win32.release:simpleresourcemapper.obj
 0001:000565f0       ??A?$Array@V?$KeyValuePair@VStringAtom@Util@@V?$Ptr@VManagedResource@Resources@@@@@Util@@@Util@@QBEAAV?$KeyValuePair@VStringAtom@Util@@V?$Ptr@VManagedResource@Resources@@@@@1@H@Z 004575f0 f i render_win32.release:simpleresourcemapper.obj
 0001:00056640       ?Append@?$Array@V?$KeyValuePair@VStringAtom@Util@@V?$Ptr@VManagedResource@Resources@@@@@Util@@@Util@@QAEXABV?$KeyValuePair@VStringAtom@Util@@V?$Ptr@VManagedResource@Resources@@@@@2@@Z 00457640 f i render_win32.release:simpleresourcemapper.obj
 0001:000566c0       ?Size@?$Array@V?$KeyValuePair@VStringAtom@Util@@V?$Ptr@VManagedResource@Resources@@@@@Util@@@Util@@QBEHXZ 004576c0 f i render_win32.release:simpleresourcemapper.obj
 0001:000566e0       ?EraseIndex@?$Array@V?$KeyValuePair@VStringAtom@Util@@V?$Ptr@VManagedResource@Resources@@@@@Util@@@Util@@QAEXH@Z 004576e0 f i render_win32.release:simpleresourcemapper.obj
 0001:00056760       ?InsertSorted@?$Array@V?$KeyValuePair@VStringAtom@Util@@V?$Ptr@VManagedResource@Resources@@@@@Util@@@Util@@QAEHABV?$KeyValuePair@VStringAtom@Util@@V?$Ptr@VManagedResource@Resources@@@@@2@@Z 00457760 f i render_win32.release:simpleresourcemapper.obj
 0001:000569d0       ?BinarySearchIndex@?$Array@V?$KeyValuePair@VStringAtom@Util@@V?$Ptr@VManagedResource@Resources@@@@@Util@@@Util@@QBEHABV?$KeyValuePair@VStringAtom@Util@@V?$Ptr@VManagedResource@Resources@@@@@2@@Z 004579d0 f i render_win32.release:simpleresourcemapper.obj
 0001:00056b00       ?Delete@?$Array@V?$KeyValuePair@VStringAtom@Util@@V?$Ptr@VManagedResource@Resources@@@@@Util@@@Util@@AAEXXZ 00457b00 f i render_win32.release:simpleresourcemapper.obj
 0001:00056b70       ?FindIndex@?$Dictionary@VStringAtom@Util@@V?$Ptr@VManagedResource@Resources@@@@@Util@@QBEHABVStringAtom@2@@Z 00457b70 f i render_win32.release:simpleresourcemapper.obj
 0001:00056bd0       ??0?$KeyValuePair@VStringAtom@Util@@V?$Ptr@VManagedResource@Resources@@@@@Util@@QAE@ABVStringAtom@1@@Z 00457bd0 f i render_win32.release:simpleresourcemapper.obj
 0001:00056c00       ??0?$KeyValuePair@VStringAtom@Util@@V?$Ptr@VManagedResource@Resources@@@@@Util@@QAE@ABVStringAtom@1@ABV?$Ptr@VManagedResource@Resources@@@@@Z 00457c00 f i render_win32.release:simpleresourcemapper.obj
 0001:00056c30       ?Value@?$KeyValuePair@VStringAtom@Util@@V?$Ptr@VManagedResource@Resources@@@@@Util@@QAEAAV?$Ptr@VManagedResource@Resources@@@@XZ 00457c30 f i render_win32.release:simpleresourcemapper.obj
 0001:00056c50       ??0?$Array@V?$KeyValuePair@VStringAtom@Util@@V?$Ptr@VResource@Resources@@@@@Util@@@Util@@QAE@XZ 00457c50 f i render_win32.release:simpleresourcemapper.obj
 0001:00056c90       ??A?$Array@V?$KeyValuePair@VStringAtom@Util@@V?$Ptr@VResource@Resources@@@@@Util@@@Util@@QBEAAV?$KeyValuePair@VStringAtom@Util@@V?$Ptr@VResource@Resources@@@@@1@H@Z 00457c90 f i render_win32.release:simpleresourcemapper.obj
 0001:00056ce0       ?Append@?$Array@V?$KeyValuePair@VStringAtom@Util@@V?$Ptr@VResource@Resources@@@@@Util@@@Util@@QAEXABV?$KeyValuePair@VStringAtom@Util@@V?$Ptr@VResource@Resources@@@@@2@@Z 00457ce0 f i render_win32.release:simpleresourcemapper.obj
 0001:00056d60       ?Size@?$Array@V?$KeyValuePair@VStringAtom@Util@@V?$Ptr@VResource@Resources@@@@@Util@@@Util@@QBEHXZ 00457d60 f i render_win32.release:simpleresourcemapper.obj
 0001:00056d80       ?EraseIndex@?$Array@V?$KeyValuePair@VStringAtom@Util@@V?$Ptr@VResource@Resources@@@@@Util@@@Util@@QAEXH@Z 00457d80 f i render_win32.release:simpleresourcemapper.obj
 0001:00056e00       ?InsertSorted@?$Array@V?$KeyValuePair@VStringAtom@Util@@V?$Ptr@VResource@Resources@@@@@Util@@@Util@@QAEHABV?$KeyValuePair@VStringAtom@Util@@V?$Ptr@VResource@Resources@@@@@2@@Z 00457e00 f i render_win32.release:simpleresourcemapper.obj
 0001:00057070       ?BinarySearchIndex@?$Array@V?$KeyValuePair@VStringAtom@Util@@V?$Ptr@VResource@Resources@@@@@Util@@@Util@@QBEHABV?$KeyValuePair@VStringAtom@Util@@V?$Ptr@VResource@Resources@@@@@2@@Z 00458070 f i render_win32.release:simpleresourcemapper.obj
 0001:000571a0       ?Delete@?$Array@V?$KeyValuePair@VStringAtom@Util@@V?$Ptr@VResource@Resources@@@@@Util@@@Util@@AAEXXZ 004581a0 f i render_win32.release:simpleresourcemapper.obj
 0001:00057210       ??0?$KeyValuePair@VStringAtom@Util@@V?$Ptr@VResource@Resources@@@@@Util@@QAE@ABVStringAtom@1@@Z 00458210 f i render_win32.release:simpleresourcemapper.obj
 0001:00057240       ??0?$KeyValuePair@VStringAtom@Util@@V?$Ptr@VResource@Resources@@@@@Util@@QAE@ABVStringAtom@1@ABV?$Ptr@VResource@Resources@@@@@Z 00458240 f i render_win32.release:simpleresourcemapper.obj
 0001:00057270       ?Value@?$KeyValuePair@VStringAtom@Util@@V?$Ptr@VResource@Resources@@@@@Util@@QAEAAV?$Ptr@VResource@Resources@@@@XZ 00458270 f i render_win32.release:simpleresourcemapper.obj
 0001:00057290       ??_E?$KeyValuePair@VStringAtom@Util@@V?$Ptr@VManagedResource@Resources@@@@@Util@@QAEPAXI@Z 00458290 f i render_win32.release:simpleresourcemapper.obj
 0001:00057330       ??_E?$KeyValuePair@VStringAtom@Util@@V?$Ptr@VResource@Resources@@@@@Util@@QAEPAXI@Z 00458330 f i render_win32.release:simpleresourcemapper.obj
 0001:000573d0       ?Insert@?$Array@V?$KeyValuePair@VStringAtom@Util@@V?$Ptr@VManagedResource@Resources@@@@@Util@@@Util@@QAEXHABV?$KeyValuePair@VStringAtom@Util@@V?$Ptr@VManagedResource@Resources@@@@@2@@Z 004583d0 f i render_win32.release:simpleresourcemapper.obj
 0001:00057440       ?InsertAtEndOfIdenticalRange@?$Array@V?$KeyValuePair@VStringAtom@Util@@V?$Ptr@VManagedResource@Resources@@@@@Util@@@Util@@QAEHHABV?$KeyValuePair@VStringAtom@Util@@V?$Ptr@VManagedResource@Resources@@@@@2@@Z 00458440 f i render_win32.release:simpleresourcemapper.obj
 0001:000574c0       ?Destroy@?$Array@V?$KeyValuePair@VStringAtom@Util@@V?$Ptr@VManagedResource@Resources@@@@@Util@@@Util@@AAEXPAV?$KeyValuePair@VStringAtom@Util@@V?$Ptr@VManagedResource@Resources@@@@@2@@Z 004584c0 f i render_win32.release:simpleresourcemapper.obj
 0001:000574f0       ?Grow@?$Array@V?$KeyValuePair@VStringAtom@Util@@V?$Ptr@VManagedResource@Resources@@@@@Util@@@Util@@AAEXXZ 004584f0 f i render_win32.release:simpleresourcemapper.obj
 0001:00057570       ?Move@?$Array@V?$KeyValuePair@VStringAtom@Util@@V?$Ptr@VManagedResource@Resources@@@@@Util@@@Util@@AAEXHH@Z 00458570 f i render_win32.release:simpleresourcemapper.obj
 0001:00057700       ??4?$KeyValuePair@VStringAtom@Util@@V?$Ptr@VManagedResource@Resources@@@@@Util@@QAEXABV01@@Z 00458700 f i render_win32.release:simpleresourcemapper.obj
 0001:00057730       ??9?$KeyValuePair@VStringAtom@Util@@V?$Ptr@VManagedResource@Resources@@@@@Util@@QBE_NABV01@@Z 00458730 f i render_win32.release:simpleresourcemapper.obj
 0001:00057750       ??O?$KeyValuePair@VStringAtom@Util@@V?$Ptr@VManagedResource@Resources@@@@@Util@@QBE_NABV01@@Z 00458750 f i render_win32.release:simpleresourcemapper.obj
 0001:00057770       ??M?$KeyValuePair@VStringAtom@Util@@V?$Ptr@VManagedResource@Resources@@@@@Util@@QBE_NABV01@@Z 00458770 f i render_win32.release:simpleresourcemapper.obj
 0001:00057790       ??0?$Ptr@VManagedResource@Resources@@@@QAE@XZ 00458790 f i render_win32.release:simpleresourcemapper.obj
 0001:000577b0       ?Insert@?$Array@V?$KeyValuePair@VStringAtom@Util@@V?$Ptr@VResource@Resources@@@@@Util@@@Util@@QAEXHABV?$KeyValuePair@VStringAtom@Util@@V?$Ptr@VResource@Resources@@@@@2@@Z 004587b0 f i render_win32.release:simpleresourcemapper.obj
 0001:00057820       ?InsertAtEndOfIdenticalRange@?$Array@V?$KeyValuePair@VStringAtom@Util@@V?$Ptr@VResource@Resources@@@@@Util@@@Util@@QAEHHABV?$KeyValuePair@VStringAtom@Util@@V?$Ptr@VResource@Resources@@@@@2@@Z 00458820 f i render_win32.release:simpleresourcemapper.obj
 0001:000578a0       ?Destroy@?$Array@V?$KeyValuePair@VStringAtom@Util@@V?$Ptr@VResource@Resources@@@@@Util@@@Util@@AAEXPAV?$KeyValuePair@VStringAtom@Util@@V?$Ptr@VResource@Resources@@@@@2@@Z 004588a0 f i render_win32.release:simpleresourcemapper.obj
 0001:000578d0       ?Grow@?$Array@V?$KeyValuePair@VStringAtom@Util@@V?$Ptr@VResource@Resources@@@@@Util@@@Util@@AAEXXZ 004588d0 f i render_win32.release:simpleresourcemapper.obj
 0001:00057950       ?Move@?$Array@V?$KeyValuePair@VStringAtom@Util@@V?$Ptr@VResource@Resources@@@@@Util@@@Util@@AAEXHH@Z 00458950 f i render_win32.release:simpleresourcemapper.obj
 0001:00057ae0       ??4?$KeyValuePair@VStringAtom@Util@@V?$Ptr@VResource@Resources@@@@@Util@@QAEXABV01@@Z 00458ae0 f i render_win32.release:simpleresourcemapper.obj
 0001:00057b10       ??9?$KeyValuePair@VStringAtom@Util@@V?$Ptr@VResource@Resources@@@@@Util@@QBE_NABV01@@Z 00458b10 f i render_win32.release:simpleresourcemapper.obj
 0001:00057b30       ??O?$KeyValuePair@VStringAtom@Util@@V?$Ptr@VResource@Resources@@@@@Util@@QBE_NABV01@@Z 00458b30 f i render_win32.release:simpleresourcemapper.obj
 0001:00057b50       ??M?$KeyValuePair@VStringAtom@Util@@V?$Ptr@VResource@Resources@@@@@Util@@QBE_NABV01@@Z 00458b50 f i render_win32.release:simpleresourcemapper.obj
 0001:00057b70       ??0?$Ptr@VResource@Resources@@@@QAE@ABV0@@Z 00458b70 f i render_win32.release:simpleresourcemapper.obj
 0001:00057bb0       ??_G?$KeyValuePair@VStringAtom@Util@@V?$Ptr@VManagedResource@Resources@@@@@Util@@QAEPAXI@Z 00458bb0 f i render_win32.release:simpleresourcemapper.obj
 0001:00057bf0       ??_G?$KeyValuePair@VStringAtom@Util@@V?$Ptr@VResource@Resources@@@@@Util@@QAEPAXI@Z 00458bf0 f i render_win32.release:simpleresourcemapper.obj
 0001:00057c30       ?GrowTo@?$Array@V?$KeyValuePair@VStringAtom@Util@@V?$Ptr@VManagedResource@Resources@@@@@Util@@@Util@@AAEXH@Z 00458c30 f i render_win32.release:simpleresourcemapper.obj
 0001:00057d50       ??4?$Ptr@VManagedResource@Resources@@@@QAEXABV0@@Z 00458d50 f i render_win32.release:simpleresourcemapper.obj
 0001:00057db0       ?GrowTo@?$Array@V?$KeyValuePair@VStringAtom@Util@@V?$Ptr@VResource@Resources@@@@@Util@@@Util@@AAEXH@Z 00458db0 f i render_win32.release:simpleresourcemapper.obj
 0001:00057ed0       ??0?$KeyValuePair@VStringAtom@Util@@V?$Ptr@VManagedResource@Resources@@@@@Util@@QAE@XZ 00458ed0 f i render_win32.release:simpleresourcemapper.obj
 0001:00057f00       ??0?$KeyValuePair@VStringAtom@Util@@V?$Ptr@VResource@Resources@@@@@Util@@QAE@XZ 00458f00 f i render_win32.release:simpleresourcemapper.obj
 0001:00057f30       ??0InputEvent@Input@@QAE@XZ 00458f30 f i render_win32.release:inputserverbase.obj
 0001:00057f70       ?SetType@InputEvent@Input@@QAEXW4Type@12@@Z 00458f70 f i render_win32.release:inputserverbase.obj
 0001:00057f90       ?GetType@InputEvent@Input@@QBE?AW4Type@12@XZ 00458f90 f i render_win32.release:inputserverbase.obj
 0001:00057fa0       ??2InputServerBase@Base@@SAPAXI@Z 00458fa0 f i render_win32.release:inputserverbase.obj
 0001:00057fb0       ??3InputServerBase@Base@@SAXPAX@Z 00458fb0 f i render_win32.release:inputserverbase.obj
 0001:00057fd0       ?IsOpen@InputServerBase@Base@@QBE_NXZ 00458fd0 f i render_win32.release:inputserverbase.obj
 0001:00057ff0       ?GetMaxNumPlayers@GamePadBase@Base@@SAHXZ 00458ff0 f i render_win32.release:inputserverbase.obj
 0001:00058000       ?GetRtti@InputServerBase@Base@@UBEPAVRtti@Core@@XZ 00459000 f   render_win32.release:inputserverbase.obj
 0001:00058010       ?FactoryCreator@InputServerBase@Base@@SAPAVRefCounted@Core@@XZ 00459010 f   render_win32.release:inputserverbase.obj
 0001:00058020       ?Create@InputServerBase@Base@@SAPAV12@XZ 00459020 f   render_win32.release:inputserverbase.obj
 0001:00058060       ?RegisterWithFactory@InputServerBase@Base@@SA_NXZ 00459060 f   render_win32.release:inputserverbase.obj
 0001:00058160       ??0InputServerBase@Base@@QAE@XZ 00459160 f   render_win32.release:inputserverbase.obj
 0001:00058220       ??_EInputServerBase@Base@@UAEPAXI@Z 00459220 f i  CIL library: CIL module
 0001:00058220       ??_GInputServerBase@Base@@UAEPAXI@Z 00459220 f i render_win32.release:inputserverbase.obj
 0001:00058250       ??1InputServerBase@Base@@UAE@XZ 00459250 f   render_win32.release:inputserverbase.obj
 0001:000582e0       ?SetMaxNumLocalPlayers@InputServerBase@Base@@QAEXH@Z 004592e0 f   render_win32.release:inputserverbase.obj
 0001:00058330       ?Open@InputServerBase@Base@@UAEXXZ 00459330 f   render_win32.release:inputserverbase.obj
 0001:00058380       ?Close@InputServerBase@Base@@UAEXXZ 00459380 f   render_win32.release:inputserverbase.obj
 0001:00058470       ?Reset@InputServerBase@Base@@QAEXXZ 00459470 f   render_win32.release:inputserverbase.obj
 0001:00058500       ?AttachInputHandler@InputServerBase@Base@@QAEXW4Code@InputPriority@Input@@ABV?$Ptr@VInputHandler@Input@@@@@Z 00459500 f   render_win32.release:inputserverbase.obj
 0001:000585d0       ??1?$KeyValuePair@W4Code@InputPriority@Input@@V?$Ptr@VInputHandler@Input@@@@@Util@@QAE@XZ 004595d0 f i render_win32.release:inputserverbase.obj
 0001:000585f0       ?RemoveInputHandler@InputServerBase@Base@@QAEXABV?$Ptr@VInputHandler@Input@@@@@Z 004595f0 f   render_win32.release:inputserverbase.obj
 0001:00058710       ?BeginFrame@InputServerBase@Base@@UAEXXZ 00459710 f   render_win32.release:inputserverbase.obj
 0001:000587c0       ?OnFrame@InputServerBase@Base@@UAEXXZ 004597c0 f   render_win32.release:inputserverbase.obj
 0001:000587d0       ?EndFrame@InputServerBase@Base@@QAEXXZ 004597d0 f   render_win32.release:inputserverbase.obj
 0001:00058880       ?PutEvent@InputServerBase@Base@@QAEXABVInputEvent@Input@@@Z 00459880 f   render_win32.release:inputserverbase.obj
 0001:00058a50       ?ObtainMouseCapture@InputServerBase@Base@@QAEXABV?$Ptr@VInputHandler@Input@@@@@Z 00459a50 f   render_win32.release:inputserverbase.obj
 0001:00058ad0       ?ReleaseMouseCapture@InputServerBase@Base@@QAEXABV?$Ptr@VInputHandler@Input@@@@@Z 00459ad0 f   render_win32.release:inputserverbase.obj
 0001:00058b30       ?GetMouseCaptureHandler@InputServerBase@Base@@QBEABV?$Ptr@VInputHandler@Input@@@@XZ 00459b30 f   render_win32.release:inputserverbase.obj
 0001:00058b50       ?ClearMouseCapture@InputServerBase@Base@@QAEXXZ 00459b50 f   render_win32.release:inputserverbase.obj
 0001:00058ba0       ?ClearKeyboardCapture@InputServerBase@Base@@QAEXXZ 00459ba0 f   render_win32.release:inputserverbase.obj
 0001:00058bf0       ?ClearCapture@InputServerBase@Base@@QAEXXZ 00459bf0 f   render_win32.release:inputserverbase.obj
 0001:00058c10       ?ObtainKeyboardCapture@InputServerBase@Base@@QAEXABV?$Ptr@VInputHandler@Input@@@@@Z 00459c10 f   render_win32.release:inputserverbase.obj
 0001:00058c90       ?ReleaseKeyboardCapture@InputServerBase@Base@@QAEXABV?$Ptr@VInputHandler@Input@@@@@Z 00459c90 f   render_win32.release:inputserverbase.obj
 0001:00058cf0       ?GetKeyboardCaptureHandler@InputServerBase@Base@@QBEABV?$Ptr@VInputHandler@Input@@@@XZ 00459cf0 f   render_win32.release:inputserverbase.obj
 0001:00058d10       ?GetDefaultGamePad@InputServerBase@Base@@QBE?AV?$Ptr@VGamePad@Input@@@@H@Z 00459d10 f   render_win32.release:inputserverbase.obj
 0001:00058db0       ??0?$Array@V?$KeyValuePair@W4Code@InputPriority@Input@@V?$Ptr@VInputHandler@Input@@@@@Util@@@Util@@QAE@XZ 00459db0 f i render_win32.release:inputserverbase.obj
 0001:00058df0       ??1?$Array@V?$KeyValuePair@W4Code@InputPriority@Input@@V?$Ptr@VInputHandler@Input@@@@@Util@@@Util@@QAE@XZ 00459df0 f i render_win32.release:inputserverbase.obj
 0001:00058e10       ??A?$Array@V?$KeyValuePair@W4Code@InputPriority@Input@@V?$Ptr@VInputHandler@Input@@@@@Util@@@Util@@QBEAAV?$KeyValuePair@W4Code@InputPriority@Input@@V?$Ptr@VInputHandler@Input@@@@@1@H@Z 00459e10 f i render_win32.release:inputserverbase.obj
 0001:00058e60       ?Size@?$Array@V?$KeyValuePair@W4Code@InputPriority@Input@@V?$Ptr@VInputHandler@Input@@@@@Util@@@Util@@QBEHXZ 00459e60 f i render_win32.release:inputserverbase.obj
 0001:00058e80       ?EraseIndex@?$Array@V?$KeyValuePair@W4Code@InputPriority@Input@@V?$Ptr@VInputHandler@Input@@@@@Util@@@Util@@QAEXH@Z 00459e80 f i render_win32.release:inputserverbase.obj
 0001:00058f00       ?InsertSorted@?$Array@V?$KeyValuePair@W4Code@InputPriority@Input@@V?$Ptr@VInputHandler@Input@@@@@Util@@@Util@@QAEHABV?$KeyValuePair@W4Code@InputPriority@Input@@V?$Ptr@VInputHandler@Input@@@@@2@@Z 00459f00 f i render_win32.release:inputserverbase.obj
 0001:00059170       ?Clear@?$Array@V?$KeyValuePair@W4Code@InputPriority@Input@@V?$Ptr@VInputHandler@Input@@@@@Util@@@Util@@QAEXXZ 0045a170 f i render_win32.release:inputserverbase.obj
 0001:000591c0       ??0?$Ptr@VInputHandler@Input@@@@QAE@XZ 0045a1c0 f i render_win32.release:inputserverbase.obj
 0001:000591e0       ??1?$Ptr@VInputHandler@Input@@@@QAE@XZ 0045a1e0 f i render_win32.release:inputserverbase.obj
 0001:00059210       ??4?$Ptr@VInputHandler@Input@@@@QAEXPAVInputHandler@Input@@@Z 0045a210 f i render_win32.release:inputserverbase.obj
 0001:00059270       ??4?$Ptr@VInputHandler@Input@@@@QAEXABV0@@Z 0045a270 f i render_win32.release:inputserverbase.obj
 0001:000592d0       ??8?$Ptr@VInputHandler@Input@@@@QBE_NABV0@@Z 0045a2d0 f i render_win32.release:inputserverbase.obj
 0001:000592f0       ??9?$Ptr@VInputHandler@Input@@@@QBE_NABV0@@Z 0045a2f0 f i render_win32.release:inputserverbase.obj
 0001:00059310       ??C?$Ptr@VInputHandler@Input@@@@QBEPAVInputHandler@Input@@XZ 0045a310 f i render_win32.release:inputserverbase.obj
 0001:00059350       ?isvalid@?$Ptr@VInputHandler@Input@@@@QBE_NXZ 0045a350 f i render_win32.release:inputserverbase.obj
 0001:00059370       ??0?$Ptr@VKeyboard@Input@@@@QAE@XZ 0045a370 f i render_win32.release:inputserverbase.obj
 0001:00059390       ??1?$Ptr@VKeyboard@Input@@@@QAE@XZ 0045a390 f i render_win32.release:inputserverbase.obj
 0001:000593c0       ??4?$Ptr@VKeyboard@Input@@@@QAEXPAVKeyboard@Input@@@Z 0045a3c0 f i render_win32.release:inputserverbase.obj
 0001:00059420       ??0?$Ptr@VMouse@Input@@@@QAE@XZ 0045a420 f i render_win32.release:inputserverbase.obj
 0001:00059440       ??1?$Ptr@VMouse@Input@@@@QAE@XZ 0045a440 f i render_win32.release:inputserverbase.obj
 0001:00059470       ??4?$Ptr@VMouse@Input@@@@QAEXPAVMouse@Input@@@Z 0045a470 f i render_win32.release:inputserverbase.obj
 0001:000594d0       ??0?$FixedArray@V?$Ptr@VGamePad@Input@@@@@Util@@QAE@H@Z 0045a4d0 f i render_win32.release:inputserverbase.obj
 0001:00059500       ??1?$FixedArray@V?$Ptr@VGamePad@Input@@@@@Util@@QAE@XZ 0045a500 f i render_win32.release:inputserverbase.obj
 0001:00059520       ??A?$FixedArray@V?$Ptr@VGamePad@Input@@@@@Util@@QBEAAV?$Ptr@VGamePad@Input@@@@H@Z 0045a520 f i render_win32.release:inputserverbase.obj
 0001:00059570       ?Fill@?$FixedArray@V?$Ptr@VGamePad@Input@@@@@Util@@QAEXABV?$Ptr@VGamePad@Input@@@@@Z 0045a570 f i render_win32.release:inputserverbase.obj
 0001:000595c0       ??0?$KeyValuePair@W4Code@InputPriority@Input@@V?$Ptr@VInputHandler@Input@@@@@Util@@QAE@ABW4Code@InputPriority@Input@@ABV?$Ptr@VInputHandler@Input@@@@@Z 0045a5c0 f i render_win32.release:inputserverbase.obj
 0001:000595f0       ?Value@?$KeyValuePair@W4Code@InputPriority@Input@@V?$Ptr@VInputHandler@Input@@@@@Util@@QAEAAV?$Ptr@VInputHandler@Input@@@@XZ 0045a5f0 f i render_win32.release:inputserverbase.obj
 0001:00059610       ??0?$Ptr@VGamePad@Input@@@@QAE@ABV0@@Z 0045a610 f i render_win32.release:inputserverbase.obj
 0001:00059650       ??0?$Ptr@VGamePad@Input@@@@QAE@PAVGamePad@Input@@@Z 0045a650 f i render_win32.release:inputserverbase.obj
 0001:00059690       ?Append@?$Array@V?$KeyValuePair@W4Code@InputPriority@Input@@V?$Ptr@VInputHandler@Input@@@@@Util@@@Util@@QAEXABV?$KeyValuePair@W4Code@InputPriority@Input@@V?$Ptr@VInputHandler@Input@@@@@2@@Z 0045a690 f i render_win32.release:inputserverbase.obj
 0001:00059710       ?Insert@?$Array@V?$KeyValuePair@W4Code@InputPriority@Input@@V?$Ptr@VInputHandler@Input@@@@@Util@@@Util@@QAEXHABV?$KeyValuePair@W4Code@InputPriority@Input@@V?$Ptr@VInputHandler@Input@@@@@2@@Z 0045a710 f i render_win32.release:inputserverbase.obj
 0001:00059780       ?InsertAtEndOfIdenticalRange@?$Array@V?$KeyValuePair@W4Code@InputPriority@Input@@V?$Ptr@VInputHandler@Input@@@@@Util@@@Util@@QAEHHABV?$KeyValuePair@W4Code@InputPriority@Input@@V?$Ptr@VInputHandler@Input@@@@@2@@Z 0045a780 f i render_win32.release:inputserverbase.obj
 0001:00059800       ?Destroy@?$Array@V?$KeyValuePair@W4Code@InputPriority@Input@@V?$Ptr@VInputHandler@Input@@@@@Util@@@Util@@AAEXPAV?$KeyValuePair@W4Code@InputPriority@Input@@V?$Ptr@VInputHandler@Input@@@@@2@@Z 0045a800 f i render_win32.release:inputserverbase.obj
 0001:00059830       ?Delete@?$Array@V?$KeyValuePair@W4Code@InputPriority@Input@@V?$Ptr@VInputHandler@Input@@@@@Util@@@Util@@AAEXXZ 0045a830 f i render_win32.release:inputserverbase.obj
 0001:000598a0       ?Move@?$Array@V?$KeyValuePair@W4Code@InputPriority@Input@@V?$Ptr@VInputHandler@Input@@@@@Util@@@Util@@AAEXHH@Z 0045a8a0 f i render_win32.release:inputserverbase.obj
 0001:00059a30       ??O?$KeyValuePair@W4Code@InputPriority@Input@@V?$Ptr@VInputHandler@Input@@@@@Util@@QBE_NABV01@@Z 0045aa30 f i render_win32.release:inputserverbase.obj
 0001:00059a50       ??M?$KeyValuePair@W4Code@InputPriority@Input@@V?$Ptr@VInputHandler@Input@@@@@Util@@QBE_NABV01@@Z 0045aa50 f i render_win32.release:inputserverbase.obj
 0001:00059a70       ??0?$Ptr@VInputHandler@Input@@@@QAE@ABV0@@Z 0045aa70 f i render_win32.release:inputserverbase.obj
 0001:00059ab0       ?Delete@?$FixedArray@V?$Ptr@VGamePad@Input@@@@@Util@@AAEXXZ 0045aab0 f i render_win32.release:inputserverbase.obj
 0001:00059b10       ?Alloc@?$FixedArray@V?$Ptr@VGamePad@Input@@@@@Util@@AAEXH@Z 0045ab10 f i render_win32.release:inputserverbase.obj
 0001:00059be0       ??4?$Ptr@VGamePad@Input@@@@QAEXABV0@@Z 0045abe0 f i render_win32.release:inputserverbase.obj
 0001:00059c40       ??_G?$KeyValuePair@W4Code@InputPriority@Input@@V?$Ptr@VInputHandler@Input@@@@@Util@@QAEPAXI@Z 0045ac40 f i render_win32.release:inputserverbase.obj
 0001:00059c80       ??_E?$KeyValuePair@W4Code@InputPriority@Input@@V?$Ptr@VInputHandler@Input@@@@@Util@@QAEPAXI@Z 0045ac80 f i render_win32.release:inputserverbase.obj
 0001:00059d20       ??_E?$Ptr@VGamePad@Input@@@@QAEPAXI@Z 0045ad20 f i render_win32.release:inputserverbase.obj
 0001:00059dc0       ?Grow@?$Array@V?$KeyValuePair@W4Code@InputPriority@Input@@V?$Ptr@VInputHandler@Input@@@@@Util@@@Util@@AAEXXZ 0045adc0 f i render_win32.release:inputserverbase.obj
 0001:00059e40       ??4?$KeyValuePair@W4Code@InputPriority@Input@@V?$Ptr@VInputHandler@Input@@@@@Util@@QAEXABV01@@Z 0045ae40 f i render_win32.release:inputserverbase.obj
 0001:00059e70       ??9?$KeyValuePair@W4Code@InputPriority@Input@@V?$Ptr@VInputHandler@Input@@@@@Util@@QBE_NABV01@@Z 0045ae70 f i render_win32.release:inputserverbase.obj
 0001:00059e90       ??0?$Ptr@VGamePad@Input@@@@QAE@XZ 0045ae90 f i render_win32.release:inputserverbase.obj
 0001:00059eb0       ?GrowTo@?$Array@V?$KeyValuePair@W4Code@InputPriority@Input@@V?$Ptr@VInputHandler@Input@@@@@Util@@@Util@@AAEXH@Z 0045aeb0 f i render_win32.release:inputserverbase.obj
 0001:00059fd0       ??0?$KeyValuePair@W4Code@InputPriority@Input@@V?$Ptr@VInputHandler@Input@@@@@Util@@QAE@XZ 0045afd0 f i render_win32.release:inputserverbase.obj
 0001:00059ff0       ?Exchange@Win360Interlocked@Win360@@SAHPCHH@Z 0045aff0 f i render_win32.release:graphicshandler.obj
 0001:0005a000       ??8Id@Messaging@@QBE_NABV01@@Z 0045b000 f i render_win32.release:graphicshandler.obj
 0001:0005a020       ?CheckId@Message@Messaging@@QBE_NABVId@2@@Z 0045b020 f i render_win32.release:graphicshandler.obj
 0001:0005a050       ?IsOpen@Handler@Messaging@@QBE_NXZ 0045b050 f i render_win32.release:graphicshandler.obj
 0001:0005a070       ?IsOpen@AttachmentServer@InternalGraphics@@QBE_NXZ 0045b070 f i render_win32.release:graphicshandler.obj
 0001:0005a090       ?GetAdapter@SetupGraphics@Graphics@@QBEABW4Code@Adapter@CoreGraphics@@XZ 0045b090 f i render_win32.release:graphicshandler.obj
 0001:0005a0b0       ?GetDisplayMode@SetupGraphics@Graphics@@QBEABVDisplayMode@CoreGraphics@@XZ 0045b0b0 f i render_win32.release:graphicshandler.obj
 0001:0005a0d0       ?GetAntiAliasQuality@SetupGraphics@Graphics@@QBEABW4Code@AntiAliasQuality@CoreGraphics@@XZ 0045b0d0 f i render_win32.release:graphicshandler.obj
 0001:0005a0f0       ?GetFullscreen@SetupGraphics@Graphics@@QBE_NXZ 0045b0f0 f i render_win32.release:graphicshandler.obj
 0001:0005a110       ?GetAutoAdjustSize@SetupGraphics@Graphics@@QBE_NXZ 0045b110 f i render_win32.release:graphicshandler.obj
 0001:0005a130       ?GetDisplayModeSwitchEnabled@SetupGraphics@Graphics@@QBE_NXZ 0045b130 f i render_win32.release:graphicshandler.obj
 0001:0005a150       ?GetTripleBufferingEnabled@SetupGraphics@Graphics@@QBE_NXZ 0045b150 f i render_win32.release:graphicshandler.obj
 0001:0005a170       ?GetAlwaysOnTop@SetupGraphics@Graphics@@QBE_NXZ 0045b170 f i render_win32.release:graphicshandler.obj
 0001:0005a190       ?GetVerticalSyncEnabled@SetupGraphics@Graphics@@QBE_NXZ 0045b190 f i render_win32.release:graphicshandler.obj
 0001:0005a1b0       ?GetIconName@SetupGraphics@Graphics@@QBEABVString@Util@@XZ 0045b1b0 f i render_win32.release:graphicshandler.obj
 0001:0005a1d0       ?GetWindowTitle@SetupGraphics@Graphics@@QBEABVString@Util@@XZ 0045b1d0 f i render_win32.release:graphicshandler.obj
 0001:0005a1f0       ?GetParentWindow@SetupGraphics@Graphics@@QBEPAXXZ 0045b1f0 f i render_win32.release:graphicshandler.obj
 0001:0005a210       ?GetResourceMappers@SetupGraphics@Graphics@@QBEABV?$Array@V?$Ptr@VResourceMapper@Resources@@@@@Util@@XZ 0045b210 f i render_win32.release:graphicshandler.obj
 0001:0005a230       ?SetActualDisplayMode@SetupGraphics@Graphics@@QAEXABVDisplayMode@CoreGraphics@@@Z 0045b230 f i render_win32.release:graphicshandler.obj
 0001:0005a290       ?SetActualFullscreen@SetupGraphics@Graphics@@QAEX_N@Z 0045b290 f i render_win32.release:graphicshandler.obj
 0001:0005a2d0       ?SetActualAdapter@SetupGraphics@Graphics@@QAEXABW4Code@Adapter@CoreGraphics@@@Z 0045b2d0 f i render_win32.release:graphicshandler.obj
 0001:0005a310       ?GetObjectRef@GraphicsEntityMessage@Graphics@@QBEABV?$Ptr@VObjectRef@Threading@@@@XZ 0045b310 f i render_win32.release:graphicshandler.obj
 0001:0005a330       ?IsOpen@ShapeRendererBase@Base@@QBE_NXZ 0045b330 f i render_win32.release:graphicshandler.obj
 0001:0005a350       ?IsOpen@DisplayDeviceBase@Base@@QBE_NXZ 0045b350 f i render_win32.release:graphicshandler.obj
 0001:0005a370       ?SetDisplayMode@DisplayDeviceBase@Base@@QAEXABVDisplayMode@CoreGraphics@@@Z 0045b370 f i render_win32.release:graphicshandler.obj
 0001:0005a3b0       ?GetDisplayMode@DisplayDeviceBase@Base@@QBEABVDisplayMode@CoreGraphics@@XZ 0045b3b0 f i render_win32.release:graphicshandler.obj
 0001:0005a3d0       ?SetAntiAliasQuality@DisplayDeviceBase@Base@@QAEXW4Code@AntiAliasQuality@CoreGraphics@@@Z 0045b3d0 f i render_win32.release:graphicshandler.obj
 0001:0005a3f0       ?SetAdapter@DisplayDeviceBase@Base@@QAEXW4Code@Adapter@CoreGraphics@@@Z 0045b3f0 f i render_win32.release:graphicshandler.obj
 0001:0005a410       ?GetAdapter@DisplayDeviceBase@Base@@QBE?AW4Code@Adapter@CoreGraphics@@XZ 0045b410 f i render_win32.release:graphicshandler.obj
 0001:0005a430       ?SetFullscreen@DisplayDeviceBase@Base@@QAEX_N@Z 0045b430 f i render_win32.release:graphicshandler.obj
 0001:0005a450       ?IsFullscreen@DisplayDeviceBase@Base@@QBE_NXZ 0045b450 f i render_win32.release:graphicshandler.obj
 0001:0005a470       ?SetAutoAdjustSize@DisplayDeviceBase@Base@@QAEX_N@Z 0045b470 f i render_win32.release:graphicshandler.obj
 0001:0005a490       ?SetDisplayModeSwitchEnabled@DisplayDeviceBase@Base@@QAEX_N@Z 0045b490 f i render_win32.release:graphicshandler.obj
 0001:0005a4b0       ?SetTripleBufferingEnabled@DisplayDeviceBase@Base@@QAEX_N@Z 0045b4b0 f i render_win32.release:graphicshandler.obj
 0001:0005a4d0       ?SetAlwaysOnTop@DisplayDeviceBase@Base@@QAEX_N@Z 0045b4d0 f i render_win32.release:graphicshandler.obj
 0001:0005a4f0       ?SetVerticalSyncEnabled@DisplayDeviceBase@Base@@QAEX_N@Z 0045b4f0 f i render_win32.release:graphicshandler.obj
 0001:0005a510       ?SetIconName@DisplayDeviceBase@Base@@QAEXABVString@Util@@@Z 0045b510 f i render_win32.release:graphicshandler.obj
 0001:0005a560       ?SetParentWindow@DisplayDeviceBase@Base@@QAEXPAX@Z 0045b560 f i render_win32.release:graphicshandler.obj
 0001:0005a580       ?IsOpen@TransformDeviceBase@Base@@QBE_NXZ 0045b580 f i render_win32.release:graphicshandler.obj
 0001:0005a5a0       ?IsOpen@ShaderServerBase@Base@@QBE_NXZ 0045b5a0 f i render_win32.release:graphicshandler.obj
 0001:0005a5c0       ?IsOpen@VertexLayoutServerBase@Base@@QBE_NXZ 0045b5c0 f i render_win32.release:graphicshandler.obj
 0001:0005a5e0       ?IsOpen@ResourceManager@Resources@@QBE_NXZ 0045b5e0 f i render_win32.release:graphicshandler.obj
 0001:0005a600       ?IsOpen@ModelServer@Models@@QBE_NXZ 0045b600 f i render_win32.release:graphicshandler.obj
 0001:0005a620       ?IsOpen@InternalGraphicsServer@InternalGraphics@@QBE_NXZ 0045b620 f i render_win32.release:graphicshandler.obj
 0001:0005a640       ?IsOpen@LightServerBase@Lighting@@QBE_NXZ 0045b640 f i render_win32.release:graphicshandler.obj
 0001:0005a660       ?IsOpen@ShadowServerBase@Lighting@@QBE_NXZ 0045b660 f i render_win32.release:graphicshandler.obj
 0001:0005a680       ?IsOpen@FrameServer@Frame@@QBE_NXZ 0045b680 f i render_win32.release:graphicshandler.obj
 0001:0005a6a0       ??0SafeFlag@Threading@@QAE@XZ 0045b6a0 f i render_win32.release:graphicshandler.obj
 0001:0005a6c0       ?Set@SafeFlag@Threading@@QAEXXZ 0045b6c0 f i render_win32.release:graphicshandler.obj
 0001:0005a6e0       ?Clear@SafeFlag@Threading@@QAEXXZ 0045b6e0 f i render_win32.release:graphicshandler.obj
 0001:0005a700       ?Test@SafeFlag@Threading@@QBE_NXZ 0045b700 f i render_win32.release:graphicshandler.obj
 0001:0005a720       ?IsValid@CharacterServer@Characters@@QBE_NXZ 0045b720 f i render_win32.release:graphicshandler.obj
 0001:0005a740       ?GetTimeFactor@FrameSyncTimer@FrameSync@@QBENXZ 0045b740 f i render_win32.release:graphicshandler.obj
 0001:0005a760       ?GetScaledTime@FrameSyncTimer@FrameSync@@QBENXZ 0045b760 f i render_win32.release:graphicshandler.obj
 0001:0005a780       ??2GraphicsHandler@Graphics@@SAPAXI@Z 0045b780 f i render_win32.release:graphicshandler.obj
 0001:0005a790       ??3GraphicsHandler@Graphics@@SAXPAX@Z 0045b790 f i render_win32.release:graphicshandler.obj
 0001:0005a7b0       ?GetRtti@GraphicsHandler@Graphics@@UBEPAVRtti@Core@@XZ 0045b7b0 f   render_win32.release:graphicshandler.obj
 0001:0005a7c0       ?FactoryCreator@GraphicsHandler@Graphics@@SAPAVRefCounted@Core@@XZ 0045b7c0 f   render_win32.release:graphicshandler.obj
 0001:0005a7d0       ?Create@GraphicsHandler@Graphics@@SAPAV12@XZ 0045b7d0 f   render_win32.release:graphicshandler.obj
 0001:0005a810       ?RegisterWithFactory@GraphicsHandler@Graphics@@SA_NXZ 0045b810 f   render_win32.release:graphicshandler.obj
 0001:0005a910       ??0GraphicsHandler@Graphics@@QAE@XZ 0045b910 f   render_win32.release:graphicshandler.obj
 0001:0005aa80       ??_GGraphicsHandler@Graphics@@UAEPAXI@Z 0045ba80 f i render_win32.release:graphicshandler.obj
 0001:0005aa80       ??_EGraphicsHandler@Graphics@@UAEPAXI@Z 0045ba80 f i  CIL library: CIL module
 0001:0005aab0       ??1InterfaceHandlerBase@Interface@@UAE@XZ 0045bab0 f i render_win32.release:graphicshandler.obj
 0001:0005aad0       ??1GraphicsHandler@Graphics@@UAE@XZ 0045bad0 f   render_win32.release:graphicshandler.obj
 0001:0005ac10       ?WaitForPendingResources@GraphicsHandler@Graphics@@QAEXXZ 0045bc10 f   render_win32.release:graphicshandler.obj
 0001:0005ac40       ?Open@GraphicsHandler@Graphics@@UAEXXZ 0045bc40 f   render_win32.release:graphicshandler.obj
 0001:0005afa0       ?Close@GraphicsHandler@Graphics@@UAEXXZ 0045bfa0 f   render_win32.release:graphicshandler.obj
 0001:0005b170       ?SetupGraphicsRuntime@GraphicsHandler@Graphics@@AAEXABV?$Ptr@VSetupGraphics@Graphics@@@@@Z 0045c170 f   render_win32.release:graphicshandler.obj
 0001:0005b8a0       ?ShutdownGraphicsRuntime@GraphicsHandler@Graphics@@AAEXXZ 0045c8a0 f   render_win32.release:graphicshandler.obj
 0001:0005ba00       ?HandleMessage@GraphicsHandler@Graphics@@UAE_NABV?$Ptr@VMessage@Messaging@@@@@Z 0045ca00 f   render_win32.release:graphicshandler.obj
 0001:0005c500       ?DoWork@GraphicsHandler@Graphics@@UAEXXZ 0045d500 f   render_win32.release:graphicshandler.obj
 0001:0005c680       ?OnSetupGraphics@GraphicsHandler@Graphics@@AAEXABV?$Ptr@VSetupGraphics@Graphics@@@@@Z 0045d680 f   render_win32.release:graphicshandler.obj
 0001:0005c960       ??0?$Ptr@VInternalGraphicsEntity@InternalGraphics@@@@QAE@PAVInternalGraphicsEntity@InternalGraphics@@@Z 0045d960 f i render_win32.release:graphicshandler.obj
 0001:0005c9a0       ??C?$Ptr@VInternalGraphicsEntity@InternalGraphics@@@@QBEPAVInternalGraphicsEntity@InternalGraphics@@XZ 0045d9a0 f i render_win32.release:graphicshandler.obj
 0001:0005c9e0       ??A?$Array@V?$Ptr@VResourceMapper@Resources@@@@@Util@@QBEAAV?$Ptr@VResourceMapper@Resources@@@@H@Z 0045d9e0 f i render_win32.release:graphicshandler.obj
 0001:0005ca30       ?Size@?$Array@V?$Ptr@VResourceMapper@Resources@@@@@Util@@QBEHXZ 0045da30 f i render_win32.release:graphicshandler.obj
 0001:0005ca50       ??4?$Ptr@VPoolResourceMapper@Resources@@@@QAEXABV0@@Z 0045da50 f i render_win32.release:graphicshandler.obj
 0001:0005cab0       ??C?$Ptr@VResourceMapper@Resources@@@@QBEPAVResourceMapper@Resources@@XZ 0045dab0 f i render_win32.release:graphicshandler.obj
 0001:0005caf0       ??0?$Ptr@VRenderDevice@CoreGraphics@@@@QAE@XZ 0045daf0 f i render_win32.release:graphicshandler.obj
 0001:0005cb10       ??1?$Ptr@VRenderDevice@CoreGraphics@@@@QAE@XZ 0045db10 f i render_win32.release:graphicshandler.obj
 0001:0005cb40       ??4?$Ptr@VRenderDevice@CoreGraphics@@@@QAEXPAVRenderDevice@CoreGraphics@@@Z 0045db40 f i render_win32.release:graphicshandler.obj
 0001:0005cba0       ??C?$Ptr@VRenderDevice@CoreGraphics@@@@QBEPAVRenderDevice@CoreGraphics@@XZ 0045dba0 f i render_win32.release:graphicshandler.obj
 0001:0005cbe0       ??0?$Ptr@VDisplayDevice@CoreGraphics@@@@QAE@XZ 0045dbe0 f i render_win32.release:graphicshandler.obj
 0001:0005cc00       ??1?$Ptr@VDisplayDevice@CoreGraphics@@@@QAE@XZ 0045dc00 f i render_win32.release:graphicshandler.obj
 0001:0005cc30       ??4?$Ptr@VDisplayDevice@CoreGraphics@@@@QAEXPAVDisplayDevice@CoreGraphics@@@Z 0045dc30 f i render_win32.release:graphicshandler.obj
 0001:0005cc90       ??C?$Ptr@VDisplayDevice@CoreGraphics@@@@QBEPAVDisplayDevice@CoreGraphics@@XZ 0045dc90 f i render_win32.release:graphicshandler.obj
 0001:0005ccd0       ??B?$Ptr@VDisplayDevice@CoreGraphics@@@@QBEPAVDisplayDevice@CoreGraphics@@XZ 0045dcd0 f i render_win32.release:graphicshandler.obj
 0001:0005cd10       ??0?$Ptr@VTransformDevice@CoreGraphics@@@@QAE@XZ 0045dd10 f i render_win32.release:graphicshandler.obj
 0001:0005cd30       ??1?$Ptr@VTransformDevice@CoreGraphics@@@@QAE@XZ 0045dd30 f i render_win32.release:graphicshandler.obj
 0001:0005cd60       ??4?$Ptr@VTransformDevice@CoreGraphics@@@@QAEXPAVTransformDevice@CoreGraphics@@@Z 0045dd60 f i render_win32.release:graphicshandler.obj
 0001:0005cdc0       ??C?$Ptr@VTransformDevice@CoreGraphics@@@@QBEPAVTransformDevice@CoreGraphics@@XZ 0045ddc0 f i render_win32.release:graphicshandler.obj
 0001:0005ce00       ??0?$Ptr@VShaderServer@CoreGraphics@@@@QAE@XZ 0045de00 f i render_win32.release:graphicshandler.obj
 0001:0005ce20       ??1?$Ptr@VShaderServer@CoreGraphics@@@@QAE@XZ 0045de20 f i render_win32.release:graphicshandler.obj
 0001:0005ce50       ??4?$Ptr@VShaderServer@CoreGraphics@@@@QAEXPAVShaderServer@CoreGraphics@@@Z 0045de50 f i render_win32.release:graphicshandler.obj
 0001:0005ceb0       ??C?$Ptr@VShaderServer@CoreGraphics@@@@QBEPAVShaderServer@CoreGraphics@@XZ 0045deb0 f i render_win32.release:graphicshandler.obj
 0001:0005cef0       ??0?$Ptr@VShapeRenderer@CoreGraphics@@@@QAE@XZ 0045def0 f i render_win32.release:graphicshandler.obj
 0001:0005cf10       ??1?$Ptr@VShapeRenderer@CoreGraphics@@@@QAE@XZ 0045df10 f i render_win32.release:graphicshandler.obj
 0001:0005cf40       ??4?$Ptr@VShapeRenderer@CoreGraphics@@@@QAEXPAVShapeRenderer@CoreGraphics@@@Z 0045df40 f i render_win32.release:graphicshandler.obj
 0001:0005cfa0       ??C?$Ptr@VShapeRenderer@CoreGraphics@@@@QBEPAVShapeRenderer@CoreGraphics@@XZ 0045dfa0 f i render_win32.release:graphicshandler.obj
 0001:0005cfe0       ??0?$Ptr@VVertexLayoutServer@CoreGraphics@@@@QAE@XZ 0045dfe0 f i render_win32.release:graphicshandler.obj
 0001:0005d000       ??1?$Ptr@VVertexLayoutServer@CoreGraphics@@@@QAE@XZ 0045e000 f i render_win32.release:graphicshandler.obj
 0001:0005d030       ??4?$Ptr@VVertexLayoutServer@CoreGraphics@@@@QAEXPAVVertexLayoutServer@CoreGraphics@@@Z 0045e030 f i render_win32.release:graphicshandler.obj
 0001:0005d090       ??C?$Ptr@VVertexLayoutServer@CoreGraphics@@@@QBEPAVVertexLayoutServer@CoreGraphics@@XZ 0045e090 f i render_win32.release:graphicshandler.obj
 0001:0005d0d0       ??0?$Ptr@VTextRenderer@CoreGraphics@@@@QAE@XZ 0045e0d0 f i render_win32.release:graphicshandler.obj
 0001:0005d0f0       ??1?$Ptr@VTextRenderer@CoreGraphics@@@@QAE@XZ 0045e0f0 f i render_win32.release:graphicshandler.obj
 0001:0005d120       ??4?$Ptr@VTextRenderer@CoreGraphics@@@@QAEXPAVTextRenderer@CoreGraphics@@@Z 0045e120 f i render_win32.release:graphicshandler.obj
 0001:0005d180       ??C?$Ptr@VTextRenderer@CoreGraphics@@@@QBEPAVTextRenderer@CoreGraphics@@XZ 0045e180 f i render_win32.release:graphicshandler.obj
 0001:0005d1c0       ??0?$Ptr@VMouseRenderDevice@CoreGraphics@@@@QAE@XZ 0045e1c0 f i render_win32.release:graphicshandler.obj
 0001:0005d1e0       ??1?$Ptr@VMouseRenderDevice@CoreGraphics@@@@QAE@XZ 0045e1e0 f i render_win32.release:graphicshandler.obj
 0001:0005d210       ??4?$Ptr@VMouseRenderDevice@CoreGraphics@@@@QAEXPAVMouseRenderDevice@CoreGraphics@@@Z 0045e210 f i render_win32.release:graphicshandler.obj
 0001:0005d270       ??C?$Ptr@VMouseRenderDevice@CoreGraphics@@@@QBEPAVMouseRenderDevice@CoreGraphics@@XZ 0045e270 f i render_win32.release:graphicshandler.obj
 0001:0005d2b0       ??0?$Ptr@VResourceManager@Resources@@@@QAE@XZ 0045e2b0 f i render_win32.release:graphicshandler.obj
 0001:0005d2d0       ??4?$Ptr@VResourceManager@Resources@@@@QAEXPAVResourceManager@Resources@@@Z 0045e2d0 f i render_win32.release:graphicshandler.obj
 0001:0005d330       ??C?$Ptr@VResourceManager@Resources@@@@QBEPAVResourceManager@Resources@@XZ 0045e330 f i render_win32.release:graphicshandler.obj
 0001:0005d370       ??0?$Ptr@VModelServer@Models@@@@QAE@XZ 0045e370 f i render_win32.release:graphicshandler.obj
 0001:0005d390       ??1?$Ptr@VModelServer@Models@@@@QAE@XZ 0045e390 f i render_win32.release:graphicshandler.obj
 0001:0005d3c0       ??4?$Ptr@VModelServer@Models@@@@QAEXPAVModelServer@Models@@@Z 0045e3c0 f i render_win32.release:graphicshandler.obj
 0001:0005d420       ??C?$Ptr@VModelServer@Models@@@@QBEPAVModelServer@Models@@XZ 0045e420 f i render_win32.release:graphicshandler.obj
 0001:0005d460       ??0?$Ptr@VInternalGraphicsServer@InternalGraphics@@@@QAE@XZ 0045e460 f i render_win32.release:graphicshandler.obj
 0001:0005d480       ??1?$Ptr@VInternalGraphicsServer@InternalGraphics@@@@QAE@XZ 0045e480 f i render_win32.release:graphicshandler.obj
 0001:0005d4b0       ??4?$Ptr@VInternalGraphicsServer@InternalGraphics@@@@QAEXPAVInternalGraphicsServer@InternalGraphics@@@Z 0045e4b0 f i render_win32.release:graphicshandler.obj
 0001:0005d510       ??C?$Ptr@VInternalGraphicsServer@InternalGraphics@@@@QBEPAVInternalGraphicsServer@InternalGraphics@@XZ 0045e510 f i render_win32.release:graphicshandler.obj
 0001:0005d550       ??0?$Ptr@VAttachmentServer@InternalGraphics@@@@QAE@XZ 0045e550 f i render_win32.release:graphicshandler.obj
 0001:0005d570       ??1?$Ptr@VAttachmentServer@InternalGraphics@@@@QAE@XZ 0045e570 f i render_win32.release:graphicshandler.obj
 0001:0005d5a0       ??4?$Ptr@VAttachmentServer@InternalGraphics@@@@QAEXPAVAttachmentServer@InternalGraphics@@@Z 0045e5a0 f i render_win32.release:graphicshandler.obj
 0001:0005d600       ??C?$Ptr@VAttachmentServer@InternalGraphics@@@@QBEPAVAttachmentServer@InternalGraphics@@XZ 0045e600 f i render_win32.release:graphicshandler.obj
 0001:0005d640       ??0?$Ptr@VLightServer@Lighting@@@@QAE@XZ 0045e640 f i render_win32.release:graphicshandler.obj
 0001:0005d660       ??1?$Ptr@VLightServer@Lighting@@@@QAE@XZ 0045e660 f i render_win32.release:graphicshandler.obj
 0001:0005d690       ??4?$Ptr@VLightServer@Lighting@@@@QAEXPAVLightServer@Lighting@@@Z 0045e690 f i render_win32.release:graphicshandler.obj
 0001:0005d6f0       ??C?$Ptr@VLightServer@Lighting@@@@QBEPAVLightServer@Lighting@@XZ 0045e6f0 f i render_win32.release:graphicshandler.obj
 0001:0005d730       ??0?$Ptr@VShadowServer@Lighting@@@@QAE@XZ 0045e730 f i render_win32.release:graphicshandler.obj
 0001:0005d750       ??1?$Ptr@VShadowServer@Lighting@@@@QAE@XZ 0045e750 f i render_win32.release:graphicshandler.obj
 0001:0005d780       ??4?$Ptr@VShadowServer@Lighting@@@@QAEXPAVShadowServer@Lighting@@@Z 0045e780 f i render_win32.release:graphicshandler.obj
 0001:0005d7e0       ??C?$Ptr@VShadowServer@Lighting@@@@QBEPAVShadowServer@Lighting@@XZ 0045e7e0 f i render_win32.release:graphicshandler.obj
 0001:0005d820       ??0?$Ptr@VFrameServer@Frame@@@@QAE@XZ 0045e820 f i render_win32.release:graphicshandler.obj
 0001:0005d840       ??1?$Ptr@VFrameServer@Frame@@@@QAE@XZ 0045e840 f i render_win32.release:graphicshandler.obj
 0001:0005d870       ??4?$Ptr@VFrameServer@Frame@@@@QAEXPAVFrameServer@Frame@@@Z 0045e870 f i render_win32.release:graphicshandler.obj
 0001:0005d8d0       ??C?$Ptr@VFrameServer@Frame@@@@QBEPAVFrameServer@Frame@@XZ 0045e8d0 f i render_win32.release:graphicshandler.obj
 0001:0005d910       ??0?$Ptr@VAnimEventServer@Animation@@@@QAE@XZ 0045e910 f i render_win32.release:graphicshandler.obj
 0001:0005d930       ??1?$Ptr@VAnimEventServer@Animation@@@@QAE@XZ 0045e930 f i render_win32.release:graphicshandler.obj
 0001:0005d960       ??4?$Ptr@VAnimEventServer@Animation@@@@QAEXPAVAnimEventServer@Animation@@@Z 0045e960 f i render_win32.release:graphicshandler.obj
 0001:0005d9c0       ??C?$Ptr@VAnimEventServer@Animation@@@@QBEPAVAnimEventServer@Animation@@XZ 0045e9c0 f i render_win32.release:graphicshandler.obj
 0001:0005da00       ??0?$Ptr@VCharacterServer@Characters@@@@QAE@XZ 0045ea00 f i render_win32.release:graphicshandler.obj
 0001:0005da20       ??1?$Ptr@VCharacterServer@Characters@@@@QAE@XZ 0045ea20 f i render_win32.release:graphicshandler.obj
 0001:0005da50       ??4?$Ptr@VCharacterServer@Characters@@@@QAEXPAVCharacterServer@Characters@@@Z 0045ea50 f i render_win32.release:graphicshandler.obj
 0001:0005dab0       ??C?$Ptr@VCharacterServer@Characters@@@@QBEPAVCharacterServer@Characters@@XZ 0045eab0 f i render_win32.release:graphicshandler.obj
 0001:0005daf0       ??0?$Ptr@VParticleServer@Particles@@@@QAE@XZ 0045eaf0 f i render_win32.release:graphicshandler.obj
 0001:0005db10       ??1?$Ptr@VParticleServer@Particles@@@@QAE@XZ 0045eb10 f i render_win32.release:graphicshandler.obj
 0001:0005db40       ??4?$Ptr@VParticleServer@Particles@@@@QAEXPAVParticleServer@Particles@@@Z 0045eb40 f i render_win32.release:graphicshandler.obj
 0001:0005dba0       ??C?$Ptr@VParticleServer@Particles@@@@QBEPAVParticleServer@Particles@@XZ 0045eba0 f i render_win32.release:graphicshandler.obj
 0001:0005dbe0       ??$downcast@VPoolResourceMapper@Resources@@@?$Ptr@VResourceMapper@Resources@@@@QBEABV?$Ptr@VPoolResourceMapper@Resources@@@@XZ 0045ebe0 f i render_win32.release:graphicshandler.obj
 0001:0005dbf0       ??C?$Ptr@VMessage@Messaging@@@@QBEPAVMessage@Messaging@@XZ 0045ebf0 f i render_win32.release:graphicshandler.obj
 0001:0005dc30       ?isvalid@?$Ptr@VMessage@Messaging@@@@QBE_NXZ 0045ec30 f i render_win32.release:graphicshandler.obj
 0001:0005dc50       ??$cast@VGraphicsEntityMessage@Graphics@@@?$Ptr@VMessage@Messaging@@@@QBEABV?$Ptr@VGraphicsEntityMessage@Graphics@@@@XZ 0045ec50 f i render_win32.release:graphicshandler.obj
 0001:0005dc60       ??$Ref@VInternalGraphicsEntity@InternalGraphics@@@ObjectRef@Threading@@QBEPAVInternalGraphicsEntity@InternalGraphics@@XZ 0045ec60 f i render_win32.release:graphicshandler.obj
 0001:0005dcd0       ??$cast@VSetupGraphics@Graphics@@@?$Ptr@VMessage@Messaging@@@@QBEABV?$Ptr@VSetupGraphics@Graphics@@@@XZ 0045ecd0 f i render_win32.release:graphicshandler.obj
 0001:0005dce0       ??$downcast@VCreateModelEntity@Graphics@@@?$Ptr@VMessage@Messaging@@@@QBEABV?$Ptr@VCreateModelEntity@Graphics@@@@XZ 0045ece0 f i render_win32.release:graphicshandler.obj
 0001:0005dcf0       ??$downcast@VCreateCameraEntity@Graphics@@@?$Ptr@VMessage@Messaging@@@@QBEABV?$Ptr@VCreateCameraEntity@Graphics@@@@XZ 0045ecf0 f i render_win32.release:graphicshandler.obj
 0001:0005dd00       ??$downcast@VCreateGlobalLightEntity@Graphics@@@?$Ptr@VMessage@Messaging@@@@QBEABV?$Ptr@VCreateGlobalLightEntity@Graphics@@@@XZ 0045ed00 f i render_win32.release:graphicshandler.obj
 0001:0005dd10       ??$downcast@VCreatePointLightEntity@Graphics@@@?$Ptr@VMessage@Messaging@@@@QBEABV?$Ptr@VCreatePointLightEntity@Graphics@@@@XZ 0045ed10 f i render_win32.release:graphicshandler.obj
 0001:0005dd20       ??$downcast@VCreateSpotLightEntity@Graphics@@@?$Ptr@VMessage@Messaging@@@@QBEABV?$Ptr@VCreateSpotLightEntity@Graphics@@@@XZ 0045ed20 f i render_win32.release:graphicshandler.obj
 0001:0005dd30       ??$downcast@VAdapterExists@Graphics@@@?$Ptr@VMessage@Messaging@@@@QBEABV?$Ptr@VAdapterExists@Graphics@@@@XZ 0045ed30 f i render_win32.release:graphicshandler.obj
 0001:0005dd40       ??$downcast@VGetAvailableDisplayModes@Graphics@@@?$Ptr@VMessage@Messaging@@@@QBEABV?$Ptr@VGetAvailableDisplayModes@Graphics@@@@XZ 0045ed40 f i render_win32.release:graphicshandler.obj
 0001:0005dd50       ??$downcast@VGetCurrentAdapterDisplayMode@Graphics@@@?$Ptr@VMessage@Messaging@@@@QBEABV?$Ptr@VGetCurrentAdapterDisplayMode@Graphics@@@@XZ 0045ed50 f i render_win32.release:graphicshandler.obj
 0001:0005dd60       ??$downcast@VAdjustDisplaySize@Graphics@@@?$Ptr@VMessage@Messaging@@@@QBEABV?$Ptr@VAdjustDisplaySize@Graphics@@@@XZ 0045ed60 f i render_win32.release:graphicshandler.obj
 0001:0005dd70       ??$downcast@VGetAdapterInfo@Graphics@@@?$Ptr@VMessage@Messaging@@@@QBEABV?$Ptr@VGetAdapterInfo@Graphics@@@@XZ 0045ed70 f i render_win32.release:graphicshandler.obj
 0001:0005dd80       ??$downcast@VAttachDisplayEventHandler@Graphics@@@?$Ptr@VMessage@Messaging@@@@QBEABV?$Ptr@VAttachDisplayEventHandler@Graphics@@@@XZ 0045ed80 f i render_win32.release:graphicshandler.obj
 0001:0005dd90       ??$downcast@VRemoveDisplayEventHandler@Graphics@@@?$Ptr@VMessage@Messaging@@@@QBEABV?$Ptr@VRemoveDisplayEventHandler@Graphics@@@@XZ 0045ed90 f i render_win32.release:graphicshandler.obj
 0001:0005dda0       ??$downcast@VAttachRenderEventHandler@Graphics@@@?$Ptr@VMessage@Messaging@@@@QBEABV?$Ptr@VAttachRenderEventHandler@Graphics@@@@XZ 0045eda0 f i render_win32.release:graphicshandler.obj
 0001:0005ddb0       ??$downcast@VRemoveRenderEventHandler@Graphics@@@?$Ptr@VMessage@Messaging@@@@QBEABV?$Ptr@VRemoveRenderEventHandler@Graphics@@@@XZ 0045edb0 f i render_win32.release:graphicshandler.obj
 0001:0005ddc0       ??$downcast@VCreateGraphicsStage@Graphics@@@?$Ptr@VMessage@Messaging@@@@QBEABV?$Ptr@VCreateGraphicsStage@Graphics@@@@XZ 0045edc0 f i render_win32.release:graphicshandler.obj
 0001:0005ddd0       ??$downcast@VDiscardGraphicsStage@Graphics@@@?$Ptr@VMessage@Messaging@@@@QBEABV?$Ptr@VDiscardGraphicsStage@Graphics@@@@XZ 0045edd0 f i render_win32.release:graphicshandler.obj
 0001:0005dde0       ??$downcast@VCreateGraphicsView@Graphics@@@?$Ptr@VMessage@Messaging@@@@QBEABV?$Ptr@VCreateGraphicsView@Graphics@@@@XZ 0045ede0 f i render_win32.release:graphicshandler.obj
 0001:0005ddf0       ??$downcast@VDiscardGraphicsView@Graphics@@@?$Ptr@VMessage@Messaging@@@@QBEABV?$Ptr@VDiscardGraphicsView@Graphics@@@@XZ 0045edf0 f i render_win32.release:graphicshandler.obj
 0001:0005de00       ??$downcast@VSetDefaultGraphicsView@Graphics@@@?$Ptr@VMessage@Messaging@@@@QBEABV?$Ptr@VSetDefaultGraphicsView@Graphics@@@@XZ 0045ee00 f i render_win32.release:graphicshandler.obj
 0001:0005de10       ??$downcast@VUpdateSharedShaderVariable@Graphics@@@?$Ptr@VMessage@Messaging@@@@QBEABV?$Ptr@VUpdateSharedShaderVariable@Graphics@@@@XZ 0045ee10 f i render_win32.release:graphicshandler.obj
 0001:0005de20       ??$downcast@VRegisterAnimEventHandler@Graphics@@@?$Ptr@VMessage@Messaging@@@@QBEABV?$Ptr@VRegisterAnimEventHandler@Graphics@@@@XZ 0045ee20 f i render_win32.release:graphicshandler.obj
 0001:0005de30       ??$downcast@VUnregisterAnimEventHandler@Graphics@@@?$Ptr@VMessage@Messaging@@@@QBEABV?$Ptr@VUnregisterAnimEventHandler@Graphics@@@@XZ 0045ee30 f i render_win32.release:graphicshandler.obj
 0001:0005de40       ??$downcast@VPreloadMousePointerTextures@Graphics@@@?$Ptr@VMessage@Messaging@@@@QBEABV?$Ptr@VPreloadMousePointerTextures@Graphics@@@@XZ 0045ee40 f i render_win32.release:graphicshandler.obj
 0001:0005de50       ??$downcast@VUpdateMousePointers@Graphics@@@?$Ptr@VMessage@Messaging@@@@QBEABV?$Ptr@VUpdateMousePointers@Graphics@@@@XZ 0045ee50 f i render_win32.release:graphicshandler.obj
 0001:0005de60       ??$downcast@VRegisterRTPlugin@Graphics@@@?$Ptr@VMessage@Messaging@@@@QBEABV?$Ptr@VRegisterRTPlugin@Graphics@@@@XZ 0045ee60 f i render_win32.release:graphicshandler.obj
 0001:0005de70       ??$downcast@VUnregisterRTPlugin@Graphics@@@?$Ptr@VMessage@Messaging@@@@QBEABV?$Ptr@VUnregisterRTPlugin@Graphics@@@@XZ 0045ee70 f i render_win32.release:graphicshandler.obj
 0001:0005de80       ??$downcast@VHoldSharedResources@Graphics@@@?$Ptr@VMessage@Messaging@@@@QBEABV?$Ptr@VHoldSharedResources@Graphics@@@@XZ 0045ee80 f i render_win32.release:graphicshandler.obj
 0001:0005de90       ??$downcast@VReleaseSharedResources@Graphics@@@?$Ptr@VMessage@Messaging@@@@QBEABV?$Ptr@VReleaseSharedResources@Graphics@@@@XZ 0045ee90 f i render_win32.release:graphicshandler.obj
 0001:0005dea0       ??$downcast@VSetTimeFactor@Graphics@@@?$Ptr@VMessage@Messaging@@@@QBEABV?$Ptr@VSetTimeFactor@Graphics@@@@XZ 0045eea0 f i render_win32.release:graphicshandler.obj
 0001:0005deb0       ??$downcast@VSetShadowPointOfInterest@Graphics@@@?$Ptr@VMessage@Messaging@@@@QBEABV?$Ptr@VSetShadowPointOfInterest@Graphics@@@@XZ 0045eeb0 f i render_win32.release:graphicshandler.obj
 0001:0005dec0       ??$downcast@VCreateVisibilityCluster@Visibility@@@?$Ptr@VMessage@Messaging@@@@QBEABV?$Ptr@VCreateVisibilityCluster@Visibility@@@@XZ 0045eec0 f i render_win32.release:graphicshandler.obj
 0001:0005ded0       ??$downcast@VCreateVisibilityBoxes@Visibility@@@?$Ptr@VMessage@Messaging@@@@QBEABV?$Ptr@VCreateVisibilityBoxes@Visibility@@@@XZ 0045eed0 f i render_win32.release:graphicshandler.obj
 0001:0005dee0       ?SetInt@D3D9ShaderVariable@Direct3D9@@QAEXH@Z 0045eee0 f i render_win32.release:debuggraphicshandler.obj
 0001:0005df10       ?SetFloat@D3D9ShaderVariable@Direct3D9@@QAEXM@Z 0045ef10 f i render_win32.release:debuggraphicshandler.obj
 0001:0005df40       ?Instance@ShapeRenderer@CoreGraphics@@SAPAV12@XZ 0045ef40 f i render_win32.release:debuggraphicshandler.obj
 0001:0005df80       ?GetThreadId@RenderDebugText@Debug@@QBEABKXZ 0045ef80 f i render_win32.release:debuggraphicshandler.obj
 0001:0005dfa0       ?GetTextElements@RenderDebugText@Debug@@QBEABV?$Array@VTextElement@CoreGraphics@@@Util@@XZ 0045efa0 f i render_win32.release:debuggraphicshandler.obj
 0001:0005dfc0       ?GetThreadId@RenderDebugShapes@Debug@@QBEABKXZ 0045efc0 f i render_win32.release:debuggraphicshandler.obj
 0001:0005dfe0       ?GetShapes@RenderDebugShapes@Debug@@QBEABV?$Array@VRenderShape@CoreGraphics@@@Util@@XZ 0045efe0 f i render_win32.release:debuggraphicshandler.obj
 0001:0005e000       ?GetEnableDebugRendering@RenderDebugView@Debug@@QBE_NXZ 0045f000 f i render_win32.release:debuggraphicshandler.obj
 0001:0005e020       ?GetSemantic@SetFloatShaderVariable@Debug@@QBEABVStringAtom@Util@@XZ 0045f020 f i render_win32.release:debuggraphicshandler.obj
 0001:0005e040       ?GetValue@SetFloatShaderVariable@Debug@@QBEMXZ 0045f040 f i render_win32.release:debuggraphicshandler.obj
 0001:0005e060       ?GetToggle@ControlPerfHUD@Debug@@QBE_NXZ 0045f060 f i render_win32.release:debuggraphicshandler.obj
 0001:0005e080       ?GetEnable@ControlPerfHUD@Debug@@QBE_NXZ 0045f080 f i render_win32.release:debuggraphicshandler.obj
 0001:0005e0a0       ??2DebugGraphicsHandler@Debug@@SAPAXI@Z 0045f0a0 f i render_win32.release:debuggraphicshandler.obj
 0001:0005e0b0       ??3DebugGraphicsHandler@Debug@@SAXPAX@Z 0045f0b0 f i render_win32.release:debuggraphicshandler.obj
 0001:0005e0d0       ?SetPerfHUDEnabled@DebugGraphicsHandler@Debug@@QAEX_N@Z 0045f0d0 f i render_win32.release:debuggraphicshandler.obj
 0001:0005e0f0       ?TogglePerfHUD@DebugGraphicsHandler@Debug@@QAEXXZ 0045f0f0 f i render_win32.release:debuggraphicshandler.obj
 0001:0005e110       ?Instance@TextRenderer@CoreGraphics@@SAPAV12@XZ 0045f110 f i render_win32.release:debuggraphicshandler.obj
 0001:0005e150       ?GetSharedVariableBySemantic@ShaderServerBase@Base@@QBEABV?$Ptr@VShaderVariable@CoreGraphics@@@@ABVStringAtom@Util@@@Z 0045f150 f i render_win32.release:debuggraphicshandler.obj
 0001:0005e1a0       ?Instance@InternalGraphicsServer@InternalGraphics@@SAPAV12@XZ 0045f1a0 f i render_win32.release:debuggraphicshandler.obj
 0001:0005e1e0       ?SetRenderDebug@InternalGraphicsServer@InternalGraphics@@QAEX_N@Z 0045f1e0 f i render_win32.release:debuggraphicshandler.obj
 0001:0005e200       ?Instance@DebugServer@Debug@@SAPAV12@XZ 0045f200 f i render_win32.release:debuggraphicshandler.obj
 0001:0005e230       ?GetRtti@DebugGraphicsHandler@Debug@@UBEPAVRtti@Core@@XZ 0045f230 f   render_win32.release:debuggraphicshandler.obj
 0001:0005e240       ?FactoryCreator@DebugGraphicsHandler@Debug@@SAPAVRefCounted@Core@@XZ 0045f240 f   render_win32.release:debuggraphicshandler.obj
 0001:0005e250       ?Create@DebugGraphicsHandler@Debug@@SAPAV12@XZ 0045f250 f   render_win32.release:debuggraphicshandler.obj
 0001:0005e290       ?RegisterWithFactory@DebugGraphicsHandler@Debug@@SA_NXZ 0045f290 f   render_win32.release:debuggraphicshandler.obj
 0001:0005e390       ??0DebugGraphicsHandler@Debug@@QAE@XZ 0045f390 f   render_win32.release:debuggraphicshandler.obj
 0001:0005e420       ??_EDebugGraphicsHandler@Debug@@UAEPAXI@Z 0045f420 f i  CIL library: CIL module
 0001:0005e420       ??_GDebugGraphicsHandler@Debug@@UAEPAXI@Z 0045f420 f i render_win32.release:debuggraphicshandler.obj
 0001:0005e450       ??1DebugGraphicsHandler@Debug@@UAE@XZ 0045f450 f   render_win32.release:debuggraphicshandler.obj
 0001:0005e4d0       ?HandleMessage@DebugGraphicsHandler@Debug@@UAE_NABV?$Ptr@VMessage@Messaging@@@@@Z 0045f4d0 f   render_win32.release:debuggraphicshandler.obj
 0001:0005e6a0       ?DoWork@DebugGraphicsHandler@Debug@@UAEXXZ 0045f6a0 f   render_win32.release:debuggraphicshandler.obj
 0001:0005ea10       ?OnRenderDebugText@DebugGraphicsHandler@Debug@@AAEXABV?$Ptr@VRenderDebugText@Debug@@@@@Z 0045fa10 f   render_win32.release:debuggraphicshandler.obj
 0001:0005eac0       ?OnRenderDebugShapes@DebugGraphicsHandler@Debug@@AAEXABV?$Ptr@VRenderDebugShapes@Debug@@@@@Z 0045fac0 f   render_win32.release:debuggraphicshandler.obj
 0001:0005eb70       ?OnRenderDebugView@DebugGraphicsHandler@Debug@@AAEXABV?$Ptr@VRenderDebugView@Debug@@@@@Z 0045fb70 f   render_win32.release:debuggraphicshandler.obj
 0001:0005ebe0       ?OnIncrDebugShaderLayer@DebugGraphicsHandler@Debug@@AAEXABV?$Ptr@VIncrDebugShaderLayer@Debug@@@@@Z 0045fbe0 f   render_win32.release:debuggraphicshandler.obj
 0001:0005ecd0       ?OnSetFloatShaderVariable@DebugGraphicsHandler@Debug@@AAEXABV?$Ptr@VSetFloatShaderVariable@Debug@@@@@Z 0045fcd0 f   render_win32.release:debuggraphicshandler.obj
 0001:0005eda0       ?OnControlPerfHUD@DebugGraphicsHandler@Debug@@AAEXABV?$Ptr@VControlPerfHUD@Debug@@@@@Z 0045fda0 f   render_win32.release:debuggraphicshandler.obj
 0001:0005ee00       ??C?$Ptr@VShaderInstance@CoreGraphics@@@@QBEPAVShaderInstance@CoreGraphics@@XZ 0045fe00 f i render_win32.release:debuggraphicshandler.obj
 0001:0005ee40       ?isvalid@?$Ptr@VShaderInstance@CoreGraphics@@@@QBE_NXZ 0045fe40 f i render_win32.release:debuggraphicshandler.obj
 0001:0005ee60       ??C?$Ptr@VShaderVariable@CoreGraphics@@@@QBEPAVShaderVariable@CoreGraphics@@XZ 0045fe60 f i render_win32.release:debuggraphicshandler.obj
 0001:0005eea0       ?isvalid@?$Ptr@VShaderVariable@CoreGraphics@@@@QBE_NXZ 0045fea0 f i render_win32.release:debuggraphicshandler.obj
 0001:0005eec0       ??0?$Ptr@VDebugCounter@Debug@@@@QAE@XZ 0045fec0 f i render_win32.release:debuggraphicshandler.obj
 0001:0005eee0       ??1?$Ptr@VDebugCounter@Debug@@@@QAE@XZ 0045fee0 f i render_win32.release:debuggraphicshandler.obj
 0001:0005ef10       ??4?$Ptr@VDebugCounter@Debug@@@@QAEXABV0@@Z 0045ff10 f i render_win32.release:debuggraphicshandler.obj
 0001:0005ef70       ??C?$Ptr@VDebugCounter@Debug@@@@QBEPAVDebugCounter@Debug@@XZ 0045ff70 f i render_win32.release:debuggraphicshandler.obj
 0001:0005efb0       ?isvalid@?$Ptr@VDebugCounter@Debug@@@@QBE_NXZ 0045ffb0 f i render_win32.release:debuggraphicshandler.obj
 0001:0005efd0       ??4?$Ptr@VDebugTimer@Debug@@@@QAEXABV0@@Z 0045ffd0 f i render_win32.release:debuggraphicshandler.obj
 0001:0005f030       ?isvalid@?$Ptr@VDebugTimer@Debug@@@@QBE_NXZ 00460030 f i render_win32.release:debuggraphicshandler.obj
 0001:0005f050       ??$cast@VRenderDebugText@Debug@@@?$Ptr@VMessage@Messaging@@@@QBEABV?$Ptr@VRenderDebugText@Debug@@@@XZ 00460050 f i render_win32.release:debuggraphicshandler.obj
 0001:0005f060       ??$cast@VRenderDebugShapes@Debug@@@?$Ptr@VMessage@Messaging@@@@QBEABV?$Ptr@VRenderDebugShapes@Debug@@@@XZ 00460060 f i render_win32.release:debuggraphicshandler.obj
 0001:0005f070       ??$cast@VRenderDebugView@Debug@@@?$Ptr@VMessage@Messaging@@@@QBEABV?$Ptr@VRenderDebugView@Debug@@@@XZ 00460070 f i render_win32.release:debuggraphicshandler.obj
 0001:0005f080       ??$cast@VIncrDebugShaderLayer@Debug@@@?$Ptr@VMessage@Messaging@@@@QBEABV?$Ptr@VIncrDebugShaderLayer@Debug@@@@XZ 00460080 f i render_win32.release:debuggraphicshandler.obj
 0001:0005f090       ??$cast@VSetFloatShaderVariable@Debug@@@?$Ptr@VMessage@Messaging@@@@QBEABV?$Ptr@VSetFloatShaderVariable@Debug@@@@XZ 00460090 f i render_win32.release:debuggraphicshandler.obj
 0001:0005f0a0       ??$cast@VControlPerfHUD@Debug@@@?$Ptr@VMessage@Messaging@@@@QBEABV?$Ptr@VControlPerfHUD@Debug@@@@XZ 004600a0 f i render_win32.release:debuggraphicshandler.obj
 0001:0005f0b0       ??C?$Ptr@VRenderDebugShapes@Debug@@@@QBEPAVRenderDebugShapes@Debug@@XZ 004600b0 f i render_win32.release:debuggraphicshandler.obj
 0001:0005f0f0       ??C?$Ptr@VSetFloatShaderVariable@Debug@@@@QBEPAVSetFloatShaderVariable@Debug@@XZ 004600f0 f i render_win32.release:debuggraphicshandler.obj
 0001:0005f130       ??C?$Ptr@VControlPerfHUD@Debug@@@@QBEPAVControlPerfHUD@Debug@@XZ 00460130 f i render_win32.release:debuggraphicshandler.obj
 0001:0005f170       ??2Win32InputServer@Win32@@SAPAXI@Z 00460170 f i render_win32.release:win32inputserver.obj
 0001:0005f180       ??3Win32InputServer@Win32@@SAXPAX@Z 00460180 f i render_win32.release:win32inputserver.obj
 0001:0005f1a0       ?SetPlayerIndex@GamePadBase@Base@@QAEXH@Z 004601a0 f i render_win32.release:win32inputserver.obj
 0001:0005f1e0       ?Instance@Display@Graphics@@SAPAV12@XZ 004601e0 f i render_win32.release:win32inputserver.obj
 0001:0005f220       ?GetRtti@Win32InputServer@Win32@@UBEPAVRtti@Core@@XZ 00460220 f   render_win32.release:win32inputserver.obj
 0001:0005f230       ?FactoryCreator@Win32InputServer@Win32@@SAPAVRefCounted@Core@@XZ 00460230 f   render_win32.release:win32inputserver.obj
 0001:0005f240       ?Create@Win32InputServer@Win32@@SAPAV12@XZ 00460240 f   render_win32.release:win32inputserver.obj
 0001:0005f280       ?RegisterWithFactory@Win32InputServer@Win32@@SA_NXZ 00460280 f   render_win32.release:win32inputserver.obj
 0001:0005f380       ??0Win32InputServer@Win32@@QAE@XZ 00460380 f   render_win32.release:win32inputserver.obj
 0001:0005f3f0       ??_GWin32InputServer@Win32@@UAEPAXI@Z 004603f0 f i render_win32.release:win32inputserver.obj
 0001:0005f3f0       ??_EWin32InputServer@Win32@@UAEPAXI@Z 004603f0 f i  CIL library: CIL module
 0001:0005f420       ??1Win32InputServer@Win32@@UAE@XZ 00460420 f   render_win32.release:win32inputserver.obj
 0001:0005f4a0       ?Open@Win32InputServer@Win32@@UAEXXZ 004604a0 f   render_win32.release:win32inputserver.obj
 0001:0005f630       ?Close@Win32InputServer@Win32@@UAEXXZ 00460630 f   render_win32.release:win32inputserver.obj
 0001:0005f6c0       ?OnFrame@Win32InputServer@Win32@@UAEXXZ 004606c0 f   render_win32.release:win32inputserver.obj
 0001:0005f6f0       ?OpenDInputMouse@Win32InputServer@Win32@@IAE_NXZ 004606f0 f   render_win32.release:win32inputserver.obj
 0001:0005f930       ?CloseDInputMouse@Win32InputServer@Win32@@IAEXXZ 00460930 f   render_win32.release:win32inputserver.obj
 0001:0005f9d0       ?ReadDInputMouse@Win32InputServer@Win32@@IAEXXZ 004609d0 f   render_win32.release:win32inputserver.obj
 0001:0005fb60       ??0?$Ptr@VWin32InputDisplayEventHandler@Win32@@@@QAE@XZ 00460b60 f i render_win32.release:win32inputserver.obj
 0001:0005fb80       ??1?$Ptr@VWin32InputDisplayEventHandler@Win32@@@@QAE@XZ 00460b80 f i render_win32.release:win32inputserver.obj
 0001:0005fbb0       ??4?$Ptr@VWin32InputDisplayEventHandler@Win32@@@@QAEXPAVWin32InputDisplayEventHandler@Win32@@@Z 00460bb0 f i render_win32.release:win32inputserver.obj
 0001:0005fc10       ??C?$Ptr@VWin32InputDisplayEventHandler@Win32@@@@QBEPAVWin32InputDisplayEventHandler@Win32@@XZ 00460c10 f i render_win32.release:win32inputserver.obj
 0001:0005fc50       ??$upcast@VThreadSafeDisplayEventHandler@CoreGraphics@@@?$Ptr@VWin32InputDisplayEventHandler@Win32@@@@QBEABV?$Ptr@VThreadSafeDisplayEventHandler@CoreGraphics@@@@XZ 00460c50 f i render_win32.release:win32inputserver.obj
 0001:0005fc60       ??$upcast@VInputHandler@Input@@@?$Ptr@VKeyboard@Input@@@@QBEABV?$Ptr@VInputHandler@Input@@@@XZ 00460c60 f i render_win32.release:win32inputserver.obj
 0001:0005fc70       ??$upcast@VInputHandler@Input@@@?$Ptr@VMouse@Input@@@@QBEABV?$Ptr@VInputHandler@Input@@@@XZ 00460c70 f i render_win32.release:win32inputserver.obj
 0001:0005fc80       ??4?$Ptr@VGamePad@Input@@@@QAEXPAVGamePad@Input@@@Z 00460c80 f i render_win32.release:win32inputserver.obj
 0001:0005fce0       ??$upcast@VInputHandler@Input@@@?$Ptr@VGamePad@Input@@@@QBEABV?$Ptr@VInputHandler@Input@@@@XZ 00460ce0 f i render_win32.release:win32inputserver.obj
 0001:0005fcf0       ?n_tan@Math@@YAMM@Z        00460cf0 f i render_win32.release:camerasettings.obj
 0001:0005fd10       ??Xfloat4@Math@@QAEXM@Z    00460d10 f i render_win32.release:camerasettings.obj
 0001:0005fd70       ?set@float4@Math@@QAEXMMMM@Z 00460d70 f i render_win32.release:camerasettings.obj
 0001:0005fdc0       ?set@point@Math@@QAEXMMM@Z 00460dc0 f i render_win32.release:camerasettings.obj
 0001:0005fe20       ??0plane@Math@@QAE@XZ      00460e20 f i render_win32.release:camerasettings.obj
 0001:0005fe30       ?setup_from_points@plane@Math@@QAEXABVfloat4@2@00@Z 00460e30 f i render_win32.release:camerasettings.obj
 0001:000604f0       ?inverse@matrix44@Math@@SA?AV12@ABV12@@Z 004614f0 f i render_win32.release:camerasettings.obj
 0001:00060530       ?orthorh@matrix44@Math@@SA?AV12@MMMM@Z 00461530 f i render_win32.release:camerasettings.obj
 0001:00060740       ?perspfovrh@matrix44@Math@@SA?AV12@MMMM@Z 00461740 f i render_win32.release:camerasettings.obj
 0001:000609b0       ??0frustum@Math@@QAE@XZ    004619b0 f i render_win32.release:camerasettings.obj
 0001:000609f0       ?set@frustum@Math@@QAEXABVmatrix44@2@@Z 004619f0 f i render_win32.release:camerasettings.obj
 0001:00061540       ??0CameraSettings@Shared@@QAE@XZ 00462540 f   render_win32.release:camerasettings.obj
 0001:00061890       ?SetupPerspectiveFov@CameraSettings@Shared@@QAEXMMMM@Z 00462890 f   render_win32.release:camerasettings.obj
 0001:00061e20       ?SetupOrthogonal@CameraSettings@Shared@@QAEXMMMM@Z 00462e20 f   render_win32.release:camerasettings.obj
 0001:00062200       ?UpdateViewProjMatrix@CameraSettings@Shared@@ABEXXZ 00463200 f   render_win32.release:camerasettings.obj
 0001:00062b00       ?UpdateViewFrustum@CameraSettings@Shared@@ABEXXZ 00463b00 f   render_win32.release:camerasettings.obj
 0001:00062ba0       ?XMMatrixPerspectiveFovRH@@YA?AU_XMMATRIX@@MMMM@Z 00463ba0 f i render_win32.release:camerasettings.obj
 0001:00062df0       ?XMScalarSinCos@@YAXPAM0M@Z 00463df0 f i render_win32.release:camerasettings.obj
 0001:00062e20       ?XMMatrixOrthographicRH@@YA?AU_XMMATRIX@@MMMM@Z 00463e20 f i render_win32.release:camerasettings.obj
 0001:00063000       ?XMMatrixTranspose@@YA?AU_XMMATRIX@@ABU1@@Z 00464000 f i render_win32.release:camerasettings.obj
 0001:00063160       ?XMMatrixInverse@@YA?AU_XMMATRIX@@PAT__m128@@ABU1@@Z 00464160 f i render_win32.release:camerasettings.obj
 0001:00064380       ?XMVector3Normalize@@YA?AT__m128@@T1@@Z 00465380 f i render_win32.release:camerasettings.obj
 0001:00064600       ?XMPlaneDotNormal@@YA?AT__m128@@T1@0@Z 00465600 f i render_win32.release:camerasettings.obj
 0001:000646e0       ?XMPlaneFromPoints@@YA?AT__m128@@T1@00@Z 004656e0 f i render_win32.release:camerasettings.obj
 0001:00064d60       ?XMVector3Dot@@YA?AT__m128@@T1@0@Z 00465d60 f i render_win32.release:camerasettings.obj
 0001:00064e30       ?XMVector3Cross@@YA?AT__m128@@T1@0@Z 00465e30 f i render_win32.release:camerasettings.obj
 0001:00064f80       ?XMVector4Dot@@YA?AT__m128@@T1@0@Z 00465f80 f i render_win32.release:camerasettings.obj
 0001:00065060       _tanf                      00466060 f i render_win32.release:camerasettings.obj
 0001:00065080       ?SetName@Stage@Graphics@@AAEXABVStringAtom@Util@@@Z 00466080 f i render_win32.release:graphicsserver.obj
 0001:000650a0       ?SetName@View@Graphics@@AAEXABVStringAtom@Util@@@Z 004660a0 f i render_win32.release:graphicsserver.obj
 0001:000650c0       ?GetName@View@Graphics@@QBEABVStringAtom@Util@@XZ 004660c0 f i render_win32.release:graphicsserver.obj
 0001:000650e0       ?SetViewClass@View@Graphics@@AAEXABVRtti@Core@@@Z 004660e0 f i render_win32.release:graphicsserver.obj
 0001:00065100       ?SetStageName@View@Graphics@@AAEXABVStringAtom@Util@@@Z 00466100 f i render_win32.release:graphicsserver.obj
 0001:00065120       ?SetFrameShaderName@View@Graphics@@AAEXABVStringAtom@Util@@@Z 00466120 f i render_win32.release:graphicsserver.obj
 0001:00065140       ??2GraphicsServer@Graphics@@SAPAXI@Z 00466140 f i render_win32.release:graphicsserver.obj
 0001:00065150       ??3GraphicsServer@Graphics@@SAXPAX@Z 00466150 f i render_win32.release:graphicsserver.obj
 0001:00065170       ?GetRtti@GraphicsServer@Graphics@@UBEPAVRtti@Core@@XZ 00466170 f   render_win32.release:graphicsserver.obj
 0001:00065180       ?FactoryCreator@GraphicsServer@Graphics@@SAPAVRefCounted@Core@@XZ 00466180 f   render_win32.release:graphicsserver.obj
 0001:00065190       ?Create@GraphicsServer@Graphics@@SAPAV12@XZ 00466190 f   render_win32.release:graphicsserver.obj
 0001:000651d0       ?RegisterWithFactory@GraphicsServer@Graphics@@SA_NXZ 004661d0 f   render_win32.release:graphicsserver.obj
 0001:000652d0       ??0GraphicsServer@Graphics@@QAE@XZ 004662d0 f   render_win32.release:graphicsserver.obj
 0001:00065390       ??_GGraphicsServer@Graphics@@UAEPAXI@Z 00466390 f i render_win32.release:graphicsserver.obj
 0001:00065390       ??_EGraphicsServer@Graphics@@UAEPAXI@Z 00466390 f i  CIL library: CIL module
 0001:000653c0       ??1GraphicsServer@Graphics@@UAE@XZ 004663c0 f   render_win32.release:graphicsserver.obj
 0001:00065510       ?Open@GraphicsServer@Graphics@@QAEXXZ 00466510 f   render_win32.release:graphicsserver.obj
 0001:00065550       ?Close@GraphicsServer@Graphics@@QAEXXZ 00466550 f   render_win32.release:graphicsserver.obj
 0001:000655a0       ?CreateStage@GraphicsServer@Graphics@@QAE?AV?$Ptr@VStage@Graphics@@@@ABVStringAtom@Util@@ABV?$Array@V?$Ptr@VVisibilitySystemBase@Visibility@@@@@5@@Z 004665a0 f   render_win32.release:graphicsserver.obj
 0001:00065680       ?DiscardStage@GraphicsServer@Graphics@@QAEXABV?$Ptr@VStage@Graphics@@@@@Z 00466680 f   render_win32.release:graphicsserver.obj
 0001:00065720       ?DiscardAllStages@GraphicsServer@Graphics@@QAEXXZ 00466720 f   render_win32.release:graphicsserver.obj
 0001:00065790       ?HasStage@GraphicsServer@Graphics@@QBE_NABVStringAtom@Util@@@Z 00466790 f   render_win32.release:graphicsserver.obj
 0001:000657b0       ?GetStageByName@GraphicsServer@Graphics@@QBEABV?$Ptr@VStage@Graphics@@@@ABVStringAtom@Util@@@Z 004667b0 f   render_win32.release:graphicsserver.obj
 0001:000657e0       ?GetStages@GraphicsServer@Graphics@@QBEABV?$Array@V?$Ptr@VStage@Graphics@@@@@Util@@XZ 004667e0 f   render_win32.release:graphicsserver.obj
 0001:00065800       ?CreateView@GraphicsServer@Graphics@@QAE?AV?$Ptr@VView@Graphics@@@@ABVRtti@Core@@ABVStringAtom@Util@@11_N@Z 00466800 f   render_win32.release:graphicsserver.obj
 0001:00065950       ?DiscardView@GraphicsServer@Graphics@@QAEXABV?$Ptr@VView@Graphics@@@@@Z 00466950 f   render_win32.release:graphicsserver.obj
 0001:00065a40       ?SetDefaultView@GraphicsServer@Graphics@@QAEXABV?$Ptr@VView@Graphics@@@@@Z 00466a40 f   render_win32.release:graphicsserver.obj
 0001:00065b00       ?DiscardAllViews@GraphicsServer@Graphics@@QAEXXZ 00466b00 f   render_win32.release:graphicsserver.obj
 0001:00065ba0       ?HasView@GraphicsServer@Graphics@@QBE_NABVStringAtom@Util@@@Z 00466ba0 f   render_win32.release:graphicsserver.obj
 0001:00065bc0       ?GetViewByName@GraphicsServer@Graphics@@QBEABV?$Ptr@VView@Graphics@@@@ABVStringAtom@Util@@@Z 00466bc0 f   render_win32.release:graphicsserver.obj
 0001:00065bf0       ?GetViews@GraphicsServer@Graphics@@QBEABV?$Array@V?$Ptr@VView@Graphics@@@@@Util@@XZ 00466bf0 f   render_win32.release:graphicsserver.obj
 0001:00065c10       ?GetDefaultView@GraphicsServer@Graphics@@QBEABV?$Ptr@VView@Graphics@@@@XZ 00466c10 f   render_win32.release:graphicsserver.obj
 0001:00065c30       ?OnFrame@GraphicsServer@Graphics@@QAEXXZ 00466c30 f   render_win32.release:graphicsserver.obj
 0001:00065ce0       ?RegisterRenderModule@GraphicsServer@Graphics@@QAEXABV?$Ptr@VRenderModule@RenderModules@@@@@Z 00466ce0 f   render_win32.release:graphicsserver.obj
 0001:00065d30       ?UnregisterRenderModule@GraphicsServer@Graphics@@QAEXABV?$Ptr@VRenderModule@RenderModules@@@@@Z 00466d30 f   render_win32.release:graphicsserver.obj
 0001:00065d80       ?GetRenderModules@GraphicsServer@Graphics@@QBEABV?$Array@V?$Ptr@VRenderModule@RenderModules@@@@@Util@@XZ 00466d80 f   render_win32.release:graphicsserver.obj
 0001:00065da0       ??0?$Ptr@VStage@Graphics@@@@QAE@ABV0@@Z 00466da0 f i render_win32.release:graphicsserver.obj
 0001:00065de0       ??0?$Array@V?$Ptr@VStage@Graphics@@@@@Util@@QAE@XZ 00466de0 f i render_win32.release:graphicsserver.obj
 0001:00065e20       ??1?$Array@V?$Ptr@VStage@Graphics@@@@@Util@@QAE@XZ 00466e20 f i render_win32.release:graphicsserver.obj
 0001:00065e40       ??A?$Array@V?$Ptr@VStage@Graphics@@@@@Util@@QBEAAV?$Ptr@VStage@Graphics@@@@H@Z 00466e40 f i render_win32.release:graphicsserver.obj
 0001:00065e90       ?Append@?$Array@V?$Ptr@VStage@Graphics@@@@@Util@@QAEXABV?$Ptr@VStage@Graphics@@@@@Z 00466e90 f i render_win32.release:graphicsserver.obj
 0001:00065f10       ?Size@?$Array@V?$Ptr@VStage@Graphics@@@@@Util@@QBEHXZ 00466f10 f i render_win32.release:graphicsserver.obj
 0001:00065f30       ?IsEmpty@?$Array@V?$Ptr@VStage@Graphics@@@@@Util@@QBE_NXZ 00466f30 f i render_win32.release:graphicsserver.obj
 0001:00065f50       ?EraseIndex@?$Array@V?$Ptr@VStage@Graphics@@@@@Util@@QAEXH@Z 00466f50 f i render_win32.release:graphicsserver.obj
 0001:00065fd0       ?Clear@?$Array@V?$Ptr@VStage@Graphics@@@@@Util@@QAEXXZ 00466fd0 f i render_win32.release:graphicsserver.obj
 0001:00066020       ??A?$Dictionary@VStringAtom@Util@@H@Util@@QAEAAHABVStringAtom@1@@Z 00467020 f i render_win32.release:graphicsserver.obj
 0001:00066070       ?Erase@?$Dictionary@VStringAtom@Util@@H@Util@@QAEXABVStringAtom@2@@Z 00467070 f i render_win32.release:graphicsserver.obj
 0001:000660f0       ??0?$Array@V?$Ptr@VView@Graphics@@@@@Util@@QAE@XZ 004670f0 f i render_win32.release:graphicsserver.obj
 0001:00066130       ??1?$Array@V?$Ptr@VView@Graphics@@@@@Util@@QAE@XZ 00467130 f i render_win32.release:graphicsserver.obj
 0001:00066150       ??A?$Array@V?$Ptr@VView@Graphics@@@@@Util@@QBEAAV?$Ptr@VView@Graphics@@@@H@Z 00467150 f i render_win32.release:graphicsserver.obj
 0001:000661a0       ?Append@?$Array@V?$Ptr@VView@Graphics@@@@@Util@@QAEXABV?$Ptr@VView@Graphics@@@@@Z 004671a0 f i render_win32.release:graphicsserver.obj
 0001:00066220       ?Size@?$Array@V?$Ptr@VView@Graphics@@@@@Util@@QBEHXZ 00467220 f i render_win32.release:graphicsserver.obj
 0001:00066240       ?IsEmpty@?$Array@V?$Ptr@VView@Graphics@@@@@Util@@QBE_NXZ 00467240 f i render_win32.release:graphicsserver.obj
 0001:00066260       ?EraseIndex@?$Array@V?$Ptr@VView@Graphics@@@@@Util@@QAEXH@Z 00467260 f i render_win32.release:graphicsserver.obj
 0001:000662e0       ?Clear@?$Array@V?$Ptr@VView@Graphics@@@@@Util@@QAEXXZ 004672e0 f i render_win32.release:graphicsserver.obj
 0001:00066330       ??0?$Ptr@VView@Graphics@@@@QAE@ABV0@@Z 00467330 f i render_win32.release:graphicsserver.obj
 0001:00066370       ??0?$Ptr@VView@Graphics@@@@QAE@PAVView@Graphics@@@Z 00467370 f i render_win32.release:graphicsserver.obj
 0001:000663b0       ??8?$Ptr@VView@Graphics@@@@QBE_NABV0@@Z 004673b0 f i render_win32.release:graphicsserver.obj
 0001:000663d0       ??9?$Ptr@VView@Graphics@@@@QBE_NABV0@@Z 004673d0 f i render_win32.release:graphicsserver.obj
 0001:000663f0       ??0?$Array@V?$Ptr@VRenderModule@RenderModules@@@@@Util@@QAE@XZ 004673f0 f i render_win32.release:graphicsserver.obj
 0001:00066430       ??1?$Array@V?$Ptr@VRenderModule@RenderModules@@@@@Util@@QAE@XZ 00467430 f i render_win32.release:graphicsserver.obj
 0001:00066450       ??A?$Array@V?$Ptr@VRenderModule@RenderModules@@@@@Util@@QBEAAV?$Ptr@VRenderModule@RenderModules@@@@H@Z 00467450 f i render_win32.release:graphicsserver.obj
 0001:000664a0       ?Append@?$Array@V?$Ptr@VRenderModule@RenderModules@@@@@Util@@QAEXABV?$Ptr@VRenderModule@RenderModules@@@@@Z 004674a0 f i render_win32.release:graphicsserver.obj
