 texturestreamingtest_win32

 Timestamp is 68d87578 (Sun Sep 28 02:38:32 2025)

 Preferred load address is 00400000

 Start         Length     Name                   Class
 0001:00000000 00207a39H .text                   CODE
 0001:00207a40 000074dfH .text$yc                CODE
 0001:0020ef20 00008023H .text$yd                CODE
 0002:00000000 000003b4H .idata$5                DATA
 0002:000003b4 00000004H .CRT$XCA                DATA
 0002:000003b8 00000004H .CRT$XCAA               DATA
 0002:000003bc 00000828H .CRT$XCU                DATA
 0002:00000be4 00000004H .CRT$XCZ                DATA
 0002:00000be8 00000004H .CRT$XIA                DATA
 0002:00000bec 00000004H .CRT$XIAA               DATA
 0002:00000bf0 00000004H .CRT$XIC                DATA
 0002:00000bf4 00000004H .CRT$XIY                DATA
 0002:00000bf8 00000004H .CRT$XIZ                DATA
 0002:00000bfc 00000004H .CRT$XLA                DATA
 0002:00000c00 00000004H .CRT$XLZ                DATA
 0002:00000c10 00041548H .rdata                  DATA
 0002:00042158 00000018H .rdata$T                DATA
 0002:00042170 0000004cH .rdata$debug            DATA
 0002:000421c0 00000008H .rdata$sxdata           DATA
 0002:000421c8 00000004H .rtc$IAA                DATA
 0002:000421cc 00000004H .rtc$IZZ                DATA
 0002:000421d0 00000004H .rtc$TAA                DATA
 0002:000421d4 00000004H .rtc$TZZ                DATA
 0002:000421d8 00000094H .xdata$x                DATA
 0002:0004226c 00000104H .idata$2                DATA
 0002:00042370 00000014H .idata$3                DATA
 0002:00042384 000003b4H .idata$4                DATA
 0002:00042738 00000dceH .idata$6                DATA
 0002:00043506 00000000H .edata                  DATA
 0003:00000000 00000280H .data                   DATA
 0003:00000280 00005764H .bss                    DATA
 0004:00000000 00000001H .tls                    DATA
 0004:00000004 0000007cH .stls                   DATA
 0004:00000080 0000006cH .tls$                   DATA
 0004:000000ec 00000001H .tls$ZZZ                DATA

  Address         Publics by Value              Rva+Base       Lib:Object

 0000:00000000       __except_list              00000000     <absolute>
 0000:00000002       ___safe_se_handler_count   00000002     <absolute>
 0000:0000002c       __tls_array                0000002c     <absolute>
 0000:00009876       __fltused                  00009876     <absolute>
 0000:00009876       __ldused                   00009876     <absolute>
 0000:00000000       ___ImageBase               00400000     <linker-defined>
 0001:00000000       _IXACT3SoundBank_Destroy@4 00401000 f i stdneb.obj
 0001:00000020       _IXACT3SoundBank_GetCueIndex@8 00401020 f i stdneb.obj
 0001:00000040       _IXACT3SoundBank_GetNumCues@8 00401040 f i stdneb.obj
 0001:00000060       _IXACT3SoundBank_GetCueProperties@12 00401060 f i stdneb.obj
 0001:00000080       _IXACT3SoundBank_Prepare@20 00401080 f i stdneb.obj
 0001:000000b0       _IXACT3SoundBank_Play@20   004010b0 f i stdneb.obj
 0001:000000e0       _IXACT3SoundBank_Stop@12   004010e0 f i stdneb.obj
 0001:00000100       _IXACT3SoundBank_GetState@8 00401100 f i stdneb.obj
 0001:00000120       _IXACT3WaveBank_Destroy@4  00401120 f i stdneb.obj
 0001:00000140       _IXACT3WaveBank_GetNumWaves@8 00401140 f i stdneb.obj
 0001:00000160       _IXACT3WaveBank_GetWaveIndex@8 00401160 f i stdneb.obj
 0001:00000180       _IXACT3WaveBank_GetWaveProperties@12 00401180 f i stdneb.obj
 0001:000001a0       _IXACT3WaveBank_Prepare@24 004011a0 f i stdneb.obj
 0001:000001d0       _IXACT3WaveBank_Play@24    004011d0 f i stdneb.obj
 0001:00000200       _IXACT3WaveBank_Stop@12    00401200 f i stdneb.obj
 0001:00000220       _IXACT3WaveBank_GetState@8 00401220 f i stdneb.obj
 0001:00000240       _IXACT3Wave_Destroy@4      00401240 f i stdneb.obj
 0001:00000260       _IXACT3Wave_Play@4         00401260 f i stdneb.obj
 0001:00000280       _IXACT3Wave_Stop@8         00401280 f i stdneb.obj
 0001:000002a0       _IXACT3Wave_Pause@8        004012a0 f i stdneb.obj
 0001:000002c0       _IXACT3Wave_GetState@8     004012c0 f i stdneb.obj
 0001:000002e0       _IXACT3Wave_SetPitch@8     004012e0 f i stdneb.obj
 0001:00000300       _IXACT3Wave_SetVolume@8    00401300 f i stdneb.obj
 0001:00000320       _IXACT3Wave_SetMatrixCoefficients@16 00401320 f i stdneb.obj
 0001:00000350       _IXACT3Wave_GetProperties@8 00401350 f i stdneb.obj
 0001:00000370       _IXACT3Cue_Play@4          00401370 f i stdneb.obj
 0001:00000390       _IXACT3Cue_Stop@8          00401390 f i stdneb.obj
 0001:000003b0       _IXACT3Cue_GetState@8      004013b0 f i stdneb.obj
 0001:000003d0       _IXACT3Cue_Destroy@4       004013d0 f i stdneb.obj
 0001:000003f0       _IXACT3Cue_SetMatrixCoefficients@16 004013f0 f i stdneb.obj
 0001:00000420       _IXACT3Cue_GetVariableIndex@8 00401420 f i stdneb.obj
 0001:00000440       _IXACT3Cue_SetVariable@12  00401440 f i stdneb.obj
 0001:00000470       _IXACT3Cue_GetVariable@12  00401470 f i stdneb.obj
 0001:00000490       _IXACT3Cue_Pause@8         00401490 f i stdneb.obj
 0001:000004b0       _IXACT3Cue_GetProperties@8 004014b0 f i stdneb.obj
 0001:000004d0       _IXACT3Cue_SetOutputVoices@8 004014d0 f i stdneb.obj
 0001:000004f0       _IXACT3Cue_SetOutputVoiceMatrix@20 004014f0 f i stdneb.obj
 0001:00000520       _IXACT3Engine_AddRef@4     00401520 f i stdneb.obj
 0001:00000540       _IXACT3Engine_Release@4    00401540 f i stdneb.obj
 0001:00000560       _IXACT3Engine_GetRendererCount@8 00401560 f i stdneb.obj
 0001:00000580       _IXACT3Engine_GetRendererDetails@12 00401580 f i stdneb.obj
 0001:000005a0       _IXACT3Engine_GetFinalMixFormat@8 004015a0 f i stdneb.obj
 0001:000005c0       _IXACT3Engine_Initialize@8 004015c0 f i stdneb.obj
 0001:000005e0       _IXACT3Engine_ShutDown@4   004015e0 f i stdneb.obj
 0001:00000600       _IXACT3Engine_DoWork@4     00401600 f i stdneb.obj
 0001:00000620       _IXACT3Engine_CreateSoundBank@24 00401620 f i stdneb.obj
 0001:00000650       _IXACT3Engine_CreateInMemoryWaveBank@24 00401650 f i stdneb.obj
 0001:00000680       _IXACT3Engine_CreateStreamingWaveBank@12 00401680 f i stdneb.obj
 0001:000006a0       _IXACT3Engine_PrepareWave@32 004016a0 f i stdneb.obj
 0001:000006e0       _IXACT3Engine_PrepareInMemoryWave@52 004016e0 f i stdneb.obj
 0001:00000740       _IXACT3Engine_PrepareStreamingWave@68 00401740 f i stdneb.obj
 0001:000007c0       _IXACT3Engine_RegisterNotification@8 004017c0 f i stdneb.obj
 0001:000007e0       _IXACT3Engine_UnRegisterNotification@8 004017e0 f i stdneb.obj
 0001:00000800       _IXACT3Engine_GetCategory@8 00401800 f i stdneb.obj
 0001:00000820       _IXACT3Engine_Stop@12      00401820 f i stdneb.obj
 0001:00000840       _IXACT3Engine_SetVolume@12 00401840 f i stdneb.obj
 0001:00000870       _IXACT3Engine_Pause@12     00401870 f i stdneb.obj
 0001:00000890       _IXACT3Engine_GetGlobalVariableIndex@8 00401890 f i stdneb.obj
 0001:000008b0       _IXACT3Engine_SetGlobalVariable@12 004018b0 f i stdneb.obj
 0001:000008e0       _IXACT3Engine_GetGlobalVariable@12 004018e0 f i stdneb.obj
 0001:00000900       ?Increment@Win360Interlocked@Win360@@SAHACH@Z 00401900 f i texturestreamingapplication.obj
 0001:00000920       ?Decrement@Win360Interlocked@Win360@@SAHACH@Z 00401920 f i texturestreamingapplication.obj
 0001:00000940       ?__HeapUnalignPointer16@Memory@@YAPAEPAE@Z 00401940 f i texturestreamingapplication.obj
 0001:00000960       ?__HeapFree16@Memory@@YAHPAXK0@Z 00401960 f i texturestreamingapplication.obj
 0001:000009a0       ??2@YAPAXI@Z               004019a0 f i texturestreamingapplication.obj
 0001:000009c0       ??_U@YAPAXI@Z              004019c0 f i texturestreamingapplication.obj
 0001:000009e0       ??3@YAXPAX@Z               004019e0 f i texturestreamingapplication.obj
 0001:00000a00       ??_V@YAXPAX@Z              00401a00 f i texturestreamingapplication.obj
 0001:00000a20       ?Free@Win360Heap@Win360@@QAEXPAX@Z 00401a20 f i texturestreamingapplication.obj
 0001:00000aa0       ?n_rand@Math@@YAMXZ        00401aa0 f i texturestreamingapplication.obj
 0001:00000ac0       ?n_deg2rad@Math@@YAMM@Z    00401ac0 f i texturestreamingapplication.obj
 0001:00000ae0       ??0float4@Math@@QAE@MMMM@Z 00401ae0 f i texturestreamingapplication.obj
 0001:00000b30       ??0float4@Math@@QAE@T__m128@@@Z 00401b30 f i texturestreamingapplication.obj
 0001:00000b60       ?set_w@float4@Math@@QAEXM@Z 00401b60 f i texturestreamingapplication.obj
 0001:00000c10       ?multiply@float4@Math@@SA?AV12@ABV12@0@Z 00401c10 f i texturestreamingapplication.obj
 0001:00000c60       ??0float2@Math@@QAE@MM@Z   00401c60 f i texturestreamingapplication.obj
 0001:00000c90       ??4float2@Math@@QAEXABV01@@Z 00401c90 f i texturestreamingapplication.obj
 0001:00000cc0       ?set@float2@Math@@QAEXMM@Z 00401cc0 f i texturestreamingapplication.obj
 0001:00000ce0       ??0vector@Math@@QAE@MMM@Z  00401ce0 f i texturestreamingapplication.obj
 0001:00000d40       ??0vector@Math@@QAE@T__m128@@@Z 00401d40 f i texturestreamingapplication.obj
 0001:00000d70       ?upvec@vector@Math@@SA?AV12@XZ 00401d70 f i texturestreamingapplication.obj
 0001:00000e00       ??Gvector@Math@@QBE?AV01@XZ 00401e00 f i texturestreamingapplication.obj
 0001:00000e60       ??0point@Math@@QAE@MMM@Z   00401e60 f i texturestreamingapplication.obj
 0001:00000ec0       ??0matrix44@Math@@QAE@XZ   00401ec0 f i texturestreamingapplication.obj
 0001:00000f60       ??0matrix44@Math@@QAE@ABU_XMMATRIX@@@Z 00401f60 f i texturestreamingapplication.obj
 0001:00000f90       ??4matrix44@Math@@QAEXABV01@@Z 00401f90 f i texturestreamingapplication.obj
 0001:00000fe0       ?set_position@matrix44@Math@@QAEXABVfloat4@2@@Z 00401fe0 f i texturestreamingapplication.obj
 0001:00001010       ?get_position@matrix44@Math@@QBEABVfloat4@2@XZ 00402010 f i texturestreamingapplication.obj
 0001:00001030       ?scale@matrix44@Math@@QAEXABVfloat4@2@@Z 00402030 f i texturestreamingapplication.obj
 0001:00001370       ?multiply@matrix44@Math@@SA?AV12@ABV12@0@Z 00402370 f i texturestreamingapplication.obj
 0001:00001b70       ?rotationx@matrix44@Math@@SA?AV12@M@Z 00402b70 f i texturestreamingapplication.obj
 0001:00001bb0       ?scaling@matrix44@Math@@SA?AV12@ABVfloat4@2@@Z 00402bb0 f i texturestreamingapplication.obj
 0001:00001cb0       ?translation@matrix44@Math@@SA?AV12@MMM@Z 00402cb0 f i texturestreamingapplication.obj
 0001:00001d70       ?translation@matrix44@Math@@SA?AV12@ABVfloat4@2@@Z 00402d70 f i texturestreamingapplication.obj
 0001:00001e90       ??3String@Util@@SAXPAX@Z   00402e90 f i texturestreamingapplication.obj
 0001:00001eb0       ??0String@Util@@QAE@XZ     00402eb0 f i texturestreamingapplication.obj
 0001:00001ef0       ?Delete@String@Util@@AAEXXZ 00402ef0 f i texturestreamingapplication.obj
 0001:00001f40       ??1String@Util@@QAE@XZ     00402f40 f i texturestreamingapplication.obj
 0001:00001f90       ??0String@Util@@QAE@PBD@Z  00402f90 f i texturestreamingapplication.obj
 0001:00001fd0       ?AsCharPtr@String@Util@@QBEPBDXZ 00402fd0 f i texturestreamingapplication.obj
 0001:00002000       ??4String@Util@@QAEXABV01@@Z 00403000 f i texturestreamingapplication.obj
 0001:00002040       ?IsOpen@Application@App@@QBE_NXZ 00403040 f i texturestreamingapplication.obj
 0001:00002060       ?AddRef@RefCounted@Core@@QAEXXZ 00403060 f i texturestreamingapplication.obj
 0001:00002080       ?Release@RefCounted@Core@@QAEXXZ 00403080 f i texturestreamingapplication.obj
 0001:000020d0       ??0StringAtom@Util@@QAE@PBD@Z 004030d0 f i texturestreamingapplication.obj
 0001:00002100       ??0StringAtom@Util@@QAE@ABVString@1@@Z 00403100 f i texturestreamingapplication.obj
 0001:00002140       ??4StringAtom@Util@@QAEXABV01@@Z 00403140 f i texturestreamingapplication.obj
 0001:00002160       ?AsString@StringAtom@Util@@QBE?AVString@2@XZ 00403160 f i texturestreamingapplication.obj
 0001:000021b0       ??0URI@IO@@QAE@XZ          004031b0 f i texturestreamingapplication.obj
 0001:00002310       ??0URI@IO@@QAE@PBD@Z       00403310 f i texturestreamingapplication.obj
 0001:000024f0       ??4URI@IO@@QAEXABV01@@Z    004034f0 f i texturestreamingapplication.obj
 0001:000026f0       ??3Blob@Util@@SAXPAX@Z     004036f0 f i texturestreamingapplication.obj
 0001:00002710       ?IsValid@Blob@Util@@QBE_NXZ 00403710 f i texturestreamingapplication.obj
 0001:00002730       ?Delete@Blob@Util@@AAEXXZ  00403730 f i texturestreamingapplication.obj
 0001:00002810       ??1Blob@Util@@QAE@XZ       00403810 f i texturestreamingapplication.obj
 0001:00002830       ?Instance@IoServer@IO@@SAPAV12@XZ 00403830 f i texturestreamingapplication.obj
 0001:00002870       ??1URI@IO@@QAE@XZ          00403870 f i texturestreamingapplication.obj
 0001:00002a70       ?IsAttachedToResourceManager@ResourceMapper@Resources@@QBE_NXZ 00403a70 f i texturestreamingapplication.obj
 0001:00002a90       ?SetPlaceholderResourceId@ResourceMapper@Resources@@QAEXABVStringAtom@Util@@@Z 00403a90 f i texturestreamingapplication.obj
 0001:00002ad0       ?SetAsyncEnabled@ResourceMapper@Resources@@QAEX_N@Z 00403ad0 f i texturestreamingapplication.obj
 0001:00002af0       ??_H@YGXPAXIHP6EPAX0@Z@Z   00403af0 f i texturestreamingapplication.obj
 0001:00002b20       ?SetVerticalSyncEnabled@DisplaySettings@Graphics@@QAEX_N@Z 00403b20 f i texturestreamingapplication.obj
 0001:00002b40       ?Settings@Display@Graphics@@QAEAAVDisplaySettings@2@XZ 00403b40 f i texturestreamingapplication.obj
 0001:00002b60       ?SetResourceMappers@Display@Graphics@@QAEXABV?$Array@V?$Ptr@VResourceMapper@Resources@@@@@Util@@@Z 00403b60 f i texturestreamingapplication.obj
 0001:00002b80       ?GetDefaultKeyboard@InputServerBase@Base@@QBEABV?$Ptr@VKeyboard@Input@@@@XZ 00403b80 f i texturestreamingapplication.obj
 0001:00002bc0       ?Instance@InputServer@Input@@SAPAV12@XZ 00403bc0 f i texturestreamingapplication.obj
 0001:00002bf0       ?GetFrameTime@RenderApplication@App@@IBENXZ 00403bf0 f i texturestreamingapplication.obj
 0001:00002c10       ?GetTransform@GraphicsEntity@Graphics@@QBEABVmatrix44@Math@@XZ 00403c10 f i texturestreamingapplication.obj
 0001:00002c30       ?SetOrbiting@MayaCameraUtil@RenderUtil@@QAEXABVfloat2@Math@@@Z 00403c30 f i texturestreamingapplication.obj
 0001:00002c60       ?Instance@DebugTextRenderer@Debug@@SAPAV12@XZ 00403c60 f i texturestreamingapplication.obj
 0001:00002ca0       ?SetResourceId@ModelEntity@Graphics@@QAEXABVStringAtom@Util@@@Z 00403ca0 f i texturestreamingapplication.obj
 0001:00002cc0       ?GetResourceId@ModelEntity@Graphics@@QBEABVStringAtom@Util@@XZ 00403cc0 f i texturestreamingapplication.obj
 0001:00002ce0       ?SetResourceLoaderClass@StreamingResourceMapper@Resources@@QAEXABVRtti@Core@@@Z 00403ce0 f i texturestreamingapplication.obj
 0001:00002d00       ?SetAutoMipMapping@StreamingResourceMapper@Resources@@QAEX_N@Z 00403d00 f i texturestreamingapplication.obj
 0001:00002d20       ?SetResourceCreatorClass@PoolResourceMapper@Resources@@QAEXABVRtti@Core@@@Z 00403d20 f i texturestreamingapplication.obj
 0001:00002d40       ?KeyPressed@KeyboardBase@Base@@QBE_NW4Code@Key@Input@@@Z 00403d40 f i texturestreamingapplication.obj
 0001:00002d60       ?KeyDown@KeyboardBase@Base@@QBE_NW4Code@Key@Input@@@Z 00403d60 f i texturestreamingapplication.obj
 0001:00002d80       ?SetResourceClass@SimpleResourceMapper@Resources@@QAEXABVRtti@Core@@@Z 00403d80 f i texturestreamingapplication.obj
 0001:00002dc0       ?SetResourceLoaderClass@SimpleResourceMapper@Resources@@QAEXABVRtti@Core@@@Z 00403dc0 f i texturestreamingapplication.obj
 0001:00002e00       ?SetManagedResourceClass@SimpleResourceMapper@Resources@@QAEXABVRtti@Core@@@Z 00403e00 f i texturestreamingapplication.obj
 0001:00002e40       ?Instance@FrameCaptureRenderModule@FrameCapture@@SAPAV12@XZ 00403e40 f i texturestreamingapplication.obj
 0001:00002e80       ??0TextureStreamingApplication@Tests@@QAE@XZ 00403e80 f   texturestreamingapplication.obj
 0001:00003030       ??_ETextureStreamingApplication@Tests@@UAEPAXI@Z 00404030 f i  CIL library: CIL module
 0001:00003030       ??_GTextureStreamingApplication@Tests@@UAEPAXI@Z 00404030 f i texturestreamingapplication.obj
 0001:00003060       ??1TextureStreamingApplication@Tests@@UAE@XZ 00404060 f   texturestreamingapplication.obj
 0001:00003120       ?Open@TextureStreamingApplication@Tests@@UAE_NXZ 00404120 f   texturestreamingapplication.obj
 0001:00004d30       ?OnConfigureDisplay@TextureStreamingApplication@Tests@@EAEXXZ 00405d30 f   texturestreamingapplication.obj
 0001:00004d60       ?Close@TextureStreamingApplication@Tests@@UAEXXZ 00405d60 f   texturestreamingapplication.obj
 0001:00004fa0       ?OnSetupResourceMappers@TextureStreamingApplication@Tests@@MAEXXZ 00405fa0 f   texturestreamingapplication.obj
 0001:00005550       ??1?$Dictionary@VStringAtom@Util@@UPoolSetupInfo@Resources@@@Util@@QAE@XZ 00406550 f i texturestreamingapplication.obj
 0001:00005570       ?OnProcessInput@TextureStreamingApplication@Tests@@EAEXXZ 00406570 f   texturestreamingapplication.obj
 0001:00008320       ?OnUpdateFrame@TextureStreamingApplication@Tests@@EAEXXZ 00409320 f   texturestreamingapplication.obj
 0001:00008650       ?AppendTestModel@TextureStreamingApplication@Tests@@EAEXXZ 00409650 f   texturestreamingapplication.obj
 0001:00008af0       ??0?$Array@Vmatrix44@Math@@@Util@@QAE@XZ 00409af0 f i texturestreamingapplication.obj
 0001:00008b30       ??1?$Array@Vmatrix44@Math@@@Util@@QAE@XZ 00409b30 f i texturestreamingapplication.obj
 0001:00008b50       ?Append@?$Array@Vmatrix44@Math@@@Util@@QAEXABVmatrix44@Math@@@Z 00409b50 f i texturestreamingapplication.obj
 0001:00008c00       ??0?$Array@V?$Ptr@VResourceMapper@Resources@@@@@Util@@QAE@XZ 00409c00 f i texturestreamingapplication.obj
 0001:00008c40       ??1?$Array@V?$Ptr@VResourceMapper@Resources@@@@@Util@@QAE@XZ 00409c40 f i texturestreamingapplication.obj
 0001:00008c60       ??4?$Array@V?$Ptr@VResourceMapper@Resources@@@@@Util@@QAEXABV01@@Z 00409c60 f i texturestreamingapplication.obj
 0001:00008d50       ?Append@?$Array@V?$Ptr@VResourceMapper@Resources@@@@@Util@@QAEXABV?$Ptr@VResourceMapper@Resources@@@@@Z 00409d50 f i texturestreamingapplication.obj
 0001:00008dd0       ??0?$Ptr@VPoolResourceMapper@Resources@@@@QAE@PAVPoolResourceMapper@Resources@@@Z 00409dd0 f i texturestreamingapplication.obj
 0001:00008e10       ??1?$Ptr@VPoolResourceMapper@Resources@@@@QAE@XZ 00409e10 f i texturestreamingapplication.obj
 0001:00008e40       ??C?$Ptr@VPoolResourceMapper@Resources@@@@QBEPAVPoolResourceMapper@Resources@@XZ 00409e40 f i texturestreamingapplication.obj
 0001:00008e80       ??4?$Ptr@VResourceMapper@Resources@@@@QAEXABV0@@Z 00409e80 f i texturestreamingapplication.obj
 0001:00008ee0       ??C?$Ptr@VKeyboard@Input@@@@QBEPAVKeyboard@Input@@XZ 00409ee0 f i texturestreamingapplication.obj
 0001:00008f20       ??C?$Ptr@VDisplay@Graphics@@@@QBEPAVDisplay@Graphics@@XZ 00409f20 f i texturestreamingapplication.obj
 0001:00008f60       ??C?$Ptr@VStage@Graphics@@@@QBEPAVStage@Graphics@@XZ 00409f60 f i texturestreamingapplication.obj
 0001:00008fa0       ??0?$Ptr@VResourceScheduler@Resources@@@@QAE@PAVResourceScheduler@Resources@@@Z 00409fa0 f i texturestreamingapplication.obj
 0001:00008fe0       ??1?$Ptr@VResourceScheduler@Resources@@@@QAE@XZ 00409fe0 f i texturestreamingapplication.obj
 0001:00009010       ??0?$Ptr@VPoolScheduler@Resources@@@@QAE@PAVPoolScheduler@Resources@@@Z 0040a010 f i texturestreamingapplication.obj
 0001:00009050       ??1?$Ptr@VPoolScheduler@Resources@@@@QAE@XZ 0040a050 f i texturestreamingapplication.obj
 0001:00009080       ??0?$Ptr@VModelEntity@Graphics@@@@QAE@PAVModelEntity@Graphics@@@Z 0040a080 f i texturestreamingapplication.obj
 0001:000090c0       ??0?$Ptr@VModelEntity@Graphics@@@@QAE@XZ 0040a0c0 f i texturestreamingapplication.obj
 0001:000090e0       ??1?$Ptr@VModelEntity@Graphics@@@@QAE@XZ 0040a0e0 f i texturestreamingapplication.obj
 0001:00009110       ??4?$Ptr@VModelEntity@Graphics@@@@QAEXPAVModelEntity@Graphics@@@Z 0040a110 f i texturestreamingapplication.obj
 0001:00009170       ??C?$Ptr@VModelEntity@Graphics@@@@QBEPAVModelEntity@Graphics@@XZ 0040a170 f i texturestreamingapplication.obj
 0001:000091b0       ??0?$Array@V?$Ptr@VModelEntity@Graphics@@@@@Util@@QAE@XZ 0040a1b0 f i texturestreamingapplication.obj
 0001:000091f0       ??1?$Array@V?$Ptr@VModelEntity@Graphics@@@@@Util@@QAE@XZ 0040a1f0 f i texturestreamingapplication.obj
 0001:00009210       ??A?$Array@V?$Ptr@VModelEntity@Graphics@@@@@Util@@QBEAAV?$Ptr@VModelEntity@Graphics@@@@H@Z 0040a210 f i texturestreamingapplication.obj
 0001:00009260       ?Append@?$Array@V?$Ptr@VModelEntity@Graphics@@@@@Util@@QAEXABV?$Ptr@VModelEntity@Graphics@@@@@Z 0040a260 f i texturestreamingapplication.obj
 0001:000092e0       ?Size@?$Array@V?$Ptr@VModelEntity@Graphics@@@@@Util@@QBEHXZ 0040a2e0 f i texturestreamingapplication.obj
 0001:00009300       ?EraseIndex@?$Array@V?$Ptr@VModelEntity@Graphics@@@@@Util@@QAEXH@Z 0040a300 f i texturestreamingapplication.obj
 0001:00009380       ?Clear@?$Array@V?$Ptr@VModelEntity@Graphics@@@@@Util@@QAEXXZ 0040a380 f i texturestreamingapplication.obj
 0001:000093d0       ??0?$Ptr@VGlobalLightEntity@Graphics@@@@QAE@XZ 0040a3d0 f i texturestreamingapplication.obj
 0001:000093f0       ??1?$Ptr@VGlobalLightEntity@Graphics@@@@QAE@XZ 0040a3f0 f i texturestreamingapplication.obj
 0001:00009420       ??4?$Ptr@VGlobalLightEntity@Graphics@@@@QAEXPAVGlobalLightEntity@Graphics@@@Z 0040a420 f i texturestreamingapplication.obj
 0001:00009480       ??C?$Ptr@VGlobalLightEntity@Graphics@@@@QBEPAVGlobalLightEntity@Graphics@@XZ 0040a480 f i texturestreamingapplication.obj
 0001:000094c0       ??0?$Array@V?$Ptr@VPointLightEntity@Graphics@@@@@Util@@QAE@XZ 0040a4c0 f i texturestreamingapplication.obj
 0001:00009500       ??1?$Array@V?$Ptr@VPointLightEntity@Graphics@@@@@Util@@QAE@XZ 0040a500 f i texturestreamingapplication.obj
 0001:00009520       ??A?$Array@V?$Ptr@VPointLightEntity@Graphics@@@@@Util@@QBEAAV?$Ptr@VPointLightEntity@Graphics@@@@H@Z 0040a520 f i texturestreamingapplication.obj
 0001:00009570       ?Append@?$Array@V?$Ptr@VPointLightEntity@Graphics@@@@@Util@@QAEXABV?$Ptr@VPointLightEntity@Graphics@@@@@Z 0040a570 f i texturestreamingapplication.obj
 0001:000095f0       ?Size@?$Array@V?$Ptr@VPointLightEntity@Graphics@@@@@Util@@QBEHXZ 0040a5f0 f i texturestreamingapplication.obj
 0001:00009610       ?Clear@?$Array@V?$Ptr@VPointLightEntity@Graphics@@@@@Util@@QAEXXZ 0040a610 f i texturestreamingapplication.obj
 0001:00009660       ??0?$Ptr@VSpotLightEntity@Graphics@@@@QAE@PAVSpotLightEntity@Graphics@@@Z 0040a660 f i texturestreamingapplication.obj
 0001:000096a0       ??0?$Ptr@VSpotLightEntity@Graphics@@@@QAE@XZ 0040a6a0 f i texturestreamingapplication.obj
 0001:000096c0       ??1?$Ptr@VSpotLightEntity@Graphics@@@@QAE@XZ 0040a6c0 f i texturestreamingapplication.obj
 0001:000096f0       ??4?$Ptr@VSpotLightEntity@Graphics@@@@QAEXPAVSpotLightEntity@Graphics@@@Z 0040a6f0 f i texturestreamingapplication.obj
 0001:00009750       ??C?$Ptr@VSpotLightEntity@Graphics@@@@QBEPAVSpotLightEntity@Graphics@@XZ 0040a750 f i texturestreamingapplication.obj
 0001:00009790       ??0?$Array@V?$Ptr@VSpotLightEntity@Graphics@@@@@Util@@QAE@XZ 0040a790 f i texturestreamingapplication.obj
 0001:000097d0       ??1?$Array@V?$Ptr@VSpotLightEntity@Graphics@@@@@Util@@QAE@XZ 0040a7d0 f i texturestreamingapplication.obj
 0001:000097f0       ??A?$Array@V?$Ptr@VSpotLightEntity@Graphics@@@@@Util@@QBEAAV?$Ptr@VSpotLightEntity@Graphics@@@@H@Z 0040a7f0 f i texturestreamingapplication.obj
 0001:00009840       ?Append@?$Array@V?$Ptr@VSpotLightEntity@Graphics@@@@@Util@@QAEXABV?$Ptr@VSpotLightEntity@Graphics@@@@@Z 0040a840 f i texturestreamingapplication.obj
 0001:000098c0       ?Size@?$Array@V?$Ptr@VSpotLightEntity@Graphics@@@@@Util@@QBEHXZ 0040a8c0 f i texturestreamingapplication.obj
 0001:000098e0       ?Clear@?$Array@V?$Ptr@VSpotLightEntity@Graphics@@@@@Util@@QAEXXZ 0040a8e0 f i texturestreamingapplication.obj
 0001:00009930       ??0?$Ptr@VPointLightEntity@Graphics@@@@QAE@PAVPointLightEntity@Graphics@@@Z 0040a930 f i texturestreamingapplication.obj
 0001:00009970       ??0?$Ptr@VPointLightEntity@Graphics@@@@QAE@XZ 0040a970 f i texturestreamingapplication.obj
 0001:00009990       ??1?$Ptr@VPointLightEntity@Graphics@@@@QAE@XZ 0040a990 f i texturestreamingapplication.obj
 0001:000099c0       ??4?$Ptr@VPointLightEntity@Graphics@@@@QAEXPAVPointLightEntity@Graphics@@@Z 0040a9c0 f i texturestreamingapplication.obj
 0001:00009a20       ??4?$Ptr@VPointLightEntity@Graphics@@@@QAEXABV0@@Z 0040aa20 f i texturestreamingapplication.obj
 0001:00009a80       ??C?$Ptr@VPointLightEntity@Graphics@@@@QBEPAVPointLightEntity@Graphics@@XZ 0040aa80 f i texturestreamingapplication.obj
 0001:00009ac0       ??0?$Array@N@Util@@QAE@XZ  0040aac0 f i texturestreamingapplication.obj
 0001:00009b00       ??1?$Array@N@Util@@QAE@XZ  0040ab00 f i texturestreamingapplication.obj
 0001:00009b20       ??A?$FixedArray@VKeyState@KeyboardBase@Base@@@Util@@QBEAAVKeyState@KeyboardBase@Base@@H@Z 0040ab20 f i texturestreamingapplication.obj
 0001:00009b70       ??$cast@VGraphicsEntity@Graphics@@@?$Ptr@VGlobalLightEntity@Graphics@@@@QBEABV?$Ptr@VGraphicsEntity@Graphics@@@@XZ 0040ab70 f i texturestreamingapplication.obj
 0001:00009b80       ??$cast@VGraphicsEntity@Graphics@@@?$Ptr@VPointLightEntity@Graphics@@@@QBEABV?$Ptr@VGraphicsEntity@Graphics@@@@XZ 0040ab80 f i texturestreamingapplication.obj
 0001:00009b90       ??$cast@VGraphicsEntity@Graphics@@@?$Ptr@VSpotLightEntity@Graphics@@@@QBEABV?$Ptr@VGraphicsEntity@Graphics@@@@XZ 0040ab90 f i texturestreamingapplication.obj
 0001:00009ba0       ??$cast@VGraphicsEntity@Graphics@@@?$Ptr@VModelEntity@Graphics@@@@QBEABV?$Ptr@VGraphicsEntity@Graphics@@@@XZ 0040aba0 f i texturestreamingapplication.obj
 0001:00009bb0       ??0?$Ptr@VFrameCaptureRenderModule@FrameCapture@@@@QAE@PAVFrameCaptureRenderModule@FrameCapture@@@Z 0040abb0 f i texturestreamingapplication.obj
 0001:00009bf0       ??1?$Ptr@VFrameCaptureRenderModule@FrameCapture@@@@QAE@XZ 0040abf0 f i texturestreamingapplication.obj
 0001:00009c20       ??C?$Ptr@VFrameCaptureRenderModule@FrameCapture@@@@QBEPAVFrameCaptureRenderModule@FrameCapture@@XZ 0040ac20 f i texturestreamingapplication.obj
 0001:00009c60       ??1?$Array@V?$KeyValuePair@VStringAtom@Util@@UPoolSetupInfo@Resources@@@Util@@@Util@@QAE@XZ 0040ac60 f i texturestreamingapplication.obj
 0001:00009c80       ??0?$Dictionary@VStringAtom@Util@@UPoolSetupInfo@Resources@@@Util@@QAE@XZ 0040ac80 f i texturestreamingapplication.obj
 0001:00009ca0       ?Clear@?$Dictionary@VStringAtom@Util@@UPoolSetupInfo@Resources@@@Util@@QAEXXZ 0040aca0 f i texturestreamingapplication.obj
 0001:00009ce0       ??$upcast@VResourceMapper@Resources@@@?$Ptr@VPoolResourceMapper@Resources@@@@QBEABV?$Ptr@VResourceMapper@Resources@@@@XZ 0040ace0 f i texturestreamingapplication.obj
 0001:00009cf0       ??0?$Ptr@VSimpleResourceMapper@Resources@@@@QAE@PAVSimpleResourceMapper@Resources@@@Z 0040acf0 f i texturestreamingapplication.obj
 0001:00009d30       ??1?$Ptr@VSimpleResourceMapper@Resources@@@@QAE@XZ 0040ad30 f i texturestreamingapplication.obj
 0001:00009d60       ??C?$Ptr@VSimpleResourceMapper@Resources@@@@QBEPAVSimpleResourceMapper@Resources@@XZ 0040ad60 f i texturestreamingapplication.obj
 0001:00009da0       ??$upcast@VResourceMapper@Resources@@@?$Ptr@VSimpleResourceMapper@Resources@@@@QBEABV?$Ptr@VResourceMapper@Resources@@@@XZ 0040ada0 f i texturestreamingapplication.obj
 0001:00009db0       ??1?$Ptr@VGamePad@Input@@@@QAE@XZ 0040adb0 f i texturestreamingapplication.obj
 0001:00009de0       ??_EString@Util@@QAEPAXI@Z 0040ade0 f i texturestreamingapplication.obj
 0001:00009ef0       ??1?$KeyValuePair@VStringAtom@Util@@V?$Ptr@VRenderTarget@CoreGraphics@@@@@Util@@QAE@XZ 0040aef0 f i texturestreamingapplication.obj
 0001:00009f10       ??1?$KeyValuePair@VStringAtom@Util@@V?$Ptr@VMultipleRenderTarget@CoreGraphics@@@@@Util@@QAE@XZ 0040af10 f i texturestreamingapplication.obj
 0001:00009f30       ??1?$KeyValuePair@VStringAtom@Util@@V?$Ptr@VManagedTexture@Resources@@@@@Util@@QAE@XZ 0040af30 f i texturestreamingapplication.obj
 0001:00009f50       ??_I@YGXPAXIHP6EX0@Z@Z     0040af50 f i texturestreamingapplication.obj
 0001:00009f80       ?Delete@?$Array@Vmatrix44@Math@@@Util@@AAEXXZ 0040af80 f i texturestreamingapplication.obj
 0001:00009fe0       ?Grow@?$Array@Vmatrix44@Math@@@Util@@AAEXXZ 0040afe0 f i texturestreamingapplication.obj
 0001:0000a060       ?Destroy@?$Array@V?$Ptr@VResourceMapper@Resources@@@@@Util@@AAEXPAV?$Ptr@VResourceMapper@Resources@@@@@Z 0040b060 f i texturestreamingapplication.obj
 0001:0000a090       ?Copy@?$Array@V?$Ptr@VResourceMapper@Resources@@@@@Util@@AAEXABV12@@Z 0040b090 f i texturestreamingapplication.obj
 0001:0000a1c0       ?Delete@?$Array@V?$Ptr@VResourceMapper@Resources@@@@@Util@@AAEXXZ 0040b1c0 f i texturestreamingapplication.obj
 0001:0000a230       ?Grow@?$Array@V?$Ptr@VResourceMapper@Resources@@@@@Util@@AAEXXZ 0040b230 f i texturestreamingapplication.obj
 0001:0000a2b0       ??1?$Ptr@VRenderTarget@CoreGraphics@@@@QAE@XZ 0040b2b0 f i texturestreamingapplication.obj
 0001:0000a2e0       ??1?$Ptr@VMultipleRenderTarget@CoreGraphics@@@@QAE@XZ 0040b2e0 f i texturestreamingapplication.obj
 0001:0000a310       ??4?$Ptr@VModelEntity@Graphics@@@@QAEXABV0@@Z 0040b310 f i texturestreamingapplication.obj
 0001:0000a370       ?Destroy@?$Array@V?$Ptr@VModelEntity@Graphics@@@@@Util@@AAEXPAV?$Ptr@VModelEntity@Graphics@@@@@Z 0040b370 f i texturestreamingapplication.obj
 0001:0000a3a0       ?Delete@?$Array@V?$Ptr@VModelEntity@Graphics@@@@@Util@@AAEXXZ 0040b3a0 f i texturestreamingapplication.obj
 0001:0000a410       ?Grow@?$Array@V?$Ptr@VModelEntity@Graphics@@@@@Util@@AAEXXZ 0040b410 f i texturestreamingapplication.obj
 0001:0000a490       ?Move@?$Array@V?$Ptr@VModelEntity@Graphics@@@@@Util@@AAEXHH@Z 0040b490 f i texturestreamingapplication.obj
 0001:0000a620       ?Destroy@?$Array@V?$Ptr@VPointLightEntity@Graphics@@@@@Util@@AAEXPAV?$Ptr@VPointLightEntity@Graphics@@@@@Z 0040b620 f i texturestreamingapplication.obj
 0001:0000a650       ?Delete@?$Array@V?$Ptr@VPointLightEntity@Graphics@@@@@Util@@AAEXXZ 0040b650 f i texturestreamingapplication.obj
 0001:0000a6c0       ?Grow@?$Array@V?$Ptr@VPointLightEntity@Graphics@@@@@Util@@AAEXXZ 0040b6c0 f i texturestreamingapplication.obj
 0001:0000a740       ??4?$Ptr@VSpotLightEntity@Graphics@@@@QAEXABV0@@Z 0040b740 f i texturestreamingapplication.obj
 0001:0000a7a0       ?Destroy@?$Array@V?$Ptr@VSpotLightEntity@Graphics@@@@@Util@@AAEXPAV?$Ptr@VSpotLightEntity@Graphics@@@@@Z 0040b7a0 f i texturestreamingapplication.obj
 0001:0000a7d0       ?Delete@?$Array@V?$Ptr@VSpotLightEntity@Graphics@@@@@Util@@AAEXXZ 0040b7d0 f i texturestreamingapplication.obj
 0001:0000a840       ?Grow@?$Array@V?$Ptr@VSpotLightEntity@Graphics@@@@@Util@@AAEXXZ 0040b840 f i texturestreamingapplication.obj
 0001:0000a8c0       ?Delete@?$Array@N@Util@@AAEXXZ 0040b8c0 f i texturestreamingapplication.obj
 0001:0000a920       ??0?$Array@V?$KeyValuePair@VStringAtom@Util@@UPoolSetupInfo@Resources@@@Util@@@Util@@QAE@XZ 0040b920 f i texturestreamingapplication.obj
 0001:0000a960       ?Clear@?$Array@V?$KeyValuePair@VStringAtom@Util@@UPoolSetupInfo@Resources@@@Util@@@Util@@QAEXXZ 0040b960 f i texturestreamingapplication.obj
 0001:0000a9b0       ?Delete@?$Array@V?$KeyValuePair@VStringAtom@Util@@UPoolSetupInfo@Resources@@@Util@@@Util@@AAEXXZ 0040b9b0 f i texturestreamingapplication.obj
 0001:0000aa10       ??1?$Ptr@VManagedTexture@Resources@@@@QAE@XZ 0040ba10 f i texturestreamingapplication.obj
 0001:0000aa40       ??_E?$Ptr@VConsoleHandler@IO@@@@QAEPAXI@Z 0040ba40 f i texturestreamingapplication.obj
 0001:0000aae0       ??_EBlob@Util@@QAEPAXI@Z   0040bae0 f i texturestreamingapplication.obj
 0001:0000ab80       ??_G?$Ptr@VResourceMapper@Resources@@@@QAEPAXI@Z 0040bb80 f i texturestreamingapplication.obj
 0001:0000abb0       ??_E?$Ptr@VResourceMapper@Resources@@@@QAEPAXI@Z 0040bbb0 f i texturestreamingapplication.obj
 0001:0000ac50       ??_E?$Ptr@VVisibilitySystemBase@Visibility@@@@QAEPAXI@Z 0040bc50 f i texturestreamingapplication.obj
 0001:0000acf0       ??_ERenderShape@CoreGraphics@@QAEPAXI@Z 0040bcf0 f i texturestreamingapplication.obj
 0001:0000ada0       ??_ETextElement@CoreGraphics@@QAEPAXI@Z 0040bda0 f i texturestreamingapplication.obj
 0001:0000ae40       ??_G?$Ptr@VModelEntity@Graphics@@@@QAEPAXI@Z 0040be40 f i texturestreamingapplication.obj
 0001:0000ae70       ??_E?$Ptr@VModelEntity@Graphics@@@@QAEPAXI@Z 0040be70 f i texturestreamingapplication.obj
 0001:0000af10       ??_G?$Ptr@VPointLightEntity@Graphics@@@@QAEPAXI@Z 0040bf10 f i texturestreamingapplication.obj
 0001:0000af40       ??_E?$Ptr@VPointLightEntity@Graphics@@@@QAEPAXI@Z 0040bf40 f i texturestreamingapplication.obj
 0001:0000afe0       ??_G?$Ptr@VSpotLightEntity@Graphics@@@@QAEPAXI@Z 0040bfe0 f i texturestreamingapplication.obj
 0001:0000b010       ??_E?$Ptr@VSpotLightEntity@Graphics@@@@QAEPAXI@Z 0040c010 f i texturestreamingapplication.obj
 0001:0000b0b0       ??1RenderShape@CoreGraphics@@QAE@XZ 0040c0b0 f i texturestreamingapplication.obj
 0001:0000b0d0       ??1TextElement@CoreGraphics@@QAE@XZ 0040c0d0 f i texturestreamingapplication.obj
 0001:0000b130       ??1?$Ptr@VConsoleHandler@IO@@@@QAE@XZ 0040c130 f i texturestreamingapplication.obj
 0001:0000b160       ?GrowTo@?$Array@Vmatrix44@Math@@@Util@@AAEXH@Z 0040c160 f i texturestreamingapplication.obj
 0001:0000b380       ?GrowTo@?$Array@V?$Ptr@VResourceMapper@Resources@@@@@Util@@AAEXH@Z 0040c380 f i texturestreamingapplication.obj
 0001:0000b4a0       ??0?$Ptr@VResourceMapper@Resources@@@@QAE@XZ 0040c4a0 f i texturestreamingapplication.obj
 0001:0000b4c0       ??1?$Ptr@VResourceMapper@Resources@@@@QAE@XZ 0040c4c0 f i texturestreamingapplication.obj
 0001:0000b4f0       ??1?$Ptr@VVisibilitySystemBase@Visibility@@@@QAE@XZ 0040c4f0 f i texturestreamingapplication.obj
 0001:0000b520       ??1?$Ptr@VMemoryStream@IO@@@@QAE@XZ 0040c520 f i texturestreamingapplication.obj
 0001:0000b550       ?GrowTo@?$Array@V?$Ptr@VModelEntity@Graphics@@@@@Util@@AAEXH@Z 0040c550 f i texturestreamingapplication.obj
 0001:0000b670       ?GrowTo@?$Array@V?$Ptr@VPointLightEntity@Graphics@@@@@Util@@AAEXH@Z 0040c670 f i texturestreamingapplication.obj
 0001:0000b790       ?GrowTo@?$Array@V?$Ptr@VSpotLightEntity@Graphics@@@@@Util@@AAEXH@Z 0040c790 f i texturestreamingapplication.obj
 0001:0000b8b0       ?Destroy@?$Array@V?$KeyValuePair@VStringAtom@Util@@UPoolSetupInfo@Resources@@@Util@@@Util@@AAEXPAV?$KeyValuePair@VStringAtom@Util@@UPoolSetupInfo@Resources@@@2@@Z 0040c8b0 f i texturestreamingapplication.obj
 0001:0000b8c0       ??_E?$Ptr@VInternalGraphicsEntity@InternalGraphics@@@@QAEPAXI@Z 0040c8c0 f i texturestreamingapplication.obj
 0001:0000b960       ??_E?$Ptr@VShaderVariableInstance@CoreGraphics@@@@QAEPAXI@Z 0040c960 f i texturestreamingapplication.obj
 0001:0000ba00       ??_E?$Ptr@VFrameBatch@Frame@@@@QAEPAXI@Z 0040ca00 f i texturestreamingapplication.obj
 0001:0000baa0       ??_E?$Ptr@VFramePassBase@Frame@@@@QAEPAXI@Z 0040caa0 f i texturestreamingapplication.obj
 0001:0000bb40       ??1?$Ptr@VInternalGraphicsEntity@InternalGraphics@@@@QAE@XZ 0040cb40 f i texturestreamingapplication.obj
 0001:0000bb70       ??1?$Ptr@VShaderVariableInstance@CoreGraphics@@@@QAE@XZ 0040cb70 f i texturestreamingapplication.obj
 0001:0000bba0       ??1?$Ptr@VFrameBatch@Frame@@@@QAE@XZ 0040cba0 f i texturestreamingapplication.obj
 0001:0000bbd0       ??1?$Ptr@VFramePassBase@Frame@@@@QAE@XZ 0040cbd0 f i texturestreamingapplication.obj
 0001:0000bc00       ??_E?$Ptr@VModel@Models@@@@QAEPAXI@Z 0040cc00 f i texturestreamingapplication.obj
 0001:0000bca0       ??_E?$KeyValuePair@VStringAtom@Util@@V?$Ptr@VRenderTarget@CoreGraphics@@@@@Util@@QAEPAXI@Z 0040cca0 f i texturestreamingapplication.obj
 0001:0000bd40       ??_E?$KeyValuePair@VStringAtom@Util@@V?$Ptr@VMultipleRenderTarget@CoreGraphics@@@@@Util@@QAEPAXI@Z 0040cd40 f i texturestreamingapplication.obj
 0001:0000bde0       ??_E?$KeyValuePair@VStringAtom@Util@@V?$Ptr@VManagedTexture@Resources@@@@@Util@@QAEPAXI@Z 0040cde0 f i texturestreamingapplication.obj
 0001:0000be80       ??1?$Ptr@VModel@Models@@@@QAE@XZ 0040ce80 f i texturestreamingapplication.obj
 0001:0000beb0       ?XMMatrixTranslationFromVector@@YA?AU_XMMATRIX@@T__m128@@@Z 0040ceb0 f i texturestreamingapplication.obj
 0001:0000bfa0       ?XMMatrixTranslation@@YA?AU_XMMATRIX@@MMM@Z 0040cfa0 f i texturestreamingapplication.obj
 0001:0000c040       ?XMMatrixScalingFromVector@@YA?AU_XMMATRIX@@T__m128@@@Z 0040d040 f i texturestreamingapplication.obj
 0001:0000c120       ?XMMatrixRotationX@@YA?AU_XMMATRIX@@M@Z 0040d120 f i texturestreamingapplication.obj
 0001:0000c2a0       ?XMMatrixMultiply@@YA?AU_XMMATRIX@@ABU1@0@Z 0040d2a0 f i texturestreamingapplication.obj
 0001:0000ca80       ??4_XMMATRIX@@QAEAAU0@ABU0@@Z 0040da80 f i texturestreamingapplication.obj
 0001:0000cae0       ??0_XMMATRIX@@QAE@XZ       0040dae0 f i texturestreamingapplication.obj
 0001:0000caf0       ?XMMatrixIdentity@@YA?AU_XMMATRIX@@XZ 0040daf0 f i texturestreamingapplication.obj
 0001:0000cb80       ??BXMVECTORI32@@QBE?AT__m128@@XZ 0040db80 f i texturestreamingapplication.obj
 0001:0000cbb0       ??BXMVECTORF32@@QBE?AT__m128@@XZ 0040dbb0 f i texturestreamingapplication.obj
 0001:0000cbe0       ?XMVectorSetWPtr@@YA?AT__m128@@T1@PBM@Z 0040dbe0 f i texturestreamingapplication.obj
 0001:0000cc70       ?XMVectorMultiply@@YA?AT__m128@@T1@0@Z 0040dc70 f i texturestreamingapplication.obj
 0001:0000cca0       ?XMVectorNegate@@YA?AT__m128@@T1@@Z 0040dca0 f i texturestreamingapplication.obj
 0001:0000cce0       ?XMVectorSet@@YA?AT__m128@@MMMM@Z 0040dce0 f i texturestreamingapplication.obj
 0001:0000cd20       _cosf                      0040dd20 f i texturestreamingapplication.obj
 0001:0000cd40       _sinf                      0040dd40 f i texturestreamingapplication.obj
 0001:0000cd60       ?SetCompanyName@Application@App@@QAEXABVString@Util@@@Z 0040dd60 f i texturestreamingviewer.obj
 0001:0000cdb0       ?SetAppTitle@Application@App@@QAEXABVString@Util@@@Z 0040ddb0 f i texturestreamingviewer.obj
 0001:0000ce00       ?SetCmdLineArgs@Application@App@@QAEXABVCommandLineArgs@Util@@@Z 0040de00 f i texturestreamingviewer.obj
 0001:0000ce30       ??4CommandLineArgs@Util@@QAEAAV01@ABV01@@Z 0040de30 f i texturestreamingviewer.obj
 0001:0000ce50       ??_GString@Util@@QAEPAXI@Z 0040de50 f i texturestreamingviewer.obj
 0001:0000cec0       _WinMain@16                0040dec0 f   texturestreamingviewer.obj
 0001:0000cf50       ??1CommandLineArgs@Util@@QAE@XZ 0040df50 f i texturestreamingviewer.obj
 0001:0000cf70       ?NebulaMain@@YAXABVCommandLineArgs@Util@@@Z 0040df70 f   texturestreamingviewer.obj
 0001:0000d110       ??1?$Array@VString@Util@@@Util@@QAE@XZ 0040e110 f i texturestreamingviewer.obj
 0001:0000d130       ??4?$Array@VString@Util@@@Util@@QAEXABV01@@Z 0040e130 f i texturestreamingviewer.obj
 0001:0000d260       ?Destroy@?$Array@VString@Util@@@Util@@AAEXPAVString@2@@Z 0040e260 f i texturestreamingviewer.obj
 0001:0000d280       ?Copy@?$Array@VString@Util@@@Util@@AAEXABV12@@Z 0040e280 f i texturestreamingviewer.obj
 0001:0000d400       ?Delete@?$Array@VString@Util@@@Util@@AAEXXZ 0040e400 f i texturestreamingviewer.obj
 0001:0000d470       ?Instance@Console@IO@@SAPAV12@XZ 0040e470 f i foundation_win32.release:debug.obj
 0001:0000d4a0       ?HasInstance@Console@IO@@SA_NXZ 0040e4a0 f i foundation_win32.release:debug.obj
 0001:0000d4c0       ?n_barf@@YAXPBD0H@Z        0040e4c0 f   foundation_win32.release:debug.obj
 0001:0000d560       ?n_barf2@@YAXPBD00H@Z      0040e560 f   foundation_win32.release:debug.obj
 0001:0000d600       ?n_error@@YAXPBDZZ         0040e600 f   foundation_win32.release:debug.obj
 0001:0000d6c0       ?n_warning@@YAXPBDZZ       0040e6c0 f   foundation_win32.release:debug.obj
 0001:0000d780       ?n_confirm@@YAXPBDZZ       0040e780 f   foundation_win32.release:debug.obj
 0001:0000d840       ?n_printf@@YAXPBDZZ        0040e840 f   foundation_win32.release:debug.obj
 0001:0000d890       ?n_dbgout@@YAXPBDZZ        0040e890 f   foundation_win32.release:debug.obj
 0001:0000d8e0       ?n_sleep@@YAXN@Z           0040e8e0 f   foundation_win32.release:debug.obj
 0001:0000d900       ?__HeapAlignPointerAndWritePadding16@Memory@@YAPAEPAE@Z 0040e900 f i foundation_win32.release:win360memory.obj
 0001:0000d930       ?__HeapAlloc16@Memory@@YAPAXPAXKK@Z 0040e930 f i foundation_win32.release:win360memory.obj
 0001:0000d980       ?__HeapReAlloc16@Memory@@YAPAXPAXK0K@Z 0040e980 f i foundation_win32.release:win360memory.obj
 0001:0000daa0       ?Copy@Memory@@YAXPBXPAXI@Z 0040eaa0 f i foundation_win32.release:win360memory.obj
 0001:0000db10       ?Alloc@Memory@@YAPAXW4HeapType@1@I@Z 0040eb10 f   foundation_win32.release:win360memory.obj
 0001:0000dc00       ?Realloc@Memory@@YAPAXW4HeapType@1@PAXI@Z 0040ec00 f   foundation_win32.release:win360memory.obj
 0001:0000ddb0       ?Free@Memory@@YAXW4HeapType@1@PAX@Z 0040edb0 f   foundation_win32.release:win360memory.obj
 0001:0000de40       ?DuplicateCString@Memory@@YAPADPBD@Z 0040ee40 f   foundation_win32.release:win360memory.obj
 0001:0000df20       ?IsOverlapping@Memory@@YA_NPBEI0I@Z 0040ef20 f   foundation_win32.release:win360memory.obj
 0001:0000df60       ?GetTotalMemoryStatus@Memory@@YA?AUTotalMemoryStatus@1@XZ 0040ef60 f   foundation_win32.release:win360memory.obj
 0001:0000dfd0       ?DumpTotalMemoryStatus@Memory@@YAXXZ 0040efd0 f   foundation_win32.release:win360memory.obj
 0001:0000dff0       ??0matrix44@Math@@QAE@ABVfloat4@1@000@Z 0040eff0 f i foundation_win32.release:string.obj
 0001:0000e040       ?Alloc@String@Util@@AAEXH@Z 0040f040 f i foundation_win32.release:string.obj
 0001:0000e0e0       ?Realloc@String@Util@@AAEXH@Z 0040f0e0 f i foundation_win32.release:string.obj
 0001:0000e230       ?Reserve@String@Util@@QAEXH@Z 0040f230 f i foundation_win32.release:string.obj
 0001:0000e260       ??0String@Util@@QAE@ABV01@@Z 0040f260 f i foundation_win32.release:string.obj
 0001:0000e2c0       ??4String@Util@@QAEXPBD@Z  0040f2c0 f i foundation_win32.release:string.obj
 0001:0000e2e0       ?Append@String@Util@@QAEXABV12@@Z 0040f2e0 f i foundation_win32.release:string.obj
 0001:0000e320       ??AString@Util@@QBEDH@Z    0040f320 f i foundation_win32.release:string.obj
 0001:0000e380       ??AString@Util@@QAEAADH@Z  0040f380 f i foundation_win32.release:string.obj
 0001:0000e3e0       ?Length@String@Util@@QBEHXZ 0040f3e0 f i foundation_win32.release:string.obj
 0001:0000e400       ?IsValid@String@Util@@QBE_NXZ 0040f400 f i foundation_win32.release:string.obj
 0001:0000e4c0       ?CopyToBuffer@String@Util@@QBE_NPADH@Z 0040f4c0 f   foundation_win32.release:string.obj
 0001:0000e570       ?Format@String@Util@@QAAXPBDZZ 0040f570 f   foundation_win32.release:string.obj
 0001:0000e600       ?FormatArgList@String@Util@@QAAXPBDPAD@Z 0040f600 f   foundation_win32.release:string.obj
 0001:0000e670       ?Set@String@Util@@QAEXPBDH@Z 0040f670 f   foundation_win32.release:string.obj
 0001:0000e8e0       ?AppendRange@String@Util@@QAEXPBDH@Z 0040f8e0 f   foundation_win32.release:string.obj
 0001:0000eb00       ?Tokenize@String@Util@@QBEHABV12@AAV?$Array@VString@Util@@@2@@Z 0040fb00 f   foundation_win32.release:string.obj
 0001:0000ec30       ?Tokenize@String@Util@@QBE?AV?$Array@VString@Util@@@2@ABV12@@Z 0040fc30 f   foundation_win32.release:string.obj
 0001:0000ec70       ?Tokenize@String@Util@@QBEHABV12@DAAV?$Array@VString@Util@@@2@@Z 0040fc70 f   foundation_win32.release:string.obj
 0001:0000efc0       ?Tokenize@String@Util@@QBE?AV?$Array@VString@Util@@@2@ABV12@D@Z 0040ffc0 f   foundation_win32.release:string.obj
 0001:0000f010       ?ExtractRange@String@Util@@QBE?AV12@HH@Z 00410010 f   foundation_win32.release:string.obj
 0001:0000f0d0       ?ExtractToEnd@String@Util@@QBE?AV12@H@Z 004100d0 f   foundation_win32.release:string.obj
 0001:0000f100       ?Strip@String@Util@@QAEXABV12@@Z 00410100 f   foundation_win32.release:string.obj
 0001:0000f1c0       ?FindStringIndex@String@Util@@QBEHABV12@H@Z 004101c0 f   foundation_win32.release:string.obj
 0001:0000f2b0       ?FindCharIndex@String@Util@@QBEHDH@Z 004102b0 f   foundation_win32.release:string.obj
 0001:0000f360       ?TrimLeft@String@Util@@QAEXABV12@@Z 00410360 f   foundation_win32.release:string.obj
 0001:0000f540       ?TrimRight@String@Util@@QAEXABV12@@Z 00410540 f   foundation_win32.release:string.obj
 0001:0000f720       ?Trim@String@Util@@QAEXABV12@@Z 00410720 f   foundation_win32.release:string.obj
 0001:0000f750       ?SubstituteString@String@Util@@QAEXABV12@0@Z 00410750 f   foundation_win32.release:string.obj
 0001:0000f8a0       ?ExtractLastDirName@String@Util@@QBE?AV12@XZ 004108a0 f   foundation_win32.release:string.obj
 0001:0000f9d0       ?ExtractDirName@String@Util@@QBE?AV12@XZ 004109d0 f   foundation_win32.release:string.obj
 0001:0000fac0       ?MatchPattern@String@Util@@SA_NABV12@0@Z 00410ac0 f   foundation_win32.release:string.obj
 0001:0000fdd0       ?ReplaceChars@String@Util@@QAEXABV12@D@Z 00410dd0 f   foundation_win32.release:string.obj
 0001:0000fe80       ?AsMatrix44@String@Util@@QBE?AVmatrix44@Math@@XZ 00410e80 f   foundation_win32.release:string.obj
 0001:000102d0       ?Concatenate@String@Util@@SA?AV12@ABV?$Array@VString@Util@@@2@ABV12@@Z 004112d0 f   foundation_win32.release:string.obj
 0001:000103d0       ?SetCharPtr@String@Util@@QAEXPBD@Z 004113d0 f   foundation_win32.release:string.obj
 0001:00010430       ?Append@String@Util@@QAEXPBD@Z 00411430 f   foundation_win32.release:string.obj
 0001:000104a0       ?TerminateAtIndex@String@Util@@QAEXH@Z 004114a0 f   foundation_win32.release:string.obj
 0001:00010530       ?StripFileExtension@String@Util@@QAEXXZ 00411530 f   foundation_win32.release:string.obj
 0001:000105d0       ??8Util@@YA_NABVString@0@0@Z 004115d0 f   foundation_win32.release:string.obj
 0001:00010680       ??8Util@@YA_NABVString@0@PBD@Z 00411680 f   foundation_win32.release:string.obj
 0001:00010730       ??8Util@@YA_NPBDABVString@0@@Z 00411730 f   foundation_win32.release:string.obj
 0001:000107e0       ??9Util@@YA_NABVString@0@0@Z 004117e0 f   foundation_win32.release:string.obj
 0001:00010890       ??MUtil@@YA_NABVString@0@0@Z 00411890 f   foundation_win32.release:string.obj
 0001:00010940       ??OUtil@@YA_NABVString@0@0@Z 00411940 f   foundation_win32.release:string.obj
 0001:000109f0       ??NUtil@@YA_NABVString@0@0@Z 004119f0 f   foundation_win32.release:string.obj
 0001:00010aa0       ??PUtil@@YA_NABVString@0@0@Z 00411aa0 f   foundation_win32.release:string.obj
 0001:00010b50       ?ToLower@String@Util@@QAEXXZ 00411b50 f   foundation_win32.release:string.obj
 0001:00010bb0       ?ToUpper@String@Util@@QAEXXZ 00411bb0 f   foundation_win32.release:string.obj
 0001:00010c10       ?FirstCharToUpper@String@Util@@QAEXXZ 00411c10 f   foundation_win32.release:string.obj
 0001:00010c50       ?ContainsCharFromSet@String@Util@@QBE_NABV12@@Z 00411c50 f   foundation_win32.release:string.obj
 0001:00010cc0       ?GetFileExtension@String@Util@@QBE?AV12@XZ 00411cc0 f   foundation_win32.release:string.obj
 0001:00010d80       ?GetLastSlash@String@Util@@ABEPADXZ 00411d80 f   foundation_win32.release:string.obj
 0001:00010df0       ?IsValidBool@String@Util@@QBE_NXZ 00411df0 f   foundation_win32.release:string.obj
 0001:00010e60       ?AsInt@String@Util@@QBEHXZ 00411e60 f   foundation_win32.release:string.obj
 0001:00010ea0       ?AsFloat@String@Util@@QBEMXZ 00411ea0 f   foundation_win32.release:string.obj
 0001:00010ee0       ?AsBool@String@Util@@QBE_NXZ 00411ee0 f   foundation_win32.release:string.obj
 0001:00010f70       ?IsDigit@String@Util@@SA_ND@Z 00411f70 f   foundation_win32.release:string.obj
 0001:00010f90       ?IsAlpha@String@Util@@SA_ND@Z 00411f90 f   foundation_win32.release:string.obj
 0001:00010fb0       ?IsAlNum@String@Util@@SA_ND@Z 00411fb0 f   foundation_win32.release:string.obj
 0001:00010fd0       ?IsLower@String@Util@@SA_ND@Z 00411fd0 f   foundation_win32.release:string.obj
 0001:00010ff0       ?IsUpper@String@Util@@SA_ND@Z 00411ff0 f   foundation_win32.release:string.obj
 0001:00011010       ?StrCmp@String@Util@@SAHPBD0@Z 00412010 f   foundation_win32.release:string.obj
 0001:000110a0       ?StrLen@String@Util@@SAHPBD@Z 004120a0 f   foundation_win32.release:string.obj
 0001:00011100       ?StrChr@String@Util@@SAPBDPBDH@Z 00412100 f   foundation_win32.release:string.obj
 0001:00011140       ?ParseKeyValuePairs@String@Util@@SA?AV?$Dictionary@VString@Util@@V12@@2@ABV12@@Z 00412140 f   foundation_win32.release:string.obj
 0001:00011240       ??1?$Dictionary@VString@Util@@V12@@Util@@QAE@XZ 00412240 f i foundation_win32.release:string.obj
 0001:00011260       ?ChangeFileExtension@String@Util@@QAEXABV12@@Z 00412260 f   foundation_win32.release:string.obj
 0001:00011340       ??0?$Array@VString@Util@@@Util@@QAE@ABV01@@Z 00412340 f i foundation_win32.release:string.obj
 0001:00011390       ??0?$Array@VString@Util@@@Util@@QAE@HH@Z 00412390 f i foundation_win32.release:string.obj
 0001:000114a0       ??0?$Array@VString@Util@@@Util@@QAE@XZ 004124a0 f i foundation_win32.release:string.obj
 0001:000114e0       ??A?$Array@VString@Util@@@Util@@QBEAAVString@1@H@Z 004124e0 f i foundation_win32.release:string.obj
 0001:00011530       ?Append@?$Array@VString@Util@@@Util@@QAEXABVString@2@@Z 00412530 f i foundation_win32.release:string.obj
 0001:000115d0       ?Size@?$Array@VString@Util@@@Util@@QBEHXZ 004125d0 f i foundation_win32.release:string.obj
 0001:000115f0       ?Clear@?$Array@VString@Util@@@Util@@QAEXXZ 004125f0 f i foundation_win32.release:string.obj
 0001:00011640       ??1?$Array@V?$KeyValuePair@VString@Util@@V12@@Util@@@Util@@QAE@XZ 00412640 f i foundation_win32.release:string.obj
 0001:00011660       ??0?$Dictionary@VString@Util@@V12@@Util@@QAE@ABV01@@Z 00412660 f i foundation_win32.release:string.obj
 0001:000116b0       ??0?$Dictionary@VString@Util@@V12@@Util@@QAE@XZ 004126b0 f i foundation_win32.release:string.obj
 0001:000116d0       ?Add@?$Dictionary@VString@Util@@V12@@Util@@QAEXABVString@2@0@Z 004126d0 f i foundation_win32.release:string.obj
 0001:00011720       ??1?$KeyValuePair@VString@Util@@V12@@Util@@QAE@XZ 00412720 f i foundation_win32.release:string.obj
 0001:000117b0       ?Grow@?$Array@VString@Util@@@Util@@AAEXXZ 004127b0 f i foundation_win32.release:string.obj
 0001:00011830       ??0?$Array@V?$KeyValuePair@VString@Util@@V12@@Util@@@Util@@QAE@ABV01@@Z 00412830 f i foundation_win32.release:string.obj
 0001:00011880       ??0?$Array@V?$KeyValuePair@VString@Util@@V12@@Util@@@Util@@QAE@XZ 00412880 f i foundation_win32.release:string.obj
 0001:000118c0       ?Append@?$Array@V?$KeyValuePair@VString@Util@@V12@@Util@@@Util@@QAEXABV?$KeyValuePair@VString@Util@@V12@@2@@Z 004128c0 f i foundation_win32.release:string.obj
 0001:00011940       ?InsertSorted@?$Array@V?$KeyValuePair@VString@Util@@V12@@Util@@@Util@@QAEHABV?$KeyValuePair@VString@Util@@V12@@2@@Z 00412940 f i foundation_win32.release:string.obj
 0001:00011bb0       ?Delete@?$Array@V?$KeyValuePair@VString@Util@@V12@@Util@@@Util@@AAEXXZ 00412bb0 f i foundation_win32.release:string.obj
 0001:00011c20       ??0?$KeyValuePair@VString@Util@@V12@@Util@@QAE@ABVString@1@0@Z 00412c20 f i foundation_win32.release:string.obj
 0001:00011ce0       ??_E?$KeyValuePair@VString@Util@@V12@@Util@@QAEPAXI@Z 00412ce0 f i foundation_win32.release:string.obj
 0001:00011d80       ?GrowTo@?$Array@VString@Util@@@Util@@AAEXH@Z 00412d80 f i foundation_win32.release:string.obj
 0001:00011ef0       ?Size@?$Array@V?$KeyValuePair@VString@Util@@V12@@Util@@@Util@@QBEHXZ 00412ef0 f i foundation_win32.release:string.obj
 0001:00011f10       ?Insert@?$Array@V?$KeyValuePair@VString@Util@@V12@@Util@@@Util@@QAEXHABV?$KeyValuePair@VString@Util@@V12@@2@@Z 00412f10 f i foundation_win32.release:string.obj
 0001:00011f80       ?InsertAtEndOfIdenticalRange@?$Array@V?$KeyValuePair@VString@Util@@V12@@Util@@@Util@@QAEHHABV?$KeyValuePair@VString@Util@@V12@@2@@Z 00412f80 f i foundation_win32.release:string.obj
 0001:00012000       ?Copy@?$Array@V?$KeyValuePair@VString@Util@@V12@@Util@@@Util@@AAEXABV12@@Z 00413000 f i foundation_win32.release:string.obj
 0001:00012130       ?Grow@?$Array@V?$KeyValuePair@VString@Util@@V12@@Util@@@Util@@AAEXXZ 00413130 f i foundation_win32.release:string.obj
 0001:000121b0       ??4?$KeyValuePair@VString@Util@@V12@@Util@@QAEXABV01@@Z 004131b0 f i foundation_win32.release:string.obj
 0001:00012240       ??O?$KeyValuePair@VString@Util@@V12@@Util@@QBE_NABV01@@Z 00413240 f i foundation_win32.release:string.obj
 0001:00012260       ??M?$KeyValuePair@VString@Util@@V12@@Util@@QBE_NABV01@@Z 00413260 f i foundation_win32.release:string.obj
 0001:00012280       ?GrowTo@?$Array@V?$KeyValuePair@VString@Util@@V12@@Util@@@Util@@AAEXH@Z 00413280 f i foundation_win32.release:string.obj
 0001:000123a0       ?Move@?$Array@V?$KeyValuePair@VString@Util@@V12@@Util@@@Util@@AAEXHH@Z 004133a0 f i foundation_win32.release:string.obj
 0001:00012530       ??0?$KeyValuePair@VString@Util@@V12@@Util@@QAE@XZ 00413530 f i foundation_win32.release:string.obj
 0001:000125a0       ??9?$KeyValuePair@VString@Util@@V12@@Util@@QBE_NABV01@@Z 004135a0 f i foundation_win32.release:string.obj
 0001:000125c0       ?Destroy@?$Array@V?$KeyValuePair@VString@Util@@V12@@Util@@@Util@@AAEXPAV?$KeyValuePair@VString@Util@@V12@@2@@Z 004135c0 f i foundation_win32.release:string.obj
 0001:000125f0       ??_G?$KeyValuePair@VString@Util@@V12@@Util@@QAEPAXI@Z 004135f0 f i foundation_win32.release:string.obj
 0001:00012620       ?strrchr@@YAPADPADH@Z      00413620 f i foundation_win32.release:string.obj
 0001:00012640       ?strpbrk@@YAPADPADPBD@Z    00413640 f i foundation_win32.release:string.obj
 0001:00012660       ?strchr@@YAPADPADH@Z       00413660 f i foundation_win32.release:string.obj
 0001:00012730       ?StringCchVPrintfA@@YGJPADIPBD0@Z 00413730 f i foundation_win32.release:string.obj
 0001:00012950       ?StringCchCopyA@@YGJPADIPBD@Z 00413950 f i foundation_win32.release:string.obj
 0001:000129a0       ??0FourCC@Util@@QAE@XZ     004139a0 f i foundation_win32.release:rtti.obj
 0001:000129c0       ??0FourCC@Util@@QAE@I@Z    004139c0 f i foundation_win32.release:rtti.obj
 0001:000129e0       ??8FourCC@Util@@QBE_NABV01@@Z 004139e0 f i foundation_win32.release:rtti.obj
 0001:00012a00       ?IsValid@FourCC@Util@@QBE_NXZ 00413a00 f i foundation_win32.release:rtti.obj
 0001:00012a20       ?GetParent@Rtti@Core@@QBEPBV12@XZ 00413a20 f i foundation_win32.release:rtti.obj
 0001:00012a40       ?Construct@Rtti@Core@@AAEXPBDVFourCC@Util@@P6APAVRefCounted@2@XZPBV12@H@Z 00413a40 f   foundation_win32.release:rtti.obj
 0001:00012b30       ??0Rtti@Core@@QAE@PBDVFourCC@Util@@P6APAVRefCounted@1@XZPBV01@H@Z 00413b30 f   foundation_win32.release:rtti.obj
 0001:00012ba0       ??0Rtti@Core@@QAE@PBDP6APAVRefCounted@1@XZPBV01@H@Z 00413ba0 f   foundation_win32.release:rtti.obj
 0001:00012c10       ?Create@Rtti@Core@@QBEPAVRefCounted@2@XZ 00413c10 f   foundation_win32.release:rtti.obj
 0001:00012c70       ?IsDerivedFrom@Rtti@Core@@QBE_NABV12@@Z 00413c70 f   foundation_win32.release:rtti.obj
 0001:00012cb0       ?IsDerivedFrom@Rtti@Core@@QBE_NABVString@Util@@@Z 00413cb0 f   foundation_win32.release:rtti.obj
 0001:00012d00       ?IsDerivedFrom@Rtti@Core@@QBE_NABVFourCC@Util@@@Z 00413d00 f   foundation_win32.release:rtti.obj
 0001:00012d50       ?AllocInstanceMemory@Rtti@Core@@QAEPAXXZ 00413d50 f   foundation_win32.release:rtti.obj
 0001:00012d80       ?FreeInstanceMemory@Rtti@Core@@QAEXPAX@Z 00413d80 f   foundation_win32.release:rtti.obj
 0001:00012da0       ?Instance@LocalStringAtomTable@Util@@SAPAV12@XZ 00413da0 f i foundation_win32.release:stringatom.obj
 0001:00012de0       ?Instance@GlobalStringAtomTable@Util@@SAPAV12@XZ 00413de0 f i foundation_win32.release:stringatom.obj
 0001:00012e10       ?Setup@StringAtom@Util@@AAEXPBD@Z 00413e10 f   foundation_win32.release:stringatom.obj
 0001:00012ee0       ??8StringAtom@Util@@QBE_NPBD@Z 00413ee0 f   foundation_win32.release:stringatom.obj
 0001:00012f60       ??9StringAtom@Util@@QBE_NPBD@Z 00413f60 f   foundation_win32.release:stringatom.obj
 0001:00012fe0       ?Clear@String@Util@@QAEXXZ 00413fe0 f i foundation_win32.release:uri.obj
 0001:00013030       ?IsEmpty@URI@IO@@QBE_NXZ   00414030 f i foundation_win32.release:uri.obj
 0001:00013040       ?Clear@URI@IO@@QAEXXZ      00414040 f i foundation_win32.release:uri.obj
 0001:00013240       ?SetScheme@URI@IO@@QAEXABVString@Util@@@Z 00414240 f i foundation_win32.release:uri.obj
 0001:00013290       ?SetUserInfo@URI@IO@@QAEXABVString@Util@@@Z 00414290 f i foundation_win32.release:uri.obj
 0001:000132e0       ?SetHost@URI@IO@@QAEXABVString@Util@@@Z 004142e0 f i foundation_win32.release:uri.obj
 0001:00013330       ?SetPort@URI@IO@@QAEXABVString@Util@@@Z 00414330 f i foundation_win32.release:uri.obj
 0001:00013380       ?SetLocalPath@URI@IO@@QAEXABVString@Util@@@Z 00414380 f i foundation_win32.release:uri.obj
 0001:000133e0       ?SetFragment@URI@IO@@QAEXABVString@Util@@@Z 004143e0 f i foundation_win32.release:uri.obj
 0001:00013440       ?SetQuery@URI@IO@@QAEXABVString@Util@@@Z 00414440 f i foundation_win32.release:uri.obj
 0001:000134a0       ?Instance@AssignRegistry@IO@@SAPAV12@XZ 004144a0 f i foundation_win32.release:uri.obj
 0001:000134d0       ?HasInstance@AssignRegistry@IO@@SA_NXZ 004144d0 f i foundation_win32.release:uri.obj
 0001:000134f0       ?Split@URI@IO@@AAE_NABVString@Util@@@Z 004144f0 f   foundation_win32.release:uri.obj
 0001:00013ff0       ?Build@URI@IO@@ABE?AVString@Util@@XZ 00414ff0 f   foundation_win32.release:uri.obj
 0001:000142e0       ?GetTail@URI@IO@@QBE?AVString@Util@@XZ 004152e0 f   foundation_win32.release:uri.obj
 0001:00014450       ?GetHostAndLocalPath@URI@IO@@QBE?AVString@Util@@XZ 00415450 f   foundation_win32.release:uri.obj
 0001:00014570       ?AppendLocalPath@URI@IO@@QAEXABVString@Util@@@Z 00415570 f   foundation_win32.release:uri.obj
 0001:00014600       ?ParseQuery@URI@IO@@QBE?AV?$Dictionary@VString@Util@@V12@@Util@@XZ 00415600 f   foundation_win32.release:uri.obj
 0001:00014770       ?BinaryCompare@Blob@Util@@ABEHABV12@@Z 00415770 f   foundation_win32.release:blob.obj
 0001:00014820       ?WaiterPlus@Win360CriticalSection@Win360@@ABEXXZ 00415820 f i foundation_win32.release:ioserver.obj
 0001:00014840       ?WaiterMinus@Win360CriticalSection@Win360@@ABEXXZ 00415840 f i foundation_win32.release:ioserver.obj
 0001:00014860       ?PerfLockImmediate@Win360CriticalSection@Win360@@ABE_NK@Z 00415860 f i foundation_win32.release:ioserver.obj
 0001:00014890       ?Enter@Win360CriticalSection@Win360@@QBEXXZ 00415890 f i foundation_win32.release:ioserver.obj
 0001:00014900       ?AllocateKernelSemaphore@Win360CriticalSection@Win360@@ABEXXZ 00415900 f i foundation_win32.release:ioserver.obj
 0001:00014970       ?PerfLock@Win360CriticalSection@Win360@@ABE_NK@Z 00415970 f i foundation_win32.release:ioserver.obj
 0001:000149f0       ?PerfLockKernel@Win360CriticalSection@Win360@@ABE_NK@Z 004159f0 f i foundation_win32.release:ioserver.obj
 0001:00014a90       ?Leave@Win360CriticalSection@Win360@@QBEXXZ 00415a90 f i foundation_win32.release:ioserver.obj
 0001:00014ac0       ?PerfUnlock@Win360CriticalSection@Win360@@ABEXXZ 00415ac0 f i foundation_win32.release:ioserver.obj
 0001:00014b00       ?IsEmpty@String@Util@@QBE_NXZ 00415b00 f i foundation_win32.release:ioserver.obj
 0001:00014b20       ??3RefCounted@Core@@SAXPAX@Z 00415b20 f i foundation_win32.release:ioserver.obj
 0001:00014b40       ??0RefCounted@Core@@QAE@XZ 00415b40 f i foundation_win32.release:ioserver.obj
 0001:00014b70       ??_ERefCounted@Core@@MAEPAXI@Z 00415b70 f i  CIL library: CIL module
 0001:00014b70       ??_GRefCounted@Core@@MAEPAXI@Z 00415b70 f i foundation_win32.release:ioserver.obj
 0001:00014ba0       ?GetRefCount@RefCounted@Core@@QBEHXZ 00415ba0 f i foundation_win32.release:ioserver.obj
 0001:00014bc0       ??0URI@IO@@QAE@ABVString@Util@@@Z 00415bc0 f i foundation_win32.release:ioserver.obj
 0001:00014d70       ?AsString@URI@IO@@QBE?AVString@Util@@XZ 00415d70 f i foundation_win32.release:ioserver.obj
 0001:00014d90       ?Scheme@URI@IO@@QBEABVString@Util@@XZ 00415d90 f i foundation_win32.release:ioserver.obj
 0001:00014db0       ?LocalPath@URI@IO@@QBEABVString@Util@@XZ 00415db0 f i foundation_win32.release:ioserver.obj
 0001:00014dd0       ?Instance@SchemeRegistry@IO@@SAPAV12@XZ 00415dd0 f i foundation_win32.release:ioserver.obj
 0001:00014e00       ?HasInstance@SchemeRegistry@IO@@SA_NXZ 00415e00 f i foundation_win32.release:ioserver.obj
 0001:00014e20       ??2IoServer@IO@@SAPAXI@Z   00415e20 f i foundation_win32.release:ioserver.obj
 0001:00014e30       ??3IoServer@IO@@SAXPAX@Z   00415e30 f i foundation_win32.release:ioserver.obj
 0001:00014e50       ?IsArchiveFileSystemEnabled@IoServer@IO@@QBE_NXZ 00415e50 f i foundation_win32.release:ioserver.obj
 0001:00014e70       ?GetPlatform@SystemInfoBase@Base@@QBE?AW4Platform@12@XZ 00415e70 f i foundation_win32.release:ioserver.obj
 0001:00014e80       ?Instance@ArchiveFileSystem@IO@@SAPAV12@XZ 00415e80 f i foundation_win32.release:ioserver.obj
 0001:00014eb0       ?HasInstance@ArchiveFileSystem@IO@@SA_NXZ 00415eb0 f i foundation_win32.release:ioserver.obj
 0001:00014ed0       ??1Rtti@Core@@QAE@XZ       00415ed0 f i foundation_win32.release:ioserver.obj
 0001:00014f20       ?GetRtti@IoServer@IO@@UBEPAVRtti@Core@@XZ 00415f20 f   foundation_win32.release:ioserver.obj
 0001:00014f30       ?FactoryCreator@IoServer@IO@@SAPAVRefCounted@Core@@XZ 00415f30 f   foundation_win32.release:ioserver.obj
 0001:00014f40       ?Create@IoServer@IO@@SAPAV12@XZ 00415f40 f   foundation_win32.release:ioserver.obj
 0001:00014f80       ?RegisterWithFactory@IoServer@IO@@SA_NXZ 00415f80 f   foundation_win32.release:ioserver.obj
 0001:00015080       ??0CriticalSection@Threading@@QAE@XZ 00416080 f i foundation_win32.release:ioserver.obj
 0001:000150a0       ??1CriticalSection@Threading@@QAE@XZ 004160a0 f i foundation_win32.release:ioserver.obj
 0001:000150c0       ??0IoServer@IO@@QAE@XZ     004160c0 f   foundation_win32.release:ioserver.obj
 0001:00015310       ??_GIoServer@IO@@UAEPAXI@Z 00416310 f i foundation_win32.release:ioserver.obj
 0001:00015310       ??_EIoServer@IO@@UAEPAXI@Z 00416310 f i  CIL library: CIL module
 0001:00015340       ??1IoServer@IO@@UAE@XZ     00416340 f   foundation_win32.release:ioserver.obj
 0001:00015410       ?CreateStream@IoServer@IO@@QBE?AV?$Ptr@VStream@IO@@@@ABVURI@2@@Z 00416410 f   foundation_win32.release:ioserver.obj
 0001:000155d0       ?MountArchive@IoServer@IO@@QAE_NABVURI@2@@Z 004165d0 f   foundation_win32.release:ioserver.obj
 0001:00015620       ?UnmountArchive@IoServer@IO@@QAEXABVURI@2@@Z 00416620 f   foundation_win32.release:ioserver.obj
 0001:00015650       ?IsArchiveMounted@IoServer@IO@@QBE_NABVURI@2@@Z 00416650 f   foundation_win32.release:ioserver.obj
 0001:00015680       ?MountStandardArchives@IoServer@IO@@QAEXXZ 00416680 f   foundation_win32.release:ioserver.obj
 0001:00015780       ??0SystemInfo@System@@QAE@XZ 00416780 f i foundation_win32.release:ioserver.obj
 0001:000157a0       ?UnmountStandardArchives@IoServer@IO@@QAEXXZ 004167a0 f   foundation_win32.release:ioserver.obj
 0001:000158e0       ?CreateDirectoryA@IoServer@IO@@QBE_NABVURI@2@@Z 004168e0 f   foundation_win32.release:ioserver.obj
 0001:00015b60       ??1?$Stack@VString@Util@@@Util@@QAE@XZ 00416b60 f i foundation_win32.release:ioserver.obj
 0001:00015b80       ?CopyFile@IoServer@IO@@QBE_NABVURI@2@0@Z 00416b80 f   foundation_win32.release:ioserver.obj
 0001:00015fb0       ?ComputeFileCrc@IoServer@IO@@QBEIABVURI@2@@Z 00416fb0 f   foundation_win32.release:ioserver.obj
 0001:00016140       ?DeleteFile@IoServer@IO@@QBE_NABVURI@2@@Z 00417140 f   foundation_win32.release:ioserver.obj
 0001:000161d0       ?DeleteDirectory@IoServer@IO@@QBE_NABVURI@2@@Z 004171d0 f   foundation_win32.release:ioserver.obj
 0001:00016260       ?FileExists@IoServer@IO@@QBE_NABVURI@2@@Z 00417260 f   foundation_win32.release:ioserver.obj
 0001:00016330       ?DirectoryExists@IoServer@IO@@QBE_NABVURI@2@@Z 00417330 f   foundation_win32.release:ioserver.obj
 0001:00016420       ?SetReadOnly@IoServer@IO@@QBEXABVURI@2@_N@Z 00417420 f   foundation_win32.release:ioserver.obj
 0001:000164b0       ?IsReadOnly@IoServer@IO@@QBE_NABVURI@2@@Z 004174b0 f   foundation_win32.release:ioserver.obj
 0001:00016660       ?SetFileWriteTime@IoServer@IO@@QAEXABVURI@2@VWin360FileTime@Win360@@@Z 00417660 f   foundation_win32.release:ioserver.obj
 0001:000166f0       ?GetFileWriteTime@IoServer@IO@@QBE?AVWin360FileTime@Win360@@ABVURI@2@@Z 004176f0 f   foundation_win32.release:ioserver.obj
 0001:00016780       ?ListFiles@IoServer@IO@@QBE?AV?$Array@VString@Util@@@Util@@ABVURI@2@ABVString@4@_N@Z 00417780 f   foundation_win32.release:ioserver.obj
 0001:000169a0       ?ListDirectories@IoServer@IO@@QBE?AV?$Array@VString@Util@@@Util@@ABVURI@2@ABVString@4@_N@Z 004179a0 f   foundation_win32.release:ioserver.obj
 0001:00016bc0       ?AddPathPrefixToArray@IoServer@IO@@ABE?AV?$Array@VString@Util@@@Util@@ABVString@4@ABV34@@Z 00417bc0 f   foundation_win32.release:ioserver.obj
 0001:00016ce0       ?Reserve@?$Array@VString@Util@@@Util@@QAEXH@Z 00417ce0 f i foundation_win32.release:ioserver.obj
 0001:00016d30       ?IsEmpty@?$Array@VString@Util@@@Util@@QBE_NXZ 00417d30 f i foundation_win32.release:ioserver.obj
 0001:00016d50       ??0?$Ptr@VArchiveFileSystem@IO@@@@QAE@XZ 00417d50 f i foundation_win32.release:ioserver.obj
 0001:00016d70       ??1?$Ptr@VArchiveFileSystem@IO@@@@QAE@XZ 00417d70 f i foundation_win32.release:ioserver.obj
 0001:00016da0       ??4?$Ptr@VArchiveFileSystem@IO@@@@QAEXPAVArchiveFileSystem@IO@@@Z 00417da0 f i foundation_win32.release:ioserver.obj
 0001:00016e00       ??C?$Ptr@VArchiveFileSystem@IO@@@@QBEPAVArchiveFileSystem@IO@@XZ 00417e00 f i foundation_win32.release:ioserver.obj
 0001:00016e40       ??0?$Ptr@VAssignRegistry@IO@@@@QAE@XZ 00417e40 f i foundation_win32.release:ioserver.obj
 0001:00016e60       ??1?$Ptr@VAssignRegistry@IO@@@@QAE@XZ 00417e60 f i foundation_win32.release:ioserver.obj
 0001:00016e90       ??4?$Ptr@VAssignRegistry@IO@@@@QAEXPAVAssignRegistry@IO@@@Z 00417e90 f i foundation_win32.release:ioserver.obj
 0001:00016ef0       ??C?$Ptr@VAssignRegistry@IO@@@@QBEPAVAssignRegistry@IO@@XZ 00417ef0 f i foundation_win32.release:ioserver.obj
 0001:00016f30       ??0?$Ptr@VSchemeRegistry@IO@@@@QAE@XZ 00417f30 f i foundation_win32.release:ioserver.obj
 0001:00016f50       ??1?$Ptr@VSchemeRegistry@IO@@@@QAE@XZ 00417f50 f i foundation_win32.release:ioserver.obj
 0001:00016f80       ??4?$Ptr@VSchemeRegistry@IO@@@@QAEXPAVSchemeRegistry@IO@@@Z 00417f80 f i foundation_win32.release:ioserver.obj
 0001:00016ff0       ??C?$Ptr@VSchemeRegistry@IO@@@@QBEPAVSchemeRegistry@IO@@XZ 00417ff0 f i foundation_win32.release:ioserver.obj
 0001:00017030       ??0?$Ptr@VStream@IO@@@@QAE@ABV0@@Z 00418030 f i foundation_win32.release:ioserver.obj
 0001:00017070       ??0?$Ptr@VStream@IO@@@@QAE@PAVStream@IO@@@Z 00418070 f i foundation_win32.release:ioserver.obj
 0001:000170b0       ??1?$Ptr@VStream@IO@@@@QAE@XZ 004180b0 f i foundation_win32.release:ioserver.obj
 0001:000170e0       ??C?$Ptr@VStream@IO@@@@QBEPAVStream@IO@@XZ 004180e0 f i foundation_win32.release:ioserver.obj
 0001:00017120       ??1?$Ptr@VArchive@IO@@@@QAE@XZ 00418120 f i foundation_win32.release:ioserver.obj
 0001:00017150       ??C?$Ptr@VArchive@IO@@@@QBEPAVArchive@IO@@XZ 00418150 f i foundation_win32.release:ioserver.obj
 0001:00017190       ?isvalid@?$Ptr@VArchive@IO@@@@QBE_NXZ 00418190 f i foundation_win32.release:ioserver.obj
 0001:000171b0       ??0?$Stack@VString@Util@@@Util@@QAE@XZ 004181b0 f i foundation_win32.release:ioserver.obj
 0001:000171d0       ?IsEmpty@?$Stack@VString@Util@@@Util@@QBE_NXZ 004181d0 f i foundation_win32.release:ioserver.obj
 0001:000171f0       ?Push@?$Stack@VString@Util@@@Util@@QAEXABVString@2@@Z 004181f0 f i foundation_win32.release:ioserver.obj
 0001:00017210       ?Pop@?$Stack@VString@Util@@@Util@@QAE?AVString@2@XZ 00418210 f i foundation_win32.release:ioserver.obj
 0001:000172a0       ?Back@?$Array@VString@Util@@@Util@@QBEAAVString@2@XZ 004182a0 f i foundation_win32.release:ioserver.obj
 0001:000172f0       ?EraseIndex@?$Array@VString@Util@@@Util@@QAEXH@Z 004182f0 f i foundation_win32.release:ioserver.obj
 0001:00017370       ?Move@?$Array@VString@Util@@@Util@@AAEXHH@Z 00418370 f i foundation_win32.release:ioserver.obj
 0001:00017570       ___InlineInterlockedCompareExchangePointer 00418570 f i foundation_win32.release:ioserver.obj
 0001:00017590       ??0Win360Event@Win360@@QAE@_N@Z 00418590 f i foundation_win32.release:win360thread.obj
 0001:000175e0       ??1Win360Event@Win360@@QAE@XZ 004185e0 f i foundation_win32.release:win360thread.obj
 0001:00017600       ?Signal@Win360Event@Win360@@QAEXXZ 00418600 f i foundation_win32.release:win360thread.obj
 0001:00017620       ?Wait@Win360Event@Win360@@QBEXXZ 00418620 f i foundation_win32.release:win360thread.obj
 0001:00017640       ??2Win360Thread@Win360@@SAPAXI@Z 00418640 f i foundation_win32.release:win360thread.obj
 0001:00017650       ??3Win360Thread@Win360@@SAXPAX@Z 00418650 f i foundation_win32.release:win360thread.obj
 0001:00017670       ?GetName@Win360Thread@Win360@@QBEABVString@Util@@XZ 00418670 f i foundation_win32.release:win360thread.obj
 0001:00017690       ?GetRtti@Win360Thread@Win360@@UBEPAVRtti@Core@@XZ 00418690 f   foundation_win32.release:win360thread.obj
 0001:000176a0       ?FactoryCreator@Win360Thread@Win360@@SAPAVRefCounted@Core@@XZ 004186a0 f   foundation_win32.release:win360thread.obj
 0001:000176b0       ?Create@Win360Thread@Win360@@SAPAV12@XZ 004186b0 f   foundation_win32.release:win360thread.obj
 0001:000176f0       ?RegisterWithFactory@Win360Thread@Win360@@SA_NXZ 004186f0 f   foundation_win32.release:win360thread.obj
 0001:000177f0       ??0Win360Thread@Win360@@QAE@XZ 004187f0 f   foundation_win32.release:win360thread.obj
 0001:000178f0       ??_EWin360Thread@Win360@@UAEPAXI@Z 004188f0 f i  CIL library: CIL module
 0001:000178f0       ??_GWin360Thread@Win360@@UAEPAXI@Z 004188f0 f i foundation_win32.release:win360thread.obj
 0001:00017920       ??1Win360Thread@Win360@@UAE@XZ 00418920 f   foundation_win32.release:win360thread.obj
 0001:000179e0       ?Start@Win360Thread@Win360@@QAEXXZ 004189e0 f   foundation_win32.release:win360thread.obj
 0001:00017ae0       ?EmitWakeupSignal@Win360Thread@Win360@@MAEXXZ 00418ae0 f   foundation_win32.release:win360thread.obj
 0001:00017af0       ?Stop@Win360Thread@Win360@@QAEXXZ 00418af0 f   foundation_win32.release:win360thread.obj
 0001:00017b90       ?IsRunning@Win360Thread@Win360@@QBE_NXZ 00418b90 f   foundation_win32.release:win360thread.obj
 0001:00017be0       ?DoWork@Win360Thread@Win360@@MAEXXZ 00418be0 f   foundation_win32.release:win360thread.obj
 0001:00017bf0       ?ThreadProc@Win360Thread@Win360@@CGKPAX@Z 00418bf0 f   foundation_win32.release:win360thread.obj
 0001:00017c90       ?SetMyThreadName@Win360Thread@Win360@@SAXPBD@Z 00418c90 f   foundation_win32.release:win360thread.obj
 0001:00017d30       ?GetMyThreadName@Win360Thread@Win360@@SAPBDXZ 00418d30 f   foundation_win32.release:win360thread.obj
 0001:00017d50       ?GetMyThreadId@Win360Thread@Win360@@SAKXZ 00418d50 f   foundation_win32.release:win360thread.obj
 0001:00017d60       ?YieldThread@Win360Thread@Win360@@SAXXZ 00418d60 f   foundation_win32.release:win360thread.obj
 0001:00017d70       ??0Application@App@@QAE@XZ 00418d70 f   foundation_win32.release:application.obj
 0001:00017ee0       ??_GApplication@App@@UAEPAXI@Z 00418ee0 f i foundation_win32.release:application.obj
 0001:00017ee0       ??_EApplication@App@@UAEPAXI@Z 00418ee0 f i  CIL library: CIL module
 0001:00017f10       ??1Application@App@@UAE@XZ 00418f10 f   foundation_win32.release:application.obj
 0001:00018070       ?Open@Application@App@@UAE_NXZ 00419070 f   foundation_win32.release:application.obj
 0001:000180b0       ?Close@Application@App@@UAEXXZ 004190b0 f   foundation_win32.release:application.obj
 0001:000180f0       ?Run@Application@App@@UAEXXZ 004190f0 f   foundation_win32.release:application.obj
 0001:00018100       ?Exit@Application@App@@UAEXXZ 00419100 f   foundation_win32.release:application.obj
 0001:00018120       ?AsFloat4@String@Util@@QBE?AVfloat4@Math@@XZ 00419120 f i foundation_win32.release:commandlineargs.obj
 0001:000182a0       ??0CommandLineArgs@Util@@QAE@XZ 004192a0 f   foundation_win32.release:commandlineargs.obj
 0001:000182c0       ??0CommandLineArgs@Util@@QAE@ABVString@1@@Z 004192c0 f   foundation_win32.release:commandlineargs.obj
 0001:00018350       ??0CommandLineArgs@Util@@QAE@HPAPBD@Z 00419350 f   foundation_win32.release:commandlineargs.obj
 0001:000183f0       ?Error@CommandLineArgs@Util@@ABEXABVString@2@@Z 004193f0 f   foundation_win32.release:commandlineargs.obj
 0001:00018430       ?GetCmdName@CommandLineArgs@Util@@QBEABVString@2@XZ 00419430 f   foundation_win32.release:commandlineargs.obj
 0001:00018470       ?HasArg@CommandLineArgs@Util@@QBE_NABVString@2@@Z 00419470 f   foundation_win32.release:commandlineargs.obj
 0001:000184a0       ?FindArgIndex@CommandLineArgs@Util@@ABEHABVString@2@@Z 004194a0 f   foundation_win32.release:commandlineargs.obj
 0001:00018500       ?GetString@CommandLineArgs@Util@@QBEABVString@2@ABV32@0@Z 00419500 f   foundation_win32.release:commandlineargs.obj
 0001:00018540       ?GetInt@CommandLineArgs@Util@@QBEHABVString@2@H@Z 00419540 f   foundation_win32.release:commandlineargs.obj
 0001:00018590       ?GetFloat@CommandLineArgs@Util@@QBEMABVString@2@M@Z 00419590 f   foundation_win32.release:commandlineargs.obj
 0001:000185e0       ?GetBool@CommandLineArgs@Util@@QBE_NABVString@2@_N@Z 004195e0 f   foundation_win32.release:commandlineargs.obj
 0001:00018630       ?GetBoolFlag@CommandLineArgs@Util@@QBE_NABVString@2@@Z 00419630 f   foundation_win32.release:commandlineargs.obj
 0001:00018650       ?GetFloat4@CommandLineArgs@Util@@QBE?AVfloat4@Math@@ABVString@2@ABV34@@Z 00419650 f   foundation_win32.release:commandlineargs.obj
 0001:000186c0       ?GetMatrix44@CommandLineArgs@Util@@QBE?AVmatrix44@Math@@ABVString@2@ABV34@@Z 004196c0 f   foundation_win32.release:commandlineargs.obj
 0001:00018720       ?GetNumArgs@CommandLineArgs@Util@@QBEHXZ 00419720 f   foundation_win32.release:commandlineargs.obj
 0001:00018760       ?GetStringAtIndex@CommandLineArgs@Util@@QBEABVString@2@H@Z 00419760 f   foundation_win32.release:commandlineargs.obj
 0001:00018780       ?GetIntAtIndex@CommandLineArgs@Util@@QBEHH@Z 00419780 f   foundation_win32.release:commandlineargs.obj
 0001:000187b0       ?GetFloatAtIndex@CommandLineArgs@Util@@QBEMH@Z 004197b0 f   foundation_win32.release:commandlineargs.obj
 0001:000187e0       ?GetBoolAtIndex@CommandLineArgs@Util@@QBE_NH@Z 004197e0 f   foundation_win32.release:commandlineargs.obj
 0001:00018810       ?GetFloat4AtIndex@CommandLineArgs@Util@@QBE?AVfloat4@Math@@H@Z 00419810 f   foundation_win32.release:commandlineargs.obj
 0001:00018840       ?GetMatrix44AtIndex@CommandLineArgs@Util@@QBE?AVmatrix44@Math@@H@Z 00419840 f   foundation_win32.release:commandlineargs.obj
 0001:00018870       ?AppendCommandString@CommandLineArgs@Util@@QAEXABV12@@Z 00419870 f   foundation_win32.release:commandlineargs.obj
 0001:000188c0       ?FindIndex@?$Array@VString@Util@@@Util@@QBEHABVString@2@@Z 004198c0 f i foundation_win32.release:commandlineargs.obj
 0001:00018920       ??2Console@IO@@SAPAXI@Z    00419920 f i foundation_win32.release:console.obj
 0001:00018930       ??3Console@IO@@SAXPAX@Z    00419930 f i foundation_win32.release:console.obj
 0001:00018950       ?IsOpen@Console@IO@@QBE_NXZ 00419950 f i foundation_win32.release:console.obj
 0001:00018970       ?GetRtti@Console@IO@@UBEPAVRtti@Core@@XZ 00419970 f   foundation_win32.release:console.obj
 0001:00018980       ?FactoryCreator@Console@IO@@SAPAVRefCounted@Core@@XZ 00419980 f   foundation_win32.release:console.obj
 0001:00018990       ?Create@Console@IO@@SAPAV12@XZ 00419990 f   foundation_win32.release:console.obj
 0001:000189d0       ?RegisterWithFactory@Console@IO@@SA_NXZ 004199d0 f   foundation_win32.release:console.obj
 0001:00018ad0       ??0Console@IO@@QAE@XZ      00419ad0 f   foundation_win32.release:console.obj
 0001:00018b50       ??_EConsole@IO@@UAEPAXI@Z  00419b50 f i  CIL library: CIL module
 0001:00018b50       ??_GConsole@IO@@UAEPAXI@Z  00419b50 f i foundation_win32.release:console.obj
 0001:00018b80       ??1Console@IO@@UAE@XZ      00419b80 f   foundation_win32.release:console.obj
 0001:00018c30       ?Open@Console@IO@@QAEXXZ   00419c30 f   foundation_win32.release:console.obj
 0001:00018cc0       ?Close@Console@IO@@QAEXXZ  00419cc0 f   foundation_win32.release:console.obj
 0001:00018d60       ?Update@Console@IO@@QAEXXZ 00419d60 f   foundation_win32.release:console.obj
 0001:00018e10       ?AttachHandler@Console@IO@@QAEXABV?$Ptr@VConsoleHandler@IO@@@@@Z 00419e10 f   foundation_win32.release:console.obj
 0001:00018ea0       ?RemoveHandler@Console@IO@@QAEXABV?$Ptr@VConsoleHandler@IO@@@@@Z 00419ea0 f   foundation_win32.release:console.obj
 0001:00018f70       ?HasInput@Console@IO@@QBE_NXZ 00419f70 f   foundation_win32.release:console.obj
 0001:00019040       ?GetInput@Console@IO@@QBE?AVString@Util@@XZ 0041a040 f   foundation_win32.release:console.obj
 0001:000191d0       ?Print@Console@IO@@QAAXPBDZZ 0041a1d0 f   foundation_win32.release:console.obj
 0001:00019230       ?Print@Console@IO@@QAAXPBDPAD@Z 0041a230 f   foundation_win32.release:console.obj
 0001:00019320       ?Print@Console@IO@@QAEXABVString@Util@@@Z 0041a320 f   foundation_win32.release:console.obj
 0001:000193e0       ?Error@Console@IO@@QAAXPBDZZ 0041a3e0 f   foundation_win32.release:console.obj
 0001:00019440       ?Error@Console@IO@@QAAXPBDPAD@Z 0041a440 f   foundation_win32.release:console.obj
 0001:00019530       ?DebugOut@Console@IO@@QAAXPBDZZ 0041a530 f   foundation_win32.release:console.obj
 0001:00019590       ?DebugOut@Console@IO@@QAAXPBDPAD@Z 0041a590 f   foundation_win32.release:console.obj
 0001:00019680       ?Warning@Console@IO@@QAAXPBDZZ 0041a680 f   foundation_win32.release:console.obj
 0001:000196e0       ?Warning@Console@IO@@QAAXPBDPAD@Z 0041a6e0 f   foundation_win32.release:console.obj
 0001:000197d0       ?Confirm@Console@IO@@QAAXPBDZZ 0041a7d0 f   foundation_win32.release:console.obj
 0001:00019830       ?Confirm@Console@IO@@QAAXPBDPAD@Z 0041a830 f   foundation_win32.release:console.obj
 0001:00019920       ??0?$Array@V?$Ptr@VConsoleHandler@IO@@@@@Util@@QAE@XZ 0041a920 f i foundation_win32.release:console.obj
 0001:00019960       ??1?$Array@V?$Ptr@VConsoleHandler@IO@@@@@Util@@QAE@XZ 0041a960 f i foundation_win32.release:console.obj
 0001:00019980       ??A?$Array@V?$Ptr@VConsoleHandler@IO@@@@@Util@@QBEAAV?$Ptr@VConsoleHandler@IO@@@@H@Z 0041a980 f i foundation_win32.release:console.obj
 0001:000199d0       ?Size@?$Array@V?$Ptr@VConsoleHandler@IO@@@@@Util@@QBEHXZ 0041a9d0 f i foundation_win32.release:console.obj
 0001:000199f0       ?EraseIndex@?$Array@V?$Ptr@VConsoleHandler@IO@@@@@Util@@QAEXH@Z 0041a9f0 f i foundation_win32.release:console.obj
 0001:00019a70       ?Insert@?$Array@V?$Ptr@VConsoleHandler@IO@@@@@Util@@QAEXHABV?$Ptr@VConsoleHandler@IO@@@@@Z 0041aa70 f i foundation_win32.release:console.obj
 0001:00019ae0       ?FindIndex@?$Array@V?$Ptr@VConsoleHandler@IO@@@@@Util@@QBEHABV?$Ptr@VConsoleHandler@IO@@@@@Z 0041aae0 f i foundation_win32.release:console.obj
 0001:00019b40       ??0?$Ptr@VConsoleHandler@IO@@@@QAE@PAVConsoleHandler@IO@@@Z 0041ab40 f i foundation_win32.release:console.obj
 0001:00019b80       ??C?$Ptr@VConsoleHandler@IO@@@@QBEPAVConsoleHandler@IO@@XZ 0041ab80 f i foundation_win32.release:console.obj
 0001:00019bc0       ?isvalid@?$Ptr@VConsoleHandler@IO@@@@QBE_NXZ 0041abc0 f i foundation_win32.release:console.obj
 0001:00019be0       ?Append@?$Array@V?$Ptr@VConsoleHandler@IO@@@@@Util@@QAEXABV?$Ptr@VConsoleHandler@IO@@@@@Z 0041abe0 f i foundation_win32.release:console.obj
 0001:00019c60       ?Destroy@?$Array@V?$Ptr@VConsoleHandler@IO@@@@@Util@@AAEXPAV?$Ptr@VConsoleHandler@IO@@@@@Z 0041ac60 f i foundation_win32.release:console.obj
 0001:00019c90       ?Delete@?$Array@V?$Ptr@VConsoleHandler@IO@@@@@Util@@AAEXXZ 0041ac90 f i foundation_win32.release:console.obj
 0001:00019d00       ?Move@?$Array@V?$Ptr@VConsoleHandler@IO@@@@@Util@@AAEXHH@Z 0041ad00 f i foundation_win32.release:console.obj
 0001:00019e90       ??4?$Ptr@VConsoleHandler@IO@@@@QAEXABV0@@Z 0041ae90 f i foundation_win32.release:console.obj
 0001:00019ef0       ??8?$Ptr@VConsoleHandler@IO@@@@QBE_NABV0@@Z 0041aef0 f i foundation_win32.release:console.obj
 0001:00019f10       ??_G?$Ptr@VConsoleHandler@IO@@@@QAEPAXI@Z 0041af10 f i foundation_win32.release:console.obj
 0001:00019f40       ?Grow@?$Array@V?$Ptr@VConsoleHandler@IO@@@@@Util@@AAEXXZ 0041af40 f i foundation_win32.release:console.obj
 0001:00019fc0       ??0?$Ptr@VConsoleHandler@IO@@@@QAE@XZ 0041afc0 f i foundation_win32.release:console.obj
 0001:00019fe0       ?GrowTo@?$Array@V?$Ptr@VConsoleHandler@IO@@@@@Util@@AAEXH@Z 0041afe0 f i foundation_win32.release:console.obj
 0001:0001a100       ?Setup@Blob@Util@@SAXXZ    0041b100 f i foundation_win32.release:win32sysfunc.obj
 0001:0001a170       ?Shutdown@Blob@Util@@SAXXZ 0041b170 f i foundation_win32.release:win32sysfunc.obj
 0001:0001a1f0       ??_GWin360Heap@Win360@@QAEPAXI@Z 0041b1f0 f i foundation_win32.release:win32sysfunc.obj
 0001:0001a220       ?Setup@SysFunc@Win32@@SAXXZ 0041b220 f   foundation_win32.release:win32sysfunc.obj
 0001:0001a2e0       ?Exit@SysFunc@Win32@@SAXH@Z 0041b2e0 f   foundation_win32.release:win32sysfunc.obj
 0001:0001a3c0       ??_GGlobalStringAtomTable@Util@@QAEPAXI@Z 0041b3c0 f i foundation_win32.release:win32sysfunc.obj
 0001:0001a3f0       ??_GLocalStringAtomTable@Util@@QAEPAXI@Z 0041b3f0 f i foundation_win32.release:win32sysfunc.obj
 0001:0001a420       ?Error@SysFunc@Win32@@SAXPBD@Z 0041b420 f   foundation_win32.release:win32sysfunc.obj
 0001:0001a450       ?MessageBoxA@SysFunc@Win32@@SAXPBD@Z 0041b450 f   foundation_win32.release:win32sysfunc.obj
 0001:0001a490       ?Sleep@SysFunc@Win32@@SAXN@Z 0041b490 f   foundation_win32.release:win32sysfunc.obj
 0001:0001a4c0       ?DebugOut@SysFunc@Win32@@SAXPBD@Z 0041b4c0 f   foundation_win32.release:win32sysfunc.obj
 0001:0001a4d0       ?RegisterExitHandler@SysFunc@Win32@@CAPBVExitHandler@Core@@PBV34@@Z 0041b4d0 f   foundation_win32.release:win32sysfunc.obj
 0001:0001a4f0       ?GetSystemInfo@SysFunc@Win32@@SAPBVSystemInfo@System@@XZ 0041b4f0 f   foundation_win32.release:win32sysfunc.obj
 0001:0001a500       ?XMVerifyCPUSupport@@YAHXZ 0041b500 f i foundation_win32.release:win32sysfunc.obj
 0001:0001a540       ?SetupHeaps@Memory@@YAXXZ  0041b540 f   foundation_win32.release:win360memoryconfig.obj
 0001:0001a6a0       ?GetHeapTypeName@Memory@@YAPBDW4HeapType@1@@Z 0041b6a0 f   foundation_win32.release:win360memoryconfig.obj
 0001:0001a760       ?HashCode@String@Util@@QBEHXZ 0041b760 f i foundation_win32.release:factory.obj
 0001:0001a810       ??9FourCC@Util@@QBE_NABV01@@Z 0041b810 f i foundation_win32.release:factory.obj
 0001:0001a830       ??OFourCC@Util@@QBE_NABV01@@Z 0041b830 f i foundation_win32.release:factory.obj
 0001:0001a850       ??MFourCC@Util@@QBE_NABV01@@Z 0041b850 f i foundation_win32.release:factory.obj
 0001:0001a870       ?AsString@FourCC@Util@@QBE?AVString@2@XZ 0041b870 f i foundation_win32.release:factory.obj
 0001:0001a8a0       ?ToString@FourCC@Util@@SA?AVString@2@ABV12@@Z 0041b8a0 f i foundation_win32.release:factory.obj
 0001:0001aa30       ?Instance@Factory@Core@@SAPAV12@XZ 0041ba30 f   foundation_win32.release:factory.obj
 0001:0001aaa0       ?Destroy@Factory@Core@@SAXXZ 0041baa0 f   foundation_win32.release:factory.obj
 0001:0001ab00       ??_GFactory@Core@@AAEPAXI@Z 0041bb00 f i foundation_win32.release:factory.obj
 0001:0001ab30       ??0Factory@Core@@AAE@XZ    0041bb30 f   foundation_win32.release:factory.obj
 0001:0001ab60       ??1?$HashTable@VString@Util@@PBVRtti@Core@@@Util@@QAE@XZ 0041bb60 f i foundation_win32.release:factory.obj
 0001:0001ab80       ??1?$Dictionary@VFourCC@Util@@PBVRtti@Core@@@Util@@QAE@XZ 0041bb80 f i foundation_win32.release:factory.obj
 0001:0001aba0       ??1Factory@Core@@AAE@XZ    0041bba0 f   foundation_win32.release:factory.obj
 0001:0001abe0       ?Register@Factory@Core@@QAEXPBVRtti@2@ABVString@Util@@ABVFourCC@5@@Z 0041bbe0 f   foundation_win32.release:factory.obj
 0001:0001add0       ?Register@Factory@Core@@QAEXPBVRtti@2@ABVString@Util@@@Z 0041bdd0 f   foundation_win32.release:factory.obj
 0001:0001aea0       ?ClassExists@Factory@Core@@QBE_NABVString@Util@@@Z 0041bea0 f   foundation_win32.release:factory.obj
 0001:0001aef0       ?ClassExists@Factory@Core@@QBE_NVFourCC@Util@@@Z 0041bef0 f   foundation_win32.release:factory.obj
 0001:0001af40       ?GetClassRtti@Factory@Core@@QBEPBVRtti@2@ABVString@Util@@@Z 0041bf40 f   foundation_win32.release:factory.obj
 0001:0001afb0       ?GetClassRtti@Factory@Core@@QBEPBVRtti@2@ABVFourCC@Util@@@Z 0041bfb0 f   foundation_win32.release:factory.obj
 0001:0001b030       ?Create@Factory@Core@@QBEPAVRefCounted@2@ABVString@Util@@@Z 0041c030 f   foundation_win32.release:factory.obj
 0001:0001b140       ?Create@Factory@Core@@QBEPAVRefCounted@2@VFourCC@Util@@@Z 0041c140 f   foundation_win32.release:factory.obj
 0001:0001b290       ??1?$FixedArray@V?$Array@V?$KeyValuePair@VString@Util@@PBVRtti@Core@@@Util@@@Util@@@Util@@QAE@XZ 0041c290 f i foundation_win32.release:factory.obj
 0001:0001b2b0       ??0?$HashTable@VString@Util@@PBVRtti@Core@@@Util@@QAE@H@Z 0041c2b0 f i foundation_win32.release:factory.obj
 0001:0001b2e0       ??A?$HashTable@VString@Util@@PBVRtti@Core@@@Util@@QBEAAPBVRtti@Core@@ABVString@1@@Z 0041c2e0 f i foundation_win32.release:factory.obj
 0001:0001b3e0       ?Clear@?$HashTable@VString@Util@@PBVRtti@Core@@@Util@@QAEXXZ 0041c3e0 f i foundation_win32.release:factory.obj
 0001:0001b440       ?Add@?$HashTable@VString@Util@@PBVRtti@Core@@@Util@@QAEXABVString@2@ABQBVRtti@Core@@@Z 0041c440 f i foundation_win32.release:factory.obj
 0001:0001b480       ?Contains@?$HashTable@VString@Util@@PBVRtti@Core@@@Util@@QBE_NABVString@2@@Z 0041c480 f i foundation_win32.release:factory.obj
 0001:0001b520       ??1?$Array@V?$KeyValuePair@VFourCC@Util@@PBVRtti@Core@@@Util@@@Util@@QAE@XZ 0041c520 f i foundation_win32.release:factory.obj
 0001:0001b540       ??0?$Dictionary@VFourCC@Util@@PBVRtti@Core@@@Util@@QAE@XZ 0041c540 f i foundation_win32.release:factory.obj
 0001:0001b560       ??A?$Dictionary@VFourCC@Util@@PBVRtti@Core@@@Util@@QBEABQBVRtti@Core@@ABVFourCC@1@@Z 0041c560 f i foundation_win32.release:factory.obj
 0001:0001b5b0       ?Clear@?$Dictionary@VFourCC@Util@@PBVRtti@Core@@@Util@@QAEXXZ 0041c5b0 f i foundation_win32.release:factory.obj
 0001:0001b5f0       ?Add@?$Dictionary@VFourCC@Util@@PBVRtti@Core@@@Util@@QAEXABVFourCC@2@ABQBVRtti@Core@@@Z 0041c5f0 f i foundation_win32.release:factory.obj
 0001:0001b640       ?Contains@?$Dictionary@VFourCC@Util@@PBVRtti@Core@@@Util@@QBE_NABVFourCC@2@@Z 0041c640 f i foundation_win32.release:factory.obj
 0001:0001b6a0       ??1?$KeyValuePair@VString@Util@@PBVRtti@Core@@@Util@@QAE@XZ 0041c6a0 f i foundation_win32.release:factory.obj
 0001:0001b6f0       ??0?$FixedArray@V?$Array@V?$KeyValuePair@VString@Util@@PBVRtti@Core@@@Util@@@Util@@@Util@@QAE@H@Z 0041c6f0 f i foundation_win32.release:factory.obj
 0001:0001b720       ??A?$FixedArray@V?$Array@V?$KeyValuePair@VString@Util@@PBVRtti@Core@@@Util@@@Util@@@Util@@QBEAAV?$Array@V?$KeyValuePair@VString@Util@@PBVRtti@Core@@@Util@@@1@H@Z 0041c720 f i foundation_win32.release:factory.obj
 0001:0001b770       ?Size@?$FixedArray@V?$Array@V?$KeyValuePair@VString@Util@@PBVRtti@Core@@@Util@@@Util@@@Util@@QBEHXZ 0041c770 f i foundation_win32.release:factory.obj
 0001:0001b780       ?Delete@?$FixedArray@V?$Array@V?$KeyValuePair@VString@Util@@PBVRtti@Core@@@Util@@@Util@@@Util@@AAEXXZ 0041c780 f i foundation_win32.release:factory.obj
 0001:0001b7e0       ?Add@?$HashTable@VString@Util@@PBVRtti@Core@@@Util@@QAEXABV?$KeyValuePair@VString@Util@@PBVRtti@Core@@@2@@Z 0041c7e0 f i foundation_win32.release:factory.obj
 0001:0001b870       ??A?$Array@V?$KeyValuePair@VString@Util@@PBVRtti@Core@@@Util@@@Util@@QBEAAV?$KeyValuePair@VString@Util@@PBVRtti@Core@@@1@H@Z 0041c870 f i foundation_win32.release:factory.obj
 0001:0001b8c0       ?Size@?$Array@V?$KeyValuePair@VString@Util@@PBVRtti@Core@@@Util@@@Util@@QBEHXZ 0041c8c0 f i foundation_win32.release:factory.obj
 0001:0001b8e0       ?Clear@?$Array@V?$KeyValuePair@VString@Util@@PBVRtti@Core@@@Util@@@Util@@QAEXXZ 0041c8e0 f i foundation_win32.release:factory.obj
 0001:0001b930       ?BinarySearchIndex@?$Array@V?$KeyValuePair@VString@Util@@PBVRtti@Core@@@Util@@@Util@@QBEHABV?$KeyValuePair@VString@Util@@PBVRtti@Core@@@2@@Z 0041c930 f i foundation_win32.release:factory.obj
 0001:0001ba60       ??0?$KeyValuePair@VString@Util@@PBVRtti@Core@@@Util@@QAE@ABVString@1@@Z 0041ca60 f i foundation_win32.release:factory.obj
 0001:0001bac0       ??0?$KeyValuePair@VString@Util@@PBVRtti@Core@@@Util@@QAE@ABVString@1@ABQBVRtti@Core@@@Z 0041cac0 f i foundation_win32.release:factory.obj
 0001:0001bb30       ?Value@?$KeyValuePair@VString@Util@@PBVRtti@Core@@@Util@@QAEAAPBVRtti@Core@@XZ 0041cb30 f i foundation_win32.release:factory.obj
 0001:0001bb50       ??0?$Array@V?$KeyValuePair@VFourCC@Util@@PBVRtti@Core@@@Util@@@Util@@QAE@XZ 0041cb50 f i foundation_win32.release:factory.obj
 0001:0001bb90       ??A?$Array@V?$KeyValuePair@VFourCC@Util@@PBVRtti@Core@@@Util@@@Util@@QBEAAV?$KeyValuePair@VFourCC@Util@@PBVRtti@Core@@@1@H@Z 0041cb90 f i foundation_win32.release:factory.obj
 0001:0001bbe0       ?Append@?$Array@V?$KeyValuePair@VFourCC@Util@@PBVRtti@Core@@@Util@@@Util@@QAEXABV?$KeyValuePair@VFourCC@Util@@PBVRtti@Core@@@2@@Z 0041cbe0 f i foundation_win32.release:factory.obj
 0001:0001bc60       ?InsertSorted@?$Array@V?$KeyValuePair@VFourCC@Util@@PBVRtti@Core@@@Util@@@Util@@QAEHABV?$KeyValuePair@VFourCC@Util@@PBVRtti@Core@@@2@@Z 0041cc60 f i foundation_win32.release:factory.obj
 0001:0001bed0       ?Clear@?$Array@V?$KeyValuePair@VFourCC@Util@@PBVRtti@Core@@@Util@@@Util@@QAEXXZ 0041ced0 f i foundation_win32.release:factory.obj
 0001:0001bf20       ?BinarySearchIndex@?$Array@V?$KeyValuePair@VFourCC@Util@@PBVRtti@Core@@@Util@@@Util@@QBEHABV?$KeyValuePair@VFourCC@Util@@PBVRtti@Core@@@2@@Z 0041cf20 f i foundation_win32.release:factory.obj
 0001:0001c050       ?Delete@?$Array@V?$KeyValuePair@VFourCC@Util@@PBVRtti@Core@@@Util@@@Util@@AAEXXZ 0041d050 f i foundation_win32.release:factory.obj
 0001:0001c0b0       ?FindIndex@?$Dictionary@VFourCC@Util@@PBVRtti@Core@@@Util@@QBEHABVFourCC@2@@Z 0041d0b0 f i foundation_win32.release:factory.obj
 0001:0001c100       ??0?$KeyValuePair@VFourCC@Util@@PBVRtti@Core@@@Util@@QAE@ABVFourCC@1@@Z 0041d100 f i foundation_win32.release:factory.obj
 0001:0001c120       ??0?$KeyValuePair@VFourCC@Util@@PBVRtti@Core@@@Util@@QAE@ABVFourCC@1@ABQBVRtti@Core@@@Z 0041d120 f i foundation_win32.release:factory.obj
 0001:0001c150       ?Value@?$KeyValuePair@VFourCC@Util@@PBVRtti@Core@@@Util@@QAEAAPBVRtti@Core@@XZ 0041d150 f i foundation_win32.release:factory.obj
 0001:0001c170       ??_E?$Array@V?$KeyValuePair@VString@Util@@PBVRtti@Core@@@Util@@@Util@@QAEPAXI@Z 0041d170 f i foundation_win32.release:factory.obj
 0001:0001c210       ?Alloc@?$FixedArray@V?$Array@V?$KeyValuePair@VString@Util@@PBVRtti@Core@@@Util@@@Util@@@Util@@AAEXH@Z 0041d210 f i foundation_win32.release:factory.obj
 0001:0001c2e0       ??1?$Array@V?$KeyValuePair@VString@Util@@PBVRtti@Core@@@Util@@@Util@@QAE@XZ 0041d2e0 f i foundation_win32.release:factory.obj
 0001:0001c300       ?InsertSorted@?$Array@V?$KeyValuePair@VString@Util@@PBVRtti@Core@@@Util@@@Util@@QAEHABV?$KeyValuePair@VString@Util@@PBVRtti@Core@@@2@@Z 0041d300 f i foundation_win32.release:factory.obj
 0001:0001c570       ?Destroy@?$Array@V?$KeyValuePair@VString@Util@@PBVRtti@Core@@@Util@@@Util@@AAEXPAV?$KeyValuePair@VString@Util@@PBVRtti@Core@@@2@@Z 0041d570 f i foundation_win32.release:factory.obj
 0001:0001c590       ??9?$KeyValuePair@VString@Util@@PBVRtti@Core@@@Util@@QBE_NABV01@@Z 0041d590 f i foundation_win32.release:factory.obj
 0001:0001c5b0       ??O?$KeyValuePair@VString@Util@@PBVRtti@Core@@@Util@@QBE_NABV01@@Z 0041d5b0 f i foundation_win32.release:factory.obj
 0001:0001c5d0       ??M?$KeyValuePair@VString@Util@@PBVRtti@Core@@@Util@@QBE_NABV01@@Z 0041d5d0 f i foundation_win32.release:factory.obj
 0001:0001c5f0       ?Key@?$KeyValuePair@VString@Util@@PBVRtti@Core@@@Util@@QBEABVString@2@XZ 0041d5f0 f i foundation_win32.release:factory.obj
 0001:0001c600       ?Size@?$Array@V?$KeyValuePair@VFourCC@Util@@PBVRtti@Core@@@Util@@@Util@@QBEHXZ 0041d600 f i foundation_win32.release:factory.obj
 0001:0001c620       ?Insert@?$Array@V?$KeyValuePair@VFourCC@Util@@PBVRtti@Core@@@Util@@@Util@@QAEXHABV?$KeyValuePair@VFourCC@Util@@PBVRtti@Core@@@2@@Z 0041d620 f i foundation_win32.release:factory.obj
 0001:0001c690       ?InsertAtEndOfIdenticalRange@?$Array@V?$KeyValuePair@VFourCC@Util@@PBVRtti@Core@@@Util@@@Util@@QAEHHABV?$KeyValuePair@VFourCC@Util@@PBVRtti@Core@@@2@@Z 0041d690 f i foundation_win32.release:factory.obj
 0001:0001c710       ?Destroy@?$Array@V?$KeyValuePair@VFourCC@Util@@PBVRtti@Core@@@Util@@@Util@@AAEXPAV?$KeyValuePair@VFourCC@Util@@PBVRtti@Core@@@2@@Z 0041d710 f i foundation_win32.release:factory.obj
 0001:0001c720       ?Grow@?$Array@V?$KeyValuePair@VFourCC@Util@@PBVRtti@Core@@@Util@@@Util@@AAEXXZ 0041d720 f i foundation_win32.release:factory.obj
 0001:0001c7a0       ??4?$KeyValuePair@VFourCC@Util@@PBVRtti@Core@@@Util@@QAEXABV01@@Z 0041d7a0 f i foundation_win32.release:factory.obj
 0001:0001c7d0       ??9?$KeyValuePair@VFourCC@Util@@PBVRtti@Core@@@Util@@QBE_NABV01@@Z 0041d7d0 f i foundation_win32.release:factory.obj
 0001:0001c7f0       ??O?$KeyValuePair@VFourCC@Util@@PBVRtti@Core@@@Util@@QBE_NABV01@@Z 0041d7f0 f i foundation_win32.release:factory.obj
 0001:0001c810       ??M?$KeyValuePair@VFourCC@Util@@PBVRtti@Core@@@Util@@QBE_NABV01@@Z 0041d810 f i foundation_win32.release:factory.obj
 0001:0001c830       ??_G?$KeyValuePair@VString@Util@@PBVRtti@Core@@@Util@@QAEPAXI@Z 0041d830 f i foundation_win32.release:factory.obj
 0001:0001c8a0       ??0?$Array@V?$KeyValuePair@VString@Util@@PBVRtti@Core@@@Util@@@Util@@QAE@XZ 0041d8a0 f i foundation_win32.release:factory.obj
 0001:0001c8e0       ?Append@?$Array@V?$KeyValuePair@VString@Util@@PBVRtti@Core@@@Util@@@Util@@QAEXABV?$KeyValuePair@VString@Util@@PBVRtti@Core@@@2@@Z 0041d8e0 f i foundation_win32.release:factory.obj
 0001:0001c960       ?Insert@?$Array@V?$KeyValuePair@VString@Util@@PBVRtti@Core@@@Util@@@Util@@QAEXHABV?$KeyValuePair@VString@Util@@PBVRtti@Core@@@2@@Z 0041d960 f i foundation_win32.release:factory.obj
 0001:0001c9d0       ?InsertAtEndOfIdenticalRange@?$Array@V?$KeyValuePair@VString@Util@@PBVRtti@Core@@@Util@@@Util@@QAEHHABV?$KeyValuePair@VString@Util@@PBVRtti@Core@@@2@@Z 0041d9d0 f i foundation_win32.release:factory.obj
 0001:0001ca50       ?Delete@?$Array@V?$KeyValuePair@VString@Util@@PBVRtti@Core@@@Util@@@Util@@AAEXXZ 0041da50 f i foundation_win32.release:factory.obj
 0001:0001cac0       ?GrowTo@?$Array@V?$KeyValuePair@VFourCC@Util@@PBVRtti@Core@@@Util@@@Util@@AAEXH@Z 0041dac0 f i foundation_win32.release:factory.obj
 0001:0001cbb0       ?Move@?$Array@V?$KeyValuePair@VFourCC@Util@@PBVRtti@Core@@@Util@@@Util@@AAEXHH@Z 0041dbb0 f i foundation_win32.release:factory.obj
 0001:0001cd40       ??_E?$KeyValuePair@VString@Util@@PBVRtti@Core@@@Util@@QAEPAXI@Z 0041dd40 f i foundation_win32.release:factory.obj
 0001:0001ce50       ?Grow@?$Array@V?$KeyValuePair@VString@Util@@PBVRtti@Core@@@Util@@@Util@@AAEXXZ 0041de50 f i foundation_win32.release:factory.obj
 0001:0001ced0       ?Move@?$Array@V?$KeyValuePair@VString@Util@@PBVRtti@Core@@@Util@@@Util@@AAEXHH@Z 0041ded0 f i foundation_win32.release:factory.obj
 0001:0001d060       ??4?$KeyValuePair@VString@Util@@PBVRtti@Core@@@Util@@QAEXABV01@@Z 0041e060 f i foundation_win32.release:factory.obj
 0001:0001d0b0       ??0?$KeyValuePair@VFourCC@Util@@PBVRtti@Core@@@Util@@QAE@XZ 0041e0b0 f i foundation_win32.release:factory.obj
 0001:0001d0d0       ?GrowTo@?$Array@V?$KeyValuePair@VString@Util@@PBVRtti@Core@@@Util@@@Util@@AAEXH@Z 0041e0d0 f i foundation_win32.release:factory.obj
 0001:0001d1f0       ??0?$KeyValuePair@VString@Util@@PBVRtti@Core@@@Util@@QAE@XZ 0041e1f0 f i foundation_win32.release:factory.obj
 0001:0001d230       ??0LocalStringAtomTable@Util@@QAE@XZ 0041e230 f   foundation_win32.release:localstringatomtable.obj
 0001:0001d280       ??1LocalStringAtomTable@Util@@QAE@XZ 0041e280 f   foundation_win32.release:localstringatomtable.obj
 0001:0001d2d0       ?Add@LocalStringAtomTable@Util@@AAEXPBD@Z 0041e2d0 f   foundation_win32.release:localstringatomtable.obj
 0001:0001d300       ?InsertSorted@?$Array@UStaticString@StringAtomTableBase@Util@@@Util@@QAEHABUStaticString@StringAtomTableBase@2@@Z 0041e300 f i foundation_win32.release:localstringatomtable.obj
 0001:0001d570       ?Append@?$Array@UStaticString@StringAtomTableBase@Util@@@Util@@QAEXABUStaticString@StringAtomTableBase@2@@Z 0041e570 f i foundation_win32.release:localstringatomtable.obj
 0001:0001d5e0       ?Size@?$Array@UStaticString@StringAtomTableBase@Util@@@Util@@QBEHXZ 0041e5e0 f i foundation_win32.release:localstringatomtable.obj
 0001:0001d600       ?Insert@?$Array@UStaticString@StringAtomTableBase@Util@@@Util@@QAEXHABUStaticString@StringAtomTableBase@2@@Z 0041e600 f i foundation_win32.release:localstringatomtable.obj
 0001:0001d670       ?InsertAtEndOfIdenticalRange@?$Array@UStaticString@StringAtomTableBase@Util@@@Util@@QAEHHABUStaticString@StringAtomTableBase@2@@Z 0041e670 f i foundation_win32.release:localstringatomtable.obj
 0001:0001d6f0       ?Grow@?$Array@UStaticString@StringAtomTableBase@Util@@@Util@@AAEXXZ 0041e6f0 f i foundation_win32.release:localstringatomtable.obj
 0001:0001d770       ?Move@?$Array@UStaticString@StringAtomTableBase@Util@@@Util@@AAEXHH@Z 0041e770 f i foundation_win32.release:localstringatomtable.obj
 0001:0001d8f0       ?Destroy@?$Array@UStaticString@StringAtomTableBase@Util@@@Util@@AAEXPAUStaticString@StringAtomTableBase@2@@Z 0041e8f0 f i foundation_win32.release:localstringatomtable.obj
 0001:0001d900       ?GrowTo@?$Array@UStaticString@StringAtomTableBase@Util@@@Util@@AAEXH@Z 0041e900 f i foundation_win32.release:localstringatomtable.obj
 0001:0001d9b0       ?GetNumChunks@StringBuffer@Util@@QBEHXZ 0041e9b0 f i foundation_win32.release:globalstringatomtable.obj
 0001:0001d9d0       ??0GlobalStringAtomTable@Util@@QAE@XZ 0041e9d0 f   foundation_win32.release:globalstringatomtable.obj
 0001:0001da40       ??1GlobalStringAtomTable@Util@@QAE@XZ 0041ea40 f   foundation_win32.release:globalstringatomtable.obj
 0001:0001dae0       ?Lock@GlobalStringAtomTable@Util@@AAEXXZ 0041eae0 f   foundation_win32.release:globalstringatomtable.obj
 0001:0001db00       ?Unlock@GlobalStringAtomTable@Util@@AAEXXZ 0041eb00 f   foundation_win32.release:globalstringatomtable.obj
 0001:0001db40       ?Add@GlobalStringAtomTable@Util@@AAEPBDPBD@Z 0041eb40 f   foundation_win32.release:globalstringatomtable.obj
 0001:0001db70       ?GetDebugInfo@GlobalStringAtomTable@Util@@QBE?AUDebugInfo@12@XZ 0041eb70 f   foundation_win32.release:globalstringatomtable.obj
 0001:0001dc90       ??0DebugInfo@GlobalStringAtomTable@Util@@QAE@XZ 0041ec90 f i foundation_win32.release:globalstringatomtable.obj
 0001:0001dcb0       ??1DebugInfo@GlobalStringAtomTable@Util@@QAE@XZ 0041ecb0 f i foundation_win32.release:globalstringatomtable.obj
 0001:0001dcd0       ??0DebugInfo@GlobalStringAtomTable@Util@@QAE@ABU012@@Z 0041ecd0 f i foundation_win32.release:globalstringatomtable.obj
 0001:0001dd30       ??A?$Array@UStaticString@StringAtomTableBase@Util@@@Util@@QBEAAUStaticString@StringAtomTableBase@1@H@Z 0041ed30 f i foundation_win32.release:globalstringatomtable.obj
 0001:0001dd80       ?Size@?$Array@PAD@Util@@QBEHXZ 0041ed80 f i foundation_win32.release:globalstringatomtable.obj
 0001:0001dda0       ??0?$Array@PBD@Util@@QAE@ABV01@@Z 0041eda0 f i foundation_win32.release:globalstringatomtable.obj
 0001:0001ddf0       ??0?$Array@PBD@Util@@QAE@XZ 0041edf0 f i foundation_win32.release:globalstringatomtable.obj
 0001:0001de30       ??1?$Array@PBD@Util@@QAE@XZ 0041ee30 f i foundation_win32.release:globalstringatomtable.obj
 0001:0001de50       ?Append@?$Array@PBD@Util@@QAEXABQBD@Z 0041ee50 f i foundation_win32.release:globalstringatomtable.obj
 0001:0001dec0       ?Reserve@?$Array@PBD@Util@@QAEXH@Z 0041eec0 f i foundation_win32.release:globalstringatomtable.obj
 0001:0001df10       ?Copy@?$Array@PBD@Util@@AAEXABV12@@Z 0041ef10 f i foundation_win32.release:globalstringatomtable.obj
 0001:0001dfe0       ?Delete@?$Array@PBD@Util@@AAEXXZ 0041efe0 f i foundation_win32.release:globalstringatomtable.obj
 0001:0001e040       ?Grow@?$Array@PBD@Util@@AAEXXZ 0041f040 f i foundation_win32.release:globalstringatomtable.obj
 0001:0001e0c0       ?GrowTo@?$Array@PBD@Util@@AAEXH@Z 0041f0c0 f i foundation_win32.release:globalstringatomtable.obj
 0001:0001e170       ??0StringAtomTableBase@Util@@QAE@XZ 0041f170 f   foundation_win32.release:stringatomtablebase.obj
 0001:0001e190       ??1StringAtomTableBase@Util@@QAE@XZ 0041f190 f   foundation_win32.release:stringatomtablebase.obj
 0001:0001e1b0       ?Find@StringAtomTableBase@Util@@IBEPBDPBD@Z 0041f1b0 f   foundation_win32.release:stringatomtablebase.obj
 0001:0001e1f0       ??8StaticString@StringAtomTableBase@Util@@QBE_NABU012@@Z 0041f1f0 f   foundation_win32.release:stringatomtablebase.obj
 0001:0001e270       ??9StaticString@StringAtomTableBase@Util@@QBE_NABU012@@Z 0041f270 f   foundation_win32.release:stringatomtablebase.obj
 0001:0001e2f0       ??MStaticString@StringAtomTableBase@Util@@QBE_NABU012@@Z 0041f2f0 f   foundation_win32.release:stringatomtablebase.obj
 0001:0001e370       ??OStaticString@StringAtomTableBase@Util@@QBE_NABU012@@Z 0041f370 f   foundation_win32.release:stringatomtablebase.obj
 0001:0001e3f0       ??0?$Array@UStaticString@StringAtomTableBase@Util@@@Util@@QAE@XZ 0041f3f0 f i foundation_win32.release:stringatomtablebase.obj
 0001:0001e430       ??1?$Array@UStaticString@StringAtomTableBase@Util@@@Util@@QAE@XZ 0041f430 f i foundation_win32.release:stringatomtablebase.obj
 0001:0001e450       ?BinarySearchIndex@?$Array@UStaticString@StringAtomTableBase@Util@@@Util@@QBEHABUStaticString@StringAtomTableBase@2@@Z 0041f450 f i foundation_win32.release:stringatomtablebase.obj
 0001:0001e580       ?Delete@?$Array@UStaticString@StringAtomTableBase@Util@@@Util@@AAEXXZ 0041f580 f i foundation_win32.release:stringatomtablebase.obj
 0001:0001e5e0       ?SubstituteChar@String@Util@@QAEXDD@Z 0041f5e0 f i foundation_win32.release:assignregistry.obj
 0001:0001e650       ?ConvertBackslashes@String@Util@@QAEXXZ 0041f650 f i foundation_win32.release:assignregistry.obj
 0001:0001e6b0       ??0Assign@IO@@QAE@XZ       0041f6b0 f i foundation_win32.release:assignregistry.obj
 0001:0001e6d0       ??0Assign@IO@@QAE@ABVString@Util@@0@Z 0041f6d0 f i foundation_win32.release:assignregistry.obj
 0001:0001e740       ?GetName@Assign@IO@@QBEABVString@Util@@XZ 0041f740 f i foundation_win32.release:assignregistry.obj
 0001:0001e780       ??0URI@IO@@QAE@ABV01@@Z    0041f780 f i foundation_win32.release:assignregistry.obj
 0001:0001ea50       ??2AssignRegistry@IO@@SAPAXI@Z 0041fa50 f i foundation_win32.release:assignregistry.obj
 0001:0001ea60       ??3AssignRegistry@IO@@SAXPAX@Z 0041fa60 f i foundation_win32.release:assignregistry.obj
 0001:0001ea80       ?Instance@CoreServer@Core@@SAPAV12@XZ 0041fa80 f i foundation_win32.release:assignregistry.obj
 0001:0001eac0       ?GetRootDirectory@CoreServer@Core@@QBEABVStringAtom@Util@@XZ 0041fac0 f i foundation_win32.release:assignregistry.obj
 0001:0001eae0       ?GetRtti@AssignRegistry@IO@@UBEPAVRtti@Core@@XZ 0041fae0 f   foundation_win32.release:assignregistry.obj
 0001:0001eaf0       ?FactoryCreator@AssignRegistry@IO@@SAPAVRefCounted@Core@@XZ 0041faf0 f   foundation_win32.release:assignregistry.obj
 0001:0001eb00       ?Create@AssignRegistry@IO@@SAPAV12@XZ 0041fb00 f   foundation_win32.release:assignregistry.obj
 0001:0001eb40       ?RegisterWithFactory@AssignRegistry@IO@@SA_NXZ 0041fb40 f   foundation_win32.release:assignregistry.obj
 0001:0001ec40       ??0AssignRegistry@IO@@QAE@XZ 0041fc40 f   foundation_win32.release:assignregistry.obj
 0001:0001ecc0       ??_GAssignRegistry@IO@@UAEPAXI@Z 0041fcc0 f i foundation_win32.release:assignregistry.obj
 0001:0001ecc0       ??_EAssignRegistry@IO@@UAEPAXI@Z 0041fcc0 f i  CIL library: CIL module
 0001:0001ecf0       ??1?$HashTable@VString@Util@@V12@@Util@@QAE@XZ 0041fcf0 f i foundation_win32.release:assignregistry.obj
 0001:0001ed10       ??1AssignRegistry@IO@@UAE@XZ 0041fd10 f   foundation_win32.release:assignregistry.obj
 0001:0001ed80       ?Setup@AssignRegistry@IO@@QAEXXZ 0041fd80 f   foundation_win32.release:assignregistry.obj
 0001:0001ee00       ?Discard@AssignRegistry@IO@@QAEXXZ 0041fe00 f   foundation_win32.release:assignregistry.obj
 0001:0001ee80       ?IsValid@AssignRegistry@IO@@QBE_NXZ 0041fe80 f   foundation_win32.release:assignregistry.obj
 0001:0001eea0       ?SetupSystemAssigns@AssignRegistry@IO@@AAEXXZ 0041fea0 f   foundation_win32.release:assignregistry.obj
 0001:0001f2f0       ??1Assign@IO@@QAE@XZ       004202f0 f i foundation_win32.release:assignregistry.obj
 0001:0001f310       ?SetupProjectAssigns@AssignRegistry@IO@@AAEXXZ 00420310 f   foundation_win32.release:assignregistry.obj
 0001:00020150       ?SetAssign@AssignRegistry@IO@@QAEXABVAssign@2@@Z 00421150 f   foundation_win32.release:assignregistry.obj
 0001:00020240       ?HasAssign@AssignRegistry@IO@@QBE_NABVString@Util@@@Z 00421240 f   foundation_win32.release:assignregistry.obj
 0001:000202d0       ?GetAssign@AssignRegistry@IO@@QBE?AVString@Util@@ABV34@@Z 004212d0 f   foundation_win32.release:assignregistry.obj
 0001:000203e0       ?ClearAssign@AssignRegistry@IO@@QAEXABVString@Util@@@Z 004213e0 f   foundation_win32.release:assignregistry.obj
 0001:00020490       ?GetAllAssigns@AssignRegistry@IO@@QBE?AV?$Array@VAssign@IO@@@Util@@XZ 00421490 f   foundation_win32.release:assignregistry.obj
 0001:00020580       ?ResolveAssigns@AssignRegistry@IO@@QBE?AVURI@2@ABV32@@Z 00421580 f   foundation_win32.release:assignregistry.obj
 0001:000206b0       ?ResolveAssignsInString@AssignRegistry@IO@@QBE?AVString@Util@@ABV34@@Z 004216b0 f   foundation_win32.release:assignregistry.obj
 0001:00020a70       ?Value@?$KeyValuePair@VString@Util@@V12@@Util@@QAEAAVString@2@XZ 00421a70 f i foundation_win32.release:assignregistry.obj
 0001:00020a90       ?Key@?$KeyValuePair@VString@Util@@V12@@Util@@QBEABVString@2@XZ 00421a90 f i foundation_win32.release:assignregistry.obj
 0001:00020aa0       ??1?$FixedArray@V?$Array@V?$KeyValuePair@VString@Util@@V12@@Util@@@Util@@@Util@@QAE@XZ 00421aa0 f i foundation_win32.release:assignregistry.obj
 0001:00020ac0       ??0?$HashTable@VString@Util@@V12@@Util@@QAE@XZ 00421ac0 f i foundation_win32.release:assignregistry.obj
 0001:00020af0       ??A?$HashTable@VString@Util@@V12@@Util@@QBEAAVString@1@ABV21@@Z 00421af0 f i foundation_win32.release:assignregistry.obj
 0001:00020bd0       ?Clear@?$HashTable@VString@Util@@V12@@Util@@QAEXXZ 00421bd0 f i foundation_win32.release:assignregistry.obj
 0001:00020c30       ?Add@?$HashTable@VString@Util@@V12@@Util@@QAEXABV?$KeyValuePair@VString@Util@@V12@@2@@Z 00421c30 f i foundation_win32.release:assignregistry.obj
 0001:00020cc0       ?Erase@?$HashTable@VString@Util@@V12@@Util@@QAEXABVString@2@@Z 00421cc0 f i foundation_win32.release:assignregistry.obj
 0001:00020d80       ?Contains@?$HashTable@VString@Util@@V12@@Util@@QBE_NABVString@2@@Z 00421d80 f i foundation_win32.release:assignregistry.obj
 0001:00020e00       ?Content@?$HashTable@VString@Util@@V12@@Util@@QBE?AV?$Array@V?$KeyValuePair@VString@Util@@V12@@Util@@@2@XZ 00421e00 f i foundation_win32.release:assignregistry.obj
 0001:00020e90       ??0?$Array@VAssign@IO@@@Util@@QAE@ABV01@@Z 00421e90 f i foundation_win32.release:assignregistry.obj
 0001:00020ee0       ??0?$Array@VAssign@IO@@@Util@@QAE@HH@Z 00421ee0 f i foundation_win32.release:assignregistry.obj
 0001:00020fd0       ??1?$Array@VAssign@IO@@@Util@@QAE@XZ 00421fd0 f i foundation_win32.release:assignregistry.obj
 0001:00020ff0       ?Append@?$Array@VAssign@IO@@@Util@@QAEXABVAssign@IO@@@Z 00421ff0 f i foundation_win32.release:assignregistry.obj
 0001:00021070       ??A?$Array@V?$KeyValuePair@VString@Util@@V12@@Util@@@Util@@QBEAAV?$KeyValuePair@VString@Util@@V12@@1@H@Z 00422070 f i foundation_win32.release:assignregistry.obj
 0001:000210c0       ??_EAssign@IO@@QAEPAXI@Z   004220c0 f i foundation_win32.release:assignregistry.obj
 0001:00021160       ??4Assign@IO@@QAEAAV01@ABV01@@Z 00422160 f i foundation_win32.release:assignregistry.obj
 0001:00021180       ??0?$KeyValuePair@VString@Util@@V12@@Util@@QAE@ABVString@1@@Z 00422180 f i foundation_win32.release:assignregistry.obj
 0001:00021210       ??0?$FixedArray@V?$Array@V?$KeyValuePair@VString@Util@@V12@@Util@@@Util@@@Util@@QAE@H@Z 00422210 f i foundation_win32.release:assignregistry.obj
 0001:00021240       ??A?$FixedArray@V?$Array@V?$KeyValuePair@VString@Util@@V12@@Util@@@Util@@@Util@@QBEAAV?$Array@V?$KeyValuePair@VString@Util@@V12@@Util@@@1@H@Z 00422240 f i foundation_win32.release:assignregistry.obj
 0001:00021290       ?Size@?$FixedArray@V?$Array@V?$KeyValuePair@VString@Util@@V12@@Util@@@Util@@@Util@@QBEHXZ 00422290 f i foundation_win32.release:assignregistry.obj
 0001:000212a0       ?Delete@?$FixedArray@V?$Array@V?$KeyValuePair@VString@Util@@V12@@Util@@@Util@@@Util@@AAEXXZ 004222a0 f i foundation_win32.release:assignregistry.obj
 0001:00021300       ?AppendArray@?$Array@V?$KeyValuePair@VString@Util@@V12@@Util@@@Util@@QAEXABV12@@Z 00422300 f i foundation_win32.release:assignregistry.obj
 0001:00021350       ?EraseIndex@?$Array@V?$KeyValuePair@VString@Util@@V12@@Util@@@Util@@QAEXH@Z 00422350 f i foundation_win32.release:assignregistry.obj
 0001:000213d0       ?Clear@?$Array@V?$KeyValuePair@VString@Util@@V12@@Util@@@Util@@QAEXXZ 004223d0 f i foundation_win32.release:assignregistry.obj
 0001:00021420       ?BinarySearchIndex@?$Array@V?$KeyValuePair@VString@Util@@V12@@Util@@@Util@@QBEHABV?$KeyValuePair@VString@Util@@V12@@2@@Z 00422420 f i foundation_win32.release:assignregistry.obj
 0001:00021550       ?Copy@?$Array@VAssign@IO@@@Util@@AAEXABV12@@Z 00422550 f i foundation_win32.release:assignregistry.obj
 0001:00021690       ?Delete@?$Array@VAssign@IO@@@Util@@AAEXXZ 00422690 f i foundation_win32.release:assignregistry.obj
 0001:00021700       ?Grow@?$Array@VAssign@IO@@@Util@@AAEXXZ 00422700 f i foundation_win32.release:assignregistry.obj
 0001:00021780       ??_E?$Array@V?$KeyValuePair@VString@Util@@V12@@Util@@@Util@@QAEPAXI@Z 00422780 f i foundation_win32.release:assignregistry.obj
 0001:00021820       ?Alloc@?$FixedArray@V?$Array@V?$KeyValuePair@VString@Util@@V12@@Util@@@Util@@@Util@@AAEXH@Z 00422820 f i foundation_win32.release:assignregistry.obj
 0001:000218f0       ?GrowTo@?$Array@VAssign@IO@@@Util@@AAEXH@Z 004228f0 f i foundation_win32.release:assignregistry.obj
 0001:00021ac0       ??0Win360FileTime@Win360@@QAE@XZ 00422ac0 f i foundation_win32.release:win360fswrapper.obj
 0001:00021af0       ?OpenFile@Win360FSWrapper@Win360@@SAPAXABVString@Util@@W4AccessMode@Stream@IO@@W4AccessPattern@67@K@Z 00422af0 f   foundation_win32.release:win360fswrapper.obj
 0001:00021c50       ?CloseFile@Win360FSWrapper@Win360@@SAXPAX@Z 00422c50 f   foundation_win32.release:win360fswrapper.obj
 0001:00021c80       ?Write@Win360FSWrapper@Win360@@SAXPAXPBXH@Z 00422c80 f   foundation_win32.release:win360fswrapper.obj
 0001:00021d10       ?Read@Win360FSWrapper@Win360@@SAHPAX0H@Z 00422d10 f   foundation_win32.release:win360fswrapper.obj
 0001:00021db0       ?Seek@Win360FSWrapper@Win360@@SAXPAXHW4SeekOrigin@Stream@IO@@@Z 00422db0 f   foundation_win32.release:win360fswrapper.obj
 0001:00021e30       ?Tell@Win360FSWrapper@Win360@@SAHPAX@Z 00422e30 f   foundation_win32.release:win360fswrapper.obj
 0001:00021e70       ?Flush@Win360FSWrapper@Win360@@SAXPAX@Z 00422e70 f   foundation_win32.release:win360fswrapper.obj
 0001:00021ea0       ?Eof@Win360FSWrapper@Win360@@SA_NPAX@Z 00422ea0 f   foundation_win32.release:win360fswrapper.obj
 0001:00021f00       ?GetFileSize@Win360FSWrapper@Win360@@SAHPAX@Z 00422f00 f   foundation_win32.release:win360fswrapper.obj
 0001:00021f30       ?SetReadOnly@Win360FSWrapper@Win360@@SAXABVString@Util@@_N@Z 00422f30 f   foundation_win32.release:win360fswrapper.obj
 0001:00022000       ?IsReadOnly@Win360FSWrapper@Win360@@SA_NABVString@Util@@@Z 00423000 f   foundation_win32.release:win360fswrapper.obj
 0001:00022070       ?DeleteFile@Win360FSWrapper@Win360@@SA_NABVString@Util@@@Z 00423070 f   foundation_win32.release:win360fswrapper.obj
 0001:000220e0       ?DeleteDirectory@Win360FSWrapper@Win360@@SA_NABVString@Util@@@Z 004230e0 f   foundation_win32.release:win360fswrapper.obj
 0001:00022150       ?FileExists@Win360FSWrapper@Win360@@SA_NABVString@Util@@@Z 00423150 f   foundation_win32.release:win360fswrapper.obj
 0001:000221d0       ?DirectoryExists@Win360FSWrapper@Win360@@SA_NABVString@Util@@@Z 004231d0 f   foundation_win32.release:win360fswrapper.obj
 0001:00022250       ?SetFileWriteTime@Win360FSWrapper@Win360@@SAXABVString@Util@@VWin360FileTime@2@@Z 00423250 f   foundation_win32.release:win360fswrapper.obj
 0001:000222f0       ?GetFileWriteTime@Win360FSWrapper@Win360@@SA?AVWin360FileTime@2@ABVString@Util@@@Z 004232f0 f   foundation_win32.release:win360fswrapper.obj
 0001:00022380       ?CreateDirectoryA@Win360FSWrapper@Win360@@SA_NABVString@Util@@@Z 00423380 f   foundation_win32.release:win360fswrapper.obj
 0001:000223f0       ?ListFiles@Win360FSWrapper@Win360@@SA?AV?$Array@VString@Util@@@Util@@ABVString@4@0@Z 004233f0 f   foundation_win32.release:win360fswrapper.obj
 0001:00022640       ?ListDirectories@Win360FSWrapper@Win360@@SA?AV?$Array@VString@Util@@@Util@@ABVString@4@0@Z 00423640 f   foundation_win32.release:win360fswrapper.obj
 0001:000229f0       ?GetUserDirectory@Win360FSWrapper@Win360@@SA?AVString@Util@@XZ 004239f0 f   foundation_win32.release:win360fswrapper.obj
 0001:00022b20       ?GetAppDataDirectory@Win360FSWrapper@Win360@@SA?AVString@Util@@XZ 00423b20 f   foundation_win32.release:win360fswrapper.obj
 0001:00022c50       ?GetProgramsDirectory@Win360FSWrapper@Win360@@SA?AVString@Util@@XZ 00423c50 f   foundation_win32.release:win360fswrapper.obj
 0001:00022d80       ?GetTempDirectory@Win360FSWrapper@Win360@@SA?AVString@Util@@XZ 00423d80 f   foundation_win32.release:win360fswrapper.obj
 0001:00022f10       ?GetBinDirectory@Win360FSWrapper@Win360@@SA?AVString@Util@@XZ 00423f10 f   foundation_win32.release:win360fswrapper.obj
 0001:00023140       ?GetHomeDirectory@Win360FSWrapper@Win360@@SA?AVString@Util@@XZ 00424140 f   foundation_win32.release:win360fswrapper.obj
 0001:000234b0       ?IsDeviceName@Win360FSWrapper@Win360@@SA_NABVString@Util@@@Z 004244b0 f   foundation_win32.release:win360fswrapper.obj
 0001:00023540       ??2RefCounted@Core@@SAPAXI@Z 00424540 f i foundation_win32.release:refcounted.obj
 0001:00023550       ?GetRtti@RefCounted@Core@@UBEPAVRtti@2@XZ 00424550 f   foundation_win32.release:refcounted.obj
 0001:00023560       ?FactoryCreator@RefCounted@Core@@SAPAV12@XZ 00424560 f   foundation_win32.release:refcounted.obj
 0001:00023570       ?Create@RefCounted@Core@@SAPAV12@XZ 00424570 f   foundation_win32.release:refcounted.obj
 0001:000235c0       ?RegisterWithFactory@RefCounted@Core@@SA_NXZ 004245c0 f   foundation_win32.release:refcounted.obj
 0001:000236c0       ??1RefCounted@Core@@MAE@XZ 004246c0 f   foundation_win32.release:refcounted.obj
 0001:00023700       ?DumpRefCountingLeaks@RefCounted@Core@@SAXXZ 00424700 f   foundation_win32.release:refcounted.obj
 0001:00023710       ??2SchemeRegistry@IO@@SAPAXI@Z 00424710 f i foundation_win32.release:schemeregistry.obj
 0001:00023720       ??3SchemeRegistry@IO@@SAXPAX@Z 00424720 f i foundation_win32.release:schemeregistry.obj
 0001:00023740       ?GetRtti@SchemeRegistry@IO@@UBEPAVRtti@Core@@XZ 00424740 f   foundation_win32.release:schemeregistry.obj
 0001:00023750       ?FactoryCreator@SchemeRegistry@IO@@SAPAVRefCounted@Core@@XZ 00424750 f   foundation_win32.release:schemeregistry.obj
 0001:00023760       ?Create@SchemeRegistry@IO@@SAPAV12@XZ 00424760 f   foundation_win32.release:schemeregistry.obj
 0001:000237a0       ?RegisterWithFactory@SchemeRegistry@IO@@SA_NXZ 004247a0 f   foundation_win32.release:schemeregistry.obj
 0001:000238a0       ??0SchemeRegistry@IO@@QAE@XZ 004248a0 f   foundation_win32.release:schemeregistry.obj
 0001:00023920       ??_GSchemeRegistry@IO@@UAEPAXI@Z 00424920 f i foundation_win32.release:schemeregistry.obj
 0001:00023920       ??_ESchemeRegistry@IO@@UAEPAXI@Z 00424920 f i  CIL library: CIL module
 0001:00023950       ??1?$Dictionary@VString@Util@@PBVRtti@Core@@@Util@@QAE@XZ 00424950 f i foundation_win32.release:schemeregistry.obj
 0001:00023970       ??1SchemeRegistry@IO@@UAE@XZ 00424970 f   foundation_win32.release:schemeregistry.obj
 0001:000239e0       ?Setup@SchemeRegistry@IO@@QAEXXZ 004249e0 f   foundation_win32.release:schemeregistry.obj
 0001:00023a60       ?Discard@SchemeRegistry@IO@@QAEXXZ 00424a60 f   foundation_win32.release:schemeregistry.obj
 0001:00023ae0       ?IsValid@SchemeRegistry@IO@@QBE_NXZ 00424ae0 f   foundation_win32.release:schemeregistry.obj
 0001:00023b00       ?RegisterUriScheme@SchemeRegistry@IO@@QAEXABVString@Util@@ABVRtti@Core@@@Z 00424b00 f   foundation_win32.release:schemeregistry.obj
 0001:00023bd0       ?UnregisterUriScheme@SchemeRegistry@IO@@QAEXABVString@Util@@@Z 00424bd0 f   foundation_win32.release:schemeregistry.obj
 0001:00023c80       ?IsUriSchemeRegistered@SchemeRegistry@IO@@QBE_NABVString@Util@@@Z 00424c80 f   foundation_win32.release:schemeregistry.obj
 0001:00023d00       ?GetStreamClassByUriScheme@SchemeRegistry@IO@@QBEABVRtti@Core@@ABVString@Util@@@Z 00424d00 f   foundation_win32.release:schemeregistry.obj
 0001:00023d90       ?GetAllRegisteredUriSchemes@SchemeRegistry@IO@@QBE?AV?$Array@VString@Util@@@Util@@XZ 00424d90 f   foundation_win32.release:schemeregistry.obj
 0001:00023e00       ?SetupStandardSchemes@SchemeRegistry@IO@@AAEXXZ 00424e00 f   foundation_win32.release:schemeregistry.obj
 0001:00023f40       ??0?$Dictionary@VString@Util@@PBVRtti@Core@@@Util@@QAE@XZ 00424f40 f i foundation_win32.release:schemeregistry.obj
 0001:00023f60       ??A?$Dictionary@VString@Util@@PBVRtti@Core@@@Util@@QBEABQBVRtti@Core@@ABVString@1@@Z 00424f60 f i foundation_win32.release:schemeregistry.obj
 0001:00023fb0       ?Clear@?$Dictionary@VString@Util@@PBVRtti@Core@@@Util@@QAEXXZ 00424fb0 f i foundation_win32.release:schemeregistry.obj
 0001:00023ff0       ?Add@?$Dictionary@VString@Util@@PBVRtti@Core@@@Util@@QAEXABVString@2@ABQBVRtti@Core@@@Z 00424ff0 f i foundation_win32.release:schemeregistry.obj
 0001:00024040       ?Erase@?$Dictionary@VString@Util@@PBVRtti@Core@@@Util@@QAEXABVString@2@@Z 00425040 f i foundation_win32.release:schemeregistry.obj
 0001:000240f0       ?Contains@?$Dictionary@VString@Util@@PBVRtti@Core@@@Util@@QBE_NABVString@2@@Z 004250f0 f i foundation_win32.release:schemeregistry.obj
 0001:00024180       ?KeysAsArray@?$Dictionary@VString@Util@@PBVRtti@Core@@@Util@@QBE?AV?$Array@VString@Util@@@2@XZ 00425180 f i foundation_win32.release:schemeregistry.obj
 0001:000241a0       ?EraseIndex@?$Array@V?$KeyValuePair@VString@Util@@PBVRtti@Core@@@Util@@@Util@@QAEXH@Z 004251a0 f i foundation_win32.release:schemeregistry.obj
 0001:00024220       ?FindIndex@?$Dictionary@VString@Util@@PBVRtti@Core@@@Util@@QBEHABVString@2@@Z 00425220 f i foundation_win32.release:schemeregistry.obj
 0001:000242a0       ??$KeysAs@V?$Array@VString@Util@@@Util@@@?$Dictionary@VString@Util@@PBVRtti@Core@@@Util@@QBE?AV?$Array@VString@Util@@@1@XZ 004252a0 f i foundation_win32.release:schemeregistry.obj
 0001:00024340       ?Size@?$Dictionary@VString@Util@@PBVRtti@Core@@@Util@@QBEHXZ 00425340 f i foundation_win32.release:schemeregistry.obj
 0001:00024360       ??2ArchiveFileSystem@IO@@SAPAXI@Z 00425360 f i foundation_win32.release:archivefilesystem.obj
 0001:00024370       ??3ArchiveFileSystem@IO@@SAXPAX@Z 00425370 f i foundation_win32.release:archivefilesystem.obj
 0001:00024390       ?GetRtti@ArchiveFileSystem@IO@@UBEPAVRtti@Core@@XZ 00425390 f   foundation_win32.release:archivefilesystem.obj
 0001:000243a0       ?FactoryCreator@ArchiveFileSystem@IO@@SAPAVRefCounted@Core@@XZ 004253a0 f   foundation_win32.release:archivefilesystem.obj
 0001:000243b0       ?Create@ArchiveFileSystem@IO@@SAPAV12@XZ 004253b0 f   foundation_win32.release:archivefilesystem.obj
 0001:000243f0       ?RegisterWithFactory@ArchiveFileSystem@IO@@SA_NXZ 004253f0 f   foundation_win32.release:archivefilesystem.obj
 0001:000244f0       ??0ArchiveFileSystem@IO@@QAE@XZ 004254f0 f   foundation_win32.release:archivefilesystem.obj
 0001:00024540       ??_EArchiveFileSystem@IO@@UAEPAXI@Z 00425540 f i  CIL library: CIL module
 0001:00024540       ??_GArchiveFileSystem@IO@@UAEPAXI@Z 00425540 f i foundation_win32.release:archivefilesystem.obj
 0001:00024570       ??1ArchiveFileSystem@IO@@UAE@XZ 00425570 f   foundation_win32.release:archivefilesystem.obj
 0001:000245c0       ?GetNumCpuCores@SystemInfoBase@Base@@QBEHXZ 004255c0 f i foundation_win32.release:win360criticalsection.obj
 0001:000245e0       ??0Win360CriticalSection@Win360@@QAE@XZ 004255e0 f   foundation_win32.release:win360criticalsection.obj
 0001:00024650       ??1Win360CriticalSection@Win360@@QAE@XZ 00425650 f   foundation_win32.release:win360criticalsection.obj
 0001:00024680       ?IsValid@ArchiveFileSystemBase@IO@@QBE_NXZ 00425680 f i foundation_win32.release:zipfilesystem.obj
 0001:000246a0       ??2ZipFileSystem@IO@@SAPAXI@Z 004256a0 f i foundation_win32.release:zipfilesystem.obj
 0001:000246b0       ??3ZipFileSystem@IO@@SAXPAX@Z 004256b0 f i foundation_win32.release:zipfilesystem.obj
 0001:000246d0       ?GetRtti@ZipFileSystem@IO@@UBEPAVRtti@Core@@XZ 004256d0 f   foundation_win32.release:zipfilesystem.obj
 0001:000246e0       ?FactoryCreator@ZipFileSystem@IO@@SAPAVRefCounted@Core@@XZ 004256e0 f   foundation_win32.release:zipfilesystem.obj
 0001:000246f0       ?Create@ZipFileSystem@IO@@SAPAV12@XZ 004256f0 f   foundation_win32.release:zipfilesystem.obj
 0001:00024730       ?RegisterWithFactory@ZipFileSystem@IO@@SA_NXZ 00425730 f   foundation_win32.release:zipfilesystem.obj
 0001:00024830       ??0ZipFileSystem@IO@@QAE@XZ 00425830 f   foundation_win32.release:zipfilesystem.obj
 0001:00024880       ??_GZipFileSystem@IO@@UAEPAXI@Z 00425880 f i foundation_win32.release:zipfilesystem.obj
 0001:00024880       ??_EZipFileSystem@IO@@UAEPAXI@Z 00425880 f i  CIL library: CIL module
 0001:000248b0       ??1ZipFileSystem@IO@@UAE@XZ 004258b0 f   foundation_win32.release:zipfilesystem.obj
 0001:00024910       ?Setup@ZipFileSystem@IO@@QAEXXZ 00425910 f   foundation_win32.release:zipfilesystem.obj
 0001:000249d0       ?Discard@ZipFileSystem@IO@@QAEXXZ 004259d0 f   foundation_win32.release:zipfilesystem.obj
 0001:00024a90       ?FindArchiveWithFile@ZipFileSystem@IO@@UBE?AV?$Ptr@VArchive@IO@@@@ABVURI@2@@Z 00425a90 f   foundation_win32.release:zipfilesystem.obj
 0001:00024cb0       ?FindArchiveWithDir@ZipFileSystem@IO@@UBE?AV?$Ptr@VArchive@IO@@@@ABVURI@2@@Z 00425cb0 f   foundation_win32.release:zipfilesystem.obj
 0001:00024ed0       ?Size@?$Dictionary@VString@Util@@V?$Ptr@VArchive@IO@@@@@Util@@QBEHXZ 00425ed0 f i foundation_win32.release:zipfilesystem.obj
 0001:00024ef0       ?ValueAtIndex@?$Dictionary@VString@Util@@V?$Ptr@VArchive@IO@@@@@Util@@QBEABV?$Ptr@VArchive@IO@@@@H@Z 00425ef0 f i foundation_win32.release:zipfilesystem.obj
 0001:00024f40       ??0?$Ptr@VArchive@IO@@@@QAE@ABV0@@Z 00425f40 f i foundation_win32.release:zipfilesystem.obj
 0001:00024f80       ??0?$Ptr@VZipArchive@IO@@@@QAE@XZ 00425f80 f i foundation_win32.release:zipfilesystem.obj
 0001:00024fa0       ??1?$Ptr@VZipArchive@IO@@@@QAE@XZ 00425fa0 f i foundation_win32.release:zipfilesystem.obj
 0001:00024fd0       ??4?$Ptr@VZipArchive@IO@@@@QAEXABV0@@Z 00425fd0 f i foundation_win32.release:zipfilesystem.obj
 0001:00025030       ??C?$Ptr@VZipArchive@IO@@@@QBEPAVZipArchive@IO@@XZ 00426030 f i foundation_win32.release:zipfilesystem.obj
 0001:00025070       ?isvalid@?$Ptr@VZipArchive@IO@@@@QBE_NXZ 00426070 f i foundation_win32.release:zipfilesystem.obj
 0001:00025090       ??$cast@VZipArchive@IO@@@?$Ptr@VArchive@IO@@@@QBEABV?$Ptr@VZipArchive@IO@@@@XZ 00426090 f i foundation_win32.release:zipfilesystem.obj
 0001:000250a0       ??$cast@VArchive@IO@@@?$Ptr@VZipArchive@IO@@@@QBEABV?$Ptr@VArchive@IO@@@@XZ 004260a0 f i foundation_win32.release:zipfilesystem.obj
 0001:000250b0       ??A?$Array@V?$KeyValuePair@VString@Util@@V?$Ptr@VArchive@IO@@@@@Util@@@Util@@QBEAAV?$KeyValuePair@VString@Util@@V?$Ptr@VArchive@IO@@@@@1@H@Z 004260b0 f i foundation_win32.release:zipfilesystem.obj
 0001:00025100       ?Size@?$Array@V?$KeyValuePair@VString@Util@@V?$Ptr@VArchive@IO@@@@@Util@@@Util@@QBEHXZ 00426100 f i foundation_win32.release:zipfilesystem.obj
 0001:00025120       ?Value@?$KeyValuePair@VString@Util@@V?$Ptr@VArchive@IO@@@@@Util@@QAEAAV?$Ptr@VArchive@IO@@@@XZ 00426120 f i foundation_win32.release:zipfilesystem.obj
 0001:00025140       ??2ArchiveFileSystemBase@IO@@SAPAXI@Z 00426140 f i foundation_win32.release:archivefilesystembase.obj
 0001:00025150       ??3ArchiveFileSystemBase@IO@@SAXPAX@Z 00426150 f i foundation_win32.release:archivefilesystembase.obj
 0001:00025170       ?GetURI@ArchiveBase@IO@@QBEABVURI@2@XZ 00426170 f i foundation_win32.release:archivefilesystembase.obj
 0001:00025190       ?GetRtti@ArchiveFileSystemBase@IO@@UBEPAVRtti@Core@@XZ 00426190 f   foundation_win32.release:archivefilesystembase.obj
 0001:000251a0       ?FactoryCreator@ArchiveFileSystemBase@IO@@SAPAVRefCounted@Core@@XZ 004261a0 f   foundation_win32.release:archivefilesystembase.obj
 0001:000251b0       ?Create@ArchiveFileSystemBase@IO@@SAPAV12@XZ 004261b0 f   foundation_win32.release:archivefilesystembase.obj
 0001:000251f0       ?RegisterWithFactory@ArchiveFileSystemBase@IO@@SA_NXZ 004261f0 f   foundation_win32.release:archivefilesystembase.obj
 0001:000252f0       ??0ArchiveFileSystemBase@IO@@QAE@XZ 004262f0 f   foundation_win32.release:archivefilesystembase.obj
 0001:00025370       ??_GArchiveFileSystemBase@IO@@UAEPAXI@Z 00426370 f i foundation_win32.release:archivefilesystembase.obj
 0001:00025370       ??_EArchiveFileSystemBase@IO@@UAEPAXI@Z 00426370 f i  CIL library: CIL module
 0001:000253a0       ??1?$Dictionary@VString@Util@@V?$Ptr@VArchive@IO@@@@@Util@@QAE@XZ 004263a0 f i foundation_win32.release:archivefilesystembase.obj
 0001:000253c0       ??1ArchiveFileSystemBase@IO@@UAE@XZ 004263c0 f   foundation_win32.release:archivefilesystembase.obj
 0001:00025440       ?Setup@ArchiveFileSystemBase@IO@@QAEXXZ 00426440 f   foundation_win32.release:archivefilesystembase.obj
 0001:00025480       ?Discard@ArchiveFileSystemBase@IO@@QAEXXZ 00426480 f   foundation_win32.release:archivefilesystembase.obj
 0001:000254f0       ?Mount@ArchiveFileSystemBase@IO@@UAE?AV?$Ptr@VArchive@IO@@@@ABVURI@2@@Z 004264f0 f   foundation_win32.release:archivefilesystembase.obj
 0001:000256a0       ?Unmount@ArchiveFileSystemBase@IO@@UAEXABV?$Ptr@VArchive@IO@@@@@Z 004266a0 f   foundation_win32.release:archivefilesystembase.obj
 0001:00025830       ?Unmount@ArchiveFileSystemBase@IO@@UAEXABVURI@2@@Z 00426830 f   foundation_win32.release:archivefilesystembase.obj
 0001:000259c0       ?GetMountedArchives@ArchiveFileSystemBase@IO@@QBE?AV?$Array@V?$Ptr@VArchive@IO@@@@@Util@@XZ 004269c0 f   foundation_win32.release:archivefilesystembase.obj
 0001:00025a30       ?FindArchive@ArchiveFileSystemBase@IO@@QBE?AV?$Ptr@VArchive@IO@@@@ABVURI@2@@Z 00426a30 f   foundation_win32.release:archivefilesystembase.obj
 0001:00025ba0       ?IsMounted@ArchiveFileSystemBase@IO@@QBE_NABVURI@2@@Z 00426ba0 f   foundation_win32.release:archivefilesystembase.obj
 0001:00025ce0       ?FindArchiveWithFile@ArchiveFileSystemBase@IO@@UBE?AV?$Ptr@VArchive@IO@@@@ABVURI@2@@Z 00426ce0 f   foundation_win32.release:archivefilesystembase.obj
 0001:00025d00       ?FindArchiveWithDir@ArchiveFileSystemBase@IO@@UBE?AV?$Ptr@VArchive@IO@@@@ABVURI@2@@Z 00426d00 f   foundation_win32.release:archivefilesystembase.obj
 0001:00025d20       ?ConvertFileToArchiveURIIfExists@ArchiveFileSystemBase@IO@@QBE?AVURI@2@ABV32@@Z 00426d20 f   foundation_win32.release:archivefilesystembase.obj
 0001:00025db0       ?ConvertDirToArchiveURIIfExists@ArchiveFileSystemBase@IO@@QBE?AVURI@2@ABV32@@Z 00426db0 f   foundation_win32.release:archivefilesystembase.obj
 0001:00025e40       ??1?$Array@V?$KeyValuePair@VString@Util@@V?$Ptr@VArchive@IO@@@@@Util@@@Util@@QAE@XZ 00426e40 f i foundation_win32.release:archivefilesystembase.obj
 0001:00025e60       ??0?$Dictionary@VString@Util@@V?$Ptr@VArchive@IO@@@@@Util@@QAE@XZ 00426e60 f i foundation_win32.release:archivefilesystembase.obj
 0001:00025e80       ??A?$Dictionary@VString@Util@@V?$Ptr@VArchive@IO@@@@@Util@@QAEAAV?$Ptr@VArchive@IO@@@@ABVString@1@@Z 00426e80 f i foundation_win32.release:archivefilesystembase.obj
 0001:00025ed0       ?IsEmpty@?$Dictionary@VString@Util@@V?$Ptr@VArchive@IO@@@@@Util@@QBE_NXZ 00426ed0 f i foundation_win32.release:archivefilesystembase.obj
 0001:00025ef0       ?Add@?$Dictionary@VString@Util@@V?$Ptr@VArchive@IO@@@@@Util@@QAEXABVString@2@ABV?$Ptr@VArchive@IO@@@@@Z 00426ef0 f i foundation_win32.release:archivefilesystembase.obj
 0001:00025f50       ?Erase@?$Dictionary@VString@Util@@V?$Ptr@VArchive@IO@@@@@Util@@QAEXABVString@2@@Z 00426f50 f i foundation_win32.release:archivefilesystembase.obj
 0001:00025fd0       ?FindIndex@?$Dictionary@VString@Util@@V?$Ptr@VArchive@IO@@@@@Util@@QBEHABVString@2@@Z 00426fd0 f i foundation_win32.release:archivefilesystembase.obj
 0001:00026030       ?Contains@?$Dictionary@VString@Util@@V?$Ptr@VArchive@IO@@@@@Util@@QBE_NABVString@2@@Z 00427030 f i foundation_win32.release:archivefilesystembase.obj
 0001:00026090       ?ValueAtIndex@?$Dictionary@VString@Util@@V?$Ptr@VArchive@IO@@@@@Util@@QAEAAV?$Ptr@VArchive@IO@@@@H@Z 00427090 f i foundation_win32.release:archivefilesystembase.obj
 0001:000260e0       ?ValuesAsArray@?$Dictionary@VString@Util@@V?$Ptr@VArchive@IO@@@@@Util@@QBE?AV?$Array@V?$Ptr@VArchive@IO@@@@@2@XZ 004270e0 f i foundation_win32.release:archivefilesystembase.obj
 0001:00026100       ??0?$Ptr@VArchive@IO@@@@QAE@PAVArchive@IO@@@Z 00427100 f i foundation_win32.release:archivefilesystembase.obj
 0001:00026140       ??0?$Ptr@VArchive@IO@@@@QAE@XZ 00427140 f i foundation_win32.release:archivefilesystembase.obj
 0001:00026160       ??4?$Ptr@VArchive@IO@@@@QAEXPAVArchive@IO@@@Z 00427160 f i foundation_win32.release:archivefilesystembase.obj
 0001:000261c0       ??4?$Ptr@VArchive@IO@@@@QAEXABV0@@Z 004271c0 f i foundation_win32.release:archivefilesystembase.obj
 0001:00026220       ??0?$Array@V?$Ptr@VArchive@IO@@@@@Util@@QAE@ABV01@@Z 00427220 f i foundation_win32.release:archivefilesystembase.obj
 0001:00026270       ??1?$Array@V?$Ptr@VArchive@IO@@@@@Util@@QAE@XZ 00427270 f i foundation_win32.release:archivefilesystembase.obj
 0001:00026290       ??1?$KeyValuePair@VString@Util@@V?$Ptr@VArchive@IO@@@@@Util@@QAE@XZ 00427290 f i foundation_win32.release:archivefilesystembase.obj
 0001:000262f0       ??0?$Array@V?$KeyValuePair@VString@Util@@V?$Ptr@VArchive@IO@@@@@Util@@@Util@@QAE@XZ 004272f0 f i foundation_win32.release:archivefilesystembase.obj
 0001:00026330       ?Append@?$Array@V?$KeyValuePair@VString@Util@@V?$Ptr@VArchive@IO@@@@@Util@@@Util@@QAEXABV?$KeyValuePair@VString@Util@@V?$Ptr@VArchive@IO@@@@@2@@Z 00427330 f i foundation_win32.release:archivefilesystembase.obj
 0001:000263b0       ?EraseIndex@?$Array@V?$KeyValuePair@VString@Util@@V?$Ptr@VArchive@IO@@@@@Util@@@Util@@QAEXH@Z 004273b0 f i foundation_win32.release:archivefilesystembase.obj
 0001:00026430       ?InsertSorted@?$Array@V?$KeyValuePair@VString@Util@@V?$Ptr@VArchive@IO@@@@@Util@@@Util@@QAEHABV?$KeyValuePair@VString@Util@@V?$Ptr@VArchive@IO@@@@@2@@Z 00427430 f i foundation_win32.release:archivefilesystembase.obj
 0001:000266a0       ?BinarySearchIndex@?$Array@V?$KeyValuePair@VString@Util@@V?$Ptr@VArchive@IO@@@@@Util@@@Util@@QBEHABV?$KeyValuePair@VString@Util@@V?$Ptr@VArchive@IO@@@@@2@@Z 004276a0 f i foundation_win32.release:archivefilesystembase.obj
 0001:000267d0       ?Delete@?$Array@V?$KeyValuePair@VString@Util@@V?$Ptr@VArchive@IO@@@@@Util@@@Util@@AAEXXZ 004277d0 f i foundation_win32.release:archivefilesystembase.obj
 0001:00026840       ??0?$KeyValuePair@VString@Util@@V?$Ptr@VArchive@IO@@@@@Util@@QAE@ABVString@1@@Z 00427840 f i foundation_win32.release:archivefilesystembase.obj
 0001:000268b0       ??0?$KeyValuePair@VString@Util@@V?$Ptr@VArchive@IO@@@@@Util@@QAE@ABVString@1@ABV?$Ptr@VArchive@IO@@@@@Z 004278b0 f i foundation_win32.release:archivefilesystembase.obj
 0001:00026920       ??$ValuesAs@V?$Array@V?$Ptr@VArchive@IO@@@@@Util@@@?$Dictionary@VString@Util@@V?$Ptr@VArchive@IO@@@@@Util@@QBE?AV?$Array@V?$Ptr@VArchive@IO@@@@@1@XZ 00427920 f i foundation_win32.release:archivefilesystembase.obj
 0001:000269c0       ?Copy@?$Array@V?$Ptr@VArchive@IO@@@@@Util@@AAEXABV12@@Z 004279c0 f i foundation_win32.release:archivefilesystembase.obj
 0001:00026af0       ?Delete@?$Array@V?$Ptr@VArchive@IO@@@@@Util@@AAEXXZ 00427af0 f i foundation_win32.release:archivefilesystembase.obj
 0001:00026b60       ??_E?$KeyValuePair@VString@Util@@V?$Ptr@VArchive@IO@@@@@Util@@QAEPAXI@Z 00427b60 f i foundation_win32.release:archivefilesystembase.obj
 0001:00026c00       ??_E?$Ptr@VArchive@IO@@@@QAEPAXI@Z 00427c00 f i foundation_win32.release:archivefilesystembase.obj
 0001:00026ca0       ?Insert@?$Array@V?$KeyValuePair@VString@Util@@V?$Ptr@VArchive@IO@@@@@Util@@@Util@@QAEXHABV?$KeyValuePair@VString@Util@@V?$Ptr@VArchive@IO@@@@@2@@Z 00427ca0 f i foundation_win32.release:archivefilesystembase.obj
 0001:00026d10       ?InsertAtEndOfIdenticalRange@?$Array@V?$KeyValuePair@VString@Util@@V?$Ptr@VArchive@IO@@@@@Util@@@Util@@QAEHHABV?$KeyValuePair@VString@Util@@V?$Ptr@VArchive@IO@@@@@2@@Z 00427d10 f i foundation_win32.release:archivefilesystembase.obj
 0001:00026d90       ?Destroy@?$Array@V?$KeyValuePair@VString@Util@@V?$Ptr@VArchive@IO@@@@@Util@@@Util@@AAEXPAV?$KeyValuePair@VString@Util@@V?$Ptr@VArchive@IO@@@@@2@@Z 00427d90 f i foundation_win32.release:archivefilesystembase.obj
 0001:00026dc0       ?Grow@?$Array@V?$KeyValuePair@VString@Util@@V?$Ptr@VArchive@IO@@@@@Util@@@Util@@AAEXXZ 00427dc0 f i foundation_win32.release:archivefilesystembase.obj
 0001:00026e40       ?Move@?$Array@V?$KeyValuePair@VString@Util@@V?$Ptr@VArchive@IO@@@@@Util@@@Util@@AAEXHH@Z 00427e40 f i foundation_win32.release:archivefilesystembase.obj
 0001:00026fd0       ??4?$KeyValuePair@VString@Util@@V?$Ptr@VArchive@IO@@@@@Util@@QAEXABV01@@Z 00427fd0 f i foundation_win32.release:archivefilesystembase.obj
 0001:00027030       ??9?$KeyValuePair@VString@Util@@V?$Ptr@VArchive@IO@@@@@Util@@QBE_NABV01@@Z 00428030 f i foundation_win32.release:archivefilesystembase.obj
 0001:00027050       ??O?$KeyValuePair@VString@Util@@V?$Ptr@VArchive@IO@@@@@Util@@QBE_NABV01@@Z 00428050 f i foundation_win32.release:archivefilesystembase.obj
 0001:00027070       ??M?$KeyValuePair@VString@Util@@V?$Ptr@VArchive@IO@@@@@Util@@QBE_NABV01@@Z 00428070 f i foundation_win32.release:archivefilesystembase.obj
 0001:00027090       ??0?$Array@V?$Ptr@VArchive@IO@@@@@Util@@QAE@HH@Z 00428090 f i foundation_win32.release:archivefilesystembase.obj
 0001:00027180       ?Append@?$Array@V?$Ptr@VArchive@IO@@@@@Util@@QAEXABV?$Ptr@VArchive@IO@@@@@Z 00428180 f i foundation_win32.release:archivefilesystembase.obj
 0001:00027200       ??_G?$KeyValuePair@VString@Util@@V?$Ptr@VArchive@IO@@@@@Util@@QAEPAXI@Z 00428200 f i foundation_win32.release:archivefilesystembase.obj
 0001:00027230       ?GrowTo@?$Array@V?$KeyValuePair@VString@Util@@V?$Ptr@VArchive@IO@@@@@Util@@@Util@@AAEXH@Z 00428230 f i foundation_win32.release:archivefilesystembase.obj
 0001:00027350       ?Grow@?$Array@V?$Ptr@VArchive@IO@@@@@Util@@AAEXXZ 00428350 f i foundation_win32.release:archivefilesystembase.obj
 0001:000273d0       ??0?$KeyValuePair@VString@Util@@V?$Ptr@VArchive@IO@@@@@Util@@QAE@XZ 004283d0 f i foundation_win32.release:archivefilesystembase.obj
 0001:00027410       ?GrowTo@?$Array@V?$Ptr@VArchive@IO@@@@@Util@@AAEXH@Z 00428410 f i foundation_win32.release:archivefilesystembase.obj
 0001:00027530       ??0MediaType@IO@@QAE@XZ    00428530 f i foundation_win32.release:stream.obj
 0001:000275a0       ??4MediaType@IO@@QAEXABV01@@Z 004285a0 f i foundation_win32.release:stream.obj
 0001:00027630       ??2Stream@IO@@SAPAXI@Z     00428630 f i foundation_win32.release:stream.obj
 0001:00027640       ??3Stream@IO@@SAXPAX@Z     00428640 f i foundation_win32.release:stream.obj
 0001:00027660       ?GetRtti@Stream@IO@@UBEPAVRtti@Core@@XZ 00428660 f   foundation_win32.release:stream.obj
 0001:00027670       ?FactoryCreator@Stream@IO@@SAPAVRefCounted@Core@@XZ 00428670 f   foundation_win32.release:stream.obj
 0001:00027680       ?Create@Stream@IO@@SAPAV12@XZ 00428680 f   foundation_win32.release:stream.obj
 0001:000276c0       ?RegisterWithFactory@Stream@IO@@SA_NXZ 004286c0 f   foundation_win32.release:stream.obj
 0001:000277c0       ??0Stream@IO@@QAE@XZ       004287c0 f   foundation_win32.release:stream.obj
 0001:00027840       ??_GStream@IO@@UAEPAXI@Z   00428840 f i foundation_win32.release:stream.obj
 0001:00027840       ??_EStream@IO@@UAEPAXI@Z   00428840 f i  CIL library: CIL module
 0001:00027870       ??1MediaType@IO@@QAE@XZ    00428870 f i foundation_win32.release:stream.obj
 0001:00027900       ??1Stream@IO@@UAE@XZ       00428900 f   foundation_win32.release:stream.obj
 0001:00027980       ?SetURI@Stream@IO@@QAEXABVURI@2@@Z 00428980 f   foundation_win32.release:stream.obj
 0001:000279d0       ?GetURI@Stream@IO@@QBEABVURI@2@XZ 004289d0 f   foundation_win32.release:stream.obj
 0001:000279f0       ?CanRead@Stream@IO@@UBE_NXZ 004289f0 f   foundation_win32.release:stream.obj
 0001:00027a00       ?CanWrite@Stream@IO@@UBE_NXZ 00428a00 f   foundation_win32.release:stream.obj
 0001:00027a10       ?CanSeek@Stream@IO@@UBE_NXZ 00428a10 f   foundation_win32.release:stream.obj
 0001:00027a20       ?CanBeMapped@Stream@IO@@UBE_NXZ 00428a20 f   foundation_win32.release:stream.obj
 0001:00027a30       ?SetSize@Stream@IO@@UAEXH@Z 00428a30 f   foundation_win32.release:stream.obj
 0001:00027a60       ?GetSize@Stream@IO@@UBEHXZ 00428a60 f   foundation_win32.release:stream.obj
 0001:00027a70       ?GetPosition@Stream@IO@@UBEHXZ 00428a70 f   foundation_win32.release:stream.obj
 0001:00027a80       ?SetAccessMode@Stream@IO@@QAEXW4AccessMode@12@@Z 00428a80 f   foundation_win32.release:stream.obj
 0001:00027ac0       ?GetAccessMode@Stream@IO@@QBE?AW4AccessMode@12@XZ 00428ac0 f   foundation_win32.release:stream.obj
 0001:00027ae0       ?SetAccessPattern@Stream@IO@@QAEXW4AccessPattern@12@@Z 00428ae0 f   foundation_win32.release:stream.obj
 0001:00027b20       ?GetAccessPattern@Stream@IO@@QBE?AW4AccessPattern@12@XZ 00428b20 f   foundation_win32.release:stream.obj
 0001:00027b40       ?SetMediaType@Stream@IO@@QAEXABVMediaType@2@@Z 00428b40 f   foundation_win32.release:stream.obj
 0001:00027b70       ?GetMediaType@Stream@IO@@QBEABVMediaType@2@XZ 00428b70 f   foundation_win32.release:stream.obj
 0001:00027b90       ?Open@Stream@IO@@UAE_NXZ   00428b90 f   foundation_win32.release:stream.obj
 0001:00027bd0       ?Close@Stream@IO@@UAEXXZ   00428bd0 f   foundation_win32.release:stream.obj
 0001:00027c10       ?IsOpen@Stream@IO@@QBE_NXZ 00428c10 f   foundation_win32.release:stream.obj
 0001:00027c30       ?Write@Stream@IO@@UAEXPBXH@Z 00428c30 f   foundation_win32.release:stream.obj
 0001:00027c90       ?Read@Stream@IO@@UAEHPAXH@Z 00428c90 f   foundation_win32.release:stream.obj
 0001:00027cf0       ?Seek@Stream@IO@@UAEXHW4SeekOrigin@12@@Z 00428cf0 f   foundation_win32.release:stream.obj
 0001:00027d50       ?Flush@Stream@IO@@UAEXXZ   00428d50 f   foundation_win32.release:stream.obj
 0001:00027db0       ?Eof@Stream@IO@@UBE_NXZ    00428db0 f   foundation_win32.release:stream.obj
 0001:00027e10       ?Map@Stream@IO@@UAEPAXXZ   00428e10 f   foundation_win32.release:stream.obj
 0001:00027ea0       ?Unmap@Stream@IO@@UAEXXZ   00428ea0 f   foundation_win32.release:stream.obj
 0001:00027f30       ?IsMapped@Stream@IO@@QBE_NXZ 00428f30 f   foundation_win32.release:stream.obj
 0001:00027f50       ??0SystemInfoBase@Base@@QAE@XZ 00428f50 f   foundation_win32.release:systeminfobase.obj
 0001:00027f90       ?PlatformAsString@SystemInfoBase@Base@@SA?AVString@Util@@W4Platform@12@@Z 00428f90 f   foundation_win32.release:systeminfobase.obj
 0001:000280e0       ?CpuTypeAsString@SystemInfoBase@Base@@SA?AVString@Util@@W4CpuType@12@@Z 004290e0 f   foundation_win32.release:systeminfobase.obj
 0001:00028270       ??0Win32SystemInfo@Win32@@QAE@XZ 00429270 f   foundation_win32.release:win32systeminfo.obj
 0001:000282f0       ??0Crc@Util@@QAE@XZ        004292f0 f   foundation_win32.release:crc.obj
 0001:000283b0       ?Begin@Crc@Util@@QAEXXZ    004293b0 f   foundation_win32.release:crc.obj
 0001:000283f0       ?Compute@Crc@Util@@QAEXPAEI@Z 004293f0 f   foundation_win32.release:crc.obj
 0001:00028470       ?End@Crc@Util@@QAEXXZ      00429470 f   foundation_win32.release:crc.obj
 0001:000284b0       ?GetResult@Crc@Util@@QBEIXZ 004294b0 f   foundation_win32.release:crc.obj
 0001:00028500       ?IsValid@ArchiveBase@IO@@QBE_NXZ 00429500 f i foundation_win32.release:ziparchive.obj
 0001:00028520       ?Value@StringAtom@Util@@QBEPBDXZ 00429520 f i foundation_win32.release:ziparchive.obj
 0001:00028530       ?GetName@ZipFileEntry@IO@@QBEABVStringAtom@Util@@XZ 00429530 f i foundation_win32.release:ziparchive.obj
 0001:00028550       ?GetName@ZipDirEntry@IO@@QBEABVStringAtom@Util@@XZ 00429550 f i foundation_win32.release:ziparchive.obj
 0001:00028560       ?GetDirEntries@ZipDirEntry@IO@@QBEABV?$Array@VZipDirEntry@IO@@@Util@@XZ 00429560 f i foundation_win32.release:ziparchive.obj
 0001:00028580       ?GetFileEntries@ZipDirEntry@IO@@QBEABV?$Array@VZipFileEntry@IO@@@Util@@XZ 00429580 f i foundation_win32.release:ziparchive.obj
 0001:000285a0       ??2ZipArchive@IO@@SAPAXI@Z 004295a0 f i foundation_win32.release:ziparchive.obj
 0001:000285b0       ??3ZipArchive@IO@@SAXPAX@Z 004295b0 f i foundation_win32.release:ziparchive.obj
 0001:000285d0       ?GetRtti@ZipArchive@IO@@UBEPAVRtti@Core@@XZ 004295d0 f   foundation_win32.release:ziparchive.obj
 0001:000285e0       ?FactoryCreator@ZipArchive@IO@@SAPAVRefCounted@Core@@XZ 004295e0 f   foundation_win32.release:ziparchive.obj
 0001:000285f0       ?Create@ZipArchive@IO@@SAPAV12@XZ 004295f0 f   foundation_win32.release:ziparchive.obj
 0001:00028630       ?RegisterWithFactory@ZipArchive@IO@@SA_NXZ 00429630 f   foundation_win32.release:ziparchive.obj
 0001:00028730       ??0ZipArchive@IO@@QAE@XZ   00429730 f   foundation_win32.release:ziparchive.obj
 0001:000287b0       ??_EZipArchive@IO@@UAEPAXI@Z 004297b0 f i  CIL library: CIL module
 0001:000287b0       ??_GZipArchive@IO@@UAEPAXI@Z 004297b0 f i foundation_win32.release:ziparchive.obj
 0001:000287e0       ??1ZipDirEntry@IO@@QAE@XZ  004297e0 f i foundation_win32.release:ziparchive.obj
 0001:00028820       ??1?$Dictionary@VStringAtom@Util@@H@Util@@QAE@XZ 00429820 f i foundation_win32.release:ziparchive.obj
 0001:00028840       ??1ZipArchive@IO@@UAE@XZ   00429840 f   foundation_win32.release:ziparchive.obj
 0001:000288e0       ?Setup@ZipArchive@IO@@QAE_NABVURI@2@@Z 004298e0 f   foundation_win32.release:ziparchive.obj
 0001:00028b60       ?Discard@ZipArchive@IO@@QAEXXZ 00429b60 f   foundation_win32.release:ziparchive.obj
 0001:00028bc0       ?ParseTableOfContents@ZipArchive@IO@@AAEXXZ 00429bc0 f   foundation_win32.release:ziparchive.obj
 0001:00028dc0       ?AddEntry@ZipArchive@IO@@AAEXABVString@Util@@@Z 00429dc0 f   foundation_win32.release:ziparchive.obj
 0001:00029000       ?ConvertToPathInArchive@ZipArchive@IO@@QBE?AVString@Util@@ABV34@@Z 0042a000 f   foundation_win32.release:ziparchive.obj
 0001:00029130       ?FindFileEntry@ZipArchive@IO@@ABEPBVZipFileEntry@2@ABVString@Util@@@Z 0042a130 f   foundation_win32.release:ziparchive.obj
 0001:000292e0       ?FindFileEntry@ZipArchive@IO@@AAEPAVZipFileEntry@2@ABVString@Util@@@Z 0042a2e0 f   foundation_win32.release:ziparchive.obj
 0001:00029310       ?FindDirEntry@ZipArchive@IO@@ABEPBVZipDirEntry@2@ABVString@Util@@@Z 0042a310 f   foundation_win32.release:ziparchive.obj
 0001:00029460       ?ListFiles@ZipArchive@IO@@QBE?AV?$Array@VString@Util@@@Util@@ABVString@4@0@Z 0042a460 f   foundation_win32.release:ziparchive.obj
 0001:00029540       ?ListDirectories@ZipArchive@IO@@QBE?AV?$Array@VString@Util@@@Util@@ABVString@4@0@Z 0042a540 f   foundation_win32.release:ziparchive.obj
 0001:00029620       ?ConvertToArchiveURI@ZipArchive@IO@@QBE?AVURI@2@ABV32@@Z 0042a620 f   foundation_win32.release:ziparchive.obj
 0001:00029950       ??1?$Array@VZipFileEntry@IO@@@Util@@QAE@XZ 0042a950 f i foundation_win32.release:ziparchive.obj
 0001:00029970       ??A?$Array@VZipFileEntry@IO@@@Util@@QBEAAVZipFileEntry@IO@@H@Z 0042a970 f i foundation_win32.release:ziparchive.obj
 0001:000299c0       ?Size@?$Array@VZipFileEntry@IO@@@Util@@QBEHXZ 0042a9c0 f i foundation_win32.release:ziparchive.obj
 0001:000299e0       ??1?$Array@VZipDirEntry@IO@@@Util@@QAE@XZ 0042a9e0 f i foundation_win32.release:ziparchive.obj
 0001:00029a00       ??A?$Array@VZipDirEntry@IO@@@Util@@QBEAAVZipDirEntry@IO@@H@Z 0042aa00 f i foundation_win32.release:ziparchive.obj
 0001:00029a50       ?Size@?$Array@VZipDirEntry@IO@@@Util@@QBEHXZ 0042aa50 f i foundation_win32.release:ziparchive.obj
 0001:00029a70       ??1?$Array@V?$KeyValuePair@VStringAtom@Util@@H@Util@@@Util@@QAE@XZ 0042aa70 f i foundation_win32.release:ziparchive.obj
 0001:00029a90       ?Delete@?$Array@VZipFileEntry@IO@@@Util@@AAEXXZ 0042aa90 f i foundation_win32.release:ziparchive.obj
 0001:00029b00       ?Delete@?$Array@VZipDirEntry@IO@@@Util@@AAEXXZ 0042ab00 f i foundation_win32.release:ziparchive.obj
 0001:00029b70       ?Delete@?$Array@V?$KeyValuePair@VStringAtom@Util@@H@Util@@@Util@@AAEXXZ 0042ab70 f i foundation_win32.release:ziparchive.obj
 0001:00029bd0       ??_EZipFileEntry@IO@@QAEPAXI@Z 0042abd0 f i foundation_win32.release:ziparchive.obj
 0001:00029c70       ??_EZipDirEntry@IO@@QAEPAXI@Z 0042ac70 f i foundation_win32.release:ziparchive.obj
 0001:00029d10       ??2Win32ConsoleHandler@Win32@@SAPAXI@Z 0042ad10 f i foundation_win32.release:win32consolehandler.obj
 0001:00029d20       ??3Win32ConsoleHandler@Win32@@SAXPAX@Z 0042ad20 f i foundation_win32.release:win32consolehandler.obj
 0001:00029d40       ?HasInstance@CoreServer@Core@@SA_NXZ 0042ad40 f i foundation_win32.release:win32consolehandler.obj
 0001:00029d60       ?GetAppName@CoreServer@Core@@QBEABVStringAtom@Util@@XZ 0042ad60 f i foundation_win32.release:win32consolehandler.obj
 0001:00029d80       ?GetRtti@Win32ConsoleHandler@Win32@@UBEPAVRtti@Core@@XZ 0042ad80 f   foundation_win32.release:win32consolehandler.obj
 0001:00029d90       ?FactoryCreator@Win32ConsoleHandler@Win32@@SAPAVRefCounted@Core@@XZ 0042ad90 f   foundation_win32.release:win32consolehandler.obj
 0001:00029da0       ?Create@Win32ConsoleHandler@Win32@@SAPAV12@XZ 0042ada0 f   foundation_win32.release:win32consolehandler.obj
 0001:00029de0       ?RegisterWithFactory@Win32ConsoleHandler@Win32@@SA_NXZ 0042ade0 f   foundation_win32.release:win32consolehandler.obj
 0001:00029ee0       ??0Win32ConsoleHandler@Win32@@QAE@XZ 0042aee0 f   foundation_win32.release:win32consolehandler.obj
 0001:00029f80       ??_GWin32ConsoleHandler@Win32@@UAEPAXI@Z 0042af80 f i foundation_win32.release:win32consolehandler.obj
 0001:00029f80       ??_EWin32ConsoleHandler@Win32@@UAEPAXI@Z 0042af80 f i  CIL library: CIL module
 0001:00029fb0       ??1Win32ConsoleHandler@Win32@@UAE@XZ 0042afb0 f i foundation_win32.release:win32consolehandler.obj
 0001:00029fd0       ?Print@Win32ConsoleHandler@Win32@@UAEXABVString@Util@@@Z 0042afd0 f   foundation_win32.release:win32consolehandler.obj
 0001:0002a0a0       ?DebugOut@Win32ConsoleHandler@Win32@@UAEXABVString@Util@@@Z 0042b0a0 f   foundation_win32.release:win32consolehandler.obj
 0001:0002a0e0       ?Error@Win32ConsoleHandler@Win32@@UAEXABVString@Util@@@Z 0042b0e0 f   foundation_win32.release:win32consolehandler.obj
 0001:0002a220       ?Warning@Win32ConsoleHandler@Win32@@UAEXABVString@Util@@@Z 0042b220 f   foundation_win32.release:win32consolehandler.obj
 0001:0002a270       ?Confirm@Win32ConsoleHandler@Win32@@UAEXABVString@Util@@@Z 0042b270 f   foundation_win32.release:win32consolehandler.obj
 0001:0002a2f0       ?HasInput@Win32ConsoleHandler@Win32@@UAE_NXZ 0042b2f0 f   foundation_win32.release:win32consolehandler.obj
 0001:0002a3a0       ?GetInput@Win32ConsoleHandler@Win32@@UAE?AVString@Util@@XZ 0042b3a0 f   foundation_win32.release:win32consolehandler.obj
 0001:0002a4e0       ?Setup@Win360Heap@Win360@@SAXXZ 0042b4e0 f   foundation_win32.release:win360heap.obj
 0001:0002a4f0       ??0Win360Heap@Win360@@QAE@PBDII@Z 0042b4f0 f   foundation_win32.release:win360heap.obj
 0001:0002a580       ??1Win360Heap@Win360@@QAE@XZ 0042b580 f   foundation_win32.release:win360heap.obj
 0001:0002a5c0       ??2Win360Socket@Win360@@SAPAXI@Z 0042b5c0 f i foundation_win32.release:win360socket.obj
 0001:0002a5d0       ??3Win360Socket@Win360@@SAXPAX@Z 0042b5d0 f i foundation_win32.release:win360socket.obj
 0001:0002a5f0       ?IsOpen@Win360Socket@Win360@@QBE_NXZ 0042b5f0 f i foundation_win32.release:win360socket.obj
 0001:0002a610       ?IsBound@Win360Socket@Win360@@QBE_NXZ 0042b610 f i foundation_win32.release:win360socket.obj
 0001:0002a630       ?SetAddress@Win360Socket@Win360@@QAEXABVWin360IpAddress@2@@Z 0042b630 f i foundation_win32.release:win360socket.obj
 0001:0002a650       ??4Win360IpAddress@Win360@@QAEAAV01@ABV01@@Z 0042b650 f i foundation_win32.release:win360socket.obj
 0001:0002a700       ?GetBlocking@Win360Socket@Win360@@QBE_NXZ 0042b700 f i foundation_win32.release:win360socket.obj
 0001:0002a720       ?GetRtti@Win360Socket@Win360@@UBEPAVRtti@Core@@XZ 0042b720 f   foundation_win32.release:win360socket.obj
 0001:0002a730       ?FactoryCreator@Win360Socket@Win360@@SAPAVRefCounted@Core@@XZ 0042b730 f   foundation_win32.release:win360socket.obj
 0001:0002a740       ?Create@Win360Socket@Win360@@SAPAV12@XZ 0042b740 f   foundation_win32.release:win360socket.obj
 0001:0002a780       ?RegisterWithFactory@Win360Socket@Win360@@SA_NXZ 0042b780 f   foundation_win32.release:win360socket.obj
 0001:0002a880       ??0Win360Socket@Win360@@QAE@XZ 0042b880 f   foundation_win32.release:win360socket.obj
 0001:0002a900       ??_GWin360Socket@Win360@@UAEPAXI@Z 0042b900 f i foundation_win32.release:win360socket.obj
 0001:0002a900       ??_EWin360Socket@Win360@@UAEPAXI@Z 0042b900 f i  CIL library: CIL module
 0001:0002a930       ??1Win360IpAddress@Win360@@QAE@XZ 0042b930 f i foundation_win32.release:win360socket.obj
 0001:0002a9c0       ??1Win360Socket@Win360@@UAE@XZ 0042b9c0 f   foundation_win32.release:win360socket.obj
 0001:0002aa10       ?InitNetwork@Win360Socket@Win360@@SAXXZ 0042ba10 f   foundation_win32.release:win360socket.obj
 0001:0002ab10       ?Open@Win360Socket@Win360@@QAE_NW4Protocol@12@@Z 0042bb10 f   foundation_win32.release:win360socket.obj
 0001:0002abe0       ?OpenWithExistingSocket@Win360Socket@Win360@@AAEXI@Z 0042bbe0 f   foundation_win32.release:win360socket.obj
 0001:0002ac40       ?Close@Win360Socket@Win360@@QAEXXZ 0042bc40 f   foundation_win32.release:win360socket.obj
 0001:0002adc0       ?SetBoolOption@Win360Socket@Win360@@AAEXH_N@Z 0042bdc0 f   foundation_win32.release:win360socket.obj
 0001:0002aec0       ?GetBoolOption@Win360Socket@Win360@@AAE_NH@Z 0042bec0 f   foundation_win32.release:win360socket.obj
 0001:0002aff0       ?SetIntOption@Win360Socket@Win360@@AAEXHH@Z 0042bff0 f   foundation_win32.release:win360socket.obj
 0001:0002b0d0       ?GetIntOption@Win360Socket@Win360@@AAEHH@Z 0042c0d0 f   foundation_win32.release:win360socket.obj
 0001:0002b1e0       ?SetBlocking@Win360Socket@Win360@@QAEX_N@Z 0042c1e0 f   foundation_win32.release:win360socket.obj
 0001:0002b2d0       ?Bind@Win360Socket@Win360@@QAE_NXZ 0042c2d0 f   foundation_win32.release:win360socket.obj
 0001:0002b3e0       ?Listen@Win360Socket@Win360@@QAE_NXZ 0042c3e0 f   foundation_win32.release:win360socket.obj
 0001:0002b4e0       ?Accept@Win360Socket@Win360@@QAE_NAAV?$Ptr@VSocket@Net@@@@@Z 0042c4e0 f   foundation_win32.release:win360socket.obj
 0001:0002b6b0       ?Connect@Win360Socket@Win360@@QAE?AW4Result@12@XZ 0042c6b0 f   foundation_win32.release:win360socket.obj
 0001:0002b820       ?IsConnected@Win360Socket@Win360@@QAE_NXZ 0042c820 f   foundation_win32.release:win360socket.obj
 0001:0002b980       ?Send@Win360Socket@Win360@@QAE?AW4Result@12@PBXHAAH@Z 0042c980 f   foundation_win32.release:win360socket.obj
 0001:0002bab0       ?HasRecvData@Win360Socket@Win360@@QAE_NXZ 0042cab0 f   foundation_win32.release:win360socket.obj
 0001:0002bc10       ?Recv@Win360Socket@Win360@@QAE?AW4Result@12@PAXHAAH@Z 0042cc10 f   foundation_win32.release:win360socket.obj
 0001:0002bd80       ?SendTo@Win360Socket@Win360@@QAE?AW4Result@12@PBXHIGAAH@Z 0042cd80 f   foundation_win32.release:win360socket.obj
 0001:0002bda0       ?RecvFrom@Win360Socket@Win360@@QAE?AW4Result@12@PAXHIGAAH@Z 0042cda0 f   foundation_win32.release:win360socket.obj
 0001:0002bdc0       ?ClearError@Win360Socket@Win360@@AAEXXZ 0042cdc0 f   foundation_win32.release:win360socket.obj
 0001:0002bde0       ?SetToLastWSAError@Win360Socket@Win360@@AAEXXZ 0042cde0 f   foundation_win32.release:win360socket.obj
 0001:0002be00       ?SetWSAError@Win360Socket@Win360@@AAEXH@Z 0042ce00 f   foundation_win32.release:win360socket.obj
 0001:0002be20       ?WSAErrorToErrorCode@Win360Socket@Win360@@CA?AW4ErrorCode@12@H@Z 0042ce20 f   foundation_win32.release:win360socket.obj
 0001:0002c1e0       ?ErrorAsString@Win360Socket@Win360@@CA?AVString@Util@@W4ErrorCode@12@@Z 0042d1e0 f   foundation_win32.release:win360socket.obj
 0001:0002cc40       ?WSAErrorToString@Win360Socket@Win360@@CA?AVString@Util@@H@Z 0042dc40 f   foundation_win32.release:win360socket.obj
 0001:0002cc70       ?GetErrorString@Win360Socket@Win360@@QBE?AVString@Util@@XZ 0042dc70 f   foundation_win32.release:win360socket.obj
 0001:0002cca0       ?IsNetworkInitialized@Win360Socket@Win360@@SA_NXZ 0042dca0 f   foundation_win32.release:win360socket.obj
 0001:0002ccb0       ??4?$Ptr@VSocket@Net@@@@QAEXPAVSocket@Net@@@Z 0042dcb0 f i foundation_win32.release:win360socket.obj
 0001:0002cd10       ??C?$Ptr@VSocket@Net@@@@QBEPAVSocket@Net@@XZ 0042dd10 f i foundation_win32.release:win360socket.obj
 0001:0002cd50       ?Clear@Memory@@YAXPAXI@Z   0042dd50 f i foundation_win32.release:win32minidump.obj
 0001:0002cd70       ?ExtractFileName@String@Util@@QBE?AV12@XZ 0042dd70 f i foundation_win32.release:win32minidump.obj
 0001:0002ce10       ?ExtractToLastSlash@String@Util@@QBE?AV12@XZ 0042de10 f i foundation_win32.release:win32minidump.obj
 0001:0002cea0       ?Setup@Win32MiniDump@Win32@@SAXXZ 0042dea0 f   foundation_win32.release:win32minidump.obj
 0001:0002ceb0       ?WriteMiniDump@Win32MiniDump@Win32@@SA_NXZ 0042deb0 f   foundation_win32.release:win32minidump.obj
 0001:0002cec0       ?WriteMiniDumpInternal@Win32MiniDump@Win32@@CA_NPAU_EXCEPTION_POINTERS@@@Z 0042dec0 f   foundation_win32.release:win32minidump.obj
 0001:0002cfe0       ?BuildMiniDumpFilename@Win32MiniDump@Win32@@CA?AVString@Util@@XZ 0042dfe0 f   foundation_win32.release:win32minidump.obj
 0001:0002d280       ?ExceptionCallback@Win32MiniDump@Win32@@CGJPAU_EXCEPTION_POINTERS@@@Z 0042e280 f   foundation_win32.release:win32minidump.obj
 0001:0002d2a0       ??0ExitHandler@Core@@QAE@XZ 0042e2a0 f   foundation_win32.release:exithandler.obj
 0001:0002d2d0       ??_GExitHandler@Core@@UAEPAXI@Z 0042e2d0 f i foundation_win32.release:exithandler.obj
 0001:0002d2d0       ??_EExitHandler@Core@@UAEPAXI@Z 0042e2d0 f i  CIL library: CIL module
 0001:0002d300       ??1ExitHandler@Core@@UAE@XZ 0042e300 f   foundation_win32.release:exithandler.obj
 0001:0002d320       ?Next@ExitHandler@Core@@QBEPBV12@XZ 0042e320 f   foundation_win32.release:exithandler.obj
 0001:0002d340       ?OnExit@ExitHandler@Core@@UBEXXZ 0042e340 f   foundation_win32.release:exithandler.obj
 0001:0002d350       ?IsValid@StringBuffer@Util@@QBE_NXZ 0042e350 f i foundation_win32.release:stringbuffer.obj
 0001:0002d370       ??0StringBuffer@Util@@QAE@XZ 0042e370 f   foundation_win32.release:stringbuffer.obj
 0001:0002d3a0       ??1StringBuffer@Util@@QAE@XZ 0042e3a0 f   foundation_win32.release:stringbuffer.obj
 0001:0002d3d0       ?Setup@StringBuffer@Util@@QAEXH@Z 0042e3d0 f   foundation_win32.release:stringbuffer.obj
 0001:0002d430       ?Discard@StringBuffer@Util@@QAEXXZ 0042e430 f   foundation_win32.release:stringbuffer.obj
 0001:0002d4d0       ?AllocNewChunk@StringBuffer@Util@@AAEXXZ 0042e4d0 f   foundation_win32.release:stringbuffer.obj
 0001:0002d510       ?AddString@StringBuffer@Util@@QAEPBDPBD@Z 0042e510 f   foundation_win32.release:stringbuffer.obj
 0001:0002d630       ??0?$Array@PAD@Util@@QAE@XZ 0042e630 f i foundation_win32.release:stringbuffer.obj
 0001:0002d670       ??1?$Array@PAD@Util@@QAE@XZ 0042e670 f i foundation_win32.release:stringbuffer.obj
 0001:0002d690       ??A?$Array@PAD@Util@@QBEAAPADH@Z 0042e690 f i foundation_win32.release:stringbuffer.obj
 0001:0002d6e0       ?Append@?$Array@PAD@Util@@QAEXABQAD@Z 0042e6e0 f i foundation_win32.release:stringbuffer.obj
 0001:0002d750       ?Back@?$Array@PAD@Util@@QBEAAPADXZ 0042e750 f i foundation_win32.release:stringbuffer.obj
 0001:0002d7a0       ?Clear@?$Array@PAD@Util@@QAEXXZ 0042e7a0 f i foundation_win32.release:stringbuffer.obj
 0001:0002d7f0       ?Destroy@?$Array@PAD@Util@@AAEXPAPAD@Z 0042e7f0 f i foundation_win32.release:stringbuffer.obj
 0001:0002d800       ?Delete@?$Array@PAD@Util@@AAEXXZ 0042e800 f i foundation_win32.release:stringbuffer.obj
 0001:0002d860       ?Grow@?$Array@PAD@Util@@AAEXXZ 0042e860 f i foundation_win32.release:stringbuffer.obj
 0001:0002d8e0       ?GrowTo@?$Array@PAD@Util@@AAEXH@Z 0042e8e0 f i foundation_win32.release:stringbuffer.obj
 0001:0002d990       ??2CoreServer@Core@@SAPAXI@Z 0042e990 f i foundation_win32.release:coreserver.obj
 0001:0002d9a0       ??3CoreServer@Core@@SAXPAX@Z 0042e9a0 f i foundation_win32.release:coreserver.obj
 0001:0002d9c0       ?IsOpen@CoreServer@Core@@QBE_NXZ 0042e9c0 f i foundation_win32.release:coreserver.obj
 0001:0002d9e0       ?GetRtti@CoreServer@Core@@UBEPAVRtti@2@XZ 0042e9e0 f   foundation_win32.release:coreserver.obj
 0001:0002d9f0       ?FactoryCreator@CoreServer@Core@@SAPAVRefCounted@2@XZ 0042e9f0 f   foundation_win32.release:coreserver.obj
 0001:0002da00       ?Create@CoreServer@Core@@SAPAV12@XZ 0042ea00 f   foundation_win32.release:coreserver.obj
 0001:0002da40       ?RegisterWithFactory@CoreServer@Core@@SA_NXZ 0042ea40 f   foundation_win32.release:coreserver.obj
 0001:0002db40       ??0CoreServer@Core@@QAE@XZ 0042eb40 f   foundation_win32.release:coreserver.obj
 0001:0002dc30       ??_GCoreServer@Core@@UAEPAXI@Z 0042ec30 f i foundation_win32.release:coreserver.obj
 0001:0002dc30       ??_ECoreServer@Core@@UAEPAXI@Z 0042ec30 f i  CIL library: CIL module
 0001:0002dc60       ??1CoreServer@Core@@UAE@XZ 0042ec60 f   foundation_win32.release:coreserver.obj
 0001:0002dce0       ?Open@CoreServer@Core@@QAEXXZ 0042ece0 f   foundation_win32.release:coreserver.obj
 0001:0002dd40       ?Close@CoreServer@Core@@QAEXXZ 0042ed40 f   foundation_win32.release:coreserver.obj
 0001:0002dd90       ?Trigger@CoreServer@Core@@QAEXXZ 0042ed90 f   foundation_win32.release:coreserver.obj
 0001:0002ddb0       ??0?$Ptr@VConsole@IO@@@@QAE@XZ 0042edb0 f i foundation_win32.release:coreserver.obj
 0001:0002ddd0       ??1?$Ptr@VConsole@IO@@@@QAE@XZ 0042edd0 f i foundation_win32.release:coreserver.obj
 0001:0002de00       ??4?$Ptr@VConsole@IO@@@@QAEXPAVConsole@IO@@@Z 0042ee00 f i foundation_win32.release:coreserver.obj
 0001:0002de60       ??C?$Ptr@VConsole@IO@@@@QBEPAVConsole@IO@@XZ 0042ee60 f i foundation_win32.release:coreserver.obj
 0001:0002dea0       ?UTF8ToWide@Win32StringConverter@Win32@@SAHABVString@Util@@PAGH@Z 0042eea0 f   foundation_win32.release:win32stringconverter.obj
 0001:0002def0       ?UTF8ToWide@Win32StringConverter@Win32@@SAHPBDPAGH@Z 0042eef0 f   foundation_win32.release:win32stringconverter.obj
 0001:0002e060       ?WideToUTF8@Win32StringConverter@Win32@@SA?AVString@Util@@PAG@Z 0042f060 f   foundation_win32.release:win32stringconverter.obj
 0001:0002e190       ??2FileStream@IO@@SAPAXI@Z 0042f190 f i foundation_win32.release:filestream.obj
 0001:0002e1a0       ??3FileStream@IO@@SAXPAX@Z 0042f1a0 f i foundation_win32.release:filestream.obj
 0001:0002e1c0       ?GetRtti@FileStream@IO@@UBEPAVRtti@Core@@XZ 0042f1c0 f   foundation_win32.release:filestream.obj
 0001:0002e1d0       ?FactoryCreator@FileStream@IO@@SAPAVRefCounted@Core@@XZ 0042f1d0 f   foundation_win32.release:filestream.obj
 0001:0002e1e0       ?Create@FileStream@IO@@SAPAV12@XZ 0042f1e0 f   foundation_win32.release:filestream.obj
 0001:0002e220       ?RegisterWithFactory@FileStream@IO@@SA_NXZ 0042f220 f   foundation_win32.release:filestream.obj
 0001:0002e320       ??0FileStream@IO@@QAE@XZ   0042f320 f   foundation_win32.release:filestream.obj
 0001:0002e360       ??_GFileStream@IO@@UAEPAXI@Z 0042f360 f i foundation_win32.release:filestream.obj
 0001:0002e360       ??_EFileStream@IO@@UAEPAXI@Z 0042f360 f i  CIL library: CIL module
 0001:0002e390       ??1FileStream@IO@@UAE@XZ   0042f390 f   foundation_win32.release:filestream.obj
 0001:0002e3d0       ?CanRead@FileStream@IO@@UBE_NXZ 0042f3d0 f   foundation_win32.release:filestream.obj
 0001:0002e3e0       ?CanWrite@FileStream@IO@@UBE_NXZ 0042f3e0 f   foundation_win32.release:filestream.obj
 0001:0002e3f0       ?CanSeek@FileStream@IO@@UBE_NXZ 0042f3f0 f   foundation_win32.release:filestream.obj
 0001:0002e400       ?CanBeMapped@FileStream@IO@@UBE_NXZ 0042f400 f   foundation_win32.release:filestream.obj
 0001:0002e410       ?GetSize@FileStream@IO@@UBEHXZ 0042f410 f   foundation_win32.release:filestream.obj
 0001:0002e450       ?GetPosition@FileStream@IO@@UBEHXZ 0042f450 f   foundation_win32.release:filestream.obj
 0001:0002e490       ?Open@FileStream@IO@@UAE_NXZ 0042f490 f   foundation_win32.release:filestream.obj
 0001:0002e5d0       ?Close@FileStream@IO@@UAEXXZ 0042f5d0 f   foundation_win32.release:filestream.obj
 0001:0002e670       ?Write@FileStream@IO@@UAEXPBXH@Z 0042f670 f   foundation_win32.release:filestream.obj
 0001:0002e730       ?Read@FileStream@IO@@UAEHPAXH@Z 0042f730 f   foundation_win32.release:filestream.obj
 0001:0002e800       ?Seek@FileStream@IO@@UAEXHW4SeekOrigin@Stream@2@@Z 0042f800 f   foundation_win32.release:filestream.obj
 0001:0002e8a0       ?Flush@FileStream@IO@@UAEXXZ 0042f8a0 f   foundation_win32.release:filestream.obj
 0001:0002e930       ?Eof@FileStream@IO@@UBE_NXZ 0042f930 f   foundation_win32.release:filestream.obj
 0001:0002e9c0       ?Map@FileStream@IO@@UAEPAXXZ 0042f9c0 f   foundation_win32.release:filestream.obj
 0001:0002eaa0       ?Unmap@FileStream@IO@@UAEXXZ 0042faa0 f   foundation_win32.release:filestream.obj
 0001:0002eb00       ??2HttpStream@Http@@SAPAXI@Z 0042fb00 f i foundation_win32.release:httpstream.obj
 0001:0002eb10       ??3HttpStream@Http@@SAXPAX@Z 0042fb10 f i foundation_win32.release:httpstream.obj
 0001:0002eb30       ?Instance@HttpClientRegistry@Http@@SAPAV12@XZ 0042fb30 f i foundation_win32.release:httpstream.obj
 0001:0002eb70       ?GetRtti@HttpStream@Http@@UBEPAVRtti@Core@@XZ 0042fb70 f   foundation_win32.release:httpstream.obj
 0001:0002eb80       ?FactoryCreator@HttpStream@Http@@SAPAVRefCounted@Core@@XZ 0042fb80 f   foundation_win32.release:httpstream.obj
 0001:0002eb90       ?Create@HttpStream@Http@@SAPAV12@XZ 0042fb90 f   foundation_win32.release:httpstream.obj
 0001:0002ebd0       ?RegisterWithFactory@HttpStream@Http@@SA_NXZ 0042fbd0 f   foundation_win32.release:httpstream.obj
 0001:0002ecd0       ??0HttpStream@Http@@QAE@XZ 0042fcd0 f   foundation_win32.release:httpstream.obj
 0001:0002ecf0       ??_EHttpStream@Http@@UAEPAXI@Z 0042fcf0 f i  CIL library: CIL module
 0001:0002ecf0       ??_GHttpStream@Http@@UAEPAXI@Z 0042fcf0 f i foundation_win32.release:httpstream.obj
 0001:0002ed20       ??1HttpStream@Http@@UAE@XZ 0042fd20 f   foundation_win32.release:httpstream.obj
 0001:0002ed60       ?Open@HttpStream@Http@@UAE_NXZ 0042fd60 f   foundation_win32.release:httpstream.obj
 0001:0002ef50       ??1?$Ptr@VHttpClient@Http@@@@QAE@XZ 0042ff50 f i foundation_win32.release:httpstream.obj
 0001:0002ef80       ??C?$Ptr@VHttpClient@Http@@@@QBEPAVHttpClient@Http@@XZ 0042ff80 f i foundation_win32.release:httpstream.obj
 0001:0002efc0       ??2HttpNzStream@Http@@SAPAXI@Z 0042ffc0 f i foundation_win32.release:httpnzstream.obj
 0001:0002efd0       ??3HttpNzStream@Http@@SAXPAX@Z 0042ffd0 f i foundation_win32.release:httpnzstream.obj
 0001:0002eff0       ?GetRtti@HttpNzStream@Http@@UBEPAVRtti@Core@@XZ 0042fff0 f   foundation_win32.release:httpnzstream.obj
 0001:0002f000       ?FactoryCreator@HttpNzStream@Http@@SAPAVRefCounted@Core@@XZ 00430000 f   foundation_win32.release:httpnzstream.obj
 0001:0002f010       ?Create@HttpNzStream@Http@@SAPAV12@XZ 00430010 f   foundation_win32.release:httpnzstream.obj
 0001:0002f050       ?RegisterWithFactory@HttpNzStream@Http@@SA_NXZ 00430050 f   foundation_win32.release:httpnzstream.obj
 0001:0002f150       ??0HttpNzStream@Http@@QAE@XZ 00430150 f   foundation_win32.release:httpnzstream.obj
 0001:0002f170       ??_EHttpNzStream@Http@@UAEPAXI@Z 00430170 f i  CIL library: CIL module
 0001:0002f170       ??_GHttpNzStream@Http@@UAEPAXI@Z 00430170 f i foundation_win32.release:httpnzstream.obj
 0001:0002f1a0       ??1HttpNzStream@Http@@UAE@XZ 004301a0 f   foundation_win32.release:httpnzstream.obj
 0001:0002f1e0       ?Open@HttpNzStream@Http@@UAE_NXZ 004301e0 f   foundation_win32.release:httpnzstream.obj
 0001:0002f680       ??0?$Ptr@VMemoryStream@IO@@@@QAE@PAVMemoryStream@IO@@@Z 00430680 f i foundation_win32.release:httpnzstream.obj
 0001:0002f6c0       ??4?$Ptr@VMemoryStream@IO@@@@QAEXPAVMemoryStream@IO@@@Z 004306c0 f i foundation_win32.release:httpnzstream.obj
 0001:0002f720       ??C?$Ptr@VMemoryStream@IO@@@@QBEPAVMemoryStream@IO@@XZ 00430720 f i foundation_win32.release:httpnzstream.obj
 0001:0002f760       ??$upcast@VStream@IO@@@?$Ptr@VMemoryStream@IO@@@@QBEABV?$Ptr@VStream@IO@@@@XZ 00430760 f i foundation_win32.release:httpnzstream.obj
 0001:0002f770       ?n_min@Math@@YAHHH@Z       00430770 f i foundation_win32.release:zipfilestream.obj
 0001:0002f7a0       ?n_iclamp@Math@@YAHHHH@Z   004307a0 f i foundation_win32.release:zipfilestream.obj
 0001:0002f7d0       ??2ZipFileStream@IO@@SAPAXI@Z 004307d0 f i foundation_win32.release:zipfilestream.obj
 0001:0002f7e0       ??3ZipFileStream@IO@@SAXPAX@Z 004307e0 f i foundation_win32.release:zipfilestream.obj
 0001:0002f800       ?Instance@ZipFileSystem@IO@@SAPAV12@XZ 00430800 f i foundation_win32.release:zipfilestream.obj
 0001:0002f830       ?GetFileSize@ZipFileEntry@IO@@QBEHXZ 00430830 f i foundation_win32.release:zipfilestream.obj
 0001:0002f850       ?GetRtti@ZipFileStream@IO@@UBEPAVRtti@Core@@XZ 00430850 f   foundation_win32.release:zipfilestream.obj
 0001:0002f860       ?FactoryCreator@ZipFileStream@IO@@SAPAVRefCounted@Core@@XZ 00430860 f   foundation_win32.release:zipfilestream.obj
 0001:0002f870       ?Create@ZipFileStream@IO@@SAPAV12@XZ 00430870 f   foundation_win32.release:zipfilestream.obj
 0001:0002f8b0       ?RegisterWithFactory@ZipFileStream@IO@@SA_NXZ 004308b0 f   foundation_win32.release:zipfilestream.obj
 0001:0002f9b0       ??0ZipFileStream@IO@@QAE@XZ 004309b0 f   foundation_win32.release:zipfilestream.obj
 0001:0002fa00       ??_EZipFileStream@IO@@UAEPAXI@Z 00430a00 f i  CIL library: CIL module
 0001:0002fa00       ??_GZipFileStream@IO@@UAEPAXI@Z 00430a00 f i foundation_win32.release:zipfilestream.obj
 0001:0002fa30       ??1ZipFileStream@IO@@UAE@XZ 00430a30 f   foundation_win32.release:zipfilestream.obj
 0001:0002fa90       ?CanRead@ZipFileStream@IO@@UBE_NXZ 00430a90 f   foundation_win32.release:zipfilestream.obj
 0001:0002faa0       ?CanWrite@ZipFileStream@IO@@UBE_NXZ 00430aa0 f   foundation_win32.release:zipfilestream.obj
 0001:0002fab0       ?CanSeek@ZipFileStream@IO@@UBE_NXZ 00430ab0 f   foundation_win32.release:zipfilestream.obj
 0001:0002fac0       ?CanBeMapped@ZipFileStream@IO@@UBE_NXZ 00430ac0 f   foundation_win32.release:zipfilestream.obj
 0001:0002fad0       ?GetSize@ZipFileStream@IO@@UBEHXZ 00430ad0 f   foundation_win32.release:zipfilestream.obj
 0001:0002faf0       ?GetPosition@ZipFileStream@IO@@UBEHXZ 00430af0 f   foundation_win32.release:zipfilestream.obj
 0001:0002fb10       ?Open@ZipFileStream@IO@@UAE_NXZ 00430b10 f   foundation_win32.release:zipfilestream.obj
 0001:0002ff60       ?Close@ZipFileStream@IO@@UAEXXZ 00430f60 f   foundation_win32.release:zipfilestream.obj
 0001:00030000       ?Read@ZipFileStream@IO@@UAEHPAXH@Z 00431000 f   foundation_win32.release:zipfilestream.obj
 0001:000301a0       ?Seek@ZipFileStream@IO@@UAEXHW4SeekOrigin@Stream@2@@Z 004311a0 f   foundation_win32.release:zipfilestream.obj
 0001:000303c0       ?Eof@ZipFileStream@IO@@UBE_NXZ 004313c0 f   foundation_win32.release:zipfilestream.obj
 0001:00030470       ?Map@ZipFileStream@IO@@UAEPAXXZ 00431470 f   foundation_win32.release:zipfilestream.obj
 0001:000305b0       ?Unmap@ZipFileStream@IO@@UAEXXZ 004315b0 f   foundation_win32.release:zipfilestream.obj
 0001:00030630       ??0?$Ptr@VZipArchive@IO@@@@QAE@ABV0@@Z 00431630 f i foundation_win32.release:zipfilestream.obj
 0001:00030670       ??A?$Dictionary@VString@Util@@V12@@Util@@QAEAAVString@1@ABV21@@Z 00431670 f i foundation_win32.release:zipfilestream.obj
 0001:000306c0       ?Contains@?$Dictionary@VString@Util@@V12@@Util@@QBE_NABVString@2@@Z 004316c0 f i foundation_win32.release:zipfilestream.obj
 0001:00030720       ?FindIndex@?$Dictionary@VString@Util@@V12@@Util@@QBEHABVString@2@@Z 00431720 f i foundation_win32.release:zipfilestream.obj
 0001:00030780       ??2Archive@IO@@SAPAXI@Z    00431780 f i foundation_win32.release:archive.obj
 0001:00030790       ??3Archive@IO@@SAXPAX@Z    00431790 f i foundation_win32.release:archive.obj
 0001:000307b0       ?GetRtti@Archive@IO@@UBEPAVRtti@Core@@XZ 004317b0 f   foundation_win32.release:archive.obj
 0001:000307c0       ?FactoryCreator@Archive@IO@@SAPAVRefCounted@Core@@XZ 004317c0 f   foundation_win32.release:archive.obj
 0001:000307d0       ?Create@Archive@IO@@SAPAV12@XZ 004317d0 f   foundation_win32.release:archive.obj
 0001:00030810       ??0Archive@IO@@QAE@XZ      00431810 f i foundation_win32.release:archive.obj
 0001:00030830       ??_GArchive@IO@@UAEPAXI@Z  00431830 f i foundation_win32.release:archive.obj
 0001:00030830       ??_EArchive@IO@@UAEPAXI@Z  00431830 f i  CIL library: CIL module
 0001:00030860       ??1Archive@IO@@UAE@XZ      00431860 f i foundation_win32.release:archive.obj
 0001:00030880       ?RegisterWithFactory@Archive@IO@@SA_NXZ 00431880 f   foundation_win32.release:archive.obj
 0001:00030980       ??2ArchiveBase@IO@@SAPAXI@Z 00431980 f i foundation_win32.release:archivebase.obj
 0001:00030990       ??3ArchiveBase@IO@@SAXPAX@Z 00431990 f i foundation_win32.release:archivebase.obj
 0001:000309b0       ?GetRtti@ArchiveBase@IO@@UBEPAVRtti@Core@@XZ 004319b0 f   foundation_win32.release:archivebase.obj
 0001:000309c0       ?FactoryCreator@ArchiveBase@IO@@SAPAVRefCounted@Core@@XZ 004319c0 f   foundation_win32.release:archivebase.obj
 0001:000309d0       ?Create@ArchiveBase@IO@@SAPAV12@XZ 004319d0 f   foundation_win32.release:archivebase.obj
 0001:00030a10       ?RegisterWithFactory@ArchiveBase@IO@@SA_NXZ 00431a10 f   foundation_win32.release:archivebase.obj
 0001:00030b10       ??0ArchiveBase@IO@@QAE@XZ  00431b10 f   foundation_win32.release:archivebase.obj
 0001:00030b50       ??_GArchiveBase@IO@@UAEPAXI@Z 00431b50 f i foundation_win32.release:archivebase.obj
 0001:00030b50       ??_EArchiveBase@IO@@UAEPAXI@Z 00431b50 f i  CIL library: CIL module
 0001:00030b80       ??1ArchiveBase@IO@@UAE@XZ  00431b80 f   foundation_win32.release:archivebase.obj
 0001:00030bd0       ?Setup@ArchiveBase@IO@@QAE_NABVURI@2@@Z 00431bd0 f   foundation_win32.release:archivebase.obj
 0001:00030c20       ?Discard@ArchiveBase@IO@@QAEXXZ 00431c20 f   foundation_win32.release:archivebase.obj
 0001:00030c60       ?ListFiles@ArchiveBase@IO@@QBE?AV?$Array@VString@Util@@@Util@@ABVString@4@0@Z 00431c60 f   foundation_win32.release:archivebase.obj
 0001:00030c90       ?ListDirectories@ArchiveBase@IO@@QBE?AV?$Array@VString@Util@@@Util@@ABVString@4@0@Z 00431c90 f   foundation_win32.release:archivebase.obj
 0001:00030cc0       ?ConvertToArchiveURI@ArchiveBase@IO@@QBE?AVURI@2@ABV32@@Z 00431cc0 f   foundation_win32.release:archivebase.obj
 0001:00030ce0       ?ConvertToPathInArchive@ArchiveBase@IO@@QBE?AVString@Util@@ABV34@@Z 00431ce0 f   foundation_win32.release:archivebase.obj
 0001:00030d40       ??0StringAtom@Util@@QAE@XZ 00431d40 f i foundation_win32.release:zipdirentry.obj
 0001:00030d60       ??0StringAtom@Util@@QAE@ABV01@@Z 00431d60 f i foundation_win32.release:zipdirentry.obj
 0001:00030d80       ??9StringAtom@Util@@QBE_NABV01@@Z 00431d80 f i foundation_win32.release:zipdirentry.obj
 0001:00030da0       ??OStringAtom@Util@@QBE_NABV01@@Z 00431da0 f i foundation_win32.release:zipdirentry.obj
 0001:00030dc0       ??MStringAtom@Util@@QBE_NABV01@@Z 00431dc0 f i foundation_win32.release:zipdirentry.obj
 0001:00030de0       ?IsValid@StringAtom@Util@@QBE_NXZ 00431de0 f i foundation_win32.release:zipdirentry.obj
 0001:00030e20       ?SetName@ZipDirEntry@IO@@AAEXABVStringAtom@Util@@@Z 00431e20 f i foundation_win32.release:zipdirentry.obj
 0001:00030e40       ??0ZipDirEntry@IO@@QAE@XZ  00431e40 f   foundation_win32.release:zipdirentry.obj
 0001:00030e90       ?AddFileEntry@ZipDirEntry@IO@@AAEPAVZipFileEntry@2@ABVStringAtom@Util@@@Z 00431e90 f   foundation_win32.release:zipdirentry.obj
 0001:00030f00       ?AddDirEntry@ZipDirEntry@IO@@AAEPAV12@ABVStringAtom@Util@@@Z 00431f00 f   foundation_win32.release:zipdirentry.obj
 0001:00030f80       ?FindFileEntry@ZipDirEntry@IO@@QBEPAVZipFileEntry@2@ABVStringAtom@Util@@@Z 00431f80 f   foundation_win32.release:zipdirentry.obj
 0001:00031010       ?FindDirEntry@ZipDirEntry@IO@@QBEPAV12@ABVStringAtom@Util@@@Z 00432010 f   foundation_win32.release:zipdirentry.obj
 0001:000310a0       ??0?$Array@VZipFileEntry@IO@@@Util@@QAE@XZ 004320a0 f i foundation_win32.release:zipdirentry.obj
 0001:000310e0       ?Append@?$Array@VZipFileEntry@IO@@@Util@@QAEXABVZipFileEntry@IO@@@Z 004320e0 f i foundation_win32.release:zipdirentry.obj
 0001:00031190       ?Back@?$Array@VZipFileEntry@IO@@@Util@@QBEAAVZipFileEntry@IO@@XZ 00432190 f i foundation_win32.release:zipdirentry.obj
 0001:000311e0       ??0?$Array@VZipDirEntry@IO@@@Util@@QAE@XZ 004321e0 f i foundation_win32.release:zipdirentry.obj
 0001:00031220       ?Append@?$Array@VZipDirEntry@IO@@@Util@@QAEXABVZipDirEntry@IO@@@Z 00432220 f i foundation_win32.release:zipdirentry.obj
 0001:000312a0       ?Back@?$Array@VZipDirEntry@IO@@@Util@@QBEAAVZipDirEntry@IO@@XZ 004322a0 f i foundation_win32.release:zipdirentry.obj
 0001:000312f0       ??0?$Dictionary@VStringAtom@Util@@H@Util@@QAE@XZ 004322f0 f i foundation_win32.release:zipdirentry.obj
 0001:00031310       ?Add@?$Dictionary@VStringAtom@Util@@H@Util@@QAEXABVStringAtom@2@ABH@Z 00432310 f i foundation_win32.release:zipdirentry.obj
 0001:00031360       ?FindIndex@?$Dictionary@VStringAtom@Util@@H@Util@@QBEHABVStringAtom@2@@Z 00432360 f i foundation_win32.release:zipdirentry.obj
 0001:000313b0       ?ValueAtIndex@?$Dictionary@VStringAtom@Util@@H@Util@@QBEABHH@Z 004323b0 f i foundation_win32.release:zipdirentry.obj
 0001:00031400       ??4ZipFileEntry@IO@@QAEAAV01@ABV01@@Z 00432400 f i foundation_win32.release:zipdirentry.obj
 0001:00031450       ??4ZipDirEntry@IO@@QAEAAV01@ABV01@@Z 00432450 f i foundation_win32.release:zipdirentry.obj
 0001:000314c0       ??4?$Array@VZipFileEntry@IO@@@Util@@QAEXABV01@@Z 004324c0 f i foundation_win32.release:zipdirentry.obj
 0001:000315f0       ?Grow@?$Array@VZipFileEntry@IO@@@Util@@AAEXXZ 004325f0 f i foundation_win32.release:zipdirentry.obj
 0001:00031670       ??4?$Array@VZipDirEntry@IO@@@Util@@QAEXABV01@@Z 00432670 f i foundation_win32.release:zipdirentry.obj
 0001:00031760       ?Grow@?$Array@VZipDirEntry@IO@@@Util@@AAEXXZ 00432760 f i foundation_win32.release:zipdirentry.obj
 0001:000317e0       ??0?$Array@V?$KeyValuePair@VStringAtom@Util@@H@Util@@@Util@@QAE@XZ 004327e0 f i foundation_win32.release:zipdirentry.obj
 0001:00031820       ??A?$Array@V?$KeyValuePair@VStringAtom@Util@@H@Util@@@Util@@QBEAAV?$KeyValuePair@VStringAtom@Util@@H@1@H@Z 00432820 f i foundation_win32.release:zipdirentry.obj
 0001:00031870       ?Append@?$Array@V?$KeyValuePair@VStringAtom@Util@@H@Util@@@Util@@QAEXABV?$KeyValuePair@VStringAtom@Util@@H@2@@Z 00432870 f i foundation_win32.release:zipdirentry.obj
 0001:000318f0       ?InsertSorted@?$Array@V?$KeyValuePair@VStringAtom@Util@@H@Util@@@Util@@QAEHABV?$KeyValuePair@VStringAtom@Util@@H@2@@Z 004328f0 f i foundation_win32.release:zipdirentry.obj
 0001:00031b60       ?BinarySearchIndex@?$Array@V?$KeyValuePair@VStringAtom@Util@@H@Util@@@Util@@QBEHABV?$KeyValuePair@VStringAtom@Util@@H@2@@Z 00432b60 f i foundation_win32.release:zipdirentry.obj
 0001:00031c90       ??4?$Dictionary@VStringAtom@Util@@H@Util@@QAEXABV01@@Z 00432c90 f i foundation_win32.release:zipdirentry.obj
 0001:00031cf0       ??0?$KeyValuePair@VStringAtom@Util@@H@Util@@QAE@ABVStringAtom@1@@Z 00432cf0 f i foundation_win32.release:zipdirentry.obj
 0001:00031d10       ??0?$KeyValuePair@VStringAtom@Util@@H@Util@@QAE@ABVStringAtom@1@ABH@Z 00432d10 f i foundation_win32.release:zipdirentry.obj
 0001:00031d40       ?Value@?$KeyValuePair@VStringAtom@Util@@H@Util@@QAEAAHXZ 00432d40 f i foundation_win32.release:zipdirentry.obj
 0001:00031d60       ?Destroy@?$Array@VZipFileEntry@IO@@@Util@@AAEXPAVZipFileEntry@IO@@@Z 00432d60 f i foundation_win32.release:zipdirentry.obj
 0001:00031d90       ?Copy@?$Array@VZipFileEntry@IO@@@Util@@AAEXABV12@@Z 00432d90 f i foundation_win32.release:zipdirentry.obj
 0001:00031f00       ?GrowTo@?$Array@VZipFileEntry@IO@@@Util@@AAEXH@Z 00432f00 f i foundation_win32.release:zipdirentry.obj
 0001:00032060       ?Destroy@?$Array@VZipDirEntry@IO@@@Util@@AAEXPAVZipDirEntry@IO@@@Z 00433060 f i foundation_win32.release:zipdirentry.obj
 0001:00032090       ?Copy@?$Array@VZipDirEntry@IO@@@Util@@AAEXABV12@@Z 00433090 f i foundation_win32.release:zipdirentry.obj
 0001:000321c0       ?GrowTo@?$Array@VZipDirEntry@IO@@@Util@@AAEXH@Z 004331c0 f i foundation_win32.release:zipdirentry.obj
 0001:000322e0       ??4?$Array@V?$KeyValuePair@VStringAtom@Util@@H@Util@@@Util@@QAEXABV01@@Z 004332e0 f i foundation_win32.release:zipdirentry.obj
 0001:000323d0       ?Size@?$Array@V?$KeyValuePair@VStringAtom@Util@@H@Util@@@Util@@QBEHXZ 004333d0 f i foundation_win32.release:zipdirentry.obj
 0001:000323f0       ?Insert@?$Array@V?$KeyValuePair@VStringAtom@Util@@H@Util@@@Util@@QAEXHABV?$KeyValuePair@VStringAtom@Util@@H@2@@Z 004333f0 f i foundation_win32.release:zipdirentry.obj
 0001:00032460       ?InsertAtEndOfIdenticalRange@?$Array@V?$KeyValuePair@VStringAtom@Util@@H@Util@@@Util@@QAEHHABV?$KeyValuePair@VStringAtom@Util@@H@2@@Z 00433460 f i foundation_win32.release:zipdirentry.obj
 0001:000324e0       ?Grow@?$Array@V?$KeyValuePair@VStringAtom@Util@@H@Util@@@Util@@AAEXXZ 004334e0 f i foundation_win32.release:zipdirentry.obj
 0001:00032560       ??4?$KeyValuePair@VStringAtom@Util@@H@Util@@QAEXABV01@@Z 00433560 f i foundation_win32.release:zipdirentry.obj
 0001:00032590       ??9?$KeyValuePair@VStringAtom@Util@@H@Util@@QBE_NABV01@@Z 00433590 f i foundation_win32.release:zipdirentry.obj
 0001:000325b0       ??O?$KeyValuePair@VStringAtom@Util@@H@Util@@QBE_NABV01@@Z 004335b0 f i foundation_win32.release:zipdirentry.obj
 0001:000325d0       ??M?$KeyValuePair@VStringAtom@Util@@H@Util@@QBE_NABV01@@Z 004335d0 f i foundation_win32.release:zipdirentry.obj
 0001:000325f0       ??_GZipFileEntry@IO@@QAEPAXI@Z 004335f0 f i foundation_win32.release:zipdirentry.obj
 0001:00032620       ??_GZipDirEntry@IO@@QAEPAXI@Z 00433620 f i foundation_win32.release:zipdirentry.obj
 0001:00032650       ?Destroy@?$Array@V?$KeyValuePair@VStringAtom@Util@@H@Util@@@Util@@AAEXPAV?$KeyValuePair@VStringAtom@Util@@H@2@@Z 00433650 f i foundation_win32.release:zipdirentry.obj
 0001:00032660       ?Copy@?$Array@V?$KeyValuePair@VStringAtom@Util@@H@Util@@@Util@@AAEXABV12@@Z 00433660 f i foundation_win32.release:zipdirentry.obj
 0001:00032780       ?GrowTo@?$Array@V?$KeyValuePair@VStringAtom@Util@@H@Util@@@Util@@AAEXH@Z 00433780 f i foundation_win32.release:zipdirentry.obj
 0001:00032870       ?Move@?$Array@V?$KeyValuePair@VStringAtom@Util@@H@Util@@@Util@@AAEXHH@Z 00433870 f i foundation_win32.release:zipdirentry.obj
 0001:00032a00       ??0?$KeyValuePair@VStringAtom@Util@@H@Util@@QAE@XZ 00433a00 f i foundation_win32.release:zipdirentry.obj
 0001:00032a20       ??0ZipFileEntry@IO@@QAE@XZ 00433a20 f   foundation_win32.release:zipfileentry.obj
 0001:00032a70       ??1ZipFileEntry@IO@@QAE@XZ 00433a70 f   foundation_win32.release:zipfileentry.obj
 0001:00032a90       ?Setup@ZipFileEntry@IO@@AAEXABVStringAtom@Util@@PAXPAVCriticalSection@Threading@@@Z 00433a90 f   foundation_win32.release:zipfileentry.obj
 0001:00032b90       ?Open@ZipFileEntry@IO@@QAE_NABVString@Util@@@Z 00433b90 f   foundation_win32.release:zipfileentry.obj
 0001:00032c90       ?Close@ZipFileEntry@IO@@QAEXXZ 00433c90 f   foundation_win32.release:zipfileentry.obj
 0001:00032d00       ?Read@ZipFileEntry@IO@@QBE_NPAXH@Z 00433d00 f   foundation_win32.release:zipfileentry.obj
 0001:00032d90       ??2ConsoleHandler@IO@@SAPAXI@Z 00433d90 f i foundation_win32.release:consolehandler.obj
 0001:00032da0       ??3ConsoleHandler@IO@@SAXPAX@Z 00433da0 f i foundation_win32.release:consolehandler.obj
 0001:00032dc0       ?IsOpen@ConsoleHandler@IO@@QBE_NXZ 00433dc0 f i foundation_win32.release:consolehandler.obj
 0001:00032de0       ?GetRtti@ConsoleHandler@IO@@UBEPAVRtti@Core@@XZ 00433de0 f   foundation_win32.release:consolehandler.obj
 0001:00032df0       ?FactoryCreator@ConsoleHandler@IO@@SAPAVRefCounted@Core@@XZ 00433df0 f   foundation_win32.release:consolehandler.obj
 0001:00032e00       ?Create@ConsoleHandler@IO@@SAPAV12@XZ 00433e00 f   foundation_win32.release:consolehandler.obj
 0001:00032e40       ?RegisterWithFactory@ConsoleHandler@IO@@SA_NXZ 00433e40 f   foundation_win32.release:consolehandler.obj
 0001:00032f40       ??0ConsoleHandler@IO@@QAE@XZ 00433f40 f   foundation_win32.release:consolehandler.obj
 0001:00032f80       ??_GConsoleHandler@IO@@UAEPAXI@Z 00433f80 f i foundation_win32.release:consolehandler.obj
 0001:00032f80       ??_EConsoleHandler@IO@@UAEPAXI@Z 00433f80 f i  CIL library: CIL module
 0001:00032fb0       ??1ConsoleHandler@IO@@UAE@XZ 00433fb0 f   foundation_win32.release:consolehandler.obj
 0001:00032ff0       ?Open@ConsoleHandler@IO@@UAEXXZ 00433ff0 f   foundation_win32.release:consolehandler.obj
 0001:00033030       ?Close@ConsoleHandler@IO@@UAEXXZ 00434030 f   foundation_win32.release:consolehandler.obj
 0001:00033070       ?Update@ConsoleHandler@IO@@UAEXXZ 00434070 f   foundation_win32.release:consolehandler.obj
 0001:000330b0       ?Print@ConsoleHandler@IO@@UAEXABVString@Util@@@Z 004340b0 f   foundation_win32.release:consolehandler.obj
 0001:000330c0       ?Error@ConsoleHandler@IO@@UAEXABVString@Util@@@Z 004340c0 f   foundation_win32.release:consolehandler.obj
 0001:000330d0       ?Warning@ConsoleHandler@IO@@UAEXABVString@Util@@@Z 004340d0 f   foundation_win32.release:consolehandler.obj
 0001:000330e0       ?Confirm@ConsoleHandler@IO@@UAEXABVString@Util@@@Z 004340e0 f   foundation_win32.release:consolehandler.obj
 0001:000330f0       ?DebugOut@ConsoleHandler@IO@@UAEXABVString@Util@@@Z 004340f0 f   foundation_win32.release:consolehandler.obj
 0001:00033100       ?HasInput@ConsoleHandler@IO@@UAE_NXZ 00434100 f   foundation_win32.release:consolehandler.obj
 0001:00033110       ?GetInput@ConsoleHandler@IO@@UAE?AVString@Util@@XZ 00434110 f   foundation_win32.release:consolehandler.obj
 0001:00033160       ?CheckValidCharSet@String@Util@@QBE_NABV12@@Z 00434160 f i foundation_win32.release:win360ipaddress.obj
 0001:00033200       ?Host@URI@IO@@QBEABVString@Util@@XZ 00434200 f i foundation_win32.release:win360ipaddress.obj
 0001:00033220       ?Port@URI@IO@@QBEABVString@Util@@XZ 00434220 f i foundation_win32.release:win360ipaddress.obj
 0001:00033240       ??0Win360IpAddress@Win360@@QAE@XZ 00434240 f   foundation_win32.release:win360ipaddress.obj
 0001:000332d0       ??0Win360IpAddress@Win360@@QAE@ABV01@@Z 004342d0 f   foundation_win32.release:win360ipaddress.obj
 0001:000333b0       ??0Win360IpAddress@Win360@@QAE@ABVString@Util@@G@Z 004343b0 f   foundation_win32.release:win360ipaddress.obj
 0001:00033450       ??0Win360IpAddress@Win360@@QAE@ABVURI@IO@@@Z 00434450 f   foundation_win32.release:win360ipaddress.obj
 0001:000334e0       ??0Win360IpAddress@Win360@@AAE@ABUsockaddr_in@@@Z 004344e0 f   foundation_win32.release:win360ipaddress.obj
 0001:00033570       ?SetSockAddr@Win360IpAddress@Win360@@AAEXABUsockaddr_in@@@Z 00434570 f   foundation_win32.release:win360ipaddress.obj
 0001:00033610       ?GetSockAddr@Win360IpAddress@Win360@@ABEABUsockaddr_in@@XZ 00434610 f   foundation_win32.release:win360ipaddress.obj
 0001:00033630       ?ExtractFromUri@Win360IpAddress@Win360@@QAEXABVURI@IO@@@Z 00434630 f   foundation_win32.release:win360ipaddress.obj
 0001:000336f0       ?SetPort@Win360IpAddress@Win360@@QAEXG@Z 004346f0 f   foundation_win32.release:win360ipaddress.obj
 0001:00033710       ?GetPort@Win360IpAddress@Win360@@QBEGXZ 00434710 f   foundation_win32.release:win360ipaddress.obj
 0001:00033730       ?SetHostName@Win360IpAddress@Win360@@QAEXABVString@Util@@@Z 00434730 f   foundation_win32.release:win360ipaddress.obj
 0001:000337f0       ?GetHostName@Win360IpAddress@Win360@@QBEABVString@Util@@XZ 004347f0 f   foundation_win32.release:win360ipaddress.obj
 0001:00033800       ?GetHostAddr@Win360IpAddress@Win360@@QBEABVString@Util@@XZ 00434800 f   foundation_win32.release:win360ipaddress.obj
 0001:00033820       ?GetHostByName@Win360IpAddress@Win360@@CA_NABVString@Util@@AAUin_addr@@@Z 00434820 f   foundation_win32.release:win360ipaddress.obj
 0001:00033b10       ?IsInetAddr@Win360IpAddress@Win360@@CA_NPBUin_addr@@@Z 00434b10 f   foundation_win32.release:win360ipaddress.obj
 0001:00033d10       ??2Socket@Net@@SAPAXI@Z    00434d10 f i foundation_win32.release:socket.obj
 0001:00033d20       ??3Socket@Net@@SAXPAX@Z    00434d20 f i foundation_win32.release:socket.obj
 0001:00033d40       ?GetRtti@Socket@Net@@UBEPAVRtti@Core@@XZ 00434d40 f   foundation_win32.release:socket.obj
 0001:00033d50       ?FactoryCreator@Socket@Net@@SAPAVRefCounted@Core@@XZ 00434d50 f   foundation_win32.release:socket.obj
 0001:00033d60       ?Create@Socket@Net@@SAPAV12@XZ 00434d60 f   foundation_win32.release:socket.obj
 0001:00033da0       ??0Socket@Net@@QAE@XZ      00434da0 f i foundation_win32.release:socket.obj
 0001:00033dc0       ??_ESocket@Net@@UAEPAXI@Z  00434dc0 f i  CIL library: CIL module
 0001:00033dc0       ??_GSocket@Net@@UAEPAXI@Z  00434dc0 f i foundation_win32.release:socket.obj
 0001:00033df0       ??1Socket@Net@@UAE@XZ      00434df0 f i foundation_win32.release:socket.obj
 0001:00033e10       ?RegisterWithFactory@Socket@Net@@SA_NXZ 00434e10 f   foundation_win32.release:socket.obj
 0001:00033f10       ??2MemoryStream@IO@@SAPAXI@Z 00434f10 f i foundation_win32.release:memorystream.obj
 0001:00033f20       ??3MemoryStream@IO@@SAXPAX@Z 00434f20 f i foundation_win32.release:memorystream.obj
 0001:00033f40       ?GetRtti@MemoryStream@IO@@UBEPAVRtti@Core@@XZ 00434f40 f   foundation_win32.release:memorystream.obj
 0001:00033f50       ?FactoryCreator@MemoryStream@IO@@SAPAVRefCounted@Core@@XZ 00434f50 f   foundation_win32.release:memorystream.obj
 0001:00033f60       ?Create@MemoryStream@IO@@SAPAV12@XZ 00434f60 f   foundation_win32.release:memorystream.obj
 0001:00033fa0       ?RegisterWithFactory@MemoryStream@IO@@SA_NXZ 00434fa0 f   foundation_win32.release:memorystream.obj
 0001:000340a0       ??0MemoryStream@IO@@QAE@XZ 004350a0 f   foundation_win32.release:memorystream.obj
 0001:00034100       ??_EMemoryStream@IO@@UAEPAXI@Z 00435100 f i  CIL library: CIL module
 0001:00034100       ??_GMemoryStream@IO@@UAEPAXI@Z 00435100 f i foundation_win32.release:memorystream.obj
 0001:00034130       ??1MemoryStream@IO@@UAE@XZ 00435130 f   foundation_win32.release:memorystream.obj
 0001:00034190       ?CanRead@MemoryStream@IO@@UBE_NXZ 00435190 f   foundation_win32.release:memorystream.obj
 0001:000341a0       ?CanWrite@MemoryStream@IO@@UBE_NXZ 004351a0 f   foundation_win32.release:memorystream.obj
 0001:000341b0       ?CanSeek@MemoryStream@IO@@UBE_NXZ 004351b0 f   foundation_win32.release:memorystream.obj
 0001:000341c0       ?CanBeMapped@MemoryStream@IO@@UBE_NXZ 004351c0 f   foundation_win32.release:memorystream.obj
 0001:000341d0       ?SetSize@MemoryStream@IO@@UAEXH@Z 004351d0 f   foundation_win32.release:memorystream.obj
 0001:00034210       ?GetSize@MemoryStream@IO@@UBEHXZ 00435210 f   foundation_win32.release:memorystream.obj
 0001:00034230       ?GetPosition@MemoryStream@IO@@UBEHXZ 00435230 f   foundation_win32.release:memorystream.obj
 0001:00034250       ?Open@MemoryStream@IO@@UAE_NXZ 00435250 f   foundation_win32.release:memorystream.obj
 0001:000342f0       ?Close@MemoryStream@IO@@UAEXXZ 004352f0 f   foundation_win32.release:memorystream.obj
 0001:00034350       ?Write@MemoryStream@IO@@UAEXPBXH@Z 00435350 f   foundation_win32.release:memorystream.obj
 0001:00034530       ?Read@MemoryStream@IO@@UAEHPAXH@Z 00435530 f   foundation_win32.release:memorystream.obj
 0001:00034700       ?Seek@MemoryStream@IO@@UAEXHW4SeekOrigin@Stream@2@@Z 00435700 f   foundation_win32.release:memorystream.obj
 0001:00034840       ?Eof@MemoryStream@IO@@UBE_NXZ 00435840 f   foundation_win32.release:memorystream.obj
 0001:000348f0       ?HasRoom@MemoryStream@IO@@ABE_NH@Z 004358f0 f   foundation_win32.release:memorystream.obj
 0001:00034920       ?Realloc@MemoryStream@IO@@AAEXH@Z 00435920 f   foundation_win32.release:memorystream.obj
 0001:00034aa0       ?MakeRoom@MemoryStream@IO@@AAEXH@Z 00435aa0 f   foundation_win32.release:memorystream.obj
 0001:00034b70       ?Map@MemoryStream@IO@@UAEPAXXZ 00435b70 f   foundation_win32.release:memorystream.obj
 0001:00034be0       ?Unmap@MemoryStream@IO@@UAEXXZ 00435be0 f   foundation_win32.release:memorystream.obj
 0001:00034c20       ?GetRawPointer@MemoryStream@IO@@QBEPAXXZ 00435c20 f   foundation_win32.release:memorystream.obj
 0001:00034c60       ??2HttpClientRegistry@Http@@SAPAXI@Z 00435c60 f i foundation_win32.release:httpclientregistry.obj
 0001:00034c70       ??3HttpClientRegistry@Http@@SAXPAX@Z 00435c70 f i foundation_win32.release:httpclientregistry.obj
 0001:00034c90       ?IsValid@HttpClientRegistry@Http@@QBE_NXZ 00435c90 f i foundation_win32.release:httpclientregistry.obj
 0001:00034cb0       ?GetRtti@HttpClientRegistry@Http@@UBEPAVRtti@Core@@XZ 00435cb0 f   foundation_win32.release:httpclientregistry.obj
 0001:00034cc0       ?FactoryCreator@HttpClientRegistry@Http@@SAPAVRefCounted@Core@@XZ 00435cc0 f   foundation_win32.release:httpclientregistry.obj
 0001:00034cd0       ?Create@HttpClientRegistry@Http@@SAPAV12@XZ 00435cd0 f   foundation_win32.release:httpclientregistry.obj
 0001:00034d10       ?RegisterWithFactory@HttpClientRegistry@Http@@SA_NXZ 00435d10 f   foundation_win32.release:httpclientregistry.obj
 0001:00034e10       ??0HttpClientRegistry@Http@@QAE@XZ 00435e10 f   foundation_win32.release:httpclientregistry.obj
 0001:00034e80       ??_EHttpClientRegistry@Http@@UAEPAXI@Z 00435e80 f i  CIL library: CIL module
 0001:00034e80       ??_GHttpClientRegistry@Http@@UAEPAXI@Z 00435e80 f i foundation_win32.release:httpclientregistry.obj
 0001:00034eb0       ??1?$Dictionary@VStringAtom@Util@@UConnection@HttpClientRegistry@Http@@@Util@@QAE@XZ 00435eb0 f i foundation_win32.release:httpclientregistry.obj
 0001:00034ed0       ??1HttpClientRegistry@Http@@UAE@XZ 00435ed0 f   foundation_win32.release:httpclientregistry.obj
 0001:00034f50       ?Setup@HttpClientRegistry@Http@@QAEXXZ 00435f50 f   foundation_win32.release:httpclientregistry.obj
 0001:00034f90       ?Discard@HttpClientRegistry@Http@@QAEXXZ 00435f90 f   foundation_win32.release:httpclientregistry.obj
 0001:00035020       ?DisconnectIdle@HttpClientRegistry@Http@@QAEXXZ 00436020 f   foundation_win32.release:httpclientregistry.obj
 0001:000350a0       ?ObtainConnection@HttpClientRegistry@Http@@QAE?AV?$Ptr@VHttpClient@Http@@@@ABVURI@IO@@@Z 004360a0 f   foundation_win32.release:httpclientregistry.obj
 0001:000351b0       ??0Connection@HttpClientRegistry@Http@@QAE@XZ 004361b0 f i foundation_win32.release:httpclientregistry.obj
 0001:000351d0       ??1Connection@HttpClientRegistry@Http@@QAE@XZ 004361d0 f i foundation_win32.release:httpclientregistry.obj
 0001:000351f0       ?ReleaseConnection@HttpClientRegistry@Http@@QAEXABVURI@IO@@@Z 004361f0 f   foundation_win32.release:httpclientregistry.obj
 0001:00035290       ?IsConnected@HttpClientRegistry@Http@@QBE_NABVURI@IO@@@Z 00436290 f   foundation_win32.release:httpclientregistry.obj
 0001:00035310       ??0?$Ptr@VHttpClient@Http@@@@QAE@ABV0@@Z 00436310 f i foundation_win32.release:httpclientregistry.obj
 0001:00035350       ??0?$Ptr@VHttpClient@Http@@@@QAE@XZ 00436350 f i foundation_win32.release:httpclientregistry.obj
 0001:00035370       ??4?$Ptr@VHttpClient@Http@@@@QAEXPAVHttpClient@Http@@@Z 00436370 f i foundation_win32.release:httpclientregistry.obj
 0001:000353d0       ??1?$Array@V?$KeyValuePair@VStringAtom@Util@@UConnection@HttpClientRegistry@Http@@@Util@@@Util@@QAE@XZ 004363d0 f i foundation_win32.release:httpclientregistry.obj
 0001:000353f0       ??0?$Dictionary@VStringAtom@Util@@UConnection@HttpClientRegistry@Http@@@Util@@QAE@XZ 004363f0 f i foundation_win32.release:httpclientregistry.obj
 0001:00035410       ??A?$Dictionary@VStringAtom@Util@@UConnection@HttpClientRegistry@Http@@@Util@@QBEABUConnection@HttpClientRegistry@Http@@ABVStringAtom@1@@Z 00436410 f i foundation_win32.release:httpclientregistry.obj
 0001:00035460       ??A?$Dictionary@VStringAtom@Util@@UConnection@HttpClientRegistry@Http@@@Util@@QAEAAUConnection@HttpClientRegistry@Http@@ABVStringAtom@1@@Z 00436460 f i foundation_win32.release:httpclientregistry.obj
 0001:000354b0       ?Size@?$Dictionary@VStringAtom@Util@@UConnection@HttpClientRegistry@Http@@@Util@@QBEHXZ 004364b0 f i foundation_win32.release:httpclientregistry.obj
 0001:000354d0       ?Clear@?$Dictionary@VStringAtom@Util@@UConnection@HttpClientRegistry@Http@@@Util@@QAEXXZ 004364d0 f i foundation_win32.release:httpclientregistry.obj
 0001:00035510       ?Add@?$Dictionary@VStringAtom@Util@@UConnection@HttpClientRegistry@Http@@@Util@@QAEXABVStringAtom@2@ABUConnection@HttpClientRegistry@Http@@@Z 00436510 f i foundation_win32.release:httpclientregistry.obj
 0001:00035560       ?EraseAtIndex@?$Dictionary@VStringAtom@Util@@UConnection@HttpClientRegistry@Http@@@Util@@QAEXH@Z 00436560 f i foundation_win32.release:httpclientregistry.obj
 0001:000355a0       ?FindIndex@?$Dictionary@VStringAtom@Util@@UConnection@HttpClientRegistry@Http@@@Util@@QBEHABVStringAtom@2@@Z 004365a0 f i foundation_win32.release:httpclientregistry.obj
 0001:00035600       ?Contains@?$Dictionary@VStringAtom@Util@@UConnection@HttpClientRegistry@Http@@@Util@@QBE_NABVStringAtom@2@@Z 00436600 f i foundation_win32.release:httpclientregistry.obj
 0001:00035660       ?ValueAtIndex@?$Dictionary@VStringAtom@Util@@UConnection@HttpClientRegistry@Http@@@Util@@QAEAAUConnection@HttpClientRegistry@Http@@H@Z 00436660 f i foundation_win32.release:httpclientregistry.obj
 0001:000356b0       ??1?$KeyValuePair@VStringAtom@Util@@UConnection@HttpClientRegistry@Http@@@Util@@QAE@XZ 004366b0 f i foundation_win32.release:httpclientregistry.obj
 0001:000356d0       ??0?$Array@V?$KeyValuePair@VStringAtom@Util@@UConnection@HttpClientRegistry@Http@@@Util@@@Util@@QAE@XZ 004366d0 f i foundation_win32.release:httpclientregistry.obj
 0001:00035710       ??A?$Array@V?$KeyValuePair@VStringAtom@Util@@UConnection@HttpClientRegistry@Http@@@Util@@@Util@@QBEAAV?$KeyValuePair@VStringAtom@Util@@UConnection@HttpClientRegistry@Http@@@1@H@Z 00436710 f i foundation_win32.release:httpclientregistry.obj
 0001:00035760       ?Append@?$Array@V?$KeyValuePair@VStringAtom@Util@@UConnection@HttpClientRegistry@Http@@@Util@@@Util@@QAEXABV?$KeyValuePair@VStringAtom@Util@@UConnection@HttpClientRegistry@Http@@@2@@Z 00436760 f i foundation_win32.release:httpclientregistry.obj
 0001:000357e0       ?Size@?$Array@V?$KeyValuePair@VStringAtom@Util@@UConnection@HttpClientRegistry@Http@@@Util@@@Util@@QBEHXZ 004367e0 f i foundation_win32.release:httpclientregistry.obj
 0001:00035800       ?EraseIndex@?$Array@V?$KeyValuePair@VStringAtom@Util@@UConnection@HttpClientRegistry@Http@@@Util@@@Util@@QAEXH@Z 00436800 f i foundation_win32.release:httpclientregistry.obj
 0001:00035880       ?InsertSorted@?$Array@V?$KeyValuePair@VStringAtom@Util@@UConnection@HttpClientRegistry@Http@@@Util@@@Util@@QAEHABV?$KeyValuePair@VStringAtom@Util@@UConnection@HttpClientRegistry@Http@@@2@@Z 00436880 f i foundation_win32.release:httpclientregistry.obj
 0001:00035af0       ?Clear@?$Array@V?$KeyValuePair@VStringAtom@Util@@UConnection@HttpClientRegistry@Http@@@Util@@@Util@@QAEXXZ 00436af0 f i foundation_win32.release:httpclientregistry.obj
 0001:00035b40       ?BinarySearchIndex@?$Array@V?$KeyValuePair@VStringAtom@Util@@UConnection@HttpClientRegistry@Http@@@Util@@@Util@@QBEHABV?$KeyValuePair@VStringAtom@Util@@UConnection@HttpClientRegistry@Http@@@2@@Z 00436b40 f i foundation_win32.release:httpclientregistry.obj
 0001:00035c70       ?Delete@?$Array@V?$KeyValuePair@VStringAtom@Util@@UConnection@HttpClientRegistry@Http@@@Util@@@Util@@AAEXXZ 00436c70 f i foundation_win32.release:httpclientregistry.obj
 0001:00035ce0       ??0?$KeyValuePair@VStringAtom@Util@@UConnection@HttpClientRegistry@Http@@@Util@@QAE@ABVStringAtom@1@@Z 00436ce0 f i foundation_win32.release:httpclientregistry.obj
 0001:00035d10       ??0?$KeyValuePair@VStringAtom@Util@@UConnection@HttpClientRegistry@Http@@@Util@@QAE@ABVStringAtom@1@ABUConnection@HttpClientRegistry@Http@@@Z 00436d10 f i foundation_win32.release:httpclientregistry.obj
 0001:00035d50       ?Value@?$KeyValuePair@VStringAtom@Util@@UConnection@HttpClientRegistry@Http@@@Util@@QAEAAUConnection@HttpClientRegistry@Http@@XZ 00436d50 f i foundation_win32.release:httpclientregistry.obj
 0001:00035d70       ??_E?$KeyValuePair@VStringAtom@Util@@UConnection@HttpClientRegistry@Http@@@Util@@QAEPAXI@Z 00436d70 f i foundation_win32.release:httpclientregistry.obj
 0001:00035e10       ??0Connection@HttpClientRegistry@Http@@QAE@ABU012@@Z 00436e10 f i foundation_win32.release:httpclientregistry.obj
 0001:00035e40       ?Insert@?$Array@V?$KeyValuePair@VStringAtom@Util@@UConnection@HttpClientRegistry@Http@@@Util@@@Util@@QAEXHABV?$KeyValuePair@VStringAtom@Util@@UConnection@HttpClientRegistry@Http@@@2@@Z 00436e40 f i foundation_win32.release:httpclientregistry.obj
 0001:00035eb0       ?InsertAtEndOfIdenticalRange@?$Array@V?$KeyValuePair@VStringAtom@Util@@UConnection@HttpClientRegistry@Http@@@Util@@@Util@@QAEHHABV?$KeyValuePair@VStringAtom@Util@@UConnection@HttpClientRegistry@Http@@@2@@Z 00436eb0 f i foundation_win32.release:httpclientregistry.obj
 0001:00035f30       ?Destroy@?$Array@V?$KeyValuePair@VStringAtom@Util@@UConnection@HttpClientRegistry@Http@@@Util@@@Util@@AAEXPAV?$KeyValuePair@VStringAtom@Util@@UConnection@HttpClientRegistry@Http@@@2@@Z 00436f30 f i foundation_win32.release:httpclientregistry.obj
 0001:00035f60       ?Grow@?$Array@V?$KeyValuePair@VStringAtom@Util@@UConnection@HttpClientRegistry@Http@@@Util@@@Util@@AAEXXZ 00436f60 f i foundation_win32.release:httpclientregistry.obj
 0001:00035ff0       ?Move@?$Array@V?$KeyValuePair@VStringAtom@Util@@UConnection@HttpClientRegistry@Http@@@Util@@@Util@@AAEXHH@Z 00436ff0 f i foundation_win32.release:httpclientregistry.obj
 0001:00036180       ??4?$KeyValuePair@VStringAtom@Util@@UConnection@HttpClientRegistry@Http@@@Util@@QAEXABV01@@Z 00437180 f i foundation_win32.release:httpclientregistry.obj
 0001:000361d0       ??9?$KeyValuePair@VStringAtom@Util@@UConnection@HttpClientRegistry@Http@@@Util@@QBE_NABV01@@Z 004371d0 f i foundation_win32.release:httpclientregistry.obj
 0001:000361f0       ??O?$KeyValuePair@VStringAtom@Util@@UConnection@HttpClientRegistry@Http@@@Util@@QBE_NABV01@@Z 004371f0 f i foundation_win32.release:httpclientregistry.obj
 0001:00036210       ??M?$KeyValuePair@VStringAtom@Util@@UConnection@HttpClientRegistry@Http@@@Util@@QBE_NABV01@@Z 00437210 f i foundation_win32.release:httpclientregistry.obj
 0001:00036230       ??_G?$KeyValuePair@VStringAtom@Util@@UConnection@HttpClientRegistry@Http@@@Util@@QAEPAXI@Z 00437230 f i foundation_win32.release:httpclientregistry.obj
 0001:00036270       ??4Connection@HttpClientRegistry@Http@@QAEAAU012@ABU012@@Z 00437270 f i foundation_win32.release:httpclientregistry.obj
 0001:000362a0       ?GrowTo@?$Array@V?$KeyValuePair@VStringAtom@Util@@UConnection@HttpClientRegistry@Http@@@Util@@@Util@@AAEXH@Z 004372a0 f i foundation_win32.release:httpclientregistry.obj
 0001:000363c0       ??4?$Ptr@VHttpClient@Http@@@@QAEXABV0@@Z 004373c0 f i foundation_win32.release:httpclientregistry.obj
 0001:00036420       ??0?$KeyValuePair@VStringAtom@Util@@UConnection@HttpClientRegistry@Http@@@Util@@QAE@XZ 00437420 f i foundation_win32.release:httpclientregistry.obj
 0001:00036450       ?SetBlocking@StdTcpClient@Net@@QAEX_N@Z 00437450 f i foundation_win32.release:httpclient.obj
 0001:00036490       ?IsBlocking@StdTcpClient@Net@@QBE_NXZ 00437490 f i foundation_win32.release:httpclient.obj
 0001:000364b0       ?SetServerAddress@StdTcpClient@Net@@QAEXABVWin360IpAddress@Win360@@@Z 004374b0 f i foundation_win32.release:httpclient.obj
 0001:000364d0       ??2HttpClient@Http@@SAPAXI@Z 004374d0 f i foundation_win32.release:httpclient.obj
 0001:000364e0       ??3HttpClient@Http@@SAXPAX@Z 004374e0 f i foundation_win32.release:httpclient.obj
 0001:00036500       ?SetMethod@HttpRequestWriter@Http@@QAEXW4Code@HttpMethod@2@@Z 00437500 f i foundation_win32.release:httpclient.obj
 0001:00036520       ?SetURI@HttpRequestWriter@Http@@QAEXABVURI@IO@@@Z 00437520 f i foundation_win32.release:httpclient.obj
 0001:00036540       ?SetUserAgent@HttpRequestWriter@Http@@QAEXABVString@Util@@@Z 00437540 f i foundation_win32.release:httpclient.obj
 0001:00036590       ?IsValidHttpResponse@HttpResponseReader@Http@@QBE_NXZ 00437590 f i foundation_win32.release:httpclient.obj
 0001:000365b0       ?GetStatusCode@HttpResponseReader@Http@@QBE?AW4Code@HttpStatus@2@XZ 004375b0 f i foundation_win32.release:httpclient.obj
 0001:000365d0       ?GetContentLength@HttpResponseReader@Http@@QBEHXZ 004375d0 f i foundation_win32.release:httpclient.obj
 0001:000365f0       ?GetRtti@HttpClient@Http@@UBEPAVRtti@Core@@XZ 004375f0 f   foundation_win32.release:httpclient.obj
 0001:00036600       ?FactoryCreator@HttpClient@Http@@SAPAVRefCounted@Core@@XZ 00437600 f   foundation_win32.release:httpclient.obj
 0001:00036610       ?Create@HttpClient@Http@@SAPAV12@XZ 00437610 f   foundation_win32.release:httpclient.obj
 0001:00036650       ?RegisterWithFactory@HttpClient@Http@@SA_NXZ 00437650 f   foundation_win32.release:httpclient.obj
 0001:00036750       ??0HttpClient@Http@@QAE@XZ 00437750 f   foundation_win32.release:httpclient.obj
 0001:000367f0       ??_EHttpClient@Http@@UAEPAXI@Z 004377f0 f i  CIL library: CIL module
 0001:000367f0       ??_GHttpClient@Http@@UAEPAXI@Z 004377f0 f i foundation_win32.release:httpclient.obj
 0001:00036820       ??1HttpClient@Http@@UAE@XZ 00437820 f   foundation_win32.release:httpclient.obj
 0001:000368c0       ?Connect@HttpClient@Http@@QAE_NABVURI@IO@@@Z 004378c0 f   foundation_win32.release:httpclient.obj
 0001:000369b0       ?Disconnect@HttpClient@Http@@QAEXXZ 004379b0 f   foundation_win32.release:httpclient.obj
 0001:000369e0       ?IsConnected@HttpClient@Http@@QBE_NXZ 004379e0 f   foundation_win32.release:httpclient.obj
 0001:00036a00       ?SendRequest@HttpClient@Http@@QAE?AW4Code@HttpStatus@2@W43HttpMethod@2@ABVURI@IO@@ABV?$Ptr@VStream@IO@@@@@Z 00437a00 f   foundation_win32.release:httpclient.obj
 0001:00036fa0       ?isvalid@?$Ptr@VSocket@Net@@@@QBE_NXZ 00437fa0 f i foundation_win32.release:httpclient.obj
 0001:00036fc0       ??0?$Ptr@VTcpClient@Net@@@@QAE@XZ 00437fc0 f i foundation_win32.release:httpclient.obj
 0001:00036fe0       ??1?$Ptr@VTcpClient@Net@@@@QAE@XZ 00437fe0 f i foundation_win32.release:httpclient.obj
 0001:00037010       ??4?$Ptr@VTcpClient@Net@@@@QAEXPAVTcpClient@Net@@@Z 00438010 f i foundation_win32.release:httpclient.obj
 0001:00037070       ??C?$Ptr@VTcpClient@Net@@@@QBEPAVTcpClient@Net@@XZ 00438070 f i foundation_win32.release:httpclient.obj
 0001:000370b0       ??0?$Ptr@VHttpRequestWriter@Http@@@@QAE@PAVHttpRequestWriter@Http@@@Z 004380b0 f i foundation_win32.release:httpclient.obj
 0001:000370f0       ??1?$Ptr@VHttpRequestWriter@Http@@@@QAE@XZ 004380f0 f i foundation_win32.release:httpclient.obj
 0001:00037120       ??C?$Ptr@VHttpRequestWriter@Http@@@@QBEPAVHttpRequestWriter@Http@@XZ 00438120 f i foundation_win32.release:httpclient.obj
 0001:00037160       ??0?$Ptr@VHttpResponseReader@Http@@@@QAE@PAVHttpResponseReader@Http@@@Z 00438160 f i foundation_win32.release:httpclient.obj
 0001:000371a0       ??1?$Ptr@VHttpResponseReader@Http@@@@QAE@XZ 004381a0 f i foundation_win32.release:httpclient.obj
 0001:000371d0       ??C?$Ptr@VHttpResponseReader@Http@@@@QBEPAVHttpResponseReader@Http@@XZ 004381d0 f i foundation_win32.release:httpclient.obj
 0001:00037210       ??2TcpClient@Net@@SAPAXI@Z 00438210 f i foundation_win32.release:tcpclient.obj
 0001:00037220       ??3TcpClient@Net@@SAXPAX@Z 00438220 f i foundation_win32.release:tcpclient.obj
 0001:00037240       ?GetRtti@TcpClient@Net@@UBEPAVRtti@Core@@XZ 00438240 f   foundation_win32.release:tcpclient.obj
 0001:00037250       ?FactoryCreator@TcpClient@Net@@SAPAVRefCounted@Core@@XZ 00438250 f   foundation_win32.release:tcpclient.obj
 0001:00037260       ?Create@TcpClient@Net@@SAPAV12@XZ 00438260 f   foundation_win32.release:tcpclient.obj
 0001:000372a0       ??0TcpClient@Net@@QAE@XZ   004382a0 f i foundation_win32.release:tcpclient.obj
 0001:000372c0       ??_GTcpClient@Net@@UAEPAXI@Z 004382c0 f i foundation_win32.release:tcpclient.obj
 0001:000372c0       ??_ETcpClient@Net@@UAEPAXI@Z 004382c0 f i  CIL library: CIL module
 0001:000372f0       ??1TcpClient@Net@@UAE@XZ   004382f0 f i foundation_win32.release:tcpclient.obj
 0001:00037310       ?RegisterWithFactory@TcpClient@Net@@SA_NXZ 00438310 f   foundation_win32.release:tcpclient.obj
 0001:00037410       ?SetReUseAddr@Win360Socket@Win360@@QAEX_N@Z 00438410 f i foundation_win32.release:stdtcpclient.obj
 0001:00037430       ?SetNoDelay@Win360Socket@Win360@@QAEX_N@Z 00438430 f i foundation_win32.release:stdtcpclient.obj
 0001:00037450       ?GetMaxMsgSize@Win360Socket@Win360@@QAEHXZ 00438450 f i foundation_win32.release:stdtcpclient.obj
 0001:00037460       ??2StdTcpClient@Net@@SAPAXI@Z 00438460 f i foundation_win32.release:stdtcpclient.obj
 0001:00037470       ??3StdTcpClient@Net@@SAXPAX@Z 00438470 f i foundation_win32.release:stdtcpclient.obj
 0001:00037490       ?GetRtti@StdTcpClient@Net@@UBEPAVRtti@Core@@XZ 00438490 f   foundation_win32.release:stdtcpclient.obj
 0001:000374a0       ?FactoryCreator@StdTcpClient@Net@@SAPAVRefCounted@Core@@XZ 004384a0 f   foundation_win32.release:stdtcpclient.obj
 0001:000374b0       ?Create@StdTcpClient@Net@@SAPAV12@XZ 004384b0 f   foundation_win32.release:stdtcpclient.obj
 0001:000374f0       ?RegisterWithFactory@StdTcpClient@Net@@SA_NXZ 004384f0 f   foundation_win32.release:stdtcpclient.obj
 0001:000375f0       ??0StdTcpClient@Net@@QAE@XZ 004385f0 f   foundation_win32.release:stdtcpclient.obj
 0001:00037680       ??_GStdTcpClient@Net@@UAEPAXI@Z 00438680 f i foundation_win32.release:stdtcpclient.obj
 0001:00037680       ??_EStdTcpClient@Net@@UAEPAXI@Z 00438680 f i  CIL library: CIL module
 0001:000376b0       ??1StdTcpClient@Net@@UAE@XZ 004386b0 f   foundation_win32.release:stdtcpclient.obj
 0001:00037730       ?Connect@StdTcpClient@Net@@QAE?AW4Result@12@XZ 00438730 f   foundation_win32.release:stdtcpclient.obj
 0001:00037940       ?IsConnected@StdTcpClient@Net@@QAE_NXZ 00438940 f   foundation_win32.release:stdtcpclient.obj
 0001:00037990       ?Disconnect@StdTcpClient@Net@@QAEXXZ 00438990 f   foundation_win32.release:stdtcpclient.obj
 0001:00037a00       ?Send@StdTcpClient@Net@@QAE_NXZ 00438a00 f   foundation_win32.release:stdtcpclient.obj
 0001:00037cb0       ?Recv@StdTcpClient@Net@@QAE_NXZ 00438cb0 f   foundation_win32.release:stdtcpclient.obj
 0001:00037e80       ?GetSendStream@StdTcpClient@Net@@QAEABV?$Ptr@VStream@IO@@@@XZ 00438e80 f   foundation_win32.release:stdtcpclient.obj
 0001:00037ea0       ?GetRecvStream@StdTcpClient@Net@@QAEABV?$Ptr@VStream@IO@@@@XZ 00438ea0 f   foundation_win32.release:stdtcpclient.obj
 0001:00037ec0       ??0?$Ptr@VSocket@Net@@@@QAE@XZ 00438ec0 f i foundation_win32.release:stdtcpclient.obj
 0001:00037ee0       ??1?$Ptr@VSocket@Net@@@@QAE@XZ 00438ee0 f i foundation_win32.release:stdtcpclient.obj
 0001:00037f10       ??0?$Ptr@VStream@IO@@@@QAE@XZ 00438f10 f i foundation_win32.release:stdtcpclient.obj
 0001:00037f30       ??4?$Ptr@VStream@IO@@@@QAEXPAVStream@IO@@@Z 00438f30 f i foundation_win32.release:stdtcpclient.obj
 0001:00037f90       ?isvalid@?$Ptr@VStream@IO@@@@QBE_NXZ 00438f90 f i foundation_win32.release:stdtcpclient.obj
 0001:00037fb0       ?IsValid@URI@IO@@QBE_NXZ   00438fb0 f i foundation_win32.release:httprequestwriter.obj
 0001:00037fd0       ?IsOpen@StreamWriter@IO@@QBE_NXZ 00438fd0 f i foundation_win32.release:httprequestwriter.obj
 0001:00037ff0       ?ToString@HttpMethod@Http@@SA?AVString@Util@@W4Code@12@@Z 00438ff0 f i foundation_win32.release:httprequestwriter.obj
 0001:00038230       ??2HttpRequestWriter@Http@@SAPAXI@Z 00439230 f i foundation_win32.release:httprequestwriter.obj
 0001:00038240       ??3HttpRequestWriter@Http@@SAXPAX@Z 00439240 f i foundation_win32.release:httprequestwriter.obj
 0001:00038260       ?GetRtti@HttpRequestWriter@Http@@UBEPAVRtti@Core@@XZ 00439260 f   foundation_win32.release:httprequestwriter.obj
 0001:00038270       ?FactoryCreator@HttpRequestWriter@Http@@SAPAVRefCounted@Core@@XZ 00439270 f   foundation_win32.release:httprequestwriter.obj
 0001:00038280       ?Create@HttpRequestWriter@Http@@SAPAV12@XZ 00439280 f   foundation_win32.release:httprequestwriter.obj
 0001:000382c0       ?RegisterWithFactory@HttpRequestWriter@Http@@SA_NXZ 004392c0 f   foundation_win32.release:httprequestwriter.obj
 0001:000383c0       ??0HttpRequestWriter@Http@@QAE@XZ 004393c0 f   foundation_win32.release:httprequestwriter.obj
 0001:00038440       ??_EHttpRequestWriter@Http@@UAEPAXI@Z 00439440 f i  CIL library: CIL module
 0001:00038440       ??_GHttpRequestWriter@Http@@UAEPAXI@Z 00439440 f i foundation_win32.release:httprequestwriter.obj
 0001:00038470       ??1HttpRequestWriter@Http@@UAE@XZ 00439470 f i foundation_win32.release:httprequestwriter.obj
 0001:000384e0       ?WriteRequestHeader@HttpRequestWriter@Http@@QAE_NXZ 004394e0 f   foundation_win32.release:httprequestwriter.obj
 0001:000388c0       ??0?$Ptr@VTextWriter@IO@@@@QAE@PAVTextWriter@IO@@@Z 004398c0 f i foundation_win32.release:httprequestwriter.obj
 0001:00038900       ??1?$Ptr@VTextWriter@IO@@@@QAE@XZ 00439900 f i foundation_win32.release:httprequestwriter.obj
 0001:00038930       ??C?$Ptr@VTextWriter@IO@@@@QBEPAVTextWriter@IO@@XZ 00439930 f i foundation_win32.release:httprequestwriter.obj
 0001:00038970       ??2StreamWriter@IO@@SAPAXI@Z 00439970 f i foundation_win32.release:streamwriter.obj
 0001:00038980       ??3StreamWriter@IO@@SAXPAX@Z 00439980 f i foundation_win32.release:streamwriter.obj
 0001:000389a0       ?GetRtti@StreamWriter@IO@@UBEPAVRtti@Core@@XZ 004399a0 f   foundation_win32.release:streamwriter.obj
 0001:000389b0       ?FactoryCreator@StreamWriter@IO@@SAPAVRefCounted@Core@@XZ 004399b0 f   foundation_win32.release:streamwriter.obj
 0001:000389c0       ?Create@StreamWriter@IO@@SAPAV12@XZ 004399c0 f   foundation_win32.release:streamwriter.obj
 0001:00038a00       ?RegisterWithFactory@StreamWriter@IO@@SA_NXZ 00439a00 f   foundation_win32.release:streamwriter.obj
 0001:00038b00       ??0StreamWriter@IO@@QAE@XZ 00439b00 f   foundation_win32.release:streamwriter.obj
 0001:00038b50       ??_GStreamWriter@IO@@UAEPAXI@Z 00439b50 f i foundation_win32.release:streamwriter.obj
 0001:00038b50       ??_EStreamWriter@IO@@UAEPAXI@Z 00439b50 f i  CIL library: CIL module
 0001:00038b80       ??1StreamWriter@IO@@UAE@XZ 00439b80 f   foundation_win32.release:streamwriter.obj
 0001:00038bd0       ?SetStream@StreamWriter@IO@@QAEXABV?$Ptr@VStream@IO@@@@@Z 00439bd0 f   foundation_win32.release:streamwriter.obj
 0001:00038bf0       ?GetStream@StreamWriter@IO@@QBEABV?$Ptr@VStream@IO@@@@XZ 00439bf0 f   foundation_win32.release:streamwriter.obj
 0001:00038c10       ?HasStream@StreamWriter@IO@@QBE_NXZ 00439c10 f   foundation_win32.release:streamwriter.obj
 0001:00038c30       ?Open@StreamWriter@IO@@UAE_NXZ 00439c30 f   foundation_win32.release:streamwriter.obj
 0001:00038d80       ?Close@StreamWriter@IO@@UAEXXZ 00439d80 f   foundation_win32.release:streamwriter.obj
 0001:00038e00       ??4?$Ptr@VStream@IO@@@@QAEXABV0@@Z 00439e00 f i foundation_win32.release:streamwriter.obj
 0001:00038e60       ?Set@MediaType@IO@@QAEXABVString@Util@@@Z 00439e60 f i foundation_win32.release:httpresponsereader.obj
 0001:00038fb0       ?Clear@MediaType@IO@@QAEXXZ 00439fb0 f i foundation_win32.release:httpresponsereader.obj
 0001:00039040       ??2HttpResponseReader@Http@@SAPAXI@Z 0043a040 f i foundation_win32.release:httpresponsereader.obj
 0001:00039050       ??3HttpResponseReader@Http@@SAXPAX@Z 0043a050 f i foundation_win32.release:httpresponsereader.obj
 0001:00039070       ?GetRtti@HttpResponseReader@Http@@UBEPAVRtti@Core@@XZ 0043a070 f   foundation_win32.release:httpresponsereader.obj
 0001:00039080       ?FactoryCreator@HttpResponseReader@Http@@SAPAVRefCounted@Core@@XZ 0043a080 f   foundation_win32.release:httpresponsereader.obj
 0001:00039090       ?Create@HttpResponseReader@Http@@SAPAV12@XZ 0043a090 f   foundation_win32.release:httpresponsereader.obj
 0001:000390d0       ?RegisterWithFactory@HttpResponseReader@Http@@SA_NXZ 0043a0d0 f   foundation_win32.release:httpresponsereader.obj
 0001:000391d0       ??0HttpResponseReader@Http@@QAE@XZ 0043a1d0 f   foundation_win32.release:httpresponsereader.obj
 0001:00039220       ??_EHttpResponseReader@Http@@UAEPAXI@Z 0043a220 f i  CIL library: CIL module
 0001:00039220       ??_GHttpResponseReader@Http@@UAEPAXI@Z 0043a220 f i foundation_win32.release:httpresponsereader.obj
 0001:00039260       ??1HttpResponseReader@Http@@UAE@XZ 0043a260 f i foundation_win32.release:httpresponsereader.obj
 0001:00039280       ?ReadResponse@HttpResponseReader@Http@@QAE_NXZ 0043a280 f   foundation_win32.release:httpresponsereader.obj
 0001:00039920       ??0?$Ptr@VTextReader@IO@@@@QAE@PAVTextReader@IO@@@Z 0043a920 f i foundation_win32.release:httpresponsereader.obj
 0001:00039960       ??1?$Ptr@VTextReader@IO@@@@QAE@XZ 0043a960 f i foundation_win32.release:httpresponsereader.obj
 0001:00039990       ??C?$Ptr@VTextReader@IO@@@@QBEPAVTextReader@IO@@XZ 0043a990 f i foundation_win32.release:httpresponsereader.obj
 0001:000399d0       ??2StreamReader@IO@@SAPAXI@Z 0043a9d0 f i foundation_win32.release:streamreader.obj
 0001:000399e0       ??3StreamReader@IO@@SAXPAX@Z 0043a9e0 f i foundation_win32.release:streamreader.obj
 0001:00039a00       ?IsOpen@StreamReader@IO@@QBE_NXZ 0043aa00 f i foundation_win32.release:streamreader.obj
 0001:00039a20       ?GetRtti@StreamReader@IO@@UBEPAVRtti@Core@@XZ 0043aa20 f   foundation_win32.release:streamreader.obj
 0001:00039a30       ?FactoryCreator@StreamReader@IO@@SAPAVRefCounted@Core@@XZ 0043aa30 f   foundation_win32.release:streamreader.obj
 0001:00039a40       ?Create@StreamReader@IO@@SAPAV12@XZ 0043aa40 f   foundation_win32.release:streamreader.obj
 0001:00039a80       ?RegisterWithFactory@StreamReader@IO@@SA_NXZ 0043aa80 f   foundation_win32.release:streamreader.obj
 0001:00039b80       ??0StreamReader@IO@@QAE@XZ 0043ab80 f   foundation_win32.release:streamreader.obj
 0001:00039bd0       ??_GStreamReader@IO@@UAEPAXI@Z 0043abd0 f i foundation_win32.release:streamreader.obj
 0001:00039bd0       ??_EStreamReader@IO@@UAEPAXI@Z 0043abd0 f i  CIL library: CIL module
 0001:00039c00       ??1StreamReader@IO@@UAE@XZ 0043ac00 f   foundation_win32.release:streamreader.obj
 0001:00039c50       ?SetStream@StreamReader@IO@@QAEXABV?$Ptr@VStream@IO@@@@@Z 0043ac50 f   foundation_win32.release:streamreader.obj
 0001:00039c70       ?GetStream@StreamReader@IO@@QBEABV?$Ptr@VStream@IO@@@@XZ 0043ac70 f   foundation_win32.release:streamreader.obj
 0001:00039c90       ?HasStream@StreamReader@IO@@QBE_NXZ 0043ac90 f   foundation_win32.release:streamreader.obj
 0001:00039cb0       ?Eof@StreamReader@IO@@QBE_NXZ 0043acb0 f   foundation_win32.release:streamreader.obj
 0001:00039d00       ?Open@StreamReader@IO@@UAE_NXZ 0043ad00 f   foundation_win32.release:streamreader.obj
 0001:00039e40       ?Close@StreamReader@IO@@UAEXXZ 0043ae40 f   foundation_win32.release:streamreader.obj
 0001:00039ec0       ??2TextWriter@IO@@SAPAXI@Z 0043aec0 f i foundation_win32.release:textwriter.obj
 0001:00039ed0       ??3TextWriter@IO@@SAXPAX@Z 0043aed0 f i foundation_win32.release:textwriter.obj
 0001:00039ef0       ?GetRtti@TextWriter@IO@@UBEPAVRtti@Core@@XZ 0043aef0 f   foundation_win32.release:textwriter.obj
 0001:00039f00       ?FactoryCreator@TextWriter@IO@@SAPAVRefCounted@Core@@XZ 0043af00 f   foundation_win32.release:textwriter.obj
 0001:00039f10       ?Create@TextWriter@IO@@SAPAV12@XZ 0043af10 f   foundation_win32.release:textwriter.obj
 0001:00039f50       ?RegisterWithFactory@TextWriter@IO@@SA_NXZ 0043af50 f   foundation_win32.release:textwriter.obj
 0001:0003a050       ??0TextWriter@IO@@QAE@XZ   0043b050 f   foundation_win32.release:textwriter.obj
 0001:0003a070       ??_GTextWriter@IO@@UAEPAXI@Z 0043b070 f i foundation_win32.release:textwriter.obj
 0001:0003a070       ??_ETextWriter@IO@@UAEPAXI@Z 0043b070 f i  CIL library: CIL module
 0001:0003a0a0       ??1TextWriter@IO@@UAE@XZ   0043b0a0 f   foundation_win32.release:textwriter.obj
 0001:0003a0e0       ?WriteChar@TextWriter@IO@@QAEXE@Z 0043b0e0 f   foundation_win32.release:textwriter.obj
 0001:0003a110       ?WriteString@TextWriter@IO@@QAEXABVString@Util@@@Z 0043b110 f   foundation_win32.release:textwriter.obj
 0001:0003a170       ?WriteFormatted@TextWriter@IO@@QAAXPBDZZ 0043b170 f   foundation_win32.release:textwriter.obj
 0001:0003a200       ?WriteLine@TextWriter@IO@@QAEXABVString@Util@@@Z 0043b200 f   foundation_win32.release:textwriter.obj
 0001:0003a230       ?WriteLines@TextWriter@IO@@QAEXABV?$Array@VString@Util@@@Util@@@Z 0043b230 f   foundation_win32.release:textwriter.obj
 0001:0003a280       ??2TextReader@IO@@SAPAXI@Z 0043b280 f i foundation_win32.release:textreader.obj
 0001:0003a290       ??3TextReader@IO@@SAXPAX@Z 0043b290 f i foundation_win32.release:textreader.obj
 0001:0003a2b0       ?GetRtti@TextReader@IO@@UBEPAVRtti@Core@@XZ 0043b2b0 f   foundation_win32.release:textreader.obj
 0001:0003a2c0       ?FactoryCreator@TextReader@IO@@SAPAVRefCounted@Core@@XZ 0043b2c0 f   foundation_win32.release:textreader.obj
 0001:0003a2d0       ?Create@TextReader@IO@@SAPAV12@XZ 0043b2d0 f   foundation_win32.release:textreader.obj
 0001:0003a310       ?RegisterWithFactory@TextReader@IO@@SA_NXZ 0043b310 f   foundation_win32.release:textreader.obj
 0001:0003a410       ??0TextReader@IO@@QAE@XZ   0043b410 f   foundation_win32.release:textreader.obj
 0001:0003a430       ??_ETextReader@IO@@UAEPAXI@Z 0043b430 f i  CIL library: CIL module
 0001:0003a430       ??_GTextReader@IO@@UAEPAXI@Z 0043b430 f i foundation_win32.release:textreader.obj
 0001:0003a460       ??1TextReader@IO@@UAE@XZ   0043b460 f   foundation_win32.release:textreader.obj
 0001:0003a4a0       ?ReadChar@TextReader@IO@@QAEEXZ 0043b4a0 f   foundation_win32.release:textreader.obj
 0001:0003a4e0       ?ReadLine@TextReader@IO@@QAE?AVString@Util@@XZ 0043b4e0 f   foundation_win32.release:textreader.obj
 0001:0003a600       ?ReadAll@TextReader@IO@@QAE?AVString@Util@@XZ 0043b600 f   foundation_win32.release:textreader.obj
 0001:0003a700       ?ReadAllLines@TextReader@IO@@QAE?AV?$Array@VString@Util@@@Util@@XZ 0043b700 f   foundation_win32.release:textreader.obj
 0001:0003a7a0       ?FromString@HttpStatus@Http@@SA?AW4Code@12@ABVString@Util@@@Z 0043b7a0 f   foundation_win32.release:httpstatus.obj
 0001:0003a900       ?ToString@HttpStatus@Http@@SA?AVString@Util@@W4Code@12@@Z 0043b900 f   foundation_win32.release:httpstatus.obj
 0001:0003ab90       ?ToHumanReadableString@HttpStatus@Http@@SA?AVString@Util@@W4Code@12@@Z 0043bb90 f   foundation_win32.release:httpstatus.obj
 0001:0003ae20       ??2Resource@Resources@@SAPAXI@Z 0043be20 f i render_win32.release:resource.obj
 0001:0003ae30       ??3Resource@Resources@@SAXPAX@Z 0043be30 f i render_win32.release:resource.obj
 0001:0003ae50       ?SetState@Resource@Resources@@QAEXW4State@12@@Z 0043be50 f i render_win32.release:resource.obj
 0001:0003ae70       ?IsLoaded@Resource@Resources@@QBE_NXZ 0043be70 f i render_win32.release:resource.obj
 0001:0003ae90       ?IsPending@Resource@Resources@@QBE_NXZ 0043be90 f i render_win32.release:resource.obj
 0001:0003aeb0       ?GetState@ResourceLoader@Resources@@QBE?AW4State@Resource@2@XZ 0043beb0 f i render_win32.release:resource.obj
 0001:0003aed0       ?GetRtti@Resource@Resources@@UBEPAVRtti@Core@@XZ 0043bed0 f   render_win32.release:resource.obj
 0001:0003aee0       ?FactoryCreator@Resource@Resources@@SAPAVRefCounted@Core@@XZ 0043bee0 f   render_win32.release:resource.obj
 0001:0003aef0       ?Create@Resource@Resources@@SAPAV12@XZ 0043bef0 f   render_win32.release:resource.obj
 0001:0003af30       ?RegisterWithFactory@Resource@Resources@@SA_NXZ 0043bf30 f   render_win32.release:resource.obj
 0001:0003b030       ??0Resource@Resources@@QAE@XZ 0043c030 f   render_win32.release:resource.obj
 0001:0003b0b0       ??_GResource@Resources@@UAEPAXI@Z 0043c0b0 f i render_win32.release:resource.obj
 0001:0003b0b0       ??_EResource@Resources@@UAEPAXI@Z 0043c0b0 f i  CIL library: CIL module
 0001:0003b0e0       ??1Resource@Resources@@UAE@XZ 0043c0e0 f   render_win32.release:resource.obj
 0001:0003b1b0       ?Load@Resource@Resources@@UAE?AW4State@12@XZ 0043c1b0 f   render_win32.release:resource.obj
 0001:0003b2a0       ?Unload@Resource@Resources@@UAEXXZ 0043c2a0 f   render_win32.release:resource.obj
 0001:0003b2f0       ?Save@Resource@Resources@@UAE_NXZ 0043c2f0 f   render_win32.release:resource.obj
 0001:0003b370       ?SetLoader@Resource@Resources@@QAEXABV?$Ptr@VResourceLoader@Resources@@@@@Z 0043c370 f   render_win32.release:resource.obj
 0001:0003b410       ?GetLoader@Resource@Resources@@QBEABV?$Ptr@VResourceLoader@Resources@@@@XZ 0043c410 f   render_win32.release:resource.obj
 0001:0003b430       ?SetSaver@Resource@Resources@@QAEXABV?$Ptr@VResourceSaver@Resources@@@@@Z 0043c430 f   render_win32.release:resource.obj
 0001:0003b4d0       ?GetSaver@Resource@Resources@@QBEABV?$Ptr@VResourceSaver@Resources@@@@XZ 0043c4d0 f   render_win32.release:resource.obj
 0001:0003b4f0       ??0?$Ptr@VResourceLoader@Resources@@@@QAE@XZ 0043c4f0 f i render_win32.release:resource.obj
 0001:0003b510       ??1?$Ptr@VResourceLoader@Resources@@@@QAE@XZ 0043c510 f i render_win32.release:resource.obj
 0001:0003b540       ??4?$Ptr@VResourceLoader@Resources@@@@QAEXPAVResourceLoader@Resources@@@Z 0043c540 f i render_win32.release:resource.obj
 0001:0003b5a0       ??4?$Ptr@VResourceLoader@Resources@@@@QAEXABV0@@Z 0043c5a0 f i render_win32.release:resource.obj
 0001:0003b600       ??C?$Ptr@VResourceLoader@Resources@@@@QBEPAVResourceLoader@Resources@@XZ 0043c600 f i render_win32.release:resource.obj
 0001:0003b640       ?isvalid@?$Ptr@VResourceLoader@Resources@@@@QBE_NXZ 0043c640 f i render_win32.release:resource.obj
 0001:0003b660       ??0?$Ptr@VResourceSaver@Resources@@@@QAE@XZ 0043c660 f i render_win32.release:resource.obj
 0001:0003b680       ??1?$Ptr@VResourceSaver@Resources@@@@QAE@XZ 0043c680 f i render_win32.release:resource.obj
 0001:0003b6b0       ??4?$Ptr@VResourceSaver@Resources@@@@QAEXPAVResourceSaver@Resources@@@Z 0043c6b0 f i render_win32.release:resource.obj
 0001:0003b710       ??4?$Ptr@VResourceSaver@Resources@@@@QAEXABV0@@Z 0043c710 f i render_win32.release:resource.obj
 0001:0003b770       ??C?$Ptr@VResourceSaver@Resources@@@@QBEPAVResourceSaver@Resources@@XZ 0043c770 f i render_win32.release:resource.obj
 0001:0003b7b0       ?isvalid@?$Ptr@VResourceSaver@Resources@@@@QBE_NXZ 0043c7b0 f i render_win32.release:resource.obj
 0001:0003b7d0       ??0?$Ptr@VResource@Resources@@@@QAE@PAVResource@Resources@@@Z 0043c7d0 f i render_win32.release:resource.obj
 0001:0003b810       ??1?$Ptr@VResource@Resources@@@@QAE@XZ 0043c810 f i render_win32.release:resource.obj
 0001:0003b840       ??2ResourceLoader@Resources@@SAPAXI@Z 0043c840 f i render_win32.release:resourceloader.obj
 0001:0003b850       ??3ResourceLoader@Resources@@SAXPAX@Z 0043c850 f i render_win32.release:resourceloader.obj
 0001:0003b870       ?SetState@ResourceLoader@Resources@@IAEXW4State@Resource@2@@Z 0043c870 f i render_win32.release:resourceloader.obj
 0001:0003b890       ?GetRtti@ResourceLoader@Resources@@UBEPAVRtti@Core@@XZ 0043c890 f   render_win32.release:resourceloader.obj
 0001:0003b8a0       ?FactoryCreator@ResourceLoader@Resources@@SAPAVRefCounted@Core@@XZ 0043c8a0 f   render_win32.release:resourceloader.obj
 0001:0003b8b0       ?Create@ResourceLoader@Resources@@SAPAV12@XZ 0043c8b0 f   render_win32.release:resourceloader.obj
 0001:0003b8f0       ?RegisterWithFactory@ResourceLoader@Resources@@SA_NXZ 0043c8f0 f   render_win32.release:resourceloader.obj
 0001:0003b9f0       ??0ResourceLoader@Resources@@QAE@XZ 0043c9f0 f   render_win32.release:resourceloader.obj
 0001:0003ba30       ??_GResourceLoader@Resources@@UAEPAXI@Z 0043ca30 f i render_win32.release:resourceloader.obj
 0001:0003ba30       ??_EResourceLoader@Resources@@UAEPAXI@Z 0043ca30 f i  CIL library: CIL module
 0001:0003ba60       ??1ResourceLoader@Resources@@UAE@XZ 0043ca60 f   render_win32.release:resourceloader.obj
 0001:0003bab0       ?OnAttachToResource@ResourceLoader@Resources@@UAEXABV?$Ptr@VResource@Resources@@@@@Z 0043cab0 f   render_win32.release:resourceloader.obj
 0001:0003baf0       ?OnRemoveFromResource@ResourceLoader@Resources@@UAEXXZ 0043caf0 f   render_win32.release:resourceloader.obj
 0001:0003bb50       ?IsAttachedToResource@ResourceLoader@Resources@@QBE_NXZ 0043cb50 f   render_win32.release:resourceloader.obj
 0001:0003bb70       ?GetResource@ResourceLoader@Resources@@QBEABV?$Ptr@VResource@Resources@@@@XZ 0043cb70 f   render_win32.release:resourceloader.obj
 0001:0003bb90       ?CanLoadAsync@ResourceLoader@Resources@@UBE_NXZ 0043cb90 f   render_win32.release:resourceloader.obj
 0001:0003bba0       ?OnLoadRequested@ResourceLoader@Resources@@UAE_NXZ 0043cba0 f   render_win32.release:resourceloader.obj
 0001:0003bbb0       ?OnLoadCancelled@ResourceLoader@Resources@@UAEXXZ 0043cbb0 f   render_win32.release:resourceloader.obj
 0001:0003bbd0       ?OnPending@ResourceLoader@Resources@@UAE_NXZ 0043cbd0 f   render_win32.release:resourceloader.obj
 0001:0003bbe0       ?Reset@ResourceLoader@Resources@@UAEXXZ 0043cbe0 f   render_win32.release:resourceloader.obj
 0001:0003bc10       ??0?$Ptr@VResource@Resources@@@@QAE@XZ 0043cc10 f i render_win32.release:resourceloader.obj
 0001:0003bc30       ??4?$Ptr@VResource@Resources@@@@QAEXPAVResource@Resources@@@Z 0043cc30 f i render_win32.release:resourceloader.obj
 0001:0003bc90       ??4?$Ptr@VResource@Resources@@@@QAEXABV0@@Z 0043cc90 f i render_win32.release:resourceloader.obj
 0001:0003bcf0       ?isvalid@?$Ptr@VResource@Resources@@@@QBE_NXZ 0043ccf0 f i render_win32.release:resourceloader.obj
 0001:0003bd10       ??2Texture@CoreGraphics@@SAPAXI@Z 0043cd10 f i render_win32.release:texture.obj
 0001:0003bd20       ??3Texture@CoreGraphics@@SAXPAX@Z 0043cd20 f i render_win32.release:texture.obj
 0001:0003bd40       ?GetRtti@Texture@CoreGraphics@@UBEPAVRtti@Core@@XZ 0043cd40 f   render_win32.release:texture.obj
 0001:0003bd50       ?FactoryCreator@Texture@CoreGraphics@@SAPAVRefCounted@Core@@XZ 0043cd50 f   render_win32.release:texture.obj
 0001:0003bd60       ?Create@Texture@CoreGraphics@@SAPAV12@XZ 0043cd60 f   render_win32.release:texture.obj
 0001:0003bda0       ??0Texture@CoreGraphics@@QAE@XZ 0043cda0 f i render_win32.release:texture.obj
 0001:0003bdc0       ??_GTexture@CoreGraphics@@UAEPAXI@Z 0043cdc0 f i render_win32.release:texture.obj
 0001:0003bdc0       ??_ETexture@CoreGraphics@@UAEPAXI@Z 0043cdc0 f i  CIL library: CIL module
 0001:0003bdf0       ??1Texture@CoreGraphics@@UAE@XZ 0043cdf0 f i render_win32.release:texture.obj
 0001:0003be10       ?RegisterWithFactory@Texture@CoreGraphics@@SA_NXZ 0043ce10 f   render_win32.release:texture.obj
 0001:0003bf10       ?n_max@Math@@YAMMM@Z       0043cf10 f i render_win32.release:managedresource.obj
 0001:0003bf40       ??0float2@Math@@QAE@XZ     0043cf40 f i render_win32.release:managedresource.obj
 0001:0003bf50       ?maximize@float2@Math@@SA?AV12@ABV12@0@Z 0043cf50 f i render_win32.release:managedresource.obj
 0001:0003bfd0       ??2ManagedResource@Resources@@SAPAXI@Z 0043cfd0 f i render_win32.release:managedresource.obj
 0001:0003bfe0       ??3ManagedResource@Resources@@SAXPAX@Z 0043cfe0 f i render_win32.release:managedresource.obj
 0001:0003c000       ?GetRtti@ManagedResource@Resources@@UBEPAVRtti@Core@@XZ 0043d000 f   render_win32.release:managedresource.obj
 0001:0003c010       ?FactoryCreator@ManagedResource@Resources@@SAPAVRefCounted@Core@@XZ 0043d010 f   render_win32.release:managedresource.obj
 0001:0003c020       ?Create@ManagedResource@Resources@@SAPAV12@XZ 0043d020 f   render_win32.release:managedresource.obj
 0001:0003c060       ?RegisterWithFactory@ManagedResource@Resources@@SA_NXZ 0043d060 f   render_win32.release:managedresource.obj
 0001:0003c160       ??0ManagedResource@Resources@@QAE@XZ 0043d160 f   render_win32.release:managedresource.obj
 0001:0003c1f0       ??_GManagedResource@Resources@@UAEPAXI@Z 0043d1f0 f i render_win32.release:managedresource.obj
 0001:0003c1f0       ??_EManagedResource@Resources@@UAEPAXI@Z 0043d1f0 f i  CIL library: CIL module
 0001:0003c220       ??1ManagedResource@Resources@@UAE@XZ 0043d220 f   render_win32.release:managedresource.obj
 0001:0003c260       ?ClearRenderStats@ManagedResource@Resources@@QAEXXZ 0043d260 f   render_win32.release:managedresource.obj
 0001:0003c2a0       ?UpdateRenderStats@ManagedResource@Resources@@QAEXM@Z 0043d2a0 f   render_win32.release:managedresource.obj
 0001:0003c2e0       ?UpdateRenderStats@ManagedResource@Resources@@QAEXABVfloat2@Math@@@Z 0043d2e0 f   render_win32.release:managedresource.obj
 0001:0003c390       ?GetKeySliceFirstKeyIndex@AnimClip@CoreAnimation@@QBEHXZ 0043d390 f i render_win32.release:animresource.obj
 0001:0003c3b0       ?GetKeySliceByteSize@AnimClip@CoreAnimation@@QBEHXZ 0043d3b0 f i render_win32.release:animresource.obj
 0001:0003c3d0       ?AreKeySliceValuesValid@AnimClip@CoreAnimation@@QBE_NXZ 0043d3d0 f i render_win32.release:animresource.obj
 0001:0003c3f0       ?GetName@AnimClip@CoreAnimation@@QBEABVStringAtom@Util@@XZ 0043d3f0 f i render_win32.release:animresource.obj
 0001:0003c400       ?GetKeyStride@AnimClip@CoreAnimation@@QBEHXZ 0043d400 f i render_win32.release:animresource.obj
 0001:0003c420       ?GetKeyBufferPointer@AnimKeyBuffer@CoreAnimation@@QBEPAVfloat4@Math@@XZ 0043d420 f i render_win32.release:animresource.obj
 0001:0003c440       ??2AnimResource@CoreAnimation@@SAPAXI@Z 0043d440 f i render_win32.release:animresource.obj
 0001:0003c450       ??3AnimResource@CoreAnimation@@SAXPAX@Z 0043d450 f i render_win32.release:animresource.obj
 0001:0003c470       ?GetRtti@AnimResource@CoreAnimation@@UBEPAVRtti@Core@@XZ 0043d470 f   render_win32.release:animresource.obj
 0001:0003c480       ?FactoryCreator@AnimResource@CoreAnimation@@SAPAVRefCounted@Core@@XZ 0043d480 f   render_win32.release:animresource.obj
 0001:0003c490       ?Create@AnimResource@CoreAnimation@@SAPAV12@XZ 0043d490 f   render_win32.release:animresource.obj
 0001:0003c4d0       ?RegisterWithFactory@AnimResource@CoreAnimation@@SA_NXZ 0043d4d0 f   render_win32.release:animresource.obj
 0001:0003c5d0       ??0AnimResource@CoreAnimation@@QAE@XZ 0043d5d0 f   render_win32.release:animresource.obj
 0001:0003c610       ??_GAnimResource@CoreAnimation@@UAEPAXI@Z 0043d610 f i render_win32.release:animresource.obj
 0001:0003c610       ??_EAnimResource@CoreAnimation@@UAEPAXI@Z 0043d610 f i  CIL library: CIL module
 0001:0003c640       ??1AnimResource@CoreAnimation@@UAE@XZ 0043d640 f   render_win32.release:animresource.obj
 0001:0003c6b0       ?Unload@AnimResource@CoreAnimation@@UAEXXZ 0043d6b0 f   render_win32.release:animresource.obj
 0001:0003c710       ?SetupKeyBuffer@AnimResource@CoreAnimation@@AAEABV?$Ptr@VAnimKeyBuffer@CoreAnimation@@@@H@Z 0043d710 f   render_win32.release:animresource.obj
 0001:0003c770       ?BeginSetupClips@AnimResource@CoreAnimation@@AAEXH@Z 0043d770 f   render_win32.release:animresource.obj
 0001:0003c7e0       ?Clip@AnimResource@CoreAnimation@@AAEAAVAnimClip@2@H@Z 0043d7e0 f   render_win32.release:animresource.obj
 0001:0003c800       ?EndSetupClips@AnimResource@CoreAnimation@@AAEXXZ 0043d800 f   render_win32.release:animresource.obj
 0001:0003c880       ?BuildClipIndexMap@AnimResource@CoreAnimation@@AAEXXZ 0043d880 f   render_win32.release:animresource.obj
 0001:0003c980       ?ComputeKeySlicePointerAndSize@AnimResource@CoreAnimation@@QBEPBVfloat4@Math@@HHAAH@Z 0043d980 f   render_win32.release:animresource.obj
 0001:0003ca40       ?Clear@?$Dictionary@VStringAtom@Util@@H@Util@@QAEXXZ 0043da40 f i render_win32.release:animresource.obj
 0001:0003ca80       ?IsEmpty@?$Dictionary@VStringAtom@Util@@H@Util@@QBE_NXZ 0043da80 f i render_win32.release:animresource.obj
 0001:0003caa0       ?Reserve@?$Dictionary@VStringAtom@Util@@H@Util@@QAEXH@Z 0043daa0 f i render_win32.release:animresource.obj
 0001:0003cac0       ?BeginBulkAdd@?$Dictionary@VStringAtom@Util@@H@Util@@QAEXXZ 0043dac0 f i render_win32.release:animresource.obj
 0001:0003cb00       ?EndBulkAdd@?$Dictionary@VStringAtom@Util@@H@Util@@QAEXXZ 0043db00 f i render_win32.release:animresource.obj
 0001:0003cb40       ??0?$FixedArray@VAnimClip@CoreAnimation@@@Util@@QAE@XZ 0043db40 f i render_win32.release:animresource.obj
 0001:0003cb70       ??1?$FixedArray@VAnimClip@CoreAnimation@@@Util@@QAE@XZ 0043db70 f i render_win32.release:animresource.obj
 0001:0003cb90       ??A?$FixedArray@VAnimClip@CoreAnimation@@@Util@@QBEAAVAnimClip@CoreAnimation@@H@Z 0043db90 f i render_win32.release:animresource.obj
 0001:0003cbe0       ?SetSize@?$FixedArray@VAnimClip@CoreAnimation@@@Util@@QAEXH@Z 0043dbe0 f i render_win32.release:animresource.obj
 0001:0003cc10       ?Size@?$FixedArray@VAnimClip@CoreAnimation@@@Util@@QBEHXZ 0043dc10 f i render_win32.release:animresource.obj
 0001:0003cc20       ?IsEmpty@?$FixedArray@VAnimClip@CoreAnimation@@@Util@@QBE_NXZ 0043dc20 f i render_win32.release:animresource.obj
 0001:0003cc40       ?Clear@?$FixedArray@VAnimClip@CoreAnimation@@@Util@@QAEXXZ 0043dc40 f i render_win32.release:animresource.obj
 0001:0003cc60       ??0?$Ptr@VAnimKeyBuffer@CoreAnimation@@@@QAE@XZ 0043dc60 f i render_win32.release:animresource.obj
 0001:0003cc80       ??1?$Ptr@VAnimKeyBuffer@CoreAnimation@@@@QAE@XZ 0043dc80 f i render_win32.release:animresource.obj
 0001:0003ccb0       ??4?$Ptr@VAnimKeyBuffer@CoreAnimation@@@@QAEXPAVAnimKeyBuffer@CoreAnimation@@@Z 0043dcb0 f i render_win32.release:animresource.obj
 0001:0003cd10       ??C?$Ptr@VAnimKeyBuffer@CoreAnimation@@@@QBEPAVAnimKeyBuffer@CoreAnimation@@XZ 0043dd10 f i render_win32.release:animresource.obj
 0001:0003cd50       ?isvalid@?$Ptr@VAnimKeyBuffer@CoreAnimation@@@@QBE_NXZ 0043dd50 f i render_win32.release:animresource.obj
 0001:0003cd70       ?Reserve@?$Array@V?$KeyValuePair@VStringAtom@Util@@H@Util@@@Util@@QAEXH@Z 0043dd70 f i render_win32.release:animresource.obj
 0001:0003cdc0       ?Clear@?$Array@V?$KeyValuePair@VStringAtom@Util@@H@Util@@@Util@@QAEXXZ 0043ddc0 f i render_win32.release:animresource.obj
 0001:0003ce10       ?Sort@?$Array@V?$KeyValuePair@VStringAtom@Util@@H@Util@@@Util@@QAEXXZ 0043de10 f i render_win32.release:animresource.obj
 0001:0003ce80       ?Delete@?$FixedArray@VAnimClip@CoreAnimation@@@Util@@AAEXXZ 0043de80 f i render_win32.release:animresource.obj
 0001:0003cee0       ?Alloc@?$FixedArray@VAnimClip@CoreAnimation@@@Util@@AAEXH@Z 0043dee0 f i render_win32.release:animresource.obj
 0001:0003cfb0       ??_EAnimClip@CoreAnimation@@QAEPAXI@Z 0043dfb0 f i render_win32.release:animresource.obj
 0001:0003d080       ??1AnimClip@CoreAnimation@@QAE@XZ 0043e080 f i render_win32.release:animresource.obj
 0001:0003d0b0       ?Begin@?$Array@V?$KeyValuePair@VStringAtom@Util@@H@Util@@@Util@@QBEPAV?$KeyValuePair@VStringAtom@Util@@H@2@XZ 0043e0b0 f i render_win32.release:animresource.obj
 0001:0003d0d0       ?End@?$Array@V?$KeyValuePair@VStringAtom@Util@@H@Util@@@Util@@QBEPAV?$KeyValuePair@VStringAtom@Util@@H@2@XZ 0043e0d0 f i render_win32.release:animresource.obj
 0001:0003d0f0       ??$sort@PAV?$KeyValuePair@VStringAtom@Util@@H@Util@@@std@@YAXPAV?$KeyValuePair@VStringAtom@Util@@H@Util@@0@Z 0043e0f0 f i render_win32.release:animresource.obj
 0001:0003d120       ??1?$FixedArray@VAnimCurve@CoreAnimation@@@Util@@QAE@XZ 0043e120 f i render_win32.release:animresource.obj
 0001:0003d140       ??1?$Array@VAnimEvent@CoreAnimation@@@Util@@QAE@XZ 0043e140 f i render_win32.release:animresource.obj
 0001:0003d160       ??$_Checked_base@PAV?$KeyValuePair@VStringAtom@Util@@H@Util@@@std@@YAPAV?$KeyValuePair@VStringAtom@Util@@H@Util@@AAPAV12@@Z 0043e160 f i render_win32.release:animresource.obj
 0001:0003d180       ??$_Sort@PAV?$KeyValuePair@VStringAtom@Util@@H@Util@@H@std@@YAXPAV?$KeyValuePair@VStringAtom@Util@@H@Util@@0H@Z 0043e180 f i render_win32.release:animresource.obj
 0001:0003d2b0       ?Delete@?$FixedArray@VAnimCurve@CoreAnimation@@@Util@@AAEXXZ 0043e2b0 f i render_win32.release:animresource.obj
 0001:0003d2f0       ?Delete@?$Array@VAnimEvent@CoreAnimation@@@Util@@AAEXXZ 0043e2f0 f i render_win32.release:animresource.obj
 0001:0003d350       ??$_Checked_base@PAV?$KeyValuePair@VStringAtom@Util@@H@Util@@@std@@YAPAV?$KeyValuePair@VStringAtom@Util@@H@Util@@AAPAV12@U_Unchanged_checked_iterator_base_type_tag@0@@Z 0043e350 f i render_win32.release:animresource.obj
 0001:0003d360       ??$_Unguarded_partition@PAV?$KeyValuePair@VStringAtom@Util@@H@Util@@@std@@YA?AU?$pair@PAV?$KeyValuePair@VStringAtom@Util@@H@Util@@PAV12@@0@PAV?$KeyValuePair@VStringAtom@Util@@H@Util@@0@Z 0043e360 f i render_win32.release:animresource.obj
 0001:0003d6f0       ??$make_heap@PAV?$KeyValuePair@VStringAtom@Util@@H@Util@@@std@@YAXPAV?$KeyValuePair@VStringAtom@Util@@H@Util@@0@Z 0043e6f0 f i render_win32.release:animresource.obj
 0001:0003d730       ??$sort_heap@PAV?$KeyValuePair@VStringAtom@Util@@H@Util@@@std@@YAXPAV?$KeyValuePair@VStringAtom@Util@@H@Util@@0@Z 0043e730 f i render_win32.release:animresource.obj
 0001:0003d750       ??$_Insertion_sort@PAV?$KeyValuePair@VStringAtom@Util@@H@Util@@@std@@YAXPAV?$KeyValuePair@VStringAtom@Util@@H@Util@@0@Z 0043e750 f i render_win32.release:animresource.obj
 0001:0003d770       ??0?$pair@PAV?$KeyValuePair@VStringAtom@Util@@H@Util@@PAV12@@std@@QAE@ABQAV?$KeyValuePair@VStringAtom@Util@@H@Util@@0@Z 0043e770 f i render_win32.release:animresource.obj
 0001:0003d7a0       ??$_Median@PAV?$KeyValuePair@VStringAtom@Util@@H@Util@@@std@@YAXPAV?$KeyValuePair@VStringAtom@Util@@H@Util@@00@Z 0043e7a0 f i render_win32.release:animresource.obj
 0001:0003d880       ??$iter_swap@PAV?$KeyValuePair@VStringAtom@Util@@H@Util@@PAV12@@std@@YAXPAV?$KeyValuePair@VStringAtom@Util@@H@Util@@0@Z 0043e880 f i render_win32.release:animresource.obj
 0001:0003d8c0       ??$_Dist_type@PAV?$KeyValuePair@VStringAtom@Util@@H@Util@@@std@@YAPAHPAV?$KeyValuePair@VStringAtom@Util@@H@Util@@@Z 0043e8c0 f i render_win32.release:animresource.obj
 0001:0003d8d0       ??$_Val_type@PAV?$KeyValuePair@VStringAtom@Util@@H@Util@@@std@@YAPAV?$KeyValuePair@VStringAtom@Util@@H@Util@@PAV12@@Z 0043e8d0 f i render_win32.release:animresource.obj
 0001:0003d8e0       ??$_Make_heap@PAV?$KeyValuePair@VStringAtom@Util@@H@Util@@HV12@@std@@YAXPAV?$KeyValuePair@VStringAtom@Util@@H@Util@@0PAH0@Z 0043e8e0 f i render_win32.release:animresource.obj
 0001:0003d940       ??$_Sort_heap@PAV?$KeyValuePair@VStringAtom@Util@@H@Util@@@std@@YAXPAV?$KeyValuePair@VStringAtom@Util@@H@Util@@0@Z 0043e940 f i render_win32.release:animresource.obj
 0001:0003d9a0       ??$_Insertion_sort1@PAV?$KeyValuePair@VStringAtom@Util@@H@Util@@V12@@std@@YAXPAV?$KeyValuePair@VStringAtom@Util@@H@Util@@00@Z 0043e9a0 f i render_win32.release:animresource.obj
 0001:0003da70       ??$_Med3@PAV?$KeyValuePair@VStringAtom@Util@@H@Util@@@std@@YAXPAV?$KeyValuePair@VStringAtom@Util@@H@Util@@00@Z 0043ea70 f i render_win32.release:animresource.obj
 0001:0003db40       ??$swap@V?$KeyValuePair@VStringAtom@Util@@H@Util@@@std@@YAXAAV?$KeyValuePair@VStringAtom@Util@@H@Util@@0@Z 0043eb40 f i render_win32.release:animresource.obj
 0001:0003db80       ??$_Adjust_heap@PAV?$KeyValuePair@VStringAtom@Util@@H@Util@@HV12@@std@@YAXPAV?$KeyValuePair@VStringAtom@Util@@H@Util@@HHV12@@Z 0043eb80 f i render_win32.release:animresource.obj
 0001:0003dc50       ??0?$KeyValuePair@VStringAtom@Util@@H@Util@@QAE@ABV01@@Z 0043ec50 f i render_win32.release:animresource.obj
 0001:0003dc80       ??$pop_heap@PAV?$KeyValuePair@VStringAtom@Util@@H@Util@@@std@@YAXPAV?$KeyValuePair@VStringAtom@Util@@H@Util@@0@Z 0043ec80 f i render_win32.release:animresource.obj
 0001:0003dcb0       ??$unchecked_copy_backward@PAV?$KeyValuePair@VStringAtom@Util@@H@Util@@PAV12@@stdext@@YAPAV?$KeyValuePair@VStringAtom@Util@@H@Util@@PAV12@00@Z 0043ecb0 f i render_win32.release:animresource.obj
 0001:0003dd50       ??$_Push_heap@PAV?$KeyValuePair@VStringAtom@Util@@H@Util@@HV12@@std@@YAXPAV?$KeyValuePair@VStringAtom@Util@@H@Util@@HHV12@@Z 0043ed50 f i render_win32.release:animresource.obj
 0001:0003ddd0       ??$_Pop_heap_0@PAV?$KeyValuePair@VStringAtom@Util@@H@Util@@V12@@std@@YAXPAV?$KeyValuePair@VStringAtom@Util@@H@Util@@00@Z 0043edd0 f i render_win32.release:animresource.obj
 0001:0003de30       ??$_Iter_random@PAV?$KeyValuePair@VStringAtom@Util@@H@Util@@PAV12@@std@@YA?AUrandom_access_iterator_tag@0@ABQAV?$KeyValuePair@VStringAtom@Util@@H@Util@@0@Z 0043ee30 f i render_win32.release:animresource.obj
 0001:0003de40       ??$_Ptr_cat@PAV?$KeyValuePair@VStringAtom@Util@@H@Util@@PAV12@@std@@YA?AU_Nonscalar_ptr_iterator_tag@0@AAPAV?$KeyValuePair@VStringAtom@Util@@H@Util@@0@Z 0043ee40 f i render_win32.release:animresource.obj
 0001:0003de50       ??$_Copy_backward_opt@PAV?$KeyValuePair@VStringAtom@Util@@H@Util@@PAV12@@std@@YAPAV?$KeyValuePair@VStringAtom@Util@@H@Util@@PAV12@00Urandom_access_iterator_tag@0@U_Nonscalar_ptr_iterator_tag@0@U_Range_checked_iterator_tag@0@@Z 0043ee50 f i render_win32.release:animresource.obj
 0001:0003dec0       ??$_Pop_heap@PAV?$KeyValuePair@VStringAtom@Util@@H@Util@@HV12@@std@@YAXPAV?$KeyValuePair@VStringAtom@Util@@H@Util@@00V12@PAH@Z 0043eec0 f i render_win32.release:animresource.obj
 0001:0003df00       ??$_Copy_backward_opt@PAV?$KeyValuePair@VStringAtom@Util@@H@Util@@PAV12@Uforward_iterator_tag@std@@@std@@YAPAV?$KeyValuePair@VStringAtom@Util@@H@Util@@PAV12@00Uforward_iterator_tag@0@U_Nonscalar_ptr_iterator_tag@0@U_Range_checked_iterator_tag@0@@Z 0043ef00 f i render_win32.release:animresource.obj
 0001:0003df30       ??2Mesh@CoreGraphics@@SAPAXI@Z 0043ef30 f i render_win32.release:mesh.obj
 0001:0003df40       ??3Mesh@CoreGraphics@@SAXPAX@Z 0043ef40 f i render_win32.release:mesh.obj
 0001:0003df60       ?GetRtti@Mesh@CoreGraphics@@UBEPAVRtti@Core@@XZ 0043ef60 f   render_win32.release:mesh.obj
 0001:0003df70       ?FactoryCreator@Mesh@CoreGraphics@@SAPAVRefCounted@Core@@XZ 0043ef70 f   render_win32.release:mesh.obj
 0001:0003df80       ?Create@Mesh@CoreGraphics@@SAPAV12@XZ 0043ef80 f   render_win32.release:mesh.obj
 0001:0003dfc0       ??0Mesh@CoreGraphics@@QAE@XZ 0043efc0 f i render_win32.release:mesh.obj
 0001:0003dfe0       ??_GMesh@CoreGraphics@@UAEPAXI@Z 0043efe0 f i render_win32.release:mesh.obj
 0001:0003dfe0       ??_EMesh@CoreGraphics@@UAEPAXI@Z 0043efe0 f i  CIL library: CIL module
 0001:0003e010       ??1Mesh@CoreGraphics@@UAE@XZ 0043f010 f i render_win32.release:mesh.obj
 0001:0003e030       ?RegisterWithFactory@Mesh@CoreGraphics@@SA_NXZ 0043f030 f   render_win32.release:mesh.obj
 0001:0003e130       ??2ManagedMesh@Resources@@SAPAXI@Z 0043f130 f i render_win32.release:managedmesh.obj
 0001:0003e140       ??3ManagedMesh@Resources@@SAXPAX@Z 0043f140 f i render_win32.release:managedmesh.obj
 0001:0003e160       ?GetRtti@ManagedMesh@Resources@@UBEPAVRtti@Core@@XZ 0043f160 f   render_win32.release:managedmesh.obj
 0001:0003e170       ?FactoryCreator@ManagedMesh@Resources@@SAPAVRefCounted@Core@@XZ 0043f170 f   render_win32.release:managedmesh.obj
 0001:0003e180       ?Create@ManagedMesh@Resources@@SAPAV12@XZ 0043f180 f   render_win32.release:managedmesh.obj
 0001:0003e1c0       ??0ManagedMesh@Resources@@QAE@XZ 0043f1c0 f i render_win32.release:managedmesh.obj
 0001:0003e1e0       ??_EManagedMesh@Resources@@UAEPAXI@Z 0043f1e0 f i  CIL library: CIL module
 0001:0003e1e0       ??_GManagedMesh@Resources@@UAEPAXI@Z 0043f1e0 f i render_win32.release:managedmesh.obj
 0001:0003e210       ??1ManagedMesh@Resources@@UAE@XZ 0043f210 f i render_win32.release:managedmesh.obj
 0001:0003e230       ?RegisterWithFactory@ManagedMesh@Resources@@SA_NXZ 0043f230 f   render_win32.release:managedmesh.obj
 0001:0003e330       ??2InputServer@Input@@SAPAXI@Z 0043f330 f i render_win32.release:inputserver.obj
 0001:0003e340       ??3InputServer@Input@@SAXPAX@Z 0043f340 f i render_win32.release:inputserver.obj
 0001:0003e360       ?GetRtti@InputServer@Input@@UBEPAVRtti@Core@@XZ 0043f360 f   render_win32.release:inputserver.obj
 0001:0003e370       ?FactoryCreator@InputServer@Input@@SAPAVRefCounted@Core@@XZ 0043f370 f   render_win32.release:inputserver.obj
 0001:0003e380       ?Create@InputServer@Input@@SAPAV12@XZ 0043f380 f   render_win32.release:inputserver.obj
 0001:0003e3c0       ?RegisterWithFactory@InputServer@Input@@SA_NXZ 0043f3c0 f   render_win32.release:inputserver.obj
 0001:0003e4c0       ??0InputServer@Input@@QAE@XZ 0043f4c0 f   render_win32.release:inputserver.obj
 0001:0003e510       ??_EInputServer@Input@@UAEPAXI@Z 0043f510 f i  CIL library: CIL module
 0001:0003e510       ??_GInputServer@Input@@UAEPAXI@Z 0043f510 f i render_win32.release:inputserver.obj
 0001:0003e540       ??1InputServer@Input@@UAE@XZ 0043f540 f   render_win32.release:inputserver.obj
 0001:0003e590       ??4float4@Math@@QAEXABV01@@Z 0043f590 f i render_win32.release:debugtextrenderer.obj
 0001:0003e5b0       ?x@float4@Math@@QAEAAMXZ   0043f5b0 f i render_win32.release:debugtextrenderer.obj
 0001:0003e5c0       ?y@float4@Math@@QAEAAMXZ   0043f5c0 f i render_win32.release:debugtextrenderer.obj
 0001:0003e5e0       ?w@float4@Math@@QAEAAMXZ   0043f5e0 f i render_win32.release:debugtextrenderer.obj
 0001:0003e600       ?transform@matrix44@Math@@SA?AVfloat4@2@ABV32@ABV12@@Z 0043f600 f i render_win32.release:debugtextrenderer.obj
 0001:0003e7f0       ??2DebugTextRenderer@Debug@@SAPAXI@Z 0043f7f0 f i render_win32.release:debugtextrenderer.obj
 0001:0003e800       ??3DebugTextRenderer@Debug@@SAXPAX@Z 0043f800 f i render_win32.release:debugtextrenderer.obj
 0001:0003e820       ?SetThreadId@RenderDebugText@Debug@@QAEXABK@Z 0043f820 f i render_win32.release:debugtextrenderer.obj
 0001:0003e860       ?SetTextElements@RenderDebugText@Debug@@QAEXABV?$Array@VTextElement@CoreGraphics@@@Util@@@Z 0043f860 f i render_win32.release:debugtextrenderer.obj
 0001:0003e8a0       ?GetViewProjTransform@CameraSettings@Shared@@QBEABVmatrix44@Math@@XZ 0043f8a0 f i render_win32.release:debugtextrenderer.obj
 0001:0003e8d0       ?Instance@GraphicsInterface@Graphics@@SAPAV12@XZ 0043f8d0 f i render_win32.release:debugtextrenderer.obj
 0001:0003e900       ?Instance@GraphicsServer@Graphics@@SAPAV12@XZ 0043f900 f i render_win32.release:debugtextrenderer.obj
 0001:0003e940       ?GetViewProjTransform@CameraEntity@Graphics@@QBEABVmatrix44@Math@@XZ 0043f940 f i render_win32.release:debugtextrenderer.obj
 0001:0003e980       ?GetRtti@DebugTextRenderer@Debug@@UBEPAVRtti@Core@@XZ 0043f980 f   render_win32.release:debugtextrenderer.obj
 0001:0003e990       ?FactoryCreator@DebugTextRenderer@Debug@@SAPAVRefCounted@Core@@XZ 0043f990 f   render_win32.release:debugtextrenderer.obj
 0001:0003e9a0       ?Create@DebugTextRenderer@Debug@@SAPAV12@XZ 0043f9a0 f   render_win32.release:debugtextrenderer.obj
 0001:0003e9e0       ?RegisterWithFactory@DebugTextRenderer@Debug@@SA_NXZ 0043f9e0 f   render_win32.release:debugtextrenderer.obj
 0001:0003eae0       ??0DebugTextRenderer@Debug@@QAE@XZ 0043fae0 f   render_win32.release:debugtextrenderer.obj
 0001:0003eb50       ??_GDebugTextRenderer@Debug@@UAEPAXI@Z 0043fb50 f i render_win32.release:debugtextrenderer.obj
 0001:0003eb50       ??_EDebugTextRenderer@Debug@@UAEPAXI@Z 0043fb50 f i  CIL library: CIL module
 0001:0003eb80       ??1DebugTextRenderer@Debug@@UAE@XZ 0043fb80 f   render_win32.release:debugtextrenderer.obj
 0001:0003ebe0       ?DrawTextA@DebugTextRenderer@Debug@@QAEXABVString@Util@@ABVfloat4@Math@@ABVfloat2@6@@Z 0043fbe0 f   render_win32.release:debugtextrenderer.obj
 0001:0003ec30       ?DrawText3D@DebugTextRenderer@Debug@@QAEXABVString@Util@@ABVfloat4@Math@@ABVpoint@6@@Z 0043fc30 f   render_win32.release:debugtextrenderer.obj
 0001:0003efa0       ?OnFrame@DebugTextRenderer@Debug@@QAEXXZ 0043ffa0 f   render_win32.release:debugtextrenderer.obj
 0001:0003f080       ??0?$Array@VTextElement@CoreGraphics@@@Util@@QAE@XZ 00440080 f i render_win32.release:debugtextrenderer.obj
 0001:0003f0c0       ??1?$Array@VTextElement@CoreGraphics@@@Util@@QAE@XZ 004400c0 f i render_win32.release:debugtextrenderer.obj
 0001:0003f0e0       ??4?$Array@VTextElement@CoreGraphics@@@Util@@QAEXABV01@@Z 004400e0 f i render_win32.release:debugtextrenderer.obj
 0001:0003f1d0       ?Append@?$Array@VTextElement@CoreGraphics@@@Util@@QAEXABVTextElement@CoreGraphics@@@Z 004401d0 f i render_win32.release:debugtextrenderer.obj
 0001:0003f250       ?Clear@?$Array@VTextElement@CoreGraphics@@@Util@@QAEXXZ 00440250 f i render_win32.release:debugtextrenderer.obj
 0001:0003f2a0       ??0?$Ptr@VCameraEntity@Graphics@@@@QAE@ABV0@@Z 004402a0 f i render_win32.release:debugtextrenderer.obj
 0001:0003f2e0       ??1?$Ptr@VCameraEntity@Graphics@@@@QAE@XZ 004402e0 f i render_win32.release:debugtextrenderer.obj
 0001:0003f310       ??C?$Ptr@VCameraEntity@Graphics@@@@QBEPAVCameraEntity@Graphics@@XZ 00440310 f i render_win32.release:debugtextrenderer.obj
 0001:0003f350       ??C?$Ptr@VView@Graphics@@@@QBEPAVView@Graphics@@XZ 00440350 f i render_win32.release:debugtextrenderer.obj
 0001:0003f390       ??0?$Ptr@VRenderDebugText@Debug@@@@QAE@PAVRenderDebugText@Debug@@@Z 00440390 f i render_win32.release:debugtextrenderer.obj
 0001:0003f3d0       ??1?$Ptr@VRenderDebugText@Debug@@@@QAE@XZ 004403d0 f i render_win32.release:debugtextrenderer.obj
 0001:0003f400       ??C?$Ptr@VRenderDebugText@Debug@@@@QBEPAVRenderDebugText@Debug@@XZ 00440400 f i render_win32.release:debugtextrenderer.obj
 0001:0003f440       ??$cast@VMessage@Messaging@@@?$Ptr@VRenderDebugText@Debug@@@@QBEABV?$Ptr@VMessage@Messaging@@@@XZ 00440440 f i render_win32.release:debugtextrenderer.obj
 0001:0003f450       ??$Send@VMessage@Messaging@@@AsyncPort@Messaging@@QAEXABV?$Ptr@VMessage@Messaging@@@@@Z 00440450 f i render_win32.release:debugtextrenderer.obj
 0001:0003f470       ??4TextElement@CoreGraphics@@QAEAAV01@ABV01@@Z 00440470 f i render_win32.release:debugtextrenderer.obj
 0001:0003f520       ?Destroy@?$Array@VTextElement@CoreGraphics@@@Util@@AAEXPAVTextElement@CoreGraphics@@@Z 00440520 f i render_win32.release:debugtextrenderer.obj
 0001:0003f550       ?Copy@?$Array@VTextElement@CoreGraphics@@@Util@@AAEXABV12@@Z 00440550 f i render_win32.release:debugtextrenderer.obj
 0001:0003f680       ?Delete@?$Array@VTextElement@CoreGraphics@@@Util@@AAEXXZ 00440680 f i render_win32.release:debugtextrenderer.obj
 0001:0003f6f0       ?Grow@?$Array@VTextElement@CoreGraphics@@@Util@@AAEXXZ 004406f0 f i render_win32.release:debugtextrenderer.obj
 0001:0003f770       ??_GTextElement@CoreGraphics@@QAEPAXI@Z 00440770 f i render_win32.release:debugtextrenderer.obj
 0001:0003f7a0       ?GrowTo@?$Array@VTextElement@CoreGraphics@@@Util@@AAEXH@Z 004407a0 f i render_win32.release:debugtextrenderer.obj
 0001:0003f8c0       ?XMVector4Transform@@YA?AT__m128@@T1@ABU_XMMATRIX@@@Z 004408c0 f i render_win32.release:debugtextrenderer.obj
 0001:0003fa80       ??2StreamMeshLoader@CoreGraphics@@SAPAXI@Z 00440a80 f i render_win32.release:streammeshloader.obj
 0001:0003fa90       ??3StreamMeshLoader@CoreGraphics@@SAXPAX@Z 00440a90 f i render_win32.release:streammeshloader.obj
 0001:0003fab0       ?GetRtti@StreamMeshLoader@CoreGraphics@@UBEPAVRtti@Core@@XZ 00440ab0 f   render_win32.release:streammeshloader.obj
 0001:0003fac0       ?FactoryCreator@StreamMeshLoader@CoreGraphics@@SAPAVRefCounted@Core@@XZ 00440ac0 f   render_win32.release:streammeshloader.obj
 0001:0003fad0       ?Create@StreamMeshLoader@CoreGraphics@@SAPAV12@XZ 00440ad0 f   render_win32.release:streammeshloader.obj
 0001:0003fb10       ??0StreamMeshLoader@CoreGraphics@@QAE@XZ 00440b10 f i render_win32.release:streammeshloader.obj
 0001:0003fb30       ??_EStreamMeshLoader@CoreGraphics@@UAEPAXI@Z 00440b30 f i  CIL library: CIL module
 0001:0003fb30       ??_GStreamMeshLoader@CoreGraphics@@UAEPAXI@Z 00440b30 f i render_win32.release:streammeshloader.obj
 0001:0003fb60       ??1D3D9StreamMeshLoader@Win360@@UAE@XZ 00440b60 f i render_win32.release:streammeshloader.obj
 0001:0003fb80       ??1StreamMeshLoader@CoreGraphics@@UAE@XZ 00440b80 f i render_win32.release:streammeshloader.obj
 0001:0003fba0       ?RegisterWithFactory@StreamMeshLoader@CoreGraphics@@SA_NXZ 00440ba0 f   render_win32.release:streammeshloader.obj
 0001:0003fca0       ??0StringAtom@Util@@QAE@PAD@Z 00440ca0 f i render_win32.release:streamanimationloader.obj
 0001:0003fcd0       ??2StreamAnimationLoader@CoreAnimation@@SAPAXI@Z 00440cd0 f i render_win32.release:streamanimationloader.obj
 0001:0003fce0       ??3StreamAnimationLoader@CoreAnimation@@SAXPAX@Z 00440ce0 f i render_win32.release:streamanimationloader.obj
 0001:0003fd00       ?SetActive@AnimCurve@CoreAnimation@@QAEX_N@Z 00440d00 f i render_win32.release:streamanimationloader.obj
 0001:0003fd20       ?SetStatic@AnimCurve@CoreAnimation@@QAEX_N@Z 00440d20 f i render_win32.release:streamanimationloader.obj
 0001:0003fd40       ?SetStaticKey@AnimCurve@CoreAnimation@@QAEXABVfloat4@Math@@@Z 00440d40 f i render_win32.release:streamanimationloader.obj
 0001:0003fd60       ?SetFirstKeyIndex@AnimCurve@CoreAnimation@@QAEXH@Z 00440d60 f i render_win32.release:streamanimationloader.obj
 0001:0003fd80       ?SetCurveType@AnimCurve@CoreAnimation@@QAEXW4Code@CurveType@2@@Z 00440d80 f i render_win32.release:streamanimationloader.obj
 0001:0003fda0       ??0AnimEvent@CoreAnimation@@QAE@ABVStringAtom@Util@@0H@Z 00440da0 f i render_win32.release:streamanimationloader.obj
 0001:0003fde0       ?SetName@AnimClip@CoreAnimation@@QAEXABVStringAtom@Util@@@Z 00440de0 f i render_win32.release:streamanimationloader.obj
 0001:0003fe00       ?SetNumKeys@AnimClip@CoreAnimation@@QAEXH@Z 00440e00 f i render_win32.release:streamanimationloader.obj
 0001:0003fe20       ?SetKeyStride@AnimClip@CoreAnimation@@QAEXH@Z 00440e20 f i render_win32.release:streamanimationloader.obj
 0001:0003fe40       ?SetKeyDuration@AnimClip@CoreAnimation@@QAEXH@Z 00440e40 f i render_win32.release:streamanimationloader.obj
 0001:0003fe60       ?GetKeyDuration@AnimClip@CoreAnimation@@QBEHXZ 00440e60 f i render_win32.release:streamanimationloader.obj
 0001:0003fe80       ?SetPreInfinityType@AnimClip@CoreAnimation@@QAEXW4Code@InfinityType@2@@Z 00440e80 f i render_win32.release:streamanimationloader.obj
 0001:0003fea0       ?SetPostInfinityType@AnimClip@CoreAnimation@@QAEXW4Code@InfinityType@2@@Z 00440ea0 f i render_win32.release:streamanimationloader.obj
 0001:0003fec0       ?SetStartKeyIndex@AnimClip@CoreAnimation@@QAEXH@Z 00440ec0 f i render_win32.release:streamanimationloader.obj
 0001:0003fee0       ?GetByteSize@AnimKeyBuffer@CoreAnimation@@QBEHXZ 00440ee0 f i render_win32.release:streamanimationloader.obj
 0001:0003ff00       ?GetRtti@StreamAnimationLoader@CoreAnimation@@UBEPAVRtti@Core@@XZ 00440f00 f   render_win32.release:streamanimationloader.obj
 0001:0003ff10       ?FactoryCreator@StreamAnimationLoader@CoreAnimation@@SAPAVRefCounted@Core@@XZ 00440f10 f   render_win32.release:streamanimationloader.obj
 0001:0003ff20       ?Create@StreamAnimationLoader@CoreAnimation@@SAPAV12@XZ 00440f20 f   render_win32.release:streamanimationloader.obj
 0001:0003ff60       ??0StreamAnimationLoader@CoreAnimation@@QAE@XZ 00440f60 f i render_win32.release:streamanimationloader.obj
 0001:0003ff80       ??_GStreamAnimationLoader@CoreAnimation@@UAEPAXI@Z 00440f80 f i render_win32.release:streamanimationloader.obj
 0001:0003ff80       ??_EStreamAnimationLoader@CoreAnimation@@UAEPAXI@Z 00440f80 f i  CIL library: CIL module
 0001:0003ffb0       ??1StreamAnimationLoader@CoreAnimation@@UAE@XZ 00440fb0 f i render_win32.release:streamanimationloader.obj
 0001:0003ffd0       ?RegisterWithFactory@StreamAnimationLoader@CoreAnimation@@SA_NXZ 00440fd0 f   render_win32.release:streamanimationloader.obj
 0001:000400d0       ?SetupResourceFromStream@StreamAnimationLoader@CoreAnimation@@MAE_NABV?$Ptr@VStream@IO@@@@@Z 004410d0 f   render_win32.release:streamanimationloader.obj
 0001:00040140       ?SetupFromNax3@StreamAnimationLoader@CoreAnimation@@IAE_NABV?$Ptr@VStream@IO@@@@@Z 00441140 f   render_win32.release:streamanimationloader.obj
 0001:00040900       ??$downcast@VAnimResource@CoreAnimation@@@?$Ptr@VResource@Resources@@@@QBEABV?$Ptr@VAnimResource@CoreAnimation@@@@XZ 00441900 f i render_win32.release:streamanimationloader.obj
 0001:00040910       ??C?$Ptr@VAnimResource@CoreAnimation@@@@QBEPAVAnimResource@CoreAnimation@@XZ 00441910 f i render_win32.release:streamanimationloader.obj
 0001:00040950       ??2ManagedAnimResource@CoreAnimation@@SAPAXI@Z 00441950 f i render_win32.release:managedanimresource.obj
 0001:00040960       ??3ManagedAnimResource@CoreAnimation@@SAXPAX@Z 00441960 f i render_win32.release:managedanimresource.obj
 0001:00040980       ?GetRtti@ManagedAnimResource@CoreAnimation@@UBEPAVRtti@Core@@XZ 00441980 f   render_win32.release:managedanimresource.obj
 0001:00040990       ?FactoryCreator@ManagedAnimResource@CoreAnimation@@SAPAVRefCounted@Core@@XZ 00441990 f   render_win32.release:managedanimresource.obj
 0001:000409a0       ?Create@ManagedAnimResource@CoreAnimation@@SAPAV12@XZ 004419a0 f   render_win32.release:managedanimresource.obj
 0001:000409e0       ??0ManagedAnimResource@CoreAnimation@@QAE@XZ 004419e0 f i render_win32.release:managedanimresource.obj
 0001:00040a00       ??_GManagedAnimResource@CoreAnimation@@UAEPAXI@Z 00441a00 f i render_win32.release:managedanimresource.obj
 0001:00040a00       ??_EManagedAnimResource@CoreAnimation@@UAEPAXI@Z 00441a00 f i  CIL library: CIL module
 0001:00040a30       ??1ManagedAnimResource@CoreAnimation@@UAE@XZ 00441a30 f i render_win32.release:managedanimresource.obj
 0001:00040a50       ?RegisterWithFactory@ManagedAnimResource@CoreAnimation@@SA_NXZ 00441a50 f   render_win32.release:managedanimresource.obj
 0001:00040b50       ??2TextureStreamer@Resources@@SAPAXI@Z 00441b50 f i render_win32.release:texturestreamer.obj
 0001:00040b60       ??3TextureStreamer@Resources@@SAXPAX@Z 00441b60 f i render_win32.release:texturestreamer.obj
 0001:00040b80       ?GetRtti@TextureStreamer@Resources@@UBEPAVRtti@Core@@XZ 00441b80 f   render_win32.release:texturestreamer.obj
 0001:00040b90       ?FactoryCreator@TextureStreamer@Resources@@SAPAVRefCounted@Core@@XZ 00441b90 f   render_win32.release:texturestreamer.obj
 0001:00040ba0       ?Create@TextureStreamer@Resources@@SAPAV12@XZ 00441ba0 f   render_win32.release:texturestreamer.obj
 0001:00040be0       ??0TextureStreamer@Resources@@QAE@XZ 00441be0 f i render_win32.release:texturestreamer.obj
 0001:00040c00       ??_GTextureStreamer@Resources@@UAEPAXI@Z 00441c00 f i render_win32.release:texturestreamer.obj
 0001:00040c00       ??_ETextureStreamer@Resources@@UAEPAXI@Z 00441c00 f i  CIL library: CIL module
 0001:00040c30       ??1TextureStreamer@Resources@@UAE@XZ 00441c30 f i render_win32.release:texturestreamer.obj
 0001:00040c50       ?RegisterWithFactory@TextureStreamer@Resources@@SA_NXZ 00441c50 f   render_win32.release:texturestreamer.obj
 0001:00040d50       ??2TextureCreator@Resources@@SAPAXI@Z 00441d50 f i render_win32.release:texturecreator.obj
 0001:00040d60       ??3TextureCreator@Resources@@SAXPAX@Z 00441d60 f i render_win32.release:texturecreator.obj
 0001:00040d80       ?GetRtti@TextureCreator@Resources@@UBEPAVRtti@Core@@XZ 00441d80 f   render_win32.release:texturecreator.obj
 0001:00040d90       ?FactoryCreator@TextureCreator@Resources@@SAPAVRefCounted@Core@@XZ 00441d90 f   render_win32.release:texturecreator.obj
 0001:00040da0       ?Create@TextureCreator@Resources@@SAPAV12@XZ 00441da0 f   render_win32.release:texturecreator.obj
 0001:00040de0       ??0TextureCreator@Resources@@QAE@XZ 00441de0 f i render_win32.release:texturecreator.obj
 0001:00040e00       ??_ETextureCreator@Resources@@UAEPAXI@Z 00441e00 f i  CIL library: CIL module
 0001:00040e00       ??_GTextureCreator@Resources@@UAEPAXI@Z 00441e00 f i render_win32.release:texturecreator.obj
 0001:00040e30       ??1TextureCreator@Resources@@UAE@XZ 00441e30 f i render_win32.release:texturecreator.obj
 0001:00040e50       ?RegisterWithFactory@TextureCreator@Resources@@SA_NXZ 00441e50 f   render_win32.release:texturecreator.obj
 0001:00040f50       ?x@float2@Math@@QAEAAMXZ   00441f50 f i render_win32.release:viewerapplication.obj
 0001:00040f60       ?y@float2@Math@@QAEAAMXZ   00441f60 f i render_win32.release:viewerapplication.obj
 0001:00040f80       ??0point@Math@@QAE@XZ      00441f80 f i render_win32.release:viewerapplication.obj
 0001:00041010       ??0point@Math@@QAE@T__m128@@@Z 00442010 f i render_win32.release:viewerapplication.obj
 0001:00041040       ??4point@Math@@QAEXABV01@@Z 00442040 f i render_win32.release:viewerapplication.obj
 0001:00041060       ??Hpoint@Math@@QBE?AV01@ABVvector@1@@Z 00442060 f i render_win32.release:viewerapplication.obj
 0001:000410c0       ??Gpoint@Math@@QBE?AV01@ABVvector@1@@Z 004420c0 f i render_win32.release:viewerapplication.obj
 0001:00041120       ??0bbox@Math@@QAE@ABVpoint@1@ABVvector@1@@Z 00442120 f i render_win32.release:viewerapplication.obj
 0001:00041330       ??4bbox@Math@@QAEAAV01@ABV01@@Z 00442330 f i render_win32.release:viewerapplication.obj
 0001:00041370       ?GetDefaultMouse@InputServerBase@Base@@QBEABV?$Ptr@VMouse@Input@@@@XZ 00442370 f i render_win32.release:viewerapplication.obj
 0001:000413b0       ?Instance@Win32InputServer@Win32@@SAPAV12@XZ 004423b0 f i render_win32.release:viewerapplication.obj
 0001:000413f0       ?GetMouseMovement@Win32InputServer@Win32@@IBEABVfloat2@Math@@XZ 004423f0 f i render_win32.release:viewerapplication.obj
 0001:00041410       ?SetQuitRequested@RenderApplication@App@@IAEX_N@Z 00442410 f i render_win32.release:viewerapplication.obj
 0001:00041430       ?SetOrbitButton@MayaCameraUtil@RenderUtil@@QAEX_N@Z 00442430 f i render_win32.release:viewerapplication.obj
 0001:00041450       ?SetPanButton@MayaCameraUtil@RenderUtil@@QAEX_N@Z 00442450 f i render_win32.release:viewerapplication.obj
 0001:00041470       ?SetZoomButton@MayaCameraUtil@RenderUtil@@QAEX_N@Z 00442470 f i render_win32.release:viewerapplication.obj
 0001:00041490       ?SetZoomInButton@MayaCameraUtil@RenderUtil@@QAEX_N@Z 00442490 f i render_win32.release:viewerapplication.obj
 0001:000414b0       ?SetZoomOutButton@MayaCameraUtil@RenderUtil@@QAEX_N@Z 004424b0 f i render_win32.release:viewerapplication.obj
 0001:000414d0       ?SetMouseMovement@MayaCameraUtil@RenderUtil@@QAEXABVfloat2@Math@@@Z 004424d0 f i render_win32.release:viewerapplication.obj
 0001:00041500       ?GetCameraTransform@MayaCameraUtil@RenderUtil@@QBEABVmatrix44@Math@@XZ 00442500 f i render_win32.release:viewerapplication.obj
 0001:00041520       ?SetZoomIn@MayaCameraUtil@RenderUtil@@QAEXM@Z 00442520 f i render_win32.release:viewerapplication.obj
 0001:00041540       ?SetZoomOut@MayaCameraUtil@RenderUtil@@QAEXM@Z 00442540 f i render_win32.release:viewerapplication.obj
 0001:00041560       ?SetPanning@MayaCameraUtil@RenderUtil@@QAEXABVfloat2@Math@@@Z 00442560 f i render_win32.release:viewerapplication.obj
 0001:00041590       ?SetQuadTreeSettings@VisibilityQuadtree@Visibility@@QAEXEABVbbox@Math@@@Z 00442590 f i render_win32.release:viewerapplication.obj
 0001:000415e0       ?ButtonPressed@MouseBase@Base@@QBE_NW4Code@MouseButton@Input@@@Z 004425e0 f i render_win32.release:viewerapplication.obj
 0001:00041600       ?WheelForward@MouseBase@Base@@QBE_NXZ 00442600 f i render_win32.release:viewerapplication.obj
 0001:00041620       ?WheelBackward@MouseBase@Base@@QBE_NXZ 00442620 f i render_win32.release:viewerapplication.obj
 0001:00041640       ?GetMovement@Win32Mouse@Win32@@QBEABVfloat2@Math@@XZ 00442640 f i render_win32.release:viewerapplication.obj
 0001:00041690       ?IsConnected@GamePadBase@Base@@QBE_NXZ 00442690 f i render_win32.release:viewerapplication.obj
 0001:000416d0       ?ButtonDown@GamePadBase@Base@@QBE_NW4Button@12@@Z 004426d0 f i render_win32.release:viewerapplication.obj
 0001:00041720       ?GetAxisValue@GamePadBase@Base@@QBEMW4Axis@12@@Z 00442720 f i render_win32.release:viewerapplication.obj
 0001:00041770       ??0ViewerApplication@App@@QAE@XZ 00442770 f   render_win32.release:viewerapplication.obj
 0001:00041800       ??_EViewerApplication@App@@UAEPAXI@Z 00442800 f i  CIL library: CIL module
 0001:00041800       ??_GViewerApplication@App@@UAEPAXI@Z 00442800 f i render_win32.release:viewerapplication.obj
 0001:00041830       ??1ViewerApplication@App@@UAE@XZ 00442830 f   render_win32.release:viewerapplication.obj
 0001:000418d0       ?Open@ViewerApplication@App@@UAE_NXZ 004428d0 f   render_win32.release:viewerapplication.obj
 0001:00041f30       ?Close@ViewerApplication@App@@UAEXXZ 00442f30 f   render_win32.release:viewerapplication.obj
 0001:00042020       ?OnProcessInput@ViewerApplication@App@@MAEXXZ 00443020 f   render_win32.release:viewerapplication.obj
 0001:00042820       ?OnUpdateFrame@ViewerApplication@App@@MAEXXZ 00443820 f   render_win32.release:viewerapplication.obj
 0001:00042870       ??0?$Array@V?$Ptr@VVisibilitySystemBase@Visibility@@@@@Util@@QAE@XZ 00443870 f i render_win32.release:viewerapplication.obj
 0001:000428b0       ??1?$Array@V?$Ptr@VVisibilitySystemBase@Visibility@@@@@Util@@QAE@XZ 004438b0 f i render_win32.release:viewerapplication.obj
 0001:000428d0       ?Append@?$Array@V?$Ptr@VVisibilitySystemBase@Visibility@@@@@Util@@QAEXABV?$Ptr@VVisibilitySystemBase@Visibility@@@@@Z 004438d0 f i render_win32.release:viewerapplication.obj
 0001:00042950       ??C?$Ptr@VMouse@Input@@@@QBEPAVMouse@Input@@XZ 00443950 f i render_win32.release:viewerapplication.obj
 0001:00042990       ??0?$Ptr@VStage@Graphics@@@@QAE@XZ 00443990 f i render_win32.release:viewerapplication.obj
 0001:000429b0       ??1?$Ptr@VStage@Graphics@@@@QAE@XZ 004439b0 f i render_win32.release:viewerapplication.obj
 0001:000429e0       ??4?$Ptr@VStage@Graphics@@@@QAEXPAVStage@Graphics@@@Z 004439e0 f i render_win32.release:viewerapplication.obj
 0001:00042a40       ??4?$Ptr@VStage@Graphics@@@@QAEXABV0@@Z 00443a40 f i render_win32.release:viewerapplication.obj
 0001:00042aa0       ?isvalid@?$Ptr@VStage@Graphics@@@@QBE_NXZ 00443aa0 f i render_win32.release:viewerapplication.obj
 0001:00042ac0       ??0?$Ptr@VCameraEntity@Graphics@@@@QAE@XZ 00443ac0 f i render_win32.release:viewerapplication.obj
 0001:00042ae0       ??4?$Ptr@VCameraEntity@Graphics@@@@QAEXPAVCameraEntity@Graphics@@@Z 00443ae0 f i render_win32.release:viewerapplication.obj
 0001:00042b40       ??0?$Ptr@VView@Graphics@@@@QAE@XZ 00443b40 f i render_win32.release:viewerapplication.obj
 0001:00042b60       ??1?$Ptr@VView@Graphics@@@@QAE@XZ 00443b60 f i render_win32.release:viewerapplication.obj
 0001:00042b90       ??4?$Ptr@VView@Graphics@@@@QAEXPAVView@Graphics@@@Z 00443b90 f i render_win32.release:viewerapplication.obj
 0001:00042bf0       ??4?$Ptr@VView@Graphics@@@@QAEXABV0@@Z 00443bf0 f i render_win32.release:viewerapplication.obj
 0001:00042c50       ??0?$Ptr@VGraphicsServer@Graphics@@@@QAE@XZ 00443c50 f i render_win32.release:viewerapplication.obj
 0001:00042c70       ??1?$Ptr@VGraphicsServer@Graphics@@@@QAE@XZ 00443c70 f i render_win32.release:viewerapplication.obj
 0001:00042ca0       ??4?$Ptr@VGraphicsServer@Graphics@@@@QAEXPAVGraphicsServer@Graphics@@@Z 00443ca0 f i render_win32.release:viewerapplication.obj
 0001:00042d00       ??C?$Ptr@VGraphicsServer@Graphics@@@@QBEPAVGraphicsServer@Graphics@@XZ 00443d00 f i render_win32.release:viewerapplication.obj
 0001:00042d40       ??0?$Ptr@VDebugShapeRenderer@Debug@@@@QAE@XZ 00443d40 f i render_win32.release:viewerapplication.obj
 0001:00042d60       ??1?$Ptr@VDebugShapeRenderer@Debug@@@@QAE@XZ 00443d60 f i render_win32.release:viewerapplication.obj
 0001:00042d90       ??4?$Ptr@VDebugShapeRenderer@Debug@@@@QAEXPAVDebugShapeRenderer@Debug@@@Z 00443d90 f i render_win32.release:viewerapplication.obj
 0001:00042df0       ??C?$Ptr@VDebugShapeRenderer@Debug@@@@QBEPAVDebugShapeRenderer@Debug@@XZ 00443df0 f i render_win32.release:viewerapplication.obj
 0001:00042e30       ??0?$Ptr@VDebugTextRenderer@Debug@@@@QAE@XZ 00443e30 f i render_win32.release:viewerapplication.obj
 0001:00042e50       ??1?$Ptr@VDebugTextRenderer@Debug@@@@QAE@XZ 00443e50 f i render_win32.release:viewerapplication.obj
 0001:00042e80       ??4?$Ptr@VDebugTextRenderer@Debug@@@@QAEXPAVDebugTextRenderer@Debug@@@Z 00443e80 f i render_win32.release:viewerapplication.obj
 0001:00042ee0       ??C?$Ptr@VDebugTextRenderer@Debug@@@@QBEPAVDebugTextRenderer@Debug@@XZ 00443ee0 f i render_win32.release:viewerapplication.obj
 0001:00042f20       ??A?$FixedArray@UButtonState@MouseBase@Base@@@Util@@QBEAAUButtonState@MouseBase@Base@@H@Z 00443f20 f i render_win32.release:viewerapplication.obj
 0001:00042f70       ??A?$FixedArray@UButtonState@GamePadBase@Base@@@Util@@QBEAAUButtonState@GamePadBase@Base@@H@Z 00443f70 f i render_win32.release:viewerapplication.obj
 0001:00042fc0       ??A?$FixedArray@M@Util@@QBEAAMH@Z 00443fc0 f i render_win32.release:viewerapplication.obj
 0001:00043010       ??0?$Ptr@VVisibilityQuadtree@Visibility@@@@QAE@PAVVisibilityQuadtree@Visibility@@@Z 00444010 f i render_win32.release:viewerapplication.obj
 0001:00043050       ??1?$Ptr@VVisibilityQuadtree@Visibility@@@@QAE@XZ 00444050 f i render_win32.release:viewerapplication.obj
 0001:00043080       ??C?$Ptr@VVisibilityQuadtree@Visibility@@@@QBEPAVVisibilityQuadtree@Visibility@@XZ 00444080 f i render_win32.release:viewerapplication.obj
 0001:000430c0       ??0?$Ptr@VVisibilityClusterSystem@Visibility@@@@QAE@PAVVisibilityClusterSystem@Visibility@@@Z 004440c0 f i render_win32.release:viewerapplication.obj
 0001:00043100       ??1?$Ptr@VVisibilityClusterSystem@Visibility@@@@QAE@XZ 00444100 f i render_win32.release:viewerapplication.obj
 0001:00043130       ??0?$Ptr@VVisibilityBoxSystem@Visibility@@@@QAE@PAVVisibilityBoxSystem@Visibility@@@Z 00444130 f i render_win32.release:viewerapplication.obj
 0001:00043170       ??1?$Ptr@VVisibilityBoxSystem@Visibility@@@@QAE@XZ 00444170 f i render_win32.release:viewerapplication.obj
 0001:000431a0       ??$cast@VVisibilitySystemBase@Visibility@@@?$Ptr@VVisibilityQuadtree@Visibility@@@@QBEABV?$Ptr@VVisibilitySystemBase@Visibility@@@@XZ 004441a0 f i render_win32.release:viewerapplication.obj
 0001:000431b0       ??$cast@VGraphicsEntity@Graphics@@@?$Ptr@VCameraEntity@Graphics@@@@QBEABV?$Ptr@VGraphicsEntity@Graphics@@@@XZ 004441b0 f i render_win32.release:viewerapplication.obj
 0001:000431c0       ??C?$Ptr@VGamePad@Input@@@@QBEPAVGamePad@Input@@XZ 004441c0 f i render_win32.release:viewerapplication.obj
 0001:00043200       ?Delete@?$Array@V?$Ptr@VVisibilitySystemBase@Visibility@@@@@Util@@AAEXXZ 00444200 f i render_win32.release:viewerapplication.obj
 0001:00043270       ?Grow@?$Array@V?$Ptr@VVisibilitySystemBase@Visibility@@@@@Util@@AAEXXZ 00444270 f i render_win32.release:viewerapplication.obj
 0001:000432f0       ??4?$Ptr@VVisibilitySystemBase@Visibility@@@@QAEXABV0@@Z 004442f0 f i render_win32.release:viewerapplication.obj
 0001:00043350       ??_E?$Ptr@VVisibilityContext@Visibility@@@@QAEPAXI@Z 00444350 f i render_win32.release:viewerapplication.obj
 0001:000433f0       ?GrowTo@?$Array@V?$Ptr@VVisibilitySystemBase@Visibility@@@@@Util@@AAEXH@Z 004443f0 f i render_win32.release:viewerapplication.obj
 0001:00043510       ??0?$Ptr@VVisibilitySystemBase@Visibility@@@@QAE@XZ 00444510 f i render_win32.release:viewerapplication.obj
 0001:00043530       ??1?$Ptr@VVisibilityContext@Visibility@@@@QAE@XZ 00444530 f i render_win32.release:viewerapplication.obj
 0001:00043560       ??_E?$Ptr@VInternalView@InternalGraphics@@@@QAEPAXI@Z 00444560 f i render_win32.release:viewerapplication.obj
 0001:00043600       ??1?$Ptr@VInternalView@InternalGraphics@@@@QAE@XZ 00444600 f i render_win32.release:viewerapplication.obj
 0001:00043630       ?XMVectorSubtract@@YA?AT__m128@@T1@0@Z 00444630 f i render_win32.release:viewerapplication.obj
 0001:00043660       ?XMVectorAdd@@YA?AT__m128@@T1@0@Z 00444660 f i render_win32.release:viewerapplication.obj
 0001:00043690       ?SetStageName@CreateGraphicsEntity@Graphics@@QAEXABVStringAtom@Util@@@Z 00444690 f i render_win32.release:globallightentity.obj
 0001:000436d0       ?SetTransform@CreateGraphicsEntity@Graphics@@QAEXABVmatrix44@Math@@@Z 004446d0 f i render_win32.release:globallightentity.obj
 0001:00043750       ?SetVisible@CreateGraphicsEntity@Graphics@@QAEX_N@Z 00444750 f i render_win32.release:globallightentity.obj
 0001:00043790       ?SetLightColor@CreateGlobalLightEntity@Graphics@@QAEXABVfloat4@Math@@@Z 00444790 f i render_win32.release:globallightentity.obj
 0001:000437e0       ?SetProjMapUvOffsetAndScale@CreateGlobalLightEntity@Graphics@@QAEXABVfloat4@Math@@@Z 004447e0 f i render_win32.release:globallightentity.obj
 0001:00043830       ?SetCastShadows@CreateGlobalLightEntity@Graphics@@QAEX_N@Z 00444830 f i render_win32.release:globallightentity.obj
 0001:00043870       ?SetBackLightColor@CreateGlobalLightEntity@Graphics@@QAEXABVfloat4@Math@@@Z 00444870 f i render_win32.release:globallightentity.obj
 0001:000438c0       ?SetAmbientLightColor@CreateGlobalLightEntity@Graphics@@QAEXABVfloat4@Math@@@Z 004448c0 f i render_win32.release:globallightentity.obj
 0001:00043910       ?SetBackLightOffset@CreateGlobalLightEntity@Graphics@@QAEXM@Z 00444910 f i render_win32.release:globallightentity.obj
 0001:00043950       ?SetColor@SetGlobalBackLightColor@Graphics@@QAEXABVfloat4@Math@@@Z 00444950 f i render_win32.release:globallightentity.obj
 0001:000439a0       ?SetColor@SetGlobalAmbientLightColor@Graphics@@QAEXABVfloat4@Math@@@Z 004449a0 f i render_win32.release:globallightentity.obj
 0001:000439f0       ?SetOffset@SetGlobalBackLightOffset@Graphics@@QAEXM@Z 004449f0 f i render_win32.release:globallightentity.obj
 0001:00043a30       ?SetLightColor@SetGlobalLightParams@Graphics@@QAEXABVfloat4@Math@@@Z 00444a30 f i render_win32.release:globallightentity.obj
 0001:00043a80       ?SetBackLightColor@SetGlobalLightParams@Graphics@@QAEXABVfloat4@Math@@@Z 00444a80 f i render_win32.release:globallightentity.obj
 0001:00043ad0       ?SetAmbientLightColor@SetGlobalLightParams@Graphics@@QAEXABVfloat4@Math@@@Z 00444ad0 f i render_win32.release:globallightentity.obj
 0001:00043b20       ?SetBackLightOffset@SetGlobalLightParams@Graphics@@QAEXM@Z 00444b20 f i render_win32.release:globallightentity.obj
 0001:00043b60       ?SetCastShadows@SetGlobalLightParams@Graphics@@QAEX_N@Z 00444b60 f i render_win32.release:globallightentity.obj
 0001:00043ba0       ?SetLightType@AbstractLightEntity@Graphics@@IAEXW4Code@LightType@Lighting@@@Z 00444ba0 f i render_win32.release:globallightentity.obj
 0001:00043bc0       ??2GlobalLightEntity@Graphics@@SAPAXI@Z 00444bc0 f i render_win32.release:globallightentity.obj
 0001:00043bd0       ??3GlobalLightEntity@Graphics@@SAXPAX@Z 00444bd0 f i render_win32.release:globallightentity.obj
 0001:00043bf0       ?GetName@Stage@Graphics@@QBEABVStringAtom@Util@@XZ 00444bf0 f i render_win32.release:globallightentity.obj
 0001:00043c10       ?GetRtti@GlobalLightEntity@Graphics@@UBEPAVRtti@Core@@XZ 00444c10 f   render_win32.release:globallightentity.obj
 0001:00043c20       ?FactoryCreator@GlobalLightEntity@Graphics@@SAPAVRefCounted@Core@@XZ 00444c20 f   render_win32.release:globallightentity.obj
 0001:00043c30       ?Create@GlobalLightEntity@Graphics@@SAPAV12@XZ 00444c30 f   render_win32.release:globallightentity.obj
 0001:00043c70       ?RegisterWithFactory@GlobalLightEntity@Graphics@@SA_NXZ 00444c70 f   render_win32.release:globallightentity.obj
 0001:00043d70       ??0GlobalLightEntity@Graphics@@QAE@XZ 00444d70 f   render_win32.release:globallightentity.obj
 0001:00043ec0       ??_EGlobalLightEntity@Graphics@@UAEPAXI@Z 00444ec0 f i  CIL library: CIL module
 0001:00043ec0       ??_GGlobalLightEntity@Graphics@@UAEPAXI@Z 00444ec0 f i render_win32.release:globallightentity.obj
 0001:00043ef0       ??1GlobalLightEntity@Graphics@@UAE@XZ 00444ef0 f i render_win32.release:globallightentity.obj
 0001:00043f10       ?Setup@GlobalLightEntity@Graphics@@EAEXABV?$Ptr@VStage@Graphics@@@@@Z 00444f10 f   render_win32.release:globallightentity.obj
 0001:000441b0       ?SetBackLightColor@GlobalLightEntity@Graphics@@QAEXABVfloat4@Math@@@Z 004451b0 f   render_win32.release:globallightentity.obj
 0001:00044250       ?SetAmbientLightColor@GlobalLightEntity@Graphics@@QAEXABVfloat4@Math@@@Z 00445250 f   render_win32.release:globallightentity.obj
 0001:000442f0       ?SetBackLightOffset@GlobalLightEntity@Graphics@@QAEXM@Z 004452f0 f   render_win32.release:globallightentity.obj
 0001:00044380       ?SetAllParams@GlobalLightEntity@Graphics@@QAEXABVfloat4@Math@@00M_N@Z 00445380 f   render_win32.release:globallightentity.obj
 0001:00044550       ??0?$Ptr@VCreateGlobalLightEntity@Graphics@@@@QAE@PAVCreateGlobalLightEntity@Graphics@@@Z 00445550 f i render_win32.release:globallightentity.obj
 0001:00044590       ??1?$Ptr@VCreateGlobalLightEntity@Graphics@@@@QAE@XZ 00445590 f i render_win32.release:globallightentity.obj
 0001:000445c0       ??C?$Ptr@VCreateGlobalLightEntity@Graphics@@@@QBEPAVCreateGlobalLightEntity@Graphics@@XZ 004455c0 f i render_win32.release:globallightentity.obj
 0001:00044600       ??$cast@VCreateGraphicsEntity@Graphics@@@?$Ptr@VCreateGlobalLightEntity@Graphics@@@@QBEABV?$Ptr@VCreateGraphicsEntity@Graphics@@@@XZ 00445600 f i render_win32.release:globallightentity.obj
 0001:00044610       ??0?$Ptr@VSetGlobalBackLightColor@Graphics@@@@QAE@PAVSetGlobalBackLightColor@Graphics@@@Z 00445610 f i render_win32.release:globallightentity.obj
 0001:00044650       ??1?$Ptr@VSetGlobalBackLightColor@Graphics@@@@QAE@XZ 00445650 f i render_win32.release:globallightentity.obj
 0001:00044680       ??C?$Ptr@VSetGlobalBackLightColor@Graphics@@@@QBEPAVSetGlobalBackLightColor@Graphics@@XZ 00445680 f i render_win32.release:globallightentity.obj
 0001:000446c0       ??$cast@VGraphicsEntityMessage@Graphics@@@?$Ptr@VSetGlobalBackLightColor@Graphics@@@@QBEABV?$Ptr@VGraphicsEntityMessage@Graphics@@@@XZ 004456c0 f i render_win32.release:globallightentity.obj
 0001:000446d0       ??0?$Ptr@VSetGlobalAmbientLightColor@Graphics@@@@QAE@PAVSetGlobalAmbientLightColor@Graphics@@@Z 004456d0 f i render_win32.release:globallightentity.obj
 0001:00044710       ??1?$Ptr@VSetGlobalAmbientLightColor@Graphics@@@@QAE@XZ 00445710 f i render_win32.release:globallightentity.obj
 0001:00044740       ??C?$Ptr@VSetGlobalAmbientLightColor@Graphics@@@@QBEPAVSetGlobalAmbientLightColor@Graphics@@XZ 00445740 f i render_win32.release:globallightentity.obj
 0001:00044780       ??$cast@VGraphicsEntityMessage@Graphics@@@?$Ptr@VSetGlobalAmbientLightColor@Graphics@@@@QBEABV?$Ptr@VGraphicsEntityMessage@Graphics@@@@XZ 00445780 f i render_win32.release:globallightentity.obj
 0001:00044790       ??0?$Ptr@VSetGlobalBackLightOffset@Graphics@@@@QAE@PAVSetGlobalBackLightOffset@Graphics@@@Z 00445790 f i render_win32.release:globallightentity.obj
 0001:000447d0       ??1?$Ptr@VSetGlobalBackLightOffset@Graphics@@@@QAE@XZ 004457d0 f i render_win32.release:globallightentity.obj
 0001:00044800       ??C?$Ptr@VSetGlobalBackLightOffset@Graphics@@@@QBEPAVSetGlobalBackLightOffset@Graphics@@XZ 00445800 f i render_win32.release:globallightentity.obj
 0001:00044840       ??$cast@VGraphicsEntityMessage@Graphics@@@?$Ptr@VSetGlobalBackLightOffset@Graphics@@@@QBEABV?$Ptr@VGraphicsEntityMessage@Graphics@@@@XZ 00445840 f i render_win32.release:globallightentity.obj
 0001:00044850       ??0?$Ptr@VSetGlobalLightParams@Graphics@@@@QAE@PAVSetGlobalLightParams@Graphics@@@Z 00445850 f i render_win32.release:globallightentity.obj
 0001:00044890       ??1?$Ptr@VSetGlobalLightParams@Graphics@@@@QAE@XZ 00445890 f i render_win32.release:globallightentity.obj
 0001:000448c0       ??C?$Ptr@VSetGlobalLightParams@Graphics@@@@QBEPAVSetGlobalLightParams@Graphics@@XZ 004458c0 f i render_win32.release:globallightentity.obj
 0001:00044900       ??$cast@VGraphicsEntityMessage@Graphics@@@?$Ptr@VSetGlobalLightParams@Graphics@@@@QBEABV?$Ptr@VGraphicsEntityMessage@Graphics@@@@XZ 00445900 f i render_win32.release:globallightentity.obj
 0001:00044910       ?identity@matrix44@Math@@SA?AV12@XZ 00445910 f i render_win32.release:graphicsentity.obj
 0001:000449c0       ??0bbox@Math@@QAE@XZ       004459c0 f i render_win32.release:graphicsentity.obj
 0001:00044ad0       ??0GraphicsEntityShared@Shared@@QAE@XZ 00445ad0 f i render_win32.release:graphicsentity.obj
 0001:00044b30       ?IsValid@ObjectRef@Threading@@QBE_NXZ 00445b30 f i render_win32.release:graphicsentity.obj
 0001:00044b50       ?SetObjectRef@CreateGraphicsEntity@Graphics@@QAEXABV?$Ptr@VObjectRef@Threading@@@@@Z 00445b50 f i render_win32.release:graphicsentity.obj
 0001:00044b90       ?SetSharedData@CreateGraphicsEntity@Graphics@@QAEXABV?$Ptr@VFrameSyncSharedData@FrameSync@@@@@Z 00445b90 f i render_win32.release:graphicsentity.obj
 0001:00044bd0       ?SetObjectRef@GraphicsEntityMessage@Graphics@@QAEXABV?$Ptr@VObjectRef@Threading@@@@@Z 00445bd0 f i render_win32.release:graphicsentity.obj
 0001:00044c10       ?SetTransform@UpdateTransform@Graphics@@QAEXABVmatrix44@Math@@@Z 00445c10 f i render_win32.release:graphicsentity.obj
 0001:00044c90       ?SetVisible@SetVisibility@Graphics@@QAEX_N@Z 00445c90 f i render_win32.release:graphicsentity.obj
 0001:00044cd0       ??2GraphicsEntity@Graphics@@SAPAXI@Z 00445cd0 f i render_win32.release:graphicsentity.obj
 0001:00044ce0       ??3GraphicsEntity@Graphics@@SAXPAX@Z 00445ce0 f i render_win32.release:graphicsentity.obj
 0001:00044d00       ?IsObjectRefValid@GraphicsEntity@Graphics@@QBE_NXZ 00445d00 f i render_win32.release:graphicsentity.obj
 0001:00044d30       ?GetRtti@GraphicsEntity@Graphics@@UBEPAVRtti@Core@@XZ 00445d30 f   render_win32.release:graphicsentity.obj
 0001:00044d40       ?FactoryCreator@GraphicsEntity@Graphics@@SAPAVRefCounted@Core@@XZ 00445d40 f   render_win32.release:graphicsentity.obj
 0001:00044d50       ?Create@GraphicsEntity@Graphics@@SAPAV12@XZ 00445d50 f   render_win32.release:graphicsentity.obj
 0001:00044d90       ?RegisterWithFactory@GraphicsEntity@Graphics@@SA_NXZ 00445d90 f   render_win32.release:graphicsentity.obj
 0001:00044e90       ??0GraphicsEntity@Graphics@@QAE@XZ 00445e90 f   render_win32.release:graphicsentity.obj
 0001:00044fe0       ??_GGraphicsEntity@Graphics@@UAEPAXI@Z 00445fe0 f i render_win32.release:graphicsentity.obj
 0001:00044fe0       ??_EGraphicsEntity@Graphics@@UAEPAXI@Z 00445fe0 f i  CIL library: CIL module
 0001:00045010       ??1GraphicsEntity@Graphics@@UAE@XZ 00446010 f   render_win32.release:graphicsentity.obj
 0001:00045070       ?IsValid@GraphicsEntity@Graphics@@QBE_NXZ 00446070 f   render_win32.release:graphicsentity.obj
 0001:00045090       ?GetStage@GraphicsEntity@Graphics@@QBEABV?$Ptr@VStage@Graphics@@@@XZ 00446090 f   render_win32.release:graphicsentity.obj
 0001:000450b0       ?Setup@GraphicsEntity@Graphics@@MAEXABV?$Ptr@VStage@Graphics@@@@@Z 004460b0 f   render_win32.release:graphicsentity.obj
 0001:00045160       ?Discard@GraphicsEntity@Graphics@@MAEXXZ 00446160 f   render_win32.release:graphicsentity.obj
 0001:00045250       ?OnSetupSharedData@GraphicsEntity@Graphics@@MAEXXZ 00446250 f   render_win32.release:graphicsentity.obj
 0001:000452c0       ?OnDiscardSharedData@GraphicsEntity@Graphics@@MAEXXZ 004462c0 f   render_win32.release:graphicsentity.obj
 0001:00045320       ?SendMsg@GraphicsEntity@Graphics@@QAEXABV?$Ptr@VGraphicsEntityMessage@Graphics@@@@@Z 00446320 f   render_win32.release:graphicsentity.obj
 0001:000453d0       ?SendCreateMsg@GraphicsEntity@Graphics@@IAEXABV?$Ptr@VCreateGraphicsEntity@Graphics@@@@@Z 004463d0 f   render_win32.release:graphicsentity.obj
 0001:000454d0       ?SetTransform@GraphicsEntity@Graphics@@QAEXABVmatrix44@Math@@@Z 004464d0 f   render_win32.release:graphicsentity.obj
 0001:00045540       ?OnTransformChanged@GraphicsEntity@Graphics@@MAEXXZ 00446540 f   render_win32.release:graphicsentity.obj
 0001:000455a0       ?SetVisible@GraphicsEntity@Graphics@@QAEX_N@Z 004465a0 f   render_win32.release:graphicsentity.obj
 0001:00045630       ??0?$Ptr@VFrameSyncSharedData@FrameSync@@@@QAE@XZ 00446630 f i render_win32.release:graphicsentity.obj
 0001:00045650       ??1?$Ptr@VFrameSyncSharedData@FrameSync@@@@QAE@XZ 00446650 f i render_win32.release:graphicsentity.obj
 0001:00045680       ??4?$Ptr@VFrameSyncSharedData@FrameSync@@@@QAEXPAVFrameSyncSharedData@FrameSync@@@Z 00446680 f i render_win32.release:graphicsentity.obj
 0001:000456e0       ??4?$Ptr@VFrameSyncSharedData@FrameSync@@@@QAEXABV0@@Z 004466e0 f i render_win32.release:graphicsentity.obj
 0001:00045740       ??C?$Ptr@VFrameSyncSharedData@FrameSync@@@@QBEPAVFrameSyncSharedData@FrameSync@@XZ 00446740 f i render_win32.release:graphicsentity.obj
 0001:00045780       ?isvalid@?$Ptr@VFrameSyncSharedData@FrameSync@@@@QBE_NXZ 00446780 f i render_win32.release:graphicsentity.obj
 0001:000457a0       ??0?$Ptr@VObjectRef@Threading@@@@QAE@XZ 004467a0 f i render_win32.release:graphicsentity.obj
 0001:000457c0       ??1?$Ptr@VObjectRef@Threading@@@@QAE@XZ 004467c0 f i render_win32.release:graphicsentity.obj
 0001:000457f0       ??4?$Ptr@VObjectRef@Threading@@@@QAEXPAVObjectRef@Threading@@@Z 004467f0 f i render_win32.release:graphicsentity.obj
 0001:00045850       ??4?$Ptr@VObjectRef@Threading@@@@QAEXABV0@@Z 00446850 f i render_win32.release:graphicsentity.obj
 0001:000458b0       ??C?$Ptr@VObjectRef@Threading@@@@QBEPAVObjectRef@Threading@@XZ 004468b0 f i render_win32.release:graphicsentity.obj
 0001:000458f0       ?isvalid@?$Ptr@VObjectRef@Threading@@@@QBE_NXZ 004468f0 f i render_win32.release:graphicsentity.obj
 0001:00045910       ??0?$Ptr@VDiscardGraphicsEntity@Graphics@@@@QAE@PAVDiscardGraphicsEntity@Graphics@@@Z 00446910 f i render_win32.release:graphicsentity.obj
 0001:00045950       ??1?$Ptr@VDiscardGraphicsEntity@Graphics@@@@QAE@XZ 00446950 f i render_win32.release:graphicsentity.obj
 0001:00045980       ??C?$Ptr@VDiscardGraphicsEntity@Graphics@@@@QBEPAVDiscardGraphicsEntity@Graphics@@XZ 00446980 f i render_win32.release:graphicsentity.obj
 0001:000459c0       ??$cast@VMessage@Messaging@@@?$Ptr@VDiscardGraphicsEntity@Graphics@@@@QBEABV?$Ptr@VMessage@Messaging@@@@XZ 004469c0 f i render_win32.release:graphicsentity.obj
 0001:000459d0       ??$OwnerSetup@VGraphicsEntityShared@Shared@@@FrameSyncSharedData@FrameSync@@QAEXPAVGraphicsEntityShared@Shared@@@Z 004469d0 f i render_win32.release:graphicsentity.obj
 0001:00045a80       ??$OwnerDiscard@VGraphicsEntityShared@Shared@@@FrameSyncSharedData@FrameSync@@QAEXPAVGraphicsEntityShared@Shared@@@Z 00446a80 f i render_win32.release:graphicsentity.obj
 0001:00045ae0       ??C?$Ptr@VGraphicsEntityMessage@Graphics@@@@QBEPAVGraphicsEntityMessage@Graphics@@XZ 00446ae0 f i render_win32.release:graphicsentity.obj
 0001:00045b20       ??$cast@VMessage@Messaging@@@?$Ptr@VGraphicsEntityMessage@Graphics@@@@QBEABV?$Ptr@VMessage@Messaging@@@@XZ 00446b20 f i render_win32.release:graphicsentity.obj
 0001:00045b30       ??C?$Ptr@VCreateGraphicsEntity@Graphics@@@@QBEPAVCreateGraphicsEntity@Graphics@@XZ 00446b30 f i render_win32.release:graphicsentity.obj
 0001:00045b70       ??$cast@VMessage@Messaging@@@?$Ptr@VCreateGraphicsEntity@Graphics@@@@QBEABV?$Ptr@VMessage@Messaging@@@@XZ 00446b70 f i render_win32.release:graphicsentity.obj
 0001:00045b80       ??0?$Ptr@VUpdateTransform@Graphics@@@@QAE@PAVUpdateTransform@Graphics@@@Z 00446b80 f i render_win32.release:graphicsentity.obj
 0001:00045bc0       ??1?$Ptr@VUpdateTransform@Graphics@@@@QAE@XZ 00446bc0 f i render_win32.release:graphicsentity.obj
 0001:00045bf0       ??C?$Ptr@VUpdateTransform@Graphics@@@@QBEPAVUpdateTransform@Graphics@@XZ 00446bf0 f i render_win32.release:graphicsentity.obj
 0001:00045c30       ??$cast@VGraphicsEntityMessage@Graphics@@@?$Ptr@VUpdateTransform@Graphics@@@@QBEABV?$Ptr@VGraphicsEntityMessage@Graphics@@@@XZ 00446c30 f i render_win32.release:graphicsentity.obj
 0001:00045c40       ??0?$Ptr@VSetVisibility@Graphics@@@@QAE@PAVSetVisibility@Graphics@@@Z 00446c40 f i render_win32.release:graphicsentity.obj
 0001:00045c80       ??1?$Ptr@VSetVisibility@Graphics@@@@QAE@XZ 00446c80 f i render_win32.release:graphicsentity.obj
 0001:00045cb0       ??C?$Ptr@VSetVisibility@Graphics@@@@QBEPAVSetVisibility@Graphics@@XZ 00446cb0 f i render_win32.release:graphicsentity.obj
 0001:00045cf0       ??$cast@VGraphicsEntityMessage@Graphics@@@?$Ptr@VSetVisibility@Graphics@@@@QBEABV?$Ptr@VGraphicsEntityMessage@Graphics@@@@XZ 00446cf0 f i render_win32.release:graphicsentity.obj
 0001:00045d00       ??$CreateDataObjects@VGraphicsEntityShared@Shared@@@FrameSyncSharedData@FrameSync@@AAEXPAVGraphicsEntityShared@Shared@@@Z 00446d00 f i render_win32.release:graphicsentity.obj
 0001:00045df0       ??$DestroyDataObjects@VGraphicsEntityShared@Shared@@@FrameSyncSharedData@FrameSync@@AAEXPAVGraphicsEntityShared@Shared@@@Z 00446df0 f i render_win32.release:graphicsentity.obj
 0001:00045eb0       ?SetColor@SetLightColor@Graphics@@QAEXABVfloat4@Math@@@Z 00446eb0 f i render_win32.release:abstractlightentity.obj
 0001:00045f00       ?SetCastShadows@SetLightCastShadows@Graphics@@QAEX_N@Z 00446f00 f i render_win32.release:abstractlightentity.obj
 0001:00045f40       ?SetType@GraphicsEntity@Graphics@@IAEXW4Code@InternalGraphicsEntityType@InternalGraphics@@@Z 00446f40 f i render_win32.release:abstractlightentity.obj
 0001:00045f60       ??2AbstractLightEntity@Graphics@@SAPAXI@Z 00446f60 f i render_win32.release:abstractlightentity.obj
 0001:00045f70       ??3AbstractLightEntity@Graphics@@SAXPAX@Z 00446f70 f i render_win32.release:abstractlightentity.obj
 0001:00045f90       ?GetRtti@AbstractLightEntity@Graphics@@UBEPAVRtti@Core@@XZ 00446f90 f   render_win32.release:abstractlightentity.obj
 0001:00045fa0       ?FactoryCreator@AbstractLightEntity@Graphics@@SAPAVRefCounted@Core@@XZ 00446fa0 f   render_win32.release:abstractlightentity.obj
 0001:00045fb0       ?Create@AbstractLightEntity@Graphics@@SAPAV12@XZ 00446fb0 f   render_win32.release:abstractlightentity.obj
 0001:00045ff0       ?RegisterWithFactory@AbstractLightEntity@Graphics@@SA_NXZ 00446ff0 f   render_win32.release:abstractlightentity.obj
 0001:000460f0       ??0AbstractLightEntity@Graphics@@QAE@XZ 004470f0 f   render_win32.release:abstractlightentity.obj
 0001:00046250       ??_GAbstractLightEntity@Graphics@@UAEPAXI@Z 00447250 f i render_win32.release:abstractlightentity.obj
 0001:00046250       ??_EAbstractLightEntity@Graphics@@UAEPAXI@Z 00447250 f i  CIL library: CIL module
 0001:00046280       ??1AbstractLightEntity@Graphics@@UAE@XZ 00447280 f   render_win32.release:abstractlightentity.obj
 0001:000462a0       ?SetColor@AbstractLightEntity@Graphics@@QAEXABVfloat4@Math@@@Z 004472a0 f   render_win32.release:abstractlightentity.obj
 0001:00046340       ?SetCastShadows@AbstractLightEntity@Graphics@@QAEX_N@Z 00447340 f   render_win32.release:abstractlightentity.obj
 0001:000463d0       ??0?$Ptr@VSetLightColor@Graphics@@@@QAE@PAVSetLightColor@Graphics@@@Z 004473d0 f i render_win32.release:abstractlightentity.obj
 0001:00046410       ??1?$Ptr@VSetLightColor@Graphics@@@@QAE@XZ 00447410 f i render_win32.release:abstractlightentity.obj
 0001:00046440       ??C?$Ptr@VSetLightColor@Graphics@@@@QBEPAVSetLightColor@Graphics@@XZ 00447440 f i render_win32.release:abstractlightentity.obj
 0001:00046480       ??$cast@VGraphicsEntityMessage@Graphics@@@?$Ptr@VSetLightColor@Graphics@@@@QBEABV?$Ptr@VGraphicsEntityMessage@Graphics@@@@XZ 00447480 f i render_win32.release:abstractlightentity.obj
 0001:00046490       ??0?$Ptr@VSetLightCastShadows@Graphics@@@@QAE@PAVSetLightCastShadows@Graphics@@@Z 00447490 f i render_win32.release:abstractlightentity.obj
 0001:000464d0       ??1?$Ptr@VSetLightCastShadows@Graphics@@@@QAE@XZ 004474d0 f i render_win32.release:abstractlightentity.obj
 0001:00046500       ??C?$Ptr@VSetLightCastShadows@Graphics@@@@QBEPAVSetLightCastShadows@Graphics@@XZ 00447500 f i render_win32.release:abstractlightentity.obj
 0001:00046540       ??$cast@VGraphicsEntityMessage@Graphics@@@?$Ptr@VSetLightCastShadows@Graphics@@@@QBEABV?$Ptr@VGraphicsEntityMessage@Graphics@@@@XZ 00447540 f i render_win32.release:abstractlightentity.obj
 0001:00046550       ?Handled@Message@Messaging@@QBE_NXZ 00447550 f i render_win32.release:stage.obj
 0001:00046570       ?SetName@CreateGraphicsStage@Graphics@@QAEXABVStringAtom@Util@@@Z 00447570 f i render_win32.release:stage.obj
 0001:000465b0       ?SetVisibleSystems@CreateGraphicsStage@Graphics@@QAEXABV?$Array@V?$Ptr@VVisibilitySystemBase@Visibility@@@@@Util@@@Z 004475b0 f i render_win32.release:stage.obj
 0001:000465f0       ?SetObjectRef@CreateGraphicsStage@Graphics@@QAEXABV?$Ptr@VObjectRef@Threading@@@@@Z 004475f0 f i render_win32.release:stage.obj
 0001:00046630       ?SetObjectRef@DiscardGraphicsStage@Graphics@@QAEXABV?$Ptr@VObjectRef@Threading@@@@@Z 00447630 f i render_win32.release:stage.obj
 0001:00046670       ?GetType@GraphicsEntity@Graphics@@QBE?AW4Code@InternalGraphicsEntityType@InternalGraphics@@XZ 00447670 f i render_win32.release:stage.obj
 0001:00046690       ??2Stage@Graphics@@SAPAXI@Z 00447690 f i render_win32.release:stage.obj
 0001:000466a0       ??3Stage@Graphics@@SAXPAX@Z 004476a0 f i render_win32.release:stage.obj
 0001:000466c0       ?IsValid@Stage@Graphics@@QBE_NXZ 004476c0 f i render_win32.release:stage.obj
 0001:000466e0       ?GetRtti@Stage@Graphics@@UBEPAVRtti@Core@@XZ 004476e0 f   render_win32.release:stage.obj
 0001:000466f0       ?FactoryCreator@Stage@Graphics@@SAPAVRefCounted@Core@@XZ 004476f0 f   render_win32.release:stage.obj
 0001:00046700       ?Create@Stage@Graphics@@SAPAV12@XZ 00447700 f   render_win32.release:stage.obj
 0001:00046740       ?RegisterWithFactory@Stage@Graphics@@SA_NXZ 00447740 f   render_win32.release:stage.obj
 0001:00046840       ??0Stage@Graphics@@QAE@XZ  00447840 f   render_win32.release:stage.obj
 0001:000468d0       ??_GStage@Graphics@@UAEPAXI@Z 004478d0 f i render_win32.release:stage.obj
 0001:000468d0       ??_EStage@Graphics@@UAEPAXI@Z 004478d0 f i  CIL library: CIL module
 0001:00046900       ??1Stage@Graphics@@UAE@XZ  00447900 f   render_win32.release:stage.obj
 0001:000469b0       ?Setup@Stage@Graphics@@AAEXABV?$Array@V?$Ptr@VVisibilitySystemBase@Visibility@@@@@Util@@@Z 004479b0 f   render_win32.release:stage.obj
 0001:00046bb0       ?Discard@Stage@Graphics@@AAEXXZ 00447bb0 f   render_win32.release:stage.obj
 0001:00046cc0       ?AttachEntity@Stage@Graphics@@QAEXABV?$Ptr@VGraphicsEntity@Graphics@@@@@Z 00447cc0 f   render_win32.release:stage.obj
 0001:00046d90       ?RemoveEntity@Stage@Graphics@@QAEXABV?$Ptr@VGraphicsEntity@Graphics@@@@@Z 00447d90 f   render_win32.release:stage.obj
 0001:00046f20       ?OnFrame@Stage@Graphics@@AAEXXZ 00447f20 f   render_win32.release:stage.obj
 0001:00046f60       ??4?$Array@V?$Ptr@VVisibilitySystemBase@Visibility@@@@@Util@@QAEXABV01@@Z 00447f60 f i render_win32.release:stage.obj
 0001:00047050       ??0?$Ptr@VStage@Graphics@@@@QAE@PAVStage@Graphics@@@Z 00448050 f i render_win32.release:stage.obj
 0001:00047090       ?get@?$Ptr@VStage@Graphics@@@@QBEPAVStage@Graphics@@XZ 00448090 f i render_win32.release:stage.obj
 0001:000470d0       ??0?$Array@V?$Ptr@VGraphicsEntity@Graphics@@@@@Util@@QAE@XZ 004480d0 f i render_win32.release:stage.obj
 0001:00047110       ??1?$Array@V?$Ptr@VGraphicsEntity@Graphics@@@@@Util@@QAE@XZ 00448110 f i render_win32.release:stage.obj
 0001:00047130       ?Append@?$Array@V?$Ptr@VGraphicsEntity@Graphics@@@@@Util@@QAEXABV?$Ptr@VGraphicsEntity@Graphics@@@@@Z 00448130 f i render_win32.release:stage.obj
 0001:000471b0       ?EraseIndex@?$Array@V?$Ptr@VGraphicsEntity@Graphics@@@@@Util@@QAEXH@Z 004481b0 f i render_win32.release:stage.obj
 0001:00047230       ?Clear@?$Array@V?$Ptr@VGraphicsEntity@Graphics@@@@@Util@@QAEXXZ 00448230 f i render_win32.release:stage.obj
 0001:00047280       ?FindIndex@?$Array@V?$Ptr@VGraphicsEntity@Graphics@@@@@Util@@QBEHABV?$Ptr@VGraphicsEntity@Graphics@@@@@Z 00448280 f i render_win32.release:stage.obj
 0001:000472e0       ??0?$Ptr@VCreateGraphicsStage@Graphics@@@@QAE@PAVCreateGraphicsStage@Graphics@@@Z 004482e0 f i render_win32.release:stage.obj
 0001:00047320       ??1?$Ptr@VCreateGraphicsStage@Graphics@@@@QAE@XZ 00448320 f i render_win32.release:stage.obj
 0001:00047350       ??C?$Ptr@VCreateGraphicsStage@Graphics@@@@QBEPAVCreateGraphicsStage@Graphics@@XZ 00448350 f i render_win32.release:stage.obj
 0001:00047390       ??$cast@VMessage@Messaging@@@?$Ptr@VCreateGraphicsStage@Graphics@@@@QBEABV?$Ptr@VMessage@Messaging@@@@XZ 00448390 f i render_win32.release:stage.obj
 0001:000473a0       ??$SendWait@VMessage@Messaging@@@AsyncPort@Messaging@@QAEXABV?$Ptr@VMessage@Messaging@@@@@Z 004483a0 f i render_win32.release:stage.obj
 0001:000473c0       ??0?$Ptr@VDiscardGraphicsStage@Graphics@@@@QAE@PAVDiscardGraphicsStage@Graphics@@@Z 004483c0 f i render_win32.release:stage.obj
 0001:00047400       ??1?$Ptr@VDiscardGraphicsStage@Graphics@@@@QAE@XZ 00448400 f i render_win32.release:stage.obj
 0001:00047430       ??C?$Ptr@VDiscardGraphicsStage@Graphics@@@@QBEPAVDiscardGraphicsStage@Graphics@@XZ 00448430 f i render_win32.release:stage.obj
 0001:00047470       ??$cast@VMessage@Messaging@@@?$Ptr@VDiscardGraphicsStage@Graphics@@@@QBEABV?$Ptr@VMessage@Messaging@@@@XZ 00448470 f i render_win32.release:stage.obj
 0001:00047480       ??C?$Ptr@VGraphicsEntity@Graphics@@@@QBEPAVGraphicsEntity@Graphics@@XZ 00448480 f i render_win32.release:stage.obj
 0001:000474c0       ?Destroy@?$Array@V?$Ptr@VVisibilitySystemBase@Visibility@@@@@Util@@AAEXPAV?$Ptr@VVisibilitySystemBase@Visibility@@@@@Z 004484c0 f i render_win32.release:stage.obj
 0001:000474f0       ?Copy@?$Array@V?$Ptr@VVisibilitySystemBase@Visibility@@@@@Util@@AAEXABV12@@Z 004484f0 f i render_win32.release:stage.obj
 0001:00047620       ?Destroy@?$Array@V?$Ptr@VGraphicsEntity@Graphics@@@@@Util@@AAEXPAV?$Ptr@VGraphicsEntity@Graphics@@@@@Z 00448620 f i render_win32.release:stage.obj
 0001:00047650       ?Delete@?$Array@V?$Ptr@VGraphicsEntity@Graphics@@@@@Util@@AAEXXZ 00448650 f i render_win32.release:stage.obj
 0001:000476c0       ?Grow@?$Array@V?$Ptr@VGraphicsEntity@Graphics@@@@@Util@@AAEXXZ 004486c0 f i render_win32.release:stage.obj
 0001:00047740       ?Move@?$Array@V?$Ptr@VGraphicsEntity@Graphics@@@@@Util@@AAEXHH@Z 00448740 f i render_win32.release:stage.obj
 0001:000478d0       ??4?$Ptr@VGraphicsEntity@Graphics@@@@QAEXABV0@@Z 004488d0 f i render_win32.release:stage.obj
 0001:00047930       ??8?$Ptr@VGraphicsEntity@Graphics@@@@QBE_NABV0@@Z 00448930 f i render_win32.release:stage.obj
 0001:00047950       ??_G?$Ptr@VVisibilitySystemBase@Visibility@@@@QAEPAXI@Z 00448950 f i render_win32.release:stage.obj
 0001:00047980       ??_G?$Ptr@VGraphicsEntity@Graphics@@@@QAEPAXI@Z 00448980 f i render_win32.release:stage.obj
 0001:000479b0       ??_E?$Ptr@VGraphicsEntity@Graphics@@@@QAEPAXI@Z 004489b0 f i render_win32.release:stage.obj
 0001:00047a50       ?GrowTo@?$Array@V?$Ptr@VGraphicsEntity@Graphics@@@@@Util@@AAEXH@Z 00448a50 f i render_win32.release:stage.obj
 0001:00047b70       ??1?$Ptr@VGraphicsEntity@Graphics@@@@QAE@XZ 00448b70 f i render_win32.release:stage.obj
 0001:00047ba0       ??0?$Ptr@VGraphicsEntity@Graphics@@@@QAE@XZ 00448ba0 f i render_win32.release:stage.obj
 0001:00047bc0       ?n_abs@Math@@YAMM@Z        00448bc0 f i render_win32.release:pointlightentity.obj
 0001:00047bf0       ??Gfloat4@Math@@QBE?AV01@ABV01@@Z 00448bf0 f i render_win32.release:pointlightentity.obj
 0001:00047c50       ?cross3@float4@Math@@SA?AV12@ABV12@0@Z 00448c50 f i render_win32.release:pointlightentity.obj
 0001:00047dc0       ?dot3@float4@Math@@SAMABV12@0@Z 00448dc0 f i render_win32.release:pointlightentity.obj
 0001:00047ed0       ?normalize@float4@Math@@SA?AV12@ABV12@@Z 00448ed0 f i render_win32.release:pointlightentity.obj
 0001:00048310       ?equal3_all@float4@Math@@SA_NABV12@0@Z 00449310 f i render_win32.release:pointlightentity.obj
 0001:000483a0       ?unpack_x@float4@Math@@SAMT__m128@@@Z 004493a0 f i render_win32.release:pointlightentity.obj
 0001:000483d0       ?permute_control@float4@Math@@SA?AV12@IIII@Z 004493d0 f i render_win32.release:pointlightentity.obj
 0001:00048430       ?permute@float4@Math@@SA?AV12@ABV12@00@Z 00449430 f i render_win32.release:pointlightentity.obj
 0001:00048500       ?setrow0@matrix44@Math@@QAEXABVfloat4@2@@Z 00449500 f i render_win32.release:pointlightentity.obj
 0001:00048520       ?getrow0@matrix44@Math@@QBEABVfloat4@2@XZ 00449520 f i render_win32.release:pointlightentity.obj
 0001:00048530       ?setrow1@matrix44@Math@@QAEXABVfloat4@2@@Z 00449530 f i render_win32.release:pointlightentity.obj
 0001:00048560       ?getrow1@matrix44@Math@@QBEABVfloat4@2@XZ 00449560 f i render_win32.release:pointlightentity.obj
 0001:00048580       ?setrow2@matrix44@Math@@QAEXABVfloat4@2@@Z 00449580 f i render_win32.release:pointlightentity.obj
 0001:000485b0       ?getrow2@matrix44@Math@@QBEABVfloat4@2@XZ 004495b0 f i render_win32.release:pointlightentity.obj
 0001:000485d0       ?lookatrh@matrix44@Math@@SA?AV12@ABVfloat4@2@00@Z 004495d0 f i render_win32.release:pointlightentity.obj
 0001:00049570       ?SetLightColor@CreatePointLightEntity@Graphics@@QAEXABVfloat4@Math@@@Z 0044a570 f i render_win32.release:pointlightentity.obj
 0001:000495c0       ?SetProjMapUvOffsetAndScale@CreatePointLightEntity@Graphics@@QAEXABVfloat4@Math@@@Z 0044a5c0 f i render_win32.release:pointlightentity.obj
 0001:00049610       ?SetCastShadows@CreatePointLightEntity@Graphics@@QAEX_N@Z 0044a610 f i render_win32.release:pointlightentity.obj
 0001:00049650       ??2PointLightEntity@Graphics@@SAPAXI@Z 0044a650 f i render_win32.release:pointlightentity.obj
 0001:00049660       ??3PointLightEntity@Graphics@@SAXPAX@Z 0044a660 f i render_win32.release:pointlightentity.obj
 0001:00049680       ?GetRtti@PointLightEntity@Graphics@@UBEPAVRtti@Core@@XZ 0044a680 f   render_win32.release:pointlightentity.obj
 0001:00049690       ?FactoryCreator@PointLightEntity@Graphics@@SAPAVRefCounted@Core@@XZ 0044a690 f   render_win32.release:pointlightentity.obj
 0001:000496a0       ?Create@PointLightEntity@Graphics@@SAPAV12@XZ 0044a6a0 f   render_win32.release:pointlightentity.obj
 0001:000496e0       ?RegisterWithFactory@PointLightEntity@Graphics@@SA_NXZ 0044a6e0 f   render_win32.release:pointlightentity.obj
 0001:000497e0       ??0PointLightEntity@Graphics@@QAE@XZ 0044a7e0 f   render_win32.release:pointlightentity.obj
 0001:00049810       ??_EPointLightEntity@Graphics@@UAEPAXI@Z 0044a810 f i  CIL library: CIL module
 0001:00049810       ??_GPointLightEntity@Graphics@@UAEPAXI@Z 0044a810 f i render_win32.release:pointlightentity.obj
 0001:00049840       ??1PointLightEntity@Graphics@@UAE@XZ 0044a840 f i render_win32.release:pointlightentity.obj
 0001:00049860       ?Setup@PointLightEntity@Graphics@@EAEXABV?$Ptr@VStage@Graphics@@@@@Z 0044a860 f   render_win32.release:pointlightentity.obj
 0001:00049a30       ?SetTransformFromPosDirAndRange@PointLightEntity@Graphics@@QAEXABVpoint@Math@@ABVvector@4@M@Z 0044aa30 f   render_win32.release:pointlightentity.obj
 0001:0004ac90       ??0?$Ptr@VCreatePointLightEntity@Graphics@@@@QAE@PAVCreatePointLightEntity@Graphics@@@Z 0044bc90 f i render_win32.release:pointlightentity.obj
 0001:0004acd0       ??1?$Ptr@VCreatePointLightEntity@Graphics@@@@QAE@XZ 0044bcd0 f i render_win32.release:pointlightentity.obj
 0001:0004ad00       ??C?$Ptr@VCreatePointLightEntity@Graphics@@@@QBEPAVCreatePointLightEntity@Graphics@@XZ 0044bd00 f i render_win32.release:pointlightentity.obj
 0001:0004ad40       ??$cast@VCreateGraphicsEntity@Graphics@@@?$Ptr@VCreatePointLightEntity@Graphics@@@@QBEABV?$Ptr@VCreateGraphicsEntity@Graphics@@@@XZ 0044bd40 f i render_win32.release:pointlightentity.obj
 0001:0004ad50       ??BXMVECTORU8@@QBE?AT__m128@@XZ 0044bd50 f i render_win32.release:pointlightentity.obj
 0001:0004ad80       ?XMVectorPermute@@YA?AT__m128@@T1@00@Z 0044bd80 f i render_win32.release:pointlightentity.obj
 0001:0004ae30       ?XMVectorPermuteControl@@YA?AT__m128@@IIII@Z 0044be30 f i render_win32.release:pointlightentity.obj
 0001:0004ae80       ?XMVectorGetXPtr@@YAXPAMT__m128@@@Z 0044be80 f i render_win32.release:pointlightentity.obj
 0001:0004aea0       ?XMVector3EqualR@@YAIT__m128@@0@Z 0044bea0 f i render_win32.release:pointlightentity.obj
 0001:0004af10       ?XMVector4Normalize@@YA?AT__m128@@T1@@Z 0044bf10 f i render_win32.release:pointlightentity.obj
 0001:0004b1c0       ?XMVector3Dot@@YA?AT__m128@@T1@0@Z 0044c1c0 f i render_win32.release:pointlightentity.obj
 0001:0004b290       ?XMVector3Cross@@YA?AT__m128@@T1@0@Z 0044c290 f i render_win32.release:pointlightentity.obj
 0001:0004b3e0       ?n_asin@Math@@YAMM@Z       0044c3e0 f i render_win32.release:spotlightentity.obj
 0001:0004b400       ?n_acos@Math@@YAMM@Z       0044c400 f i render_win32.release:spotlightentity.obj
 0001:0004b420       ?n_sqrt@Math@@YAMM@Z       0044c420 f i render_win32.release:spotlightentity.obj
 0001:0004b440       ?z@float4@Math@@QAEAAMXZ   0044c440 f i render_win32.release:spotlightentity.obj
 0001:0004b460       ?length@float2@Math@@QBEMXZ 0044c460 f i render_win32.release:spotlightentity.obj
 0001:0004b4a0       ?normalize@float2@Math@@SA?AV12@ABV12@@Z 0044c4a0 f i render_win32.release:spotlightentity.obj
 0001:0004b530       ??0vector@Math@@QAE@ABVfloat4@1@@Z 0044c530 f i render_win32.release:spotlightentity.obj
 0001:0004b620       ?rotationyawpitchroll@matrix44@Math@@SA?AV12@MMM@Z 0044c620 f i render_win32.release:spotlightentity.obj
 0001:0004b670       ?SetLightColor@CreateSpotLightEntity@Graphics@@QAEXABVfloat4@Math@@@Z 0044c670 f i render_win32.release:spotlightentity.obj
 0001:0004b6c0       ?SetProjMapUvOffsetAndScale@CreateSpotLightEntity@Graphics@@QAEXABVfloat4@Math@@@Z 0044c6c0 f i render_win32.release:spotlightentity.obj
 0001:0004b710       ?SetCastShadows@CreateSpotLightEntity@Graphics@@QAEX_N@Z 0044c710 f i render_win32.release:spotlightentity.obj
 0001:0004b750       ??2SpotLightEntity@Graphics@@SAPAXI@Z 0044c750 f i render_win32.release:spotlightentity.obj
 0001:0004b760       ??3SpotLightEntity@Graphics@@SAXPAX@Z 0044c760 f i render_win32.release:spotlightentity.obj
 0001:0004b780       ??0polar@Math@@QAE@ABVvector@1@@Z 0044c780 f i render_win32.release:spotlightentity.obj
 0001:0004b7b0       ?set@polar@Math@@QAEXABVvector@2@@Z 0044c7b0 f i render_win32.release:spotlightentity.obj
 0001:0004bf60       ?GetRtti@SpotLightEntity@Graphics@@UBEPAVRtti@Core@@XZ 0044cf60 f   render_win32.release:spotlightentity.obj
 0001:0004bf70       ?FactoryCreator@SpotLightEntity@Graphics@@SAPAVRefCounted@Core@@XZ 0044cf70 f   render_win32.release:spotlightentity.obj
 0001:0004bf80       ?Create@SpotLightEntity@Graphics@@SAPAV12@XZ 0044cf80 f   render_win32.release:spotlightentity.obj
 0001:0004bfc0       ?RegisterWithFactory@SpotLightEntity@Graphics@@SA_NXZ 0044cfc0 f   render_win32.release:spotlightentity.obj
 0001:0004c0c0       ??0SpotLightEntity@Graphics@@QAE@XZ 0044d0c0 f   render_win32.release:spotlightentity.obj
 0001:0004c0f0       ??_ESpotLightEntity@Graphics@@UAEPAXI@Z 0044d0f0 f i  CIL library: CIL module
 0001:0004c0f0       ??_GSpotLightEntity@Graphics@@UAEPAXI@Z 0044d0f0 f i render_win32.release:spotlightentity.obj
 0001:0004c120       ??1SpotLightEntity@Graphics@@UAE@XZ 0044d120 f i render_win32.release:spotlightentity.obj
 0001:0004c140       ?Setup@SpotLightEntity@Graphics@@EAEXABV?$Ptr@VStage@Graphics@@@@@Z 0044d140 f   render_win32.release:spotlightentity.obj
 0001:0004c310       ?SetTransformFromPosDirRangeAndCone@SpotLightEntity@Graphics@@QAEXABVpoint@Math@@ABVvector@4@MM@Z 0044d310 f   render_win32.release:spotlightentity.obj
 0001:0004cdc0       ??0?$Ptr@VCreateSpotLightEntity@Graphics@@@@QAE@PAVCreateSpotLightEntity@Graphics@@@Z 0044ddc0 f i render_win32.release:spotlightentity.obj
 0001:0004ce00       ??1?$Ptr@VCreateSpotLightEntity@Graphics@@@@QAE@XZ 0044de00 f i render_win32.release:spotlightentity.obj
 0001:0004ce30       ??C?$Ptr@VCreateSpotLightEntity@Graphics@@@@QBEPAVCreateSpotLightEntity@Graphics@@XZ 0044de30 f i render_win32.release:spotlightentity.obj
 0001:0004ce70       ??$cast@VCreateGraphicsEntity@Graphics@@@?$Ptr@VCreateSpotLightEntity@Graphics@@@@QBEABV?$Ptr@VCreateGraphicsEntity@Graphics@@@@XZ 0044de70 f i render_win32.release:spotlightentity.obj
 0001:0004ce80       ?XMMatrixRotationQuaternion@@YA?AU_XMMATRIX@@T__m128@@@Z 0044de80 f i render_win32.release:spotlightentity.obj
 0001:0004d350       ?XMMatrixRotationRollPitchYawFromVector@@YA?AU_XMMATRIX@@T__m128@@@Z 0044e350 f i render_win32.release:spotlightentity.obj
 0001:0004e0b0       ?XMMatrixRotationRollPitchYaw@@YA?AU_XMMATRIX@@MMM@Z 0044f0b0 f i render_win32.release:spotlightentity.obj
 0001:0004e180       ?XMQuaternionRotationRollPitchYawFromVector@@YA?AT__m128@@T1@@Z 0044f180 f i render_win32.release:spotlightentity.obj
 0001:0004e970       ?XMVectorMultiplyAdd@@YA?AT__m128@@T1@00@Z 0044f970 f i render_win32.release:spotlightentity.obj
 0001:0004e9c0       ?XMVectorSinCos@@YAXPAT__m128@@0T1@@Z 0044f9c0 f i render_win32.release:spotlightentity.obj
 0001:0004fce0       ??BXMVECTORI32@@QBE?AT__m128i@@XZ 00450ce0 f i render_win32.release:spotlightentity.obj
 0001:0004fd00       ??BXMVECTORF32@@QBE?AT__m128i@@XZ 00450d00 f i render_win32.release:spotlightentity.obj
 0001:0004fd20       ?XMVectorRound@@YA?AT__m128@@T1@@Z 00450d20 f i render_win32.release:spotlightentity.obj
 0001:0004fe70       ?XMVectorModAngles@@YA?AT__m128@@T1@@Z 00450e70 f i render_win32.release:spotlightentity.obj
 0001:00050070       _sqrtf                     00451070 f i render_win32.release:spotlightentity.obj
 0001:00050090       _acosf                     00451090 f i render_win32.release:spotlightentity.obj
 0001:000500b0       ?XMScalarACos@@YAMM@Z      004510b0 f i render_win32.release:spotlightentity.obj
 0001:000500d0       _asinf                     004510d0 f i render_win32.release:spotlightentity.obj
 0001:000500f0       ?XMScalarASin@@YAMM@Z      004510f0 f i render_win32.release:spotlightentity.obj
 0001:00050110       ?Alloc@Win360Heap@Win360@@QAEPAXI@Z 00451110 f i render_win32.release:modelentity.obj
 0001:00050170       ??0float4@Math@@QAE@XZ     00451170 f i render_win32.release:modelentity.obj
 0001:00050180       ?nullvec@vector@Math@@SA?AV12@XZ 00451180 f i render_win32.release:modelentity.obj
 0001:00050210       ??2String@Util@@SAPAXI@Z   00451210 f i render_win32.release:modelentity.obj
 0001:00050230       ??2Win32Guid@Win32@@SAPAXI@Z 00451230 f i render_win32.release:modelentity.obj
 0001:00050250       ??3Win32Guid@Win32@@SAXPAX@Z 00451250 f i render_win32.release:modelentity.obj
 0001:00050270       ??0Win32Guid@Win32@@QAE@XZ 00451270 f i render_win32.release:modelentity.obj
 0001:00050290       ??0Win32Guid@Win32@@QAE@ABV01@@Z 00451290 f i render_win32.release:modelentity.obj
 0001:000502c0       ??2Blob@Util@@SAPAXI@Z     004512c0 f i render_win32.release:modelentity.obj
 0001:000502e0       ??0Blob@Util@@QAE@XZ       004512e0 f i render_win32.release:modelentity.obj
 0001:00050310       ?Allocate@Blob@Util@@AAEXH@Z 00451310 f i render_win32.release:modelentity.obj
 0001:000503e0       ?Copy@Blob@Util@@AAEXPBXH@Z 004513e0 f i render_win32.release:modelentity.obj
 0001:000504c0       ??0Blob@Util@@QAE@ABV01@@Z 004514c0 f i render_win32.release:modelentity.obj
 0001:00050520       ??4Blob@Util@@QAEXABV01@@Z 00451520 f i render_win32.release:modelentity.obj
 0001:00050560       ??8StringAtom@Util@@QBE_NABV01@@Z 00451560 f i render_win32.release:modelentity.obj
 0001:00050580       ?Delete@Variant@Util@@AAEXXZ 00451580 f i render_win32.release:modelentity.obj
 0001:00050b40       ??_GBlob@Util@@QAEPAXI@Z   00451b40 f i render_win32.release:modelentity.obj
 0001:00050b70       ??_G?$Array@H@Util@@QAEPAXI@Z 00451b70 f i render_win32.release:modelentity.obj
 0001:00050ba0       ??_G?$Array@M@Util@@QAEPAXI@Z 00451ba0 f i render_win32.release:modelentity.obj
 0001:00050bd0       ??_G?$Array@_N@Util@@QAEPAXI@Z 00451bd0 f i render_win32.release:modelentity.obj
 0001:00050c00       ??_G?$Array@Vfloat4@Math@@@Util@@QAEPAXI@Z 00451c00 f i render_win32.release:modelentity.obj
 0001:00050c30       ??_G?$Array@Vmatrix44@Math@@@Util@@QAEPAXI@Z 00451c30 f i render_win32.release:modelentity.obj
 0001:00050c60       ??_G?$Array@VString@Util@@@Util@@QAEPAXI@Z 00451c60 f i render_win32.release:modelentity.obj
 0001:00050c90       ??_G?$Array@VWin32Guid@Win32@@@Util@@QAEPAXI@Z 00451c90 f i render_win32.release:modelentity.obj
 0001:00050cc0       ??_G?$Array@VBlob@Util@@@Util@@QAEPAXI@Z 00451cc0 f i render_win32.release:modelentity.obj
 0001:00050cf0       ?Copy@Variant@Util@@AAEXABV12@@Z 00451cf0 f i render_win32.release:modelentity.obj
 0001:000511d0       ??4Variant@Util@@QAEXABV01@@Z 004521d0 f i render_win32.release:modelentity.obj
 0001:00051200       ?GetFrameCount@FrameSyncHandlerThread@FrameSync@@QBEHXZ 00452200 f i render_win32.release:modelentity.obj
 0001:00051220       ?SetResourceId@CreateModelEntity@Graphics@@QAEXABVStringAtom@Util@@@Z 00452220 f i render_win32.release:modelentity.obj
 0001:00051260       ?SetRootNodePath@CreateModelEntity@Graphics@@QAEXABVStringAtom@Util@@@Z 00452260 f i render_win32.release:modelentity.obj
 0001:000512a0       ?SetAnimDrivenMotionEnabled@CreateModelEntity@Graphics@@QAEX_N@Z 004522a0 f i render_win32.release:modelentity.obj
 0001:000512e0       ?SetAnimDrivenMotionJointName@CreateModelEntity@Graphics@@QAEXABVStringAtom@Util@@@Z 004522e0 f i render_win32.release:modelentity.obj
 0001:00051320       ?SetAnimEventsEnabled@CreateModelEntity@Graphics@@QAEX_N@Z 00452320 f i render_win32.release:modelentity.obj
 0001:00051360       ?SetAnimEventsOnlyDominatingClip@CreateModelEntity@Graphics@@QAEX_N@Z 00452360 f i render_win32.release:modelentity.obj
 0001:000513a0       ?SetCharJointTrackingEnabled@CreateModelEntity@Graphics@@QAEX_N@Z 004523a0 f i render_win32.release:modelentity.obj
 0001:000513e0       ?SetTrackedCharJointNames@CreateModelEntity@Graphics@@QAEXABV?$Array@VStringAtom@Util@@@Util@@@Z 004523e0 f i render_win32.release:modelentity.obj
 0001:00051420       ?SetJointName@AddTrackedCharJoint@Graphics@@QAEXABVStringAtom@Util@@@Z 00452420 f i render_win32.release:modelentity.obj
 0001:00051460       ?SetModelNodeInstanceName@UpdModelNodeInstanceShaderVariable@Graphics@@QAEXABVStringAtom@Util@@@Z 00452460 f i render_win32.release:modelentity.obj
 0001:000514a0       ?SetSemantic@UpdModelNodeInstanceShaderVariable@Graphics@@QAEXABVStringAtom@Util@@@Z 004524a0 f i render_win32.release:modelentity.obj
 0001:000514e0       ?SetValue@UpdModelNodeInstanceShaderVariable@Graphics@@QAEXABVVariant@Util@@@Z 004524e0 f i render_win32.release:modelentity.obj
 0001:00051530       ?SetModelNodeInstanceName@UpdModelNodeInstanceVisibility@Graphics@@QAEXABVStringAtom@Util@@@Z 00452530 f i render_win32.release:modelentity.obj
 0001:00051570       ?SetVisible@UpdModelNodeInstanceVisibility@Graphics@@QAEX_N@Z 00452570 f i render_win32.release:modelentity.obj
 0001:000515b0       ?GetJointName@CharJointInfo@Shared@@QBEABVStringAtom@Util@@XZ 004525b0 f i render_win32.release:modelentity.obj
 0001:000515d0       ??0ModelEntityShared@Shared@@QAE@XZ 004525d0 f i render_win32.release:modelentity.obj
 0001:000516a0       ??2ModelEntity@Graphics@@SAPAXI@Z 004526a0 f i render_win32.release:modelentity.obj
 0001:000516b0       ??3ModelEntity@Graphics@@SAXPAX@Z 004526b0 f i render_win32.release:modelentity.obj
 0001:000516d0       ?GetRtti@ModelEntity@Graphics@@UBEPAVRtti@Core@@XZ 004526d0 f   render_win32.release:modelentity.obj
 0001:000516e0       ?FactoryCreator@ModelEntity@Graphics@@SAPAVRefCounted@Core@@XZ 004526e0 f   render_win32.release:modelentity.obj
 0001:000516f0       ?Create@ModelEntity@Graphics@@SAPAV12@XZ 004526f0 f   render_win32.release:modelentity.obj
 0001:00051730       ?RegisterWithFactory@ModelEntity@Graphics@@SA_NXZ 00452730 f   render_win32.release:modelentity.obj
 0001:00051830       ??0ModelEntity@Graphics@@QAE@XZ 00452830 f   render_win32.release:modelentity.obj
 0001:000519b0       ??_EModelEntity@Graphics@@UAEPAXI@Z 004529b0 f i  CIL library: CIL module
 0001:000519b0       ??_GModelEntity@Graphics@@UAEPAXI@Z 004529b0 f i render_win32.release:modelentity.obj
 0001:000519e0       ??1ModelEntity@Graphics@@UAE@XZ 004529e0 f   render_win32.release:modelentity.obj
 0001:00051a30       ?ConfigureAnimDrivenMotionTracking@ModelEntity@Graphics@@QAEX_NABVStringAtom@Util@@@Z 00452a30 f   render_win32.release:modelentity.obj
 0001:00051a60       ?ConfigureAnimEventTracking@ModelEntity@Graphics@@QAEX_N0@Z 00452a60 f   render_win32.release:modelentity.obj
 0001:00051a90       ?ConfigureCharJointTracking@ModelEntity@Graphics@@QAEX_NABV?$Array@VStringAtom@Util@@@Util@@@Z 00452a90 f   render_win32.release:modelentity.obj
 0001:00051ac0       ?Setup@ModelEntity@Graphics@@EAEXABV?$Ptr@VStage@Graphics@@@@@Z 00452ac0 f   render_win32.release:modelentity.obj
 0001:00051df0       ?OnSetupSharedData@ModelEntity@Graphics@@EAEXXZ 00452df0 f   render_win32.release:modelentity.obj
 0001:00051e30       ?OnDiscardSharedData@ModelEntity@Graphics@@EAEXXZ 00452e30 f   render_win32.release:modelentity.obj
 0001:00051e60       ?UpdateModelNodeInstanceShaderVariable@ModelEntity@Graphics@@QAEXABVStringAtom@Util@@0ABVVariant@4@@Z 00452e60 f   render_win32.release:modelentity.obj
 0001:00051f40       ?UpdateModelNodeInstanceVisibility@ModelEntity@Graphics@@QAEXABVStringAtom@Util@@_N@Z 00452f40 f   render_win32.release:modelentity.obj
 0001:00052010       ?AddTrackedCharJoint@ModelEntity@Graphics@@QAEXABVStringAtom@Util@@@Z 00453010 f   render_win32.release:modelentity.obj
 0001:000520f0       ?GetTrackedCharJointInfo@ModelEntity@Graphics@@QBEPBVCharJointInfo@Shared@@ABVStringAtom@Util@@@Z 004530f0 f   render_win32.release:modelentity.obj
 0001:000521a0       ??0?$Array@H@Util@@QAE@ABV01@@Z 004531a0 f i render_win32.release:modelentity.obj
 0001:000521f0       ??1?$Array@H@Util@@QAE@XZ  004531f0 f i render_win32.release:modelentity.obj
 0001:00052210       ??0?$Array@M@Util@@QAE@ABV01@@Z 00453210 f i render_win32.release:modelentity.obj
 0001:00052260       ??1?$Array@M@Util@@QAE@XZ  00453260 f i render_win32.release:modelentity.obj
 0001:00052280       ??0?$Array@_N@Util@@QAE@ABV01@@Z 00453280 f i render_win32.release:modelentity.obj
 0001:000522d0       ??1?$Array@_N@Util@@QAE@XZ 004532d0 f i render_win32.release:modelentity.obj
 0001:000522f0       ??0?$Array@Vfloat4@Math@@@Util@@QAE@ABV01@@Z 004532f0 f i render_win32.release:modelentity.obj
 0001:00052340       ??1?$Array@Vfloat4@Math@@@Util@@QAE@XZ 00453340 f i render_win32.release:modelentity.obj
 0001:00052360       ??0?$Array@Vmatrix44@Math@@@Util@@QAE@ABV01@@Z 00453360 f i render_win32.release:modelentity.obj
 0001:000523b0       ??0?$Array@VWin32Guid@Win32@@@Util@@QAE@ABV01@@Z 004533b0 f i render_win32.release:modelentity.obj
 0001:00052400       ??1?$Array@VWin32Guid@Win32@@@Util@@QAE@XZ 00453400 f i render_win32.release:modelentity.obj
 0001:00052420       ??0?$Array@VBlob@Util@@@Util@@QAE@ABV01@@Z 00453420 f i render_win32.release:modelentity.obj
 0001:00052470       ??1?$Array@VBlob@Util@@@Util@@QAE@XZ 00453470 f i render_win32.release:modelentity.obj
 0001:00052490       ??0?$Array@VStringAtom@Util@@@Util@@QAE@XZ 00453490 f i render_win32.release:modelentity.obj
 0001:000524d0       ??1?$Array@VStringAtom@Util@@@Util@@QAE@XZ 004534d0 f i render_win32.release:modelentity.obj
 0001:000524f0       ??4?$Array@VStringAtom@Util@@@Util@@QAEXABV01@@Z 004534f0 f i render_win32.release:modelentity.obj
 0001:000525f0       ?Append@?$Array@VStringAtom@Util@@@Util@@QAEXABVStringAtom@2@@Z 004535f0 f i render_win32.release:modelentity.obj
 0001:00052660       ?FindIndex@?$Array@VStringAtom@Util@@@Util@@QBEHABVStringAtom@2@@Z 00453660 f i render_win32.release:modelentity.obj
 0001:000526c0       ??0?$Array@VAnimEventInfo@Animation@@@Util@@QAE@XZ 004536c0 f i render_win32.release:modelentity.obj
 0001:00052700       ??1?$Array@VAnimEventInfo@Animation@@@Util@@QAE@XZ 00453700 f i render_win32.release:modelentity.obj
 0001:00052720       ??0?$Array@VCharJointInfo@Shared@@@Util@@QAE@XZ 00453720 f i render_win32.release:modelentity.obj
 0001:00052760       ??1?$Array@VCharJointInfo@Shared@@@Util@@QAE@XZ 00453760 f i render_win32.release:modelentity.obj
 0001:00052780       ??A?$Array@VCharJointInfo@Shared@@@Util@@QBEAAVCharJointInfo@Shared@@H@Z 00453780 f i render_win32.release:modelentity.obj
 0001:000527d0       ?Size@?$Array@VCharJointInfo@Shared@@@Util@@QBEHXZ 004537d0 f i render_win32.release:modelentity.obj
 0001:000527f0       ??$Owner@VModelEntityShared@Shared@@@FrameSyncSharedData@FrameSync@@QAEAAVModelEntityShared@Shared@@XZ 004537f0 f i render_win32.release:modelentity.obj
 0001:00052860       ??0?$Ptr@VCreateModelEntity@Graphics@@@@QAE@PAVCreateModelEntity@Graphics@@@Z 00453860 f i render_win32.release:modelentity.obj
 0001:000528a0       ??1?$Ptr@VCreateModelEntity@Graphics@@@@QAE@XZ 004538a0 f i render_win32.release:modelentity.obj
 0001:000528d0       ??C?$Ptr@VCreateModelEntity@Graphics@@@@QBEPAVCreateModelEntity@Graphics@@XZ 004538d0 f i render_win32.release:modelentity.obj
 0001:00052910       ??$cast@VCreateGraphicsEntity@Graphics@@@?$Ptr@VCreateModelEntity@Graphics@@@@QBEABV?$Ptr@VCreateGraphicsEntity@Graphics@@@@XZ 00453910 f i render_win32.release:modelentity.obj
 0001:00052920       ??$OwnerSetup@VModelEntityShared@Shared@@@FrameSyncSharedData@FrameSync@@QAEXPAVModelEntityShared@Shared@@@Z 00453920 f i render_win32.release:modelentity.obj
 0001:000529d0       ??$OwnerDiscard@VModelEntityShared@Shared@@@FrameSyncSharedData@FrameSync@@QAEXPAVModelEntityShared@Shared@@@Z 004539d0 f i render_win32.release:modelentity.obj
 0001:00052a30       ??0?$Ptr@VUpdModelNodeInstanceShaderVariable@Graphics@@@@QAE@PAVUpdModelNodeInstanceShaderVariable@Graphics@@@Z 00453a30 f i render_win32.release:modelentity.obj
 0001:00052a70       ??1?$Ptr@VUpdModelNodeInstanceShaderVariable@Graphics@@@@QAE@XZ 00453a70 f i render_win32.release:modelentity.obj
 0001:00052aa0       ??C?$Ptr@VUpdModelNodeInstanceShaderVariable@Graphics@@@@QBEPAVUpdModelNodeInstanceShaderVariable@Graphics@@XZ 00453aa0 f i render_win32.release:modelentity.obj
 0001:00052ae0       ??$cast@VGraphicsEntityMessage@Graphics@@@?$Ptr@VUpdModelNodeInstanceShaderVariable@Graphics@@@@QBEABV?$Ptr@VGraphicsEntityMessage@Graphics@@@@XZ 00453ae0 f i render_win32.release:modelentity.obj
 0001:00052af0       ??0?$Ptr@VUpdModelNodeInstanceVisibility@Graphics@@@@QAE@PAVUpdModelNodeInstanceVisibility@Graphics@@@Z 00453af0 f i render_win32.release:modelentity.obj
 0001:00052b30       ??1?$Ptr@VUpdModelNodeInstanceVisibility@Graphics@@@@QAE@XZ 00453b30 f i render_win32.release:modelentity.obj
 0001:00052b60       ??C?$Ptr@VUpdModelNodeInstanceVisibility@Graphics@@@@QBEPAVUpdModelNodeInstanceVisibility@Graphics@@XZ 00453b60 f i render_win32.release:modelentity.obj
 0001:00052ba0       ??$cast@VGraphicsEntityMessage@Graphics@@@?$Ptr@VUpdModelNodeInstanceVisibility@Graphics@@@@QBEABV?$Ptr@VGraphicsEntityMessage@Graphics@@@@XZ 00453ba0 f i render_win32.release:modelentity.obj
 0001:00052bb0       ??0?$Ptr@VAddTrackedCharJoint@Graphics@@@@QAE@PAVAddTrackedCharJoint@Graphics@@@Z 00453bb0 f i render_win32.release:modelentity.obj
 0001:00052bf0       ??1?$Ptr@VAddTrackedCharJoint@Graphics@@@@QAE@XZ 00453bf0 f i render_win32.release:modelentity.obj
 0001:00052c20       ??C?$Ptr@VAddTrackedCharJoint@Graphics@@@@QBEPAVAddTrackedCharJoint@Graphics@@XZ 00453c20 f i render_win32.release:modelentity.obj
 0001:00052c60       ??$cast@VGraphicsEntityMessage@Graphics@@@?$Ptr@VAddTrackedCharJoint@Graphics@@@@QBEABV?$Ptr@VGraphicsEntityMessage@Graphics@@@@XZ 00453c60 f i render_win32.release:modelentity.obj
 0001:00052c70       ?Copy@?$Array@H@Util@@AAEXABV12@@Z 00453c70 f i render_win32.release:modelentity.obj
 0001:00052d40       ?Delete@?$Array@H@Util@@AAEXXZ 00453d40 f i render_win32.release:modelentity.obj
 0001:00052da0       ?Copy@?$Array@M@Util@@AAEXABV12@@Z 00453da0 f i render_win32.release:modelentity.obj
 0001:00052e70       ?Delete@?$Array@M@Util@@AAEXXZ 00453e70 f i render_win32.release:modelentity.obj
 0001:00052ed0       ?Copy@?$Array@_N@Util@@AAEXABV12@@Z 00453ed0 f i render_win32.release:modelentity.obj
 0001:00052f90       ?Delete@?$Array@_N@Util@@AAEXXZ 00453f90 f i render_win32.release:modelentity.obj
 0001:00052ff0       ?Copy@?$Array@Vfloat4@Math@@@Util@@AAEXABV12@@Z 00453ff0 f i render_win32.release:modelentity.obj
 0001:00053130       ?Delete@?$Array@Vfloat4@Math@@@Util@@AAEXXZ 00454130 f i render_win32.release:modelentity.obj
 0001:00053190       ?Copy@?$Array@Vmatrix44@Math@@@Util@@AAEXABV12@@Z 00454190 f i render_win32.release:modelentity.obj
 0001:000533e0       ?Copy@?$Array@VWin32Guid@Win32@@@Util@@AAEXABV12@@Z 004543e0 f i render_win32.release:modelentity.obj
 0001:00053500       ?Delete@?$Array@VWin32Guid@Win32@@@Util@@AAEXXZ 00454500 f i render_win32.release:modelentity.obj
 0001:00053560       ?Copy@?$Array@VBlob@Util@@@Util@@AAEXABV12@@Z 00454560 f i render_win32.release:modelentity.obj
 0001:000536d0       ?Delete@?$Array@VBlob@Util@@@Util@@AAEXXZ 004546d0 f i render_win32.release:modelentity.obj
 0001:00053740       ?Destroy@?$Array@VStringAtom@Util@@@Util@@AAEXPAVStringAtom@2@@Z 00454740 f i render_win32.release:modelentity.obj
 0001:00053750       ?Copy@?$Array@VStringAtom@Util@@@Util@@AAEXABV12@@Z 00454750 f i render_win32.release:modelentity.obj
 0001:00053870       ?Delete@?$Array@VStringAtom@Util@@@Util@@AAEXXZ 00454870 f i render_win32.release:modelentity.obj
 0001:000538d0       ?Grow@?$Array@VStringAtom@Util@@@Util@@AAEXXZ 004548d0 f i render_win32.release:modelentity.obj
 0001:00053950       ?Delete@?$Array@VAnimEventInfo@Animation@@@Util@@AAEXXZ 00454950 f i render_win32.release:modelentity.obj
 0001:000539b0       ?Delete@?$Array@VCharJointInfo@Shared@@@Util@@AAEXXZ 004549b0 f i render_win32.release:modelentity.obj
 0001:00053a10       ??$CreateDataObjects@VModelEntityShared@Shared@@@FrameSyncSharedData@FrameSync@@AAEXPAVModelEntityShared@Shared@@@Z 00454a10 f i render_win32.release:modelentity.obj
 0001:00053b00       ??$DestroyDataObjects@VModelEntityShared@Shared@@@FrameSyncSharedData@FrameSync@@AAEXPAVModelEntityShared@Shared@@@Z 00454b00 f i render_win32.release:modelentity.obj
 0001:00053c40       ??_GModelEntityShared@Shared@@QAEPAXI@Z 00454c40 f i render_win32.release:modelentity.obj
 0001:00053c80       ??1ModelEntityShared@Shared@@QAE@XZ 00454c80 f i render_win32.release:modelentity.obj
 0001:00053cb0       ?GrowTo@?$Array@VStringAtom@Util@@@Util@@AAEXH@Z 00454cb0 f i render_win32.release:modelentity.obj
 0001:00053da0       ?Start@DebugTimer@Debug@@QAEXXZ 00454da0 f i render_win32.release:renderapplication.obj
 0001:00053dc0       ?Stop@DebugTimer@Debug@@QAEXXZ 00454dc0 f i render_win32.release:renderapplication.obj
 0001:00053e40       ?GetAppTitle@Application@App@@QBEABVString@Util@@XZ 00454e40 f i render_win32.release:renderapplication.obj
 0001:00053e60       ?GetAppID@Application@App@@QBEABVString@Util@@XZ 00454e60 f i render_win32.release:renderapplication.obj
 0001:00053e80       ?GetAppVersion@Application@App@@QBEABVString@Util@@XZ 00454e80 f i render_win32.release:renderapplication.obj
 0001:00053ea0       ?SetCompanyName@CoreServer@Core@@QAEXABVStringAtom@Util@@@Z 00454ea0 f i render_win32.release:renderapplication.obj
 0001:00053ec0       ?SetAppName@CoreServer@Core@@QAEXABVStringAtom@Util@@@Z 00454ec0 f i render_win32.release:renderapplication.obj
 0001:00053ee0       ?SetRootDirectory@CoreServer@Core@@QAEXABVStringAtom@Util@@@Z 00454ee0 f i render_win32.release:renderapplication.obj
 0001:00053f00       ??0DisplayMode@CoreGraphics@@QAE@XZ 00454f00 f i render_win32.release:renderapplication.obj
 0001:00053f50       ?SetXPos@DisplayMode@CoreGraphics@@QAEXI@Z 00454f50 f i render_win32.release:renderapplication.obj
 0001:00053f70       ?SetYPos@DisplayMode@CoreGraphics@@QAEXI@Z 00454f70 f i render_win32.release:renderapplication.obj
 0001:00053f90       ?SetWidth@DisplayMode@CoreGraphics@@QAEXI@Z 00454f90 f i render_win32.release:renderapplication.obj
 0001:00053fb0       ?GetWidth@DisplayMode@CoreGraphics@@QBEIXZ 00454fb0 f i render_win32.release:renderapplication.obj
 0001:00053fd0       ?SetHeight@DisplayMode@CoreGraphics@@QAEXI@Z 00454fd0 f i render_win32.release:renderapplication.obj
 0001:00053ff0       ?GetHeight@DisplayMode@CoreGraphics@@QBEIXZ 00454ff0 f i render_win32.release:renderapplication.obj
 0001:00054010       ?SetAspectRatio@DisplayMode@CoreGraphics@@QAEXM@Z 00455010 f i render_win32.release:renderapplication.obj
 0001:00054030       ?GetTime@FrameSyncTimer@FrameSync@@QBENXZ 00455030 f i render_win32.release:renderapplication.obj
 0001:00054050       ?GetFrameTime@FrameSyncTimer@FrameSync@@QBENXZ 00455050 f i render_win32.release:renderapplication.obj
 0001:00054070       ?DisplayMode@DisplaySettings@Graphics@@QAEAAV0CoreGraphics@@XZ 00455070 f i render_win32.release:renderapplication.obj
 0001:00054090       ?SetAntiAliasQuality@DisplaySettings@Graphics@@QAEXW4Code@AntiAliasQuality@CoreGraphics@@@Z 00455090 f i render_win32.release:renderapplication.obj
 0001:000540b0       ?SetAdapter@DisplaySettings@Graphics@@QAEXW4Code@Adapter@CoreGraphics@@@Z 004550b0 f i render_win32.release:renderapplication.obj
 0001:000540d0       ?SetFullscreen@DisplaySettings@Graphics@@QAEX_N@Z 004550d0 f i render_win32.release:renderapplication.obj
 0001:000540f0       ?SetAlwaysOnTop@DisplaySettings@Graphics@@QAEX_N@Z 004550f0 f i render_win32.release:renderapplication.obj
 0001:00054110       ?SetParentWindow@Display@Graphics@@QAEXPAX@Z 00455110 f i render_win32.release:renderapplication.obj
 0001:00054130       ?IsQuitRequested@InputServerBase@Base@@QBE_NXZ 00455130 f i render_win32.release:renderapplication.obj
 0001:00054150       ?SetTitle@GameContentServerBase@Base@@QAEXABVString@Util@@@Z 00455150 f i render_win32.release:renderapplication.obj
 0001:000541a0       ?SetTitleId@GameContentServerBase@Base@@QAEXABVString@Util@@@Z 004551a0 f i render_win32.release:renderapplication.obj
 0001:000541f0       ?SetVersion@GameContentServerBase@Base@@QAEXABVString@Util@@@Z 004551f0 f i render_win32.release:renderapplication.obj
 0001:00054240       ?IsQuitRequested@RenderApplication@App@@IBE_NXZ 00455240 f i render_win32.release:renderapplication.obj
 0001:00054260       ??0RenderApplication@App@@QAE@XZ 00455260 f   render_win32.release:renderapplication.obj
 0001:000543c0       ??_ERenderApplication@App@@UAEPAXI@Z 004553c0 f i  CIL library: CIL module
 0001:000543c0       ??_GRenderApplication@App@@UAEPAXI@Z 004553c0 f i render_win32.release:renderapplication.obj
 0001:000543f0       ??1RenderApplication@App@@UAE@XZ 004553f0 f   render_win32.release:renderapplication.obj
 0001:00054550       ?LookupProjectDirectory@RenderApplication@App@@IAE?AVString@Util@@XZ 00455550 f   render_win32.release:renderapplication.obj
 0001:000547f0       ?Open@RenderApplication@App@@UAE_NXZ 004557f0 f   render_win32.release:renderapplication.obj
 0001:000550e0       ?OnConfigureDisplay@RenderApplication@App@@MAEXXZ 004560e0 f   render_win32.release:renderapplication.obj
 0001:00055b20       ?OnSetupResourceMappers@RenderApplication@App@@MAEXXZ 00456b20 f   render_win32.release:renderapplication.obj
 0001:00055ec0       ?Close@RenderApplication@App@@UAEXXZ 00456ec0 f   render_win32.release:renderapplication.obj
 0001:00056150       ?Run@RenderApplication@App@@UAEXXZ 00457150 f   render_win32.release:renderapplication.obj
 0001:00056350       ?OnProcessInput@RenderApplication@App@@MAEXXZ 00457350 f   render_win32.release:renderapplication.obj
 0001:00056360       ?OnUpdateFrame@RenderApplication@App@@MAEXXZ 00457360 f   render_win32.release:renderapplication.obj
 0001:00056370       ?UpdateTime@RenderApplication@App@@QAEXXZ 00457370 f   render_win32.release:renderapplication.obj
 0001:000563d0       ?Add@?$RingBuffer@N@Util@@QAEXABN@Z 004573d0 f i render_win32.release:renderapplication.obj
 0001:00056480       ??0?$Ptr@VDebugTimer@Debug@@@@QAE@XZ 00457480 f i render_win32.release:renderapplication.obj
 0001:000564a0       ??1?$Ptr@VDebugTimer@Debug@@@@QAE@XZ 004574a0 f i render_win32.release:renderapplication.obj
 0001:000564d0       ??4?$Ptr@VDebugTimer@Debug@@@@QAEXPAVDebugTimer@Debug@@@Z 004574d0 f i render_win32.release:renderapplication.obj
 0001:00056530       ??C?$Ptr@VDebugTimer@Debug@@@@QBEPAVDebugTimer@Debug@@XZ 00457530 f i render_win32.release:renderapplication.obj
 0001:00056570       ??0?$Ptr@VFrameSyncTimer@FrameSync@@@@QAE@XZ 00457570 f i render_win32.release:renderapplication.obj
 0001:00056590       ??1?$Ptr@VFrameSyncTimer@FrameSync@@@@QAE@XZ 00457590 f i render_win32.release:renderapplication.obj
 0001:000565c0       ??4?$Ptr@VFrameSyncTimer@FrameSync@@@@QAEXPAVFrameSyncTimer@FrameSync@@@Z 004575c0 f i render_win32.release:renderapplication.obj
 0001:00056620       ??C?$Ptr@VFrameSyncTimer@FrameSync@@@@QBEPAVFrameSyncTimer@FrameSync@@XZ 00457620 f i render_win32.release:renderapplication.obj
 0001:00056660       ??0?$Ptr@VIoServer@IO@@@@QAE@XZ 00457660 f i render_win32.release:renderapplication.obj
 0001:00056680       ??1?$Ptr@VIoServer@IO@@@@QAE@XZ 00457680 f i render_win32.release:renderapplication.obj
 0001:000566b0       ??4?$Ptr@VIoServer@IO@@@@QAEXPAVIoServer@IO@@@Z 004576b0 f i render_win32.release:renderapplication.obj
 0001:00056710       ??C?$Ptr@VIoServer@IO@@@@QBEPAVIoServer@IO@@XZ 00457710 f i render_win32.release:renderapplication.obj
 0001:00056750       ??0?$Ptr@VHttpServerProxy@Http@@@@QAE@XZ 00457750 f i render_win32.release:renderapplication.obj
 0001:00056770       ??1?$Ptr@VHttpServerProxy@Http@@@@QAE@XZ 00457770 f i render_win32.release:renderapplication.obj
 0001:000567a0       ??4?$Ptr@VHttpServerProxy@Http@@@@QAEXPAVHttpServerProxy@Http@@@Z 004577a0 f i render_win32.release:renderapplication.obj
 0001:00056800       ??C?$Ptr@VHttpServerProxy@Http@@@@QBEPAVHttpServerProxy@Http@@XZ 00457800 f i render_win32.release:renderapplication.obj
 0001:00056840       ??0?$Ptr@VHttpClientRegistry@Http@@@@QAE@XZ 00457840 f i render_win32.release:renderapplication.obj
 0001:00056860       ??1?$Ptr@VHttpClientRegistry@Http@@@@QAE@XZ 00457860 f i render_win32.release:renderapplication.obj
 0001:00056890       ??4?$Ptr@VHttpClientRegistry@Http@@@@QAEXPAVHttpClientRegistry@Http@@@Z 00457890 f i render_win32.release:renderapplication.obj
 0001:000568f0       ??C?$Ptr@VHttpClientRegistry@Http@@@@QBEPAVHttpClientRegistry@Http@@XZ 004578f0 f i render_win32.release:renderapplication.obj
 0001:00056930       ??0?$Ptr@VCoreServer@Core@@@@QAE@XZ 00457930 f i render_win32.release:renderapplication.obj
 0001:00056950       ??1?$Ptr@VCoreServer@Core@@@@QAE@XZ 00457950 f i render_win32.release:renderapplication.obj
 0001:00056980       ??4?$Ptr@VCoreServer@Core@@@@QAEXPAVCoreServer@Core@@@Z 00457980 f i render_win32.release:renderapplication.obj
 0001:000569e0       ??C?$Ptr@VCoreServer@Core@@@@QBEPAVCoreServer@Core@@XZ 004579e0 f i render_win32.release:renderapplication.obj
 0001:00056a20       ??0?$Ptr@VJobSystem@Jobs@@@@QAE@XZ 00457a20 f i render_win32.release:renderapplication.obj
 0001:00056a40       ??1?$Ptr@VJobSystem@Jobs@@@@QAE@XZ 00457a40 f i render_win32.release:renderapplication.obj
 0001:00056a70       ??4?$Ptr@VJobSystem@Jobs@@@@QAEXPAVJobSystem@Jobs@@@Z 00457a70 f i render_win32.release:renderapplication.obj
 0001:00056ad0       ??C?$Ptr@VJobSystem@Jobs@@@@QBEPAVJobSystem@Jobs@@XZ 00457ad0 f i render_win32.release:renderapplication.obj
 0001:00056b10       ??0?$Ptr@VGameContentServer@IO@@@@QAE@XZ 00457b10 f i render_win32.release:renderapplication.obj
 0001:00056b30       ??1?$Ptr@VGameContentServer@IO@@@@QAE@XZ 00457b30 f i render_win32.release:renderapplication.obj
 0001:00056b60       ??4?$Ptr@VGameContentServer@IO@@@@QAEXPAVGameContentServer@IO@@@Z 00457b60 f i render_win32.release:renderapplication.obj
 0001:00056bc0       ??C?$Ptr@VGameContentServer@IO@@@@QBEPAVGameContentServer@IO@@XZ 00457bc0 f i render_win32.release:renderapplication.obj
 0001:00056c00       ??0?$Ptr@VIoInterface@IO@@@@QAE@XZ 00457c00 f i render_win32.release:renderapplication.obj
 0001:00056c20       ??1?$Ptr@VIoInterface@IO@@@@QAE@XZ 00457c20 f i render_win32.release:renderapplication.obj
 0001:00056c50       ??4?$Ptr@VIoInterface@IO@@@@QAEXPAVIoInterface@IO@@@Z 00457c50 f i render_win32.release:renderapplication.obj
 0001:00056cb0       ??C?$Ptr@VIoInterface@IO@@@@QBEPAVIoInterface@IO@@XZ 00457cb0 f i render_win32.release:renderapplication.obj
 0001:00056cf0       ??0?$Ptr@VGraphicsInterface@Graphics@@@@QAE@XZ 00457cf0 f i render_win32.release:renderapplication.obj
 0001:00056d10       ??1?$Ptr@VGraphicsInterface@Graphics@@@@QAE@XZ 00457d10 f i render_win32.release:renderapplication.obj
 0001:00056d40       ??4?$Ptr@VGraphicsInterface@Graphics@@@@QAEXPAVGraphicsInterface@Graphics@@@Z 00457d40 f i render_win32.release:renderapplication.obj
 0001:00056da0       ??C?$Ptr@VGraphicsInterface@Graphics@@@@QBEPAVGraphicsInterface@Graphics@@XZ 00457da0 f i render_win32.release:renderapplication.obj
 0001:00056de0       ??0?$Ptr@VDisplay@Graphics@@@@QAE@XZ 00457de0 f i render_win32.release:renderapplication.obj
 0001:00056e00       ??1?$Ptr@VDisplay@Graphics@@@@QAE@XZ 00457e00 f i render_win32.release:renderapplication.obj
 0001:00056e30       ??4?$Ptr@VDisplay@Graphics@@@@QAEXPAVDisplay@Graphics@@@Z 00457e30 f i render_win32.release:renderapplication.obj
 0001:00056e90       ??0?$Ptr@VInputServer@Input@@@@QAE@XZ 00457e90 f i render_win32.release:renderapplication.obj
 0001:00056eb0       ??1?$Ptr@VInputServer@Input@@@@QAE@XZ 00457eb0 f i render_win32.release:renderapplication.obj
 0001:00056ee0       ??4?$Ptr@VInputServer@Input@@@@QAEXPAVInputServer@Input@@@Z 00457ee0 f i render_win32.release:renderapplication.obj
 0001:00056f40       ??C?$Ptr@VInputServer@Input@@@@QBEPAVInputServer@Input@@XZ 00457f40 f i render_win32.release:renderapplication.obj
 0001:00056f80       ??0?$Ptr@VDebugInterface@Debug@@@@QAE@XZ 00457f80 f i render_win32.release:renderapplication.obj
 0001:00056fa0       ??1?$Ptr@VDebugInterface@Debug@@@@QAE@XZ 00457fa0 f i render_win32.release:renderapplication.obj
 0001:00056fd0       ??4?$Ptr@VDebugInterface@Debug@@@@QAEXPAVDebugInterface@Debug@@@Z 00457fd0 f i render_win32.release:renderapplication.obj
 0001:00057030       ??C?$Ptr@VDebugInterface@Debug@@@@QBEPAVDebugInterface@Debug@@XZ 00458030 f i render_win32.release:renderapplication.obj
 0001:00057070       ??0?$Ptr@VHttpInterface@Http@@@@QAE@XZ 00458070 f i render_win32.release:renderapplication.obj
 0001:00057090       ??1?$Ptr@VHttpInterface@Http@@@@QAE@XZ 00458090 f i render_win32.release:renderapplication.obj
 0001:000570c0       ??4?$Ptr@VHttpInterface@Http@@@@QAEXPAVHttpInterface@Http@@@Z 004580c0 f i render_win32.release:renderapplication.obj
 0001:00057120       ??C?$Ptr@VHttpInterface@Http@@@@QBEPAVHttpInterface@Http@@XZ 00458120 f i render_win32.release:renderapplication.obj
 0001:00057160       ??0?$Ptr@VLogFileConsoleHandler@IO@@@@QAE@PAVLogFileConsoleHandler@IO@@@Z 00458160 f i render_win32.release:renderapplication.obj
 0001:000571a0       ??1?$Ptr@VLogFileConsoleHandler@IO@@@@QAE@XZ 004581a0 f i render_win32.release:renderapplication.obj
 0001:000571d0       ??$upcast@VConsoleHandler@IO@@@?$Ptr@VLogFileConsoleHandler@IO@@@@QBEABV?$Ptr@VConsoleHandler@IO@@@@XZ 004581d0 f i render_win32.release:renderapplication.obj
 0001:000571e0       ??0?$Ptr@VHttpRequestHandler@Http@@@@QAE@PAVHttpRequestHandler@Http@@@Z 004581e0 f i render_win32.release:renderapplication.obj
 0001:00057220       ??1?$Ptr@VHttpRequestHandler@Http@@@@QAE@XZ 00458220 f i render_win32.release:renderapplication.obj
 0001:00057250       ??4StringAtom@Util@@QAEXABVString@1@@Z 00458250 f i render_win32.release:poolresourcemapper.obj
 0001:00057290       ?GetResourceId@ManagedResource@Resources@@QBEABVStringAtom@Util@@XZ 00458290 f i render_win32.release:poolresourcemapper.obj
 0001:000572b0       ?GetSize@ResourceInfo@Resources@@QBEIXZ 004582b0 f i render_win32.release:poolresourcemapper.obj
 0001:000572d0       ?SetSize@ResourceInfo@Resources@@QAEXI@Z 004582d0 f i render_win32.release:poolresourcemapper.obj
 0001:000572f0       ?GetResourceType@StreamingResourceMapper@Resources@@UBEABVRtti@Core@@XZ 004582f0 f i render_win32.release:poolresourcemapper.obj
 0001:00057310       ?SetResourceType@StreamingResourceMapper@Resources@@UAEXABVRtti@Core@@@Z 00458310 f i render_win32.release:poolresourcemapper.obj
 0001:00057330       ??2PoolResourceMapper@Resources@@SAPAXI@Z 00458330 f i render_win32.release:poolresourcemapper.obj
 0001:00057340       ??3PoolResourceMapper@Resources@@SAXPAX@Z 00458340 f i render_win32.release:poolresourcemapper.obj
 0001:00057360       ?GetNumSlots@ResourcePool@Resources@@QBEHXZ 00458360 f i render_win32.release:poolresourcemapper.obj
 0001:00057380       ?SetId@ResourcePool@Resources@@QAEXABVStringAtom@Util@@@Z 00458380 f i render_win32.release:poolresourcemapper.obj
 0001:000573a0       ?GetInfo@ResourcePool@Resources@@QBEPBVResourceInfo@2@XZ 004583a0 f i render_win32.release:poolresourcemapper.obj
 0001:000573c0       ?GetPoolSize@ResourcePool@Resources@@QBEIXZ 004583c0 f i render_win32.release:poolresourcemapper.obj
 0001:000573e0       ?SetNumSlots@ResourcePool@Resources@@QAEXH@Z 004583e0 f i render_win32.release:poolresourcemapper.obj
 0001:00057400       ?SetInfo@ResourcePool@Resources@@QAEXPAVResourceInfo@2@@Z 00458400 f i render_win32.release:poolresourcemapper.obj
 0001:00057420       ?SetFrameIndex@ResourcePool@Resources@@QAEXH@Z 00458420 f i render_win32.release:poolresourcemapper.obj
 0001:00057440       ?ResetDebugStats@ResourcePool@Resources@@QAEX_N@Z 00458440 f i render_win32.release:poolresourcemapper.obj
 0001:000574a0       ?GetId@ResourcePool@Resources@@QBEABVStringAtom@Util@@XZ 004584a0 f i render_win32.release:poolresourcemapper.obj
 0001:000574c0       ??1D3D9TextureInfo@Resources@@QAE@XZ 004584c0 f i render_win32.release:poolresourcemapper.obj
 0001:000574e0       ?IsEqual@D3D9TextureInfo@Resources@@UBE_NPBV12@@Z 004584e0 f i render_win32.release:poolresourcemapper.obj
 0001:00057560       ?IsEqual@D3D9TextureInfo@Resources@@UBE_NPBVResourceInfo@2@@Z 00458560 f i render_win32.release:poolresourcemapper.obj
 0001:00057580       ?SetType@D3D9TextureInfo@Resources@@QAEXW4Type@TextureBase@Base@@@Z 00458580 f i render_win32.release:poolresourcemapper.obj
 0001:000575a0       ?GetType@D3D9TextureInfo@Resources@@QBE?AW4Type@TextureBase@Base@@XZ 004585a0 f i render_win32.release:poolresourcemapper.obj
 0001:000575c0       ?SetWidth@D3D9TextureInfo@Resources@@QAEXI@Z 004585c0 f i render_win32.release:poolresourcemapper.obj
 0001:000575e0       ?GetWidth@D3D9TextureInfo@Resources@@QBEIXZ 004585e0 f i render_win32.release:poolresourcemapper.obj
 0001:00057600       ?SetHeight@D3D9TextureInfo@Resources@@QAEXI@Z 00458600 f i render_win32.release:poolresourcemapper.obj
 0001:00057620       ?GetHeight@D3D9TextureInfo@Resources@@QBEIXZ 00458620 f i render_win32.release:poolresourcemapper.obj
 0001:00057640       ?SetDepth@D3D9TextureInfo@Resources@@QAEXI@Z 00458640 f i render_win32.release:poolresourcemapper.obj
 0001:00057660       ?GetDepth@D3D9TextureInfo@Resources@@QBEIXZ 00458660 f i render_win32.release:poolresourcemapper.obj
 0001:00057680       ?SetMipLevels@D3D9TextureInfo@Resources@@QAEXI@Z 00458680 f i render_win32.release:poolresourcemapper.obj
 0001:000576a0       ?GetMipLevels@D3D9TextureInfo@Resources@@QBEIXZ 004586a0 f i render_win32.release:poolresourcemapper.obj
 0001:000576c0       ?SetPixelFormat@D3D9TextureInfo@Resources@@QAEXW4Code@PixelFormat@CoreGraphics@@@Z 004586c0 f i render_win32.release:poolresourcemapper.obj
 0001:000576e0       ?GetPixelFormat@D3D9TextureInfo@Resources@@QBE?AW4Code@PixelFormat@CoreGraphics@@XZ 004586e0 f i render_win32.release:poolresourcemapper.obj
 0001:00057700       ?GetRtti@PoolResourceMapper@Resources@@UBEPAVRtti@Core@@XZ 00458700 f   render_win32.release:poolresourcemapper.obj
 0001:00057710       ?FactoryCreator@PoolResourceMapper@Resources@@SAPAVRefCounted@Core@@XZ 00458710 f   render_win32.release:poolresourcemapper.obj
 0001:00057720       ?Create@PoolResourceMapper@Resources@@SAPAV12@XZ 00458720 f   render_win32.release:poolresourcemapper.obj
 0001:00057760       ?RegisterWithFactory@PoolResourceMapper@Resources@@SA_NXZ 00458760 f   render_win32.release:poolresourcemapper.obj
 0001:00057860       ??0PoolResourceMapper@Resources@@QAE@XZ 00458860 f   render_win32.release:poolresourcemapper.obj
 0001:000578a0       ??_GPoolResourceMapper@Resources@@UAEPAXI@Z 004588a0 f i render_win32.release:poolresourcemapper.obj
 0001:000578a0       ??_EPoolResourceMapper@Resources@@UAEPAXI@Z 004588a0 f i  CIL library: CIL module
 0001:000578d0       ??1PoolResourceMapper@Resources@@UAE@XZ 004588d0 f   render_win32.release:poolresourcemapper.obj
 0001:00057910       ?SetDefaultPoolScheduler@PoolResourceMapper@Resources@@QAEXABV?$Ptr@VPoolScheduler@Resources@@@@@Z 00458910 f   render_win32.release:poolresourcemapper.obj
 0001:00057930       ?SetupPools@PoolResourceMapper@Resources@@UAEXABV?$Dictionary@VStringAtom@Util@@UPoolSetupInfo@Resources@@@Util@@@Z 00458930 f   render_win32.release:poolresourcemapper.obj
 0001:00057a60       ?OnAttachToResourceManager@PoolResourceMapper@Resources@@UAEXXZ 00458a60 f   render_win32.release:poolresourcemapper.obj
 0001:00057af0       ?OnRemoveFromResourceManager@PoolResourceMapper@Resources@@UAEXXZ 00458af0 f   render_win32.release:poolresourcemapper.obj
 0001:00057b60       ?OnPrepare@PoolResourceMapper@Resources@@UAEX_N@Z 00458b60 f   render_win32.release:poolresourcemapper.obj
 0001:00057bf0       ?Reset@PoolResourceMapper@Resources@@UAEXXZ 00458bf0 f   render_win32.release:poolresourcemapper.obj
 0001:00057c50       ?GetAllocatedMemory@PoolResourceMapper@Resources@@UAEIXZ 00458c50 f   render_win32.release:poolresourcemapper.obj
 0001:00057cc0       ?GetUsedMemory@PoolResourceMapper@Resources@@UAEIXZ 00458cc0 f   render_win32.release:poolresourcemapper.obj
 0001:00057d20       ?WritePoolsToXML@PoolResourceMapper@Resources@@UAEXABVURI@IO@@@Z 00458d20 f   render_win32.release:poolresourcemapper.obj
 0001:000585c0       ?GetFittingPoolIndex@PoolResourceMapper@Resources@@IBEHPBVResourceInfo@2@@Z 004595c0 f   render_win32.release:poolresourcemapper.obj
 0001:00058640       ?NoSlotFound@PoolResourceMapper@Resources@@IAEXABV?$Ptr@VManagedResource@Resources@@@@H@Z 00459640 f   render_win32.release:poolresourcemapper.obj
 0001:000586e0       ?GetPoolForDebug@PoolResourceMapper@Resources@@QBEABV?$Ptr@VResourcePool@Resources@@@@ABVStringAtom@Util@@@Z 004596e0 f   render_win32.release:poolresourcemapper.obj
 0001:00058780       ?ReadTexturePoolFromXML@PoolResourceMapper@Resources@@SAXABVURI@IO@@AAV?$Dictionary@VStringAtom@Util@@UPoolSetupInfo@Resources@@@Util@@@Z 00459780 f   render_win32.release:poolresourcemapper.obj
 0001:00058c60       ??0TextureInfo@Resources@@QAE@XZ 00459c60 f i render_win32.release:poolresourcemapper.obj
 0001:00058c80       ?WriteTexturePoolToXML@PoolResourceMapper@Resources@@SAXABVURI@IO@@ABV?$Dictionary@VStringAtom@Util@@UPoolSetupInfo@Resources@@@Util@@@Z 00459c80 f   render_win32.release:poolresourcemapper.obj
 0001:00059510       ??C?$Ptr@VManagedResource@Resources@@@@QBEPAVManagedResource@Resources@@XZ 0045a510 f i render_win32.release:poolresourcemapper.obj
 0001:00059550       ??4?$Ptr@VResourceCreator@Resources@@@@QAEXPAVResourceCreator@Resources@@@Z 0045a550 f i render_win32.release:poolresourcemapper.obj
 0001:000595b0       ??0?$Array@V?$Ptr@VResourcePool@Resources@@@@@Util@@QAE@XZ 0045a5b0 f i render_win32.release:poolresourcemapper.obj
 0001:000595f0       ??1?$Array@V?$Ptr@VResourcePool@Resources@@@@@Util@@QAE@XZ 0045a5f0 f i render_win32.release:poolresourcemapper.obj
 0001:00059610       ??A?$Array@V?$Ptr@VResourcePool@Resources@@@@@Util@@QBEAAV?$Ptr@VResourcePool@Resources@@@@H@Z 0045a610 f i render_win32.release:poolresourcemapper.obj
 0001:00059660       ?Append@?$Array@V?$Ptr@VResourcePool@Resources@@@@@Util@@QAEXABV?$Ptr@VResourcePool@Resources@@@@@Z 0045a660 f i render_win32.release:poolresourcemapper.obj
 0001:000596e0       ?Size@?$Array@V?$Ptr@VResourcePool@Resources@@@@@Util@@QBEHXZ 0045a6e0 f i render_win32.release:poolresourcemapper.obj
 0001:00059700       ??0?$Ptr@VPoolScheduler@Resources@@@@QAE@XZ 0045a700 f i render_win32.release:poolresourcemapper.obj
 0001:00059720       ??4?$Ptr@VPoolScheduler@Resources@@@@QAEXPAVPoolScheduler@Resources@@@Z 0045a720 f i render_win32.release:poolresourcemapper.obj
 0001:00059780       ??4?$Ptr@VPoolScheduler@Resources@@@@QAEXABV0@@Z 0045a780 f i render_win32.release:poolresourcemapper.obj
 0001:000597e0       ?Size@?$Array@V?$Ptr@VResourceSlot@Resources@@@@@Util@@QBEHXZ 0045a7e0 f i render_win32.release:poolresourcemapper.obj
 0001:00059800       ?Clear@?$Array@VStringAtom@Util@@@Util@@QAEXXZ 0045a800 f i render_win32.release:poolresourcemapper.obj
 0001:00059850       ?Size@?$Dictionary@VStringAtom@Util@@UPoolSetupInfo@Resources@@@Util@@QBEHXZ 0045a850 f i render_win32.release:poolresourcemapper.obj
 0001:00059870       ?Add@?$Dictionary@VStringAtom@Util@@UPoolSetupInfo@Resources@@@Util@@QAEXABVStringAtom@2@ABUPoolSetupInfo@Resources@@@Z 0045a870 f i render_win32.release:poolresourcemapper.obj
 0001:000598c0       ?KeyAtIndex@?$Dictionary@VStringAtom@Util@@UPoolSetupInfo@Resources@@@Util@@QBEABVStringAtom@2@H@Z 0045a8c0 f i render_win32.release:poolresourcemapper.obj
 0001:00059910       ?ValueAtIndex@?$Dictionary@VStringAtom@Util@@UPoolSetupInfo@Resources@@@Util@@QBEABUPoolSetupInfo@Resources@@H@Z 0045a910 f i render_win32.release:poolresourcemapper.obj
 0001:00059960       ??0?$Ptr@VResourcePool@Resources@@@@QAE@XZ 0045a960 f i render_win32.release:poolresourcemapper.obj
 0001:00059980       ??1?$Ptr@VResourcePool@Resources@@@@QAE@XZ 0045a980 f i render_win32.release:poolresourcemapper.obj
 0001:000599b0       ??4?$Ptr@VResourcePool@Resources@@@@QAEXPAVResourcePool@Resources@@@Z 0045a9b0 f i render_win32.release:poolresourcemapper.obj
 0001:00059a10       ??C?$Ptr@VResourcePool@Resources@@@@QBEPAVResourcePool@Resources@@XZ 0045aa10 f i render_win32.release:poolresourcemapper.obj
 0001:00059a50       ??0?$Ptr@VXmlWriter@IO@@@@QAE@PAVXmlWriter@IO@@@Z 0045aa50 f i render_win32.release:poolresourcemapper.obj
 0001:00059a90       ??1?$Ptr@VXmlWriter@IO@@@@QAE@XZ 0045aa90 f i render_win32.release:poolresourcemapper.obj
 0001:00059ac0       ??C?$Ptr@VXmlWriter@IO@@@@QBEPAVXmlWriter@IO@@XZ 0045aac0 f i render_win32.release:poolresourcemapper.obj
 0001:00059b00       ??0?$Ptr@VXmlReader@IO@@@@QAE@PAVXmlReader@IO@@@Z 0045ab00 f i render_win32.release:poolresourcemapper.obj
 0001:00059b40       ??1?$Ptr@VXmlReader@IO@@@@QAE@XZ 0045ab40 f i render_win32.release:poolresourcemapper.obj
 0001:00059b70       ??C?$Ptr@VXmlReader@IO@@@@QBEPAVXmlReader@IO@@XZ 0045ab70 f i render_win32.release:poolresourcemapper.obj
 0001:00059bb0       ?Delete@?$Array@V?$Ptr@VResourcePool@Resources@@@@@Util@@AAEXXZ 0045abb0 f i render_win32.release:poolresourcemapper.obj
 0001:00059c20       ?Grow@?$Array@V?$Ptr@VResourcePool@Resources@@@@@Util@@AAEXXZ 0045ac20 f i render_win32.release:poolresourcemapper.obj
 0001:00059ca0       ??4?$Ptr@VResourcePool@Resources@@@@QAEXABV0@@Z 0045aca0 f i render_win32.release:poolresourcemapper.obj
 0001:00059d00       ??A?$Array@V?$KeyValuePair@VStringAtom@Util@@UPoolSetupInfo@Resources@@@Util@@@Util@@QBEAAV?$KeyValuePair@VStringAtom@Util@@UPoolSetupInfo@Resources@@@1@H@Z 0045ad00 f i render_win32.release:poolresourcemapper.obj
 0001:00059d50       ?Append@?$Array@V?$KeyValuePair@VStringAtom@Util@@UPoolSetupInfo@Resources@@@Util@@@Util@@QAEXABV?$KeyValuePair@VStringAtom@Util@@UPoolSetupInfo@Resources@@@2@@Z 0045ad50 f i render_win32.release:poolresourcemapper.obj
 0001:00059dd0       ?Size@?$Array@V?$KeyValuePair@VStringAtom@Util@@UPoolSetupInfo@Resources@@@Util@@@Util@@QBEHXZ 0045add0 f i render_win32.release:poolresourcemapper.obj
 0001:00059df0       ?InsertSorted@?$Array@V?$KeyValuePair@VStringAtom@Util@@UPoolSetupInfo@Resources@@@Util@@@Util@@QAEHABV?$KeyValuePair@VStringAtom@Util@@UPoolSetupInfo@Resources@@@2@@Z 0045adf0 f i render_win32.release:poolresourcemapper.obj
 0001:0005a060       ??0?$KeyValuePair@VStringAtom@Util@@UPoolSetupInfo@Resources@@@Util@@QAE@ABVStringAtom@1@ABUPoolSetupInfo@Resources@@@Z 0045b060 f i render_win32.release:poolresourcemapper.obj
 0001:0005a090       ?Value@?$KeyValuePair@VStringAtom@Util@@UPoolSetupInfo@Resources@@@Util@@QAEAAUPoolSetupInfo@Resources@@XZ 0045b090 f i render_win32.release:poolresourcemapper.obj
 0001:0005a0b0       ?Key@?$KeyValuePair@VStringAtom@Util@@UPoolSetupInfo@Resources@@@Util@@QBEABVStringAtom@2@XZ 0045b0b0 f i render_win32.release:poolresourcemapper.obj
 0001:0005a0c0       ??_E?$Ptr@VResourcePool@Resources@@@@QAEPAXI@Z 0045b0c0 f i render_win32.release:poolresourcemapper.obj
 0001:0005a160       ?GrowTo@?$Array@V?$Ptr@VResourcePool@Resources@@@@@Util@@AAEXH@Z 0045b160 f i render_win32.release:poolresourcemapper.obj
 0001:0005a280       ?Insert@?$Array@V?$KeyValuePair@VStringAtom@Util@@UPoolSetupInfo@Resources@@@Util@@@Util@@QAEXHABV?$KeyValuePair@VStringAtom@Util@@UPoolSetupInfo@Resources@@@2@@Z 0045b280 f i render_win32.release:poolresourcemapper.obj
 0001:0005a2f0       ?InsertAtEndOfIdenticalRange@?$Array@V?$KeyValuePair@VStringAtom@Util@@UPoolSetupInfo@Resources@@@Util@@@Util@@QAEHHABV?$KeyValuePair@VStringAtom@Util@@UPoolSetupInfo@Resources@@@2@@Z 0045b2f0 f i render_win32.release:poolresourcemapper.obj
 0001:0005a370       ?Grow@?$Array@V?$KeyValuePair@VStringAtom@Util@@UPoolSetupInfo@Resources@@@Util@@@Util@@AAEXXZ 0045b370 f i render_win32.release:poolresourcemapper.obj
 0001:0005a3f0       ??4?$KeyValuePair@VStringAtom@Util@@UPoolSetupInfo@Resources@@@Util@@QAEXABV01@@Z 0045b3f0 f i render_win32.release:poolresourcemapper.obj
 0001:0005a420       ??O?$KeyValuePair@VStringAtom@Util@@UPoolSetupInfo@Resources@@@Util@@QBE_NABV01@@Z 0045b420 f i render_win32.release:poolresourcemapper.obj
 0001:0005a440       ??M?$KeyValuePair@VStringAtom@Util@@UPoolSetupInfo@Resources@@@Util@@QBE_NABV01@@Z 0045b440 f i render_win32.release:poolresourcemapper.obj
 0001:0005a460       ?GrowTo@?$Array@V?$KeyValuePair@VStringAtom@Util@@UPoolSetupInfo@Resources@@@Util@@@Util@@AAEXH@Z 0045b460 f i render_win32.release:poolresourcemapper.obj
 0001:0005a550       ?Move@?$Array@V?$KeyValuePair@VStringAtom@Util@@UPoolSetupInfo@Resources@@@Util@@@Util@@AAEXHH@Z 0045b550 f i render_win32.release:poolresourcemapper.obj
 0001:0005a6e0       ??9?$KeyValuePair@VStringAtom@Util@@UPoolSetupInfo@Resources@@@Util@@QBE_NABV01@@Z 0045b6e0 f i render_win32.release:poolresourcemapper.obj
 0001:0005a700       ??0?$KeyValuePair@VStringAtom@Util@@UPoolSetupInfo@Resources@@@Util@@QAE@XZ 0045b700 f i render_win32.release:poolresourcemapper.obj
 0001:0005a7c0       ?GetName@Rtti@Core@@QBEABVString@Util@@XZ 0045b7c0 f i render_win32.release:streamingresourcemapper.obj
 0001:0005a7d0       ?IsInstanceOf@RefCounted@Core@@QBE_NABVRtti@2@@Z 0045b7d0 f i render_win32.release:streamingresourcemapper.obj
 0001:0005a800       ?SetAsyncEnabled@Resource@Resources@@QAEX_N@Z 0045b800 f i render_win32.release:streamingresourcemapper.obj
 0001:0005a820       ?SetResourceId@Resource@Resources@@QAEXABVStringAtom@Util@@@Z 0045b820 f i render_win32.release:streamingresourcemapper.obj
 0001:0005a840       ?GetState@Resource@Resources@@QBE?AW4State@12@XZ 0045b840 f i render_win32.release:streamingresourcemapper.obj
 0001:0005a860       ?SetResourceId@ManagedResource@Resources@@QAEXABVStringAtom@Util@@@Z 0045b860 f i render_win32.release:streamingresourcemapper.obj
 0001:0005a880       ?GetResourceType@ManagedResource@Resources@@QBEPBVRtti@Core@@XZ 0045b880 f i render_win32.release:streamingresourcemapper.obj
 0001:0005a8c0       ?IncrClientCount@ManagedResource@Resources@@QAEXXZ 0045b8c0 f i render_win32.release:streamingresourcemapper.obj
 0001:0005a8e0       ?DecrClientCount@ManagedResource@Resources@@QAEXXZ 0045b8e0 f i render_win32.release:streamingresourcemapper.obj
 0001:0005a920       ?GetClientCount@ManagedResource@Resources@@QBEHXZ 0045b920 f i render_win32.release:streamingresourcemapper.obj
 0001:0005a940       ?GetState@ManagedResource@Resources@@QBE?AW4State@Resource@2@XZ 0045b940 f i render_win32.release:streamingresourcemapper.obj
 0001:0005a990       ?SetFrameId@ManagedResource@Resources@@QAEXH@Z 0045b990 f i render_win32.release:streamingresourcemapper.obj
 0001:0005a9b0       ?SetResource@ManagedResource@Resources@@QAEXABV?$Ptr@VResource@Resources@@@@@Z 0045b9b0 f i render_win32.release:streamingresourcemapper.obj
 0001:0005a9d0       ?SetPlaceholder@ManagedResource@Resources@@QAEXABV?$Ptr@VResource@Resources@@@@@Z 0045b9d0 f i render_win32.release:streamingresourcemapper.obj
 0001:0005a9f0       ?IsPlaceholder@ManagedResource@Resources@@QBE_NXZ 0045b9f0 f i render_win32.release:streamingresourcemapper.obj
 0001:0005aa10       ?GetResource@ManagedResource@Resources@@QBEABV?$Ptr@VResource@Resources@@@@XZ 0045ba10 f i render_win32.release:streamingresourcemapper.obj
 0001:0005aa30       ?IsAutoManaged@ManagedResource@Resources@@QBE_NXZ 0045ba30 f i render_win32.release:streamingresourcemapper.obj
 0001:0005aa50       ?SetAutoManaged@ManagedResource@Resources@@QAEX_N@Z 0045ba50 f i render_win32.release:streamingresourcemapper.obj
 0001:0005aa70       ??2StreamingResourceMapper@Resources@@SAPAXI@Z 0045ba70 f i render_win32.release:streamingresourcemapper.obj
 0001:0005aa80       ??3StreamingResourceMapper@Resources@@SAXPAX@Z 0045ba80 f i render_win32.release:streamingresourcemapper.obj
 0001:0005aaa0       ?GetPriority@LoadingResource@Resources@@QBEHXZ 0045baa0 f i render_win32.release:streamingresourcemapper.obj
 0001:0005aac0       ?GetManagedResource@LoadingResource@Resources@@QBEABV?$Ptr@VManagedResource@Resources@@@@XZ 0045bac0 f i render_win32.release:streamingresourcemapper.obj
 0001:0005aae0       ?GetTargetResource@LoadingResource@Resources@@QBEABV?$Ptr@VResource@Resources@@@@XZ 0045bae0 f i render_win32.release:streamingresourcemapper.obj
 0001:0005ab00       ?SetPriority@LoadingResource@Resources@@QAEXH@Z 0045bb00 f i render_win32.release:streamingresourcemapper.obj
 0001:0005ab20       ?GetResourceId@ResourceRequestInfo@Resources@@QBEABVStringAtom@Util@@XZ 0045bb20 f i render_win32.release:streamingresourcemapper.obj
 0001:0005ab40       ?IsAutoManaged@ResourceRequestInfo@Resources@@QBE_NXZ 0045bb40 f i render_win32.release:streamingresourcemapper.obj
 0001:0005ab60       ?Instance@ResourceManager@Resources@@SAPAV12@XZ 0045bb60 f i render_win32.release:streamingresourcemapper.obj
 0001:0005aba0       ?GetRtti@StreamingResourceMapper@Resources@@UBEPAVRtti@Core@@XZ 0045bba0 f   render_win32.release:streamingresourcemapper.obj
 0001:0005abb0       ?FactoryCreator@StreamingResourceMapper@Resources@@SAPAVRefCounted@Core@@XZ 0045bbb0 f   render_win32.release:streamingresourcemapper.obj
 0001:0005abc0       ?Create@StreamingResourceMapper@Resources@@SAPAV12@XZ 0045bbc0 f   render_win32.release:streamingresourcemapper.obj
 0001:0005ac00       ?RegisterWithFactory@StreamingResourceMapper@Resources@@SA_NXZ 0045bc00 f   render_win32.release:streamingresourcemapper.obj
 0001:0005ad00       ??0StreamingResourceMapper@Resources@@QAE@XZ 0045bd00 f   render_win32.release:streamingresourcemapper.obj
 0001:0005ad90       ??_GStreamingResourceMapper@Resources@@UAEPAXI@Z 0045bd90 f i render_win32.release:streamingresourcemapper.obj
 0001:0005ad90       ??_EStreamingResourceMapper@Resources@@UAEPAXI@Z 0045bd90 f i  CIL library: CIL module
 0001:0005adc0       ??1?$Dictionary@VStringAtom@Util@@V?$Ptr@VManagedResource@Resources@@@@@Util@@QAE@XZ 0045bdc0 f i render_win32.release:streamingresourcemapper.obj
 0001:0005ade0       ??1?$Dictionary@VStringAtom@Util@@PAVResourceInfo@Resources@@@Util@@QAE@XZ 0045bde0 f i render_win32.release:streamingresourcemapper.obj
 0001:0005ae00       ??1StreamingResourceMapper@Resources@@UAE@XZ 0045be00 f   render_win32.release:streamingresourcemapper.obj
 0001:0005ae60       ?SetScheduler@StreamingResourceMapper@Resources@@QAEXV?$Ptr@VResourceScheduler@Resources@@@@@Z 0045be60 f   render_win32.release:streamingresourcemapper.obj
 0001:0005af10       ?GetNumPendingResources@StreamingResourceMapper@Resources@@UBEHXZ 0045bf10 f   render_win32.release:streamingresourcemapper.obj
 0001:0005af30       ?OnAttachToResourceManager@StreamingResourceMapper@Resources@@UAEXXZ 0045bf30 f   render_win32.release:streamingresourcemapper.obj
 0001:0005b0e0       ?OnRemoveFromResourceManager@StreamingResourceMapper@Resources@@UAEXXZ 0045c0e0 f   render_win32.release:streamingresourcemapper.obj
 0001:0005b180       ?OnCreateManagedResource@StreamingResourceMapper@Resources@@UAE?AV?$Ptr@VManagedResource@Resources@@@@PBVResourceRequestInfo@2@ABV?$Ptr@VResourceLoader@Resources@@@@@Z 0045c180 f   render_win32.release:streamingresourcemapper.obj
 0001:0005b310       ?OnCreateManagedResource@StreamingResourceMapper@Resources@@UAE?AV?$Ptr@VManagedResource@Resources@@@@ABVRtti@Core@@ABVStringAtom@Util@@ABV?$Ptr@VResourceLoader@Resources@@@@@Z 0045c310 f   render_win32.release:streamingresourcemapper.obj
 0001:0005b360       ?OnRequestManagedResource@StreamingResourceMapper@Resources@@UAE_NABV?$Ptr@VManagedResource@Resources@@@@PBVResourceRequestInfo@2@@Z 0045c360 f   render_win32.release:streamingresourcemapper.obj
 0001:0005b3a0       ?OnRequestManagedResource@StreamingResourceMapper@Resources@@UAE_NABV?$Ptr@VManagedResource@Resources@@@@@Z 0045c3a0 f   render_win32.release:streamingresourcemapper.obj
 0001:0005b3f0       ?OnAutoManageResource@StreamingResourceMapper@Resources@@UAEXABVStringAtom@Util@@_N@Z 0045c3f0 f   render_win32.release:streamingresourcemapper.obj
 0001:0005b440       ?OnDiscardManagedResource@StreamingResourceMapper@Resources@@UAEXABV?$Ptr@VManagedResource@Resources@@@@@Z 0045c440 f   render_win32.release:streamingresourcemapper.obj
 0001:0005b760       ?InitResourceDict@StreamingResourceMapper@Resources@@UAEXABVURI@IO@@@Z 0045c760 f   render_win32.release:streamingresourcemapper.obj
 0001:0005b7b0       ?OnPrepare@StreamingResourceMapper@Resources@@UAEX_N@Z 0045c7b0 f   render_win32.release:streamingresourcemapper.obj
 0001:0005b850       ?OnUpdate@StreamingResourceMapper@Resources@@UAEXH@Z 0045c850 f   render_win32.release:streamingresourcemapper.obj
 0001:0005b880       ?Reset@StreamingResourceMapper@Resources@@UAEXXZ 0045c880 f   render_win32.release:streamingresourcemapper.obj
 0001:0005b980       ?GetAllocatedMemory@StreamingResourceMapper@Resources@@UAEIXZ 0045c980 f   render_win32.release:streamingresourcemapper.obj
 0001:0005b9a0       ?GetUsedMemory@StreamingResourceMapper@Resources@@UAEIXZ 0045c9a0 f   render_win32.release:streamingresourcemapper.obj
 0001:0005b9c0       ?GetResourceInfo@StreamingResourceMapper@Resources@@MAEPBVResourceInfo@2@ABVStringAtom@Util@@@Z 0045c9c0 f   render_win32.release:streamingresourcemapper.obj
 0001:0005bc00       ?LoadResources@StreamingResourceMapper@Resources@@MAEXXZ 0045cc00 f   render_win32.release:streamingresourcemapper.obj
 0001:0005bce0       ?ResourceLoadException@StreamingResourceMapper@Resources@@MBEXABV?$Ptr@VManagedResource@Resources@@@@@Z 0045cce0 f   render_win32.release:streamingresourcemapper.obj
 0001:0005bd90       ?AppendLoadingResource@StreamingResourceMapper@Resources@@MAEABV?$Ptr@VLoadingResource@Resources@@@@ABVRtti@Core@@ABV?$Ptr@VManagedResource@Resources@@@@ABV?$Ptr@VResource@Resources@@@@@Z 0045cd90 f   render_win32.release:streamingresourcemapper.obj
 0001:0005bdd0       ?CleanUpLoadingQueue@StreamingResourceMapper@Resources@@MAEXXZ 0045cdd0 f   render_win32.release:streamingresourcemapper.obj
 0001:0005be00       ?IncreaseLoadingPriority@StreamingResourceMapper@Resources@@MAEXABVStringAtom@Util@@@Z 0045ce00 f   render_win32.release:streamingresourcemapper.obj
 0001:0005bee0       ??0?$Ptr@VResourceLoader@Resources@@@@QAE@PAVResourceLoader@Resources@@@Z 0045cee0 f i render_win32.release:streamingresourcemapper.obj
 0001:0005bf20       ??C?$Ptr@VResource@Resources@@@@QBEPAVResource@Resources@@XZ 0045cf20 f i render_win32.release:streamingresourcemapper.obj
 0001:0005bf60       ??0?$Ptr@VResourceScheduler@Resources@@@@QAE@XZ 0045cf60 f i render_win32.release:streamingresourcemapper.obj
 0001:0005bf80       ??4?$Ptr@VResourceScheduler@Resources@@@@QAEXABV0@@Z 0045cf80 f i render_win32.release:streamingresourcemapper.obj
 0001:0005bff0       ??C?$Ptr@VResourceScheduler@Resources@@@@QBEPAVResourceScheduler@Resources@@XZ 0045cff0 f i render_win32.release:streamingresourcemapper.obj
 0001:0005c030       ?isvalid@?$Ptr@VResourceScheduler@Resources@@@@QBE_NXZ 0045d030 f i render_win32.release:streamingresourcemapper.obj
 0001:0005c050       ??0?$Ptr@VResourceCreator@Resources@@@@QAE@XZ 0045d050 f i render_win32.release:streamingresourcemapper.obj
 0001:0005c070       ??1?$Ptr@VResourceCreator@Resources@@@@QAE@XZ 0045d070 f i render_win32.release:streamingresourcemapper.obj
 0001:0005c0a0       ??C?$Ptr@VResourceCreator@Resources@@@@QBEPAVResourceCreator@Resources@@XZ 0045d0a0 f i render_win32.release:streamingresourcemapper.obj
 0001:0005c0e0       ??1?$Array@V?$KeyValuePair@VStringAtom@Util@@V?$Ptr@VManagedResource@Resources@@@@@Util@@@Util@@QAE@XZ 0045d0e0 f i render_win32.release:streamingresourcemapper.obj
 0001:0005c100       ??0?$Dictionary@VStringAtom@Util@@V?$Ptr@VManagedResource@Resources@@@@@Util@@QAE@XZ 0045d100 f i render_win32.release:streamingresourcemapper.obj
 0001:0005c120       ??A?$Dictionary@VStringAtom@Util@@V?$Ptr@VManagedResource@Resources@@@@@Util@@QAEAAV?$Ptr@VManagedResource@Resources@@@@ABVStringAtom@1@@Z 0045d120 f i render_win32.release:streamingresourcemapper.obj
 0001:0005c170       ?Size@?$Dictionary@VStringAtom@Util@@V?$Ptr@VManagedResource@Resources@@@@@Util@@QBEHXZ 0045d170 f i render_win32.release:streamingresourcemapper.obj
 0001:0005c190       ?Clear@?$Dictionary@VStringAtom@Util@@V?$Ptr@VManagedResource@Resources@@@@@Util@@QAEXXZ 0045d190 f i render_win32.release:streamingresourcemapper.obj
 0001:0005c1d0       ?EraseAtIndex@?$Dictionary@VStringAtom@Util@@V?$Ptr@VManagedResource@Resources@@@@@Util@@QAEXH@Z 0045d1d0 f i render_win32.release:streamingresourcemapper.obj
 0001:0005c210       ?FindIndex@?$Dictionary@VStringAtom@Util@@V?$Ptr@VManagedResource@Resources@@@@@Util@@QBEHABVStringAtom@2@@Z 0045d210 f i render_win32.release:streamingresourcemapper.obj
 0001:0005c270       ?Contains@?$Dictionary@VStringAtom@Util@@V?$Ptr@VManagedResource@Resources@@@@@Util@@QBE_NABVStringAtom@2@@Z 0045d270 f i render_win32.release:streamingresourcemapper.obj
 0001:0005c2d0       ?ValueAtIndex@?$Dictionary@VStringAtom@Util@@V?$Ptr@VManagedResource@Resources@@@@@Util@@QAEAAV?$Ptr@VManagedResource@Resources@@@@H@Z 0045d2d0 f i render_win32.release:streamingresourcemapper.obj
 0001:0005c320       ??0?$Array@V?$Ptr@VLoadingResource@Resources@@@@@Util@@QAE@XZ 0045d320 f i render_win32.release:streamingresourcemapper.obj
 0001:0005c360       ??1?$Array@V?$Ptr@VLoadingResource@Resources@@@@@Util@@QAE@XZ 0045d360 f i render_win32.release:streamingresourcemapper.obj
 0001:0005c380       ??A?$Array@V?$Ptr@VLoadingResource@Resources@@@@@Util@@QBEAAV?$Ptr@VLoadingResource@Resources@@@@H@Z 0045d380 f i render_win32.release:streamingresourcemapper.obj
 0001:0005c3d0       ?Size@?$Array@V?$Ptr@VLoadingResource@Resources@@@@@Util@@QBEHXZ 0045d3d0 f i render_win32.release:streamingresourcemapper.obj
 0001:0005c3f0       ?EraseIndex@?$Array@V?$Ptr@VLoadingResource@Resources@@@@@Util@@QAEXH@Z 0045d3f0 f i render_win32.release:streamingresourcemapper.obj
 0001:0005c470       ?Clear@?$Array@V?$Ptr@VLoadingResource@Resources@@@@@Util@@QAEXXZ 0045d470 f i render_win32.release:streamingresourcemapper.obj
 0001:0005c4c0       ?Sort@?$Array@V?$Ptr@VLoadingResource@Resources@@@@@Util@@QAEXXZ 0045d4c0 f i render_win32.release:streamingresourcemapper.obj
 0001:0005c530       ??1?$Array@V?$KeyValuePair@VStringAtom@Util@@PAVResourceInfo@Resources@@@Util@@@Util@@QAE@XZ 0045d530 f i render_win32.release:streamingresourcemapper.obj
 0001:0005c550       ??0?$Dictionary@VStringAtom@Util@@PAVResourceInfo@Resources@@@Util@@QAE@XZ 0045d550 f i render_win32.release:streamingresourcemapper.obj
 0001:0005c570       ??A?$Dictionary@VStringAtom@Util@@PAVResourceInfo@Resources@@@Util@@QAEAAPAVResourceInfo@Resources@@ABVStringAtom@1@@Z 0045d570 f i render_win32.release:streamingresourcemapper.obj
 0001:0005c5c0       ?Size@?$Dictionary@VStringAtom@Util@@PAVResourceInfo@Resources@@@Util@@QBEHXZ 0045d5c0 f i render_win32.release:streamingresourcemapper.obj
 0001:0005c5e0       ?Clear@?$Dictionary@VStringAtom@Util@@PAVResourceInfo@Resources@@@Util@@QAEXXZ 0045d5e0 f i render_win32.release:streamingresourcemapper.obj
 0001:0005c620       ?FindIndex@?$Dictionary@VStringAtom@Util@@PAVResourceInfo@Resources@@@Util@@QBEHABVStringAtom@2@@Z 0045d620 f i render_win32.release:streamingresourcemapper.obj
 0001:0005c670       ?ValueAtIndex@?$Dictionary@VStringAtom@Util@@PAVResourceInfo@Resources@@@Util@@QAEAAPAVResourceInfo@Resources@@H@Z 0045d670 f i render_win32.release:streamingresourcemapper.obj
 0001:0005c6c0       ??0?$Ptr@VManagedResource@Resources@@@@QAE@ABV0@@Z 0045d6c0 f i render_win32.release:streamingresourcemapper.obj
 0001:0005c700       ??0?$Ptr@VManagedResource@Resources@@@@QAE@XZ 0045d700 f i render_win32.release:streamingresourcemapper.obj
 0001:0005c720       ??1?$Ptr@VManagedResource@Resources@@@@QAE@XZ 0045d720 f i render_win32.release:streamingresourcemapper.obj
 0001:0005c750       ??4?$Ptr@VManagedResource@Resources@@@@QAEXPAVManagedResource@Resources@@@Z 0045d750 f i render_win32.release:streamingresourcemapper.obj
 0001:0005c7b0       ??4?$Ptr@VManagedResource@Resources@@@@QAEXABV0@@Z 0045d7b0 f i render_win32.release:streamingresourcemapper.obj
 0001:0005c810       ??0?$Ptr@VStreamingResourceMapper@Resources@@@@QAE@PAVStreamingResourceMapper@Resources@@@Z 0045d810 f i render_win32.release:streamingresourcemapper.obj
 0001:0005c850       ??1?$Ptr@VStreamingResourceMapper@Resources@@@@QAE@XZ 0045d850 f i render_win32.release:streamingresourcemapper.obj
 0001:0005c880       ??C?$Ptr@VLoadingResource@Resources@@@@QBEPAVLoadingResource@Resources@@XZ 0045d880 f i render_win32.release:streamingresourcemapper.obj
 0001:0005c8c0       ??0?$Ptr@VResourceDictionaryReader@Resources@@@@QAE@PAVResourceDictionaryReader@Resources@@@Z 0045d8c0 f i render_win32.release:streamingresourcemapper.obj
 0001:0005c900       ??1?$Ptr@VResourceDictionaryReader@Resources@@@@QAE@XZ 0045d900 f i render_win32.release:streamingresourcemapper.obj
 0001:0005c930       ??C?$Ptr@VResourceDictionaryReader@Resources@@@@QBEPAVResourceDictionaryReader@Resources@@XZ 0045d930 f i render_win32.release:streamingresourcemapper.obj
 0001:0005c970       ??1?$KeyValuePair@VStringAtom@Util@@V?$Ptr@VManagedResource@Resources@@@@@Util@@QAE@XZ 0045d970 f i render_win32.release:streamingresourcemapper.obj
 0001:0005c990       ??0?$Array@V?$KeyValuePair@VStringAtom@Util@@V?$Ptr@VManagedResource@Resources@@@@@Util@@@Util@@QAE@XZ 0045d990 f i render_win32.release:streamingresourcemapper.obj
 0001:0005c9d0       ??A?$Array@V?$KeyValuePair@VStringAtom@Util@@V?$Ptr@VManagedResource@Resources@@@@@Util@@@Util@@QBEAAV?$KeyValuePair@VStringAtom@Util@@V?$Ptr@VManagedResource@Resources@@@@@1@H@Z 0045d9d0 f i render_win32.release:streamingresourcemapper.obj
 0001:0005ca20       ?Size@?$Array@V?$KeyValuePair@VStringAtom@Util@@V?$Ptr@VManagedResource@Resources@@@@@Util@@@Util@@QBEHXZ 0045da20 f i render_win32.release:streamingresourcemapper.obj
 0001:0005ca40       ?EraseIndex@?$Array@V?$KeyValuePair@VStringAtom@Util@@V?$Ptr@VManagedResource@Resources@@@@@Util@@@Util@@QAEXH@Z 0045da40 f i render_win32.release:streamingresourcemapper.obj
 0001:0005cac0       ?Clear@?$Array@V?$KeyValuePair@VStringAtom@Util@@V?$Ptr@VManagedResource@Resources@@@@@Util@@@Util@@QAEXXZ 0045dac0 f i render_win32.release:streamingresourcemapper.obj
 0001:0005cb10       ?BinarySearchIndex@?$Array@V?$KeyValuePair@VStringAtom@Util@@V?$Ptr@VManagedResource@Resources@@@@@Util@@@Util@@QBEHABV?$KeyValuePair@VStringAtom@Util@@V?$Ptr@VManagedResource@Resources@@@@@2@@Z 0045db10 f i render_win32.release:streamingresourcemapper.obj
 0001:0005cc40       ?Delete@?$Array@V?$KeyValuePair@VStringAtom@Util@@V?$Ptr@VManagedResource@Resources@@@@@Util@@@Util@@AAEXXZ 0045dc40 f i render_win32.release:streamingresourcemapper.obj
 0001:0005ccb0       ??0?$KeyValuePair@VStringAtom@Util@@V?$Ptr@VManagedResource@Resources@@@@@Util@@QAE@ABVStringAtom@1@@Z 0045dcb0 f i render_win32.release:streamingresourcemapper.obj
 0001:0005cce0       ?Value@?$KeyValuePair@VStringAtom@Util@@V?$Ptr@VManagedResource@Resources@@@@@Util@@QAEAAV?$Ptr@VManagedResource@Resources@@@@XZ 0045dce0 f i render_win32.release:streamingresourcemapper.obj
 0001:0005cd00       ?Begin@?$Array@V?$Ptr@VLoadingResource@Resources@@@@@Util@@QBEPAV?$Ptr@VLoadingResource@Resources@@@@XZ 0045dd00 f i render_win32.release:streamingresourcemapper.obj
 0001:0005cd20       ?End@?$Array@V?$Ptr@VLoadingResource@Resources@@@@@Util@@QBEPAV?$Ptr@VLoadingResource@Resources@@@@XZ 0045dd20 f i render_win32.release:streamingresourcemapper.obj
 0001:0005cd40       ?Destroy@?$Array@V?$Ptr@VLoadingResource@Resources@@@@@Util@@AAEXPAV?$Ptr@VLoadingResource@Resources@@@@@Z 0045dd40 f i render_win32.release:streamingresourcemapper.obj
 0001:0005cd70       ?Delete@?$Array@V?$Ptr@VLoadingResource@Resources@@@@@Util@@AAEXXZ 0045dd70 f i render_win32.release:streamingresourcemapper.obj
 0001:0005cde0       ?Move@?$Array@V?$Ptr@VLoadingResource@Resources@@@@@Util@@AAEXHH@Z 0045dde0 f i render_win32.release:streamingresourcemapper.obj
 0001:0005cf70       ??$sort@PAV?$Ptr@VLoadingResource@Resources@@@@@std@@YAXPAV?$Ptr@VLoadingResource@Resources@@@@0@Z 0045df70 f i render_win32.release:streamingresourcemapper.obj
 0001:0005cfa0       ??0?$Array@V?$KeyValuePair@VStringAtom@Util@@PAVResourceInfo@Resources@@@Util@@@Util@@QAE@XZ 0045dfa0 f i render_win32.release:streamingresourcemapper.obj
 0001:0005cfe0       ??A?$Array@V?$KeyValuePair@VStringAtom@Util@@PAVResourceInfo@Resources@@@Util@@@Util@@QBEAAV?$KeyValuePair@VStringAtom@Util@@PAVResourceInfo@Resources@@@1@H@Z 0045dfe0 f i render_win32.release:streamingresourcemapper.obj
 0001:0005d030       ?Size@?$Array@V?$KeyValuePair@VStringAtom@Util@@PAVResourceInfo@Resources@@@Util@@@Util@@QBEHXZ 0045e030 f i render_win32.release:streamingresourcemapper.obj
 0001:0005d050       ?Clear@?$Array@V?$KeyValuePair@VStringAtom@Util@@PAVResourceInfo@Resources@@@Util@@@Util@@QAEXXZ 0045e050 f i render_win32.release:streamingresourcemapper.obj
 0001:0005d0a0       ?BinarySearchIndex@?$Array@V?$KeyValuePair@VStringAtom@Util@@PAVResourceInfo@Resources@@@Util@@@Util@@QBEHABV?$KeyValuePair@VStringAtom@Util@@PAVResourceInfo@Resources@@@2@@Z 0045e0a0 f i render_win32.release:streamingresourcemapper.obj
 0001:0005d1d0       ?Delete@?$Array@V?$KeyValuePair@VStringAtom@Util@@PAVResourceInfo@Resources@@@Util@@@Util@@AAEXXZ 0045e1d0 f i render_win32.release:streamingresourcemapper.obj
 0001:0005d230       ??0?$KeyValuePair@VStringAtom@Util@@PAVResourceInfo@Resources@@@Util@@QAE@ABVStringAtom@1@@Z 0045e230 f i render_win32.release:streamingresourcemapper.obj
 0001:0005d250       ?Value@?$KeyValuePair@VStringAtom@Util@@PAVResourceInfo@Resources@@@Util@@QAEAAPAVResourceInfo@Resources@@XZ 0045e250 f i render_win32.release:streamingresourcemapper.obj
 0001:0005d270       ??_E?$KeyValuePair@VStringAtom@Util@@V?$Ptr@VManagedResource@Resources@@@@@Util@@QAEPAXI@Z 0045e270 f i render_win32.release:streamingresourcemapper.obj
 0001:0005d310       ??_G?$Ptr@VLoadingResource@Resources@@@@QAEPAXI@Z 0045e310 f i render_win32.release:streamingresourcemapper.obj
 0001:0005d340       ??_E?$Ptr@VLoadingResource@Resources@@@@QAEPAXI@Z 0045e340 f i render_win32.release:streamingresourcemapper.obj
 0001:0005d3e0       ?Destroy@?$Array@V?$KeyValuePair@VStringAtom@Util@@V?$Ptr@VManagedResource@Resources@@@@@Util@@@Util@@AAEXPAV?$KeyValuePair@VStringAtom@Util@@V?$Ptr@VManagedResource@Resources@@@@@2@@Z 0045e3e0 f i render_win32.release:streamingresourcemapper.obj
 0001:0005d410       ?Move@?$Array@V?$KeyValuePair@VStringAtom@Util@@V?$Ptr@VManagedResource@Resources@@@@@Util@@@Util@@AAEXHH@Z 0045e410 f i render_win32.release:streamingresourcemapper.obj
 0001:0005d5a0       ??9?$KeyValuePair@VStringAtom@Util@@V?$Ptr@VManagedResource@Resources@@@@@Util@@QBE_NABV01@@Z 0045e5a0 f i render_win32.release:streamingresourcemapper.obj
 0001:0005d5c0       ??O?$KeyValuePair@VStringAtom@Util@@V?$Ptr@VManagedResource@Resources@@@@@Util@@QBE_NABV01@@Z 0045e5c0 f i render_win32.release:streamingresourcemapper.obj
 0001:0005d5e0       ??M?$KeyValuePair@VStringAtom@Util@@V?$Ptr@VManagedResource@Resources@@@@@Util@@QBE_NABV01@@Z 0045e5e0 f i render_win32.release:streamingresourcemapper.obj
 0001:0005d600       ?Grow@?$Array@V?$Ptr@VLoadingResource@Resources@@@@@Util@@AAEXXZ 0045e600 f i render_win32.release:streamingresourcemapper.obj
 0001:0005d680       ??1?$Ptr@VLoadingResource@Resources@@@@QAE@XZ 0045e680 f i render_win32.release:streamingresourcemapper.obj
 0001:0005d6b0       ??4?$Ptr@VLoadingResource@Resources@@@@QAEXABV0@@Z 0045e6b0 f i render_win32.release:streamingresourcemapper.obj
 0001:0005d710       ??$_Checked_base@PAV?$Ptr@VLoadingResource@Resources@@@@@std@@YAPAV?$Ptr@VLoadingResource@Resources@@@@AAPAV1@@Z 0045e710 f i render_win32.release:streamingresourcemapper.obj
 0001:0005d730       ??$_Sort@PAV?$Ptr@VLoadingResource@Resources@@@@H@std@@YAXPAV?$Ptr@VLoadingResource@Resources@@@@0H@Z 0045e730 f i render_win32.release:streamingresourcemapper.obj
 0001:0005d860       ?Destroy@?$Array@V?$KeyValuePair@VStringAtom@Util@@PAVResourceInfo@Resources@@@Util@@@Util@@AAEXPAV?$KeyValuePair@VStringAtom@Util@@PAVResourceInfo@Resources@@@2@@Z 0045e860 f i render_win32.release:streamingresourcemapper.obj
 0001:0005d870       ??9?$KeyValuePair@VStringAtom@Util@@PAVResourceInfo@Resources@@@Util@@QBE_NABV01@@Z 0045e870 f i render_win32.release:streamingresourcemapper.obj
 0001:0005d890       ??O?$KeyValuePair@VStringAtom@Util@@PAVResourceInfo@Resources@@@Util@@QBE_NABV01@@Z 0045e890 f i render_win32.release:streamingresourcemapper.obj
 0001:0005d8b0       ??M?$KeyValuePair@VStringAtom@Util@@PAVResourceInfo@Resources@@@Util@@QBE_NABV01@@Z 0045e8b0 f i render_win32.release:streamingresourcemapper.obj
 0001:0005d8d0       ??_G?$KeyValuePair@VStringAtom@Util@@V?$Ptr@VManagedResource@Resources@@@@@Util@@QAEPAXI@Z 0045e8d0 f i render_win32.release:streamingresourcemapper.obj
 0001:0005d910       ?Grow@?$Array@V?$KeyValuePair@VStringAtom@Util@@V?$Ptr@VManagedResource@Resources@@@@@Util@@@Util@@AAEXXZ 0045e910 f i render_win32.release:streamingresourcemapper.obj
 0001:0005d990       ??4?$KeyValuePair@VStringAtom@Util@@V?$Ptr@VManagedResource@Resources@@@@@Util@@QAEXABV01@@Z 0045e990 f i render_win32.release:streamingresourcemapper.obj
 0001:0005d9c0       ?GrowTo@?$Array@V?$Ptr@VLoadingResource@Resources@@@@@Util@@AAEXH@Z 0045e9c0 f i render_win32.release:streamingresourcemapper.obj
 0001:0005dae0       ??$_Checked_base@PAV?$Ptr@VLoadingResource@Resources@@@@@std@@YAPAV?$Ptr@VLoadingResource@Resources@@@@AAPAV1@U_Unchanged_checked_iterator_base_type_tag@0@@Z 0045eae0 f i render_win32.release:streamingresourcemapper.obj
 0001:0005daf0       ??$_Unguarded_partition@PAV?$Ptr@VLoadingResource@Resources@@@@@std@@YA?AU?$pair@PAV?$Ptr@VLoadingResource@Resources@@@@PAV1@@0@PAV?$Ptr@VLoadingResource@Resources@@@@0@Z 0045eaf0 f i render_win32.release:streamingresourcemapper.obj
 0001:0005ddc0       ??$make_heap@PAV?$Ptr@VLoadingResource@Resources@@@@@std@@YAXPAV?$Ptr@VLoadingResource@Resources@@@@0@Z 0045edc0 f i render_win32.release:streamingresourcemapper.obj
 0001:0005de00       ??$sort_heap@PAV?$Ptr@VLoadingResource@Resources@@@@@std@@YAXPAV?$Ptr@VLoadingResource@Resources@@@@0@Z 0045ee00 f i render_win32.release:streamingresourcemapper.obj
 0001:0005de20       ??$_Insertion_sort@PAV?$Ptr@VLoadingResource@Resources@@@@@std@@YAXPAV?$Ptr@VLoadingResource@Resources@@@@0@Z 0045ee20 f i render_win32.release:streamingresourcemapper.obj
 0001:0005de40       ??0?$pair@PAV?$Ptr@VLoadingResource@Resources@@@@PAV1@@std@@QAE@ABQAV?$Ptr@VLoadingResource@Resources@@@@0@Z 0045ee40 f i render_win32.release:streamingresourcemapper.obj
 0001:0005de70       ?GrowTo@?$Array@V?$KeyValuePair@VStringAtom@Util@@V?$Ptr@VManagedResource@Resources@@@@@Util@@@Util@@AAEXH@Z 0045ee70 f i render_win32.release:streamingresourcemapper.obj
 0001:0005df90       ??0?$Ptr@VLoadingResource@Resources@@@@QAE@XZ 0045ef90 f i render_win32.release:streamingresourcemapper.obj
 0001:0005dfb0       ??B?$Ptr@VLoadingResource@Resources@@@@QBEPAVLoadingResource@Resources@@XZ 0045efb0 f i render_win32.release:streamingresourcemapper.obj
 0001:0005dff0       ??$_Median@PAV?$Ptr@VLoadingResource@Resources@@@@@std@@YAXPAV?$Ptr@VLoadingResource@Resources@@@@00@Z 0045eff0 f i render_win32.release:streamingresourcemapper.obj
 0001:0005e0d0       ??$iter_swap@PAV?$Ptr@VLoadingResource@Resources@@@@PAV1@@std@@YAXPAV?$Ptr@VLoadingResource@Resources@@@@0@Z 0045f0d0 f i render_win32.release:streamingresourcemapper.obj
 0001:0005e0f0       ??$_Dist_type@PAV?$Ptr@VLoadingResource@Resources@@@@@std@@YAPAHPAV?$Ptr@VLoadingResource@Resources@@@@@Z 0045f0f0 f i render_win32.release:streamingresourcemapper.obj
 0001:0005e100       ??$_Val_type@PAV?$Ptr@VLoadingResource@Resources@@@@@std@@YAPAV?$Ptr@VLoadingResource@Resources@@@@PAV1@@Z 0045f100 f i render_win32.release:streamingresourcemapper.obj
 0001:0005e110       ??$_Make_heap@PAV?$Ptr@VLoadingResource@Resources@@@@HV1@@std@@YAXPAV?$Ptr@VLoadingResource@Resources@@@@0PAH0@Z 0045f110 f i render_win32.release:streamingresourcemapper.obj
 0001:0005e170       ??$_Sort_heap@PAV?$Ptr@VLoadingResource@Resources@@@@@std@@YAXPAV?$Ptr@VLoadingResource@Resources@@@@0@Z 0045f170 f i render_win32.release:streamingresourcemapper.obj
 0001:0005e1d0       ??$_Insertion_sort1@PAV?$Ptr@VLoadingResource@Resources@@@@V1@@std@@YAXPAV?$Ptr@VLoadingResource@Resources@@@@00@Z 0045f1d0 f i render_win32.release:streamingresourcemapper.obj
 0001:0005e2b0       ??0?$KeyValuePair@VStringAtom@Util@@V?$Ptr@VManagedResource@Resources@@@@@Util@@QAE@XZ 0045f2b0 f i render_win32.release:streamingresourcemapper.obj
 0001:0005e2e0       ??0?$Ptr@VLoadingResource@Resources@@@@QAE@ABV0@@Z 0045f2e0 f i render_win32.release:streamingresourcemapper.obj
 0001:0005e320       ??$_Med3@PAV?$Ptr@VLoadingResource@Resources@@@@@std@@YAXPAV?$Ptr@VLoadingResource@Resources@@@@00@Z 0045f320 f i render_win32.release:streamingresourcemapper.obj
 0001:0005e3a0       ??$swap@V?$Ptr@VLoadingResource@Resources@@@@@std@@YAXAAV?$Ptr@VLoadingResource@Resources@@@@0@Z 0045f3a0 f i render_win32.release:streamingresourcemapper.obj
 0001:0005e3e0       ??$_Adjust_heap@PAV?$Ptr@VLoadingResource@Resources@@@@HV1@@std@@YAXPAV?$Ptr@VLoadingResource@Resources@@@@HHV1@@Z 0045f3e0 f i render_win32.release:streamingresourcemapper.obj
 0001:0005e4b0       ??$pop_heap@PAV?$Ptr@VLoadingResource@Resources@@@@@std@@YAXPAV?$Ptr@VLoadingResource@Resources@@@@0@Z 0045f4b0 f i render_win32.release:streamingresourcemapper.obj
 0001:0005e4e0       ??$unchecked_copy_backward@PAV?$Ptr@VLoadingResource@Resources@@@@PAV1@@stdext@@YAPAV?$Ptr@VLoadingResource@Resources@@@@PAV1@00@Z 0045f4e0 f i render_win32.release:streamingresourcemapper.obj
 0001:0005e580       ??$_Push_heap@PAV?$Ptr@VLoadingResource@Resources@@@@HV1@@std@@YAXPAV?$Ptr@VLoadingResource@Resources@@@@HHV1@@Z 0045f580 f i render_win32.release:streamingresourcemapper.obj
 0001:0005e610       ??$_Pop_heap_0@PAV?$Ptr@VLoadingResource@Resources@@@@V1@@std@@YAXPAV?$Ptr@VLoadingResource@Resources@@@@00@Z 0045f610 f i render_win32.release:streamingresourcemapper.obj
 0001:0005e650       ??$_Iter_random@PAV?$Ptr@VLoadingResource@Resources@@@@PAV1@@std@@YA?AUrandom_access_iterator_tag@0@ABQAV?$Ptr@VLoadingResource@Resources@@@@0@Z 0045f650 f i render_win32.release:streamingresourcemapper.obj
 0001:0005e660       ??$_Ptr_cat@PAV?$Ptr@VLoadingResource@Resources@@@@PAV1@@std@@YA?AU_Nonscalar_ptr_iterator_tag@0@AAPAV?$Ptr@VLoadingResource@Resources@@@@0@Z 0045f660 f i render_win32.release:streamingresourcemapper.obj
 0001:0005e670       ??$_Copy_backward_opt@PAV?$Ptr@VLoadingResource@Resources@@@@PAV1@@std@@YAPAV?$Ptr@VLoadingResource@Resources@@@@PAV1@00Urandom_access_iterator_tag@0@U_Nonscalar_ptr_iterator_tag@0@U_Range_checked_iterator_tag@0@@Z 0045f670 f i render_win32.release:streamingresourcemapper.obj
 0001:0005e6e0       ??$_Pop_heap@PAV?$Ptr@VLoadingResource@Resources@@@@HV1@@std@@YAXPAV?$Ptr@VLoadingResource@Resources@@@@00V1@PAH@Z 0045f6e0 f i render_win32.release:streamingresourcemapper.obj
 0001:0005e730       ??$_Copy_backward_opt@PAV?$Ptr@VLoadingResource@Resources@@@@PAV1@Uforward_iterator_tag@std@@@std@@YAPAV?$Ptr@VLoadingResource@Resources@@@@PAV1@00Uforward_iterator_tag@0@U_Nonscalar_ptr_iterator_tag@0@U_Range_checked_iterator_tag@0@@Z 0045f730 f i render_win32.release:streamingresourcemapper.obj
 0001:0005e760       ??3ResourceScheduler@Resources@@SAXPAX@Z 0045f760 f i render_win32.release:texturepoolmapperscheduler.obj
 0001:0005e780       ??2TexturePoolMapperScheduler@Resources@@SAPAXI@Z 0045f780 f i render_win32.release:texturepoolmapperscheduler.obj
 0001:0005e790       ??3TexturePoolMapperScheduler@Resources@@SAXPAX@Z 0045f790 f i render_win32.release:texturepoolmapperscheduler.obj
 0001:0005e7b0       ?SetResourceId@ResourceRequestInfo@Resources@@QAEXABVStringAtom@Util@@@Z 0045f7b0 f i render_win32.release:texturepoolmapperscheduler.obj
 0001:0005e7d0       ??0TextureRequestInfo@Resources@@QAE@XZ 0045f7d0 f i render_win32.release:texturepoolmapperscheduler.obj
 0001:0005e800       ??1TextureRequestInfo@Resources@@QAE@XZ 0045f800 f i render_win32.release:texturepoolmapperscheduler.obj
 0001:0005e820       ?GetMipLevel@TextureRequestInfo@Resources@@QBEHXZ 0045f820 f i render_win32.release:texturepoolmapperscheduler.obj
 0001:0005e840       ?SetMipLevel@TextureRequestInfo@Resources@@QAEXH@Z 0045f840 f i render_win32.release:texturepoolmapperscheduler.obj
 0001:0005e860       ?Lock@Resource@Resources@@QAEXXZ 0045f860 f i render_win32.release:texturepoolmapperscheduler.obj
 0001:0005e880       ?IsLocked@Resource@Resources@@QBE_NXZ 0045f880 f i render_win32.release:texturepoolmapperscheduler.obj
 0001:0005e8a0       ?GetResourceId@Resource@Resources@@QBEABVStringAtom@Util@@XZ 0045f8a0 f i render_win32.release:texturepoolmapperscheduler.obj
 0001:0005e8c0       ?SetResourceType@ManagedResource@Resources@@QAEXPBVRtti@Core@@@Z 0045f8c0 f i render_win32.release:texturepoolmapperscheduler.obj
 0001:0005e900       ?GetResourceStreamingLevelOfDetail@ManagedResource@Resources@@QBEMXZ 0045f900 f i render_win32.release:texturepoolmapperscheduler.obj
 0001:0005e920       ?GetLoadedResource@ManagedResource@Resources@@QBEABV?$Ptr@VResource@Resources@@@@XZ 0045f920 f i render_win32.release:texturepoolmapperscheduler.obj
 0001:0005e950       ?GetType@TextureBase@Base@@QBE?AW4Type@12@XZ 0045f950 f i render_win32.release:texturepoolmapperscheduler.obj
 0001:0005e970       ?GetWidth@TextureBase@Base@@QBEHXZ 0045f970 f i render_win32.release:texturepoolmapperscheduler.obj
 0001:0005e990       ?GetHeight@TextureBase@Base@@QBEHXZ 0045f990 f i render_win32.release:texturepoolmapperscheduler.obj
 0001:0005e9b0       ?GetNumMipLevels@TextureBase@Base@@QBEHXZ 0045f9b0 f i render_win32.release:texturepoolmapperscheduler.obj
 0001:0005e9d0       ?SetSkippedMips@TextureBase@Base@@QAEXH@Z 0045f9d0 f i render_win32.release:texturepoolmapperscheduler.obj
 0001:0005e9f0       ?GetSkippedMips@TextureBase@Base@@QBEHXZ 0045f9f0 f i render_win32.release:texturepoolmapperscheduler.obj
 0001:0005ea10       ?GetTexture@ManagedTexture@Resources@@QBEABV?$Ptr@VTexture@CoreGraphics@@@@XZ 0045fa10 f i render_win32.release:texturepoolmapperscheduler.obj
 0001:0005ea50       ?GetTextureUnloaded@ManagedTexture@Resources@@QBEABV?$Ptr@VTexture@CoreGraphics@@@@XZ 0045fa50 f i render_win32.release:texturepoolmapperscheduler.obj
 0001:0005ea90       ?IsEqual@ResourceInfo@Resources@@UBE_NPBV12@@Z 0045fa90 f i render_win32.release:texturepoolmapperscheduler.obj
 0001:0005eab0       ?SetReuseTexture@D3D9TextureStreamer@Resources@@QAEXABV?$Ptr@VTexture@CoreGraphics@@@@@Z 0045fab0 f i render_win32.release:texturepoolmapperscheduler.obj
 0001:0005eb00       ?GetCurrentManagedResource@ResourceSlot@Resources@@QBE?AV?$Ptr@VManagedResource@Resources@@@@XZ 0045fb00 f i render_win32.release:texturepoolmapperscheduler.obj
 0001:0005eb20       ?SetCurrentManagedResource@ResourceSlot@Resources@@QAEXABV?$Ptr@VManagedResource@Resources@@@@@Z 0045fb20 f i render_win32.release:texturepoolmapperscheduler.obj
 0001:0005eb40       ?GetResource@ResourceSlot@Resources@@QBEABV?$Ptr@VResource@Resources@@@@XZ 0045fb40 f i render_win32.release:texturepoolmapperscheduler.obj
 0001:0005eb60       ?IncreaseRejectedRequests@ResourcePool@Resources@@QAEXABVStringAtom@Util@@@Z 0045fb60 f i render_win32.release:texturepoolmapperscheduler.obj
 0001:0005ebb0       ?IncreaseAutoMipPoolsNotFound@ResourcePool@Resources@@QAEXXZ 0045fbb0 f i render_win32.release:texturepoolmapperscheduler.obj
 0001:0005ebe0       ?IncreaseAutoMipSlotsNotFound@ResourcePool@Resources@@QAEXXZ 0045fbe0 f i render_win32.release:texturepoolmapperscheduler.obj
 0001:0005ec10       ?SetTargetSlot@PoolLoadingResource@Resources@@QAEXABV?$Ptr@VResourceSlot@Resources@@@@@Z 0045fc10 f i render_win32.release:texturepoolmapperscheduler.obj
 0001:0005ec30       ?SetSourceSlot@PoolLoadingResource@Resources@@QAEXABV?$Ptr@VResourceSlot@Resources@@@@@Z 0045fc30 f i render_win32.release:texturepoolmapperscheduler.obj
 0001:0005ec50       ?GetRtti@TexturePoolMapperScheduler@Resources@@UBEPAVRtti@Core@@XZ 0045fc50 f   render_win32.release:texturepoolmapperscheduler.obj
 0001:0005ec60       ?FactoryCreator@TexturePoolMapperScheduler@Resources@@SAPAVRefCounted@Core@@XZ 0045fc60 f   render_win32.release:texturepoolmapperscheduler.obj
 0001:0005ec70       ?Create@TexturePoolMapperScheduler@Resources@@SAPAV12@XZ 0045fc70 f   render_win32.release:texturepoolmapperscheduler.obj
 0001:0005ecb0       ?RegisterWithFactory@TexturePoolMapperScheduler@Resources@@SA_NXZ 0045fcb0 f   render_win32.release:texturepoolmapperscheduler.obj
 0001:0005edb0       ??0TexturePoolMapperScheduler@Resources@@QAE@XZ 0045fdb0 f   render_win32.release:texturepoolmapperscheduler.obj
 0001:0005ee00       ??_ETexturePoolMapperScheduler@Resources@@UAEPAXI@Z 0045fe00 f i  CIL library: CIL module
 0001:0005ee00       ??_GTexturePoolMapperScheduler@Resources@@UAEPAXI@Z 0045fe00 f i render_win32.release:texturepoolmapperscheduler.obj
 0001:0005ee30       ??0ResourceScheduler@Resources@@QAE@XZ 0045fe30 f i render_win32.release:texturepoolmapperscheduler.obj
 0001:0005ee70       ??1ResourceScheduler@Resources@@UAE@XZ 0045fe70 f i render_win32.release:texturepoolmapperscheduler.obj
 0001:0005ee90       ??_GResourceScheduler@Resources@@UAEPAXI@Z 0045fe90 f i render_win32.release:texturepoolmapperscheduler.obj
 0001:0005ee90       ??_EResourceScheduler@Resources@@UAEPAXI@Z 0045fe90 f i  CIL library: CIL module
 0001:0005eed0       ??1TexturePoolMapperScheduler@Resources@@UAE@XZ 0045fed0 f   render_win32.release:texturepoolmapperscheduler.obj
 0001:0005ef10       ?SetMapper@TexturePoolMapperScheduler@Resources@@UAEXABV?$Ptr@VStreamingResourceMapper@Resources@@@@@Z 0045ff10 f   render_win32.release:texturepoolmapperscheduler.obj
 0001:0005ef40       ?DoResourceLOD@TexturePoolMapperScheduler@Resources@@UAEXABV?$Ptr@VManagedResource@Resources@@@@@Z 0045ff40 f   render_win32.release:texturepoolmapperscheduler.obj
 0001:0005f1a0       ?OnRequestManagedResource@TexturePoolMapperScheduler@Resources@@UAE_NABV?$Ptr@VManagedResource@Resources@@@@PBVResourceRequestInfo@2@@Z 004601a0 f   render_win32.release:texturepoolmapperscheduler.obj
 0001:0005f770       ?OnRemoveFromMapper@TexturePoolMapperScheduler@Resources@@UAEXXZ 00460770 f   render_win32.release:texturepoolmapperscheduler.obj
 0001:0005f790       ?OnRequestOtherMipMap@TexturePoolMapperScheduler@Resources@@MAE_NABV?$Ptr@VManagedTexture@Resources@@@@PBVTextureRequestInfo@2@@Z 00460790 f   render_win32.release:texturepoolmapperscheduler.obj
 0001:00060150       ??0TextureInfo@Resources@@QAE@ABV01@@Z 00461150 f i render_win32.release:texturepoolmapperscheduler.obj
 0001:00060180       ??1TextureInfo@Resources@@QAE@XZ 00461180 f i render_win32.release:texturepoolmapperscheduler.obj
 0001:000601a0       ??0D3D9TextureInfo@Resources@@QAE@ABV01@@Z 004611a0 f i render_win32.release:texturepoolmapperscheduler.obj
 0001:00060220       ??0ResourceInfo@Resources@@QAE@ABV01@@Z 00461220 f i render_win32.release:texturepoolmapperscheduler.obj
 0001:00060250       ??0?$Ptr@VStreamingResourceMapper@Resources@@@@QAE@XZ 00461250 f i render_win32.release:texturepoolmapperscheduler.obj
 0001:00060270       ??C?$Ptr@VStreamingResourceMapper@Resources@@@@QBEPAVStreamingResourceMapper@Resources@@XZ 00461270 f i render_win32.release:texturepoolmapperscheduler.obj
 0001:000602b0       ??0?$Ptr@VPoolResourceMapper@Resources@@@@QAE@XZ 004612b0 f i render_win32.release:texturepoolmapperscheduler.obj
 0001:000602d0       ??4?$Ptr@VPoolResourceMapper@Resources@@@@QAEXPAVPoolResourceMapper@Resources@@@Z 004612d0 f i render_win32.release:texturepoolmapperscheduler.obj
 0001:00060330       ??4?$Ptr@VPoolResourceMapper@Resources@@@@QAEXABV0@@Z 00461330 f i render_win32.release:texturepoolmapperscheduler.obj
 0001:00060390       ??$downcast@VTexture@CoreGraphics@@@?$Ptr@VResource@Resources@@@@QBEABV?$Ptr@VTexture@CoreGraphics@@@@XZ 00461390 f i render_win32.release:texturepoolmapperscheduler.obj
 0001:000603a0       ?Erase@?$Dictionary@VStringAtom@Util@@V?$Ptr@VManagedResource@Resources@@@@@Util@@QAEXABVStringAtom@2@@Z 004613a0 f i render_win32.release:texturepoolmapperscheduler.obj
 0001:00060420       ??0?$Ptr@VTexture@CoreGraphics@@@@QAE@ABV0@@Z 00461420 f i render_win32.release:texturepoolmapperscheduler.obj
 0001:00060460       ??1?$Ptr@VTexture@CoreGraphics@@@@QAE@XZ 00461460 f i render_win32.release:texturepoolmapperscheduler.obj
 0001:00060490       ??4?$Ptr@VTexture@CoreGraphics@@@@QAEXABV0@@Z 00461490 f i render_win32.release:texturepoolmapperscheduler.obj
 0001:000604f0       ??C?$Ptr@VTexture@CoreGraphics@@@@QBEPAVTexture@CoreGraphics@@XZ 004614f0 f i render_win32.release:texturepoolmapperscheduler.obj
 0001:00060530       ?isvalid@?$Ptr@VTexture@CoreGraphics@@@@QBE_NXZ 00461530 f i render_win32.release:texturepoolmapperscheduler.obj
 0001:00060550       ??0?$Ptr@VManagedResource@Resources@@@@QAE@PAVManagedResource@Resources@@@Z 00461550 f i render_win32.release:texturepoolmapperscheduler.obj
 0001:00060590       ?isvalid@?$Ptr@VManagedResource@Resources@@@@QBE_NXZ 00461590 f i render_win32.release:texturepoolmapperscheduler.obj
 0001:000605b0       ??1?$Ptr@VResourceSlot@Resources@@@@QAE@XZ 004615b0 f i render_win32.release:texturepoolmapperscheduler.obj
 0001:000605e0       ??4?$Ptr@VResourceSlot@Resources@@@@QAEXABV0@@Z 004615e0 f i render_win32.release:texturepoolmapperscheduler.obj
 0001:00060640       ??C?$Ptr@VResourceSlot@Resources@@@@QBEPAVResourceSlot@Resources@@XZ 00461640 f i render_win32.release:texturepoolmapperscheduler.obj
 0001:00060680       ?isvalid@?$Ptr@VResourceSlot@Resources@@@@QBE_NXZ 00461680 f i render_win32.release:texturepoolmapperscheduler.obj
 0001:000606a0       ??$downcast@VPoolResourceMapper@Resources@@@?$Ptr@VStreamingResourceMapper@Resources@@@@QBEABV?$Ptr@VPoolResourceMapper@Resources@@@@XZ 004616a0 f i render_win32.release:texturepoolmapperscheduler.obj
 0001:000606b0       ??0?$Ptr@VManagedTexture@Resources@@@@QAE@ABV0@@Z 004616b0 f i render_win32.release:texturepoolmapperscheduler.obj
 0001:000606f0       ??C?$Ptr@VManagedTexture@Resources@@@@QBEPAVManagedTexture@Resources@@XZ 004616f0 f i render_win32.release:texturepoolmapperscheduler.obj
 0001:00060730       ?isvalid@?$Ptr@VManagedTexture@Resources@@@@QBE_NXZ 00461730 f i render_win32.release:texturepoolmapperscheduler.obj
 0001:00060750       ??$downcast@VManagedTexture@Resources@@@?$Ptr@VManagedResource@Resources@@@@QBEABV?$Ptr@VManagedTexture@Resources@@@@XZ 00461750 f i render_win32.release:texturepoolmapperscheduler.obj
 0001:00060760       ??$upcast@VManagedResource@Resources@@@?$Ptr@VManagedTexture@Resources@@@@QBEABV?$Ptr@VManagedResource@Resources@@@@XZ 00461760 f i render_win32.release:texturepoolmapperscheduler.obj
 0001:00060770       ??0?$Ptr@VTextureStreamer@Resources@@@@QAE@ABV0@@Z 00461770 f i render_win32.release:texturepoolmapperscheduler.obj
 0001:000607b0       ??1?$Ptr@VTextureStreamer@Resources@@@@QAE@XZ 004617b0 f i render_win32.release:texturepoolmapperscheduler.obj
 0001:000607e0       ??C?$Ptr@VTextureStreamer@Resources@@@@QBEPAVTextureStreamer@Resources@@XZ 004617e0 f i render_win32.release:texturepoolmapperscheduler.obj
 0001:00060820       ??$downcast@VTextureStreamer@Resources@@@?$Ptr@VResourceLoader@Resources@@@@QBEABV?$Ptr@VTextureStreamer@Resources@@@@XZ 00461820 f i render_win32.release:texturepoolmapperscheduler.obj
 0001:00060830       ??$downcast@VPoolLoadingResource@Resources@@@?$Ptr@VLoadingResource@Resources@@@@QBEABV?$Ptr@VPoolLoadingResource@Resources@@@@XZ 00461830 f i render_win32.release:texturepoolmapperscheduler.obj
 0001:00060840       ??C?$Ptr@VPoolLoadingResource@Resources@@@@QBEPAVPoolLoadingResource@Resources@@XZ 00461840 f i render_win32.release:texturepoolmapperscheduler.obj
 0001:00060880       ??2PoolScheduler@Resources@@SAPAXI@Z 00461880 f i render_win32.release:poolscheduler.obj
 0001:00060890       ??3PoolScheduler@Resources@@SAXPAX@Z 00461890 f i render_win32.release:poolscheduler.obj
 0001:000608b0       ?GetLastFrameId@ManagedResource@Resources@@QBEHXZ 004618b0 f i render_win32.release:poolscheduler.obj
 0001:000608d0       ?GetRtti@PoolScheduler@Resources@@UBEPAVRtti@Core@@XZ 004618d0 f   render_win32.release:poolscheduler.obj
 0001:000608e0       ?FactoryCreator@PoolScheduler@Resources@@SAPAVRefCounted@Core@@XZ 004618e0 f   render_win32.release:poolscheduler.obj
 0001:000608f0       ?Create@PoolScheduler@Resources@@SAPAV12@XZ 004618f0 f   render_win32.release:poolscheduler.obj
 0001:00060930       ?RegisterWithFactory@PoolScheduler@Resources@@SA_NXZ 00461930 f   render_win32.release:poolscheduler.obj
 0001:00060a30       ??0PoolScheduler@Resources@@QAE@XZ 00461a30 f   render_win32.release:poolscheduler.obj
 0001:00060a60       ??_EPoolScheduler@Resources@@UAEPAXI@Z 00461a60 f i  CIL library: CIL module
 0001:00060a60       ??_GPoolScheduler@Resources@@UAEPAXI@Z 00461a60 f i render_win32.release:poolscheduler.obj
 0001:00060a90       ??1PoolScheduler@Resources@@UAE@XZ 00461a90 f   render_win32.release:poolscheduler.obj
 0001:00060ab0       ?RequestSlot@PoolScheduler@Resources@@QAE?BV?$Ptr@VResourceSlot@Resources@@@@ABV?$Ptr@VResourcePool@Resources@@@@PBVResourceRequestInfo@2@_N@Z 00461ab0 f   render_win32.release:poolscheduler.obj
 0001:00060e00       ??A?$Array@V?$Ptr@VResourceSlot@Resources@@@@@Util@@QBEAAV?$Ptr@VResourceSlot@Resources@@@@H@Z 00461e00 f i render_win32.release:poolscheduler.obj
 0001:00060e50       ??0?$Ptr@VResourceSlot@Resources@@@@QAE@ABV0@@Z 00461e50 f i render_win32.release:poolscheduler.obj
 0001:00060e90       ??0?$Ptr@VResourceSlot@Resources@@@@QAE@PAVResourceSlot@Resources@@@Z 00461e90 f i render_win32.release:poolscheduler.obj
 0001:00060ed0       ?GetUseCount@Resource@Resources@@QBEHXZ 00461ed0 f i render_win32.release:simpleresourcemapper.obj
 0001:00060ef0       ?LoadFailed@Resource@Resources@@QBE_NXZ 00461ef0 f i render_win32.release:simpleresourcemapper.obj
 0001:00060f10       ?Clear@ManagedResource@Resources@@QAEXXZ 00461f10 f i render_win32.release:simpleresourcemapper.obj
 0001:00060f40       ??2SimpleResourceMapper@Resources@@SAPAXI@Z 00461f40 f i render_win32.release:simpleresourcemapper.obj
 0001:00060f50       ??3SimpleResourceMapper@Resources@@SAXPAX@Z 00461f50 f i render_win32.release:simpleresourcemapper.obj
 0001:00060f70       ?GetRtti@SimpleResourceMapper@Resources@@UBEPAVRtti@Core@@XZ 00461f70 f   render_win32.release:simpleresourcemapper.obj
 0001:00060f80       ?FactoryCreator@SimpleResourceMapper@Resources@@SAPAVRefCounted@Core@@XZ 00461f80 f   render_win32.release:simpleresourcemapper.obj
 0001:00060f90       ?Create@SimpleResourceMapper@Resources@@SAPAV12@XZ 00461f90 f   render_win32.release:simpleresourcemapper.obj
 0001:00060fd0       ?RegisterWithFactory@SimpleResourceMapper@Resources@@SA_NXZ 00461fd0 f   render_win32.release:simpleresourcemapper.obj
 0001:000610d0       ??0SimpleResourceMapper@Resources@@QAE@XZ 004620d0 f   render_win32.release:simpleresourcemapper.obj
 0001:00061130       ??_ESimpleResourceMapper@Resources@@UAEPAXI@Z 00462130 f i  CIL library: CIL module
 0001:00061130       ??_GSimpleResourceMapper@Resources@@UAEPAXI@Z 00462130 f i render_win32.release:simpleresourcemapper.obj
 0001:00061160       ??1?$Dictionary@VStringAtom@Util@@V?$Ptr@VResource@Resources@@@@@Util@@QAE@XZ 00462160 f i render_win32.release:simpleresourcemapper.obj
 0001:00061180       ??1SimpleResourceMapper@Resources@@UAE@XZ 00462180 f   render_win32.release:simpleresourcemapper.obj
 0001:000611f0       ?GetResourceType@SimpleResourceMapper@Resources@@UBEABVRtti@Core@@XZ 004621f0 f   render_win32.release:simpleresourcemapper.obj
 0001:00061230       ?OnAttachToResourceManager@SimpleResourceMapper@Resources@@UAEXXZ 00462230 f   render_win32.release:simpleresourcemapper.obj
 0001:00061430       ?OnRemoveFromResourceManager@SimpleResourceMapper@Resources@@UAEXXZ 00462430 f   render_win32.release:simpleresourcemapper.obj
 0001:00061530       ?OnCreateManagedResource@SimpleResourceMapper@Resources@@UAE?AV?$Ptr@VManagedResource@Resources@@@@ABVRtti@Core@@ABVStringAtom@Util@@ABV?$Ptr@VResourceLoader@Resources@@@@@Z 00462530 f   render_win32.release:simpleresourcemapper.obj
 0001:00061880       ?OnDiscardManagedResource@SimpleResourceMapper@Resources@@UAEXABV?$Ptr@VManagedResource@Resources@@@@@Z 00462880 f   render_win32.release:simpleresourcemapper.obj
 0001:00061b50       ?OnPrepare@SimpleResourceMapper@Resources@@UAEX_N@Z 00462b50 f   render_win32.release:simpleresourcemapper.obj
 0001:00061e00       ?OnUpdate@SimpleResourceMapper@Resources@@UAEXH@Z 00462e00 f   render_win32.release:simpleresourcemapper.obj
 0001:00061e10       ?GetNumPendingResources@SimpleResourceMapper@Resources@@UBEHXZ 00462e10 f   render_win32.release:simpleresourcemapper.obj
 0001:00061e30       ??0?$Ptr@VResourceSaver@Resources@@@@QAE@PAVResourceSaver@Resources@@@Z 00462e30 f i render_win32.release:simpleresourcemapper.obj
 0001:00061e70       ?IsEmpty@?$Dictionary@VStringAtom@Util@@V?$Ptr@VManagedResource@Resources@@@@@Util@@QBE_NXZ 00462e70 f i render_win32.release:simpleresourcemapper.obj
 0001:00061e90       ?Add@?$Dictionary@VStringAtom@Util@@V?$Ptr@VManagedResource@Resources@@@@@Util@@QAEXABVStringAtom@2@ABV?$Ptr@VManagedResource@Resources@@@@@Z 00462e90 f i render_win32.release:simpleresourcemapper.obj
 0001:00061ee0       ??1?$Array@V?$KeyValuePair@VStringAtom@Util@@V?$Ptr@VResource@Resources@@@@@Util@@@Util@@QAE@XZ 00462ee0 f i render_win32.release:simpleresourcemapper.obj
 0001:00061f00       ??0?$Dictionary@VStringAtom@Util@@V?$Ptr@VResource@Resources@@@@@Util@@QAE@XZ 00462f00 f i render_win32.release:simpleresourcemapper.obj
 0001:00061f20       ?Size@?$Dictionary@VStringAtom@Util@@V?$Ptr@VResource@Resources@@@@@Util@@QBEHXZ 00462f20 f i render_win32.release:simpleresourcemapper.obj
 0001:00061f40       ?IsEmpty@?$Dictionary@VStringAtom@Util@@V?$Ptr@VResource@Resources@@@@@Util@@QBE_NXZ 00462f40 f i render_win32.release:simpleresourcemapper.obj
 0001:00061f60       ?Add@?$Dictionary@VStringAtom@Util@@V?$Ptr@VResource@Resources@@@@@Util@@QAEXABVStringAtom@2@ABV?$Ptr@VResource@Resources@@@@@Z 00462f60 f i render_win32.release:simpleresourcemapper.obj
 0001:00061fb0       ?Erase@?$Dictionary@VStringAtom@Util@@V?$Ptr@VResource@Resources@@@@@Util@@QAEXABVStringAtom@2@@Z 00462fb0 f i render_win32.release:simpleresourcemapper.obj
 0001:00062030       ?EraseAtIndex@?$Dictionary@VStringAtom@Util@@V?$Ptr@VResource@Resources@@@@@Util@@QAEXH@Z 00463030 f i render_win32.release:simpleresourcemapper.obj
 0001:00062070       ?Contains@?$Dictionary@VStringAtom@Util@@V?$Ptr@VResource@Resources@@@@@Util@@QBE_NABVStringAtom@2@@Z 00463070 f i render_win32.release:simpleresourcemapper.obj
 0001:000620d0       ?ValueAtIndex@?$Dictionary@VStringAtom@Util@@V?$Ptr@VResource@Resources@@@@@Util@@QAEAAV?$Ptr@VResource@Resources@@@@H@Z 004630d0 f i render_win32.release:simpleresourcemapper.obj
 0001:00062120       ??0?$Ptr@VResourceManager@Resources@@@@QAE@PAVResourceManager@Resources@@@Z 00463120 f i render_win32.release:simpleresourcemapper.obj
 0001:00062160       ??1?$Ptr@VResourceManager@Resources@@@@QAE@XZ 00463160 f i render_win32.release:simpleresourcemapper.obj
 0001:00062190       ??1?$KeyValuePair@VStringAtom@Util@@V?$Ptr@VResource@Resources@@@@@Util@@QAE@XZ 00463190 f i render_win32.release:simpleresourcemapper.obj
 0001:000621b0       ?Append@?$Array@V?$KeyValuePair@VStringAtom@Util@@V?$Ptr@VManagedResource@Resources@@@@@Util@@@Util@@QAEXABV?$KeyValuePair@VStringAtom@Util@@V?$Ptr@VManagedResource@Resources@@@@@2@@Z 004631b0 f i render_win32.release:simpleresourcemapper.obj
 0001:00062230       ?InsertSorted@?$Array@V?$KeyValuePair@VStringAtom@Util@@V?$Ptr@VManagedResource@Resources@@@@@Util@@@Util@@QAEHABV?$KeyValuePair@VStringAtom@Util@@V?$Ptr@VManagedResource@Resources@@@@@2@@Z 00463230 f i render_win32.release:simpleresourcemapper.obj
 0001:000624a0       ??0?$KeyValuePair@VStringAtom@Util@@V?$Ptr@VManagedResource@Resources@@@@@Util@@QAE@ABVStringAtom@1@ABV?$Ptr@VManagedResource@Resources@@@@@Z 004634a0 f i render_win32.release:simpleresourcemapper.obj
 0001:000624d0       ??0?$Array@V?$KeyValuePair@VStringAtom@Util@@V?$Ptr@VResource@Resources@@@@@Util@@@Util@@QAE@XZ 004634d0 f i render_win32.release:simpleresourcemapper.obj
 0001:00062510       ??A?$Array@V?$KeyValuePair@VStringAtom@Util@@V?$Ptr@VResource@Resources@@@@@Util@@@Util@@QBEAAV?$KeyValuePair@VStringAtom@Util@@V?$Ptr@VResource@Resources@@@@@1@H@Z 00463510 f i render_win32.release:simpleresourcemapper.obj
 0001:00062560       ?Append@?$Array@V?$KeyValuePair@VStringAtom@Util@@V?$Ptr@VResource@Resources@@@@@Util@@@Util@@QAEXABV?$KeyValuePair@VStringAtom@Util@@V?$Ptr@VResource@Resources@@@@@2@@Z 00463560 f i render_win32.release:simpleresourcemapper.obj
 0001:000625e0       ?Size@?$Array@V?$KeyValuePair@VStringAtom@Util@@V?$Ptr@VResource@Resources@@@@@Util@@@Util@@QBEHXZ 004635e0 f i render_win32.release:simpleresourcemapper.obj
 0001:00062600       ?EraseIndex@?$Array@V?$KeyValuePair@VStringAtom@Util@@V?$Ptr@VResource@Resources@@@@@Util@@@Util@@QAEXH@Z 00463600 f i render_win32.release:simpleresourcemapper.obj
 0001:00062680       ?InsertSorted@?$Array@V?$KeyValuePair@VStringAtom@Util@@V?$Ptr@VResource@Resources@@@@@Util@@@Util@@QAEHABV?$KeyValuePair@VStringAtom@Util@@V?$Ptr@VResource@Resources@@@@@2@@Z 00463680 f i render_win32.release:simpleresourcemapper.obj
 0001:000628f0       ?BinarySearchIndex@?$Array@V?$KeyValuePair@VStringAtom@Util@@V?$Ptr@VResource@Resources@@@@@Util@@@Util@@QBEHABV?$KeyValuePair@VStringAtom@Util@@V?$Ptr@VResource@Resources@@@@@2@@Z 004638f0 f i render_win32.release:simpleresourcemapper.obj
 0001:00062a20       ?Delete@?$Array@V?$KeyValuePair@VStringAtom@Util@@V?$Ptr@VResource@Resources@@@@@Util@@@Util@@AAEXXZ 00463a20 f i render_win32.release:simpleresourcemapper.obj
 0001:00062a90       ??0?$KeyValuePair@VStringAtom@Util@@V?$Ptr@VResource@Resources@@@@@Util@@QAE@ABVStringAtom@1@@Z 00463a90 f i render_win32.release:simpleresourcemapper.obj
 0001:00062ac0       ??0?$KeyValuePair@VStringAtom@Util@@V?$Ptr@VResource@Resources@@@@@Util@@QAE@ABVStringAtom@1@ABV?$Ptr@VResource@Resources@@@@@Z 00463ac0 f i render_win32.release:simpleresourcemapper.obj
 0001:00062af0       ?Value@?$KeyValuePair@VStringAtom@Util@@V?$Ptr@VResource@Resources@@@@@Util@@QAEAAV?$Ptr@VResource@Resources@@@@XZ 00463af0 f i render_win32.release:simpleresourcemapper.obj
 0001:00062b10       ??_E?$KeyValuePair@VStringAtom@Util@@V?$Ptr@VResource@Resources@@@@@Util@@QAEPAXI@Z 00463b10 f i render_win32.release:simpleresourcemapper.obj
 0001:00062bb0       ?Insert@?$Array@V?$KeyValuePair@VStringAtom@Util@@V?$Ptr@VManagedResource@Resources@@@@@Util@@@Util@@QAEXHABV?$KeyValuePair@VStringAtom@Util@@V?$Ptr@VManagedResource@Resources@@@@@2@@Z 00463bb0 f i render_win32.release:simpleresourcemapper.obj
 0001:00062c20       ?InsertAtEndOfIdenticalRange@?$Array@V?$KeyValuePair@VStringAtom@Util@@V?$Ptr@VManagedResource@Resources@@@@@Util@@@Util@@QAEHHABV?$KeyValuePair@VStringAtom@Util@@V?$Ptr@VManagedResource@Resources@@@@@2@@Z 00463c20 f i render_win32.release:simpleresourcemapper.obj
 0001:00062ca0       ?Insert@?$Array@V?$KeyValuePair@VStringAtom@Util@@V?$Ptr@VResource@Resources@@@@@Util@@@Util@@QAEXHABV?$KeyValuePair@VStringAtom@Util@@V?$Ptr@VResource@Resources@@@@@2@@Z 00463ca0 f i render_win32.release:simpleresourcemapper.obj
 0001:00062d10       ?InsertAtEndOfIdenticalRange@?$Array@V?$KeyValuePair@VStringAtom@Util@@V?$Ptr@VResource@Resources@@@@@Util@@@Util@@QAEHHABV?$KeyValuePair@VStringAtom@Util@@V?$Ptr@VResource@Resources@@@@@2@@Z 00463d10 f i render_win32.release:simpleresourcemapper.obj
 0001:00062d90       ?Destroy@?$Array@V?$KeyValuePair@VStringAtom@Util@@V?$Ptr@VResource@Resources@@@@@Util@@@Util@@AAEXPAV?$KeyValuePair@VStringAtom@Util@@V?$Ptr@VResource@Resources@@@@@2@@Z 00463d90 f i render_win32.release:simpleresourcemapper.obj
 0001:00062dc0       ?Grow@?$Array@V?$KeyValuePair@VStringAtom@Util@@V?$Ptr@VResource@Resources@@@@@Util@@@Util@@AAEXXZ 00463dc0 f i render_win32.release:simpleresourcemapper.obj
 0001:00062e40       ?Move@?$Array@V?$KeyValuePair@VStringAtom@Util@@V?$Ptr@VResource@Resources@@@@@Util@@@Util@@AAEXHH@Z 00463e40 f i render_win32.release:simpleresourcemapper.obj
 0001:00062fd0       ??4?$KeyValuePair@VStringAtom@Util@@V?$Ptr@VResource@Resources@@@@@Util@@QAEXABV01@@Z 00463fd0 f i render_win32.release:simpleresourcemapper.obj
 0001:00063000       ??9?$KeyValuePair@VStringAtom@Util@@V?$Ptr@VResource@Resources@@@@@Util@@QBE_NABV01@@Z 00464000 f i render_win32.release:simpleresourcemapper.obj
 0001:00063020       ??O?$KeyValuePair@VStringAtom@Util@@V?$Ptr@VResource@Resources@@@@@Util@@QBE_NABV01@@Z 00464020 f i render_win32.release:simpleresourcemapper.obj
 0001:00063040       ??M?$KeyValuePair@VStringAtom@Util@@V?$Ptr@VResource@Resources@@@@@Util@@QBE_NABV01@@Z 00464040 f i render_win32.release:simpleresourcemapper.obj
 0001:00063060       ??0?$Ptr@VResource@Resources@@@@QAE@ABV0@@Z 00464060 f i render_win32.release:simpleresourcemapper.obj
 0001:000630a0       ??_G?$KeyValuePair@VStringAtom@Util@@V?$Ptr@VResource@Resources@@@@@Util@@QAEPAXI@Z 004640a0 f i render_win32.release:simpleresourcemapper.obj
 0001:000630e0       ?GrowTo@?$Array@V?$KeyValuePair@VStringAtom@Util@@V?$Ptr@VResource@Resources@@@@@Util@@@Util@@AAEXH@Z 004640e0 f i render_win32.release:simpleresourcemapper.obj
 0001:00063200       ??0?$KeyValuePair@VStringAtom@Util@@V?$Ptr@VResource@Resources@@@@@Util@@QAE@XZ 00464200 f i render_win32.release:simpleresourcemapper.obj
 0001:00063230       ??0InputEvent@Input@@QAE@XZ 00464230 f i render_win32.release:inputserverbase.obj
 0001:00063270       ?SetType@InputEvent@Input@@QAEXW4Type@12@@Z 00464270 f i render_win32.release:inputserverbase.obj
 0001:00063290       ?GetType@InputEvent@Input@@QBE?AW4Type@12@XZ 00464290 f i render_win32.release:inputserverbase.obj
 0001:000632a0       ??2InputServerBase@Base@@SAPAXI@Z 004642a0 f i render_win32.release:inputserverbase.obj
 0001:000632b0       ??3InputServerBase@Base@@SAXPAX@Z 004642b0 f i render_win32.release:inputserverbase.obj
 0001:000632d0       ?IsOpen@InputServerBase@Base@@QBE_NXZ 004642d0 f i render_win32.release:inputserverbase.obj
 0001:000632f0       ?GetMaxNumPlayers@GamePadBase@Base@@SAHXZ 004642f0 f i render_win32.release:inputserverbase.obj
 0001:00063300       ?GetRtti@InputServerBase@Base@@UBEPAVRtti@Core@@XZ 00464300 f   render_win32.release:inputserverbase.obj
 0001:00063310       ?FactoryCreator@InputServerBase@Base@@SAPAVRefCounted@Core@@XZ 00464310 f   render_win32.release:inputserverbase.obj
 0001:00063320       ?Create@InputServerBase@Base@@SAPAV12@XZ 00464320 f   render_win32.release:inputserverbase.obj
 0001:00063360       ?RegisterWithFactory@InputServerBase@Base@@SA_NXZ 00464360 f   render_win32.release:inputserverbase.obj
 0001:00063460       ??0InputServerBase@Base@@QAE@XZ 00464460 f   render_win32.release:inputserverbase.obj
 0001:00063520       ??_EInputServerBase@Base@@UAEPAXI@Z 00464520 f i  CIL library: CIL module
 0001:00063520       ??_GInputServerBase@Base@@UAEPAXI@Z 00464520 f i render_win32.release:inputserverbase.obj
 0001:00063550       ??1InputServerBase@Base@@UAE@XZ 00464550 f   render_win32.release:inputserverbase.obj
 0001:000635e0       ?SetMaxNumLocalPlayers@InputServerBase@Base@@QAEXH@Z 004645e0 f   render_win32.release:inputserverbase.obj
 0001:00063630       ?Open@InputServerBase@Base@@UAEXXZ 00464630 f   render_win32.release:inputserverbase.obj
 0001:00063680       ?Close@InputServerBase@Base@@UAEXXZ 00464680 f   render_win32.release:inputserverbase.obj
 0001:00063770       ?Reset@InputServerBase@Base@@QAEXXZ 00464770 f   render_win32.release:inputserverbase.obj
 0001:00063800       ?AttachInputHandler@InputServerBase@Base@@QAEXW4Code@InputPriority@Input@@ABV?$Ptr@VInputHandler@Input@@@@@Z 00464800 f   render_win32.release:inputserverbase.obj
 0001:000638d0       ??1?$KeyValuePair@W4Code@InputPriority@Input@@V?$Ptr@VInputHandler@Input@@@@@Util@@QAE@XZ 004648d0 f i render_win32.release:inputserverbase.obj
 0001:000638f0       ?RemoveInputHandler@InputServerBase@Base@@QAEXABV?$Ptr@VInputHandler@Input@@@@@Z 004648f0 f   render_win32.release:inputserverbase.obj
 0001:00063a10       ?BeginFrame@InputServerBase@Base@@UAEXXZ 00464a10 f   render_win32.release:inputserverbase.obj
 0001:00063ac0       ?OnFrame@InputServerBase@Base@@UAEXXZ 00464ac0 f   render_win32.release:inputserverbase.obj
 0001:00063ad0       ?EndFrame@InputServerBase@Base@@QAEXXZ 00464ad0 f   render_win32.release:inputserverbase.obj
 0001:00063b80       ?PutEvent@InputServerBase@Base@@QAEXABVInputEvent@Input@@@Z 00464b80 f   render_win32.release:inputserverbase.obj
 0001:00063d50       ?ObtainMouseCapture@InputServerBase@Base@@QAEXABV?$Ptr@VInputHandler@Input@@@@@Z 00464d50 f   render_win32.release:inputserverbase.obj
 0001:00063dd0       ?ReleaseMouseCapture@InputServerBase@Base@@QAEXABV?$Ptr@VInputHandler@Input@@@@@Z 00464dd0 f   render_win32.release:inputserverbase.obj
 0001:00063e30       ?GetMouseCaptureHandler@InputServerBase@Base@@QBEABV?$Ptr@VInputHandler@Input@@@@XZ 00464e30 f   render_win32.release:inputserverbase.obj
 0001:00063e50       ?ClearMouseCapture@InputServerBase@Base@@QAEXXZ 00464e50 f   render_win32.release:inputserverbase.obj
 0001:00063ea0       ?ClearKeyboardCapture@InputServerBase@Base@@QAEXXZ 00464ea0 f   render_win32.release:inputserverbase.obj
 0001:00063ef0       ?ClearCapture@InputServerBase@Base@@QAEXXZ 00464ef0 f   render_win32.release:inputserverbase.obj
 0001:00063f10       ?ObtainKeyboardCapture@InputServerBase@Base@@QAEXABV?$Ptr@VInputHandler@Input@@@@@Z 00464f10 f   render_win32.release:inputserverbase.obj
 0001:00063f90       ?ReleaseKeyboardCapture@InputServerBase@Base@@QAEXABV?$Ptr@VInputHandler@Input@@@@@Z 00464f90 f   render_win32.release:inputserverbase.obj
 0001:00063ff0       ?GetKeyboardCaptureHandler@InputServerBase@Base@@QBEABV?$Ptr@VInputHandler@Input@@@@XZ 00464ff0 f   render_win32.release:inputserverbase.obj
 0001:00064010       ?GetDefaultGamePad@InputServerBase@Base@@QBE?AV?$Ptr@VGamePad@Input@@@@H@Z 00465010 f   render_win32.release:inputserverbase.obj
 0001:000640b0       ??0?$Array@V?$KeyValuePair@W4Code@InputPriority@Input@@V?$Ptr@VInputHandler@Input@@@@@Util@@@Util@@QAE@XZ 004650b0 f i render_win32.release:inputserverbase.obj
 0001:000640f0       ??1?$Array@V?$KeyValuePair@W4Code@InputPriority@Input@@V?$Ptr@VInputHandler@Input@@@@@Util@@@Util@@QAE@XZ 004650f0 f i render_win32.release:inputserverbase.obj
 0001:00064110       ??A?$Array@V?$KeyValuePair@W4Code@InputPriority@Input@@V?$Ptr@VInputHandler@Input@@@@@Util@@@Util@@QBEAAV?$KeyValuePair@W4Code@InputPriority@Input@@V?$Ptr@VInputHandler@Input@@@@@1@H@Z 00465110 f i render_win32.release:inputserverbase.obj
 0001:00064160       ?Size@?$Array@V?$KeyValuePair@W4Code@InputPriority@Input@@V?$Ptr@VInputHandler@Input@@@@@Util@@@Util@@QBEHXZ 00465160 f i render_win32.release:inputserverbase.obj
 0001:00064180       ?EraseIndex@?$Array@V?$KeyValuePair@W4Code@InputPriority@Input@@V?$Ptr@VInputHandler@Input@@@@@Util@@@Util@@QAEXH@Z 00465180 f i render_win32.release:inputserverbase.obj
 0001:00064200       ?InsertSorted@?$Array@V?$KeyValuePair@W4Code@InputPriority@Input@@V?$Ptr@VInputHandler@Input@@@@@Util@@@Util@@QAEHABV?$KeyValuePair@W4Code@InputPriority@Input@@V?$Ptr@VInputHandler@Input@@@@@2@@Z 00465200 f i render_win32.release:inputserverbase.obj
 0001:00064470       ?Clear@?$Array@V?$KeyValuePair@W4Code@InputPriority@Input@@V?$Ptr@VInputHandler@Input@@@@@Util@@@Util@@QAEXXZ 00465470 f i render_win32.release:inputserverbase.obj
 0001:000644c0       ??0?$Ptr@VInputHandler@Input@@@@QAE@XZ 004654c0 f i render_win32.release:inputserverbase.obj
 0001:000644e0       ??1?$Ptr@VInputHandler@Input@@@@QAE@XZ 004654e0 f i render_win32.release:inputserverbase.obj
 0001:00064510       ??4?$Ptr@VInputHandler@Input@@@@QAEXPAVInputHandler@Input@@@Z 00465510 f i render_win32.release:inputserverbase.obj
 0001:00064570       ??4?$Ptr@VInputHandler@Input@@@@QAEXABV0@@Z 00465570 f i render_win32.release:inputserverbase.obj
 0001:000645d0       ??8?$Ptr@VInputHandler@Input@@@@QBE_NABV0@@Z 004655d0 f i render_win32.release:inputserverbase.obj
 0001:000645f0       ??9?$Ptr@VInputHandler@Input@@@@QBE_NABV0@@Z 004655f0 f i render_win32.release:inputserverbase.obj
 0001:00064610       ??C?$Ptr@VInputHandler@Input@@@@QBEPAVInputHandler@Input@@XZ 00465610 f i render_win32.release:inputserverbase.obj
 0001:00064650       ?isvalid@?$Ptr@VInputHandler@Input@@@@QBE_NXZ 00465650 f i render_win32.release:inputserverbase.obj
 0001:00064670       ??0?$Ptr@VKeyboard@Input@@@@QAE@XZ 00465670 f i render_win32.release:inputserverbase.obj
 0001:00064690       ??1?$Ptr@VKeyboard@Input@@@@QAE@XZ 00465690 f i render_win32.release:inputserverbase.obj
 0001:000646c0       ??4?$Ptr@VKeyboard@Input@@@@QAEXPAVKeyboard@Input@@@Z 004656c0 f i render_win32.release:inputserverbase.obj
 0001:00064720       ??0?$Ptr@VMouse@Input@@@@QAE@XZ 00465720 f i render_win32.release:inputserverbase.obj
 0001:00064740       ??1?$Ptr@VMouse@Input@@@@QAE@XZ 00465740 f i render_win32.release:inputserverbase.obj
 0001:00064770       ??4?$Ptr@VMouse@Input@@@@QAEXPAVMouse@Input@@@Z 00465770 f i render_win32.release:inputserverbase.obj
 0001:000647d0       ??0?$FixedArray@V?$Ptr@VGamePad@Input@@@@@Util@@QAE@H@Z 004657d0 f i render_win32.release:inputserverbase.obj
 0001:00064800       ??1?$FixedArray@V?$Ptr@VGamePad@Input@@@@@Util@@QAE@XZ 00465800 f i render_win32.release:inputserverbase.obj
 0001:00064820       ??A?$FixedArray@V?$Ptr@VGamePad@Input@@@@@Util@@QBEAAV?$Ptr@VGamePad@Input@@@@H@Z 00465820 f i render_win32.release:inputserverbase.obj
 0001:00064870       ?Fill@?$FixedArray@V?$Ptr@VGamePad@Input@@@@@Util@@QAEXABV?$Ptr@VGamePad@Input@@@@@Z 00465870 f i render_win32.release:inputserverbase.obj
 0001:000648c0       ??0?$KeyValuePair@W4Code@InputPriority@Input@@V?$Ptr@VInputHandler@Input@@@@@Util@@QAE@ABW4Code@InputPriority@Input@@ABV?$Ptr@VInputHandler@Input@@@@@Z 004658c0 f i render_win32.release:inputserverbase.obj
 0001:000648f0       ?Value@?$KeyValuePair@W4Code@InputPriority@Input@@V?$Ptr@VInputHandler@Input@@@@@Util@@QAEAAV?$Ptr@VInputHandler@Input@@@@XZ 004658f0 f i render_win32.release:inputserverbase.obj
 0001:00064910       ??0?$Ptr@VGamePad@Input@@@@QAE@ABV0@@Z 00465910 f i render_win32.release:inputserverbase.obj
 0001:00064950       ??0?$Ptr@VGamePad@Input@@@@QAE@PAVGamePad@Input@@@Z 00465950 f i render_win32.release:inputserverbase.obj
 0001:00064990       ?Append@?$Array@V?$KeyValuePair@W4Code@InputPriority@Input@@V?$Ptr@VInputHandler@Input@@@@@Util@@@Util@@QAEXABV?$KeyValuePair@W4Code@InputPriority@Input@@V?$Ptr@VInputHandler@Input@@@@@2@@Z 00465990 f i render_win32.release:inputserverbase.obj
 0001:00064a10       ?Insert@?$Array@V?$KeyValuePair@W4Code@InputPriority@Input@@V?$Ptr@VInputHandler@Input@@@@@Util@@@Util@@QAEXHABV?$KeyValuePair@W4Code@InputPriority@Input@@V?$Ptr@VInputHandler@Input@@@@@2@@Z 00465a10 f i render_win32.release:inputserverbase.obj
 0001:00064a80       ?InsertAtEndOfIdenticalRange@?$Array@V?$KeyValuePair@W4Code@InputPriority@Input@@V?$Ptr@VInputHandler@Input@@@@@Util@@@Util@@QAEHHABV?$KeyValuePair@W4Code@InputPriority@Input@@V?$Ptr@VInputHandler@Input@@@@@2@@Z 00465a80 f i render_win32.release:inputserverbase.obj
 0001:00064b00       ?Destroy@?$Array@V?$KeyValuePair@W4Code@InputPriority@Input@@V?$Ptr@VInputHandler@Input@@@@@Util@@@Util@@AAEXPAV?$KeyValuePair@W4Code@InputPriority@Input@@V?$Ptr@VInputHandler@Input@@@@@2@@Z 00465b00 f i render_win32.release:inputserverbase.obj
 0001:00064b30       ?Delete@?$Array@V?$KeyValuePair@W4Code@InputPriority@Input@@V?$Ptr@VInputHandler@Input@@@@@Util@@@Util@@AAEXXZ 00465b30 f i render_win32.release:inputserverbase.obj
 0001:00064ba0       ?Move@?$Array@V?$KeyValuePair@W4Code@InputPriority@Input@@V?$Ptr@VInputHandler@Input@@@@@Util@@@Util@@AAEXHH@Z 00465ba0 f i render_win32.release:inputserverbase.obj
 0001:00064d30       ??O?$KeyValuePair@W4Code@InputPriority@Input@@V?$Ptr@VInputHandler@Input@@@@@Util@@QBE_NABV01@@Z 00465d30 f i render_win32.release:inputserverbase.obj
 0001:00064d50       ??M?$KeyValuePair@W4Code@InputPriority@Input@@V?$Ptr@VInputHandler@Input@@@@@Util@@QBE_NABV01@@Z 00465d50 f i render_win32.release:inputserverbase.obj
 0001:00064d70       ??0?$Ptr@VInputHandler@Input@@@@QAE@ABV0@@Z 00465d70 f i render_win32.release:inputserverbase.obj
 0001:00064db0       ?Delete@?$FixedArray@V?$Ptr@VGamePad@Input@@@@@Util@@AAEXXZ 00465db0 f i render_win32.release:inputserverbase.obj
 0001:00064e10       ?Alloc@?$FixedArray@V?$Ptr@VGamePad@Input@@@@@Util@@AAEXH@Z 00465e10 f i render_win32.release:inputserverbase.obj
 0001:00064ee0       ??4?$Ptr@VGamePad@Input@@@@QAEXABV0@@Z 00465ee0 f i render_win32.release:inputserverbase.obj
 0001:00064f40       ??_G?$KeyValuePair@W4Code@InputPriority@Input@@V?$Ptr@VInputHandler@Input@@@@@Util@@QAEPAXI@Z 00465f40 f i render_win32.release:inputserverbase.obj
 0001:00064f80       ??_E?$KeyValuePair@W4Code@InputPriority@Input@@V?$Ptr@VInputHandler@Input@@@@@Util@@QAEPAXI@Z 00465f80 f i render_win32.release:inputserverbase.obj
 0001:00065020       ??_E?$Ptr@VGamePad@Input@@@@QAEPAXI@Z 00466020 f i render_win32.release:inputserverbase.obj
 0001:000650c0       ?Grow@?$Array@V?$KeyValuePair@W4Code@InputPriority@Input@@V?$Ptr@VInputHandler@Input@@@@@Util@@@Util@@AAEXXZ 004660c0 f i render_win32.release:inputserverbase.obj
 0001:00065140       ??4?$KeyValuePair@W4Code@InputPriority@Input@@V?$Ptr@VInputHandler@Input@@@@@Util@@QAEXABV01@@Z 00466140 f i render_win32.release:inputserverbase.obj
 0001:00065170       ??9?$KeyValuePair@W4Code@InputPriority@Input@@V?$Ptr@VInputHandler@Input@@@@@Util@@QBE_NABV01@@Z 00466170 f i render_win32.release:inputserverbase.obj
 0001:00065190       ??0?$Ptr@VGamePad@Input@@@@QAE@XZ 00466190 f i render_win32.release:inputserverbase.obj
 0001:000651b0       ?GrowTo@?$Array@V?$KeyValuePair@W4Code@InputPriority@Input@@V?$Ptr@VInputHandler@Input@@@@@Util@@@Util@@AAEXH@Z 004661b0 f i render_win32.release:inputserverbase.obj
 0001:000652d0       ??0?$KeyValuePair@W4Code@InputPriority@Input@@V?$Ptr@VInputHandler@Input@@@@@Util@@QAE@XZ 004662d0 f i render_win32.release:inputserverbase.obj
 0001:000652f0       ?SetType@TextureBase@Base@@IAEXW4Type@12@@Z 004662f0 f i render_win32.release:d3d9texture.obj
 0001:00065310       ?SetWidth@TextureBase@Base@@IAEXH@Z 00466310 f i render_win32.release:d3d9texture.obj
 0001:00065330       ?SetHeight@TextureBase@Base@@IAEXH@Z 00466330 f i render_win32.release:d3d9texture.obj
 0001:00065350       ?SetDepth@TextureBase@Base@@IAEXH@Z 00466350 f i render_win32.release:d3d9texture.obj
 0001:00065370       ?SetNumMipLevels@TextureBase@Base@@IAEXH@Z 00466370 f i render_win32.release:d3d9texture.obj
 0001:00065390       ?SetPixelFormat@TextureBase@Base@@IAEXW4Code@PixelFormat@CoreGraphics@@@Z 00466390 f i render_win32.release:d3d9texture.obj
 0001:000653b0       ??2D3D9Texture@Direct3D9@@SAPAXI@Z 004663b0 f i render_win32.release:d3d9texture.obj
 0001:000653c0       ??3D3D9Texture@Direct3D9@@SAXPAX@Z 004663c0 f i render_win32.release:d3d9texture.obj
 0001:000653e0       ?GetD3D9Texture@D3D9Texture@Direct3D9@@QBEPAUIDirect3DTexture9@@XZ 004663e0 f i render_win32.release:d3d9texture.obj
 0001:00065410       ?GetD3D9CubeTexture@D3D9Texture@Direct3D9@@QBEPAUIDirect3DCubeTexture9@@XZ 00466410 f i render_win32.release:d3d9texture.obj
 0001:00065440       ?GetD3D9VolumeTexture@D3D9Texture@Direct3D9@@QBEPAUIDirect3DVolumeTexture9@@XZ 00466440 f i render_win32.release:d3d9texture.obj
 0001:00065470       ?GetRtti@D3D9Texture@Direct3D9@@UBEPAVRtti@Core@@XZ 00466470 f   render_win32.release:d3d9texture.obj
 0001:00065480       ?FactoryCreator@D3D9Texture@Direct3D9@@SAPAVRefCounted@Core@@XZ 00466480 f   render_win32.release:d3d9texture.obj
 0001:00065490       ?Create@D3D9Texture@Direct3D9@@SAPAV12@XZ 00466490 f   render_win32.release:d3d9texture.obj
 0001:000654d0       ?RegisterWithFactory@D3D9Texture@Direct3D9@@SA_NXZ 004664d0 f   render_win32.release:d3d9texture.obj
 0001:000655d0       ??0D3D9Texture@Direct3D9@@QAE@XZ 004665d0 f   render_win32.release:d3d9texture.obj
 0001:00065630       ??_GD3D9Texture@Direct3D9@@UAEPAXI@Z 00466630 f i render_win32.release:d3d9texture.obj
 0001:00065630       ??_ED3D9Texture@Direct3D9@@UAEPAXI@Z 00466630 f i  CIL library: CIL module
 0001:00065660       ??1D3D9Texture@Direct3D9@@UAE@XZ 00466660 f   render_win32.release:d3d9texture.obj
 0001:00065710       ?Unload@D3D9Texture@Direct3D9@@UAEXXZ 00466710 f   render_win32.release:d3d9texture.obj
 0001:000657e0       ?Map@D3D9Texture@Direct3D9@@QAE_NHW4MapType@ResourceBase@Base@@AAVMapInfo@TextureBase@5@@Z 004667e0 f   render_win32.release:d3d9texture.obj
 0001:00065a50       ?Unmap@D3D9Texture@Direct3D9@@QAEXH@Z 00466a50 f   render_win32.release:d3d9texture.obj
 0001:00065b50       ?MapCubeFace@D3D9Texture@Direct3D9@@QAE_NW4CubeFace@TextureBase@Base@@HW4MapType@ResourceBase@5@AAVMapInfo@45@@Z 00466b50 f   render_win32.release:d3d9texture.obj
 0001:00065d30       ?UnmapCubeFace@D3D9Texture@Direct3D9@@QAEXW4CubeFace@TextureBase@Base@@H@Z 00466d30 f   render_win32.release:d3d9texture.obj
 0001:00065de0       ?SetupFromD3D9Texture@D3D9Texture@Direct3D9@@QAEXPAUIDirect3DTexture9@@_N@Z 00466de0 f   render_win32.release:d3d9texture.obj
 0001:00065f20       ?SetupFromD3D9VolumeTexture@D3D9Texture@Direct3D9@@QAEXPAUIDirect3DVolumeTexture9@@_N@Z 00466f20 f   render_win32.release:d3d9texture.obj
 0001:00066060       ?SetupFromD3D9CubeTexture@D3D9Texture@Direct3D9@@QAEXPAUIDirect3DCubeTexture9@@_N@Z 00467060 f   render_win32.release:d3d9texture.obj
 0001:00066190       ??2AnimKeyBuffer@CoreAnimation@@SAPAXI@Z 00467190 f i render_win32.release:animkeybuffer.obj
 0001:000661a0       ??3AnimKeyBuffer@CoreAnimation@@SAXPAX@Z 004671a0 f i render_win32.release:animkeybuffer.obj
 0001:000661c0       ?IsValid@AnimKeyBuffer@CoreAnimation@@QBE_NXZ 004671c0 f i render_win32.release:animkeybuffer.obj
 0001:000661e0       ?IsMapped@AnimKeyBuffer@CoreAnimation@@QBE_NXZ 004671e0 f i render_win32.release:animkeybuffer.obj
 0001:00066200       ?GetRtti@AnimKeyBuffer@CoreAnimation@@UBEPAVRtti@Core@@XZ 00467200 f   render_win32.release:animkeybuffer.obj
 0001:00066210       ?FactoryCreator@AnimKeyBuffer@CoreAnimation@@SAPAVRefCounted@Core@@XZ 00467210 f   render_win32.release:animkeybuffer.obj
 0001:00066220       ?Create@AnimKeyBuffer@CoreAnimation@@SAPAV12@XZ 00467220 f   render_win32.release:animkeybuffer.obj
 0001:00066260       ?RegisterWithFactory@AnimKeyBuffer@CoreAnimation@@SA_NXZ 00467260 f   render_win32.release:animkeybuffer.obj
 0001:00066360       ??0AnimKeyBuffer@CoreAnimation@@QAE@XZ 00467360 f   render_win32.release:animkeybuffer.obj
 0001:000663b0       ??_EAnimKeyBuffer@CoreAnimation@@UAEPAXI@Z 004673b0 f i  CIL library: CIL module
 0001:000663b0       ??_GAnimKeyBuffer@CoreAnimation@@UAEPAXI@Z 004673b0 f i render_win32.release:animkeybuffer.obj
 0001:000663e0       ??1AnimKeyBuffer@CoreAnimation@@UAE@XZ 004673e0 f   render_win32.release:animkeybuffer.obj
 0001:00066420       ?Setup@AnimKeyBuffer@CoreAnimation@@QAEXH@Z 00467420 f   render_win32.release:animkeybuffer.obj
 0001:000664b0       ?Discard@AnimKeyBuffer@CoreAnimation@@QAEXXZ 004674b0 f   render_win32.release:animkeybuffer.obj
 0001:00066530       ?Map@AnimKeyBuffer@CoreAnimation@@QAEPAXXZ 00467530 f   render_win32.release:animkeybuffer.obj
 0001:00066580       ?Unmap@AnimKeyBuffer@CoreAnimation@@QAEXXZ 00467580 f   render_win32.release:animkeybuffer.obj
 0001:000665f0       ??0AnimCurve@CoreAnimation@@QAE@XZ 004675f0 f i render_win32.release:animclip.obj
 0001:000666a0       ?IsStatic@AnimCurve@CoreAnimation@@QBE_NXZ 004676a0 f i render_win32.release:animclip.obj
 0001:000666c0       ?GetFirstKeyIndex@AnimCurve@CoreAnimation@@QBEHXZ 004676c0 f i render_win32.release:animclip.obj
 0001:000666e0       ??0AnimEvent@CoreAnimation@@QAE@XZ 004676e0 f i render_win32.release:animclip.obj
 0001:00066720       ?GetName@AnimEvent@CoreAnimation@@QBEABVStringAtom@Util@@XZ 00467720 f i render_win32.release:animclip.obj
 0001:00066730       ?GetTime@AnimEvent@CoreAnimation@@QBEHXZ 00467730 f i render_win32.release:animclip.obj
 0001:00066750       ??MCoreAnimation@@YA_NABVAnimEvent@0@0@Z 00467750 f i render_win32.release:animclip.obj
 0001:00066770       ??0AnimClip@CoreAnimation@@QAE@XZ 00467770 f   render_win32.release:animclip.obj
 0001:00066810       ?SetNumCurves@AnimClip@CoreAnimation@@QAEXH@Z 00467810 f   render_win32.release:animclip.obj
 0001:00066830       ?GetNumCurves@AnimClip@CoreAnimation@@QBEHXZ 00467830 f   render_win32.release:animclip.obj
 0001:00066850       ?CurveByIndex@AnimClip@CoreAnimation@@QBEAAVAnimCurve@2@H@Z 00467850 f   render_win32.release:animclip.obj
 0001:00066870       ?BeginEvents@AnimClip@CoreAnimation@@QAEXH@Z 00467870 f   render_win32.release:animclip.obj
 0001:000668f0       ?AddEvent@AnimClip@CoreAnimation@@QAEXABVAnimEvent@2@@Z 004678f0 f   render_win32.release:animclip.obj
 0001:00066970       ?EndEvents@AnimClip@CoreAnimation@@QAEXXZ 00467970 f   render_win32.release:animclip.obj
 0001:00066a20       ?HasEvent@AnimClip@CoreAnimation@@QBE_NABVStringAtom@Util@@@Z 00467a20 f   render_win32.release:animclip.obj
 0001:00066a40       ?GetEventByName@AnimClip@CoreAnimation@@QBEABVAnimEvent@2@ABVStringAtom@Util@@@Z 00467a40 f   render_win32.release:animclip.obj
 0001:00066a70       ?PrecomputeKeySliceValues@AnimClip@CoreAnimation@@QAEXXZ 00467a70 f   render_win32.release:animclip.obj
 0001:00066b00       ?GetEventsInRange@AnimClip@CoreAnimation@@QBEHHHAAH@Z 00467b00 f   render_win32.release:animclip.obj
 0001:00066bc0       ??0?$FixedArray@VAnimCurve@CoreAnimation@@@Util@@QAE@XZ 00467bc0 f i render_win32.release:animclip.obj
 0001:00066bf0       ??A?$FixedArray@VAnimCurve@CoreAnimation@@@Util@@QBEAAVAnimCurve@CoreAnimation@@H@Z 00467bf0 f i render_win32.release:animclip.obj
 0001:00066c40       ?SetSize@?$FixedArray@VAnimCurve@CoreAnimation@@@Util@@QAEXH@Z 00467c40 f i render_win32.release:animclip.obj
 0001:00066c70       ?Size@?$FixedArray@VAnimCurve@CoreAnimation@@@Util@@QBEHXZ 00467c70 f i render_win32.release:animclip.obj
 0001:00066c80       ??0?$Array@VAnimEvent@CoreAnimation@@@Util@@QAE@XZ 00467c80 f i render_win32.release:animclip.obj
 0001:00066cc0       ??A?$Array@VAnimEvent@CoreAnimation@@@Util@@QBEAAVAnimEvent@CoreAnimation@@H@Z 00467cc0 f i render_win32.release:animclip.obj
 0001:00066d10       ?Append@?$Array@VAnimEvent@CoreAnimation@@@Util@@QAEXABVAnimEvent@CoreAnimation@@@Z 00467d10 f i render_win32.release:animclip.obj
 0001:00066da0       ?Reserve@?$Array@VAnimEvent@CoreAnimation@@@Util@@QAEXH@Z 00467da0 f i render_win32.release:animclip.obj
 0001:00066df0       ?Size@?$Array@VAnimEvent@CoreAnimation@@@Util@@QBEHXZ 00467df0 f i render_win32.release:animclip.obj
 0001:00066e10       ?IsEmpty@?$Array@VAnimEvent@CoreAnimation@@@Util@@QBE_NXZ 00467e10 f i render_win32.release:animclip.obj
 0001:00066e30       ?Sort@?$Array@VAnimEvent@CoreAnimation@@@Util@@QAEXXZ 00467e30 f i render_win32.release:animclip.obj
 0001:00066ea0       ??A?$Dictionary@VStringAtom@Util@@H@Util@@QBEABHABVStringAtom@1@@Z 00467ea0 f i render_win32.release:animclip.obj
 0001:00066ef0       ?Contains@?$Dictionary@VStringAtom@Util@@H@Util@@QBE_NABVStringAtom@2@@Z 00467ef0 f i render_win32.release:animclip.obj
 0001:00066f50       ??4AnimEvent@CoreAnimation@@QAEAAV01@ABV01@@Z 00467f50 f i render_win32.release:animclip.obj
 0001:00066f90       ?Alloc@?$FixedArray@VAnimCurve@CoreAnimation@@@Util@@AAEXH@Z 00467f90 f i render_win32.release:animclip.obj
 0001:00067040       ?Begin@?$Array@VAnimEvent@CoreAnimation@@@Util@@QBEPAVAnimEvent@CoreAnimation@@XZ 00468040 f i render_win32.release:animclip.obj
 0001:00067060       ?End@?$Array@VAnimEvent@CoreAnimation@@@Util@@QBEPAVAnimEvent@CoreAnimation@@XZ 00468060 f i render_win32.release:animclip.obj
 0001:00067080       ?Grow@?$Array@VAnimEvent@CoreAnimation@@@Util@@AAEXXZ 00468080 f i render_win32.release:animclip.obj
 0001:00067100       ?GrowTo@?$Array@VAnimEvent@CoreAnimation@@@Util@@AAEXH@Z 00468100 f i render_win32.release:animclip.obj
 0001:00067230       ??$sort@PAVAnimEvent@CoreAnimation@@@std@@YAXPAVAnimEvent@CoreAnimation@@0@Z 00468230 f i render_win32.release:animclip.obj
 0001:00067270       ??$_Checked_base@PAVAnimEvent@CoreAnimation@@@std@@YAPAVAnimEvent@CoreAnimation@@AAPAV12@@Z 00468270 f i render_win32.release:animclip.obj
 0001:00067290       ??$_Sort@PAVAnimEvent@CoreAnimation@@H@std@@YAXPAVAnimEvent@CoreAnimation@@0H@Z 00468290 f i render_win32.release:animclip.obj
 0001:000673e0       ??$_Checked_base@PAVAnimEvent@CoreAnimation@@@std@@YAPAVAnimEvent@CoreAnimation@@AAPAV12@U_Unchanged_checked_iterator_base_type_tag@0@@Z 004683e0 f i render_win32.release:animclip.obj
 0001:000673f0       ??$_Unguarded_partition@PAVAnimEvent@CoreAnimation@@@std@@YA?AU?$pair@PAVAnimEvent@CoreAnimation@@PAV12@@0@PAVAnimEvent@CoreAnimation@@0@Z 004683f0 f i render_win32.release:animclip.obj
 0001:00067700       ??$make_heap@PAVAnimEvent@CoreAnimation@@@std@@YAXPAVAnimEvent@CoreAnimation@@0@Z 00468700 f i render_win32.release:animclip.obj
 0001:00067740       ??$sort_heap@PAVAnimEvent@CoreAnimation@@@std@@YAXPAVAnimEvent@CoreAnimation@@0@Z 00468740 f i render_win32.release:animclip.obj
 0001:00067760       ??$_Insertion_sort@PAVAnimEvent@CoreAnimation@@@std@@YAXPAVAnimEvent@CoreAnimation@@0@Z 00468760 f i render_win32.release:animclip.obj
 0001:00067780       ??0?$pair@PAVAnimEvent@CoreAnimation@@PAV12@@std@@QAE@ABQAVAnimEvent@CoreAnimation@@0@Z 00468780 f i render_win32.release:animclip.obj
 0001:000677b0       ??$_Median@PAVAnimEvent@CoreAnimation@@@std@@YAXPAVAnimEvent@CoreAnimation@@00@Z 004687b0 f i render_win32.release:animclip.obj
 0001:000678a0       ??$iter_swap@PAVAnimEvent@CoreAnimation@@PAV12@@std@@YAXPAVAnimEvent@CoreAnimation@@0@Z 004688a0 f i render_win32.release:animclip.obj
 0001:000678c0       ??$_Dist_type@PAVAnimEvent@CoreAnimation@@@std@@YAPAHPAVAnimEvent@CoreAnimation@@@Z 004688c0 f i render_win32.release:animclip.obj
 0001:000678d0       ??$_Val_type@PAVAnimEvent@CoreAnimation@@@std@@YAPAVAnimEvent@CoreAnimation@@PAV12@@Z 004688d0 f i render_win32.release:animclip.obj
 0001:000678e0       ??$_Make_heap@PAVAnimEvent@CoreAnimation@@HV12@@std@@YAXPAVAnimEvent@CoreAnimation@@0PAH0@Z 004688e0 f i render_win32.release:animclip.obj
 0001:00067970       ??$_Sort_heap@PAVAnimEvent@CoreAnimation@@@std@@YAXPAVAnimEvent@CoreAnimation@@0@Z 00468970 f i render_win32.release:animclip.obj
 0001:000679e0       ??$_Insertion_sort1@PAVAnimEvent@CoreAnimation@@V12@@std@@YAXPAVAnimEvent@CoreAnimation@@00@Z 004689e0 f i render_win32.release:animclip.obj
 0001:00067b30       ??0AnimEvent@CoreAnimation@@QAE@ABV01@@Z 00468b30 f i render_win32.release:animclip.obj
 0001:00067b70       ??$_Med3@PAVAnimEvent@CoreAnimation@@@std@@YAXPAVAnimEvent@CoreAnimation@@00@Z 00468b70 f i render_win32.release:animclip.obj
 0001:00067c00       ??$swap@VAnimEvent@CoreAnimation@@@std@@YAXAAVAnimEvent@CoreAnimation@@0@Z 00468c00 f i render_win32.release:animclip.obj
 0001:00067c70       ??$_Adjust_heap@PAVAnimEvent@CoreAnimation@@HV12@@std@@YAXPAVAnimEvent@CoreAnimation@@HHV12@@Z 00468c70 f i render_win32.release:animclip.obj
 0001:00067db0       ??$pop_heap@PAVAnimEvent@CoreAnimation@@@std@@YAXPAVAnimEvent@CoreAnimation@@0@Z 00468db0 f i render_win32.release:animclip.obj
 0001:00067df0       ??$unchecked_copy_backward@PAVAnimEvent@CoreAnimation@@PAV12@@stdext@@YAPAVAnimEvent@CoreAnimation@@PAV12@00@Z 00468df0 f i render_win32.release:animclip.obj
 0001:00067e40       ??$_Push_heap@PAVAnimEvent@CoreAnimation@@HV12@@std@@YAXPAVAnimEvent@CoreAnimation@@HHV12@@Z 00468e40 f i render_win32.release:animclip.obj
 0001:00067f00       ??$_Pop_heap_0@PAVAnimEvent@CoreAnimation@@V12@@std@@YAXPAVAnimEvent@CoreAnimation@@00@Z 00468f00 f i render_win32.release:animclip.obj
 0001:00067f60       ??$_Iter_random@PAVAnimEvent@CoreAnimation@@PAV12@@std@@YA?AUrandom_access_iterator_tag@0@ABQAVAnimEvent@CoreAnimation@@0@Z 00468f60 f i render_win32.release:animclip.obj
 0001:00067f70       ??$_Ptr_cat@PAVAnimEvent@CoreAnimation@@PAV12@@std@@YA?AU_Nonscalar_ptr_iterator_tag@0@AAPAVAnimEvent@CoreAnimation@@0@Z 00468f70 f i render_win32.release:animclip.obj
 0001:00067f80       ??$_Copy_backward_opt@PAVAnimEvent@CoreAnimation@@PAV12@@std@@YAPAVAnimEvent@CoreAnimation@@PAV12@00Urandom_access_iterator_tag@0@U_Nonscalar_ptr_iterator_tag@0@U_Range_checked_iterator_tag@0@@Z 00468f80 f i render_win32.release:animclip.obj
 0001:00068010       ??$_Pop_heap@PAVAnimEvent@CoreAnimation@@HV12@@std@@YAXPAVAnimEvent@CoreAnimation@@00V12@PAH@Z 00469010 f i render_win32.release:animclip.obj
 0001:00068090       ??$_Copy_backward_opt@PAVAnimEvent@CoreAnimation@@PAV12@Uforward_iterator_tag@std@@@std@@YAPAVAnimEvent@CoreAnimation@@PAV12@00Uforward_iterator_tag@0@U_Nonscalar_ptr_iterator_tag@0@U_Range_checked_iterator_tag@0@@Z 00469090 f i render_win32.release:animclip.obj
 0001:000680e0       ?GetVertexLayout@VertexBufferBase@Base@@QBEABV?$Ptr@VVertexLayout@CoreGraphics@@@@XZ 004690e0 f i render_win32.release:meshbase.obj
 0001:00068100       ??2MeshBase@Base@@SAPAXI@Z 00469100 f i render_win32.release:meshbase.obj
 0001:00068110       ??3MeshBase@Base@@SAXPAX@Z 00469110 f i render_win32.release:meshbase.obj
 0001:00068130       ?GetPrimitiveGroupAtIndex@MeshBase@Base@@QBEABVPrimitiveGroup@CoreGraphics@@H@Z 00469130 f i render_win32.release:meshbase.obj
 0001:00068150       ?SetPrimitiveGroup@RenderDeviceBase@Base@@QAEXABVPrimitiveGroup@CoreGraphics@@@Z 00469150 f i render_win32.release:meshbase.obj
 0001:00068170       ??4PrimitiveGroup@CoreGraphics@@QAEAAV01@ABV01@@Z 00469170 f i render_win32.release:meshbase.obj
 0001:00068200       ?Instance@RenderDevice@CoreGraphics@@SAPAV12@XZ 00469200 f i render_win32.release:meshbase.obj
 0001:00068240       ?GetRtti@MeshBase@Base@@UBEPAVRtti@Core@@XZ 00469240 f   render_win32.release:meshbase.obj
 0001:00068250       ?FactoryCreator@MeshBase@Base@@SAPAVRefCounted@Core@@XZ 00469250 f   render_win32.release:meshbase.obj
 0001:00068260       ?Create@MeshBase@Base@@SAPAV12@XZ 00469260 f   render_win32.release:meshbase.obj
 0001:000682a0       ?RegisterWithFactory@MeshBase@Base@@SA_NXZ 004692a0 f   render_win32.release:meshbase.obj
 0001:000683a0       ??0MeshBase@Base@@QAE@XZ   004693a0 f   render_win32.release:meshbase.obj
 0001:000683e0       ??_GMeshBase@Base@@UAEPAXI@Z 004693e0 f i render_win32.release:meshbase.obj
 0001:000683e0       ??_EMeshBase@Base@@UAEPAXI@Z 004693e0 f i  CIL library: CIL module
 0001:00068410       ??1MeshBase@Base@@UAE@XZ   00469410 f   render_win32.release:meshbase.obj
 0001:00068450       ?Unload@MeshBase@Base@@UAEXXZ 00469450 f   render_win32.release:meshbase.obj
 0001:000684e0       ?ApplyPrimitives@MeshBase@Base@@QAEXH@Z 004694e0 f   render_win32.release:meshbase.obj
 0001:000685b0       ??0?$Ptr@VVertexBuffer@CoreGraphics@@@@QAE@XZ 004695b0 f i render_win32.release:meshbase.obj
 0001:000685d0       ??1?$Ptr@VVertexBuffer@CoreGraphics@@@@QAE@XZ 004695d0 f i render_win32.release:meshbase.obj
 0001:00068600       ??4?$Ptr@VVertexBuffer@CoreGraphics@@@@QAEXPAVVertexBuffer@CoreGraphics@@@Z 00469600 f i render_win32.release:meshbase.obj
 0001:00068660       ??C?$Ptr@VVertexBuffer@CoreGraphics@@@@QBEPAVVertexBuffer@CoreGraphics@@XZ 00469660 f i render_win32.release:meshbase.obj
 0001:000686a0       ?isvalid@?$Ptr@VVertexBuffer@CoreGraphics@@@@QBE_NXZ 004696a0 f i render_win32.release:meshbase.obj
 0001:000686c0       ??0?$Ptr@VIndexBuffer@CoreGraphics@@@@QAE@XZ 004696c0 f i render_win32.release:meshbase.obj
 0001:000686e0       ??1?$Ptr@VIndexBuffer@CoreGraphics@@@@QAE@XZ 004696e0 f i render_win32.release:meshbase.obj
 0001:00068710       ??4?$Ptr@VIndexBuffer@CoreGraphics@@@@QAEXPAVIndexBuffer@CoreGraphics@@@Z 00469710 f i render_win32.release:meshbase.obj
 0001:00068770       ??C?$Ptr@VIndexBuffer@CoreGraphics@@@@QBEPAVIndexBuffer@CoreGraphics@@XZ 00469770 f i render_win32.release:meshbase.obj
 0001:000687b0       ?isvalid@?$Ptr@VIndexBuffer@CoreGraphics@@@@QBE_NXZ 004697b0 f i render_win32.release:meshbase.obj
 0001:000687d0       ??0?$Array@VPrimitiveGroup@CoreGraphics@@@Util@@QAE@XZ 004697d0 f i render_win32.release:meshbase.obj
 0001:00068810       ??1?$Array@VPrimitiveGroup@CoreGraphics@@@Util@@QAE@XZ 00469810 f i render_win32.release:meshbase.obj
 0001:00068830       ??A?$Array@VPrimitiveGroup@CoreGraphics@@@Util@@QBEAAVPrimitiveGroup@CoreGraphics@@H@Z 00469830 f i render_win32.release:meshbase.obj
 0001:00068880       ?Delete@?$Array@VPrimitiveGroup@CoreGraphics@@@Util@@AAEXXZ 00469880 f i render_win32.release:meshbase.obj
 0001:000688e0       ??2Win32InputServer@Win32@@SAPAXI@Z 004698e0 f i render_win32.release:win32inputserver.obj
 0001:000688f0       ??3Win32InputServer@Win32@@SAXPAX@Z 004698f0 f i render_win32.release:win32inputserver.obj
 0001:00068910       ?SetPlayerIndex@GamePadBase@Base@@QAEXH@Z 00469910 f i render_win32.release:win32inputserver.obj
 0001:00068950       ?Instance@Display@Graphics@@SAPAV12@XZ 00469950 f i render_win32.release:win32inputserver.obj
 0001:00068990       ?GetRtti@Win32InputServer@Win32@@UBEPAVRtti@Core@@XZ 00469990 f   render_win32.release:win32inputserver.obj
 0001:000689a0       ?FactoryCreator@Win32InputServer@Win32@@SAPAVRefCounted@Core@@XZ 004699a0 f   render_win32.release:win32inputserver.obj
 0001:000689b0       ?Create@Win32InputServer@Win32@@SAPAV12@XZ 004699b0 f   render_win32.release:win32inputserver.obj
 0001:000689f0       ?RegisterWithFactory@Win32InputServer@Win32@@SA_NXZ 004699f0 f   render_win32.release:win32inputserver.obj
 0001:00068af0       ??0Win32InputServer@Win32@@QAE@XZ 00469af0 f   render_win32.release:win32inputserver.obj
 0001:00068b70       ??_EWin32InputServer@Win32@@UAEPAXI@Z 00469b70 f i  CIL library: CIL module
 0001:00068b70       ??_GWin32InputServer@Win32@@UAEPAXI@Z 00469b70 f i render_win32.release:win32inputserver.obj
 0001:00068ba0       ??1Win32InputServer@Win32@@UAE@XZ 00469ba0 f   render_win32.release:win32inputserver.obj
 0001:00068c20       ?Open@Win32InputServer@Win32@@UAEXXZ 00469c20 f   render_win32.release:win32inputserver.obj
 0001:00068db0       ?Close@Win32InputServer@Win32@@UAEXXZ 00469db0 f   render_win32.release:win32inputserver.obj
 0001:00068e40       ?OnFrame@Win32InputServer@Win32@@UAEXXZ 00469e40 f   render_win32.release:win32inputserver.obj
 0001:00068e70       ?OpenDInputMouse@Win32InputServer@Win32@@IAE_NXZ 00469e70 f   render_win32.release:win32inputserver.obj
 0001:000690b0       ?CloseDInputMouse@Win32InputServer@Win32@@IAEXXZ 0046a0b0 f   render_win32.release:win32inputserver.obj
 0001:00069150       ?ReadDInputMouse@Win32InputServer@Win32@@IAEXXZ 0046a150 f   render_win32.release:win32inputserver.obj
 0001:000692e0       ??0?$Ptr@VWin32InputDisplayEventHandler@Win32@@@@QAE@XZ 0046a2e0 f i render_win32.release:win32inputserver.obj
 0001:00069300       ??1?$Ptr@VWin32InputDisplayEventHandler@Win32@@@@QAE@XZ 0046a300 f i render_win32.release:win32inputserver.obj
 0001:00069330       ??4?$Ptr@VWin32InputDisplayEventHandler@Win32@@@@QAEXPAVWin32InputDisplayEventHandler@Win32@@@Z 0046a330 f i render_win32.release:win32inputserver.obj
 0001:00069390       ??C?$Ptr@VWin32InputDisplayEventHandler@Win32@@@@QBEPAVWin32InputDisplayEventHandler@Win32@@XZ 0046a390 f i render_win32.release:win32inputserver.obj
 0001:000693d0       ??$upcast@VThreadSafeDisplayEventHandler@CoreGraphics@@@?$Ptr@VWin32InputDisplayEventHandler@Win32@@@@QBEABV?$Ptr@VThreadSafeDisplayEventHandler@CoreGraphics@@@@XZ 0046a3d0 f i render_win32.release:win32inputserver.obj
 0001:000693e0       ??$upcast@VInputHandler@Input@@@?$Ptr@VKeyboard@Input@@@@QBEABV?$Ptr@VInputHandler@Input@@@@XZ 0046a3e0 f i render_win32.release:win32inputserver.obj
 0001:000693f0       ??$upcast@VInputHandler@Input@@@?$Ptr@VMouse@Input@@@@QBEABV?$Ptr@VInputHandler@Input@@@@XZ 0046a3f0 f i render_win32.release:win32inputserver.obj
 0001:00069400       ??4?$Ptr@VGamePad@Input@@@@QAEXPAVGamePad@Input@@@Z 0046a400 f i render_win32.release:win32inputserver.obj
 0001:00069460       ??$upcast@VInputHandler@Input@@@?$Ptr@VGamePad@Input@@@@QBEABV?$Ptr@VInputHandler@Input@@@@XZ 0046a460 f i render_win32.release:win32inputserver.obj
 0001:00069470       ?n_tan@Math@@YAMM@Z        0046a470 f i render_win32.release:camerasettings.obj
 0001:00069490       ??Xfloat4@Math@@QAEXM@Z    0046a490 f i render_win32.release:camerasettings.obj
 0001:000694f0       ?set@float4@Math@@QAEXMMMM@Z 0046a4f0 f i render_win32.release:camerasettings.obj
 0001:00069540       ?x@float4@Math@@QBEMXZ     0046a540 f i render_win32.release:camerasettings.obj
 0001:00069570       ?y@float4@Math@@QBEMXZ     0046a570 f i render_win32.release:camerasettings.obj
 0001:000695c0       ?unpack_y@float4@Math@@SAMT__m128@@@Z 0046a5c0 f i render_win32.release:camerasettings.obj
 0001:00069600       ??0point@Math@@QAE@ABVfloat4@1@@Z 0046a600 f i render_win32.release:camerasettings.obj
 0001:000696f0       ?set@point@Math@@QAEXMMM@Z 0046a6f0 f i render_win32.release:camerasettings.obj
 0001:00069750       ??0plane@Math@@QAE@XZ      0046a750 f i render_win32.release:camerasettings.obj
 0001:00069760       ?setup_from_points@plane@Math@@QAEXABVfloat4@2@00@Z 0046a760 f i render_win32.release:camerasettings.obj
 0001:00069e20       ?inverse@matrix44@Math@@SA?AV12@ABV12@@Z 0046ae20 f i render_win32.release:camerasettings.obj
 0001:00069e60       ?orthorh@matrix44@Math@@SA?AV12@MMMM@Z 0046ae60 f i render_win32.release:camerasettings.obj
 0001:0006a070       ?perspfovrh@matrix44@Math@@SA?AV12@MMMM@Z 0046b070 f i render_win32.release:camerasettings.obj
 0001:0006a2e0       ??0frustum@Math@@QAE@XZ    0046b2e0 f i render_win32.release:camerasettings.obj
 0001:0006a320       ?set@frustum@Math@@QAEXABVmatrix44@2@@Z 0046b320 f i render_win32.release:camerasettings.obj
 0001:0006ae70       ??0CameraSettings@Shared@@QAE@XZ 0046be70 f   render_win32.release:camerasettings.obj
 0001:0006b1c0       ?SetupPerspectiveFov@CameraSettings@Shared@@QAEXMMMM@Z 0046c1c0 f   render_win32.release:camerasettings.obj
 0001:0006b750       ?SetupOrthogonal@CameraSettings@Shared@@QAEXMMMM@Z 0046c750 f   render_win32.release:camerasettings.obj
 0001:0006bb30       ?UpdateViewProjMatrix@CameraSettings@Shared@@ABEXXZ 0046cb30 f   render_win32.release:camerasettings.obj
 0001:0006c430       ?UpdateViewFrustum@CameraSettings@Shared@@ABEXXZ 0046d430 f   render_win32.release:camerasettings.obj
 0001:0006c4d0       ?XMMatrixPerspectiveFovRH@@YA?AU_XMMATRIX@@MMMM@Z 0046d4d0 f i render_win32.release:camerasettings.obj
 0001:0006c720       ?XMScalarSinCos@@YAXPAM0M@Z 0046d720 f i render_win32.release:camerasettings.obj
 0001:0006c750       ?XMMatrixOrthographicRH@@YA?AU_XMMATRIX@@MMMM@Z 0046d750 f i render_win32.release:camerasettings.obj
 0001:0006c930       ?XMMatrixTranspose@@YA?AU_XMMATRIX@@ABU1@@Z 0046d930 f i render_win32.release:camerasettings.obj
 0001:0006ca90       ?XMMatrixInverse@@YA?AU_XMMATRIX@@PAT__m128@@ABU1@@Z 0046da90 f i render_win32.release:camerasettings.obj
 0001:0006dcb0       ?XMVector3Normalize@@YA?AT__m128@@T1@@Z 0046ecb0 f i render_win32.release:camerasettings.obj
 0001:0006df30       ?XMPlaneDotNormal@@YA?AT__m128@@T1@0@Z 0046ef30 f i render_win32.release:camerasettings.obj
 0001:0006e010       ?XMPlaneFromPoints@@YA?AT__m128@@T1@00@Z 0046f010 f i render_win32.release:camerasettings.obj
 0001:0006e690       ?XMVectorGetYPtr@@YAXPAMT__m128@@@Z 0046f690 f i render_win32.release:camerasettings.obj
 0001:0006e6d0       ?XMVector4Dot@@YA?AT__m128@@T1@0@Z 0046f6d0 f i render_win32.release:camerasettings.obj
 0001:0006e7b0       ?XMVectorScale@@YA?AT__m128@@T1@M@Z 0046f7b0 f i render_win32.release:camerasettings.obj
 0001:0006e7f0       _tanf                      0046f7f0 f i render_win32.release:camerasettings.obj
 0001:0006e810       ?SetStackSize@Win360Thread@Win360@@QAEXH@Z 0046f810 f i render_win32.release:graphicsinterface.obj
 0001:0006e830       ?SetName@Win360Thread@Win360@@QAEXABVString@Util@@@Z 0046f830 f i render_win32.release:graphicsinterface.obj
 0001:0006e8b0       ?SetCoreId@Win360Thread@Win360@@QAEXK@Z 0046f8b0 f i render_win32.release:graphicsinterface.obj
 0001:0006e8d0       ??0Event@Threading@@QAE@_N@Z 0046f8d0 f i render_win32.release:graphicsinterface.obj
 0001:0006e920       ?SetHandlerThread@AsyncPort@Messaging@@QAEXABV?$Ptr@VHandlerThreadBase@Messaging@@@@@Z 0046f920 f i render_win32.release:graphicsinterface.obj
 0001:0006e970       ?IsOpen@AsyncPort@Messaging@@QBE_NXZ 0046f970 f i render_win32.release:graphicsinterface.obj
 0001:0006e990       ??2GraphicsInterface@Graphics@@SAPAXI@Z 0046f990 f i render_win32.release:graphicsinterface.obj
 0001:0006e9a0       ??3GraphicsInterface@Graphics@@SAXPAX@Z 0046f9a0 f i render_win32.release:graphicsinterface.obj
 0001:0006e9c0       ?GetRtti@GraphicsInterface@Graphics@@UBEPAVRtti@Core@@XZ 0046f9c0 f   render_win32.release:graphicsinterface.obj
 0001:0006e9d0       ?FactoryCreator@GraphicsInterface@Graphics@@SAPAVRefCounted@Core@@XZ 0046f9d0 f   render_win32.release:graphicsinterface.obj
 0001:0006e9e0       ?Create@GraphicsInterface@Graphics@@SAPAV12@XZ 0046f9e0 f   render_win32.release:graphicsinterface.obj
 0001:0006ea20       ?RegisterWithFactory@GraphicsInterface@Graphics@@SA_NXZ 0046fa20 f   render_win32.release:graphicsinterface.obj
 0001:0006eb20       ??0GraphicsInterface@Graphics@@QAE@XZ 0046fb20 f   render_win32.release:graphicsinterface.obj
 0001:0006ebd0       ??_EGraphicsInterface@Graphics@@UAEPAXI@Z 0046fbd0 f i  CIL library: CIL module
 0001:0006ebd0       ??_GGraphicsInterface@Graphics@@UAEPAXI@Z 0046fbd0 f i render_win32.release:graphicsinterface.obj
 0001:0006ec00       ??1Event@Threading@@QAE@XZ 0046fc00 f i render_win32.release:graphicsinterface.obj
 0001:0006ec20       ??1GraphicsInterface@Graphics@@UAE@XZ 0046fc20 f   render_win32.release:graphicsinterface.obj
 0001:0006ecb0       ?Open@GraphicsInterface@Graphics@@UAEXXZ 0046fcb0 f   render_win32.release:graphicsinterface.obj
 0001:0006ee20       ?Close@GraphicsInterface@Graphics@@UAEXXZ 0046fe20 f   render_win32.release:graphicsinterface.obj
 0001:0006ee60       ?EnterLockStepMode@GraphicsInterface@Graphics@@QAEXXZ 0046fe60 f   render_win32.release:graphicsinterface.obj
 0001:0006eea0       ?LeaveLockStepMode@GraphicsInterface@Graphics@@QAEXXZ 0046fea0 f   render_win32.release:graphicsinterface.obj
 0001:0006eee0       ?GameThreadWaitForFrameSync@GraphicsInterface@Graphics@@QAEXXZ 0046fee0 f   render_win32.release:graphicsinterface.obj
 0001:0006ef20       ?WaitForPendingResources@GraphicsInterface@Graphics@@QAEXXZ 0046ff20 f   render_win32.release:graphicsinterface.obj
 0001:0006ef40       ?SendBatched@GraphicsInterface@Graphics@@QAEXABV?$Ptr@VMessage@Messaging@@@@@Z 0046ff40 f   render_win32.release:graphicsinterface.obj
 0001:0006ef70       ?FlushBatchedMessages@GraphicsInterface@Graphics@@QAEXXZ 0046ff70 f   render_win32.release:graphicsinterface.obj
 0001:0006efd0       ?Size@?$Array@V?$Ptr@VMessage@Messaging@@@@@Util@@QBEHXZ 0046ffd0 f i render_win32.release:graphicsinterface.obj
 0001:0006eff0       ??4?$Ptr@VHandlerThreadBase@Messaging@@@@QAEXABV0@@Z 0046fff0 f i render_win32.release:graphicsinterface.obj
 0001:0006f050       ??0?$Ptr@VFrameSyncHandlerThread@FrameSync@@@@QAE@XZ 00470050 f i render_win32.release:graphicsinterface.obj
 0001:0006f070       ??1?$Ptr@VFrameSyncHandlerThread@FrameSync@@@@QAE@XZ 00470070 f i render_win32.release:graphicsinterface.obj
 0001:0006f0a0       ??4?$Ptr@VFrameSyncHandlerThread@FrameSync@@@@QAEXPAVFrameSyncHandlerThread@FrameSync@@@Z 004700a0 f i render_win32.release:graphicsinterface.obj
 0001:0006f100       ??C?$Ptr@VFrameSyncHandlerThread@FrameSync@@@@QBEPAVFrameSyncHandlerThread@FrameSync@@XZ 00470100 f i render_win32.release:graphicsinterface.obj
 0001:0006f140       ??0?$Ptr@VGraphicsHandler@Graphics@@@@QAE@XZ 00470140 f i render_win32.release:graphicsinterface.obj
 0001:0006f160       ??1?$Ptr@VGraphicsHandler@Graphics@@@@QAE@XZ 00470160 f i render_win32.release:graphicsinterface.obj
 0001:0006f190       ??4?$Ptr@VGraphicsHandler@Graphics@@@@QAEXPAVGraphicsHandler@Graphics@@@Z 00470190 f i render_win32.release:graphicsinterface.obj
 0001:0006f1f0       ??C?$Ptr@VGraphicsHandler@Graphics@@@@QBEPAVGraphicsHandler@Graphics@@XZ 004701f0 f i render_win32.release:graphicsinterface.obj
 0001:0006f230       ??0?$Ptr@VBatchMessage@Messaging@@@@QAE@XZ 00470230 f i render_win32.release:graphicsinterface.obj
 0001:0006f250       ??1?$Ptr@VBatchMessage@Messaging@@@@QAE@XZ 00470250 f i render_win32.release:graphicsinterface.obj
 0001:0006f280       ??4?$Ptr@VBatchMessage@Messaging@@@@QAEXPAVBatchMessage@Messaging@@@Z 00470280 f i render_win32.release:graphicsinterface.obj
 0001:0006f2e0       ??C?$Ptr@VBatchMessage@Messaging@@@@QBEPAVBatchMessage@Messaging@@XZ 004702e0 f i render_win32.release:graphicsinterface.obj
 0001:0006f320       ??$cast@VHandler@Messaging@@@?$Ptr@VGraphicsHandler@Graphics@@@@QBEABV?$Ptr@VHandler@Messaging@@@@XZ 00470320 f i render_win32.release:graphicsinterface.obj
 0001:0006f330       ??0?$Ptr@VHandler@Messaging@@@@QAE@PAVHandler@Messaging@@@Z 00470330 f i render_win32.release:graphicsinterface.obj
 0001:0006f370       ??1?$Ptr@VHandler@Messaging@@@@QAE@XZ 00470370 f i render_win32.release:graphicsinterface.obj
 0001:0006f3a0       ??$cast@VHandlerThreadBase@Messaging@@@?$Ptr@VFrameSyncHandlerThread@FrameSync@@@@QBEABV?$Ptr@VHandlerThreadBase@Messaging@@@@XZ 004703a0 f i render_win32.release:graphicsinterface.obj
 0001:0006f3b0       ??$cast@VMessage@Messaging@@@?$Ptr@VBatchMessage@Messaging@@@@QBEABV?$Ptr@VMessage@Messaging@@@@XZ 004703b0 f i render_win32.release:graphicsinterface.obj
 0001:0006f3c0       ?SetName@Stage@Graphics@@AAEXABVStringAtom@Util@@@Z 004703c0 f i render_win32.release:graphicsserver.obj
 0001:0006f3e0       ?SetName@View@Graphics@@AAEXABVStringAtom@Util@@@Z 004703e0 f i render_win32.release:graphicsserver.obj
 0001:0006f400       ?GetName@View@Graphics@@QBEABVStringAtom@Util@@XZ 00470400 f i render_win32.release:graphicsserver.obj
 0001:0006f420       ?SetViewClass@View@Graphics@@AAEXABVRtti@Core@@@Z 00470420 f i render_win32.release:graphicsserver.obj
 0001:0006f440       ?SetStageName@View@Graphics@@AAEXABVStringAtom@Util@@@Z 00470440 f i render_win32.release:graphicsserver.obj
 0001:0006f460       ?SetFrameShaderName@View@Graphics@@AAEXABVStringAtom@Util@@@Z 00470460 f i render_win32.release:graphicsserver.obj
 0001:0006f480       ??2GraphicsServer@Graphics@@SAPAXI@Z 00470480 f i render_win32.release:graphicsserver.obj
 0001:0006f490       ??3GraphicsServer@Graphics@@SAXPAX@Z 00470490 f i render_win32.release:graphicsserver.obj
 0001:0006f4b0       ?GetRtti@GraphicsServer@Graphics@@UBEPAVRtti@Core@@XZ 004704b0 f   render_win32.release:graphicsserver.obj
 0001:0006f4c0       ?FactoryCreator@GraphicsServer@Graphics@@SAPAVRefCounted@Core@@XZ 004704c0 f   render_win32.release:graphicsserver.obj
 0001:0006f4d0       ?Create@GraphicsServer@Graphics@@SAPAV12@XZ 004704d0 f   render_win32.release:graphicsserver.obj
 0001:0006f510       ?RegisterWithFactory@GraphicsServer@Graphics@@SA_NXZ 00470510 f   render_win32.release:graphicsserver.obj
 0001:0006f610       ??0GraphicsServer@Graphics@@QAE@XZ 00470610 f   render_win32.release:graphicsserver.obj
 0001:0006f6c0       ??_GGraphicsServer@Graphics@@UAEPAXI@Z 004706c0 f i render_win32.release:graphicsserver.obj
 0001:0006f6c0       ??_EGraphicsServer@Graphics@@UAEPAXI@Z 004706c0 f i  CIL library: CIL module
 0001:0006f6f0       ??1GraphicsServer@Graphics@@UAE@XZ 004706f0 f   render_win32.release:graphicsserver.obj
 0001:0006f840       ?Open@GraphicsServer@Graphics@@QAEXXZ 00470840 f   render_win32.release:graphicsserver.obj
 0001:0006f880       ?Close@GraphicsServer@Graphics@@QAEXXZ 00470880 f   render_win32.release:graphicsserver.obj
 0001:0006f8d0       ?CreateStage@GraphicsServer@Graphics@@QAE?AV?$Ptr@VStage@Graphics@@@@ABVStringAtom@Util@@ABV?$Array@V?$Ptr@VVisibilitySystemBase@Visibility@@@@@5@@Z 004708d0 f   render_win32.release:graphicsserver.obj
 0001:0006f9b0       ?DiscardStage@GraphicsServer@Graphics@@QAEXABV?$Ptr@VStage@Graphics@@@@@Z 004709b0 f   render_win32.release:graphicsserver.obj
 0001:0006fa50       ?DiscardAllStages@GraphicsServer@Graphics@@QAEXXZ 00470a50 f   render_win32.release:graphicsserver.obj
 0001:0006fac0       ?HasStage@GraphicsServer@Graphics@@QBE_NABVStringAtom@Util@@@Z 00470ac0 f   render_win32.release:graphicsserver.obj
 0001:0006fae0       ?GetStageByName@GraphicsServer@Graphics@@QBEABV?$Ptr@VStage@Graphics@@@@ABVStringAtom@Util@@@Z 00470ae0 f   render_win32.release:graphicsserver.obj
 0001:0006fb10       ?GetStages@GraphicsServer@Graphics@@QBEABV?$Array@V?$Ptr@VStage@Graphics@@@@@Util@@XZ 00470b10 f   render_win32.release:graphicsserver.obj
 0001:0006fb30       ?CreateView@GraphicsServer@Graphics@@QAE?AV?$Ptr@VView@Graphics@@@@ABVRtti@Core@@ABVStringAtom@Util@@11_N@Z 00470b30 f   render_win32.release:graphicsserver.obj
 0001:0006fc80       ?DiscardView@GraphicsServer@Graphics@@QAEXABV?$Ptr@VView@Graphics@@@@@Z 00470c80 f   render_win32.release:graphicsserver.obj
 0001:0006fd70       ?SetDefaultView@GraphicsServer@Graphics@@QAEXABV?$Ptr@VView@Graphics@@@@@Z 00470d70 f   render_win32.release:graphicsserver.obj
 0001:0006fe30       ?DiscardAllViews@GraphicsServer@Graphics@@QAEXXZ 00470e30 f   render_win32.release:graphicsserver.obj
 0001:0006fed0       ?HasView@GraphicsServer@Graphics@@QBE_NABVStringAtom@Util@@@Z 00470ed0 f   render_win32.release:graphicsserver.obj
 0001:0006fef0       ?GetViewByName@GraphicsServer@Graphics@@QBEABV?$Ptr@VView@Graphics@@@@ABVStringAtom@Util@@@Z 00470ef0 f   render_win32.release:graphicsserver.obj
 0001:0006ff20       ?GetViews@GraphicsServer@Graphics@@QBEABV?$Array@V?$Ptr@VView@Graphics@@@@@Util@@XZ 00470f20 f   render_win32.release:graphicsserver.obj
 0001:0006ff40       ?GetDefaultView@GraphicsServer@Graphics@@QBEABV?$Ptr@VView@Graphics@@@@XZ 00470f40 f   render_win32.release:graphicsserver.obj
 0001:0006ff60       ?OnFrame@GraphicsServer@Graphics@@QAEXXZ 00470f60 f   render_win32.release:graphicsserver.obj
 0001:00070010       ?RegisterRenderModule@GraphicsServer@Graphics@@QAEXABV?$Ptr@VRenderModule@RenderModules@@@@@Z 00471010 f   render_win32.release:graphicsserver.obj
 0001:00070060       ?UnregisterRenderModule@GraphicsServer@Graphics@@QAEXABV?$Ptr@VRenderModule@RenderModules@@@@@Z 00471060 f   render_win32.release:graphicsserver.obj
 0001:000700b0       ?GetRenderModules@GraphicsServer@Graphics@@QBEABV?$Array@V?$Ptr@VRenderModule@RenderModules@@@@@Util@@XZ 004710b0 f   render_win32.release:graphicsserver.obj
 0001:000700d0       ??0?$Ptr@VStage@Graphics@@@@QAE@ABV0@@Z 004710d0 f i render_win32.release:graphicsserver.obj
 0001:00070110       ??0?$Array@V?$Ptr@VStage@Graphics@@@@@Util@@QAE@XZ 00471110 f i render_win32.release:graphicsserver.obj
 0001:00070150       ??1?$Array@V?$Ptr@VStage@Graphics@@@@@Util@@QAE@XZ 00471150 f i render_win32.release:graphicsserver.obj
 0001:00070170       ??A?$Array@V?$Ptr@VStage@Graphics@@@@@Util@@QBEAAV?$Ptr@VStage@Graphics@@@@H@Z 00471170 f i render_win32.release:graphicsserver.obj
 0001:000701c0       ?Append@?$Array@V?$Ptr@VStage@Graphics@@@@@Util@@QAEXABV?$Ptr@VStage@Graphics@@@@@Z 004711c0 f i render_win32.release:graphicsserver.obj
 0001:00070240       ?Size@?$Array@V?$Ptr@VStage@Graphics@@@@@Util@@QBEHXZ 00471240 f i render_win32.release:graphicsserver.obj
 0001:00070260       ?IsEmpty@?$Array@V?$Ptr@VStage@Graphics@@@@@Util@@QBE_NXZ 00471260 f i render_win32.release:graphicsserver.obj
 0001:00070280       ?EraseIndex@?$Array@V?$Ptr@VStage@Graphics@@@@@Util@@QAEXH@Z 00471280 f i render_win32.release:graphicsserver.obj
 0001:00070300       ?Clear@?$Array@V?$Ptr@VStage@Graphics@@@@@Util@@QAEXXZ 00471300 f i render_win32.release:graphicsserver.obj
 0001:00070350       ??A?$Dictionary@VStringAtom@Util@@H@Util@@QAEAAHABVStringAtom@1@@Z 00471350 f i render_win32.release:graphicsserver.obj
 0001:000703a0       ?Erase@?$Dictionary@VStringAtom@Util@@H@Util@@QAEXABVStringAtom@2@@Z 004713a0 f i render_win32.release:graphicsserver.obj
 0001:00070420       ??0?$Array@V?$Ptr@VView@Graphics@@@@@Util@@QAE@XZ 00471420 f i render_win32.release:graphicsserver.obj
 0001:00070460       ??1?$Array@V?$Ptr@VView@Graphics@@@@@Util@@QAE@XZ 00471460 f i render_win32.release:graphicsserver.obj
 0001:00070480       ??A?$Array@V?$Ptr@VView@Graphics@@@@@Util@@QBEAAV?$Ptr@VView@Graphics@@@@H@Z 00471480 f i render_win32.release:graphicsserver.obj
 0001:000704d0       ?Append@?$Array@V?$Ptr@VView@Graphics@@@@@Util@@QAEXABV?$Ptr@VView@Graphics@@@@@Z 004714d0 f i render_win32.release:graphicsserver.obj
 0001:00070550       ?Size@?$Array@V?$Ptr@VView@Graphics@@@@@Util@@QBEHXZ 00471550 f i render_win32.release:graphicsserver.obj
 0001:00070570       ?IsEmpty@?$Array@V?$Ptr@VView@Graphics@@@@@Util@@QBE_NXZ 00471570 f i render_win32.release:graphicsserver.obj
 0001:00070590       ?EraseIndex@?$Array@V?$Ptr@VView@Graphics@@@@@Util@@QAEXH@Z 00471590 f i render_win32.release:graphicsserver.obj
 0001:00070610       ?Clear@?$Array@V?$Ptr@VView@Graphics@@@@@Util@@QAEXXZ 00471610 f i render_win32.release:graphicsserver.obj
 0001:00070660       ??0?$Ptr@VView@Graphics@@@@QAE@ABV0@@Z 00471660 f i render_win32.release:graphicsserver.obj
 0001:000706a0       ??0?$Ptr@VView@Graphics@@@@QAE@PAVView@Graphics@@@Z 004716a0 f i render_win32.release:graphicsserver.obj
 0001:000706e0       ??8?$Ptr@VView@Graphics@@@@QBE_NABV0@@Z 004716e0 f i render_win32.release:graphicsserver.obj
 0001:00070700       ??9?$Ptr@VView@Graphics@@@@QBE_NABV0@@Z 00471700 f i render_win32.release:graphicsserver.obj
 0001:00070720       ??0?$Array@V?$Ptr@VRenderModule@RenderModules@@@@@Util@@QAE@XZ 00471720 f i render_win32.release:graphicsserver.obj
 0001:00070760       ??1?$Array@V?$Ptr@VRenderModule@RenderModules@@@@@Util@@QAE@XZ 00471760 f i render_win32.release:graphicsserver.obj
 0001:00070780       ??A?$Array@V?$Ptr@VRenderModule@RenderModules@@@@@Util@@QBEAAV?$Ptr@VRenderModule@RenderModules@@@@H@Z 00471780 f i render_win32.release:graphicsserver.obj
 0001:000707d0       ?Append@?$Array@V?$Ptr@VRenderModule@RenderModules@@@@@Util@@QAEXABV?$Ptr@VRenderModule@RenderModules@@@@@Z 004717d0 f i render_win32.release:graphicsserver.obj
 0001:00070850       ?Size@?$Array@V?$Ptr@VRenderModule@RenderModules@@@@@Util@@QBEHXZ 00471850 f i render_win32.release:graphicsserver.obj
 0001:00070870       ?EraseIndex@?$Array@V?$Ptr@VRenderModule@RenderModules@@@@@Util@@QAEXH@Z 00471870 f i render_win32.release:graphicsserver.obj
 0001:000708f0       ?Clear@?$Array@V?$Ptr@VRenderModule@RenderModules@@@@@Util@@QAEXXZ 004718f0 f i render_win32.release:graphicsserver.obj
 0001:00070940       ?FindIndex@?$Array@V?$Ptr@VRenderModule@RenderModules@@@@@Util@@QBEHABV?$Ptr@VRenderModule@RenderModules@@@@@Z 00471940 f i render_win32.release:graphicsserver.obj
 0001:000709a0       ??C?$Ptr@VRenderModule@RenderModules@@@@QBEPAVRenderModule@RenderModules@@XZ 004719a0 f i render_win32.release:graphicsserver.obj
 0001:000709e0       ?Destroy@?$Array@V?$Ptr@VStage@Graphics@@@@@Util@@AAEXPAV?$Ptr@VStage@Graphics@@@@@Z 004719e0 f i render_win32.release:graphicsserver.obj
 0001:00070a10       ?Delete@?$Array@V?$Ptr@VStage@Graphics@@@@@Util@@AAEXXZ 00471a10 f i render_win32.release:graphicsserver.obj
 0001:00070a80       ?Grow@?$Array@V?$Ptr@VStage@Graphics@@@@@Util@@AAEXXZ 00471a80 f i render_win32.release:graphicsserver.obj
 0001:00070b00       ?Move@?$Array@V?$Ptr@VStage@Graphics@@@@@Util@@AAEXHH@Z 00471b00 f i render_win32.release:graphicsserver.obj
 0001:00070c90       ?EraseIndex@?$Array@V?$KeyValuePair@VStringAtom@Util@@H@Util@@@Util@@QAEXH@Z 00471c90 f i render_win32.release:graphicsserver.obj
 0001:00070d10       ?Destroy@?$Array@V?$Ptr@VView@Graphics@@@@@Util@@AAEXPAV?$Ptr@VView@Graphics@@@@@Z 00471d10 f i render_win32.release:graphicsserver.obj
 0001:00070d40       ?Delete@?$Array@V?$Ptr@VView@Graphics@@@@@Util@@AAEXXZ 00471d40 f i render_win32.release:graphicsserver.obj
 0001:00070db0       ?Grow@?$Array@V?$Ptr@VView@Graphics@@@@@Util@@AAEXXZ 00471db0 f i render_win32.release:graphicsserver.obj
 0001:00070e30       ?Move@?$Array@V?$Ptr@VView@Graphics@@@@@Util@@AAEXHH@Z 00471e30 f i render_win32.release:graphicsserver.obj
 0001:00070fc0       ?Destroy@?$Array@V?$Ptr@VRenderModule@RenderModules@@@@@Util@@AAEXPAV?$Ptr@VRenderModule@RenderModules@@@@@Z 00471fc0 f i render_win32.release:graphicsserver.obj
 0001:00070ff0       ?Delete@?$Array@V?$Ptr@VRenderModule@RenderModules@@@@@Util@@AAEXXZ 00471ff0 f i render_win32.release:graphicsserver.obj
 0001:00071060       ?Grow@?$Array@V?$Ptr@VRenderModule@RenderModules@@@@@Util@@AAEXXZ 00472060 f i render_win32.release:graphicsserver.obj
 0001:000710e0       ?Move@?$Array@V?$Ptr@VRenderModule@RenderModules@@@@@Util@@AAEXHH@Z 004720e0 f i render_win32.release:graphicsserver.obj
 0001:00071270       ??4?$Ptr@VRenderModule@RenderModules@@@@QAEXABV0@@Z 00472270 f i render_win32.release:graphicsserver.obj
 0001:000712d0       ??8?$Ptr@VRenderModule@RenderModules@@@@QBE_NABV0@@Z 004722d0 f i render_win32.release:graphicsserver.obj
 0001:000712f0       ??_G?$Ptr@VStage@Graphics@@@@QAEPAXI@Z 004722f0 f i render_win32.release:graphicsserver.obj
 0001:00071320       ??_E?$Ptr@VStage@Graphics@@@@QAEPAXI@Z 00472320 f i render_win32.release:graphicsserver.obj
 0001:000713c0       ??_G?$Ptr@VView@Graphics@@@@QAEPAXI@Z 004723c0 f i render_win32.release:graphicsserver.obj
 0001:000713f0       ??_E?$Ptr@VView@Graphics@@@@QAEPAXI@Z 004723f0 f i render_win32.release:graphicsserver.obj
 0001:00071490       ??_G?$Ptr@VRenderModule@RenderModules@@@@QAEPAXI@Z 00472490 f i render_win32.release:graphicsserver.obj
 0001:000714c0       ??_E?$Ptr@VRenderModule@RenderModules@@@@QAEPAXI@Z 004724c0 f i render_win32.release:graphicsserver.obj
 0001:00071560       ?GrowTo@?$Array@V?$Ptr@VStage@Graphics@@@@@Util@@AAEXH@Z 00472560 f i render_win32.release:graphicsserver.obj
 0001:00071680       ?GrowTo@?$Array@V?$Ptr@VView@Graphics@@@@@Util@@AAEXH@Z 00472680 f i render_win32.release:graphicsserver.obj
 0001:000717a0       ?GrowTo@?$Array@V?$Ptr@VRenderModule@RenderModules@@@@@Util@@AAEXH@Z 004727a0 f i render_win32.release:graphicsserver.obj
 0001:000718c0       ??1?$Ptr@VRenderModule@RenderModules@@@@QAE@XZ 004728c0 f i render_win32.release:graphicsserver.obj
 0001:000718f0       ??0?$Ptr@VRenderModule@RenderModules@@@@QAE@XZ 004728f0 f i render_win32.release:graphicsserver.obj
 0001:00071910       ??0float2@Math@@QAE@ABV01@@Z 00472910 f i render_win32.release:textelement.obj
 0001:00071940       ??0TextElement@CoreGraphics@@QAE@XZ 00472940 f   render_win32.release:textelement.obj
 0001:00071a30       ??0TextElement@CoreGraphics@@QAE@KABVString@Util@@ABVfloat4@Math@@ABVfloat2@5@@Z 00472a30 f   render_win32.release:textelement.obj
 0001:00071ae0       ??2View@Graphics@@SAPAXI@Z 00472ae0 f i render_win32.release:view.obj
 0001:00071af0       ??3View@Graphics@@SAXPAX@Z 00472af0 f i render_win32.release:view.obj
 0001:00071b10       ?IsValid@View@Graphics@@QBE_NXZ 00472b10 f i render_win32.release:view.obj
 0001:00071b30       ?SetViewClass@CreateGraphicsView@Graphics@@QAEXPBVRtti@Core@@@Z 00472b30 f i render_win32.release:view.obj
 0001:00071b70       ?SetName@CreateGraphicsView@Graphics@@QAEXABVStringAtom@Util@@@Z 00472b70 f i render_win32.release:view.obj
 0001:00071bb0       ?SetStageName@CreateGraphicsView@Graphics@@QAEXABVStringAtom@Util@@@Z 00472bb0 f i render_win32.release:view.obj
 0001:00071bf0       ?SetFrameShaderName@CreateGraphicsView@Graphics@@QAEXABVStringAtom@Util@@@Z 00472bf0 f i render_win32.release:view.obj
 0001:00071c30       ?SetDefaultView@CreateGraphicsView@Graphics@@QAEX_N@Z 00472c30 f i render_win32.release:view.obj
 0001:00071c70       ?SetObjectRef@CreateGraphicsView@Graphics@@QAEXABV?$Ptr@VObjectRef@Threading@@@@@Z 00472c70 f i render_win32.release:view.obj
 0001:00071cb0       ?SetObjectRef@DiscardGraphicsView@Graphics@@QAEXABV?$Ptr@VObjectRef@Threading@@@@@Z 00472cb0 f i render_win32.release:view.obj
 0001:00071cf0       ?SetObjectRef@SetDefaultGraphicsView@Graphics@@QAEXABV?$Ptr@VObjectRef@Threading@@@@@Z 00472cf0 f i render_win32.release:view.obj
 0001:00071d30       ?GetRtti@View@Graphics@@UBEPAVRtti@Core@@XZ 00472d30 f   render_win32.release:view.obj
 0001:00071d40       ?FactoryCreator@View@Graphics@@SAPAVRefCounted@Core@@XZ 00472d40 f   render_win32.release:view.obj
 0001:00071d50       ?Create@View@Graphics@@SAPAV12@XZ 00472d50 f   render_win32.release:view.obj
 0001:00071d90       ?RegisterWithFactory@View@Graphics@@SA_NXZ 00472d90 f   render_win32.release:view.obj
 0001:00071e90       ??0View@Graphics@@QAE@XZ   00472e90 f   render_win32.release:view.obj
 0001:00071f20       ??_GView@Graphics@@UAEPAXI@Z 00472f20 f i render_win32.release:view.obj
 0001:00071f20       ??_EView@Graphics@@UAEPAXI@Z 00472f20 f i  CIL library: CIL module
 0001:00071f50       ??1View@Graphics@@UAE@XZ   00472f50 f   render_win32.release:view.obj
 0001:00071fd0       ?Setup@View@Graphics@@AAEXXZ 00472fd0 f   render_win32.release:view.obj
 0001:00072330       ?Discard@View@Graphics@@AAEXXZ 00473330 f   render_win32.release:view.obj
 0001:00072450       ?SetCameraEntity@View@Graphics@@QAEXABV?$Ptr@VCameraEntity@Graphics@@@@@Z 00473450 f   render_win32.release:view.obj
 0001:000724f0       ?GetCameraEntity@View@Graphics@@QBEABV?$Ptr@VCameraEntity@Graphics@@@@XZ 004734f0 f   render_win32.release:view.obj
 0001:00072510       ?SetDefaultView@View@Graphics@@AAEX_N@Z 00473510 f   render_win32.release:view.obj
 0001:000725e0       ??4?$Ptr@VCameraEntity@Graphics@@@@QAEXABV0@@Z 004735e0 f i render_win32.release:view.obj
 0001:00072640       ?isvalid@?$Ptr@VCameraEntity@Graphics@@@@QBE_NXZ 00473640 f i render_win32.release:view.obj
 0001:00072660       ??0?$Ptr@VCreateGraphicsView@Graphics@@@@QAE@PAVCreateGraphicsView@Graphics@@@Z 00473660 f i render_win32.release:view.obj
 0001:000726a0       ??1?$Ptr@VCreateGraphicsView@Graphics@@@@QAE@XZ 004736a0 f i render_win32.release:view.obj
 0001:000726d0       ??C?$Ptr@VCreateGraphicsView@Graphics@@@@QBEPAVCreateGraphicsView@Graphics@@XZ 004736d0 f i render_win32.release:view.obj
 0001:00072710       ??$cast@VMessage@Messaging@@@?$Ptr@VCreateGraphicsView@Graphics@@@@QBEABV?$Ptr@VMessage@Messaging@@@@XZ 00473710 f i render_win32.release:view.obj
 0001:00072720       ??0?$Ptr@VDiscardGraphicsView@Graphics@@@@QAE@PAVDiscardGraphicsView@Graphics@@@Z 00473720 f i render_win32.release:view.obj
 0001:00072760       ??1?$Ptr@VDiscardGraphicsView@Graphics@@@@QAE@XZ 00473760 f i render_win32.release:view.obj
 0001:00072790       ??C?$Ptr@VDiscardGraphicsView@Graphics@@@@QBEPAVDiscardGraphicsView@Graphics@@XZ 00473790 f i render_win32.release:view.obj
 0001:000727d0       ??$cast@VMessage@Messaging@@@?$Ptr@VDiscardGraphicsView@Graphics@@@@QBEABV?$Ptr@VMessage@Messaging@@@@XZ 004737d0 f i render_win32.release:view.obj
 0001:000727e0       ??0?$Ptr@VSetDefaultGraphicsView@Graphics@@@@QAE@PAVSetDefaultGraphicsView@Graphics@@@Z 004737e0 f i render_win32.release:view.obj
 0001:00072820       ??1?$Ptr@VSetDefaultGraphicsView@Graphics@@@@QAE@XZ 00473820 f i render_win32.release:view.obj
 0001:00072850       ??C?$Ptr@VSetDefaultGraphicsView@Graphics@@@@QBEPAVSetDefaultGraphicsView@Graphics@@XZ 00473850 f i render_win32.release:view.obj
 0001:00072890       ??$cast@VMessage@Messaging@@@?$Ptr@VSetDefaultGraphicsView@Graphics@@@@QBEABV?$Ptr@VMessage@Messaging@@@@XZ 00473890 f i render_win32.release:view.obj
 0001:000728a0       ??0Id@Messaging@@QAE@XZ    004738a0 f i render_win32.release:debugrenderprotocol.obj
 0001:000728b0       ??2RenderDebugText@Debug@@SAPAXI@Z 004738b0 f i render_win32.release:debugrenderprotocol.obj
 0001:000728c0       ??3RenderDebugText@Debug@@SAXPAX@Z 004738c0 f i render_win32.release:debugrenderprotocol.obj
 0001:000728e0       ??0RenderDebugText@Debug@@QAE@XZ 004738e0 f i render_win32.release:debugrenderprotocol.obj
 0001:00072910       ??_GRenderDebugText@Debug@@UAEPAXI@Z 00473910 f i render_win32.release:debugrenderprotocol.obj
 0001:00072910       ??_ERenderDebugText@Debug@@UAEPAXI@Z 00473910 f i  CIL library: CIL module
 0001:00072950       ??1Message@Messaging@@UAE@XZ 00473950 f i render_win32.release:debugrenderprotocol.obj
 0001:00072970       ??1RenderDebugText@Debug@@UAE@XZ 00473970 f i render_win32.release:debugrenderprotocol.obj
 0001:00072990       ??2RenderDebugShapes@Debug@@SAPAXI@Z 00473990 f i render_win32.release:debugrenderprotocol.obj
 0001:000729a0       ??3RenderDebugShapes@Debug@@SAXPAX@Z 004739a0 f i render_win32.release:debugrenderprotocol.obj
 0001:000729c0       ??0RenderDebugShapes@Debug@@QAE@XZ 004739c0 f i render_win32.release:debugrenderprotocol.obj
 0001:000729f0       ??_ERenderDebugShapes@Debug@@UAEPAXI@Z 004739f0 f i  CIL library: CIL module
 0001:000729f0       ??_GRenderDebugShapes@Debug@@UAEPAXI@Z 004739f0 f i render_win32.release:debugrenderprotocol.obj
 0001:00072a30       ??1RenderDebugShapes@Debug@@UAE@XZ 00473a30 f i render_win32.release:debugrenderprotocol.obj
 0001:00072a50       ??2RenderDebugView@Debug@@SAPAXI@Z 00473a50 f i render_win32.release:debugrenderprotocol.obj
 0001:00072a60       ??3RenderDebugView@Debug@@SAXPAX@Z 00473a60 f i render_win32.release:debugrenderprotocol.obj
 0001:00072a80       ??0RenderDebugView@Debug@@QAE@XZ 00473a80 f i render_win32.release:debugrenderprotocol.obj
 0001:00072aa0       ??_ERenderDebugView@Debug@@UAEPAXI@Z 00473aa0 f i  CIL library: CIL module
 0001:00072aa0       ??_GRenderDebugView@Debug@@UAEPAXI@Z 00473aa0 f i render_win32.release:debugrenderprotocol.obj
 0001:00072ad0       ??1RenderDebugView@Debug@@UAE@XZ 00473ad0 f i render_win32.release:debugrenderprotocol.obj
 0001:00072af0       ??2IncrDebugShaderLayer@Debug@@SAPAXI@Z 00473af0 f i render_win32.release:debugrenderprotocol.obj
 0001:00072b00       ??3IncrDebugShaderLayer@Debug@@SAXPAX@Z 00473b00 f i render_win32.release:debugrenderprotocol.obj
 0001:00072b20       ??0IncrDebugShaderLayer@Debug@@QAE@XZ 00473b20 f i render_win32.release:debugrenderprotocol.obj
 0001:00072b40       ??_GIncrDebugShaderLayer@Debug@@UAEPAXI@Z 00473b40 f i render_win32.release:debugrenderprotocol.obj
 0001:00072b40       ??_EIncrDebugShaderLayer@Debug@@UAEPAXI@Z 00473b40 f i  CIL library: CIL module
 0001:00072b70       ??1IncrDebugShaderLayer@Debug@@UAE@XZ 00473b70 f i render_win32.release:debugrenderprotocol.obj
 0001:00072b90       ??2SetFloatShaderVariable@Debug@@SAPAXI@Z 00473b90 f i render_win32.release:debugrenderprotocol.obj
 0001:00072ba0       ??3SetFloatShaderVariable@Debug@@SAXPAX@Z 00473ba0 f i render_win32.release:debugrenderprotocol.obj
 0001:00072bc0       ??0SetFloatShaderVariable@Debug@@QAE@XZ 00473bc0 f i render_win32.release:debugrenderprotocol.obj
 0001:00072c00       ??_ESetFloatShaderVariable@Debug@@UAEPAXI@Z 00473c00 f i  CIL library: CIL module
 0001:00072c00       ??_GSetFloatShaderVariable@Debug@@UAEPAXI@Z 00473c00 f i render_win32.release:debugrenderprotocol.obj
 0001:00072c30       ??1SetFloatShaderVariable@Debug@@UAE@XZ 00473c30 f i render_win32.release:debugrenderprotocol.obj
 0001:00072c50       ??2ControlPerfHUD@Debug@@SAPAXI@Z 00473c50 f i render_win32.release:debugrenderprotocol.obj
 0001:00072c60       ??3ControlPerfHUD@Debug@@SAXPAX@Z 00473c60 f i render_win32.release:debugrenderprotocol.obj
 0001:00072c80       ??0ControlPerfHUD@Debug@@QAE@XZ 00473c80 f i render_win32.release:debugrenderprotocol.obj
 0001:00072cb0       ??_GControlPerfHUD@Debug@@UAEPAXI@Z 00473cb0 f i render_win32.release:debugrenderprotocol.obj
 0001:00072cb0       ??_EControlPerfHUD@Debug@@UAEPAXI@Z 00473cb0 f i  CIL library: CIL module
 0001:00072ce0       ??1ControlPerfHUD@Debug@@UAE@XZ 00473ce0 f i render_win32.release:debugrenderprotocol.obj
 0001:00072d00       ?GetRtti@RenderDebugText@Debug@@UBEPAVRtti@Core@@XZ 00473d00 f   render_win32.release:debugrenderprotocol.obj
 0001:00072d10       ?FactoryCreator@RenderDebugText@Debug@@SAPAVRefCounted@Core@@XZ 00473d10 f   render_win32.release:debugrenderprotocol.obj
 0001:00072d20       ?Create@RenderDebugText@Debug@@SAPAV12@XZ 00473d20 f   render_win32.release:debugrenderprotocol.obj
 0001:00072d70       ?RegisterWithFactory@RenderDebugText@Debug@@SA_NXZ 00473d70 f   render_win32.release:debugrenderprotocol.obj
 0001:00072e70       ?GetId@RenderDebugText@Debug@@UBEABVId@Messaging@@XZ 00473e70 f   render_win32.release:debugrenderprotocol.obj
 0001:00072e80       ?GetRtti@RenderDebugShapes@Debug@@UBEPAVRtti@Core@@XZ 00473e80 f   render_win32.release:debugrenderprotocol.obj
 0001:00072e90       ?FactoryCreator@RenderDebugShapes@Debug@@SAPAVRefCounted@Core@@XZ 00473e90 f   render_win32.release:debugrenderprotocol.obj
 0001:00072ea0       ?Create@RenderDebugShapes@Debug@@SAPAV12@XZ 00473ea0 f   render_win32.release:debugrenderprotocol.obj
 0001:00072ef0       ?RegisterWithFactory@RenderDebugShapes@Debug@@SA_NXZ 00473ef0 f   render_win32.release:debugrenderprotocol.obj
 0001:00072ff0       ?GetId@RenderDebugShapes@Debug@@UBEABVId@Messaging@@XZ 00473ff0 f   render_win32.release:debugrenderprotocol.obj
 0001:00073000       ?GetRtti@RenderDebugView@Debug@@UBEPAVRtti@Core@@XZ 00474000 f   render_win32.release:debugrenderprotocol.obj
 0001:00073010       ?FactoryCreator@RenderDebugView@Debug@@SAPAVRefCounted@Core@@XZ 00474010 f   render_win32.release:debugrenderprotocol.obj
 0001:00073020       ?Create@RenderDebugView@Debug@@SAPAV12@XZ 00474020 f   render_win32.release:debugrenderprotocol.obj
 0001:00073060       ?RegisterWithFactory@RenderDebugView@Debug@@SA_NXZ 00474060 f   render_win32.release:debugrenderprotocol.obj
 0001:00073160       ?GetId@RenderDebugView@Debug@@UBEABVId@Messaging@@XZ 00474160 f   render_win32.release:debugrenderprotocol.obj
 0001:00073170       ?GetRtti@IncrDebugShaderLayer@Debug@@UBEPAVRtti@Core@@XZ 00474170 f   render_win32.release:debugrenderprotocol.obj
 0001:00073180       ?FactoryCreator@IncrDebugShaderLayer@Debug@@SAPAVRefCounted@Core@@XZ 00474180 f   render_win32.release:debugrenderprotocol.obj
 0001:00073190       ?Create@IncrDebugShaderLayer@Debug@@SAPAV12@XZ 00474190 f   render_win32.release:debugrenderprotocol.obj
 0001:000731d0       ?RegisterWithFactory@IncrDebugShaderLayer@Debug@@SA_NXZ 004741d0 f   render_win32.release:debugrenderprotocol.obj
 0001:000732d0       ?GetId@IncrDebugShaderLayer@Debug@@UBEABVId@Messaging@@XZ 004742d0 f   render_win32.release:debugrenderprotocol.obj
 0001:000732e0       ?GetRtti@SetFloatShaderVariable@Debug@@UBEPAVRtti@Core@@XZ 004742e0 f   render_win32.release:debugrenderprotocol.obj
 0001:000732f0       ?FactoryCreator@SetFloatShaderVariable@Debug@@SAPAVRefCounted@Core@@XZ 004742f0 f   render_win32.release:debugrenderprotocol.obj
 0001:00073300       ?Create@SetFloatShaderVariable@Debug@@SAPAV12@XZ 00474300 f   render_win32.release:debugrenderprotocol.obj
 0001:00073360       ?RegisterWithFactory@SetFloatShaderVariable@Debug@@SA_NXZ 00474360 f   render_win32.release:debugrenderprotocol.obj
 0001:00073460       ?GetId@SetFloatShaderVariable@Debug@@UBEABVId@Messaging@@XZ 00474460 f   render_win32.release:debugrenderprotocol.obj
 0001:00073470       ?GetRtti@ControlPerfHUD@Debug@@UBEPAVRtti@Core@@XZ 00474470 f   render_win32.release:debugrenderprotocol.obj
 0001:00073480       ?FactoryCreator@ControlPerfHUD@Debug@@SAPAVRefCounted@Core@@XZ 00474480 f   render_win32.release:debugrenderprotocol.obj
 0001:00073490       ?Create@ControlPerfHUD@Debug@@SAPAV12@XZ 00474490 f   render_win32.release:debugrenderprotocol.obj
 0001:000734e0       ?RegisterWithFactory@ControlPerfHUD@Debug@@SA_NXZ 004744e0 f   render_win32.release:debugrenderprotocol.obj
 0001:000735e0       ?GetId@ControlPerfHUD@Debug@@UBEABVId@Messaging@@XZ 004745e0 f   render_win32.release:debugrenderprotocol.obj
 0001:000735f0       ??0?$Array@VRenderShape@CoreGraphics@@@Util@@QAE@XZ 004745f0 f i render_win32.release:debugrenderprotocol.obj
 0001:00073630       ??1?$Array@VRenderShape@CoreGraphics@@@Util@@QAE@XZ 00474630 f i render_win32.release:debugrenderprotocol.obj
 0001:00073650       ?Delete@?$Array@VRenderShape@CoreGraphics@@@Util@@AAEXXZ 00474650 f i render_win32.release:debugrenderprotocol.obj
 0001:000736c0       ??2D3D9StreamMeshLoader@Win360@@SAPAXI@Z 004746c0 f i render_win32.release:d3d9streammeshloader.obj
 0001:000736d0       ??3D3D9StreamMeshLoader@Win360@@SAXPAX@Z 004746d0 f i render_win32.release:d3d9streammeshloader.obj
 0001:000736f0       ??0PrimitiveGroup@CoreGraphics@@QAE@XZ 004746f0 f i render_win32.release:d3d9streammeshloader.obj
 0001:00073740       ?SetVertexBuffer@MeshBase@Base@@QAEXABV?$Ptr@VVertexBuffer@CoreGraphics@@@@@Z 00474740 f i render_win32.release:d3d9streammeshloader.obj
 0001:00073760       ?SetIndexBuffer@MeshBase@Base@@QAEXABV?$Ptr@VIndexBuffer@CoreGraphics@@@@@Z 00474760 f i render_win32.release:d3d9streammeshloader.obj
 0001:00073780       ?SetPrimitiveGroups@MeshBase@Base@@QAEXABV?$Array@VPrimitiveGroup@CoreGraphics@@@Util@@@Z 00474780 f i render_win32.release:d3d9streammeshloader.obj
 0001:000737a0       ?GetVertexBuffer@Nvx2StreamReader@Legacy@@QBEABV?$Ptr@VVertexBufferBase@Base@@@@XZ 004747a0 f i render_win32.release:d3d9streammeshloader.obj
 0001:000737f0       ?GetIndexBuffer@Nvx2StreamReader@Legacy@@QBEABV?$Ptr@VIndexBufferBase@Base@@@@XZ 004747f0 f i render_win32.release:d3d9streammeshloader.obj
 0001:00073840       ?GetPrimitiveGroups@Nvx2StreamReader@Legacy@@QBEABV?$Array@VPrimitiveGroup@CoreGraphics@@@Util@@XZ 00474840 f i render_win32.release:d3d9streammeshloader.obj
 0001:00073860       ?SetUsage@Nvx2StreamReader@Legacy@@QAEXW4Usage@ResourceBase@Base@@@Z 00474860 f i render_win32.release:d3d9streammeshloader.obj
 0001:00073880       ?SetAccess@Nvx2StreamReader@Legacy@@QAEXW4Access@ResourceBase@Base@@@Z 00474880 f i render_win32.release:d3d9streammeshloader.obj
 0001:000738a0       ?GetRtti@D3D9StreamMeshLoader@Win360@@UBEPAVRtti@Core@@XZ 004748a0 f   render_win32.release:d3d9streammeshloader.obj
 0001:000738b0       ?FactoryCreator@D3D9StreamMeshLoader@Win360@@SAPAVRefCounted@Core@@XZ 004748b0 f   render_win32.release:d3d9streammeshloader.obj
 0001:000738c0       ?Create@D3D9StreamMeshLoader@Win360@@SAPAV12@XZ 004748c0 f   render_win32.release:d3d9streammeshloader.obj
 0001:00073900       ?RegisterWithFactory@D3D9StreamMeshLoader@Win360@@SA_NXZ 00474900 f   render_win32.release:d3d9streammeshloader.obj
 0001:00073a00       ??0D3D9StreamMeshLoader@Win360@@QAE@XZ 00474a00 f   render_win32.release:d3d9streammeshloader.obj
 0001:00073a40       ??_GD3D9StreamMeshLoader@Win360@@UAEPAXI@Z 00474a40 f i render_win32.release:d3d9streammeshloader.obj
 0001:00073a40       ??_ED3D9StreamMeshLoader@Win360@@UAEPAXI@Z 00474a40 f i  CIL library: CIL module
 0001:00073a70       ?SetupResourceFromStream@D3D9StreamMeshLoader@Win360@@EAE_NABV?$Ptr@VStream@IO@@@@@Z 00474a70 f   render_win32.release:d3d9streammeshloader.obj
 0001:00073c30       ?SetupMeshFromNvx2@D3D9StreamMeshLoader@Win360@@AAE_NABV?$Ptr@VStream@IO@@@@@Z 00474c30 f   render_win32.release:d3d9streammeshloader.obj
 0001:00073df0       ?SetupMeshFromNvx3@D3D9StreamMeshLoader@Win360@@AAE_NABV?$Ptr@VStream@IO@@@@@Z 00474df0 f   render_win32.release:d3d9streammeshloader.obj
 0001:00073e10       ?SetupMeshFromN3d3@D3D9StreamMeshLoader@Win360@@AAE_NABV?$Ptr@VStream@IO@@@@@Z 00474e10 f   render_win32.release:d3d9streammeshloader.obj
 0001:00073e30       ??4?$Ptr@VVertexBuffer@CoreGraphics@@@@QAEXABV0@@Z 00474e30 f i render_win32.release:d3d9streammeshloader.obj
 0001:00073e90       ??4?$Ptr@VIndexBuffer@CoreGraphics@@@@QAEXABV0@@Z 00474e90 f i render_win32.release:d3d9streammeshloader.obj
 0001:00073ef0       ??4?$Array@VPrimitiveGroup@CoreGraphics@@@Util@@QAEXABV01@@Z 00474ef0 f i render_win32.release:d3d9streammeshloader.obj
 0001:00073fe0       ?isvalid@?$Ptr@VVertexBufferBase@Base@@@@QBE_NXZ 00474fe0 f i render_win32.release:d3d9streammeshloader.obj
 0001:00074000       ?isvalid@?$Ptr@VIndexBufferBase@Base@@@@QBE_NXZ 00475000 f i render_win32.release:d3d9streammeshloader.obj
 0001:00074020       ??0?$Ptr@VNvx2StreamReader@Legacy@@@@QAE@PAVNvx2StreamReader@Legacy@@@Z 00475020 f i render_win32.release:d3d9streammeshloader.obj
 0001:00074060       ??1?$Ptr@VNvx2StreamReader@Legacy@@@@QAE@XZ 00475060 f i render_win32.release:d3d9streammeshloader.obj
 0001:00074090       ??C?$Ptr@VNvx2StreamReader@Legacy@@@@QBEPAVNvx2StreamReader@Legacy@@XZ 00475090 f i render_win32.release:d3d9streammeshloader.obj
 0001:000740d0       ??$downcast@VMesh@CoreGraphics@@@?$Ptr@VResource@Resources@@@@QBEABV?$Ptr@VMesh@CoreGraphics@@@@XZ 004750d0 f i render_win32.release:d3d9streammeshloader.obj
 0001:000740e0       ??C?$Ptr@VMesh@CoreGraphics@@@@QBEPAVMesh@CoreGraphics@@XZ 004750e0 f i render_win32.release:d3d9streammeshloader.obj
 0001:00074120       ??$downcast@VVertexBuffer@CoreGraphics@@@?$Ptr@VVertexBufferBase@Base@@@@QBEABV?$Ptr@VVertexBuffer@CoreGraphics@@@@XZ 00475120 f i render_win32.release:d3d9streammeshloader.obj
 0001:00074130       ??$downcast@VIndexBuffer@CoreGraphics@@@?$Ptr@VIndexBufferBase@Base@@@@QBEABV?$Ptr@VIndexBuffer@CoreGraphics@@@@XZ 00475130 f i render_win32.release:d3d9streammeshloader.obj
 0001:00074140       ?Destroy@?$Array@VPrimitiveGroup@CoreGraphics@@@Util@@AAEXPAVPrimitiveGroup@CoreGraphics@@@Z 00475140 f i render_win32.release:d3d9streammeshloader.obj
 0001:00074150       ?Copy@?$Array@VPrimitiveGroup@CoreGraphics@@@Util@@AAEXABV12@@Z 00475150 f i render_win32.release:d3d9streammeshloader.obj
 0001:00074290       ?IsAsyncEnabled@Resource@Resources@@QBE_NXZ 00475290 f i render_win32.release:streamresourceloader.obj
 0001:000742b0       ?SetURI@IOMessage@IO@@QAEXABVURI@2@@Z 004752b0 f i render_win32.release:streamresourceloader.obj
 0001:000742f0       ?GetResult@IOMessage@IO@@QBE_NXZ 004752f0 f i render_win32.release:streamresourceloader.obj
 0001:00074310       ?SetStream@ReadStream@IO@@QAEXABV?$Ptr@VStream@IO@@@@@Z 00475310 f i render_win32.release:streamresourceloader.obj
 0001:00074350       ?GetStream@ReadStream@IO@@QBEABV?$Ptr@VStream@IO@@@@XZ 00475350 f i render_win32.release:streamresourceloader.obj
 0001:00074370       ??2StreamResourceLoader@Resources@@SAPAXI@Z 00475370 f i render_win32.release:streamresourceloader.obj
 0001:00074380       ??3StreamResourceLoader@Resources@@SAXPAX@Z 00475380 f i render_win32.release:streamresourceloader.obj
 0001:000743a0       ?Instance@IoInterface@IO@@SAPAV12@XZ 004753a0 f i render_win32.release:streamresourceloader.obj
 0001:000743d0       ?GetRtti@StreamResourceLoader@Resources@@UBEPAVRtti@Core@@XZ 004753d0 f   render_win32.release:streamresourceloader.obj
 0001:000743e0       ?FactoryCreator@StreamResourceLoader@Resources@@SAPAVRefCounted@Core@@XZ 004753e0 f   render_win32.release:streamresourceloader.obj
 0001:000743f0       ?Create@StreamResourceLoader@Resources@@SAPAV12@XZ 004753f0 f   render_win32.release:streamresourceloader.obj
 0001:00074430       ?RegisterWithFactory@StreamResourceLoader@Resources@@SA_NXZ 00475430 f   render_win32.release:streamresourceloader.obj
 0001:00074530       ??0StreamResourceLoader@Resources@@QAE@XZ 00475530 f   render_win32.release:streamresourceloader.obj
 0001:00074560       ??_GStreamResourceLoader@Resources@@UAEPAXI@Z 00475560 f i render_win32.release:streamresourceloader.obj
 0001:00074560       ??_EStreamResourceLoader@Resources@@UAEPAXI@Z 00475560 f i  CIL library: CIL module
 0001:00074590       ??1StreamResourceLoader@Resources@@UAE@XZ 00475590 f   render_win32.release:streamresourceloader.obj
 0001:000745c0       ?CanLoadAsync@StreamResourceLoader@Resources@@UBE_NXZ 004755c0 f   render_win32.release:streamresourceloader.obj
 0001:000745d0       ?OnLoadRequested@StreamResourceLoader@Resources@@UAE_NXZ 004755d0 f   render_win32.release:streamresourceloader.obj
 0001:00074900       ?OnLoadCancelled@StreamResourceLoader@Resources@@UAEXXZ 00475900 f   render_win32.release:streamresourceloader.obj
 0001:000749b0       ?OnPending@StreamResourceLoader@Resources@@UAE_NXZ 004759b0 f   render_win32.release:streamresourceloader.obj
 0001:00074ac0       ?SetupResourceFromStream@StreamResourceLoader@Resources@@MAE_NABV?$Ptr@VStream@IO@@@@@Z 00475ac0 f   render_win32.release:streamresourceloader.obj
 0001:00074ae0       ??0?$Ptr@VReadStream@IO@@@@QAE@XZ 00475ae0 f i render_win32.release:streamresourceloader.obj
 0001:00074b00       ??1?$Ptr@VReadStream@IO@@@@QAE@XZ 00475b00 f i render_win32.release:streamresourceloader.obj
 0001:00074b30       ??4?$Ptr@VReadStream@IO@@@@QAEXPAVReadStream@IO@@@Z 00475b30 f i render_win32.release:streamresourceloader.obj
 0001:00074b90       ??C?$Ptr@VReadStream@IO@@@@QBEPAVReadStream@IO@@XZ 00475b90 f i render_win32.release:streamresourceloader.obj
 0001:00074bd0       ?isvalid@?$Ptr@VReadStream@IO@@@@QBE_NXZ 00475bd0 f i render_win32.release:streamresourceloader.obj
 0001:00074bf0       ??$upcast@VMessage@Messaging@@@?$Ptr@VReadStream@IO@@@@QBEABV?$Ptr@VMessage@Messaging@@@@XZ 00475bf0 f i render_win32.release:streamresourceloader.obj
 0001:00074c00       ??$Cancel@VMessage@Messaging@@@AsyncPort@Messaging@@QAEXABV?$Ptr@VMessage@Messaging@@@@@Z 00475c00 f i render_win32.release:streamresourceloader.obj
 0001:00074c20       ?Unlock@Resource@Resources@@QAEXXZ 00475c20 f i render_win32.release:d3d9texturestreamer.obj
 0001:00074c40       ?GetPixelFormat@TextureBase@Base@@QBE?AW4Code@PixelFormat@CoreGraphics@@XZ 00475c40 f i render_win32.release:d3d9texturestreamer.obj
 0001:00074c60       ??2D3D9TextureStreamer@Resources@@SAPAXI@Z 00475c60 f i render_win32.release:d3d9texturestreamer.obj
 0001:00074c70       ??3D3D9TextureStreamer@Resources@@SAXPAX@Z 00475c70 f i render_win32.release:d3d9texturestreamer.obj
 0001:00074c90       ?GetRtti@D3D9TextureStreamer@Resources@@UBEPAVRtti@Core@@XZ 00475c90 f   render_win32.release:d3d9texturestreamer.obj
 0001:00074ca0       ?FactoryCreator@D3D9TextureStreamer@Resources@@SAPAVRefCounted@Core@@XZ 00475ca0 f   render_win32.release:d3d9texturestreamer.obj
 0001:00074cb0       ?Create@D3D9TextureStreamer@Resources@@SAPAV12@XZ 00475cb0 f   render_win32.release:d3d9texturestreamer.obj
 0001:00074cf0       ?RegisterWithFactory@D3D9TextureStreamer@Resources@@SA_NXZ 00475cf0 f   render_win32.release:d3d9texturestreamer.obj
 0001:00074df0       ??0D3D9TextureStreamer@Resources@@QAE@XZ 00475df0 f   render_win32.release:d3d9texturestreamer.obj
 0001:00074e20       ??_GD3D9TextureStreamer@Resources@@UAEPAXI@Z 00475e20 f i render_win32.release:d3d9texturestreamer.obj
 0001:00074e20       ??_ED3D9TextureStreamer@Resources@@UAEPAXI@Z 00475e20 f i  CIL library: CIL module
 0001:00074e50       ??1D3D9TextureStreamer@Resources@@UAE@XZ 00475e50 f   render_win32.release:d3d9texturestreamer.obj
 0001:00074e80       ?SetupTexture2DFromStream@D3D9TextureStreamer@Resources@@MAE_NABV?$Ptr@VStream@IO@@@@@Z 00475e80 f   render_win32.release:d3d9texturestreamer.obj
 0001:00075350       ?SetupTextureCubeFromStream@D3D9TextureStreamer@Resources@@MAE_NABV?$Ptr@VStream@IO@@@@@Z 00476350 f   render_win32.release:d3d9texturestreamer.obj
 0001:00075830       ?SetupResourceFromStream@D3D9TextureStreamer@Resources@@UAE_NABV?$Ptr@VStream@IO@@@@@Z 00476830 f   render_win32.release:d3d9texturestreamer.obj
 0001:00075910       ?ReuseMips@D3D9TextureStreamer@Resources@@MAE_NXZ 00476910 f   render_win32.release:d3d9texturestreamer.obj
 0001:00075c30       ?LockSurfaces@D3D9TextureStreamer@Resources@@MAEXAAV?$Array@U_D3DLOCKED_RECT@@@Util@@ABV?$Ptr@VTexture@CoreGraphics@@@@H@Z 00476c30 f   render_win32.release:d3d9texturestreamer.obj
 0001:00075e10       ?UnlockSurfaces@D3D9TextureStreamer@Resources@@MAEXABV?$Ptr@VTexture@CoreGraphics@@@@@Z 00476e10 f   render_win32.release:d3d9texturestreamer.obj
 0001:00075fd0       ?BitsPerPixel@D3D9TextureStreamer@Resources@@IBEIW4_D3DFORMAT@@@Z 00476fd0 f   render_win32.release:d3d9texturestreamer.obj
 0001:00076150       ?GetSurfaceInfo@D3D9TextureStreamer@Resources@@IBEXIIW4_D3DFORMAT@@PAI11@Z 00477150 f   render_win32.release:d3d9texturestreamer.obj
 0001:00076290       ?GetNumRows@D3D9TextureStreamer@Resources@@IBEIIW4_D3DFORMAT@@@Z 00477290 f   render_win32.release:d3d9texturestreamer.obj
 0001:00076300       ?Reset@D3D9TextureStreamer@Resources@@UAEXXZ 00477300 f   render_win32.release:d3d9texturestreamer.obj
 0001:00076370       ?OnLoadRequested@D3D9TextureStreamer@Resources@@UAE_NXZ 00477370 f   render_win32.release:d3d9texturestreamer.obj
 0001:00076410       ??0?$Ptr@VTexture@CoreGraphics@@@@QAE@XZ 00477410 f i render_win32.release:d3d9texturestreamer.obj
 0001:00076430       ??4?$Ptr@VTexture@CoreGraphics@@@@QAEXPAVTexture@CoreGraphics@@@Z 00477430 f i render_win32.release:d3d9texturestreamer.obj
 0001:00076490       ??0?$Array@U_D3DLOCKED_RECT@@@Util@@QAE@HHABU_D3DLOCKED_RECT@@@Z 00477490 f i render_win32.release:d3d9texturestreamer.obj
 0001:00076550       ??1?$Array@U_D3DLOCKED_RECT@@@Util@@QAE@XZ 00477550 f i render_win32.release:d3d9texturestreamer.obj
 0001:00076570       ??A?$Array@U_D3DLOCKED_RECT@@@Util@@QBEAAU_D3DLOCKED_RECT@@H@Z 00477570 f i render_win32.release:d3d9texturestreamer.obj
 0001:000765c0       ?Delete@?$Array@U_D3DLOCKED_RECT@@@Util@@AAEXXZ 004775c0 f i render_win32.release:d3d9texturestreamer.obj
 0001:00076620       ??2D3D9TextureCreator@Resources@@SAPAXI@Z 00477620 f i render_win32.release:d3d9texturecreator.obj
 0001:00076630       ??3D3D9TextureCreator@Resources@@SAXPAX@Z 00477630 f i render_win32.release:d3d9texturecreator.obj
 0001:00076650       ?Instance@D3D9RenderDevice@Direct3D9@@SAPAV12@XZ 00477650 f i render_win32.release:d3d9texturecreator.obj
 0001:00076690       ?GetRtti@D3D9TextureCreator@Resources@@UBEPAVRtti@Core@@XZ 00477690 f   render_win32.release:d3d9texturecreator.obj
 0001:000766a0       ?FactoryCreator@D3D9TextureCreator@Resources@@SAPAVRefCounted@Core@@XZ 004776a0 f   render_win32.release:d3d9texturecreator.obj
 0001:000766b0       ?Create@D3D9TextureCreator@Resources@@SAPAV12@XZ 004776b0 f   render_win32.release:d3d9texturecreator.obj
 0001:000766f0       ?RegisterWithFactory@D3D9TextureCreator@Resources@@SA_NXZ 004776f0 f   render_win32.release:d3d9texturecreator.obj
 0001:000767f0       ??0D3D9TextureCreator@Resources@@QAE@XZ 004777f0 f   render_win32.release:d3d9texturecreator.obj
 0001:00076810       ??_GD3D9TextureCreator@Resources@@UAEPAXI@Z 00477810 f i render_win32.release:d3d9texturecreator.obj
 0001:00076810       ??_ED3D9TextureCreator@Resources@@UAEPAXI@Z 00477810 f i  CIL library: CIL module
 0001:00076840       ??1D3D9TextureCreator@Resources@@UAE@XZ 00477840 f   render_win32.release:d3d9texturecreator.obj
