 zipstresstest_win32

 Timestamp is 68d87554 (Sun Sep 28 02:37:56 2025)

 Preferred load address is 00400000

 Start         Length     Name                   Class
 0001:00000000 0003b37aH .text                   CODE
 0001:0003b380 00000a1fH .text$yc                CODE
 0001:0003bda0 00000b63H .text$yd                CODE
 0002:00000000 00000260H .idata$5                DATA
 0002:00000260 00000004H .CRT$XCA                DATA
 0002:00000264 00000004H .CRT$XCAA               DATA
 0002:00000268 000000a0H .CRT$XCU                DATA
 0002:00000308 00000004H .CRT$XCZ                DATA
 0002:0000030c 00000004H .CRT$XIA                DATA
 0002:00000310 00000004H .CRT$XIAA               DATA
 0002:00000314 00000004H .CRT$XIC                DATA
 0002:00000318 00000004H .CRT$XIY                DATA
 0002:0000031c 00000004H .CRT$XIZ                DATA
 0002:00000320 00000004H .CRT$XLA                DATA
 0002:00000324 00000004H .CRT$XLZ                DATA
 0002:00000330 00007ba0H .rdata                  DATA
 0002:00007ed0 00000018H .rdata$T                DATA
 0002:00007ee8 00000045H .rdata$debug            DATA
 0002:00007f30 00000008H .rdata$sxdata           DATA
 0002:00007f38 00000004H .rtc$IAA                DATA
 0002:00007f3c 00000004H .rtc$IZZ                DATA
 0002:00007f40 00000004H .rtc$TAA                DATA
 0002:00007f44 00000004H .rtc$TZZ                DATA
 0002:00007f48 0000008cH .xdata$x                DATA
 0002:00007fd4 00000078H .idata$2                DATA
 0002:0000804c 00000014H .idata$3                DATA
 0002:00008060 00000260H .idata$4                DATA
 0002:000082c0 00000842H .idata$6                DATA
 0002:00008b02 00000000H .edata                  DATA
 0003:00000000 00000060H .data                   DATA
 0003:00000060 00000f70H .bss                    DATA
 0004:00000000 00000001H .tls                    DATA
 0004:00000004 00000018H .stls                   DATA
 0004:0000001c 00000001H .tls$ZZZ                DATA

  Address         Publics by Value              Rva+Base       Lib:Object

 0000:00000000       __except_list              00000000     <absolute>
 0000:00000002       ___safe_se_handler_count   00000002     <absolute>
 0000:0000002c       __tls_array                0000002c     <absolute>
 0000:00009876       __fltused                  00009876     <absolute>
 0000:00009876       __ldused                   00009876     <absolute>
 0000:00000000       ___ImageBase               00400000     <linker-defined>
 0001:00000000       _IXACT3SoundBank_Destroy@4 00401000 f i stdneb.obj
 0001:00000020       _IXACT3SoundBank_GetCueIndex@8 00401020 f i stdneb.obj
 0001:00000040       _IXACT3SoundBank_GetNumCues@8 00401040 f i stdneb.obj
 0001:00000060       _IXACT3SoundBank_GetCueProperties@12 00401060 f i stdneb.obj
 0001:00000080       _IXACT3SoundBank_Prepare@20 00401080 f i stdneb.obj
 0001:000000b0       _IXACT3SoundBank_Play@20   004010b0 f i stdneb.obj
 0001:000000e0       _IXACT3SoundBank_Stop@12   004010e0 f i stdneb.obj
 0001:00000100       _IXACT3SoundBank_GetState@8 00401100 f i stdneb.obj
 0001:00000120       _IXACT3WaveBank_Destroy@4  00401120 f i stdneb.obj
 0001:00000140       _IXACT3WaveBank_GetNumWaves@8 00401140 f i stdneb.obj
 0001:00000160       _IXACT3WaveBank_GetWaveIndex@8 00401160 f i stdneb.obj
 0001:00000180       _IXACT3WaveBank_GetWaveProperties@12 00401180 f i stdneb.obj
 0001:000001a0       _IXACT3WaveBank_Prepare@24 004011a0 f i stdneb.obj
 0001:000001d0       _IXACT3WaveBank_Play@24    004011d0 f i stdneb.obj
 0001:00000200       _IXACT3WaveBank_Stop@12    00401200 f i stdneb.obj
 0001:00000220       _IXACT3WaveBank_GetState@8 00401220 f i stdneb.obj
 0001:00000240       _IXACT3Wave_Destroy@4      00401240 f i stdneb.obj
 0001:00000260       _IXACT3Wave_Play@4         00401260 f i stdneb.obj
 0001:00000280       _IXACT3Wave_Stop@8         00401280 f i stdneb.obj
 0001:000002a0       _IXACT3Wave_Pause@8        004012a0 f i stdneb.obj
 0001:000002c0       _IXACT3Wave_GetState@8     004012c0 f i stdneb.obj
 0001:000002e0       _IXACT3Wave_SetPitch@8     004012e0 f i stdneb.obj
 0001:00000300       _IXACT3Wave_SetVolume@8    00401300 f i stdneb.obj
 0001:00000320       _IXACT3Wave_SetMatrixCoefficients@16 00401320 f i stdneb.obj
 0001:00000350       _IXACT3Wave_GetProperties@8 00401350 f i stdneb.obj
 0001:00000370       _IXACT3Cue_Play@4          00401370 f i stdneb.obj
 0001:00000390       _IXACT3Cue_Stop@8          00401390 f i stdneb.obj
 0001:000003b0       _IXACT3Cue_GetState@8      004013b0 f i stdneb.obj
 0001:000003d0       _IXACT3Cue_Destroy@4       004013d0 f i stdneb.obj
 0001:000003f0       _IXACT3Cue_SetMatrixCoefficients@16 004013f0 f i stdneb.obj
 0001:00000420       _IXACT3Cue_GetVariableIndex@8 00401420 f i stdneb.obj
 0001:00000440       _IXACT3Cue_SetVariable@12  00401440 f i stdneb.obj
 0001:00000470       _IXACT3Cue_GetVariable@12  00401470 f i stdneb.obj
 0001:00000490       _IXACT3Cue_Pause@8         00401490 f i stdneb.obj
 0001:000004b0       _IXACT3Cue_GetProperties@8 004014b0 f i stdneb.obj
 0001:000004d0       _IXACT3Cue_SetOutputVoices@8 004014d0 f i stdneb.obj
 0001:000004f0       _IXACT3Cue_SetOutputVoiceMatrix@20 004014f0 f i stdneb.obj
 0001:00000520       _IXACT3Engine_AddRef@4     00401520 f i stdneb.obj
 0001:00000540       _IXACT3Engine_Release@4    00401540 f i stdneb.obj
 0001:00000560       _IXACT3Engine_GetRendererCount@8 00401560 f i stdneb.obj
 0001:00000580       _IXACT3Engine_GetRendererDetails@12 00401580 f i stdneb.obj
 0001:000005a0       _IXACT3Engine_GetFinalMixFormat@8 004015a0 f i stdneb.obj
 0001:000005c0       _IXACT3Engine_Initialize@8 004015c0 f i stdneb.obj
 0001:000005e0       _IXACT3Engine_ShutDown@4   004015e0 f i stdneb.obj
 0001:00000600       _IXACT3Engine_DoWork@4     00401600 f i stdneb.obj
 0001:00000620       _IXACT3Engine_CreateSoundBank@24 00401620 f i stdneb.obj
 0001:00000650       _IXACT3Engine_CreateInMemoryWaveBank@24 00401650 f i stdneb.obj
 0001:00000680       _IXACT3Engine_CreateStreamingWaveBank@12 00401680 f i stdneb.obj
 0001:000006a0       _IXACT3Engine_PrepareWave@32 004016a0 f i stdneb.obj
 0001:000006e0       _IXACT3Engine_PrepareInMemoryWave@52 004016e0 f i stdneb.obj
 0001:00000740       _IXACT3Engine_PrepareStreamingWave@68 00401740 f i stdneb.obj
 0001:000007c0       _IXACT3Engine_RegisterNotification@8 004017c0 f i stdneb.obj
 0001:000007e0       _IXACT3Engine_UnRegisterNotification@8 004017e0 f i stdneb.obj
 0001:00000800       _IXACT3Engine_GetCategory@8 00401800 f i stdneb.obj
 0001:00000820       _IXACT3Engine_Stop@12      00401820 f i stdneb.obj
 0001:00000840       _IXACT3Engine_SetVolume@12 00401840 f i stdneb.obj
 0001:00000870       _IXACT3Engine_Pause@12     00401870 f i stdneb.obj
 0001:00000890       _IXACT3Engine_GetGlobalVariableIndex@8 00401890 f i stdneb.obj
 0001:000008b0       _IXACT3Engine_SetGlobalVariable@12 004018b0 f i stdneb.obj
 0001:000008e0       _IXACT3Engine_GetGlobalVariable@12 004018e0 f i stdneb.obj
 0001:00000900       ?Decrement@Win360Interlocked@Win360@@SAHACH@Z 00401900 f i zipstresstest.obj
 0001:00000920       ??2@YAPAXI@Z               00401920 f i zipstresstest.obj
 0001:00000940       ??3@YAXPAX@Z               00401940 f i zipstresstest.obj
 0001:00000960       ??_V@YAXPAX@Z              00401960 f i zipstresstest.obj
 0001:00000980       ??3String@Util@@SAXPAX@Z   00401980 f i zipstresstest.obj
 0001:000009a0       ?Delete@String@Util@@AAEXXZ 004019a0 f i zipstresstest.obj
 0001:000009f0       ??1String@Util@@QAE@XZ     004019f0 f i zipstresstest.obj
 0001:00000a40       ??0String@Util@@QAE@PBD@Z  00401a40 f i zipstresstest.obj
 0001:00000a80       ?AsCharPtr@String@Util@@QBEPBDXZ 00401a80 f i zipstresstest.obj
 0001:00000ab0       ??4String@Util@@QAEXABV01@@Z 00401ab0 f i zipstresstest.obj
 0001:00000af0       ?SetCompanyName@Application@App@@QAEXABVString@Util@@@Z 00401af0 f i zipstresstest.obj
 0001:00000b40       ?SetAppID@Application@App@@QAEXABVString@Util@@@Z 00401b40 f i zipstresstest.obj
 0001:00000b90       ?Release@RefCounted@Core@@QAEXXZ 00401b90 f i zipstresstest.obj
 0001:00000be0       _main                      00401be0 f   zipstresstest.obj
 0001:00000dd0       ??0ZipStressTestApplication@App@@QAE@XZ 00401dd0 f i zipstresstest.obj
 0001:00000df0       ??1ZipStressTestApplication@App@@UAE@XZ 00401df0 f i zipstresstest.obj
 0001:00000e10       ??_EZipStressTestApplication@App@@UAEPAXI@Z 00401e10 f i  CIL library: CIL module
 0001:00000e10       ??_GZipStressTestApplication@App@@UAEPAXI@Z 00401e10 f i zipstresstest.obj
 0001:00000e40       ??_EString@Util@@QAEPAXI@Z 00401e40 f i zipstresstest.obj
 0001:00000f50       ??_H@YGXPAXIHP6EPAX0@Z@Z   00401f50 f i zipstresstest.obj
 0001:00000f80       ??_I@YGXPAXIHP6EX0@Z@Z     00401f80 f i zipstresstest.obj
 0001:00000fb0       ??_E?$Ptr@VConsoleHandler@IO@@@@QAEPAXI@Z 00401fb0 f i zipstresstest.obj
 0001:00001050       ??1?$Ptr@VConsoleHandler@IO@@@@QAE@XZ 00402050 f i zipstresstest.obj
 0001:00001080       ?Increment@Win360Interlocked@Win360@@SAHACH@Z 00402080 f i zipstresstestapplication.obj
 0001:000010a0       ??_U@YAPAXI@Z              004020a0 f i zipstresstestapplication.obj
 0001:000010c0       ??0String@Util@@QAE@XZ     004020c0 f i zipstresstestapplication.obj
 0001:00001100       ??0String@Util@@QAE@ABV01@@Z 00402100 f i zipstresstestapplication.obj
 0001:00001160       ?Append@String@Util@@QAEXABV12@@Z 00402160 f i zipstresstestapplication.obj
 0001:000011a0       ?IsValid@String@Util@@QBE_NXZ 004021a0 f i zipstresstestapplication.obj
 0001:00001260       ??0FourCC@Util@@QAE@I@Z    00402260 f i zipstresstestapplication.obj
 0001:00001280       ?AddRef@RefCounted@Core@@QAEXXZ 00402280 f i zipstresstestapplication.obj
 0001:000012a0       ??0URI@IO@@QAE@ABVString@Util@@@Z 004022a0 f i zipstresstestapplication.obj
 0001:00001450       ?AsString@URI@IO@@QBE?AVString@Util@@XZ 00402450 f i zipstresstestapplication.obj
 0001:00001470       ?Instance@IoServer@IO@@SAPAV12@XZ 00402470 f i zipstresstestapplication.obj
 0001:000014b0       ?SetName@Win360Thread@Win360@@QAEXABVString@Util@@@Z 004024b0 f i zipstresstestapplication.obj
 0001:00001530       ??3Thread@Threading@@SAXPAX@Z 00402530 f i zipstresstestapplication.obj
 0001:00001550       ??2ReaderThread@App@@SAPAXI@Z 00402550 f i zipstresstestapplication.obj
 0001:00001560       ??3ReaderThread@App@@SAXPAX@Z 00402560 f i zipstresstestapplication.obj
 0001:00001580       ??0ReaderThread@App@@QAE@XZ 00402580 f i zipstresstestapplication.obj
 0001:00001610       ?Setup@ReaderThread@App@@QAEXHABVString@Util@@0@Z 00402610 f i zipstresstestapplication.obj
 0001:000016a0       ??_EReaderThread@App@@UAEPAXI@Z 004026a0 f i  CIL library: CIL module
 0001:000016a0       ??_GReaderThread@App@@UAEPAXI@Z 004026a0 f i zipstresstestapplication.obj
 0001:000016d0       ??0Thread@Threading@@QAE@XZ 004026d0 f i zipstresstestapplication.obj
 0001:000016f0       ??1Thread@Threading@@UAE@XZ 004026f0 f i zipstresstestapplication.obj
 0001:00001710       ??1ReaderThread@App@@UAE@XZ 00402710 f i zipstresstestapplication.obj
 0001:000017b0       ??_GThread@Threading@@UAEPAXI@Z 004027b0 f i zipstresstestapplication.obj
 0001:000017b0       ??_EThread@Threading@@UAEPAXI@Z 004027b0 f i  CIL library: CIL module
 0001:000017e0       ??1Rtti@Core@@QAE@XZ       004027e0 f i zipstresstestapplication.obj
 0001:00001830       ?GetRtti@ReaderThread@App@@UBEPAVRtti@Core@@XZ 00402830 f   zipstresstestapplication.obj
 0001:00001840       ?FactoryCreator@ReaderThread@App@@SAPAVRefCounted@Core@@XZ 00402840 f   zipstresstestapplication.obj
 0001:00001850       ?Create@ReaderThread@App@@SAPAV12@XZ 00402850 f   zipstresstestapplication.obj
 0001:00001890       ?RegisterWithFactory@ReaderThread@App@@SA_NXZ 00402890 f   zipstresstestapplication.obj
 0001:00001990       ?DoWork@ReaderThread@App@@MAEXXZ 00402990 f   zipstresstestapplication.obj
 0001:00001d10       ??1URI@IO@@QAE@XZ          00402d10 f i zipstresstestapplication.obj
 0001:00001f10       ?Run@ZipStressTestApplication@App@@UAEXXZ 00402f10 f   zipstresstestapplication.obj
 0001:000026a0       ??1?$Array@VString@Util@@@Util@@QAE@XZ 004036a0 f i zipstresstestapplication.obj
 0001:000026c0       ??A?$Array@VString@Util@@@Util@@QBEAAVString@1@H@Z 004036c0 f i zipstresstestapplication.obj
 0001:00002710       ?Size@?$Array@VString@Util@@@Util@@QBEHXZ 00403710 f i zipstresstestapplication.obj
 0001:00002730       ??0?$Ptr@VIoServer@IO@@@@QAE@PAVIoServer@IO@@@Z 00403730 f i zipstresstestapplication.obj
 0001:00002770       ??1?$Ptr@VIoServer@IO@@@@QAE@XZ 00403770 f i zipstresstestapplication.obj
 0001:000027a0       ??C?$Ptr@VIoServer@IO@@@@QBEPAVIoServer@IO@@XZ 004037a0 f i zipstresstestapplication.obj
 0001:000027e0       ??1?$Ptr@VStream@IO@@@@QAE@XZ 004037e0 f i zipstresstestapplication.obj
 0001:00002810       ??C?$Ptr@VStream@IO@@@@QBEPAVStream@IO@@XZ 00403810 f i zipstresstestapplication.obj
 0001:00002850       ??0?$Array@V?$Ptr@VReaderThread@App@@@@@Util@@QAE@XZ 00403850 f i zipstresstestapplication.obj
 0001:00002890       ??1?$Array@V?$Ptr@VReaderThread@App@@@@@Util@@QAE@XZ 00403890 f i zipstresstestapplication.obj
 0001:000028b0       ??A?$Array@V?$Ptr@VReaderThread@App@@@@@Util@@QBEAAV?$Ptr@VReaderThread@App@@@@H@Z 004038b0 f i zipstresstestapplication.obj
 0001:00002900       ?Append@?$Array@V?$Ptr@VReaderThread@App@@@@@Util@@QAEXABV?$Ptr@VReaderThread@App@@@@@Z 00403900 f i zipstresstestapplication.obj
 0001:00002980       ??0?$Ptr@VReaderThread@App@@@@QAE@PAVReaderThread@App@@@Z 00403980 f i zipstresstestapplication.obj
 0001:000029c0       ??1?$Ptr@VReaderThread@App@@@@QAE@XZ 004039c0 f i zipstresstestapplication.obj
 0001:000029f0       ??C?$Ptr@VReaderThread@App@@@@QBEPAVReaderThread@App@@XZ 004039f0 f i zipstresstestapplication.obj
 0001:00002a30       ?Delete@?$Array@VString@Util@@@Util@@AAEXXZ 00403a30 f i zipstresstestapplication.obj
 0001:00002aa0       ?Delete@?$Array@V?$Ptr@VReaderThread@App@@@@@Util@@AAEXXZ 00403aa0 f i zipstresstestapplication.obj
 0001:00002b10       ?Grow@?$Array@V?$Ptr@VReaderThread@App@@@@@Util@@AAEXXZ 00403b10 f i zipstresstestapplication.obj
 0001:00002b90       ??4?$Ptr@VReaderThread@App@@@@QAEXABV0@@Z 00403b90 f i zipstresstestapplication.obj
 0001:00002bf0       ??_E?$Ptr@VReaderThread@App@@@@QAEPAXI@Z 00403bf0 f i zipstresstestapplication.obj
 0001:00002c90       ?GrowTo@?$Array@V?$Ptr@VReaderThread@App@@@@@Util@@AAEXH@Z 00403c90 f i zipstresstestapplication.obj
 0001:00002db0       ??0?$Ptr@VReaderThread@App@@@@QAE@XZ 00403db0 f i zipstresstestapplication.obj
 0001:00002dd0       ?__HeapAlignPointerAndWritePadding16@Memory@@YAPAEPAE@Z 00403dd0 f i foundation_win32.release:win360memory.obj
 0001:00002e00       ?__HeapUnalignPointer16@Memory@@YAPAEPAE@Z 00403e00 f i foundation_win32.release:win360memory.obj
 0001:00002e20       ?__HeapAlloc16@Memory@@YAPAXPAXKK@Z 00403e20 f i foundation_win32.release:win360memory.obj
 0001:00002e70       ?__HeapReAlloc16@Memory@@YAPAXPAXK0K@Z 00403e70 f i foundation_win32.release:win360memory.obj
 0001:00002f90       ?__HeapFree16@Memory@@YAHPAXK0@Z 00403f90 f i foundation_win32.release:win360memory.obj
 0001:00002fd0       ?Copy@Memory@@YAXPBXPAXI@Z 00403fd0 f i foundation_win32.release:win360memory.obj
 0001:00003040       ?Alloc@Memory@@YAPAXW4HeapType@1@I@Z 00404040 f   foundation_win32.release:win360memory.obj
 0001:00003130       ?Realloc@Memory@@YAPAXW4HeapType@1@PAXI@Z 00404130 f   foundation_win32.release:win360memory.obj
 0001:000032e0       ?Free@Memory@@YAXW4HeapType@1@PAX@Z 004042e0 f   foundation_win32.release:win360memory.obj
 0001:00003370       ?DuplicateCString@Memory@@YAPADPBD@Z 00404370 f   foundation_win32.release:win360memory.obj
 0001:00003450       ?IsOverlapping@Memory@@YA_NPBEI0I@Z 00404450 f   foundation_win32.release:win360memory.obj
 0001:00003490       ?GetTotalMemoryStatus@Memory@@YA?AUTotalMemoryStatus@1@XZ 00404490 f   foundation_win32.release:win360memory.obj
 0001:00003500       ?DumpTotalMemoryStatus@Memory@@YAXXZ 00404500 f   foundation_win32.release:win360memory.obj
 0001:00003520       ??0float4@Math@@QAE@MMMM@Z 00404520 f i foundation_win32.release:string.obj
 0001:00003570       ??0matrix44@Math@@QAE@ABVfloat4@1@000@Z 00404570 f i foundation_win32.release:string.obj
 0001:000035c0       ?Alloc@String@Util@@AAEXH@Z 004045c0 f i foundation_win32.release:string.obj
 0001:00003660       ?Realloc@String@Util@@AAEXH@Z 00404660 f i foundation_win32.release:string.obj
 0001:000037b0       ?Reserve@String@Util@@QAEXH@Z 004047b0 f i foundation_win32.release:string.obj
 0001:000037e0       ??4String@Util@@QAEXPBD@Z  004047e0 f i foundation_win32.release:string.obj
 0001:00003800       ??AString@Util@@QBEDH@Z    00404800 f i foundation_win32.release:string.obj
 0001:00003860       ??AString@Util@@QAEAADH@Z  00404860 f i foundation_win32.release:string.obj
 0001:000038c0       ?Length@String@Util@@QBEHXZ 004048c0 f i foundation_win32.release:string.obj
 0001:00003980       ?CopyToBuffer@String@Util@@QBE_NPADH@Z 00404980 f   foundation_win32.release:string.obj
 0001:00003a30       ?Format@String@Util@@QAAXPBDZZ 00404a30 f   foundation_win32.release:string.obj
 0001:00003ac0       ?FormatArgList@String@Util@@QAAXPBDPAD@Z 00404ac0 f   foundation_win32.release:string.obj
 0001:00003b30       ?Set@String@Util@@QAEXPBDH@Z 00404b30 f   foundation_win32.release:string.obj
 0001:00003da0       ?AppendRange@String@Util@@QAEXPBDH@Z 00404da0 f   foundation_win32.release:string.obj
 0001:00003fc0       ?Tokenize@String@Util@@QBEHABV12@AAV?$Array@VString@Util@@@2@@Z 00404fc0 f   foundation_win32.release:string.obj
 0001:000040f0       ?Tokenize@String@Util@@QBE?AV?$Array@VString@Util@@@2@ABV12@@Z 004050f0 f   foundation_win32.release:string.obj
 0001:00004130       ?Tokenize@String@Util@@QBEHABV12@DAAV?$Array@VString@Util@@@2@@Z 00405130 f   foundation_win32.release:string.obj
 0001:00004480       ?Tokenize@String@Util@@QBE?AV?$Array@VString@Util@@@2@ABV12@D@Z 00405480 f   foundation_win32.release:string.obj
 0001:000044d0       ?ExtractRange@String@Util@@QBE?AV12@HH@Z 004054d0 f   foundation_win32.release:string.obj
 0001:00004590       ?ExtractToEnd@String@Util@@QBE?AV12@H@Z 00405590 f   foundation_win32.release:string.obj
 0001:000045c0       ?Strip@String@Util@@QAEXABV12@@Z 004055c0 f   foundation_win32.release:string.obj
 0001:00004680       ?FindStringIndex@String@Util@@QBEHABV12@H@Z 00405680 f   foundation_win32.release:string.obj
 0001:00004770       ?FindCharIndex@String@Util@@QBEHDH@Z 00405770 f   foundation_win32.release:string.obj
 0001:00004820       ?TrimLeft@String@Util@@QAEXABV12@@Z 00405820 f   foundation_win32.release:string.obj
 0001:00004a00       ?TrimRight@String@Util@@QAEXABV12@@Z 00405a00 f   foundation_win32.release:string.obj
 0001:00004be0       ?Trim@String@Util@@QAEXABV12@@Z 00405be0 f   foundation_win32.release:string.obj
 0001:00004c10       ?SubstituteString@String@Util@@QAEXABV12@0@Z 00405c10 f   foundation_win32.release:string.obj
 0001:00004d60       ?ExtractLastDirName@String@Util@@QBE?AV12@XZ 00405d60 f   foundation_win32.release:string.obj
 0001:00004e90       ?ExtractDirName@String@Util@@QBE?AV12@XZ 00405e90 f   foundation_win32.release:string.obj
 0001:00004f80       ?MatchPattern@String@Util@@SA_NABV12@0@Z 00405f80 f   foundation_win32.release:string.obj
 0001:00005290       ?ReplaceChars@String@Util@@QAEXABV12@D@Z 00406290 f   foundation_win32.release:string.obj
 0001:00005340       ?AsMatrix44@String@Util@@QBE?AVmatrix44@Math@@XZ 00406340 f   foundation_win32.release:string.obj
 0001:00005790       ?Concatenate@String@Util@@SA?AV12@ABV?$Array@VString@Util@@@2@ABV12@@Z 00406790 f   foundation_win32.release:string.obj
 0001:00005890       ?SetCharPtr@String@Util@@QAEXPBD@Z 00406890 f   foundation_win32.release:string.obj
 0001:000058f0       ?Append@String@Util@@QAEXPBD@Z 004068f0 f   foundation_win32.release:string.obj
 0001:00005960       ?TerminateAtIndex@String@Util@@QAEXH@Z 00406960 f   foundation_win32.release:string.obj
 0001:000059f0       ?StripFileExtension@String@Util@@QAEXXZ 004069f0 f   foundation_win32.release:string.obj
 0001:00005a90       ??8Util@@YA_NABVString@0@0@Z 00406a90 f   foundation_win32.release:string.obj
 0001:00005b40       ??8Util@@YA_NABVString@0@PBD@Z 00406b40 f   foundation_win32.release:string.obj
 0001:00005bf0       ??8Util@@YA_NPBDABVString@0@@Z 00406bf0 f   foundation_win32.release:string.obj
 0001:00005ca0       ??9Util@@YA_NABVString@0@0@Z 00406ca0 f   foundation_win32.release:string.obj
 0001:00005d50       ??MUtil@@YA_NABVString@0@0@Z 00406d50 f   foundation_win32.release:string.obj
 0001:00005e00       ??OUtil@@YA_NABVString@0@0@Z 00406e00 f   foundation_win32.release:string.obj
 0001:00005eb0       ??NUtil@@YA_NABVString@0@0@Z 00406eb0 f   foundation_win32.release:string.obj
 0001:00005f60       ??PUtil@@YA_NABVString@0@0@Z 00406f60 f   foundation_win32.release:string.obj
 0001:00006010       ?ToLower@String@Util@@QAEXXZ 00407010 f   foundation_win32.release:string.obj
 0001:00006070       ?ToUpper@String@Util@@QAEXXZ 00407070 f   foundation_win32.release:string.obj
 0001:000060d0       ?FirstCharToUpper@String@Util@@QAEXXZ 004070d0 f   foundation_win32.release:string.obj
 0001:00006110       ?ContainsCharFromSet@String@Util@@QBE_NABV12@@Z 00407110 f   foundation_win32.release:string.obj
 0001:00006180       ?GetFileExtension@String@Util@@QBE?AV12@XZ 00407180 f   foundation_win32.release:string.obj
 0001:00006240       ?GetLastSlash@String@Util@@ABEPADXZ 00407240 f   foundation_win32.release:string.obj
 0001:000062b0       ?IsValidBool@String@Util@@QBE_NXZ 004072b0 f   foundation_win32.release:string.obj
 0001:00006320       ?AsInt@String@Util@@QBEHXZ 00407320 f   foundation_win32.release:string.obj
 0001:00006360       ?AsFloat@String@Util@@QBEMXZ 00407360 f   foundation_win32.release:string.obj
 0001:000063a0       ?AsBool@String@Util@@QBE_NXZ 004073a0 f   foundation_win32.release:string.obj
 0001:00006430       ?IsDigit@String@Util@@SA_ND@Z 00407430 f   foundation_win32.release:string.obj
 0001:00006450       ?IsAlpha@String@Util@@SA_ND@Z 00407450 f   foundation_win32.release:string.obj
 0001:00006470       ?IsAlNum@String@Util@@SA_ND@Z 00407470 f   foundation_win32.release:string.obj
 0001:00006490       ?IsLower@String@Util@@SA_ND@Z 00407490 f   foundation_win32.release:string.obj
 0001:000064b0       ?IsUpper@String@Util@@SA_ND@Z 004074b0 f   foundation_win32.release:string.obj
 0001:000064d0       ?StrCmp@String@Util@@SAHPBD0@Z 004074d0 f   foundation_win32.release:string.obj
 0001:00006560       ?StrLen@String@Util@@SAHPBD@Z 00407560 f   foundation_win32.release:string.obj
 0001:000065c0       ?StrChr@String@Util@@SAPBDPBDH@Z 004075c0 f   foundation_win32.release:string.obj
 0001:00006600       ?ParseKeyValuePairs@String@Util@@SA?AV?$Dictionary@VString@Util@@V12@@2@ABV12@@Z 00407600 f   foundation_win32.release:string.obj
 0001:00006700       ??1?$Dictionary@VString@Util@@V12@@Util@@QAE@XZ 00407700 f i foundation_win32.release:string.obj
 0001:00006720       ?ChangeFileExtension@String@Util@@QAEXABV12@@Z 00407720 f   foundation_win32.release:string.obj
 0001:00006800       ??0?$Array@VString@Util@@@Util@@QAE@ABV01@@Z 00407800 f i foundation_win32.release:string.obj
 0001:00006850       ??0?$Array@VString@Util@@@Util@@QAE@HH@Z 00407850 f i foundation_win32.release:string.obj
 0001:00006960       ??0?$Array@VString@Util@@@Util@@QAE@XZ 00407960 f i foundation_win32.release:string.obj
 0001:000069a0       ?Append@?$Array@VString@Util@@@Util@@QAEXABVString@2@@Z 004079a0 f i foundation_win32.release:string.obj
 0001:00006a40       ?Clear@?$Array@VString@Util@@@Util@@QAEXXZ 00407a40 f i foundation_win32.release:string.obj
 0001:00006a90       ??1?$Array@V?$KeyValuePair@VString@Util@@V12@@Util@@@Util@@QAE@XZ 00407a90 f i foundation_win32.release:string.obj
 0001:00006ab0       ??0?$Dictionary@VString@Util@@V12@@Util@@QAE@ABV01@@Z 00407ab0 f i foundation_win32.release:string.obj
 0001:00006b00       ??0?$Dictionary@VString@Util@@V12@@Util@@QAE@XZ 00407b00 f i foundation_win32.release:string.obj
 0001:00006b20       ?Add@?$Dictionary@VString@Util@@V12@@Util@@QAEXABVString@2@0@Z 00407b20 f i foundation_win32.release:string.obj
 0001:00006b70       ??1?$KeyValuePair@VString@Util@@V12@@Util@@QAE@XZ 00407b70 f i foundation_win32.release:string.obj
 0001:00006c00       ?Destroy@?$Array@VString@Util@@@Util@@AAEXPAVString@2@@Z 00407c00 f i foundation_win32.release:string.obj
 0001:00006c20       ?Copy@?$Array@VString@Util@@@Util@@AAEXABV12@@Z 00407c20 f i foundation_win32.release:string.obj
 0001:00006da0       ?Grow@?$Array@VString@Util@@@Util@@AAEXXZ 00407da0 f i foundation_win32.release:string.obj
 0001:00006e20       ??0?$Array@V?$KeyValuePair@VString@Util@@V12@@Util@@@Util@@QAE@ABV01@@Z 00407e20 f i foundation_win32.release:string.obj
 0001:00006e70       ??0?$Array@V?$KeyValuePair@VString@Util@@V12@@Util@@@Util@@QAE@XZ 00407e70 f i foundation_win32.release:string.obj
 0001:00006eb0       ?Append@?$Array@V?$KeyValuePair@VString@Util@@V12@@Util@@@Util@@QAEXABV?$KeyValuePair@VString@Util@@V12@@2@@Z 00407eb0 f i foundation_win32.release:string.obj
 0001:00006f30       ?InsertSorted@?$Array@V?$KeyValuePair@VString@Util@@V12@@Util@@@Util@@QAEHABV?$KeyValuePair@VString@Util@@V12@@2@@Z 00407f30 f i foundation_win32.release:string.obj
 0001:000071a0       ?Delete@?$Array@V?$KeyValuePair@VString@Util@@V12@@Util@@@Util@@AAEXXZ 004081a0 f i foundation_win32.release:string.obj
 0001:00007210       ??0?$KeyValuePair@VString@Util@@V12@@Util@@QAE@ABVString@1@0@Z 00408210 f i foundation_win32.release:string.obj
 0001:000072d0       ??_GString@Util@@QAEPAXI@Z 004082d0 f i foundation_win32.release:string.obj
 0001:00007340       ??_E?$KeyValuePair@VString@Util@@V12@@Util@@QAEPAXI@Z 00408340 f i foundation_win32.release:string.obj
 0001:000073e0       ?GrowTo@?$Array@VString@Util@@@Util@@AAEXH@Z 004083e0 f i foundation_win32.release:string.obj
 0001:00007550       ?Size@?$Array@V?$KeyValuePair@VString@Util@@V12@@Util@@@Util@@QBEHXZ 00408550 f i foundation_win32.release:string.obj
 0001:00007570       ?Insert@?$Array@V?$KeyValuePair@VString@Util@@V12@@Util@@@Util@@QAEXHABV?$KeyValuePair@VString@Util@@V12@@2@@Z 00408570 f i foundation_win32.release:string.obj
 0001:000075e0       ?InsertAtEndOfIdenticalRange@?$Array@V?$KeyValuePair@VString@Util@@V12@@Util@@@Util@@QAEHHABV?$KeyValuePair@VString@Util@@V12@@2@@Z 004085e0 f i foundation_win32.release:string.obj
 0001:00007660       ?Copy@?$Array@V?$KeyValuePair@VString@Util@@V12@@Util@@@Util@@AAEXABV12@@Z 00408660 f i foundation_win32.release:string.obj
 0001:00007790       ?Grow@?$Array@V?$KeyValuePair@VString@Util@@V12@@Util@@@Util@@AAEXXZ 00408790 f i foundation_win32.release:string.obj
 0001:00007810       ??4?$KeyValuePair@VString@Util@@V12@@Util@@QAEXABV01@@Z 00408810 f i foundation_win32.release:string.obj
 0001:000078a0       ??O?$KeyValuePair@VString@Util@@V12@@Util@@QBE_NABV01@@Z 004088a0 f i foundation_win32.release:string.obj
 0001:000078c0       ??M?$KeyValuePair@VString@Util@@V12@@Util@@QBE_NABV01@@Z 004088c0 f i foundation_win32.release:string.obj
 0001:000078e0       ?GrowTo@?$Array@V?$KeyValuePair@VString@Util@@V12@@Util@@@Util@@AAEXH@Z 004088e0 f i foundation_win32.release:string.obj
 0001:00007a00       ?Move@?$Array@V?$KeyValuePair@VString@Util@@V12@@Util@@@Util@@AAEXHH@Z 00408a00 f i foundation_win32.release:string.obj
 0001:00007b90       ??0?$KeyValuePair@VString@Util@@V12@@Util@@QAE@XZ 00408b90 f i foundation_win32.release:string.obj
 0001:00007c00       ??9?$KeyValuePair@VString@Util@@V12@@Util@@QBE_NABV01@@Z 00408c00 f i foundation_win32.release:string.obj
 0001:00007c20       ?Destroy@?$Array@V?$KeyValuePair@VString@Util@@V12@@Util@@@Util@@AAEXPAV?$KeyValuePair@VString@Util@@V12@@2@@Z 00408c20 f i foundation_win32.release:string.obj
 0001:00007c50       ??_G?$KeyValuePair@VString@Util@@V12@@Util@@QAEPAXI@Z 00408c50 f i foundation_win32.release:string.obj
 0001:00007c80       ?strrchr@@YAPADPADH@Z      00408c80 f i foundation_win32.release:string.obj
 0001:00007ca0       ?strpbrk@@YAPADPADPBD@Z    00408ca0 f i foundation_win32.release:string.obj
 0001:00007cc0       ?strchr@@YAPADPADH@Z       00408cc0 f i foundation_win32.release:string.obj
 0001:00007d90       ?StringCchVPrintfA@@YGJPADIPBD0@Z 00408d90 f i foundation_win32.release:string.obj
 0001:00007fb0       ?StringCchCopyA@@YGJPADIPBD@Z 00408fb0 f i foundation_win32.release:string.obj
 0001:00008000       ??0_XMMATRIX@@QAE@XZ       00409000 f i foundation_win32.release:string.obj
 0001:00008010       ?XMVectorSet@@YA?AT__m128@@MMMM@Z 00409010 f i foundation_win32.release:string.obj
 0001:00008050       ?IsOpen@Application@App@@QBE_NXZ 00409050 f i foundation_win32.release:consoleapplication.obj
 0001:00008070       ?Instance@Console@IO@@SAPAV12@XZ 00409070 f i foundation_win32.release:consoleapplication.obj
 0001:000080a0       ??0StringAtom@Util@@QAE@ABVString@1@@Z 004090a0 f i foundation_win32.release:consoleapplication.obj
 0001:000080e0       ??4StringAtom@Util@@QAEXABV01@@Z 004090e0 f i foundation_win32.release:consoleapplication.obj
 0001:00008100       ?SetCompanyName@CoreServer@Core@@QAEXABVStringAtom@Util@@@Z 00409100 f i foundation_win32.release:consoleapplication.obj
 0001:00008120       ?SetAppName@CoreServer@Core@@QAEXABVStringAtom@Util@@@Z 00409120 f i foundation_win32.release:consoleapplication.obj
 0001:00008140       ??0ConsoleApplication@App@@QAE@XZ 00409140 f   foundation_win32.release:consoleapplication.obj
 0001:00008180       ??_EConsoleApplication@App@@UAEPAXI@Z 00409180 f i  CIL library: CIL module
 0001:00008180       ??_GConsoleApplication@App@@UAEPAXI@Z 00409180 f i foundation_win32.release:consoleapplication.obj
 0001:000081b0       ??1ConsoleApplication@App@@UAE@XZ 004091b0 f   foundation_win32.release:consoleapplication.obj
 0001:00008220       ?Open@ConsoleApplication@App@@UAE_NXZ 00409220 f   foundation_win32.release:consoleapplication.obj
 0001:000083a0       ?Close@ConsoleApplication@App@@UAEXXZ 004093a0 f   foundation_win32.release:consoleapplication.obj
 0001:00008400       ??0?$Ptr@VCoreServer@Core@@@@QAE@XZ 00409400 f i foundation_win32.release:consoleapplication.obj
 0001:00008420       ??1?$Ptr@VCoreServer@Core@@@@QAE@XZ 00409420 f i foundation_win32.release:consoleapplication.obj
 0001:00008450       ??4?$Ptr@VCoreServer@Core@@@@QAEXPAVCoreServer@Core@@@Z 00409450 f i foundation_win32.release:consoleapplication.obj
 0001:000084b0       ??C?$Ptr@VCoreServer@Core@@@@QBEPAVCoreServer@Core@@XZ 004094b0 f i foundation_win32.release:consoleapplication.obj
 0001:000084f0       ??0?$Ptr@VIoServer@IO@@@@QAE@XZ 004094f0 f i foundation_win32.release:consoleapplication.obj
 0001:00008510       ??4?$Ptr@VIoServer@IO@@@@QAEXPAVIoServer@IO@@@Z 00409510 f i foundation_win32.release:consoleapplication.obj
 0001:00008570       ??0?$Ptr@VLogFileConsoleHandler@IO@@@@QAE@PAVLogFileConsoleHandler@IO@@@Z 00409570 f i foundation_win32.release:consoleapplication.obj
 0001:000085b0       ??1?$Ptr@VLogFileConsoleHandler@IO@@@@QAE@XZ 004095b0 f i foundation_win32.release:consoleapplication.obj
 0001:000085e0       ??$upcast@VConsoleHandler@IO@@@?$Ptr@VLogFileConsoleHandler@IO@@@@QBEABV?$Ptr@VConsoleHandler@IO@@@@XZ 004095e0 f i foundation_win32.release:consoleapplication.obj
 0001:000085f0       ??0Application@App@@QAE@XZ 004095f0 f   foundation_win32.release:application.obj
 0001:00008750       ??_EApplication@App@@UAEPAXI@Z 00409750 f i  CIL library: CIL module
 0001:00008750       ??_GApplication@App@@UAEPAXI@Z 00409750 f i foundation_win32.release:application.obj
 0001:00008780       ??1CommandLineArgs@Util@@QAE@XZ 00409780 f i foundation_win32.release:application.obj
 0001:000087a0       ??1Application@App@@UAE@XZ 004097a0 f   foundation_win32.release:application.obj
 0001:00008900       ?Open@Application@App@@UAE_NXZ 00409900 f   foundation_win32.release:application.obj
 0001:00008940       ?Close@Application@App@@UAEXXZ 00409940 f   foundation_win32.release:application.obj
 0001:00008980       ?Run@Application@App@@UAEXXZ 00409980 f   foundation_win32.release:application.obj
 0001:00008990       ?Exit@Application@App@@UAEXXZ 00409990 f   foundation_win32.release:application.obj
 0001:000089b0       ?HasInstance@Console@IO@@SA_NXZ 004099b0 f i foundation_win32.release:debug.obj
 0001:000089d0       ?n_barf@@YAXPBD0H@Z        004099d0 f   foundation_win32.release:debug.obj
 0001:00008a70       ?n_barf2@@YAXPBD00H@Z      00409a70 f   foundation_win32.release:debug.obj
 0001:00008b10       ?n_error@@YAXPBDZZ         00409b10 f   foundation_win32.release:debug.obj
 0001:00008bd0       ?n_warning@@YAXPBDZZ       00409bd0 f   foundation_win32.release:debug.obj
 0001:00008c90       ?n_confirm@@YAXPBDZZ       00409c90 f   foundation_win32.release:debug.obj
 0001:00008d50       ?n_printf@@YAXPBDZZ        00409d50 f   foundation_win32.release:debug.obj
 0001:00008da0       ?n_dbgout@@YAXPBDZZ        00409da0 f   foundation_win32.release:debug.obj
 0001:00008df0       ?n_sleep@@YAXN@Z           00409df0 f   foundation_win32.release:debug.obj
 0001:00008e10       ??0FourCC@Util@@QAE@XZ     00409e10 f i foundation_win32.release:rtti.obj
 0001:00008e30       ??8FourCC@Util@@QBE_NABV01@@Z 00409e30 f i foundation_win32.release:rtti.obj
 0001:00008e50       ?IsValid@FourCC@Util@@QBE_NXZ 00409e50 f i foundation_win32.release:rtti.obj
 0001:00008e70       ?GetParent@Rtti@Core@@QBEPBV12@XZ 00409e70 f i foundation_win32.release:rtti.obj
 0001:00008e90       ?Construct@Rtti@Core@@AAEXPBDVFourCC@Util@@P6APAVRefCounted@2@XZPBV12@H@Z 00409e90 f   foundation_win32.release:rtti.obj
 0001:00008f80       ??0Rtti@Core@@QAE@PBDVFourCC@Util@@P6APAVRefCounted@1@XZPBV01@H@Z 00409f80 f   foundation_win32.release:rtti.obj
 0001:00008ff0       ??0Rtti@Core@@QAE@PBDP6APAVRefCounted@1@XZPBV01@H@Z 00409ff0 f   foundation_win32.release:rtti.obj
 0001:00009060       ?Create@Rtti@Core@@QBEPAVRefCounted@2@XZ 0040a060 f   foundation_win32.release:rtti.obj
 0001:000090c0       ?IsDerivedFrom@Rtti@Core@@QBE_NABV12@@Z 0040a0c0 f   foundation_win32.release:rtti.obj
 0001:00009100       ?IsDerivedFrom@Rtti@Core@@QBE_NABVString@Util@@@Z 0040a100 f   foundation_win32.release:rtti.obj
 0001:00009150       ?IsDerivedFrom@Rtti@Core@@QBE_NABVFourCC@Util@@@Z 0040a150 f   foundation_win32.release:rtti.obj
 0001:000091a0       ?AllocInstanceMemory@Rtti@Core@@QAEPAXXZ 0040a1a0 f   foundation_win32.release:rtti.obj
 0001:000091d0       ?FreeInstanceMemory@Rtti@Core@@QAEXPAX@Z 0040a1d0 f   foundation_win32.release:rtti.obj
 0001:000091f0       ?Clear@String@Util@@QAEXXZ 0040a1f0 f i foundation_win32.release:uri.obj
 0001:00009240       ?IsEmpty@URI@IO@@QBE_NXZ   0040a240 f i foundation_win32.release:uri.obj
 0001:00009250       ?Clear@URI@IO@@QAEXXZ      0040a250 f i foundation_win32.release:uri.obj
 0001:00009450       ?SetScheme@URI@IO@@QAEXABVString@Util@@@Z 0040a450 f i foundation_win32.release:uri.obj
 0001:000094a0       ?SetUserInfo@URI@IO@@QAEXABVString@Util@@@Z 0040a4a0 f i foundation_win32.release:uri.obj
 0001:000094f0       ?SetHost@URI@IO@@QAEXABVString@Util@@@Z 0040a4f0 f i foundation_win32.release:uri.obj
 0001:00009540       ?SetPort@URI@IO@@QAEXABVString@Util@@@Z 0040a540 f i foundation_win32.release:uri.obj
 0001:00009590       ?SetLocalPath@URI@IO@@QAEXABVString@Util@@@Z 0040a590 f i foundation_win32.release:uri.obj
 0001:000095f0       ?SetFragment@URI@IO@@QAEXABVString@Util@@@Z 0040a5f0 f i foundation_win32.release:uri.obj
 0001:00009650       ?SetQuery@URI@IO@@QAEXABVString@Util@@@Z 0040a650 f i foundation_win32.release:uri.obj
 0001:000096b0       ?Instance@AssignRegistry@IO@@SAPAV12@XZ 0040a6b0 f i foundation_win32.release:uri.obj
 0001:000096e0       ?HasInstance@AssignRegistry@IO@@SA_NXZ 0040a6e0 f i foundation_win32.release:uri.obj
 0001:00009700       ?Split@URI@IO@@AAE_NABVString@Util@@@Z 0040a700 f   foundation_win32.release:uri.obj
 0001:0000a1f0       ?Build@URI@IO@@ABE?AVString@Util@@XZ 0040b1f0 f   foundation_win32.release:uri.obj
 0001:0000a4e0       ?GetTail@URI@IO@@QBE?AVString@Util@@XZ 0040b4e0 f   foundation_win32.release:uri.obj
 0001:0000a650       ?GetHostAndLocalPath@URI@IO@@QBE?AVString@Util@@XZ 0040b650 f   foundation_win32.release:uri.obj
 0001:0000a770       ?AppendLocalPath@URI@IO@@QAEXABVString@Util@@@Z 0040b770 f   foundation_win32.release:uri.obj
 0001:0000a800       ?ParseQuery@URI@IO@@QBE?AV?$Dictionary@VString@Util@@V12@@Util@@XZ 0040b800 f   foundation_win32.release:uri.obj
 0001:0000a970       ?WaiterPlus@Win360CriticalSection@Win360@@ABEXXZ 0040b970 f i foundation_win32.release:ioserver.obj
 0001:0000a990       ?WaiterMinus@Win360CriticalSection@Win360@@ABEXXZ 0040b990 f i foundation_win32.release:ioserver.obj
 0001:0000a9b0       ?PerfLockImmediate@Win360CriticalSection@Win360@@ABE_NK@Z 0040b9b0 f i foundation_win32.release:ioserver.obj
 0001:0000a9e0       ?Enter@Win360CriticalSection@Win360@@QBEXXZ 0040b9e0 f i foundation_win32.release:ioserver.obj
 0001:0000aa50       ?AllocateKernelSemaphore@Win360CriticalSection@Win360@@ABEXXZ 0040ba50 f i foundation_win32.release:ioserver.obj
 0001:0000aac0       ?PerfLock@Win360CriticalSection@Win360@@ABE_NK@Z 0040bac0 f i foundation_win32.release:ioserver.obj
 0001:0000ab40       ?PerfLockKernel@Win360CriticalSection@Win360@@ABE_NK@Z 0040bb40 f i foundation_win32.release:ioserver.obj
 0001:0000abe0       ?Leave@Win360CriticalSection@Win360@@QBEXXZ 0040bbe0 f i foundation_win32.release:ioserver.obj
 0001:0000ac10       ?PerfUnlock@Win360CriticalSection@Win360@@ABEXXZ 0040bc10 f i foundation_win32.release:ioserver.obj
 0001:0000ac50       ?IsEmpty@String@Util@@QBE_NXZ 0040bc50 f i foundation_win32.release:ioserver.obj
 0001:0000ac70       ??3RefCounted@Core@@SAXPAX@Z 0040bc70 f i foundation_win32.release:ioserver.obj
 0001:0000ac90       ??0RefCounted@Core@@QAE@XZ 0040bc90 f i foundation_win32.release:ioserver.obj
 0001:0000acc0       ??_ERefCounted@Core@@MAEPAXI@Z 0040bcc0 f i  CIL library: CIL module
 0001:0000acc0       ??_GRefCounted@Core@@MAEPAXI@Z 0040bcc0 f i foundation_win32.release:ioserver.obj
 0001:0000acf0       ?GetRefCount@RefCounted@Core@@QBEHXZ 0040bcf0 f i foundation_win32.release:ioserver.obj
 0001:0000ad10       ??0URI@IO@@QAE@XZ          0040bd10 f i foundation_win32.release:ioserver.obj
 0001:0000ae70       ??4URI@IO@@QAEXABV01@@Z    0040be70 f i foundation_win32.release:ioserver.obj
 0001:0000b070       ?Scheme@URI@IO@@QBEABVString@Util@@XZ 0040c070 f i foundation_win32.release:ioserver.obj
 0001:0000b090       ?LocalPath@URI@IO@@QBEABVString@Util@@XZ 0040c090 f i foundation_win32.release:ioserver.obj
 0001:0000b0b0       ?Instance@SchemeRegistry@IO@@SAPAV12@XZ 0040c0b0 f i foundation_win32.release:ioserver.obj
 0001:0000b0e0       ?HasInstance@SchemeRegistry@IO@@SA_NXZ 0040c0e0 f i foundation_win32.release:ioserver.obj
 0001:0000b100       ??2IoServer@IO@@SAPAXI@Z   0040c100 f i foundation_win32.release:ioserver.obj
 0001:0000b110       ??3IoServer@IO@@SAXPAX@Z   0040c110 f i foundation_win32.release:ioserver.obj
 0001:0000b130       ?IsArchiveFileSystemEnabled@IoServer@IO@@QBE_NXZ 0040c130 f i foundation_win32.release:ioserver.obj
 0001:0000b150       ?GetPlatform@SystemInfoBase@Base@@QBE?AW4Platform@12@XZ 0040c150 f i foundation_win32.release:ioserver.obj
 0001:0000b160       ?Instance@ArchiveFileSystem@IO@@SAPAV12@XZ 0040c160 f i foundation_win32.release:ioserver.obj
 0001:0000b190       ?HasInstance@ArchiveFileSystem@IO@@SA_NXZ 0040c190 f i foundation_win32.release:ioserver.obj
 0001:0000b1b0       ?GetRtti@IoServer@IO@@UBEPAVRtti@Core@@XZ 0040c1b0 f   foundation_win32.release:ioserver.obj
 0001:0000b1c0       ?FactoryCreator@IoServer@IO@@SAPAVRefCounted@Core@@XZ 0040c1c0 f   foundation_win32.release:ioserver.obj
 0001:0000b1d0       ?Create@IoServer@IO@@SAPAV12@XZ 0040c1d0 f   foundation_win32.release:ioserver.obj
 0001:0000b210       ?RegisterWithFactory@IoServer@IO@@SA_NXZ 0040c210 f   foundation_win32.release:ioserver.obj
 0001:0000b310       ??0CriticalSection@Threading@@QAE@XZ 0040c310 f i foundation_win32.release:ioserver.obj
 0001:0000b330       ??1CriticalSection@Threading@@QAE@XZ 0040c330 f i foundation_win32.release:ioserver.obj
 0001:0000b350       ??0IoServer@IO@@QAE@XZ     0040c350 f   foundation_win32.release:ioserver.obj
 0001:0000b5a0       ??_EIoServer@IO@@UAEPAXI@Z 0040c5a0 f i  CIL library: CIL module
 0001:0000b5a0       ??_GIoServer@IO@@UAEPAXI@Z 0040c5a0 f i foundation_win32.release:ioserver.obj
 0001:0000b5d0       ??1IoServer@IO@@UAE@XZ     0040c5d0 f   foundation_win32.release:ioserver.obj
 0001:0000b6a0       ?CreateStream@IoServer@IO@@QBE?AV?$Ptr@VStream@IO@@@@ABVURI@2@@Z 0040c6a0 f   foundation_win32.release:ioserver.obj
 0001:0000b860       ?MountArchive@IoServer@IO@@QAE_NABVURI@2@@Z 0040c860 f   foundation_win32.release:ioserver.obj
 0001:0000b8b0       ?UnmountArchive@IoServer@IO@@QAEXABVURI@2@@Z 0040c8b0 f   foundation_win32.release:ioserver.obj
 0001:0000b8e0       ?IsArchiveMounted@IoServer@IO@@QBE_NABVURI@2@@Z 0040c8e0 f   foundation_win32.release:ioserver.obj
 0001:0000b910       ?MountStandardArchives@IoServer@IO@@QAEXXZ 0040c910 f   foundation_win32.release:ioserver.obj
 0001:0000ba10       ??0SystemInfo@System@@QAE@XZ 0040ca10 f i foundation_win32.release:ioserver.obj
 0001:0000ba30       ?UnmountStandardArchives@IoServer@IO@@QAEXXZ 0040ca30 f   foundation_win32.release:ioserver.obj
 0001:0000bb70       ?CreateDirectoryA@IoServer@IO@@QBE_NABVURI@2@@Z 0040cb70 f   foundation_win32.release:ioserver.obj
 0001:0000bdf0       ??1?$Stack@VString@Util@@@Util@@QAE@XZ 0040cdf0 f i foundation_win32.release:ioserver.obj
 0001:0000be10       ?CopyFile@IoServer@IO@@QBE_NABVURI@2@0@Z 0040ce10 f   foundation_win32.release:ioserver.obj
 0001:0000c240       ?ComputeFileCrc@IoServer@IO@@QBEIABVURI@2@@Z 0040d240 f   foundation_win32.release:ioserver.obj
 0001:0000c3d0       ?DeleteFile@IoServer@IO@@QBE_NABVURI@2@@Z 0040d3d0 f   foundation_win32.release:ioserver.obj
 0001:0000c460       ?DeleteDirectory@IoServer@IO@@QBE_NABVURI@2@@Z 0040d460 f   foundation_win32.release:ioserver.obj
 0001:0000c4f0       ?FileExists@IoServer@IO@@QBE_NABVURI@2@@Z 0040d4f0 f   foundation_win32.release:ioserver.obj
 0001:0000c5c0       ?DirectoryExists@IoServer@IO@@QBE_NABVURI@2@@Z 0040d5c0 f   foundation_win32.release:ioserver.obj
 0001:0000c6b0       ?SetReadOnly@IoServer@IO@@QBEXABVURI@2@_N@Z 0040d6b0 f   foundation_win32.release:ioserver.obj
 0001:0000c740       ?IsReadOnly@IoServer@IO@@QBE_NABVURI@2@@Z 0040d740 f   foundation_win32.release:ioserver.obj
 0001:0000c8f0       ?SetFileWriteTime@IoServer@IO@@QAEXABVURI@2@VWin360FileTime@Win360@@@Z 0040d8f0 f   foundation_win32.release:ioserver.obj
 0001:0000c980       ?GetFileWriteTime@IoServer@IO@@QBE?AVWin360FileTime@Win360@@ABVURI@2@@Z 0040d980 f   foundation_win32.release:ioserver.obj
 0001:0000ca10       ?ListFiles@IoServer@IO@@QBE?AV?$Array@VString@Util@@@Util@@ABVURI@2@ABVString@4@_N@Z 0040da10 f   foundation_win32.release:ioserver.obj
 0001:0000cc30       ?ListDirectories@IoServer@IO@@QBE?AV?$Array@VString@Util@@@Util@@ABVURI@2@ABVString@4@_N@Z 0040dc30 f   foundation_win32.release:ioserver.obj
 0001:0000ce50       ?AddPathPrefixToArray@IoServer@IO@@ABE?AV?$Array@VString@Util@@@Util@@ABVString@4@ABV34@@Z 0040de50 f   foundation_win32.release:ioserver.obj
 0001:0000cf70       ??4?$Array@VString@Util@@@Util@@QAEXABV01@@Z 0040df70 f i foundation_win32.release:ioserver.obj
 0001:0000d0a0       ?Reserve@?$Array@VString@Util@@@Util@@QAEXH@Z 0040e0a0 f i foundation_win32.release:ioserver.obj
 0001:0000d0f0       ?IsEmpty@?$Array@VString@Util@@@Util@@QBE_NXZ 0040e0f0 f i foundation_win32.release:ioserver.obj
 0001:0000d110       ??0?$Ptr@VArchiveFileSystem@IO@@@@QAE@XZ 0040e110 f i foundation_win32.release:ioserver.obj
 0001:0000d130       ??1?$Ptr@VArchiveFileSystem@IO@@@@QAE@XZ 0040e130 f i foundation_win32.release:ioserver.obj
 0001:0000d160       ??4?$Ptr@VArchiveFileSystem@IO@@@@QAEXPAVArchiveFileSystem@IO@@@Z 0040e160 f i foundation_win32.release:ioserver.obj
 0001:0000d1c0       ??C?$Ptr@VArchiveFileSystem@IO@@@@QBEPAVArchiveFileSystem@IO@@XZ 0040e1c0 f i foundation_win32.release:ioserver.obj
 0001:0000d200       ??0?$Ptr@VAssignRegistry@IO@@@@QAE@XZ 0040e200 f i foundation_win32.release:ioserver.obj
 0001:0000d220       ??1?$Ptr@VAssignRegistry@IO@@@@QAE@XZ 0040e220 f i foundation_win32.release:ioserver.obj
 0001:0000d250       ??4?$Ptr@VAssignRegistry@IO@@@@QAEXPAVAssignRegistry@IO@@@Z 0040e250 f i foundation_win32.release:ioserver.obj
 0001:0000d2b0       ??C?$Ptr@VAssignRegistry@IO@@@@QBEPAVAssignRegistry@IO@@XZ 0040e2b0 f i foundation_win32.release:ioserver.obj
 0001:0000d2f0       ??0?$Ptr@VSchemeRegistry@IO@@@@QAE@XZ 0040e2f0 f i foundation_win32.release:ioserver.obj
 0001:0000d310       ??1?$Ptr@VSchemeRegistry@IO@@@@QAE@XZ 0040e310 f i foundation_win32.release:ioserver.obj
 0001:0000d340       ??4?$Ptr@VSchemeRegistry@IO@@@@QAEXPAVSchemeRegistry@IO@@@Z 0040e340 f i foundation_win32.release:ioserver.obj
 0001:0000d3a0       ??C?$Ptr@VSchemeRegistry@IO@@@@QBEPAVSchemeRegistry@IO@@XZ 0040e3a0 f i foundation_win32.release:ioserver.obj
 0001:0000d3e0       ??0?$Ptr@VStream@IO@@@@QAE@ABV0@@Z 0040e3e0 f i foundation_win32.release:ioserver.obj
 0001:0000d420       ??0?$Ptr@VStream@IO@@@@QAE@PAVStream@IO@@@Z 0040e420 f i foundation_win32.release:ioserver.obj
 0001:0000d460       ??1?$Ptr@VArchive@IO@@@@QAE@XZ 0040e460 f i foundation_win32.release:ioserver.obj
 0001:0000d490       ??C?$Ptr@VArchive@IO@@@@QBEPAVArchive@IO@@XZ 0040e490 f i foundation_win32.release:ioserver.obj
 0001:0000d4d0       ?isvalid@?$Ptr@VArchive@IO@@@@QBE_NXZ 0040e4d0 f i foundation_win32.release:ioserver.obj
 0001:0000d4f0       ??0?$Stack@VString@Util@@@Util@@QAE@XZ 0040e4f0 f i foundation_win32.release:ioserver.obj
 0001:0000d510       ?IsEmpty@?$Stack@VString@Util@@@Util@@QBE_NXZ 0040e510 f i foundation_win32.release:ioserver.obj
 0001:0000d530       ?Push@?$Stack@VString@Util@@@Util@@QAEXABVString@2@@Z 0040e530 f i foundation_win32.release:ioserver.obj
 0001:0000d550       ?Pop@?$Stack@VString@Util@@@Util@@QAE?AVString@2@XZ 0040e550 f i foundation_win32.release:ioserver.obj
 0001:0000d5e0       ?Back@?$Array@VString@Util@@@Util@@QBEAAVString@2@XZ 0040e5e0 f i foundation_win32.release:ioserver.obj
 0001:0000d630       ?EraseIndex@?$Array@VString@Util@@@Util@@QAEXH@Z 0040e630 f i foundation_win32.release:ioserver.obj
 0001:0000d6b0       ?Move@?$Array@VString@Util@@@Util@@AAEXHH@Z 0040e6b0 f i foundation_win32.release:ioserver.obj
 0001:0000d8b0       ___InlineInterlockedCompareExchangePointer 0040e8b0 f i foundation_win32.release:ioserver.obj
 0001:0000d8d0       ??2Thread@Threading@@SAPAXI@Z 0040e8d0 f i foundation_win32.release:thread.obj
 0001:0000d8e0       ?GetRtti@Thread@Threading@@UBEPAVRtti@Core@@XZ 0040e8e0 f   foundation_win32.release:thread.obj
 0001:0000d8f0       ?FactoryCreator@Thread@Threading@@SAPAVRefCounted@Core@@XZ 0040e8f0 f   foundation_win32.release:thread.obj
 0001:0000d900       ?Create@Thread@Threading@@SAPAV12@XZ 0040e900 f   foundation_win32.release:thread.obj
 0001:0000d940       ?RegisterWithFactory@Thread@Threading@@SA_NXZ 0040e940 f   foundation_win32.release:thread.obj
 0001:0000da40       ??0Win360Event@Win360@@QAE@_N@Z 0040ea40 f i foundation_win32.release:win360thread.obj
 0001:0000da90       ??1Win360Event@Win360@@QAE@XZ 0040ea90 f i foundation_win32.release:win360thread.obj
 0001:0000dab0       ?Signal@Win360Event@Win360@@QAEXXZ 0040eab0 f i foundation_win32.release:win360thread.obj
 0001:0000dad0       ?Wait@Win360Event@Win360@@QBEXXZ 0040ead0 f i foundation_win32.release:win360thread.obj
 0001:0000daf0       ??2Win360Thread@Win360@@SAPAXI@Z 0040eaf0 f i foundation_win32.release:win360thread.obj
 0001:0000db00       ??3Win360Thread@Win360@@SAXPAX@Z 0040eb00 f i foundation_win32.release:win360thread.obj
 0001:0000db20       ?GetName@Win360Thread@Win360@@QBEABVString@Util@@XZ 0040eb20 f i foundation_win32.release:win360thread.obj
 0001:0000db40       ?GetRtti@Win360Thread@Win360@@UBEPAVRtti@Core@@XZ 0040eb40 f   foundation_win32.release:win360thread.obj
 0001:0000db50       ?FactoryCreator@Win360Thread@Win360@@SAPAVRefCounted@Core@@XZ 0040eb50 f   foundation_win32.release:win360thread.obj
 0001:0000db60       ?Create@Win360Thread@Win360@@SAPAV12@XZ 0040eb60 f   foundation_win32.release:win360thread.obj
 0001:0000dba0       ?RegisterWithFactory@Win360Thread@Win360@@SA_NXZ 0040eba0 f   foundation_win32.release:win360thread.obj
 0001:0000dca0       ??0Win360Thread@Win360@@QAE@XZ 0040eca0 f   foundation_win32.release:win360thread.obj
 0001:0000dda0       ??_GWin360Thread@Win360@@UAEPAXI@Z 0040eda0 f i foundation_win32.release:win360thread.obj
 0001:0000dda0       ??_EWin360Thread@Win360@@UAEPAXI@Z 0040eda0 f i  CIL library: CIL module
 0001:0000ddd0       ??1Win360Thread@Win360@@UAE@XZ 0040edd0 f   foundation_win32.release:win360thread.obj
 0001:0000de90       ?Start@Win360Thread@Win360@@QAEXXZ 0040ee90 f   foundation_win32.release:win360thread.obj
 0001:0000df90       ?EmitWakeupSignal@Win360Thread@Win360@@MAEXXZ 0040ef90 f   foundation_win32.release:win360thread.obj
 0001:0000dfa0       ?Stop@Win360Thread@Win360@@QAEXXZ 0040efa0 f   foundation_win32.release:win360thread.obj
 0001:0000e040       ?IsRunning@Win360Thread@Win360@@QBE_NXZ 0040f040 f   foundation_win32.release:win360thread.obj
 0001:0000e090       ?DoWork@Win360Thread@Win360@@MAEXXZ 0040f090 f   foundation_win32.release:win360thread.obj
 0001:0000e0a0       ?ThreadProc@Win360Thread@Win360@@CGKPAX@Z 0040f0a0 f   foundation_win32.release:win360thread.obj
 0001:0000e140       ?SetMyThreadName@Win360Thread@Win360@@SAXPBD@Z 0040f140 f   foundation_win32.release:win360thread.obj
 0001:0000e1e0       ?GetMyThreadName@Win360Thread@Win360@@SAPBDXZ 0040f1e0 f   foundation_win32.release:win360thread.obj
 0001:0000e1f0       ?GetMyThreadId@Win360Thread@Win360@@SAKXZ 0040f1f0 f   foundation_win32.release:win360thread.obj
 0001:0000e200       ?YieldThread@Win360Thread@Win360@@SAXXZ 0040f200 f   foundation_win32.release:win360thread.obj
 0001:0000e210       ?Setup@Blob@Util@@SAXXZ    0040f210 f i foundation_win32.release:win32sysfunc.obj
 0001:0000e280       ?Shutdown@Blob@Util@@SAXXZ 0040f280 f i foundation_win32.release:win32sysfunc.obj
 0001:0000e300       ??_GWin360Heap@Win360@@QAEPAXI@Z 0040f300 f i foundation_win32.release:win32sysfunc.obj
 0001:0000e330       ?Setup@SysFunc@Win32@@SAXXZ 0040f330 f   foundation_win32.release:win32sysfunc.obj
 0001:0000e3f0       ?Exit@SysFunc@Win32@@SAXH@Z 0040f3f0 f   foundation_win32.release:win32sysfunc.obj
 0001:0000e4d0       ??_GGlobalStringAtomTable@Util@@QAEPAXI@Z 0040f4d0 f i foundation_win32.release:win32sysfunc.obj
 0001:0000e500       ??_GLocalStringAtomTable@Util@@QAEPAXI@Z 0040f500 f i foundation_win32.release:win32sysfunc.obj
 0001:0000e530       ?Error@SysFunc@Win32@@SAXPBD@Z 0040f530 f   foundation_win32.release:win32sysfunc.obj
 0001:0000e560       ?MessageBoxA@SysFunc@Win32@@SAXPBD@Z 0040f560 f   foundation_win32.release:win32sysfunc.obj
 0001:0000e5a0       ?Sleep@SysFunc@Win32@@SAXN@Z 0040f5a0 f   foundation_win32.release:win32sysfunc.obj
 0001:0000e5d0       ?DebugOut@SysFunc@Win32@@SAXPBD@Z 0040f5d0 f   foundation_win32.release:win32sysfunc.obj
 0001:0000e5e0       ?RegisterExitHandler@SysFunc@Win32@@CAPBVExitHandler@Core@@PBV34@@Z 0040f5e0 f   foundation_win32.release:win32sysfunc.obj
 0001:0000e600       ?GetSystemInfo@SysFunc@Win32@@SAPBVSystemInfo@System@@XZ 0040f600 f   foundation_win32.release:win32sysfunc.obj
 0001:0000e610       ?XMVerifyCPUSupport@@YAHXZ 0040f610 f i foundation_win32.release:win32sysfunc.obj
 0001:0000e650       ?HashCode@String@Util@@QBEHXZ 0040f650 f i foundation_win32.release:factory.obj
 0001:0000e700       ??9FourCC@Util@@QBE_NABV01@@Z 0040f700 f i foundation_win32.release:factory.obj
 0001:0000e720       ??OFourCC@Util@@QBE_NABV01@@Z 0040f720 f i foundation_win32.release:factory.obj
 0001:0000e740       ??MFourCC@Util@@QBE_NABV01@@Z 0040f740 f i foundation_win32.release:factory.obj
 0001:0000e760       ?AsString@FourCC@Util@@QBE?AVString@2@XZ 0040f760 f i foundation_win32.release:factory.obj
 0001:0000e790       ?ToString@FourCC@Util@@SA?AVString@2@ABV12@@Z 0040f790 f i foundation_win32.release:factory.obj
 0001:0000e920       ?Instance@Factory@Core@@SAPAV12@XZ 0040f920 f   foundation_win32.release:factory.obj
 0001:0000e990       ?Destroy@Factory@Core@@SAXXZ 0040f990 f   foundation_win32.release:factory.obj
 0001:0000e9f0       ??_GFactory@Core@@AAEPAXI@Z 0040f9f0 f i foundation_win32.release:factory.obj
 0001:0000ea20       ??0Factory@Core@@AAE@XZ    0040fa20 f   foundation_win32.release:factory.obj
 0001:0000ea50       ??1?$HashTable@VString@Util@@PBVRtti@Core@@@Util@@QAE@XZ 0040fa50 f i foundation_win32.release:factory.obj
 0001:0000ea70       ??1?$Dictionary@VFourCC@Util@@PBVRtti@Core@@@Util@@QAE@XZ 0040fa70 f i foundation_win32.release:factory.obj
 0001:0000ea90       ??1Factory@Core@@AAE@XZ    0040fa90 f   foundation_win32.release:factory.obj
 0001:0000ead0       ?Register@Factory@Core@@QAEXPBVRtti@2@ABVString@Util@@ABVFourCC@5@@Z 0040fad0 f   foundation_win32.release:factory.obj
 0001:0000ecc0       ?Register@Factory@Core@@QAEXPBVRtti@2@ABVString@Util@@@Z 0040fcc0 f   foundation_win32.release:factory.obj
 0001:0000ed90       ?ClassExists@Factory@Core@@QBE_NABVString@Util@@@Z 0040fd90 f   foundation_win32.release:factory.obj
 0001:0000ede0       ?ClassExists@Factory@Core@@QBE_NVFourCC@Util@@@Z 0040fde0 f   foundation_win32.release:factory.obj
 0001:0000ee30       ?GetClassRtti@Factory@Core@@QBEPBVRtti@2@ABVString@Util@@@Z 0040fe30 f   foundation_win32.release:factory.obj
 0001:0000eea0       ?GetClassRtti@Factory@Core@@QBEPBVRtti@2@ABVFourCC@Util@@@Z 0040fea0 f   foundation_win32.release:factory.obj
 0001:0000ef20       ?Create@Factory@Core@@QBEPAVRefCounted@2@ABVString@Util@@@Z 0040ff20 f   foundation_win32.release:factory.obj
 0001:0000f030       ?Create@Factory@Core@@QBEPAVRefCounted@2@VFourCC@Util@@@Z 00410030 f   foundation_win32.release:factory.obj
 0001:0000f180       ??1?$FixedArray@V?$Array@V?$KeyValuePair@VString@Util@@PBVRtti@Core@@@Util@@@Util@@@Util@@QAE@XZ 00410180 f i foundation_win32.release:factory.obj
 0001:0000f1a0       ??0?$HashTable@VString@Util@@PBVRtti@Core@@@Util@@QAE@H@Z 004101a0 f i foundation_win32.release:factory.obj
 0001:0000f1d0       ??A?$HashTable@VString@Util@@PBVRtti@Core@@@Util@@QBEAAPBVRtti@Core@@ABVString@1@@Z 004101d0 f i foundation_win32.release:factory.obj
 0001:0000f2d0       ?Clear@?$HashTable@VString@Util@@PBVRtti@Core@@@Util@@QAEXXZ 004102d0 f i foundation_win32.release:factory.obj
 0001:0000f330       ?Add@?$HashTable@VString@Util@@PBVRtti@Core@@@Util@@QAEXABVString@2@ABQBVRtti@Core@@@Z 00410330 f i foundation_win32.release:factory.obj
 0001:0000f370       ?Contains@?$HashTable@VString@Util@@PBVRtti@Core@@@Util@@QBE_NABVString@2@@Z 00410370 f i foundation_win32.release:factory.obj
 0001:0000f410       ??1?$Array@V?$KeyValuePair@VFourCC@Util@@PBVRtti@Core@@@Util@@@Util@@QAE@XZ 00410410 f i foundation_win32.release:factory.obj
 0001:0000f430       ??0?$Dictionary@VFourCC@Util@@PBVRtti@Core@@@Util@@QAE@XZ 00410430 f i foundation_win32.release:factory.obj
 0001:0000f450       ??A?$Dictionary@VFourCC@Util@@PBVRtti@Core@@@Util@@QBEABQBVRtti@Core@@ABVFourCC@1@@Z 00410450 f i foundation_win32.release:factory.obj
 0001:0000f4a0       ?Clear@?$Dictionary@VFourCC@Util@@PBVRtti@Core@@@Util@@QAEXXZ 004104a0 f i foundation_win32.release:factory.obj
 0001:0000f4e0       ?Add@?$Dictionary@VFourCC@Util@@PBVRtti@Core@@@Util@@QAEXABVFourCC@2@ABQBVRtti@Core@@@Z 004104e0 f i foundation_win32.release:factory.obj
 0001:0000f530       ?Contains@?$Dictionary@VFourCC@Util@@PBVRtti@Core@@@Util@@QBE_NABVFourCC@2@@Z 00410530 f i foundation_win32.release:factory.obj
 0001:0000f590       ??1?$KeyValuePair@VString@Util@@PBVRtti@Core@@@Util@@QAE@XZ 00410590 f i foundation_win32.release:factory.obj
 0001:0000f5e0       ??0?$FixedArray@V?$Array@V?$KeyValuePair@VString@Util@@PBVRtti@Core@@@Util@@@Util@@@Util@@QAE@H@Z 004105e0 f i foundation_win32.release:factory.obj
 0001:0000f610       ??A?$FixedArray@V?$Array@V?$KeyValuePair@VString@Util@@PBVRtti@Core@@@Util@@@Util@@@Util@@QBEAAV?$Array@V?$KeyValuePair@VString@Util@@PBVRtti@Core@@@Util@@@1@H@Z 00410610 f i foundation_win32.release:factory.obj
 0001:0000f660       ?Size@?$FixedArray@V?$Array@V?$KeyValuePair@VString@Util@@PBVRtti@Core@@@Util@@@Util@@@Util@@QBEHXZ 00410660 f i foundation_win32.release:factory.obj
 0001:0000f670       ?Delete@?$FixedArray@V?$Array@V?$KeyValuePair@VString@Util@@PBVRtti@Core@@@Util@@@Util@@@Util@@AAEXXZ 00410670 f i foundation_win32.release:factory.obj
 0001:0000f6d0       ?Add@?$HashTable@VString@Util@@PBVRtti@Core@@@Util@@QAEXABV?$KeyValuePair@VString@Util@@PBVRtti@Core@@@2@@Z 004106d0 f i foundation_win32.release:factory.obj
 0001:0000f760       ??A?$Array@V?$KeyValuePair@VString@Util@@PBVRtti@Core@@@Util@@@Util@@QBEAAV?$KeyValuePair@VString@Util@@PBVRtti@Core@@@1@H@Z 00410760 f i foundation_win32.release:factory.obj
 0001:0000f7b0       ?Size@?$Array@V?$KeyValuePair@VString@Util@@PBVRtti@Core@@@Util@@@Util@@QBEHXZ 004107b0 f i foundation_win32.release:factory.obj
 0001:0000f7d0       ?Clear@?$Array@V?$KeyValuePair@VString@Util@@PBVRtti@Core@@@Util@@@Util@@QAEXXZ 004107d0 f i foundation_win32.release:factory.obj
 0001:0000f820       ?BinarySearchIndex@?$Array@V?$KeyValuePair@VString@Util@@PBVRtti@Core@@@Util@@@Util@@QBEHABV?$KeyValuePair@VString@Util@@PBVRtti@Core@@@2@@Z 00410820 f i foundation_win32.release:factory.obj
 0001:0000f950       ??0?$KeyValuePair@VString@Util@@PBVRtti@Core@@@Util@@QAE@ABVString@1@@Z 00410950 f i foundation_win32.release:factory.obj
 0001:0000f9b0       ??0?$KeyValuePair@VString@Util@@PBVRtti@Core@@@Util@@QAE@ABVString@1@ABQBVRtti@Core@@@Z 004109b0 f i foundation_win32.release:factory.obj
 0001:0000fa20       ?Value@?$KeyValuePair@VString@Util@@PBVRtti@Core@@@Util@@QAEAAPBVRtti@Core@@XZ 00410a20 f i foundation_win32.release:factory.obj
 0001:0000fa40       ??0?$Array@V?$KeyValuePair@VFourCC@Util@@PBVRtti@Core@@@Util@@@Util@@QAE@XZ 00410a40 f i foundation_win32.release:factory.obj
 0001:0000fa80       ??A?$Array@V?$KeyValuePair@VFourCC@Util@@PBVRtti@Core@@@Util@@@Util@@QBEAAV?$KeyValuePair@VFourCC@Util@@PBVRtti@Core@@@1@H@Z 00410a80 f i foundation_win32.release:factory.obj
 0001:0000fad0       ?Append@?$Array@V?$KeyValuePair@VFourCC@Util@@PBVRtti@Core@@@Util@@@Util@@QAEXABV?$KeyValuePair@VFourCC@Util@@PBVRtti@Core@@@2@@Z 00410ad0 f i foundation_win32.release:factory.obj
 0001:0000fb50       ?InsertSorted@?$Array@V?$KeyValuePair@VFourCC@Util@@PBVRtti@Core@@@Util@@@Util@@QAEHABV?$KeyValuePair@VFourCC@Util@@PBVRtti@Core@@@2@@Z 00410b50 f i foundation_win32.release:factory.obj
 0001:0000fdc0       ?Clear@?$Array@V?$KeyValuePair@VFourCC@Util@@PBVRtti@Core@@@Util@@@Util@@QAEXXZ 00410dc0 f i foundation_win32.release:factory.obj
 0001:0000fe10       ?BinarySearchIndex@?$Array@V?$KeyValuePair@VFourCC@Util@@PBVRtti@Core@@@Util@@@Util@@QBEHABV?$KeyValuePair@VFourCC@Util@@PBVRtti@Core@@@2@@Z 00410e10 f i foundation_win32.release:factory.obj
 0001:0000ff40       ?Delete@?$Array@V?$KeyValuePair@VFourCC@Util@@PBVRtti@Core@@@Util@@@Util@@AAEXXZ 00410f40 f i foundation_win32.release:factory.obj
 0001:0000ffa0       ?FindIndex@?$Dictionary@VFourCC@Util@@PBVRtti@Core@@@Util@@QBEHABVFourCC@2@@Z 00410fa0 f i foundation_win32.release:factory.obj
 0001:0000fff0       ??0?$KeyValuePair@VFourCC@Util@@PBVRtti@Core@@@Util@@QAE@ABVFourCC@1@@Z 00410ff0 f i foundation_win32.release:factory.obj
 0001:00010010       ??0?$KeyValuePair@VFourCC@Util@@PBVRtti@Core@@@Util@@QAE@ABVFourCC@1@ABQBVRtti@Core@@@Z 00411010 f i foundation_win32.release:factory.obj
 0001:00010040       ?Value@?$KeyValuePair@VFourCC@Util@@PBVRtti@Core@@@Util@@QAEAAPBVRtti@Core@@XZ 00411040 f i foundation_win32.release:factory.obj
 0001:00010060       ??_E?$Array@V?$KeyValuePair@VString@Util@@PBVRtti@Core@@@Util@@@Util@@QAEPAXI@Z 00411060 f i foundation_win32.release:factory.obj
 0001:00010100       ?Alloc@?$FixedArray@V?$Array@V?$KeyValuePair@VString@Util@@PBVRtti@Core@@@Util@@@Util@@@Util@@AAEXH@Z 00411100 f i foundation_win32.release:factory.obj
 0001:000101d0       ??1?$Array@V?$KeyValuePair@VString@Util@@PBVRtti@Core@@@Util@@@Util@@QAE@XZ 004111d0 f i foundation_win32.release:factory.obj
 0001:000101f0       ?InsertSorted@?$Array@V?$KeyValuePair@VString@Util@@PBVRtti@Core@@@Util@@@Util@@QAEHABV?$KeyValuePair@VString@Util@@PBVRtti@Core@@@2@@Z 004111f0 f i foundation_win32.release:factory.obj
 0001:00010460       ?Destroy@?$Array@V?$KeyValuePair@VString@Util@@PBVRtti@Core@@@Util@@@Util@@AAEXPAV?$KeyValuePair@VString@Util@@PBVRtti@Core@@@2@@Z 00411460 f i foundation_win32.release:factory.obj
 0001:00010480       ??9?$KeyValuePair@VString@Util@@PBVRtti@Core@@@Util@@QBE_NABV01@@Z 00411480 f i foundation_win32.release:factory.obj
 0001:000104a0       ??O?$KeyValuePair@VString@Util@@PBVRtti@Core@@@Util@@QBE_NABV01@@Z 004114a0 f i foundation_win32.release:factory.obj
 0001:000104c0       ??M?$KeyValuePair@VString@Util@@PBVRtti@Core@@@Util@@QBE_NABV01@@Z 004114c0 f i foundation_win32.release:factory.obj
 0001:000104e0       ?Key@?$KeyValuePair@VString@Util@@PBVRtti@Core@@@Util@@QBEABVString@2@XZ 004114e0 f i foundation_win32.release:factory.obj
 0001:000104f0       ?Size@?$Array@V?$KeyValuePair@VFourCC@Util@@PBVRtti@Core@@@Util@@@Util@@QBEHXZ 004114f0 f i foundation_win32.release:factory.obj
 0001:00010510       ?Insert@?$Array@V?$KeyValuePair@VFourCC@Util@@PBVRtti@Core@@@Util@@@Util@@QAEXHABV?$KeyValuePair@VFourCC@Util@@PBVRtti@Core@@@2@@Z 00411510 f i foundation_win32.release:factory.obj
 0001:00010580       ?InsertAtEndOfIdenticalRange@?$Array@V?$KeyValuePair@VFourCC@Util@@PBVRtti@Core@@@Util@@@Util@@QAEHHABV?$KeyValuePair@VFourCC@Util@@PBVRtti@Core@@@2@@Z 00411580 f i foundation_win32.release:factory.obj
 0001:00010600       ?Destroy@?$Array@V?$KeyValuePair@VFourCC@Util@@PBVRtti@Core@@@Util@@@Util@@AAEXPAV?$KeyValuePair@VFourCC@Util@@PBVRtti@Core@@@2@@Z 00411600 f i foundation_win32.release:factory.obj
 0001:00010610       ?Grow@?$Array@V?$KeyValuePair@VFourCC@Util@@PBVRtti@Core@@@Util@@@Util@@AAEXXZ 00411610 f i foundation_win32.release:factory.obj
 0001:00010690       ??4?$KeyValuePair@VFourCC@Util@@PBVRtti@Core@@@Util@@QAEXABV01@@Z 00411690 f i foundation_win32.release:factory.obj
 0001:000106c0       ??9?$KeyValuePair@VFourCC@Util@@PBVRtti@Core@@@Util@@QBE_NABV01@@Z 004116c0 f i foundation_win32.release:factory.obj
 0001:000106e0       ??O?$KeyValuePair@VFourCC@Util@@PBVRtti@Core@@@Util@@QBE_NABV01@@Z 004116e0 f i foundation_win32.release:factory.obj
 0001:00010700       ??M?$KeyValuePair@VFourCC@Util@@PBVRtti@Core@@@Util@@QBE_NABV01@@Z 00411700 f i foundation_win32.release:factory.obj
 0001:00010720       ??_G?$KeyValuePair@VString@Util@@PBVRtti@Core@@@Util@@QAEPAXI@Z 00411720 f i foundation_win32.release:factory.obj
 0001:00010790       ??0?$Array@V?$KeyValuePair@VString@Util@@PBVRtti@Core@@@Util@@@Util@@QAE@XZ 00411790 f i foundation_win32.release:factory.obj
 0001:000107d0       ?Append@?$Array@V?$KeyValuePair@VString@Util@@PBVRtti@Core@@@Util@@@Util@@QAEXABV?$KeyValuePair@VString@Util@@PBVRtti@Core@@@2@@Z 004117d0 f i foundation_win32.release:factory.obj
 0001:00010850       ?Insert@?$Array@V?$KeyValuePair@VString@Util@@PBVRtti@Core@@@Util@@@Util@@QAEXHABV?$KeyValuePair@VString@Util@@PBVRtti@Core@@@2@@Z 00411850 f i foundation_win32.release:factory.obj
 0001:000108c0       ?InsertAtEndOfIdenticalRange@?$Array@V?$KeyValuePair@VString@Util@@PBVRtti@Core@@@Util@@@Util@@QAEHHABV?$KeyValuePair@VString@Util@@PBVRtti@Core@@@2@@Z 004118c0 f i foundation_win32.release:factory.obj
 0001:00010940       ?Delete@?$Array@V?$KeyValuePair@VString@Util@@PBVRtti@Core@@@Util@@@Util@@AAEXXZ 00411940 f i foundation_win32.release:factory.obj
 0001:000109b0       ?GrowTo@?$Array@V?$KeyValuePair@VFourCC@Util@@PBVRtti@Core@@@Util@@@Util@@AAEXH@Z 004119b0 f i foundation_win32.release:factory.obj
 0001:00010aa0       ?Move@?$Array@V?$KeyValuePair@VFourCC@Util@@PBVRtti@Core@@@Util@@@Util@@AAEXHH@Z 00411aa0 f i foundation_win32.release:factory.obj
 0001:00010c30       ??_E?$KeyValuePair@VString@Util@@PBVRtti@Core@@@Util@@QAEPAXI@Z 00411c30 f i foundation_win32.release:factory.obj
 0001:00010d40       ?Grow@?$Array@V?$KeyValuePair@VString@Util@@PBVRtti@Core@@@Util@@@Util@@AAEXXZ 00411d40 f i foundation_win32.release:factory.obj
 0001:00010dc0       ?Move@?$Array@V?$KeyValuePair@VString@Util@@PBVRtti@Core@@@Util@@@Util@@AAEXHH@Z 00411dc0 f i foundation_win32.release:factory.obj
 0001:00010f50       ??4?$KeyValuePair@VString@Util@@PBVRtti@Core@@@Util@@QAEXABV01@@Z 00411f50 f i foundation_win32.release:factory.obj
 0001:00010fa0       ??0?$KeyValuePair@VFourCC@Util@@PBVRtti@Core@@@Util@@QAE@XZ 00411fa0 f i foundation_win32.release:factory.obj
 0001:00010fc0       ?GrowTo@?$Array@V?$KeyValuePair@VString@Util@@PBVRtti@Core@@@Util@@@Util@@AAEXH@Z 00411fc0 f i foundation_win32.release:factory.obj
 0001:000110e0       ??0?$KeyValuePair@VString@Util@@PBVRtti@Core@@@Util@@QAE@XZ 004120e0 f i foundation_win32.release:factory.obj
 0001:00011120       ?SetupHeaps@Memory@@YAXXZ  00412120 f   foundation_win32.release:win360memoryconfig.obj
 0001:00011280       ?GetHeapTypeName@Memory@@YAPBDW4HeapType@1@@Z 00412280 f   foundation_win32.release:win360memoryconfig.obj
 0001:00011340       ??2Console@IO@@SAPAXI@Z    00412340 f i foundation_win32.release:console.obj
 0001:00011350       ??3Console@IO@@SAXPAX@Z    00412350 f i foundation_win32.release:console.obj
 0001:00011370       ?IsOpen@Console@IO@@QBE_NXZ 00412370 f i foundation_win32.release:console.obj
 0001:00011390       ?GetRtti@Console@IO@@UBEPAVRtti@Core@@XZ 00412390 f   foundation_win32.release:console.obj
 0001:000113a0       ?FactoryCreator@Console@IO@@SAPAVRefCounted@Core@@XZ 004123a0 f   foundation_win32.release:console.obj
 0001:000113b0       ?Create@Console@IO@@SAPAV12@XZ 004123b0 f   foundation_win32.release:console.obj
 0001:000113f0       ?RegisterWithFactory@Console@IO@@SA_NXZ 004123f0 f   foundation_win32.release:console.obj
 0001:000114f0       ??0Console@IO@@QAE@XZ      004124f0 f   foundation_win32.release:console.obj
 0001:00011570       ??_GConsole@IO@@UAEPAXI@Z  00412570 f i foundation_win32.release:console.obj
 0001:00011570       ??_EConsole@IO@@UAEPAXI@Z  00412570 f i  CIL library: CIL module
 0001:000115a0       ??1Console@IO@@UAE@XZ      004125a0 f   foundation_win32.release:console.obj
 0001:00011650       ?Open@Console@IO@@QAEXXZ   00412650 f   foundation_win32.release:console.obj
 0001:000116e0       ?Close@Console@IO@@QAEXXZ  004126e0 f   foundation_win32.release:console.obj
 0001:00011780       ?Update@Console@IO@@QAEXXZ 00412780 f   foundation_win32.release:console.obj
 0001:00011830       ?AttachHandler@Console@IO@@QAEXABV?$Ptr@VConsoleHandler@IO@@@@@Z 00412830 f   foundation_win32.release:console.obj
 0001:000118c0       ?RemoveHandler@Console@IO@@QAEXABV?$Ptr@VConsoleHandler@IO@@@@@Z 004128c0 f   foundation_win32.release:console.obj
 0001:00011990       ?HasInput@Console@IO@@QBE_NXZ 00412990 f   foundation_win32.release:console.obj
 0001:00011a60       ?GetInput@Console@IO@@QBE?AVString@Util@@XZ 00412a60 f   foundation_win32.release:console.obj
 0001:00011bf0       ?Print@Console@IO@@QAAXPBDZZ 00412bf0 f   foundation_win32.release:console.obj
 0001:00011c50       ?Print@Console@IO@@QAAXPBDPAD@Z 00412c50 f   foundation_win32.release:console.obj
 0001:00011d40       ?Print@Console@IO@@QAEXABVString@Util@@@Z 00412d40 f   foundation_win32.release:console.obj
 0001:00011e00       ?Error@Console@IO@@QAAXPBDZZ 00412e00 f   foundation_win32.release:console.obj
 0001:00011e60       ?Error@Console@IO@@QAAXPBDPAD@Z 00412e60 f   foundation_win32.release:console.obj
 0001:00011f50       ?DebugOut@Console@IO@@QAAXPBDZZ 00412f50 f   foundation_win32.release:console.obj
 0001:00011fb0       ?DebugOut@Console@IO@@QAAXPBDPAD@Z 00412fb0 f   foundation_win32.release:console.obj
 0001:000120a0       ?Warning@Console@IO@@QAAXPBDZZ 004130a0 f   foundation_win32.release:console.obj
 0001:00012100       ?Warning@Console@IO@@QAAXPBDPAD@Z 00413100 f   foundation_win32.release:console.obj
 0001:000121f0       ?Confirm@Console@IO@@QAAXPBDZZ 004131f0 f   foundation_win32.release:console.obj
 0001:00012250       ?Confirm@Console@IO@@QAAXPBDPAD@Z 00413250 f   foundation_win32.release:console.obj
 0001:00012340       ??0?$Array@V?$Ptr@VConsoleHandler@IO@@@@@Util@@QAE@XZ 00413340 f i foundation_win32.release:console.obj
 0001:00012380       ??1?$Array@V?$Ptr@VConsoleHandler@IO@@@@@Util@@QAE@XZ 00413380 f i foundation_win32.release:console.obj
 0001:000123a0       ??A?$Array@V?$Ptr@VConsoleHandler@IO@@@@@Util@@QBEAAV?$Ptr@VConsoleHandler@IO@@@@H@Z 004133a0 f i foundation_win32.release:console.obj
 0001:000123f0       ?Size@?$Array@V?$Ptr@VConsoleHandler@IO@@@@@Util@@QBEHXZ 004133f0 f i foundation_win32.release:console.obj
 0001:00012410       ?EraseIndex@?$Array@V?$Ptr@VConsoleHandler@IO@@@@@Util@@QAEXH@Z 00413410 f i foundation_win32.release:console.obj
 0001:00012490       ?Insert@?$Array@V?$Ptr@VConsoleHandler@IO@@@@@Util@@QAEXHABV?$Ptr@VConsoleHandler@IO@@@@@Z 00413490 f i foundation_win32.release:console.obj
 0001:00012500       ?FindIndex@?$Array@V?$Ptr@VConsoleHandler@IO@@@@@Util@@QBEHABV?$Ptr@VConsoleHandler@IO@@@@@Z 00413500 f i foundation_win32.release:console.obj
 0001:00012560       ??0?$Ptr@VConsoleHandler@IO@@@@QAE@PAVConsoleHandler@IO@@@Z 00413560 f i foundation_win32.release:console.obj
 0001:000125a0       ??C?$Ptr@VConsoleHandler@IO@@@@QBEPAVConsoleHandler@IO@@XZ 004135a0 f i foundation_win32.release:console.obj
 0001:000125e0       ?isvalid@?$Ptr@VConsoleHandler@IO@@@@QBE_NXZ 004135e0 f i foundation_win32.release:console.obj
 0001:00012600       ?Append@?$Array@V?$Ptr@VConsoleHandler@IO@@@@@Util@@QAEXABV?$Ptr@VConsoleHandler@IO@@@@@Z 00413600 f i foundation_win32.release:console.obj
 0001:00012680       ?Destroy@?$Array@V?$Ptr@VConsoleHandler@IO@@@@@Util@@AAEXPAV?$Ptr@VConsoleHandler@IO@@@@@Z 00413680 f i foundation_win32.release:console.obj
 0001:000126b0       ?Delete@?$Array@V?$Ptr@VConsoleHandler@IO@@@@@Util@@AAEXXZ 004136b0 f i foundation_win32.release:console.obj
 0001:00012720       ?Move@?$Array@V?$Ptr@VConsoleHandler@IO@@@@@Util@@AAEXHH@Z 00413720 f i foundation_win32.release:console.obj
 0001:000128b0       ??4?$Ptr@VConsoleHandler@IO@@@@QAEXABV0@@Z 004138b0 f i foundation_win32.release:console.obj
 0001:00012910       ??8?$Ptr@VConsoleHandler@IO@@@@QBE_NABV0@@Z 00413910 f i foundation_win32.release:console.obj
 0001:00012930       ??_G?$Ptr@VConsoleHandler@IO@@@@QAEPAXI@Z 00413930 f i foundation_win32.release:console.obj
 0001:00012960       ?Grow@?$Array@V?$Ptr@VConsoleHandler@IO@@@@@Util@@AAEXXZ 00413960 f i foundation_win32.release:console.obj
 0001:000129e0       ??0?$Ptr@VConsoleHandler@IO@@@@QAE@XZ 004139e0 f i foundation_win32.release:console.obj
 0001:00012a00       ?GrowTo@?$Array@V?$Ptr@VConsoleHandler@IO@@@@@Util@@AAEXH@Z 00413a00 f i foundation_win32.release:console.obj
 0001:00012b20       ?Instance@LocalStringAtomTable@Util@@SAPAV12@XZ 00413b20 f i foundation_win32.release:stringatom.obj
 0001:00012b60       ?Instance@GlobalStringAtomTable@Util@@SAPAV12@XZ 00413b60 f i foundation_win32.release:stringatom.obj
 0001:00012b90       ?Setup@StringAtom@Util@@AAEXPBD@Z 00413b90 f   foundation_win32.release:stringatom.obj
 0001:00012c60       ??8StringAtom@Util@@QBE_NPBD@Z 00413c60 f   foundation_win32.release:stringatom.obj
 0001:00012ce0       ??9StringAtom@Util@@QBE_NPBD@Z 00413ce0 f   foundation_win32.release:stringatom.obj
 0001:00012d60       ??0StringAtom@Util@@QAE@PBD@Z 00413d60 f i foundation_win32.release:coreserver.obj
 0001:00012d90       ??2CoreServer@Core@@SAPAXI@Z 00413d90 f i foundation_win32.release:coreserver.obj
 0001:00012da0       ??3CoreServer@Core@@SAXPAX@Z 00413da0 f i foundation_win32.release:coreserver.obj
 0001:00012dc0       ?IsOpen@CoreServer@Core@@QBE_NXZ 00413dc0 f i foundation_win32.release:coreserver.obj
 0001:00012de0       ?GetRtti@CoreServer@Core@@UBEPAVRtti@2@XZ 00413de0 f   foundation_win32.release:coreserver.obj
 0001:00012df0       ?FactoryCreator@CoreServer@Core@@SAPAVRefCounted@2@XZ 00413df0 f   foundation_win32.release:coreserver.obj
 0001:00012e00       ?Create@CoreServer@Core@@SAPAV12@XZ 00413e00 f   foundation_win32.release:coreserver.obj
 0001:00012e40       ?RegisterWithFactory@CoreServer@Core@@SA_NXZ 00413e40 f   foundation_win32.release:coreserver.obj
 0001:00012f40       ??0CoreServer@Core@@QAE@XZ 00413f40 f   foundation_win32.release:coreserver.obj
 0001:00013030       ??_GCoreServer@Core@@UAEPAXI@Z 00414030 f i foundation_win32.release:coreserver.obj
 0001:00013030       ??_ECoreServer@Core@@UAEPAXI@Z 00414030 f i  CIL library: CIL module
 0001:00013060       ??1CoreServer@Core@@UAE@XZ 00414060 f   foundation_win32.release:coreserver.obj
 0001:000130e0       ?Open@CoreServer@Core@@QAEXXZ 004140e0 f   foundation_win32.release:coreserver.obj
 0001:00013140       ?Close@CoreServer@Core@@QAEXXZ 00414140 f   foundation_win32.release:coreserver.obj
 0001:00013190       ?Trigger@CoreServer@Core@@QAEXXZ 00414190 f   foundation_win32.release:coreserver.obj
 0001:000131b0       ??0?$Ptr@VConsole@IO@@@@QAE@XZ 004141b0 f i foundation_win32.release:coreserver.obj
 0001:000131d0       ??1?$Ptr@VConsole@IO@@@@QAE@XZ 004141d0 f i foundation_win32.release:coreserver.obj
 0001:00013200       ??4?$Ptr@VConsole@IO@@@@QAEXPAVConsole@IO@@@Z 00414200 f i foundation_win32.release:coreserver.obj
 0001:00013260       ??C?$Ptr@VConsole@IO@@@@QBEPAVConsole@IO@@XZ 00414260 f i foundation_win32.release:coreserver.obj
 0001:000132a0       ?IsOpen@ConsoleHandler@IO@@QBE_NXZ 004142a0 f i foundation_win32.release:logfileconsolehandler.obj
 0001:000132c0       ??0URI@IO@@QAE@PBD@Z       004142c0 f i foundation_win32.release:logfileconsolehandler.obj
 0001:000134a0       ?IsOpen@StreamWriter@IO@@QBE_NXZ 004144a0 f i foundation_win32.release:logfileconsolehandler.obj
 0001:000134c0       ??2LogFileConsoleHandler@IO@@SAPAXI@Z 004144c0 f i foundation_win32.release:logfileconsolehandler.obj
 0001:000134d0       ??3LogFileConsoleHandler@IO@@SAXPAX@Z 004144d0 f i foundation_win32.release:logfileconsolehandler.obj
 0001:000134f0       ?Value@StringAtom@Util@@QBEPBDXZ 004144f0 f i foundation_win32.release:logfileconsolehandler.obj
 0001:00013500       ?Instance@CoreServer@Core@@SAPAV12@XZ 00414500 f i foundation_win32.release:logfileconsolehandler.obj
 0001:00013540       ?GetAppName@CoreServer@Core@@QBEABVStringAtom@Util@@XZ 00414540 f i foundation_win32.release:logfileconsolehandler.obj
 0001:00013560       ?GetRtti@LogFileConsoleHandler@IO@@UBEPAVRtti@Core@@XZ 00414560 f   foundation_win32.release:logfileconsolehandler.obj
 0001:00013570       ?FactoryCreator@LogFileConsoleHandler@IO@@SAPAVRefCounted@Core@@XZ 00414570 f   foundation_win32.release:logfileconsolehandler.obj
 0001:00013580       ?Create@LogFileConsoleHandler@IO@@SAPAV12@XZ 00414580 f   foundation_win32.release:logfileconsolehandler.obj
 0001:000135c0       ?RegisterWithFactory@LogFileConsoleHandler@IO@@SA_NXZ 004145c0 f   foundation_win32.release:logfileconsolehandler.obj
 0001:000136c0       ??0LogFileConsoleHandler@IO@@QAE@XZ 004146c0 f   foundation_win32.release:logfileconsolehandler.obj
 0001:00013700       ??_GLogFileConsoleHandler@IO@@UAEPAXI@Z 00414700 f i foundation_win32.release:logfileconsolehandler.obj
 0001:00013700       ??_ELogFileConsoleHandler@IO@@UAEPAXI@Z 00414700 f i  CIL library: CIL module
 0001:00013730       ??1LogFileConsoleHandler@IO@@UAE@XZ 00414730 f   foundation_win32.release:logfileconsolehandler.obj
 0001:00013780       ?Open@LogFileConsoleHandler@IO@@UAEXXZ 00414780 f   foundation_win32.release:logfileconsolehandler.obj
 0001:000139e0       ?Close@LogFileConsoleHandler@IO@@UAEXXZ 004149e0 f   foundation_win32.release:logfileconsolehandler.obj
 0001:00013a70       ?Print@LogFileConsoleHandler@IO@@UAEXABVString@Util@@@Z 00414a70 f   foundation_win32.release:logfileconsolehandler.obj
 0001:00013ac0       ?Error@LogFileConsoleHandler@IO@@UAEXABVString@Util@@@Z 00414ac0 f   foundation_win32.release:logfileconsolehandler.obj
 0001:00013b90       ?Warning@LogFileConsoleHandler@IO@@UAEXABVString@Util@@@Z 00414b90 f   foundation_win32.release:logfileconsolehandler.obj
 0001:00013c40       ?DebugOut@LogFileConsoleHandler@IO@@UAEXABVString@Util@@@Z 00414c40 f   foundation_win32.release:logfileconsolehandler.obj
 0001:00013cf0       ??0?$Ptr@VStream@IO@@@@QAE@XZ 00414cf0 f i foundation_win32.release:logfileconsolehandler.obj
 0001:00013d10       ??4?$Ptr@VStream@IO@@@@QAEXPAVStream@IO@@@Z 00414d10 f i foundation_win32.release:logfileconsolehandler.obj
 0001:00013d70       ??4?$Ptr@VStream@IO@@@@QAEXABV0@@Z 00414d70 f i foundation_win32.release:logfileconsolehandler.obj
 0001:00013dd0       ??0?$Ptr@VTextWriter@IO@@@@QAE@XZ 00414dd0 f i foundation_win32.release:logfileconsolehandler.obj
 0001:00013df0       ??1?$Ptr@VTextWriter@IO@@@@QAE@XZ 00414df0 f i foundation_win32.release:logfileconsolehandler.obj
 0001:00013e20       ??4?$Ptr@VTextWriter@IO@@@@QAEXPAVTextWriter@IO@@@Z 00414e20 f i foundation_win32.release:logfileconsolehandler.obj
 0001:00013e80       ??C?$Ptr@VTextWriter@IO@@@@QBEPAVTextWriter@IO@@XZ 00414e80 f i foundation_win32.release:logfileconsolehandler.obj
 0001:00013ec0       ?AsFloat4@String@Util@@QBE?AVfloat4@Math@@XZ 00414ec0 f i foundation_win32.release:commandlineargs.obj
 0001:00014040       ??0CommandLineArgs@Util@@QAE@XZ 00415040 f   foundation_win32.release:commandlineargs.obj
 0001:00014060       ??0CommandLineArgs@Util@@QAE@ABVString@1@@Z 00415060 f   foundation_win32.release:commandlineargs.obj
 0001:000140f0       ??0CommandLineArgs@Util@@QAE@HPAPBD@Z 004150f0 f   foundation_win32.release:commandlineargs.obj
 0001:00014190       ?Error@CommandLineArgs@Util@@ABEXABVString@2@@Z 00415190 f   foundation_win32.release:commandlineargs.obj
 0001:000141d0       ?GetCmdName@CommandLineArgs@Util@@QBEABVString@2@XZ 004151d0 f   foundation_win32.release:commandlineargs.obj
 0001:00014210       ?HasArg@CommandLineArgs@Util@@QBE_NABVString@2@@Z 00415210 f   foundation_win32.release:commandlineargs.obj
 0001:00014240       ?FindArgIndex@CommandLineArgs@Util@@ABEHABVString@2@@Z 00415240 f   foundation_win32.release:commandlineargs.obj
 0001:000142a0       ?GetString@CommandLineArgs@Util@@QBEABVString@2@ABV32@0@Z 004152a0 f   foundation_win32.release:commandlineargs.obj
 0001:000142e0       ?GetInt@CommandLineArgs@Util@@QBEHABVString@2@H@Z 004152e0 f   foundation_win32.release:commandlineargs.obj
 0001:00014330       ?GetFloat@CommandLineArgs@Util@@QBEMABVString@2@M@Z 00415330 f   foundation_win32.release:commandlineargs.obj
 0001:00014380       ?GetBool@CommandLineArgs@Util@@QBE_NABVString@2@_N@Z 00415380 f   foundation_win32.release:commandlineargs.obj
 0001:000143d0       ?GetBoolFlag@CommandLineArgs@Util@@QBE_NABVString@2@@Z 004153d0 f   foundation_win32.release:commandlineargs.obj
 0001:000143f0       ?GetFloat4@CommandLineArgs@Util@@QBE?AVfloat4@Math@@ABVString@2@ABV34@@Z 004153f0 f   foundation_win32.release:commandlineargs.obj
 0001:00014460       ?GetMatrix44@CommandLineArgs@Util@@QBE?AVmatrix44@Math@@ABVString@2@ABV34@@Z 00415460 f   foundation_win32.release:commandlineargs.obj
 0001:000144c0       ?GetNumArgs@CommandLineArgs@Util@@QBEHXZ 004154c0 f   foundation_win32.release:commandlineargs.obj
 0001:00014500       ?GetStringAtIndex@CommandLineArgs@Util@@QBEABVString@2@H@Z 00415500 f   foundation_win32.release:commandlineargs.obj
 0001:00014520       ?GetIntAtIndex@CommandLineArgs@Util@@QBEHH@Z 00415520 f   foundation_win32.release:commandlineargs.obj
 0001:00014550       ?GetFloatAtIndex@CommandLineArgs@Util@@QBEMH@Z 00415550 f   foundation_win32.release:commandlineargs.obj
 0001:00014580       ?GetBoolAtIndex@CommandLineArgs@Util@@QBE_NH@Z 00415580 f   foundation_win32.release:commandlineargs.obj
 0001:000145b0       ?GetFloat4AtIndex@CommandLineArgs@Util@@QBE?AVfloat4@Math@@H@Z 004155b0 f   foundation_win32.release:commandlineargs.obj
 0001:000145e0       ?GetMatrix44AtIndex@CommandLineArgs@Util@@QBE?AVmatrix44@Math@@H@Z 004155e0 f   foundation_win32.release:commandlineargs.obj
 0001:00014610       ?AppendCommandString@CommandLineArgs@Util@@QAEXABV12@@Z 00415610 f   foundation_win32.release:commandlineargs.obj
 0001:00014660       ?FindIndex@?$Array@VString@Util@@@Util@@QBEHABVString@2@@Z 00415660 f i foundation_win32.release:commandlineargs.obj
 0001:000146c0       ?SubstituteChar@String@Util@@QAEXDD@Z 004156c0 f i foundation_win32.release:assignregistry.obj
 0001:00014730       ?ConvertBackslashes@String@Util@@QAEXXZ 00415730 f i foundation_win32.release:assignregistry.obj
 0001:00014790       ??0Assign@IO@@QAE@XZ       00415790 f i foundation_win32.release:assignregistry.obj
 0001:000147b0       ??0Assign@IO@@QAE@ABVString@Util@@0@Z 004157b0 f i foundation_win32.release:assignregistry.obj
 0001:00014820       ?GetName@Assign@IO@@QBEABVString@Util@@XZ 00415820 f i foundation_win32.release:assignregistry.obj
 0001:00014860       ??0URI@IO@@QAE@ABV01@@Z    00415860 f i foundation_win32.release:assignregistry.obj
 0001:00014b30       ??2AssignRegistry@IO@@SAPAXI@Z 00415b30 f i foundation_win32.release:assignregistry.obj
 0001:00014b40       ??3AssignRegistry@IO@@SAXPAX@Z 00415b40 f i foundation_win32.release:assignregistry.obj
 0001:00014b60       ?AsString@StringAtom@Util@@QBE?AVString@2@XZ 00415b60 f i foundation_win32.release:assignregistry.obj
 0001:00014bb0       ?GetRootDirectory@CoreServer@Core@@QBEABVStringAtom@Util@@XZ 00415bb0 f i foundation_win32.release:assignregistry.obj
 0001:00014bd0       ?GetRtti@AssignRegistry@IO@@UBEPAVRtti@Core@@XZ 00415bd0 f   foundation_win32.release:assignregistry.obj
 0001:00014be0       ?FactoryCreator@AssignRegistry@IO@@SAPAVRefCounted@Core@@XZ 00415be0 f   foundation_win32.release:assignregistry.obj
 0001:00014bf0       ?Create@AssignRegistry@IO@@SAPAV12@XZ 00415bf0 f   foundation_win32.release:assignregistry.obj
 0001:00014c30       ?RegisterWithFactory@AssignRegistry@IO@@SA_NXZ 00415c30 f   foundation_win32.release:assignregistry.obj
 0001:00014d30       ??0AssignRegistry@IO@@QAE@XZ 00415d30 f   foundation_win32.release:assignregistry.obj
 0001:00014db0       ??_EAssignRegistry@IO@@UAEPAXI@Z 00415db0 f i  CIL library: CIL module
 0001:00014db0       ??_GAssignRegistry@IO@@UAEPAXI@Z 00415db0 f i foundation_win32.release:assignregistry.obj
 0001:00014de0       ??1?$HashTable@VString@Util@@V12@@Util@@QAE@XZ 00415de0 f i foundation_win32.release:assignregistry.obj
 0001:00014e00       ??1AssignRegistry@IO@@UAE@XZ 00415e00 f   foundation_win32.release:assignregistry.obj
 0001:00014e70       ?Setup@AssignRegistry@IO@@QAEXXZ 00415e70 f   foundation_win32.release:assignregistry.obj
 0001:00014ef0       ?Discard@AssignRegistry@IO@@QAEXXZ 00415ef0 f   foundation_win32.release:assignregistry.obj
 0001:00014f70       ?IsValid@AssignRegistry@IO@@QBE_NXZ 00415f70 f   foundation_win32.release:assignregistry.obj
 0001:00014f90       ?SetupSystemAssigns@AssignRegistry@IO@@AAEXXZ 00415f90 f   foundation_win32.release:assignregistry.obj
 0001:000153e0       ??1Assign@IO@@QAE@XZ       004163e0 f i foundation_win32.release:assignregistry.obj
 0001:00015400       ?SetupProjectAssigns@AssignRegistry@IO@@AAEXXZ 00416400 f   foundation_win32.release:assignregistry.obj
 0001:00016240       ?SetAssign@AssignRegistry@IO@@QAEXABVAssign@2@@Z 00417240 f   foundation_win32.release:assignregistry.obj
 0001:00016330       ?HasAssign@AssignRegistry@IO@@QBE_NABVString@Util@@@Z 00417330 f   foundation_win32.release:assignregistry.obj
 0001:000163c0       ?GetAssign@AssignRegistry@IO@@QBE?AVString@Util@@ABV34@@Z 004173c0 f   foundation_win32.release:assignregistry.obj
 0001:000164d0       ?ClearAssign@AssignRegistry@IO@@QAEXABVString@Util@@@Z 004174d0 f   foundation_win32.release:assignregistry.obj
 0001:00016580       ?GetAllAssigns@AssignRegistry@IO@@QBE?AV?$Array@VAssign@IO@@@Util@@XZ 00417580 f   foundation_win32.release:assignregistry.obj
 0001:00016670       ?ResolveAssigns@AssignRegistry@IO@@QBE?AVURI@2@ABV32@@Z 00417670 f   foundation_win32.release:assignregistry.obj
 0001:000167a0       ?ResolveAssignsInString@AssignRegistry@IO@@QBE?AVString@Util@@ABV34@@Z 004177a0 f   foundation_win32.release:assignregistry.obj
 0001:00016b60       ?Value@?$KeyValuePair@VString@Util@@V12@@Util@@QAEAAVString@2@XZ 00417b60 f i foundation_win32.release:assignregistry.obj
 0001:00016b80       ?Key@?$KeyValuePair@VString@Util@@V12@@Util@@QBEABVString@2@XZ 00417b80 f i foundation_win32.release:assignregistry.obj
 0001:00016b90       ??1?$FixedArray@V?$Array@V?$KeyValuePair@VString@Util@@V12@@Util@@@Util@@@Util@@QAE@XZ 00417b90 f i foundation_win32.release:assignregistry.obj
 0001:00016bb0       ??0?$HashTable@VString@Util@@V12@@Util@@QAE@XZ 00417bb0 f i foundation_win32.release:assignregistry.obj
 0001:00016be0       ??A?$HashTable@VString@Util@@V12@@Util@@QBEAAVString@1@ABV21@@Z 00417be0 f i foundation_win32.release:assignregistry.obj
 0001:00016cc0       ?Clear@?$HashTable@VString@Util@@V12@@Util@@QAEXXZ 00417cc0 f i foundation_win32.release:assignregistry.obj
 0001:00016d20       ?Add@?$HashTable@VString@Util@@V12@@Util@@QAEXABV?$KeyValuePair@VString@Util@@V12@@2@@Z 00417d20 f i foundation_win32.release:assignregistry.obj
 0001:00016db0       ?Erase@?$HashTable@VString@Util@@V12@@Util@@QAEXABVString@2@@Z 00417db0 f i foundation_win32.release:assignregistry.obj
 0001:00016e70       ?Contains@?$HashTable@VString@Util@@V12@@Util@@QBE_NABVString@2@@Z 00417e70 f i foundation_win32.release:assignregistry.obj
 0001:00016ef0       ?Content@?$HashTable@VString@Util@@V12@@Util@@QBE?AV?$Array@V?$KeyValuePair@VString@Util@@V12@@Util@@@2@XZ 00417ef0 f i foundation_win32.release:assignregistry.obj
 0001:00016f80       ??0?$Array@VAssign@IO@@@Util@@QAE@ABV01@@Z 00417f80 f i foundation_win32.release:assignregistry.obj
 0001:00016fd0       ??0?$Array@VAssign@IO@@@Util@@QAE@HH@Z 00417fd0 f i foundation_win32.release:assignregistry.obj
 0001:000170c0       ??1?$Array@VAssign@IO@@@Util@@QAE@XZ 004180c0 f i foundation_win32.release:assignregistry.obj
 0001:000170e0       ?Append@?$Array@VAssign@IO@@@Util@@QAEXABVAssign@IO@@@Z 004180e0 f i foundation_win32.release:assignregistry.obj
 0001:00017160       ??A?$Array@V?$KeyValuePair@VString@Util@@V12@@Util@@@Util@@QBEAAV?$KeyValuePair@VString@Util@@V12@@1@H@Z 00418160 f i foundation_win32.release:assignregistry.obj
 0001:000171b0       ??_EAssign@IO@@QAEPAXI@Z   004181b0 f i foundation_win32.release:assignregistry.obj
 0001:00017250       ??4Assign@IO@@QAEAAV01@ABV01@@Z 00418250 f i foundation_win32.release:assignregistry.obj
 0001:00017270       ??0?$KeyValuePair@VString@Util@@V12@@Util@@QAE@ABVString@1@@Z 00418270 f i foundation_win32.release:assignregistry.obj
 0001:00017300       ??0?$FixedArray@V?$Array@V?$KeyValuePair@VString@Util@@V12@@Util@@@Util@@@Util@@QAE@H@Z 00418300 f i foundation_win32.release:assignregistry.obj
 0001:00017330       ??A?$FixedArray@V?$Array@V?$KeyValuePair@VString@Util@@V12@@Util@@@Util@@@Util@@QBEAAV?$Array@V?$KeyValuePair@VString@Util@@V12@@Util@@@1@H@Z 00418330 f i foundation_win32.release:assignregistry.obj
 0001:00017380       ?Size@?$FixedArray@V?$Array@V?$KeyValuePair@VString@Util@@V12@@Util@@@Util@@@Util@@QBEHXZ 00418380 f i foundation_win32.release:assignregistry.obj
 0001:00017390       ?Delete@?$FixedArray@V?$Array@V?$KeyValuePair@VString@Util@@V12@@Util@@@Util@@@Util@@AAEXXZ 00418390 f i foundation_win32.release:assignregistry.obj
 0001:000173f0       ?AppendArray@?$Array@V?$KeyValuePair@VString@Util@@V12@@Util@@@Util@@QAEXABV12@@Z 004183f0 f i foundation_win32.release:assignregistry.obj
 0001:00017440       ?EraseIndex@?$Array@V?$KeyValuePair@VString@Util@@V12@@Util@@@Util@@QAEXH@Z 00418440 f i foundation_win32.release:assignregistry.obj
 0001:000174c0       ?Clear@?$Array@V?$KeyValuePair@VString@Util@@V12@@Util@@@Util@@QAEXXZ 004184c0 f i foundation_win32.release:assignregistry.obj
 0001:00017510       ?BinarySearchIndex@?$Array@V?$KeyValuePair@VString@Util@@V12@@Util@@@Util@@QBEHABV?$KeyValuePair@VString@Util@@V12@@2@@Z 00418510 f i foundation_win32.release:assignregistry.obj
 0001:00017640       ?Copy@?$Array@VAssign@IO@@@Util@@AAEXABV12@@Z 00418640 f i foundation_win32.release:assignregistry.obj
 0001:00017780       ?Delete@?$Array@VAssign@IO@@@Util@@AAEXXZ 00418780 f i foundation_win32.release:assignregistry.obj
 0001:000177f0       ?Grow@?$Array@VAssign@IO@@@Util@@AAEXXZ 004187f0 f i foundation_win32.release:assignregistry.obj
 0001:00017870       ??_E?$Array@V?$KeyValuePair@VString@Util@@V12@@Util@@@Util@@QAEPAXI@Z 00418870 f i foundation_win32.release:assignregistry.obj
 0001:00017910       ?Alloc@?$FixedArray@V?$Array@V?$KeyValuePair@VString@Util@@V12@@Util@@@Util@@@Util@@AAEXH@Z 00418910 f i foundation_win32.release:assignregistry.obj
 0001:000179e0       ?GrowTo@?$Array@VAssign@IO@@@Util@@AAEXH@Z 004189e0 f i foundation_win32.release:assignregistry.obj
 0001:00017bb0       ??0Win360FileTime@Win360@@QAE@XZ 00418bb0 f i foundation_win32.release:win360fswrapper.obj
 0001:00017be0       ?OpenFile@Win360FSWrapper@Win360@@SAPAXABVString@Util@@W4AccessMode@Stream@IO@@W4AccessPattern@67@K@Z 00418be0 f   foundation_win32.release:win360fswrapper.obj
 0001:00017d40       ?CloseFile@Win360FSWrapper@Win360@@SAXPAX@Z 00418d40 f   foundation_win32.release:win360fswrapper.obj
 0001:00017d70       ?Write@Win360FSWrapper@Win360@@SAXPAXPBXH@Z 00418d70 f   foundation_win32.release:win360fswrapper.obj
 0001:00017e00       ?Read@Win360FSWrapper@Win360@@SAHPAX0H@Z 00418e00 f   foundation_win32.release:win360fswrapper.obj
 0001:00017ea0       ?Seek@Win360FSWrapper@Win360@@SAXPAXHW4SeekOrigin@Stream@IO@@@Z 00418ea0 f   foundation_win32.release:win360fswrapper.obj
 0001:00017f20       ?Tell@Win360FSWrapper@Win360@@SAHPAX@Z 00418f20 f   foundation_win32.release:win360fswrapper.obj
 0001:00017f60       ?Flush@Win360FSWrapper@Win360@@SAXPAX@Z 00418f60 f   foundation_win32.release:win360fswrapper.obj
 0001:00017f90       ?Eof@Win360FSWrapper@Win360@@SA_NPAX@Z 00418f90 f   foundation_win32.release:win360fswrapper.obj
 0001:00018000       ?GetFileSize@Win360FSWrapper@Win360@@SAHPAX@Z 00419000 f   foundation_win32.release:win360fswrapper.obj
 0001:00018030       ?SetReadOnly@Win360FSWrapper@Win360@@SAXABVString@Util@@_N@Z 00419030 f   foundation_win32.release:win360fswrapper.obj
 0001:00018100       ?IsReadOnly@Win360FSWrapper@Win360@@SA_NABVString@Util@@@Z 00419100 f   foundation_win32.release:win360fswrapper.obj
 0001:00018170       ?DeleteFile@Win360FSWrapper@Win360@@SA_NABVString@Util@@@Z 00419170 f   foundation_win32.release:win360fswrapper.obj
 0001:000181e0       ?DeleteDirectory@Win360FSWrapper@Win360@@SA_NABVString@Util@@@Z 004191e0 f   foundation_win32.release:win360fswrapper.obj
 0001:00018250       ?FileExists@Win360FSWrapper@Win360@@SA_NABVString@Util@@@Z 00419250 f   foundation_win32.release:win360fswrapper.obj
 0001:000182d0       ?DirectoryExists@Win360FSWrapper@Win360@@SA_NABVString@Util@@@Z 004192d0 f   foundation_win32.release:win360fswrapper.obj
 0001:00018350       ?SetFileWriteTime@Win360FSWrapper@Win360@@SAXABVString@Util@@VWin360FileTime@2@@Z 00419350 f   foundation_win32.release:win360fswrapper.obj
 0001:000183f0       ?GetFileWriteTime@Win360FSWrapper@Win360@@SA?AVWin360FileTime@2@ABVString@Util@@@Z 004193f0 f   foundation_win32.release:win360fswrapper.obj
 0001:00018480       ?CreateDirectoryA@Win360FSWrapper@Win360@@SA_NABVString@Util@@@Z 00419480 f   foundation_win32.release:win360fswrapper.obj
 0001:000184f0       ?ListFiles@Win360FSWrapper@Win360@@SA?AV?$Array@VString@Util@@@Util@@ABVString@4@0@Z 004194f0 f   foundation_win32.release:win360fswrapper.obj
 0001:00018740       ?ListDirectories@Win360FSWrapper@Win360@@SA?AV?$Array@VString@Util@@@Util@@ABVString@4@0@Z 00419740 f   foundation_win32.release:win360fswrapper.obj
 0001:00018af0       ?GetUserDirectory@Win360FSWrapper@Win360@@SA?AVString@Util@@XZ 00419af0 f   foundation_win32.release:win360fswrapper.obj
 0001:00018c20       ?GetAppDataDirectory@Win360FSWrapper@Win360@@SA?AVString@Util@@XZ 00419c20 f   foundation_win32.release:win360fswrapper.obj
 0001:00018d50       ?GetProgramsDirectory@Win360FSWrapper@Win360@@SA?AVString@Util@@XZ 00419d50 f   foundation_win32.release:win360fswrapper.obj
 0001:00018e80       ?GetTempDirectory@Win360FSWrapper@Win360@@SA?AVString@Util@@XZ 00419e80 f   foundation_win32.release:win360fswrapper.obj
 0001:00019010       ?GetBinDirectory@Win360FSWrapper@Win360@@SA?AVString@Util@@XZ 0041a010 f   foundation_win32.release:win360fswrapper.obj
 0001:00019240       ?GetHomeDirectory@Win360FSWrapper@Win360@@SA?AVString@Util@@XZ 0041a240 f   foundation_win32.release:win360fswrapper.obj
 0001:000195b0       ?IsDeviceName@Win360FSWrapper@Win360@@SA_NABVString@Util@@@Z 0041a5b0 f   foundation_win32.release:win360fswrapper.obj
 0001:00019640       ??2RefCounted@Core@@SAPAXI@Z 0041a640 f i foundation_win32.release:refcounted.obj
 0001:00019650       ?GetRtti@RefCounted@Core@@UBEPAVRtti@2@XZ 0041a650 f   foundation_win32.release:refcounted.obj
 0001:00019660       ?FactoryCreator@RefCounted@Core@@SAPAV12@XZ 0041a660 f   foundation_win32.release:refcounted.obj
 0001:00019670       ?Create@RefCounted@Core@@SAPAV12@XZ 0041a670 f   foundation_win32.release:refcounted.obj
 0001:000196c0       ?RegisterWithFactory@RefCounted@Core@@SA_NXZ 0041a6c0 f   foundation_win32.release:refcounted.obj
 0001:000197c0       ??1RefCounted@Core@@MAE@XZ 0041a7c0 f   foundation_win32.release:refcounted.obj
 0001:00019800       ?DumpRefCountingLeaks@RefCounted@Core@@SAXXZ 0041a800 f   foundation_win32.release:refcounted.obj
 0001:00019810       ??2SchemeRegistry@IO@@SAPAXI@Z 0041a810 f i foundation_win32.release:schemeregistry.obj
 0001:00019820       ??3SchemeRegistry@IO@@SAXPAX@Z 0041a820 f i foundation_win32.release:schemeregistry.obj
 0001:00019840       ?GetRtti@SchemeRegistry@IO@@UBEPAVRtti@Core@@XZ 0041a840 f   foundation_win32.release:schemeregistry.obj
 0001:00019850       ?FactoryCreator@SchemeRegistry@IO@@SAPAVRefCounted@Core@@XZ 0041a850 f   foundation_win32.release:schemeregistry.obj
 0001:00019860       ?Create@SchemeRegistry@IO@@SAPAV12@XZ 0041a860 f   foundation_win32.release:schemeregistry.obj
 0001:000198a0       ?RegisterWithFactory@SchemeRegistry@IO@@SA_NXZ 0041a8a0 f   foundation_win32.release:schemeregistry.obj
 0001:000199a0       ??0SchemeRegistry@IO@@QAE@XZ 0041a9a0 f   foundation_win32.release:schemeregistry.obj
 0001:00019a20       ??_ESchemeRegistry@IO@@UAEPAXI@Z 0041aa20 f i  CIL library: CIL module
 0001:00019a20       ??_GSchemeRegistry@IO@@UAEPAXI@Z 0041aa20 f i foundation_win32.release:schemeregistry.obj
 0001:00019a50       ??1?$Dictionary@VString@Util@@PBVRtti@Core@@@Util@@QAE@XZ 0041aa50 f i foundation_win32.release:schemeregistry.obj
 0001:00019a70       ??1SchemeRegistry@IO@@UAE@XZ 0041aa70 f   foundation_win32.release:schemeregistry.obj
 0001:00019ae0       ?Setup@SchemeRegistry@IO@@QAEXXZ 0041aae0 f   foundation_win32.release:schemeregistry.obj
 0001:00019b60       ?Discard@SchemeRegistry@IO@@QAEXXZ 0041ab60 f   foundation_win32.release:schemeregistry.obj
 0001:00019be0       ?IsValid@SchemeRegistry@IO@@QBE_NXZ 0041abe0 f   foundation_win32.release:schemeregistry.obj
 0001:00019c00       ?RegisterUriScheme@SchemeRegistry@IO@@QAEXABVString@Util@@ABVRtti@Core@@@Z 0041ac00 f   foundation_win32.release:schemeregistry.obj
 0001:00019cd0       ?UnregisterUriScheme@SchemeRegistry@IO@@QAEXABVString@Util@@@Z 0041acd0 f   foundation_win32.release:schemeregistry.obj
 0001:00019d80       ?IsUriSchemeRegistered@SchemeRegistry@IO@@QBE_NABVString@Util@@@Z 0041ad80 f   foundation_win32.release:schemeregistry.obj
 0001:00019e00       ?GetStreamClassByUriScheme@SchemeRegistry@IO@@QBEABVRtti@Core@@ABVString@Util@@@Z 0041ae00 f   foundation_win32.release:schemeregistry.obj
 0001:00019e90       ?GetAllRegisteredUriSchemes@SchemeRegistry@IO@@QBE?AV?$Array@VString@Util@@@Util@@XZ 0041ae90 f   foundation_win32.release:schemeregistry.obj
 0001:00019f00       ?SetupStandardSchemes@SchemeRegistry@IO@@AAEXXZ 0041af00 f   foundation_win32.release:schemeregistry.obj
 0001:0001a040       ??0?$Dictionary@VString@Util@@PBVRtti@Core@@@Util@@QAE@XZ 0041b040 f i foundation_win32.release:schemeregistry.obj
 0001:0001a060       ??A?$Dictionary@VString@Util@@PBVRtti@Core@@@Util@@QBEABQBVRtti@Core@@ABVString@1@@Z 0041b060 f i foundation_win32.release:schemeregistry.obj
 0001:0001a0b0       ?Clear@?$Dictionary@VString@Util@@PBVRtti@Core@@@Util@@QAEXXZ 0041b0b0 f i foundation_win32.release:schemeregistry.obj
 0001:0001a0f0       ?Add@?$Dictionary@VString@Util@@PBVRtti@Core@@@Util@@QAEXABVString@2@ABQBVRtti@Core@@@Z 0041b0f0 f i foundation_win32.release:schemeregistry.obj
 0001:0001a140       ?Erase@?$Dictionary@VString@Util@@PBVRtti@Core@@@Util@@QAEXABVString@2@@Z 0041b140 f i foundation_win32.release:schemeregistry.obj
 0001:0001a1f0       ?Contains@?$Dictionary@VString@Util@@PBVRtti@Core@@@Util@@QBE_NABVString@2@@Z 0041b1f0 f i foundation_win32.release:schemeregistry.obj
 0001:0001a280       ?KeysAsArray@?$Dictionary@VString@Util@@PBVRtti@Core@@@Util@@QBE?AV?$Array@VString@Util@@@2@XZ 0041b280 f i foundation_win32.release:schemeregistry.obj
 0001:0001a2a0       ?EraseIndex@?$Array@V?$KeyValuePair@VString@Util@@PBVRtti@Core@@@Util@@@Util@@QAEXH@Z 0041b2a0 f i foundation_win32.release:schemeregistry.obj
 0001:0001a320       ?FindIndex@?$Dictionary@VString@Util@@PBVRtti@Core@@@Util@@QBEHABVString@2@@Z 0041b320 f i foundation_win32.release:schemeregistry.obj
 0001:0001a3a0       ??$KeysAs@V?$Array@VString@Util@@@Util@@@?$Dictionary@VString@Util@@PBVRtti@Core@@@Util@@QBE?AV?$Array@VString@Util@@@1@XZ 0041b3a0 f i foundation_win32.release:schemeregistry.obj
 0001:0001a440       ?Size@?$Dictionary@VString@Util@@PBVRtti@Core@@@Util@@QBEHXZ 0041b440 f i foundation_win32.release:schemeregistry.obj
 0001:0001a460       ??2ArchiveFileSystem@IO@@SAPAXI@Z 0041b460 f i foundation_win32.release:archivefilesystem.obj
 0001:0001a470       ??3ArchiveFileSystem@IO@@SAXPAX@Z 0041b470 f i foundation_win32.release:archivefilesystem.obj
 0001:0001a490       ?GetRtti@ArchiveFileSystem@IO@@UBEPAVRtti@Core@@XZ 0041b490 f   foundation_win32.release:archivefilesystem.obj
 0001:0001a4a0       ?FactoryCreator@ArchiveFileSystem@IO@@SAPAVRefCounted@Core@@XZ 0041b4a0 f   foundation_win32.release:archivefilesystem.obj
 0001:0001a4b0       ?Create@ArchiveFileSystem@IO@@SAPAV12@XZ 0041b4b0 f   foundation_win32.release:archivefilesystem.obj
 0001:0001a4f0       ?RegisterWithFactory@ArchiveFileSystem@IO@@SA_NXZ 0041b4f0 f   foundation_win32.release:archivefilesystem.obj
 0001:0001a5f0       ??0ArchiveFileSystem@IO@@QAE@XZ 0041b5f0 f   foundation_win32.release:archivefilesystem.obj
 0001:0001a640       ??_GArchiveFileSystem@IO@@UAEPAXI@Z 0041b640 f i foundation_win32.release:archivefilesystem.obj
 0001:0001a640       ??_EArchiveFileSystem@IO@@UAEPAXI@Z 0041b640 f i  CIL library: CIL module
 0001:0001a670       ??1ArchiveFileSystem@IO@@UAE@XZ 0041b670 f   foundation_win32.release:archivefilesystem.obj
 0001:0001a6c0       ?GetNumCpuCores@SystemInfoBase@Base@@QBEHXZ 0041b6c0 f i foundation_win32.release:win360criticalsection.obj
 0001:0001a6e0       ??0Win360CriticalSection@Win360@@QAE@XZ 0041b6e0 f   foundation_win32.release:win360criticalsection.obj
 0001:0001a750       ??1Win360CriticalSection@Win360@@QAE@XZ 0041b750 f   foundation_win32.release:win360criticalsection.obj
 0001:0001a780       ?IsValid@ArchiveFileSystemBase@IO@@QBE_NXZ 0041b780 f i foundation_win32.release:zipfilesystem.obj
 0001:0001a7a0       ??2ZipFileSystem@IO@@SAPAXI@Z 0041b7a0 f i foundation_win32.release:zipfilesystem.obj
 0001:0001a7b0       ??3ZipFileSystem@IO@@SAXPAX@Z 0041b7b0 f i foundation_win32.release:zipfilesystem.obj
 0001:0001a7d0       ?GetRtti@ZipFileSystem@IO@@UBEPAVRtti@Core@@XZ 0041b7d0 f   foundation_win32.release:zipfilesystem.obj
 0001:0001a7e0       ?FactoryCreator@ZipFileSystem@IO@@SAPAVRefCounted@Core@@XZ 0041b7e0 f   foundation_win32.release:zipfilesystem.obj
 0001:0001a7f0       ?Create@ZipFileSystem@IO@@SAPAV12@XZ 0041b7f0 f   foundation_win32.release:zipfilesystem.obj
 0001:0001a830       ?RegisterWithFactory@ZipFileSystem@IO@@SA_NXZ 0041b830 f   foundation_win32.release:zipfilesystem.obj
 0001:0001a930       ??0ZipFileSystem@IO@@QAE@XZ 0041b930 f   foundation_win32.release:zipfilesystem.obj
 0001:0001a980       ??_GZipFileSystem@IO@@UAEPAXI@Z 0041b980 f i foundation_win32.release:zipfilesystem.obj
 0001:0001a980       ??_EZipFileSystem@IO@@UAEPAXI@Z 0041b980 f i  CIL library: CIL module
 0001:0001a9b0       ??1ZipFileSystem@IO@@UAE@XZ 0041b9b0 f   foundation_win32.release:zipfilesystem.obj
 0001:0001aa10       ?Setup@ZipFileSystem@IO@@QAEXXZ 0041ba10 f   foundation_win32.release:zipfilesystem.obj
 0001:0001aad0       ?Discard@ZipFileSystem@IO@@QAEXXZ 0041bad0 f   foundation_win32.release:zipfilesystem.obj
 0001:0001ab90       ?FindArchiveWithFile@ZipFileSystem@IO@@UBE?AV?$Ptr@VArchive@IO@@@@ABVURI@2@@Z 0041bb90 f   foundation_win32.release:zipfilesystem.obj
 0001:0001adb0       ?FindArchiveWithDir@ZipFileSystem@IO@@UBE?AV?$Ptr@VArchive@IO@@@@ABVURI@2@@Z 0041bdb0 f   foundation_win32.release:zipfilesystem.obj
 0001:0001afd0       ?Size@?$Dictionary@VString@Util@@V?$Ptr@VArchive@IO@@@@@Util@@QBEHXZ 0041bfd0 f i foundation_win32.release:zipfilesystem.obj
 0001:0001aff0       ?ValueAtIndex@?$Dictionary@VString@Util@@V?$Ptr@VArchive@IO@@@@@Util@@QBEABV?$Ptr@VArchive@IO@@@@H@Z 0041bff0 f i foundation_win32.release:zipfilesystem.obj
 0001:0001b040       ??0?$Ptr@VArchive@IO@@@@QAE@ABV0@@Z 0041c040 f i foundation_win32.release:zipfilesystem.obj
 0001:0001b080       ??0?$Ptr@VZipArchive@IO@@@@QAE@XZ 0041c080 f i foundation_win32.release:zipfilesystem.obj
 0001:0001b0a0       ??1?$Ptr@VZipArchive@IO@@@@QAE@XZ 0041c0a0 f i foundation_win32.release:zipfilesystem.obj
 0001:0001b0d0       ??4?$Ptr@VZipArchive@IO@@@@QAEXABV0@@Z 0041c0d0 f i foundation_win32.release:zipfilesystem.obj
 0001:0001b130       ??C?$Ptr@VZipArchive@IO@@@@QBEPAVZipArchive@IO@@XZ 0041c130 f i foundation_win32.release:zipfilesystem.obj
 0001:0001b170       ?isvalid@?$Ptr@VZipArchive@IO@@@@QBE_NXZ 0041c170 f i foundation_win32.release:zipfilesystem.obj
 0001:0001b190       ??$cast@VZipArchive@IO@@@?$Ptr@VArchive@IO@@@@QBEABV?$Ptr@VZipArchive@IO@@@@XZ 0041c190 f i foundation_win32.release:zipfilesystem.obj
 0001:0001b1a0       ??$cast@VArchive@IO@@@?$Ptr@VZipArchive@IO@@@@QBEABV?$Ptr@VArchive@IO@@@@XZ 0041c1a0 f i foundation_win32.release:zipfilesystem.obj
 0001:0001b1b0       ??A?$Array@V?$KeyValuePair@VString@Util@@V?$Ptr@VArchive@IO@@@@@Util@@@Util@@QBEAAV?$KeyValuePair@VString@Util@@V?$Ptr@VArchive@IO@@@@@1@H@Z 0041c1b0 f i foundation_win32.release:zipfilesystem.obj
 0001:0001b200       ?Size@?$Array@V?$KeyValuePair@VString@Util@@V?$Ptr@VArchive@IO@@@@@Util@@@Util@@QBEHXZ 0041c200 f i foundation_win32.release:zipfilesystem.obj
 0001:0001b220       ?Value@?$KeyValuePair@VString@Util@@V?$Ptr@VArchive@IO@@@@@Util@@QAEAAV?$Ptr@VArchive@IO@@@@XZ 0041c220 f i foundation_win32.release:zipfilesystem.obj
 0001:0001b240       ??2ArchiveFileSystemBase@IO@@SAPAXI@Z 0041c240 f i foundation_win32.release:archivefilesystembase.obj
 0001:0001b250       ??3ArchiveFileSystemBase@IO@@SAXPAX@Z 0041c250 f i foundation_win32.release:archivefilesystembase.obj
 0001:0001b270       ?GetURI@ArchiveBase@IO@@QBEABVURI@2@XZ 0041c270 f i foundation_win32.release:archivefilesystembase.obj
 0001:0001b290       ?GetRtti@ArchiveFileSystemBase@IO@@UBEPAVRtti@Core@@XZ 0041c290 f   foundation_win32.release:archivefilesystembase.obj
 0001:0001b2a0       ?FactoryCreator@ArchiveFileSystemBase@IO@@SAPAVRefCounted@Core@@XZ 0041c2a0 f   foundation_win32.release:archivefilesystembase.obj
 0001:0001b2b0       ?Create@ArchiveFileSystemBase@IO@@SAPAV12@XZ 0041c2b0 f   foundation_win32.release:archivefilesystembase.obj
 0001:0001b2f0       ?RegisterWithFactory@ArchiveFileSystemBase@IO@@SA_NXZ 0041c2f0 f   foundation_win32.release:archivefilesystembase.obj
 0001:0001b3f0       ??0ArchiveFileSystemBase@IO@@QAE@XZ 0041c3f0 f   foundation_win32.release:archivefilesystembase.obj
 0001:0001b470       ??_EArchiveFileSystemBase@IO@@UAEPAXI@Z 0041c470 f i  CIL library: CIL module
 0001:0001b470       ??_GArchiveFileSystemBase@IO@@UAEPAXI@Z 0041c470 f i foundation_win32.release:archivefilesystembase.obj
 0001:0001b4a0       ??1?$Dictionary@VString@Util@@V?$Ptr@VArchive@IO@@@@@Util@@QAE@XZ 0041c4a0 f i foundation_win32.release:archivefilesystembase.obj
 0001:0001b4c0       ??1ArchiveFileSystemBase@IO@@UAE@XZ 0041c4c0 f   foundation_win32.release:archivefilesystembase.obj
 0001:0001b540       ?Setup@ArchiveFileSystemBase@IO@@QAEXXZ 0041c540 f   foundation_win32.release:archivefilesystembase.obj
 0001:0001b580       ?Discard@ArchiveFileSystemBase@IO@@QAEXXZ 0041c580 f   foundation_win32.release:archivefilesystembase.obj
 0001:0001b5f0       ?Mount@ArchiveFileSystemBase@IO@@UAE?AV?$Ptr@VArchive@IO@@@@ABVURI@2@@Z 0041c5f0 f   foundation_win32.release:archivefilesystembase.obj
 0001:0001b7a0       ?Unmount@ArchiveFileSystemBase@IO@@UAEXABV?$Ptr@VArchive@IO@@@@@Z 0041c7a0 f   foundation_win32.release:archivefilesystembase.obj
 0001:0001b930       ?Unmount@ArchiveFileSystemBase@IO@@UAEXABVURI@2@@Z 0041c930 f   foundation_win32.release:archivefilesystembase.obj
 0001:0001bac0       ?GetMountedArchives@ArchiveFileSystemBase@IO@@QBE?AV?$Array@V?$Ptr@VArchive@IO@@@@@Util@@XZ 0041cac0 f   foundation_win32.release:archivefilesystembase.obj
 0001:0001bb30       ?FindArchive@ArchiveFileSystemBase@IO@@QBE?AV?$Ptr@VArchive@IO@@@@ABVURI@2@@Z 0041cb30 f   foundation_win32.release:archivefilesystembase.obj
 0001:0001bca0       ?IsMounted@ArchiveFileSystemBase@IO@@QBE_NABVURI@2@@Z 0041cca0 f   foundation_win32.release:archivefilesystembase.obj
 0001:0001bde0       ?FindArchiveWithFile@ArchiveFileSystemBase@IO@@UBE?AV?$Ptr@VArchive@IO@@@@ABVURI@2@@Z 0041cde0 f   foundation_win32.release:archivefilesystembase.obj
 0001:0001be00       ?FindArchiveWithDir@ArchiveFileSystemBase@IO@@UBE?AV?$Ptr@VArchive@IO@@@@ABVURI@2@@Z 0041ce00 f   foundation_win32.release:archivefilesystembase.obj
 0001:0001be20       ?ConvertFileToArchiveURIIfExists@ArchiveFileSystemBase@IO@@QBE?AVURI@2@ABV32@@Z 0041ce20 f   foundation_win32.release:archivefilesystembase.obj
 0001:0001beb0       ?ConvertDirToArchiveURIIfExists@ArchiveFileSystemBase@IO@@QBE?AVURI@2@ABV32@@Z 0041ceb0 f   foundation_win32.release:archivefilesystembase.obj
 0001:0001bf40       ??1?$Array@V?$KeyValuePair@VString@Util@@V?$Ptr@VArchive@IO@@@@@Util@@@Util@@QAE@XZ 0041cf40 f i foundation_win32.release:archivefilesystembase.obj
 0001:0001bf60       ??0?$Dictionary@VString@Util@@V?$Ptr@VArchive@IO@@@@@Util@@QAE@XZ 0041cf60 f i foundation_win32.release:archivefilesystembase.obj
 0001:0001bf80       ??A?$Dictionary@VString@Util@@V?$Ptr@VArchive@IO@@@@@Util@@QAEAAV?$Ptr@VArchive@IO@@@@ABVString@1@@Z 0041cf80 f i foundation_win32.release:archivefilesystembase.obj
 0001:0001bfd0       ?IsEmpty@?$Dictionary@VString@Util@@V?$Ptr@VArchive@IO@@@@@Util@@QBE_NXZ 0041cfd0 f i foundation_win32.release:archivefilesystembase.obj
 0001:0001bff0       ?Add@?$Dictionary@VString@Util@@V?$Ptr@VArchive@IO@@@@@Util@@QAEXABVString@2@ABV?$Ptr@VArchive@IO@@@@@Z 0041cff0 f i foundation_win32.release:archivefilesystembase.obj
 0001:0001c050       ?Erase@?$Dictionary@VString@Util@@V?$Ptr@VArchive@IO@@@@@Util@@QAEXABVString@2@@Z 0041d050 f i foundation_win32.release:archivefilesystembase.obj
 0001:0001c0d0       ?FindIndex@?$Dictionary@VString@Util@@V?$Ptr@VArchive@IO@@@@@Util@@QBEHABVString@2@@Z 0041d0d0 f i foundation_win32.release:archivefilesystembase.obj
 0001:0001c130       ?Contains@?$Dictionary@VString@Util@@V?$Ptr@VArchive@IO@@@@@Util@@QBE_NABVString@2@@Z 0041d130 f i foundation_win32.release:archivefilesystembase.obj
 0001:0001c190       ?ValueAtIndex@?$Dictionary@VString@Util@@V?$Ptr@VArchive@IO@@@@@Util@@QAEAAV?$Ptr@VArchive@IO@@@@H@Z 0041d190 f i foundation_win32.release:archivefilesystembase.obj
 0001:0001c1e0       ?ValuesAsArray@?$Dictionary@VString@Util@@V?$Ptr@VArchive@IO@@@@@Util@@QBE?AV?$Array@V?$Ptr@VArchive@IO@@@@@2@XZ 0041d1e0 f i foundation_win32.release:archivefilesystembase.obj
 0001:0001c200       ??0?$Ptr@VArchive@IO@@@@QAE@PAVArchive@IO@@@Z 0041d200 f i foundation_win32.release:archivefilesystembase.obj
 0001:0001c240       ??0?$Ptr@VArchive@IO@@@@QAE@XZ 0041d240 f i foundation_win32.release:archivefilesystembase.obj
 0001:0001c260       ??4?$Ptr@VArchive@IO@@@@QAEXPAVArchive@IO@@@Z 0041d260 f i foundation_win32.release:archivefilesystembase.obj
 0001:0001c2c0       ??4?$Ptr@VArchive@IO@@@@QAEXABV0@@Z 0041d2c0 f i foundation_win32.release:archivefilesystembase.obj
 0001:0001c320       ??0?$Array@V?$Ptr@VArchive@IO@@@@@Util@@QAE@ABV01@@Z 0041d320 f i foundation_win32.release:archivefilesystembase.obj
 0001:0001c370       ??1?$Array@V?$Ptr@VArchive@IO@@@@@Util@@QAE@XZ 0041d370 f i foundation_win32.release:archivefilesystembase.obj
 0001:0001c390       ??1?$KeyValuePair@VString@Util@@V?$Ptr@VArchive@IO@@@@@Util@@QAE@XZ 0041d390 f i foundation_win32.release:archivefilesystembase.obj
 0001:0001c3f0       ??0?$Array@V?$KeyValuePair@VString@Util@@V?$Ptr@VArchive@IO@@@@@Util@@@Util@@QAE@XZ 0041d3f0 f i foundation_win32.release:archivefilesystembase.obj
 0001:0001c430       ?Append@?$Array@V?$KeyValuePair@VString@Util@@V?$Ptr@VArchive@IO@@@@@Util@@@Util@@QAEXABV?$KeyValuePair@VString@Util@@V?$Ptr@VArchive@IO@@@@@2@@Z 0041d430 f i foundation_win32.release:archivefilesystembase.obj
 0001:0001c4b0       ?EraseIndex@?$Array@V?$KeyValuePair@VString@Util@@V?$Ptr@VArchive@IO@@@@@Util@@@Util@@QAEXH@Z 0041d4b0 f i foundation_win32.release:archivefilesystembase.obj
 0001:0001c530       ?InsertSorted@?$Array@V?$KeyValuePair@VString@Util@@V?$Ptr@VArchive@IO@@@@@Util@@@Util@@QAEHABV?$KeyValuePair@VString@Util@@V?$Ptr@VArchive@IO@@@@@2@@Z 0041d530 f i foundation_win32.release:archivefilesystembase.obj
 0001:0001c7a0       ?BinarySearchIndex@?$Array@V?$KeyValuePair@VString@Util@@V?$Ptr@VArchive@IO@@@@@Util@@@Util@@QBEHABV?$KeyValuePair@VString@Util@@V?$Ptr@VArchive@IO@@@@@2@@Z 0041d7a0 f i foundation_win32.release:archivefilesystembase.obj
 0001:0001c8d0       ?Delete@?$Array@V?$KeyValuePair@VString@Util@@V?$Ptr@VArchive@IO@@@@@Util@@@Util@@AAEXXZ 0041d8d0 f i foundation_win32.release:archivefilesystembase.obj
 0001:0001c940       ??0?$KeyValuePair@VString@Util@@V?$Ptr@VArchive@IO@@@@@Util@@QAE@ABVString@1@@Z 0041d940 f i foundation_win32.release:archivefilesystembase.obj
 0001:0001c9b0       ??0?$KeyValuePair@VString@Util@@V?$Ptr@VArchive@IO@@@@@Util@@QAE@ABVString@1@ABV?$Ptr@VArchive@IO@@@@@Z 0041d9b0 f i foundation_win32.release:archivefilesystembase.obj
 0001:0001ca20       ??$ValuesAs@V?$Array@V?$Ptr@VArchive@IO@@@@@Util@@@?$Dictionary@VString@Util@@V?$Ptr@VArchive@IO@@@@@Util@@QBE?AV?$Array@V?$Ptr@VArchive@IO@@@@@1@XZ 0041da20 f i foundation_win32.release:archivefilesystembase.obj
 0001:0001cac0       ?Copy@?$Array@V?$Ptr@VArchive@IO@@@@@Util@@AAEXABV12@@Z 0041dac0 f i foundation_win32.release:archivefilesystembase.obj
 0001:0001cbf0       ?Delete@?$Array@V?$Ptr@VArchive@IO@@@@@Util@@AAEXXZ 0041dbf0 f i foundation_win32.release:archivefilesystembase.obj
 0001:0001cc60       ??_E?$KeyValuePair@VString@Util@@V?$Ptr@VArchive@IO@@@@@Util@@QAEPAXI@Z 0041dc60 f i foundation_win32.release:archivefilesystembase.obj
 0001:0001cd00       ??_E?$Ptr@VArchive@IO@@@@QAEPAXI@Z 0041dd00 f i foundation_win32.release:archivefilesystembase.obj
 0001:0001cda0       ?Insert@?$Array@V?$KeyValuePair@VString@Util@@V?$Ptr@VArchive@IO@@@@@Util@@@Util@@QAEXHABV?$KeyValuePair@VString@Util@@V?$Ptr@VArchive@IO@@@@@2@@Z 0041dda0 f i foundation_win32.release:archivefilesystembase.obj
 0001:0001ce10       ?InsertAtEndOfIdenticalRange@?$Array@V?$KeyValuePair@VString@Util@@V?$Ptr@VArchive@IO@@@@@Util@@@Util@@QAEHHABV?$KeyValuePair@VString@Util@@V?$Ptr@VArchive@IO@@@@@2@@Z 0041de10 f i foundation_win32.release:archivefilesystembase.obj
 0001:0001ce90       ?Destroy@?$Array@V?$KeyValuePair@VString@Util@@V?$Ptr@VArchive@IO@@@@@Util@@@Util@@AAEXPAV?$KeyValuePair@VString@Util@@V?$Ptr@VArchive@IO@@@@@2@@Z 0041de90 f i foundation_win32.release:archivefilesystembase.obj
 0001:0001cec0       ?Grow@?$Array@V?$KeyValuePair@VString@Util@@V?$Ptr@VArchive@IO@@@@@Util@@@Util@@AAEXXZ 0041dec0 f i foundation_win32.release:archivefilesystembase.obj
 0001:0001cf40       ?Move@?$Array@V?$KeyValuePair@VString@Util@@V?$Ptr@VArchive@IO@@@@@Util@@@Util@@AAEXHH@Z 0041df40 f i foundation_win32.release:archivefilesystembase.obj
 0001:0001d0d0       ??4?$KeyValuePair@VString@Util@@V?$Ptr@VArchive@IO@@@@@Util@@QAEXABV01@@Z 0041e0d0 f i foundation_win32.release:archivefilesystembase.obj
 0001:0001d130       ??9?$KeyValuePair@VString@Util@@V?$Ptr@VArchive@IO@@@@@Util@@QBE_NABV01@@Z 0041e130 f i foundation_win32.release:archivefilesystembase.obj
 0001:0001d150       ??O?$KeyValuePair@VString@Util@@V?$Ptr@VArchive@IO@@@@@Util@@QBE_NABV01@@Z 0041e150 f i foundation_win32.release:archivefilesystembase.obj
 0001:0001d170       ??M?$KeyValuePair@VString@Util@@V?$Ptr@VArchive@IO@@@@@Util@@QBE_NABV01@@Z 0041e170 f i foundation_win32.release:archivefilesystembase.obj
 0001:0001d190       ??0?$Array@V?$Ptr@VArchive@IO@@@@@Util@@QAE@HH@Z 0041e190 f i foundation_win32.release:archivefilesystembase.obj
 0001:0001d280       ?Append@?$Array@V?$Ptr@VArchive@IO@@@@@Util@@QAEXABV?$Ptr@VArchive@IO@@@@@Z 0041e280 f i foundation_win32.release:archivefilesystembase.obj
 0001:0001d300       ??_G?$KeyValuePair@VString@Util@@V?$Ptr@VArchive@IO@@@@@Util@@QAEPAXI@Z 0041e300 f i foundation_win32.release:archivefilesystembase.obj
 0001:0001d330       ?GrowTo@?$Array@V?$KeyValuePair@VString@Util@@V?$Ptr@VArchive@IO@@@@@Util@@@Util@@AAEXH@Z 0041e330 f i foundation_win32.release:archivefilesystembase.obj
 0001:0001d450       ?Grow@?$Array@V?$Ptr@VArchive@IO@@@@@Util@@AAEXXZ 0041e450 f i foundation_win32.release:archivefilesystembase.obj
 0001:0001d4d0       ??0?$KeyValuePair@VString@Util@@V?$Ptr@VArchive@IO@@@@@Util@@QAE@XZ 0041e4d0 f i foundation_win32.release:archivefilesystembase.obj
 0001:0001d510       ?GrowTo@?$Array@V?$Ptr@VArchive@IO@@@@@Util@@AAEXH@Z 0041e510 f i foundation_win32.release:archivefilesystembase.obj
 0001:0001d630       ??0MediaType@IO@@QAE@XZ    0041e630 f i foundation_win32.release:stream.obj
 0001:0001d6a0       ??4MediaType@IO@@QAEXABV01@@Z 0041e6a0 f i foundation_win32.release:stream.obj
 0001:0001d730       ??2Stream@IO@@SAPAXI@Z     0041e730 f i foundation_win32.release:stream.obj
 0001:0001d740       ??3Stream@IO@@SAXPAX@Z     0041e740 f i foundation_win32.release:stream.obj
 0001:0001d760       ?GetRtti@Stream@IO@@UBEPAVRtti@Core@@XZ 0041e760 f   foundation_win32.release:stream.obj
 0001:0001d770       ?FactoryCreator@Stream@IO@@SAPAVRefCounted@Core@@XZ 0041e770 f   foundation_win32.release:stream.obj
 0001:0001d780       ?Create@Stream@IO@@SAPAV12@XZ 0041e780 f   foundation_win32.release:stream.obj
 0001:0001d7c0       ?RegisterWithFactory@Stream@IO@@SA_NXZ 0041e7c0 f   foundation_win32.release:stream.obj
 0001:0001d8c0       ??0Stream@IO@@QAE@XZ       0041e8c0 f   foundation_win32.release:stream.obj
 0001:0001d940       ??_GStream@IO@@UAEPAXI@Z   0041e940 f i foundation_win32.release:stream.obj
 0001:0001d940       ??_EStream@IO@@UAEPAXI@Z   0041e940 f i  CIL library: CIL module
 0001:0001d970       ??1MediaType@IO@@QAE@XZ    0041e970 f i foundation_win32.release:stream.obj
 0001:0001da00       ??1Stream@IO@@UAE@XZ       0041ea00 f   foundation_win32.release:stream.obj
 0001:0001da80       ?SetURI@Stream@IO@@QAEXABVURI@2@@Z 0041ea80 f   foundation_win32.release:stream.obj
 0001:0001dad0       ?GetURI@Stream@IO@@QBEABVURI@2@XZ 0041ead0 f   foundation_win32.release:stream.obj
 0001:0001daf0       ?CanRead@Stream@IO@@UBE_NXZ 0041eaf0 f   foundation_win32.release:stream.obj
 0001:0001db00       ?CanWrite@Stream@IO@@UBE_NXZ 0041eb00 f   foundation_win32.release:stream.obj
 0001:0001db10       ?CanSeek@Stream@IO@@UBE_NXZ 0041eb10 f   foundation_win32.release:stream.obj
 0001:0001db20       ?CanBeMapped@Stream@IO@@UBE_NXZ 0041eb20 f   foundation_win32.release:stream.obj
 0001:0001db30       ?SetSize@Stream@IO@@UAEXH@Z 0041eb30 f   foundation_win32.release:stream.obj
 0001:0001db60       ?GetSize@Stream@IO@@UBEHXZ 0041eb60 f   foundation_win32.release:stream.obj
 0001:0001db70       ?GetPosition@Stream@IO@@UBEHXZ 0041eb70 f   foundation_win32.release:stream.obj
 0001:0001db80       ?SetAccessMode@Stream@IO@@QAEXW4AccessMode@12@@Z 0041eb80 f   foundation_win32.release:stream.obj
 0001:0001dbc0       ?GetAccessMode@Stream@IO@@QBE?AW4AccessMode@12@XZ 0041ebc0 f   foundation_win32.release:stream.obj
 0001:0001dbe0       ?SetAccessPattern@Stream@IO@@QAEXW4AccessPattern@12@@Z 0041ebe0 f   foundation_win32.release:stream.obj
 0001:0001dc20       ?GetAccessPattern@Stream@IO@@QBE?AW4AccessPattern@12@XZ 0041ec20 f   foundation_win32.release:stream.obj
 0001:0001dc40       ?SetMediaType@Stream@IO@@QAEXABVMediaType@2@@Z 0041ec40 f   foundation_win32.release:stream.obj
 0001:0001dc70       ?GetMediaType@Stream@IO@@QBEABVMediaType@2@XZ 0041ec70 f   foundation_win32.release:stream.obj
 0001:0001dc90       ?Open@Stream@IO@@UAE_NXZ   0041ec90 f   foundation_win32.release:stream.obj
 0001:0001dcd0       ?Close@Stream@IO@@UAEXXZ   0041ecd0 f   foundation_win32.release:stream.obj
 0001:0001dd10       ?IsOpen@Stream@IO@@QBE_NXZ 0041ed10 f   foundation_win32.release:stream.obj
 0001:0001dd30       ?Write@Stream@IO@@UAEXPBXH@Z 0041ed30 f   foundation_win32.release:stream.obj
 0001:0001dd90       ?Read@Stream@IO@@UAEHPAXH@Z 0041ed90 f   foundation_win32.release:stream.obj
 0001:0001ddf0       ?Seek@Stream@IO@@UAEXHW4SeekOrigin@12@@Z 0041edf0 f   foundation_win32.release:stream.obj
 0001:0001de50       ?Flush@Stream@IO@@UAEXXZ   0041ee50 f   foundation_win32.release:stream.obj
 0001:0001deb0       ?Eof@Stream@IO@@UBE_NXZ    0041eeb0 f   foundation_win32.release:stream.obj
 0001:0001df10       ?Map@Stream@IO@@UAEPAXXZ   0041ef10 f   foundation_win32.release:stream.obj
 0001:0001dfa0       ?Unmap@Stream@IO@@UAEXXZ   0041efa0 f   foundation_win32.release:stream.obj
 0001:0001e030       ?IsMapped@Stream@IO@@QBE_NXZ 0041f030 f   foundation_win32.release:stream.obj
 0001:0001e050       ??0SystemInfoBase@Base@@QAE@XZ 0041f050 f   foundation_win32.release:systeminfobase.obj
 0001:0001e090       ?PlatformAsString@SystemInfoBase@Base@@SA?AVString@Util@@W4Platform@12@@Z 0041f090 f   foundation_win32.release:systeminfobase.obj
 0001:0001e1e0       ?CpuTypeAsString@SystemInfoBase@Base@@SA?AVString@Util@@W4CpuType@12@@Z 0041f1e0 f   foundation_win32.release:systeminfobase.obj
 0001:0001e370       ??0Win32SystemInfo@Win32@@QAE@XZ 0041f370 f   foundation_win32.release:win32systeminfo.obj
 0001:0001e3f0       ??0Crc@Util@@QAE@XZ        0041f3f0 f   foundation_win32.release:crc.obj
 0001:0001e4b0       ?Begin@Crc@Util@@QAEXXZ    0041f4b0 f   foundation_win32.release:crc.obj
 0001:0001e4f0       ?Compute@Crc@Util@@QAEXPAEI@Z 0041f4f0 f   foundation_win32.release:crc.obj
 0001:0001e570       ?End@Crc@Util@@QAEXXZ      0041f570 f   foundation_win32.release:crc.obj
 0001:0001e5b0       ?GetResult@Crc@Util@@QBEIXZ 0041f5b0 f   foundation_win32.release:crc.obj
 0001:0001e600       ?IsValid@ArchiveBase@IO@@QBE_NXZ 0041f600 f i foundation_win32.release:ziparchive.obj
 0001:0001e620       ?GetName@ZipFileEntry@IO@@QBEABVStringAtom@Util@@XZ 0041f620 f i foundation_win32.release:ziparchive.obj
 0001:0001e640       ?GetName@ZipDirEntry@IO@@QBEABVStringAtom@Util@@XZ 0041f640 f i foundation_win32.release:ziparchive.obj
 0001:0001e650       ?GetDirEntries@ZipDirEntry@IO@@QBEABV?$Array@VZipDirEntry@IO@@@Util@@XZ 0041f650 f i foundation_win32.release:ziparchive.obj
 0001:0001e670       ?GetFileEntries@ZipDirEntry@IO@@QBEABV?$Array@VZipFileEntry@IO@@@Util@@XZ 0041f670 f i foundation_win32.release:ziparchive.obj
 0001:0001e690       ??2ZipArchive@IO@@SAPAXI@Z 0041f690 f i foundation_win32.release:ziparchive.obj
 0001:0001e6a0       ??3ZipArchive@IO@@SAXPAX@Z 0041f6a0 f i foundation_win32.release:ziparchive.obj
 0001:0001e6c0       ?GetRtti@ZipArchive@IO@@UBEPAVRtti@Core@@XZ 0041f6c0 f   foundation_win32.release:ziparchive.obj
 0001:0001e6d0       ?FactoryCreator@ZipArchive@IO@@SAPAVRefCounted@Core@@XZ 0041f6d0 f   foundation_win32.release:ziparchive.obj
 0001:0001e6e0       ?Create@ZipArchive@IO@@SAPAV12@XZ 0041f6e0 f   foundation_win32.release:ziparchive.obj
 0001:0001e720       ?RegisterWithFactory@ZipArchive@IO@@SA_NXZ 0041f720 f   foundation_win32.release:ziparchive.obj
 0001:0001e820       ??0ZipArchive@IO@@QAE@XZ   0041f820 f   foundation_win32.release:ziparchive.obj
 0001:0001e8a0       ??_GZipArchive@IO@@UAEPAXI@Z 0041f8a0 f i foundation_win32.release:ziparchive.obj
 0001:0001e8a0       ??_EZipArchive@IO@@UAEPAXI@Z 0041f8a0 f i  CIL library: CIL module
 0001:0001e8d0       ??1ZipDirEntry@IO@@QAE@XZ  0041f8d0 f i foundation_win32.release:ziparchive.obj
 0001:0001e910       ??1?$Dictionary@VStringAtom@Util@@H@Util@@QAE@XZ 0041f910 f i foundation_win32.release:ziparchive.obj
 0001:0001e930       ??1ZipArchive@IO@@UAE@XZ   0041f930 f   foundation_win32.release:ziparchive.obj
 0001:0001e9d0       ?Setup@ZipArchive@IO@@QAE_NABVURI@2@@Z 0041f9d0 f   foundation_win32.release:ziparchive.obj
 0001:0001ec50       ?Discard@ZipArchive@IO@@QAEXXZ 0041fc50 f   foundation_win32.release:ziparchive.obj
 0001:0001ecb0       ?ParseTableOfContents@ZipArchive@IO@@AAEXXZ 0041fcb0 f   foundation_win32.release:ziparchive.obj
 0001:0001eeb0       ?AddEntry@ZipArchive@IO@@AAEXABVString@Util@@@Z 0041feb0 f   foundation_win32.release:ziparchive.obj
 0001:0001f0f0       ?ConvertToPathInArchive@ZipArchive@IO@@QBE?AVString@Util@@ABV34@@Z 004200f0 f   foundation_win32.release:ziparchive.obj
 0001:0001f220       ?FindFileEntry@ZipArchive@IO@@ABEPBVZipFileEntry@2@ABVString@Util@@@Z 00420220 f   foundation_win32.release:ziparchive.obj
 0001:0001f3d0       ?FindFileEntry@ZipArchive@IO@@AAEPAVZipFileEntry@2@ABVString@Util@@@Z 004203d0 f   foundation_win32.release:ziparchive.obj
 0001:0001f400       ?FindDirEntry@ZipArchive@IO@@ABEPBVZipDirEntry@2@ABVString@Util@@@Z 00420400 f   foundation_win32.release:ziparchive.obj
 0001:0001f550       ?ListFiles@ZipArchive@IO@@QBE?AV?$Array@VString@Util@@@Util@@ABVString@4@0@Z 00420550 f   foundation_win32.release:ziparchive.obj
 0001:0001f630       ?ListDirectories@ZipArchive@IO@@QBE?AV?$Array@VString@Util@@@Util@@ABVString@4@0@Z 00420630 f   foundation_win32.release:ziparchive.obj
 0001:0001f710       ?ConvertToArchiveURI@ZipArchive@IO@@QBE?AVURI@2@ABV32@@Z 00420710 f   foundation_win32.release:ziparchive.obj
 0001:0001fa40       ??1?$Array@VZipFileEntry@IO@@@Util@@QAE@XZ 00420a40 f i foundation_win32.release:ziparchive.obj
 0001:0001fa60       ??A?$Array@VZipFileEntry@IO@@@Util@@QBEAAVZipFileEntry@IO@@H@Z 00420a60 f i foundation_win32.release:ziparchive.obj
 0001:0001fab0       ?Size@?$Array@VZipFileEntry@IO@@@Util@@QBEHXZ 00420ab0 f i foundation_win32.release:ziparchive.obj
 0001:0001fad0       ??1?$Array@VZipDirEntry@IO@@@Util@@QAE@XZ 00420ad0 f i foundation_win32.release:ziparchive.obj
 0001:0001faf0       ??A?$Array@VZipDirEntry@IO@@@Util@@QBEAAVZipDirEntry@IO@@H@Z 00420af0 f i foundation_win32.release:ziparchive.obj
 0001:0001fb40       ?Size@?$Array@VZipDirEntry@IO@@@Util@@QBEHXZ 00420b40 f i foundation_win32.release:ziparchive.obj
 0001:0001fb60       ??1?$Array@V?$KeyValuePair@VStringAtom@Util@@H@Util@@@Util@@QAE@XZ 00420b60 f i foundation_win32.release:ziparchive.obj
 0001:0001fb80       ?Delete@?$Array@VZipFileEntry@IO@@@Util@@AAEXXZ 00420b80 f i foundation_win32.release:ziparchive.obj
 0001:0001fbf0       ?Delete@?$Array@VZipDirEntry@IO@@@Util@@AAEXXZ 00420bf0 f i foundation_win32.release:ziparchive.obj
 0001:0001fc60       ?Delete@?$Array@V?$KeyValuePair@VStringAtom@Util@@H@Util@@@Util@@AAEXXZ 00420c60 f i foundation_win32.release:ziparchive.obj
 0001:0001fcc0       ??_EZipFileEntry@IO@@QAEPAXI@Z 00420cc0 f i foundation_win32.release:ziparchive.obj
 0001:0001fd60       ??_EZipDirEntry@IO@@QAEPAXI@Z 00420d60 f i foundation_win32.release:ziparchive.obj
 0001:0001fe00       ??0LocalStringAtomTable@Util@@QAE@XZ 00420e00 f   foundation_win32.release:localstringatomtable.obj
 0001:0001fe50       ??1LocalStringAtomTable@Util@@QAE@XZ 00420e50 f   foundation_win32.release:localstringatomtable.obj
 0001:0001fea0       ?Add@LocalStringAtomTable@Util@@AAEXPBD@Z 00420ea0 f   foundation_win32.release:localstringatomtable.obj
 0001:0001fed0       ?InsertSorted@?$Array@UStaticString@StringAtomTableBase@Util@@@Util@@QAEHABUStaticString@StringAtomTableBase@2@@Z 00420ed0 f i foundation_win32.release:localstringatomtable.obj
 0001:00020140       ?Append@?$Array@UStaticString@StringAtomTableBase@Util@@@Util@@QAEXABUStaticString@StringAtomTableBase@2@@Z 00421140 f i foundation_win32.release:localstringatomtable.obj
 0001:000201b0       ?Size@?$Array@UStaticString@StringAtomTableBase@Util@@@Util@@QBEHXZ 004211b0 f i foundation_win32.release:localstringatomtable.obj
 0001:000201d0       ?Insert@?$Array@UStaticString@StringAtomTableBase@Util@@@Util@@QAEXHABUStaticString@StringAtomTableBase@2@@Z 004211d0 f i foundation_win32.release:localstringatomtable.obj
 0001:00020240       ?InsertAtEndOfIdenticalRange@?$Array@UStaticString@StringAtomTableBase@Util@@@Util@@QAEHHABUStaticString@StringAtomTableBase@2@@Z 00421240 f i foundation_win32.release:localstringatomtable.obj
 0001:000202c0       ?Grow@?$Array@UStaticString@StringAtomTableBase@Util@@@Util@@AAEXXZ 004212c0 f i foundation_win32.release:localstringatomtable.obj
 0001:00020340       ?Move@?$Array@UStaticString@StringAtomTableBase@Util@@@Util@@AAEXHH@Z 00421340 f i foundation_win32.release:localstringatomtable.obj
 0001:000204c0       ?Destroy@?$Array@UStaticString@StringAtomTableBase@Util@@@Util@@AAEXPAUStaticString@StringAtomTableBase@2@@Z 004214c0 f i foundation_win32.release:localstringatomtable.obj
 0001:000204d0       ?GrowTo@?$Array@UStaticString@StringAtomTableBase@Util@@@Util@@AAEXH@Z 004214d0 f i foundation_win32.release:localstringatomtable.obj
 0001:00020580       ?BinaryCompare@Blob@Util@@ABEHABV12@@Z 00421580 f   foundation_win32.release:blob.obj
 0001:00020630       ?Setup@Win360Heap@Win360@@SAXXZ 00421630 f   foundation_win32.release:win360heap.obj
 0001:00020640       ??0Win360Heap@Win360@@QAE@PBDII@Z 00421640 f   foundation_win32.release:win360heap.obj
 0001:000206d0       ??1Win360Heap@Win360@@QAE@XZ 004216d0 f   foundation_win32.release:win360heap.obj
 0001:00020710       ??2Win360Socket@Win360@@SAPAXI@Z 00421710 f i foundation_win32.release:win360socket.obj
 0001:00020720       ??3Win360Socket@Win360@@SAXPAX@Z 00421720 f i foundation_win32.release:win360socket.obj
 0001:00020740       ?IsOpen@Win360Socket@Win360@@QBE_NXZ 00421740 f i foundation_win32.release:win360socket.obj
 0001:00020760       ?IsBound@Win360Socket@Win360@@QBE_NXZ 00421760 f i foundation_win32.release:win360socket.obj
 0001:00020780       ?SetAddress@Win360Socket@Win360@@QAEXABVWin360IpAddress@2@@Z 00421780 f i foundation_win32.release:win360socket.obj
 0001:000207a0       ??4Win360IpAddress@Win360@@QAEAAV01@ABV01@@Z 004217a0 f i foundation_win32.release:win360socket.obj
 0001:00020850       ?GetBlocking@Win360Socket@Win360@@QBE_NXZ 00421850 f i foundation_win32.release:win360socket.obj
 0001:00020870       ?GetRtti@Win360Socket@Win360@@UBEPAVRtti@Core@@XZ 00421870 f   foundation_win32.release:win360socket.obj
 0001:00020880       ?FactoryCreator@Win360Socket@Win360@@SAPAVRefCounted@Core@@XZ 00421880 f   foundation_win32.release:win360socket.obj
 0001:00020890       ?Create@Win360Socket@Win360@@SAPAV12@XZ 00421890 f   foundation_win32.release:win360socket.obj
 0001:000208d0       ?RegisterWithFactory@Win360Socket@Win360@@SA_NXZ 004218d0 f   foundation_win32.release:win360socket.obj
 0001:000209d0       ??0Win360Socket@Win360@@QAE@XZ 004219d0 f   foundation_win32.release:win360socket.obj
 0001:00020a50       ??_EWin360Socket@Win360@@UAEPAXI@Z 00421a50 f i  CIL library: CIL module
 0001:00020a50       ??_GWin360Socket@Win360@@UAEPAXI@Z 00421a50 f i foundation_win32.release:win360socket.obj
 0001:00020a80       ??1Win360IpAddress@Win360@@QAE@XZ 00421a80 f i foundation_win32.release:win360socket.obj
 0001:00020b10       ??1Win360Socket@Win360@@UAE@XZ 00421b10 f   foundation_win32.release:win360socket.obj
 0001:00020b60       ?InitNetwork@Win360Socket@Win360@@SAXXZ 00421b60 f   foundation_win32.release:win360socket.obj
 0001:00020c60       ?Open@Win360Socket@Win360@@QAE_NW4Protocol@12@@Z 00421c60 f   foundation_win32.release:win360socket.obj
 0001:00020d30       ?OpenWithExistingSocket@Win360Socket@Win360@@AAEXI@Z 00421d30 f   foundation_win32.release:win360socket.obj
 0001:00020d90       ?Close@Win360Socket@Win360@@QAEXXZ 00421d90 f   foundation_win32.release:win360socket.obj
 0001:00020f10       ?SetBoolOption@Win360Socket@Win360@@AAEXH_N@Z 00421f10 f   foundation_win32.release:win360socket.obj
 0001:00021010       ?GetBoolOption@Win360Socket@Win360@@AAE_NH@Z 00422010 f   foundation_win32.release:win360socket.obj
 0001:00021140       ?SetIntOption@Win360Socket@Win360@@AAEXHH@Z 00422140 f   foundation_win32.release:win360socket.obj
 0001:00021220       ?GetIntOption@Win360Socket@Win360@@AAEHH@Z 00422220 f   foundation_win32.release:win360socket.obj
 0001:00021330       ?SetBlocking@Win360Socket@Win360@@QAEX_N@Z 00422330 f   foundation_win32.release:win360socket.obj
 0001:00021420       ?Bind@Win360Socket@Win360@@QAE_NXZ 00422420 f   foundation_win32.release:win360socket.obj
 0001:00021530       ?Listen@Win360Socket@Win360@@QAE_NXZ 00422530 f   foundation_win32.release:win360socket.obj
 0001:00021630       ?Accept@Win360Socket@Win360@@QAE_NAAV?$Ptr@VSocket@Net@@@@@Z 00422630 f   foundation_win32.release:win360socket.obj
 0001:00021800       ?Connect@Win360Socket@Win360@@QAE?AW4Result@12@XZ 00422800 f   foundation_win32.release:win360socket.obj
 0001:00021970       ?IsConnected@Win360Socket@Win360@@QAE_NXZ 00422970 f   foundation_win32.release:win360socket.obj
 0001:00021ad0       ?Send@Win360Socket@Win360@@QAE?AW4Result@12@PBXHAAH@Z 00422ad0 f   foundation_win32.release:win360socket.obj
 0001:00021c00       ?HasRecvData@Win360Socket@Win360@@QAE_NXZ 00422c00 f   foundation_win32.release:win360socket.obj
 0001:00021d60       ?Recv@Win360Socket@Win360@@QAE?AW4Result@12@PAXHAAH@Z 00422d60 f   foundation_win32.release:win360socket.obj
 0001:00021ed0       ?SendTo@Win360Socket@Win360@@QAE?AW4Result@12@PBXHIGAAH@Z 00422ed0 f   foundation_win32.release:win360socket.obj
 0001:00021ef0       ?RecvFrom@Win360Socket@Win360@@QAE?AW4Result@12@PAXHIGAAH@Z 00422ef0 f   foundation_win32.release:win360socket.obj
 0001:00021f10       ?ClearError@Win360Socket@Win360@@AAEXXZ 00422f10 f   foundation_win32.release:win360socket.obj
 0001:00021f30       ?SetToLastWSAError@Win360Socket@Win360@@AAEXXZ 00422f30 f   foundation_win32.release:win360socket.obj
 0001:00021f50       ?SetWSAError@Win360Socket@Win360@@AAEXH@Z 00422f50 f   foundation_win32.release:win360socket.obj
 0001:00021f70       ?WSAErrorToErrorCode@Win360Socket@Win360@@CA?AW4ErrorCode@12@H@Z 00422f70 f   foundation_win32.release:win360socket.obj
 0001:00022330       ?ErrorAsString@Win360Socket@Win360@@CA?AVString@Util@@W4ErrorCode@12@@Z 00423330 f   foundation_win32.release:win360socket.obj
 0001:00022d90       ?WSAErrorToString@Win360Socket@Win360@@CA?AVString@Util@@H@Z 00423d90 f   foundation_win32.release:win360socket.obj
 0001:00022dc0       ?GetErrorString@Win360Socket@Win360@@QBE?AVString@Util@@XZ 00423dc0 f   foundation_win32.release:win360socket.obj
 0001:00022df0       ?IsNetworkInitialized@Win360Socket@Win360@@SA_NXZ 00423df0 f   foundation_win32.release:win360socket.obj
 0001:00022e00       ??4?$Ptr@VSocket@Net@@@@QAEXPAVSocket@Net@@@Z 00423e00 f i foundation_win32.release:win360socket.obj
 0001:00022e60       ??C?$Ptr@VSocket@Net@@@@QBEPAVSocket@Net@@XZ 00423e60 f i foundation_win32.release:win360socket.obj
 0001:00022ea0       ?Clear@Memory@@YAXPAXI@Z   00423ea0 f i foundation_win32.release:win32minidump.obj
 0001:00022ec0       ?ExtractFileName@String@Util@@QBE?AV12@XZ 00423ec0 f i foundation_win32.release:win32minidump.obj
 0001:00022f60       ?ExtractToLastSlash@String@Util@@QBE?AV12@XZ 00423f60 f i foundation_win32.release:win32minidump.obj
 0001:00022ff0       ?Setup@Win32MiniDump@Win32@@SAXXZ 00423ff0 f   foundation_win32.release:win32minidump.obj
 0001:00023000       ?WriteMiniDump@Win32MiniDump@Win32@@SA_NXZ 00424000 f   foundation_win32.release:win32minidump.obj
 0001:00023010       ?WriteMiniDumpInternal@Win32MiniDump@Win32@@CA_NPAU_EXCEPTION_POINTERS@@@Z 00424010 f   foundation_win32.release:win32minidump.obj
 0001:00023130       ?BuildMiniDumpFilename@Win32MiniDump@Win32@@CA?AVString@Util@@XZ 00424130 f   foundation_win32.release:win32minidump.obj
 0001:000233d0       ?ExceptionCallback@Win32MiniDump@Win32@@CGJPAU_EXCEPTION_POINTERS@@@Z 004243d0 f   foundation_win32.release:win32minidump.obj
 0001:000233f0       ?GetNumChunks@StringBuffer@Util@@QBEHXZ 004243f0 f i foundation_win32.release:globalstringatomtable.obj
 0001:00023410       ??0GlobalStringAtomTable@Util@@QAE@XZ 00424410 f   foundation_win32.release:globalstringatomtable.obj
 0001:00023480       ??1GlobalStringAtomTable@Util@@QAE@XZ 00424480 f   foundation_win32.release:globalstringatomtable.obj
 0001:00023520       ?Lock@GlobalStringAtomTable@Util@@AAEXXZ 00424520 f   foundation_win32.release:globalstringatomtable.obj
 0001:00023540       ?Unlock@GlobalStringAtomTable@Util@@AAEXXZ 00424540 f   foundation_win32.release:globalstringatomtable.obj
 0001:00023580       ?Add@GlobalStringAtomTable@Util@@AAEPBDPBD@Z 00424580 f   foundation_win32.release:globalstringatomtable.obj
 0001:000235b0       ?GetDebugInfo@GlobalStringAtomTable@Util@@QBE?AUDebugInfo@12@XZ 004245b0 f   foundation_win32.release:globalstringatomtable.obj
 0001:000236d0       ??0DebugInfo@GlobalStringAtomTable@Util@@QAE@XZ 004246d0 f i foundation_win32.release:globalstringatomtable.obj
 0001:000236f0       ??1DebugInfo@GlobalStringAtomTable@Util@@QAE@XZ 004246f0 f i foundation_win32.release:globalstringatomtable.obj
 0001:00023710       ??0DebugInfo@GlobalStringAtomTable@Util@@QAE@ABU012@@Z 00424710 f i foundation_win32.release:globalstringatomtable.obj
 0001:00023770       ??A?$Array@UStaticString@StringAtomTableBase@Util@@@Util@@QBEAAUStaticString@StringAtomTableBase@1@H@Z 00424770 f i foundation_win32.release:globalstringatomtable.obj
 0001:000237c0       ?Size@?$Array@PAD@Util@@QBEHXZ 004247c0 f i foundation_win32.release:globalstringatomtable.obj
 0001:000237e0       ??0?$Array@PBD@Util@@QAE@ABV01@@Z 004247e0 f i foundation_win32.release:globalstringatomtable.obj
 0001:00023830       ??0?$Array@PBD@Util@@QAE@XZ 00424830 f i foundation_win32.release:globalstringatomtable.obj
 0001:00023870       ??1?$Array@PBD@Util@@QAE@XZ 00424870 f i foundation_win32.release:globalstringatomtable.obj
 0001:00023890       ?Append@?$Array@PBD@Util@@QAEXABQBD@Z 00424890 f i foundation_win32.release:globalstringatomtable.obj
 0001:00023900       ?Reserve@?$Array@PBD@Util@@QAEXH@Z 00424900 f i foundation_win32.release:globalstringatomtable.obj
 0001:00023950       ?Copy@?$Array@PBD@Util@@AAEXABV12@@Z 00424950 f i foundation_win32.release:globalstringatomtable.obj
 0001:00023a20       ?Delete@?$Array@PBD@Util@@AAEXXZ 00424a20 f i foundation_win32.release:globalstringatomtable.obj
 0001:00023a80       ?Grow@?$Array@PBD@Util@@AAEXXZ 00424a80 f i foundation_win32.release:globalstringatomtable.obj
 0001:00023b00       ?GrowTo@?$Array@PBD@Util@@AAEXH@Z 00424b00 f i foundation_win32.release:globalstringatomtable.obj
 0001:00023bb0       ??0ExitHandler@Core@@QAE@XZ 00424bb0 f   foundation_win32.release:exithandler.obj
 0001:00023be0       ??_EExitHandler@Core@@UAEPAXI@Z 00424be0 f i  CIL library: CIL module
 0001:00023be0       ??_GExitHandler@Core@@UAEPAXI@Z 00424be0 f i foundation_win32.release:exithandler.obj
 0001:00023c10       ??1ExitHandler@Core@@UAE@XZ 00424c10 f   foundation_win32.release:exithandler.obj
 0001:00023c30       ?Next@ExitHandler@Core@@QBEPBV12@XZ 00424c30 f   foundation_win32.release:exithandler.obj
 0001:00023c50       ?OnExit@ExitHandler@Core@@UBEXXZ 00424c50 f   foundation_win32.release:exithandler.obj
 0001:00023c60       ??2Win32ConsoleHandler@Win32@@SAPAXI@Z 00424c60 f i foundation_win32.release:win32consolehandler.obj
 0001:00023c70       ??3Win32ConsoleHandler@Win32@@SAXPAX@Z 00424c70 f i foundation_win32.release:win32consolehandler.obj
 0001:00023c90       ?HasInstance@CoreServer@Core@@SA_NXZ 00424c90 f i foundation_win32.release:win32consolehandler.obj
 0001:00023cb0       ?GetRtti@Win32ConsoleHandler@Win32@@UBEPAVRtti@Core@@XZ 00424cb0 f   foundation_win32.release:win32consolehandler.obj
 0001:00023cc0       ?FactoryCreator@Win32ConsoleHandler@Win32@@SAPAVRefCounted@Core@@XZ 00424cc0 f   foundation_win32.release:win32consolehandler.obj
 0001:00023cd0       ?Create@Win32ConsoleHandler@Win32@@SAPAV12@XZ 00424cd0 f   foundation_win32.release:win32consolehandler.obj
 0001:00023d10       ?RegisterWithFactory@Win32ConsoleHandler@Win32@@SA_NXZ 00424d10 f   foundation_win32.release:win32consolehandler.obj
 0001:00023e10       ??0Win32ConsoleHandler@Win32@@QAE@XZ 00424e10 f   foundation_win32.release:win32consolehandler.obj
 0001:00023eb0       ??_EWin32ConsoleHandler@Win32@@UAEPAXI@Z 00424eb0 f i  CIL library: CIL module
 0001:00023eb0       ??_GWin32ConsoleHandler@Win32@@UAEPAXI@Z 00424eb0 f i foundation_win32.release:win32consolehandler.obj
 0001:00023ee0       ??1Win32ConsoleHandler@Win32@@UAE@XZ 00424ee0 f i foundation_win32.release:win32consolehandler.obj
 0001:00023f00       ?Print@Win32ConsoleHandler@Win32@@UAEXABVString@Util@@@Z 00424f00 f   foundation_win32.release:win32consolehandler.obj
 0001:00023fd0       ?DebugOut@Win32ConsoleHandler@Win32@@UAEXABVString@Util@@@Z 00424fd0 f   foundation_win32.release:win32consolehandler.obj
 0001:00024010       ?Error@Win32ConsoleHandler@Win32@@UAEXABVString@Util@@@Z 00425010 f   foundation_win32.release:win32consolehandler.obj
 0001:00024150       ?Warning@Win32ConsoleHandler@Win32@@UAEXABVString@Util@@@Z 00425150 f   foundation_win32.release:win32consolehandler.obj
 0001:000241a0       ?Confirm@Win32ConsoleHandler@Win32@@UAEXABVString@Util@@@Z 004251a0 f   foundation_win32.release:win32consolehandler.obj
 0001:00024220       ?HasInput@Win32ConsoleHandler@Win32@@UAE_NXZ 00425220 f   foundation_win32.release:win32consolehandler.obj
 0001:000242d0       ?GetInput@Win32ConsoleHandler@Win32@@UAE?AVString@Util@@XZ 004252d0 f   foundation_win32.release:win32consolehandler.obj
 0001:00024410       ??0StringAtomTableBase@Util@@QAE@XZ 00425410 f   foundation_win32.release:stringatomtablebase.obj
 0001:00024430       ??1StringAtomTableBase@Util@@QAE@XZ 00425430 f   foundation_win32.release:stringatomtablebase.obj
 0001:00024450       ?Find@StringAtomTableBase@Util@@IBEPBDPBD@Z 00425450 f   foundation_win32.release:stringatomtablebase.obj
 0001:00024490       ??8StaticString@StringAtomTableBase@Util@@QBE_NABU012@@Z 00425490 f   foundation_win32.release:stringatomtablebase.obj
 0001:00024510       ??9StaticString@StringAtomTableBase@Util@@QBE_NABU012@@Z 00425510 f   foundation_win32.release:stringatomtablebase.obj
 0001:00024590       ??MStaticString@StringAtomTableBase@Util@@QBE_NABU012@@Z 00425590 f   foundation_win32.release:stringatomtablebase.obj
 0001:00024610       ??OStaticString@StringAtomTableBase@Util@@QBE_NABU012@@Z 00425610 f   foundation_win32.release:stringatomtablebase.obj
 0001:00024690       ??0?$Array@UStaticString@StringAtomTableBase@Util@@@Util@@QAE@XZ 00425690 f i foundation_win32.release:stringatomtablebase.obj
 0001:000246d0       ??1?$Array@UStaticString@StringAtomTableBase@Util@@@Util@@QAE@XZ 004256d0 f i foundation_win32.release:stringatomtablebase.obj
 0001:000246f0       ?BinarySearchIndex@?$Array@UStaticString@StringAtomTableBase@Util@@@Util@@QBEHABUStaticString@StringAtomTableBase@2@@Z 004256f0 f i foundation_win32.release:stringatomtablebase.obj
 0001:00024820       ?Delete@?$Array@UStaticString@StringAtomTableBase@Util@@@Util@@AAEXXZ 00425820 f i foundation_win32.release:stringatomtablebase.obj
 0001:00024880       ??2ConsoleHandler@IO@@SAPAXI@Z 00425880 f i foundation_win32.release:consolehandler.obj
 0001:00024890       ??3ConsoleHandler@IO@@SAXPAX@Z 00425890 f i foundation_win32.release:consolehandler.obj
 0001:000248b0       ?GetRtti@ConsoleHandler@IO@@UBEPAVRtti@Core@@XZ 004258b0 f   foundation_win32.release:consolehandler.obj
 0001:000248c0       ?FactoryCreator@ConsoleHandler@IO@@SAPAVRefCounted@Core@@XZ 004258c0 f   foundation_win32.release:consolehandler.obj
 0001:000248d0       ?Create@ConsoleHandler@IO@@SAPAV12@XZ 004258d0 f   foundation_win32.release:consolehandler.obj
 0001:00024910       ?RegisterWithFactory@ConsoleHandler@IO@@SA_NXZ 00425910 f   foundation_win32.release:consolehandler.obj
 0001:00024a10       ??0ConsoleHandler@IO@@QAE@XZ 00425a10 f   foundation_win32.release:consolehandler.obj
 0001:00024a50       ??_EConsoleHandler@IO@@UAEPAXI@Z 00425a50 f i  CIL library: CIL module
 0001:00024a50       ??_GConsoleHandler@IO@@UAEPAXI@Z 00425a50 f i foundation_win32.release:consolehandler.obj
 0001:00024a80       ??1ConsoleHandler@IO@@UAE@XZ 00425a80 f   foundation_win32.release:consolehandler.obj
 0001:00024ac0       ?Open@ConsoleHandler@IO@@UAEXXZ 00425ac0 f   foundation_win32.release:consolehandler.obj
 0001:00024b00       ?Close@ConsoleHandler@IO@@UAEXXZ 00425b00 f   foundation_win32.release:consolehandler.obj
 0001:00024b40       ?Update@ConsoleHandler@IO@@UAEXXZ 00425b40 f   foundation_win32.release:consolehandler.obj
 0001:00024b80       ?Print@ConsoleHandler@IO@@UAEXABVString@Util@@@Z 00425b80 f   foundation_win32.release:consolehandler.obj
 0001:00024b90       ?Error@ConsoleHandler@IO@@UAEXABVString@Util@@@Z 00425b90 f   foundation_win32.release:consolehandler.obj
 0001:00024ba0       ?Warning@ConsoleHandler@IO@@UAEXABVString@Util@@@Z 00425ba0 f   foundation_win32.release:consolehandler.obj
 0001:00024bb0       ?Confirm@ConsoleHandler@IO@@UAEXABVString@Util@@@Z 00425bb0 f   foundation_win32.release:consolehandler.obj
 0001:00024bc0       ?DebugOut@ConsoleHandler@IO@@UAEXABVString@Util@@@Z 00425bc0 f   foundation_win32.release:consolehandler.obj
 0001:00024bd0       ?HasInput@ConsoleHandler@IO@@UAE_NXZ 00425bd0 f   foundation_win32.release:consolehandler.obj
 0001:00024be0       ?GetInput@ConsoleHandler@IO@@UAE?AVString@Util@@XZ 00425be0 f   foundation_win32.release:consolehandler.obj
 0001:00024c30       ?SetInt@String@Util@@QAEXH@Z 00425c30 f i foundation_win32.release:calendartimebase.obj
 0001:00024c60       ?FromInt@String@Util@@SA?AV12@H@Z 00425c60 f i foundation_win32.release:calendartimebase.obj
 0001:00024cb0       ?AppendInt@String@Util@@QAEXH@Z 00425cb0 f i foundation_win32.release:calendartimebase.obj
 0001:00024d30       ??0CalendarTimeBase@Base@@QAE@XZ 00425d30 f   foundation_win32.release:calendartimebase.obj
 0001:00024d90       ?Format@CalendarTimeBase@Base@@SA?AVString@Util@@ABV34@ABVCalendarTime@Timing@@@Z 00425d90 f   foundation_win32.release:calendartimebase.obj
 0001:000256e0       ?MonthToString@CalendarTimeBase@Base@@SA?AVString@Util@@W4Month@12@@Z 004266e0 f   foundation_win32.release:calendartimebase.obj
 0001:00025a20       ?StringToMonth@CalendarTimeBase@Base@@SA?AW4Month@12@ABVString@Util@@@Z 00426a20 f   foundation_win32.release:calendartimebase.obj
 0001:00025c20       ?WeekdayToString@CalendarTimeBase@Base@@SA?AVString@Util@@W4Weekday@12@@Z 00426c20 f   foundation_win32.release:calendartimebase.obj
 0001:00025e20       ?StringToWeekday@CalendarTimeBase@Base@@SA?AW4Weekday@12@ABVString@Util@@@Z 00426e20 f   foundation_win32.release:calendartimebase.obj
 0001:00025f60       ?SetYear@CalendarTimeBase@Base@@QAEXI@Z 00426f60 f   foundation_win32.release:calendartimebase.obj
 0001:00025f80       ?GetYear@CalendarTimeBase@Base@@QBEIXZ 00426f80 f   foundation_win32.release:calendartimebase.obj
 0001:00025f90       ?SetMonth@CalendarTimeBase@Base@@QAEXW4Month@12@@Z 00426f90 f   foundation_win32.release:calendartimebase.obj
 0001:00025fb0       ?GetMonth@CalendarTimeBase@Base@@QBE?AW4Month@12@XZ 00426fb0 f   foundation_win32.release:calendartimebase.obj
 0001:00025fd0       ?SetWeekday@CalendarTimeBase@Base@@QAEXW4Weekday@12@@Z 00426fd0 f   foundation_win32.release:calendartimebase.obj
 0001:00025ff0       ?GetWeekday@CalendarTimeBase@Base@@QBE?AW4Weekday@12@XZ 00426ff0 f   foundation_win32.release:calendartimebase.obj
 0001:00026010       ?SetDay@CalendarTimeBase@Base@@QAEXI@Z 00427010 f   foundation_win32.release:calendartimebase.obj
 0001:00026030       ?GetDay@CalendarTimeBase@Base@@QBEIXZ 00427030 f   foundation_win32.release:calendartimebase.obj
 0001:00026050       ?SetHour@CalendarTimeBase@Base@@QAEXI@Z 00427050 f   foundation_win32.release:calendartimebase.obj
 0001:00026070       ?GetHour@CalendarTimeBase@Base@@QBEIXZ 00427070 f   foundation_win32.release:calendartimebase.obj
 0001:00026090       ?SetMinute@CalendarTimeBase@Base@@QAEXI@Z 00427090 f   foundation_win32.release:calendartimebase.obj
 0001:000260b0       ?GetMinute@CalendarTimeBase@Base@@QBEIXZ 004270b0 f   foundation_win32.release:calendartimebase.obj
 0001:000260d0       ?SetSecond@CalendarTimeBase@Base@@QAEXI@Z 004270d0 f   foundation_win32.release:calendartimebase.obj
 0001:000260f0       ?GetSecond@CalendarTimeBase@Base@@QBEIXZ 004270f0 f   foundation_win32.release:calendartimebase.obj
 0001:00026110       ?SetMilliSecond@CalendarTimeBase@Base@@QAEXI@Z 00427110 f   foundation_win32.release:calendartimebase.obj
 0001:00026130       ?GetMilliSecond@CalendarTimeBase@Base@@QBEIXZ 00427130 f   foundation_win32.release:calendartimebase.obj
 0001:00026150       ?FromWin32SystemTime@Win360CalendarTime@Win360@@CA?AVCalendarTime@Timing@@ABU_SYSTEMTIME@@@Z 00427150 f   foundation_win32.release:win360calendartime.obj
 0001:000261d0       ??0CalendarTime@Timing@@QAE@XZ 004271d0 f i foundation_win32.release:win360calendartime.obj
 0001:000261f0       ??0Win360CalendarTime@Win360@@QAE@XZ 004271f0 f i foundation_win32.release:win360calendartime.obj
 0001:00026210       ?ToWin32SystemTime@Win360CalendarTime@Win360@@CA?AU_SYSTEMTIME@@ABVCalendarTime@Timing@@@Z 00427210 f   foundation_win32.release:win360calendartime.obj
 0001:00026290       ?GetSystemTime@Win360CalendarTime@Win360@@SA?AVCalendarTime@Timing@@XZ 00427290 f   foundation_win32.release:win360calendartime.obj
 0001:000262c0       ?GetLocalTime@Win360CalendarTime@Win360@@SA?AVCalendarTime@Timing@@XZ 004272c0 f   foundation_win32.release:win360calendartime.obj
 0001:000262f0       ?SystemTimeToFileTime@Win360CalendarTime@Win360@@SA?AVWin360FileTime@2@ABVCalendarTime@Timing@@@Z 004272f0 f   foundation_win32.release:win360calendartime.obj
 0001:00026370       ?FileTimeToSystemTime@Win360CalendarTime@Win360@@SA?AVCalendarTime@Timing@@ABVWin360FileTime@2@@Z 00427370 f   foundation_win32.release:win360calendartime.obj
 0001:000263a0       ?LocalTimeToFileTime@Win360CalendarTime@Win360@@SA?AVWin360FileTime@2@ABVCalendarTime@Timing@@@Z 004273a0 f   foundation_win32.release:win360calendartime.obj
 0001:00026440       ?FileTimeToLocalTime@Win360CalendarTime@Win360@@SA?AVCalendarTime@Timing@@ABVWin360FileTime@2@@Z 00427440 f   foundation_win32.release:win360calendartime.obj
 0001:00026490       ??2TextWriter@IO@@SAPAXI@Z 00427490 f i foundation_win32.release:textwriter.obj
 0001:000264a0       ??3TextWriter@IO@@SAXPAX@Z 004274a0 f i foundation_win32.release:textwriter.obj
 0001:000264c0       ?GetRtti@TextWriter@IO@@UBEPAVRtti@Core@@XZ 004274c0 f   foundation_win32.release:textwriter.obj
 0001:000264d0       ?FactoryCreator@TextWriter@IO@@SAPAVRefCounted@Core@@XZ 004274d0 f   foundation_win32.release:textwriter.obj
 0001:000264e0       ?Create@TextWriter@IO@@SAPAV12@XZ 004274e0 f   foundation_win32.release:textwriter.obj
 0001:00026520       ?RegisterWithFactory@TextWriter@IO@@SA_NXZ 00427520 f   foundation_win32.release:textwriter.obj
 0001:00026620       ??0TextWriter@IO@@QAE@XZ   00427620 f   foundation_win32.release:textwriter.obj
 0001:00026640       ??_GTextWriter@IO@@UAEPAXI@Z 00427640 f i foundation_win32.release:textwriter.obj
 0001:00026640       ??_ETextWriter@IO@@UAEPAXI@Z 00427640 f i  CIL library: CIL module
 0001:00026670       ??1TextWriter@IO@@UAE@XZ   00427670 f   foundation_win32.release:textwriter.obj
 0001:000266b0       ?WriteChar@TextWriter@IO@@QAEXE@Z 004276b0 f   foundation_win32.release:textwriter.obj
 0001:000266e0       ?WriteString@TextWriter@IO@@QAEXABVString@Util@@@Z 004276e0 f   foundation_win32.release:textwriter.obj
 0001:00026740       ?WriteFormatted@TextWriter@IO@@QAAXPBDZZ 00427740 f   foundation_win32.release:textwriter.obj
 0001:000267d0       ?WriteLine@TextWriter@IO@@QAEXABVString@Util@@@Z 004277d0 f   foundation_win32.release:textwriter.obj
 0001:00026800       ?WriteLines@TextWriter@IO@@QAEXABV?$Array@VString@Util@@@Util@@@Z 00427800 f   foundation_win32.release:textwriter.obj
 0001:00026850       ??2StreamWriter@IO@@SAPAXI@Z 00427850 f i foundation_win32.release:streamwriter.obj
 0001:00026860       ??3StreamWriter@IO@@SAXPAX@Z 00427860 f i foundation_win32.release:streamwriter.obj
 0001:00026880       ?GetRtti@StreamWriter@IO@@UBEPAVRtti@Core@@XZ 00427880 f   foundation_win32.release:streamwriter.obj
 0001:00026890       ?FactoryCreator@StreamWriter@IO@@SAPAVRefCounted@Core@@XZ 00427890 f   foundation_win32.release:streamwriter.obj
 0001:000268a0       ?Create@StreamWriter@IO@@SAPAV12@XZ 004278a0 f   foundation_win32.release:streamwriter.obj
 0001:000268e0       ?RegisterWithFactory@StreamWriter@IO@@SA_NXZ 004278e0 f   foundation_win32.release:streamwriter.obj
 0001:000269e0       ??0StreamWriter@IO@@QAE@XZ 004279e0 f   foundation_win32.release:streamwriter.obj
 0001:00026a30       ??_GStreamWriter@IO@@UAEPAXI@Z 00427a30 f i foundation_win32.release:streamwriter.obj
 0001:00026a30       ??_EStreamWriter@IO@@UAEPAXI@Z 00427a30 f i  CIL library: CIL module
 0001:00026a60       ??1StreamWriter@IO@@UAE@XZ 00427a60 f   foundation_win32.release:streamwriter.obj
 0001:00026ab0       ?SetStream@StreamWriter@IO@@QAEXABV?$Ptr@VStream@IO@@@@@Z 00427ab0 f   foundation_win32.release:streamwriter.obj
 0001:00026ad0       ?GetStream@StreamWriter@IO@@QBEABV?$Ptr@VStream@IO@@@@XZ 00427ad0 f   foundation_win32.release:streamwriter.obj
 0001:00026af0       ?HasStream@StreamWriter@IO@@QBE_NXZ 00427af0 f   foundation_win32.release:streamwriter.obj
 0001:00026b10       ?Open@StreamWriter@IO@@UAE_NXZ 00427b10 f   foundation_win32.release:streamwriter.obj
 0001:00026c60       ?Close@StreamWriter@IO@@UAEXXZ 00427c60 f   foundation_win32.release:streamwriter.obj
 0001:00026ce0       ?isvalid@?$Ptr@VStream@IO@@@@QBE_NXZ 00427ce0 f i foundation_win32.release:streamwriter.obj
 0001:00026d00       ?UTF8ToWide@Win32StringConverter@Win32@@SAHABVString@Util@@PAGH@Z 00427d00 f   foundation_win32.release:win32stringconverter.obj
 0001:00026d40       ?UTF8ToWide@Win32StringConverter@Win32@@SAHPBDPAGH@Z 00427d40 f   foundation_win32.release:win32stringconverter.obj
 0001:00026eb0       ?WideToUTF8@Win32StringConverter@Win32@@SA?AVString@Util@@PAG@Z 00427eb0 f   foundation_win32.release:win32stringconverter.obj
 0001:00026fe0       ??2FileStream@IO@@SAPAXI@Z 00427fe0 f i foundation_win32.release:filestream.obj
 0001:00026ff0       ??3FileStream@IO@@SAXPAX@Z 00427ff0 f i foundation_win32.release:filestream.obj
 0001:00027010       ?GetRtti@FileStream@IO@@UBEPAVRtti@Core@@XZ 00428010 f   foundation_win32.release:filestream.obj
 0001:00027020       ?FactoryCreator@FileStream@IO@@SAPAVRefCounted@Core@@XZ 00428020 f   foundation_win32.release:filestream.obj
 0001:00027030       ?Create@FileStream@IO@@SAPAV12@XZ 00428030 f   foundation_win32.release:filestream.obj
 0001:00027070       ?RegisterWithFactory@FileStream@IO@@SA_NXZ 00428070 f   foundation_win32.release:filestream.obj
 0001:00027170       ??0FileStream@IO@@QAE@XZ   00428170 f   foundation_win32.release:filestream.obj
 0001:000271b0       ??_EFileStream@IO@@UAEPAXI@Z 004281b0 f i  CIL library: CIL module
 0001:000271b0       ??_GFileStream@IO@@UAEPAXI@Z 004281b0 f i foundation_win32.release:filestream.obj
 0001:000271e0       ??1FileStream@IO@@UAE@XZ   004281e0 f   foundation_win32.release:filestream.obj
 0001:00027220       ?CanRead@FileStream@IO@@UBE_NXZ 00428220 f   foundation_win32.release:filestream.obj
 0001:00027230       ?CanWrite@FileStream@IO@@UBE_NXZ 00428230 f   foundation_win32.release:filestream.obj
 0001:00027240       ?CanSeek@FileStream@IO@@UBE_NXZ 00428240 f   foundation_win32.release:filestream.obj
 0001:00027250       ?CanBeMapped@FileStream@IO@@UBE_NXZ 00428250 f   foundation_win32.release:filestream.obj
 0001:00027260       ?GetSize@FileStream@IO@@UBEHXZ 00428260 f   foundation_win32.release:filestream.obj
 0001:000272a0       ?GetPosition@FileStream@IO@@UBEHXZ 004282a0 f   foundation_win32.release:filestream.obj
 0001:000272e0       ?Open@FileStream@IO@@UAE_NXZ 004282e0 f   foundation_win32.release:filestream.obj
 0001:00027420       ?Close@FileStream@IO@@UAEXXZ 00428420 f   foundation_win32.release:filestream.obj
 0001:000274c0       ?Write@FileStream@IO@@UAEXPBXH@Z 004284c0 f   foundation_win32.release:filestream.obj
 0001:00027580       ?Read@FileStream@IO@@UAEHPAXH@Z 00428580 f   foundation_win32.release:filestream.obj
 0001:00027650       ?Seek@FileStream@IO@@UAEXHW4SeekOrigin@Stream@2@@Z 00428650 f   foundation_win32.release:filestream.obj
 0001:000276f0       ?Flush@FileStream@IO@@UAEXXZ 004286f0 f   foundation_win32.release:filestream.obj
 0001:00027780       ?Eof@FileStream@IO@@UBE_NXZ 00428780 f   foundation_win32.release:filestream.obj
 0001:00027810       ?Map@FileStream@IO@@UAEPAXXZ 00428810 f   foundation_win32.release:filestream.obj
 0001:000278f0       ?Unmap@FileStream@IO@@UAEXXZ 004288f0 f   foundation_win32.release:filestream.obj
 0001:00027950       ??2HttpStream@Http@@SAPAXI@Z 00428950 f i foundation_win32.release:httpstream.obj
 0001:00027960       ??3HttpStream@Http@@SAXPAX@Z 00428960 f i foundation_win32.release:httpstream.obj
 0001:00027980       ?Instance@HttpClientRegistry@Http@@SAPAV12@XZ 00428980 f i foundation_win32.release:httpstream.obj
 0001:000279c0       ?GetRtti@HttpStream@Http@@UBEPAVRtti@Core@@XZ 004289c0 f   foundation_win32.release:httpstream.obj
 0001:000279d0       ?FactoryCreator@HttpStream@Http@@SAPAVRefCounted@Core@@XZ 004289d0 f   foundation_win32.release:httpstream.obj
 0001:000279e0       ?Create@HttpStream@Http@@SAPAV12@XZ 004289e0 f   foundation_win32.release:httpstream.obj
 0001:00027a20       ?RegisterWithFactory@HttpStream@Http@@SA_NXZ 00428a20 f   foundation_win32.release:httpstream.obj
 0001:00027b20       ??0HttpStream@Http@@QAE@XZ 00428b20 f   foundation_win32.release:httpstream.obj
 0001:00027b40       ??_GHttpStream@Http@@UAEPAXI@Z 00428b40 f i foundation_win32.release:httpstream.obj
 0001:00027b40       ??_EHttpStream@Http@@UAEPAXI@Z 00428b40 f i  CIL library: CIL module
 0001:00027b70       ??1HttpStream@Http@@UAE@XZ 00428b70 f   foundation_win32.release:httpstream.obj
 0001:00027bb0       ?Open@HttpStream@Http@@UAE_NXZ 00428bb0 f   foundation_win32.release:httpstream.obj
 0001:00027da0       ??1?$Ptr@VHttpClient@Http@@@@QAE@XZ 00428da0 f i foundation_win32.release:httpstream.obj
 0001:00027dd0       ??C?$Ptr@VHttpClient@Http@@@@QBEPAVHttpClient@Http@@XZ 00428dd0 f i foundation_win32.release:httpstream.obj
 0001:00027e10       ??2HttpNzStream@Http@@SAPAXI@Z 00428e10 f i foundation_win32.release:httpnzstream.obj
 0001:00027e20       ??3HttpNzStream@Http@@SAXPAX@Z 00428e20 f i foundation_win32.release:httpnzstream.obj
 0001:00027e40       ?GetRtti@HttpNzStream@Http@@UBEPAVRtti@Core@@XZ 00428e40 f   foundation_win32.release:httpnzstream.obj
 0001:00027e50       ?FactoryCreator@HttpNzStream@Http@@SAPAVRefCounted@Core@@XZ 00428e50 f   foundation_win32.release:httpnzstream.obj
 0001:00027e60       ?Create@HttpNzStream@Http@@SAPAV12@XZ 00428e60 f   foundation_win32.release:httpnzstream.obj
 0001:00027ea0       ?RegisterWithFactory@HttpNzStream@Http@@SA_NXZ 00428ea0 f   foundation_win32.release:httpnzstream.obj
 0001:00027fa0       ??0HttpNzStream@Http@@QAE@XZ 00428fa0 f   foundation_win32.release:httpnzstream.obj
 0001:00027fc0       ??_GHttpNzStream@Http@@UAEPAXI@Z 00428fc0 f i foundation_win32.release:httpnzstream.obj
 0001:00027fc0       ??_EHttpNzStream@Http@@UAEPAXI@Z 00428fc0 f i  CIL library: CIL module
 0001:00027ff0       ??1HttpNzStream@Http@@UAE@XZ 00428ff0 f   foundation_win32.release:httpnzstream.obj
 0001:00028030       ?Open@HttpNzStream@Http@@UAE_NXZ 00429030 f   foundation_win32.release:httpnzstream.obj
 0001:000284d0       ??0?$Ptr@VMemoryStream@IO@@@@QAE@PAVMemoryStream@IO@@@Z 004294d0 f i foundation_win32.release:httpnzstream.obj
 0001:00028510       ??1?$Ptr@VMemoryStream@IO@@@@QAE@XZ 00429510 f i foundation_win32.release:httpnzstream.obj
 0001:00028540       ??4?$Ptr@VMemoryStream@IO@@@@QAEXPAVMemoryStream@IO@@@Z 00429540 f i foundation_win32.release:httpnzstream.obj
 0001:000285a0       ??C?$Ptr@VMemoryStream@IO@@@@QBEPAVMemoryStream@IO@@XZ 004295a0 f i foundation_win32.release:httpnzstream.obj
 0001:000285e0       ??$upcast@VStream@IO@@@?$Ptr@VMemoryStream@IO@@@@QBEABV?$Ptr@VStream@IO@@@@XZ 004295e0 f i foundation_win32.release:httpnzstream.obj
 0001:000285f0       ?n_min@Math@@YAHHH@Z       004295f0 f i foundation_win32.release:zipfilestream.obj
 0001:00028620       ?n_iclamp@Math@@YAHHHH@Z   00429620 f i foundation_win32.release:zipfilestream.obj
 0001:00028650       ??2ZipFileStream@IO@@SAPAXI@Z 00429650 f i foundation_win32.release:zipfilestream.obj
 0001:00028660       ??3ZipFileStream@IO@@SAXPAX@Z 00429660 f i foundation_win32.release:zipfilestream.obj
 0001:00028680       ?Instance@ZipFileSystem@IO@@SAPAV12@XZ 00429680 f i foundation_win32.release:zipfilestream.obj
 0001:000286b0       ?GetFileSize@ZipFileEntry@IO@@QBEHXZ 004296b0 f i foundation_win32.release:zipfilestream.obj
 0001:000286d0       ?GetRtti@ZipFileStream@IO@@UBEPAVRtti@Core@@XZ 004296d0 f   foundation_win32.release:zipfilestream.obj
 0001:000286e0       ?FactoryCreator@ZipFileStream@IO@@SAPAVRefCounted@Core@@XZ 004296e0 f   foundation_win32.release:zipfilestream.obj
 0001:000286f0       ?Create@ZipFileStream@IO@@SAPAV12@XZ 004296f0 f   foundation_win32.release:zipfilestream.obj
 0001:00028730       ?RegisterWithFactory@ZipFileStream@IO@@SA_NXZ 00429730 f   foundation_win32.release:zipfilestream.obj
 0001:00028830       ??0ZipFileStream@IO@@QAE@XZ 00429830 f   foundation_win32.release:zipfilestream.obj
 0001:00028880       ??_GZipFileStream@IO@@UAEPAXI@Z 00429880 f i foundation_win32.release:zipfilestream.obj
 0001:00028880       ??_EZipFileStream@IO@@UAEPAXI@Z 00429880 f i  CIL library: CIL module
 0001:000288b0       ??1ZipFileStream@IO@@UAE@XZ 004298b0 f   foundation_win32.release:zipfilestream.obj
 0001:00028910       ?CanRead@ZipFileStream@IO@@UBE_NXZ 00429910 f   foundation_win32.release:zipfilestream.obj
 0001:00028920       ?CanWrite@ZipFileStream@IO@@UBE_NXZ 00429920 f   foundation_win32.release:zipfilestream.obj
 0001:00028930       ?CanSeek@ZipFileStream@IO@@UBE_NXZ 00429930 f   foundation_win32.release:zipfilestream.obj
 0001:00028940       ?CanBeMapped@ZipFileStream@IO@@UBE_NXZ 00429940 f   foundation_win32.release:zipfilestream.obj
 0001:00028950       ?GetSize@ZipFileStream@IO@@UBEHXZ 00429950 f   foundation_win32.release:zipfilestream.obj
 0001:00028970       ?GetPosition@ZipFileStream@IO@@UBEHXZ 00429970 f   foundation_win32.release:zipfilestream.obj
 0001:00028990       ?Open@ZipFileStream@IO@@UAE_NXZ 00429990 f   foundation_win32.release:zipfilestream.obj
 0001:00028de0       ?Close@ZipFileStream@IO@@UAEXXZ 00429de0 f   foundation_win32.release:zipfilestream.obj
 0001:00028e80       ?Read@ZipFileStream@IO@@UAEHPAXH@Z 00429e80 f   foundation_win32.release:zipfilestream.obj
 0001:00029020       ?Seek@ZipFileStream@IO@@UAEXHW4SeekOrigin@Stream@2@@Z 0042a020 f   foundation_win32.release:zipfilestream.obj
 0001:00029240       ?Eof@ZipFileStream@IO@@UBE_NXZ 0042a240 f   foundation_win32.release:zipfilestream.obj
 0001:000292f0       ?Map@ZipFileStream@IO@@UAEPAXXZ 0042a2f0 f   foundation_win32.release:zipfilestream.obj
 0001:00029430       ?Unmap@ZipFileStream@IO@@UAEXXZ 0042a430 f   foundation_win32.release:zipfilestream.obj
 0001:000294b0       ??0?$Ptr@VZipArchive@IO@@@@QAE@ABV0@@Z 0042a4b0 f i foundation_win32.release:zipfilestream.obj
 0001:000294f0       ??A?$Dictionary@VString@Util@@V12@@Util@@QAEAAVString@1@ABV21@@Z 0042a4f0 f i foundation_win32.release:zipfilestream.obj
 0001:00029540       ?Contains@?$Dictionary@VString@Util@@V12@@Util@@QBE_NABVString@2@@Z 0042a540 f i foundation_win32.release:zipfilestream.obj
 0001:000295a0       ?FindIndex@?$Dictionary@VString@Util@@V12@@Util@@QBEHABVString@2@@Z 0042a5a0 f i foundation_win32.release:zipfilestream.obj
 0001:00029600       ??2Archive@IO@@SAPAXI@Z    0042a600 f i foundation_win32.release:archive.obj
 0001:00029610       ??3Archive@IO@@SAXPAX@Z    0042a610 f i foundation_win32.release:archive.obj
 0001:00029630       ?GetRtti@Archive@IO@@UBEPAVRtti@Core@@XZ 0042a630 f   foundation_win32.release:archive.obj
 0001:00029640       ?FactoryCreator@Archive@IO@@SAPAVRefCounted@Core@@XZ 0042a640 f   foundation_win32.release:archive.obj
 0001:00029650       ?Create@Archive@IO@@SAPAV12@XZ 0042a650 f   foundation_win32.release:archive.obj
 0001:00029690       ??0Archive@IO@@QAE@XZ      0042a690 f i foundation_win32.release:archive.obj
 0001:000296b0       ??_GArchive@IO@@UAEPAXI@Z  0042a6b0 f i foundation_win32.release:archive.obj
 0001:000296b0       ??_EArchive@IO@@UAEPAXI@Z  0042a6b0 f i  CIL library: CIL module
 0001:000296e0       ??1Archive@IO@@UAE@XZ      0042a6e0 f i foundation_win32.release:archive.obj
 0001:00029700       ?RegisterWithFactory@Archive@IO@@SA_NXZ 0042a700 f   foundation_win32.release:archive.obj
 0001:00029800       ??2ArchiveBase@IO@@SAPAXI@Z 0042a800 f i foundation_win32.release:archivebase.obj
 0001:00029810       ??3ArchiveBase@IO@@SAXPAX@Z 0042a810 f i foundation_win32.release:archivebase.obj
 0001:00029830       ?GetRtti@ArchiveBase@IO@@UBEPAVRtti@Core@@XZ 0042a830 f   foundation_win32.release:archivebase.obj
 0001:00029840       ?FactoryCreator@ArchiveBase@IO@@SAPAVRefCounted@Core@@XZ 0042a840 f   foundation_win32.release:archivebase.obj
 0001:00029850       ?Create@ArchiveBase@IO@@SAPAV12@XZ 0042a850 f   foundation_win32.release:archivebase.obj
 0001:00029890       ?RegisterWithFactory@ArchiveBase@IO@@SA_NXZ 0042a890 f   foundation_win32.release:archivebase.obj
 0001:00029990       ??0ArchiveBase@IO@@QAE@XZ  0042a990 f   foundation_win32.release:archivebase.obj
 0001:000299d0       ??_EArchiveBase@IO@@UAEPAXI@Z 0042a9d0 f i  CIL library: CIL module
 0001:000299d0       ??_GArchiveBase@IO@@UAEPAXI@Z 0042a9d0 f i foundation_win32.release:archivebase.obj
 0001:00029a00       ??1ArchiveBase@IO@@UAE@XZ  0042aa00 f   foundation_win32.release:archivebase.obj
 0001:00029a50       ?Setup@ArchiveBase@IO@@QAE_NABVURI@2@@Z 0042aa50 f   foundation_win32.release:archivebase.obj
 0001:00029aa0       ?Discard@ArchiveBase@IO@@QAEXXZ 0042aaa0 f   foundation_win32.release:archivebase.obj
 0001:00029ae0       ?ListFiles@ArchiveBase@IO@@QBE?AV?$Array@VString@Util@@@Util@@ABVString@4@0@Z 0042aae0 f   foundation_win32.release:archivebase.obj
 0001:00029b10       ?ListDirectories@ArchiveBase@IO@@QBE?AV?$Array@VString@Util@@@Util@@ABVString@4@0@Z 0042ab10 f   foundation_win32.release:archivebase.obj
 0001:00029b40       ?ConvertToArchiveURI@ArchiveBase@IO@@QBE?AVURI@2@ABV32@@Z 0042ab40 f   foundation_win32.release:archivebase.obj
 0001:00029b60       ?ConvertToPathInArchive@ArchiveBase@IO@@QBE?AVString@Util@@ABV34@@Z 0042ab60 f   foundation_win32.release:archivebase.obj
 0001:00029bc0       ??0StringAtom@Util@@QAE@XZ 0042abc0 f i foundation_win32.release:zipdirentry.obj
 0001:00029be0       ??0StringAtom@Util@@QAE@ABV01@@Z 0042abe0 f i foundation_win32.release:zipdirentry.obj
 0001:00029c00       ??9StringAtom@Util@@QBE_NABV01@@Z 0042ac00 f i foundation_win32.release:zipdirentry.obj
 0001:00029c20       ??OStringAtom@Util@@QBE_NABV01@@Z 0042ac20 f i foundation_win32.release:zipdirentry.obj
 0001:00029c40       ??MStringAtom@Util@@QBE_NABV01@@Z 0042ac40 f i foundation_win32.release:zipdirentry.obj
 0001:00029c60       ?IsValid@StringAtom@Util@@QBE_NXZ 0042ac60 f i foundation_win32.release:zipdirentry.obj
 0001:00029ca0       ?SetName@ZipDirEntry@IO@@AAEXABVStringAtom@Util@@@Z 0042aca0 f i foundation_win32.release:zipdirentry.obj
 0001:00029cc0       ??0ZipDirEntry@IO@@QAE@XZ  0042acc0 f   foundation_win32.release:zipdirentry.obj
 0001:00029d10       ?AddFileEntry@ZipDirEntry@IO@@AAEPAVZipFileEntry@2@ABVStringAtom@Util@@@Z 0042ad10 f   foundation_win32.release:zipdirentry.obj
 0001:00029d80       ?AddDirEntry@ZipDirEntry@IO@@AAEPAV12@ABVStringAtom@Util@@@Z 0042ad80 f   foundation_win32.release:zipdirentry.obj
 0001:00029e00       ?FindFileEntry@ZipDirEntry@IO@@QBEPAVZipFileEntry@2@ABVStringAtom@Util@@@Z 0042ae00 f   foundation_win32.release:zipdirentry.obj
 0001:00029e90       ?FindDirEntry@ZipDirEntry@IO@@QBEPAV12@ABVStringAtom@Util@@@Z 0042ae90 f   foundation_win32.release:zipdirentry.obj
 0001:00029f20       ??0?$Array@VZipFileEntry@IO@@@Util@@QAE@XZ 0042af20 f i foundation_win32.release:zipdirentry.obj
 0001:00029f60       ?Append@?$Array@VZipFileEntry@IO@@@Util@@QAEXABVZipFileEntry@IO@@@Z 0042af60 f i foundation_win32.release:zipdirentry.obj
 0001:0002a010       ?Back@?$Array@VZipFileEntry@IO@@@Util@@QBEAAVZipFileEntry@IO@@XZ 0042b010 f i foundation_win32.release:zipdirentry.obj
 0001:0002a060       ??0?$Array@VZipDirEntry@IO@@@Util@@QAE@XZ 0042b060 f i foundation_win32.release:zipdirentry.obj
 0001:0002a0a0       ?Append@?$Array@VZipDirEntry@IO@@@Util@@QAEXABVZipDirEntry@IO@@@Z 0042b0a0 f i foundation_win32.release:zipdirentry.obj
 0001:0002a120       ?Back@?$Array@VZipDirEntry@IO@@@Util@@QBEAAVZipDirEntry@IO@@XZ 0042b120 f i foundation_win32.release:zipdirentry.obj
 0001:0002a170       ??0?$Dictionary@VStringAtom@Util@@H@Util@@QAE@XZ 0042b170 f i foundation_win32.release:zipdirentry.obj
 0001:0002a190       ?Add@?$Dictionary@VStringAtom@Util@@H@Util@@QAEXABVStringAtom@2@ABH@Z 0042b190 f i foundation_win32.release:zipdirentry.obj
 0001:0002a1e0       ?FindIndex@?$Dictionary@VStringAtom@Util@@H@Util@@QBEHABVStringAtom@2@@Z 0042b1e0 f i foundation_win32.release:zipdirentry.obj
 0001:0002a230       ?ValueAtIndex@?$Dictionary@VStringAtom@Util@@H@Util@@QBEABHH@Z 0042b230 f i foundation_win32.release:zipdirentry.obj
 0001:0002a280       ??4ZipFileEntry@IO@@QAEAAV01@ABV01@@Z 0042b280 f i foundation_win32.release:zipdirentry.obj
 0001:0002a2d0       ??4ZipDirEntry@IO@@QAEAAV01@ABV01@@Z 0042b2d0 f i foundation_win32.release:zipdirentry.obj
 0001:0002a340       ??4?$Array@VZipFileEntry@IO@@@Util@@QAEXABV01@@Z 0042b340 f i foundation_win32.release:zipdirentry.obj
 0001:0002a470       ?Grow@?$Array@VZipFileEntry@IO@@@Util@@AAEXXZ 0042b470 f i foundation_win32.release:zipdirentry.obj
 0001:0002a4f0       ??4?$Array@VZipDirEntry@IO@@@Util@@QAEXABV01@@Z 0042b4f0 f i foundation_win32.release:zipdirentry.obj
 0001:0002a5e0       ?Grow@?$Array@VZipDirEntry@IO@@@Util@@AAEXXZ 0042b5e0 f i foundation_win32.release:zipdirentry.obj
 0001:0002a660       ??0?$Array@V?$KeyValuePair@VStringAtom@Util@@H@Util@@@Util@@QAE@XZ 0042b660 f i foundation_win32.release:zipdirentry.obj
 0001:0002a6a0       ??A?$Array@V?$KeyValuePair@VStringAtom@Util@@H@Util@@@Util@@QBEAAV?$KeyValuePair@VStringAtom@Util@@H@1@H@Z 0042b6a0 f i foundation_win32.release:zipdirentry.obj
 0001:0002a6f0       ?Append@?$Array@V?$KeyValuePair@VStringAtom@Util@@H@Util@@@Util@@QAEXABV?$KeyValuePair@VStringAtom@Util@@H@2@@Z 0042b6f0 f i foundation_win32.release:zipdirentry.obj
 0001:0002a770       ?InsertSorted@?$Array@V?$KeyValuePair@VStringAtom@Util@@H@Util@@@Util@@QAEHABV?$KeyValuePair@VStringAtom@Util@@H@2@@Z 0042b770 f i foundation_win32.release:zipdirentry.obj
 0001:0002a9e0       ?BinarySearchIndex@?$Array@V?$KeyValuePair@VStringAtom@Util@@H@Util@@@Util@@QBEHABV?$KeyValuePair@VStringAtom@Util@@H@2@@Z 0042b9e0 f i foundation_win32.release:zipdirentry.obj
 0001:0002ab10       ??4?$Dictionary@VStringAtom@Util@@H@Util@@QAEXABV01@@Z 0042bb10 f i foundation_win32.release:zipdirentry.obj
 0001:0002ab70       ??0?$KeyValuePair@VStringAtom@Util@@H@Util@@QAE@ABVStringAtom@1@@Z 0042bb70 f i foundation_win32.release:zipdirentry.obj
 0001:0002ab90       ??0?$KeyValuePair@VStringAtom@Util@@H@Util@@QAE@ABVStringAtom@1@ABH@Z 0042bb90 f i foundation_win32.release:zipdirentry.obj
 0001:0002abc0       ?Value@?$KeyValuePair@VStringAtom@Util@@H@Util@@QAEAAHXZ 0042bbc0 f i foundation_win32.release:zipdirentry.obj
 0001:0002abe0       ?Destroy@?$Array@VZipFileEntry@IO@@@Util@@AAEXPAVZipFileEntry@IO@@@Z 0042bbe0 f i foundation_win32.release:zipdirentry.obj
 0001:0002ac10       ?Copy@?$Array@VZipFileEntry@IO@@@Util@@AAEXABV12@@Z 0042bc10 f i foundation_win32.release:zipdirentry.obj
 0001:0002ad80       ?GrowTo@?$Array@VZipFileEntry@IO@@@Util@@AAEXH@Z 0042bd80 f i foundation_win32.release:zipdirentry.obj
 0001:0002aee0       ?Destroy@?$Array@VZipDirEntry@IO@@@Util@@AAEXPAVZipDirEntry@IO@@@Z 0042bee0 f i foundation_win32.release:zipdirentry.obj
 0001:0002af10       ?Copy@?$Array@VZipDirEntry@IO@@@Util@@AAEXABV12@@Z 0042bf10 f i foundation_win32.release:zipdirentry.obj
 0001:0002b040       ?GrowTo@?$Array@VZipDirEntry@IO@@@Util@@AAEXH@Z 0042c040 f i foundation_win32.release:zipdirentry.obj
 0001:0002b160       ??4?$Array@V?$KeyValuePair@VStringAtom@Util@@H@Util@@@Util@@QAEXABV01@@Z 0042c160 f i foundation_win32.release:zipdirentry.obj
 0001:0002b250       ?Size@?$Array@V?$KeyValuePair@VStringAtom@Util@@H@Util@@@Util@@QBEHXZ 0042c250 f i foundation_win32.release:zipdirentry.obj
 0001:0002b270       ?Insert@?$Array@V?$KeyValuePair@VStringAtom@Util@@H@Util@@@Util@@QAEXHABV?$KeyValuePair@VStringAtom@Util@@H@2@@Z 0042c270 f i foundation_win32.release:zipdirentry.obj
 0001:0002b2e0       ?InsertAtEndOfIdenticalRange@?$Array@V?$KeyValuePair@VStringAtom@Util@@H@Util@@@Util@@QAEHHABV?$KeyValuePair@VStringAtom@Util@@H@2@@Z 0042c2e0 f i foundation_win32.release:zipdirentry.obj
 0001:0002b360       ?Grow@?$Array@V?$KeyValuePair@VStringAtom@Util@@H@Util@@@Util@@AAEXXZ 0042c360 f i foundation_win32.release:zipdirentry.obj
 0001:0002b3e0       ??4?$KeyValuePair@VStringAtom@Util@@H@Util@@QAEXABV01@@Z 0042c3e0 f i foundation_win32.release:zipdirentry.obj
 0001:0002b410       ??9?$KeyValuePair@VStringAtom@Util@@H@Util@@QBE_NABV01@@Z 0042c410 f i foundation_win32.release:zipdirentry.obj
 0001:0002b430       ??O?$KeyValuePair@VStringAtom@Util@@H@Util@@QBE_NABV01@@Z 0042c430 f i foundation_win32.release:zipdirentry.obj
 0001:0002b450       ??M?$KeyValuePair@VStringAtom@Util@@H@Util@@QBE_NABV01@@Z 0042c450 f i foundation_win32.release:zipdirentry.obj
 0001:0002b470       ??_GZipFileEntry@IO@@QAEPAXI@Z 0042c470 f i foundation_win32.release:zipdirentry.obj
 0001:0002b4a0       ??_GZipDirEntry@IO@@QAEPAXI@Z 0042c4a0 f i foundation_win32.release:zipdirentry.obj
 0001:0002b4d0       ?Destroy@?$Array@V?$KeyValuePair@VStringAtom@Util@@H@Util@@@Util@@AAEXPAV?$KeyValuePair@VStringAtom@Util@@H@2@@Z 0042c4d0 f i foundation_win32.release:zipdirentry.obj
 0001:0002b4e0       ?Copy@?$Array@V?$KeyValuePair@VStringAtom@Util@@H@Util@@@Util@@AAEXABV12@@Z 0042c4e0 f i foundation_win32.release:zipdirentry.obj
 0001:0002b600       ?GrowTo@?$Array@V?$KeyValuePair@VStringAtom@Util@@H@Util@@@Util@@AAEXH@Z 0042c600 f i foundation_win32.release:zipdirentry.obj
 0001:0002b6f0       ?Move@?$Array@V?$KeyValuePair@VStringAtom@Util@@H@Util@@@Util@@AAEXHH@Z 0042c6f0 f i foundation_win32.release:zipdirentry.obj
 0001:0002b880       ??0?$KeyValuePair@VStringAtom@Util@@H@Util@@QAE@XZ 0042c880 f i foundation_win32.release:zipdirentry.obj
 0001:0002b8a0       ??0ZipFileEntry@IO@@QAE@XZ 0042c8a0 f   foundation_win32.release:zipfileentry.obj
 0001:0002b8f0       ??1ZipFileEntry@IO@@QAE@XZ 0042c8f0 f   foundation_win32.release:zipfileentry.obj
 0001:0002b910       ?Setup@ZipFileEntry@IO@@AAEXABVStringAtom@Util@@PAXPAVCriticalSection@Threading@@@Z 0042c910 f   foundation_win32.release:zipfileentry.obj
 0001:0002ba10       ?Open@ZipFileEntry@IO@@QAE_NABVString@Util@@@Z 0042ca10 f   foundation_win32.release:zipfileentry.obj
 0001:0002bb10       ?Close@ZipFileEntry@IO@@QAEXXZ 0042cb10 f   foundation_win32.release:zipfileentry.obj
 0001:0002bb80       ?Read@ZipFileEntry@IO@@QBE_NPAXH@Z 0042cb80 f   foundation_win32.release:zipfileentry.obj
 0001:0002bc10       ?CheckValidCharSet@String@Util@@QBE_NABV12@@Z 0042cc10 f i foundation_win32.release:win360ipaddress.obj
 0001:0002bcb0       ?Host@URI@IO@@QBEABVString@Util@@XZ 0042ccb0 f i foundation_win32.release:win360ipaddress.obj
 0001:0002bcd0       ?Port@URI@IO@@QBEABVString@Util@@XZ 0042ccd0 f i foundation_win32.release:win360ipaddress.obj
 0001:0002bcf0       ??0Win360IpAddress@Win360@@QAE@XZ 0042ccf0 f   foundation_win32.release:win360ipaddress.obj
 0001:0002bd80       ??0Win360IpAddress@Win360@@QAE@ABV01@@Z 0042cd80 f   foundation_win32.release:win360ipaddress.obj
 0001:0002be60       ??0Win360IpAddress@Win360@@QAE@ABVString@Util@@G@Z 0042ce60 f   foundation_win32.release:win360ipaddress.obj
 0001:0002bf00       ??0Win360IpAddress@Win360@@QAE@ABVURI@IO@@@Z 0042cf00 f   foundation_win32.release:win360ipaddress.obj
 0001:0002bf90       ??0Win360IpAddress@Win360@@AAE@ABUsockaddr_in@@@Z 0042cf90 f   foundation_win32.release:win360ipaddress.obj
 0001:0002c020       ?SetSockAddr@Win360IpAddress@Win360@@AAEXABUsockaddr_in@@@Z 0042d020 f   foundation_win32.release:win360ipaddress.obj
 0001:0002c0c0       ?GetSockAddr@Win360IpAddress@Win360@@ABEABUsockaddr_in@@XZ 0042d0c0 f   foundation_win32.release:win360ipaddress.obj
 0001:0002c0e0       ?ExtractFromUri@Win360IpAddress@Win360@@QAEXABVURI@IO@@@Z 0042d0e0 f   foundation_win32.release:win360ipaddress.obj
 0001:0002c1a0       ?SetPort@Win360IpAddress@Win360@@QAEXG@Z 0042d1a0 f   foundation_win32.release:win360ipaddress.obj
 0001:0002c1c0       ?GetPort@Win360IpAddress@Win360@@QBEGXZ 0042d1c0 f   foundation_win32.release:win360ipaddress.obj
 0001:0002c1e0       ?SetHostName@Win360IpAddress@Win360@@QAEXABVString@Util@@@Z 0042d1e0 f   foundation_win32.release:win360ipaddress.obj
 0001:0002c2a0       ?GetHostName@Win360IpAddress@Win360@@QBEABVString@Util@@XZ 0042d2a0 f   foundation_win32.release:win360ipaddress.obj
 0001:0002c2b0       ?GetHostAddr@Win360IpAddress@Win360@@QBEABVString@Util@@XZ 0042d2b0 f   foundation_win32.release:win360ipaddress.obj
 0001:0002c2d0       ?GetHostByName@Win360IpAddress@Win360@@CA_NABVString@Util@@AAUin_addr@@@Z 0042d2d0 f   foundation_win32.release:win360ipaddress.obj
 0001:0002c5c0       ?IsInetAddr@Win360IpAddress@Win360@@CA_NPBUin_addr@@@Z 0042d5c0 f   foundation_win32.release:win360ipaddress.obj
 0001:0002c7c0       ??2Socket@Net@@SAPAXI@Z    0042d7c0 f i foundation_win32.release:socket.obj
 0001:0002c7d0       ??3Socket@Net@@SAXPAX@Z    0042d7d0 f i foundation_win32.release:socket.obj
 0001:0002c7f0       ?GetRtti@Socket@Net@@UBEPAVRtti@Core@@XZ 0042d7f0 f   foundation_win32.release:socket.obj
 0001:0002c800       ?FactoryCreator@Socket@Net@@SAPAVRefCounted@Core@@XZ 0042d800 f   foundation_win32.release:socket.obj
 0001:0002c810       ?Create@Socket@Net@@SAPAV12@XZ 0042d810 f   foundation_win32.release:socket.obj
 0001:0002c850       ??0Socket@Net@@QAE@XZ      0042d850 f i foundation_win32.release:socket.obj
 0001:0002c870       ??_ESocket@Net@@UAEPAXI@Z  0042d870 f i  CIL library: CIL module
 0001:0002c870       ??_GSocket@Net@@UAEPAXI@Z  0042d870 f i foundation_win32.release:socket.obj
 0001:0002c8a0       ??1Socket@Net@@UAE@XZ      0042d8a0 f i foundation_win32.release:socket.obj
 0001:0002c8c0       ?RegisterWithFactory@Socket@Net@@SA_NXZ 0042d8c0 f   foundation_win32.release:socket.obj
 0001:0002c9c0       ?IsValid@StringBuffer@Util@@QBE_NXZ 0042d9c0 f i foundation_win32.release:stringbuffer.obj
 0001:0002c9e0       ??0StringBuffer@Util@@QAE@XZ 0042d9e0 f   foundation_win32.release:stringbuffer.obj
 0001:0002ca10       ??1StringBuffer@Util@@QAE@XZ 0042da10 f   foundation_win32.release:stringbuffer.obj
 0001:0002ca40       ?Setup@StringBuffer@Util@@QAEXH@Z 0042da40 f   foundation_win32.release:stringbuffer.obj
 0001:0002caa0       ?Discard@StringBuffer@Util@@QAEXXZ 0042daa0 f   foundation_win32.release:stringbuffer.obj
 0001:0002cb40       ?AllocNewChunk@StringBuffer@Util@@AAEXXZ 0042db40 f   foundation_win32.release:stringbuffer.obj
 0001:0002cb80       ?AddString@StringBuffer@Util@@QAEPBDPBD@Z 0042db80 f   foundation_win32.release:stringbuffer.obj
 0001:0002cca0       ??0?$Array@PAD@Util@@QAE@XZ 0042dca0 f i foundation_win32.release:stringbuffer.obj
 0001:0002cce0       ??1?$Array@PAD@Util@@QAE@XZ 0042dce0 f i foundation_win32.release:stringbuffer.obj
 0001:0002cd00       ??A?$Array@PAD@Util@@QBEAAPADH@Z 0042dd00 f i foundation_win32.release:stringbuffer.obj
 0001:0002cd50       ?Append@?$Array@PAD@Util@@QAEXABQAD@Z 0042dd50 f i foundation_win32.release:stringbuffer.obj
 0001:0002cdc0       ?Back@?$Array@PAD@Util@@QBEAAPADXZ 0042ddc0 f i foundation_win32.release:stringbuffer.obj
 0001:0002ce10       ?Clear@?$Array@PAD@Util@@QAEXXZ 0042de10 f i foundation_win32.release:stringbuffer.obj
 0001:0002ce60       ?Destroy@?$Array@PAD@Util@@AAEXPAPAD@Z 0042de60 f i foundation_win32.release:stringbuffer.obj
 0001:0002ce70       ?Delete@?$Array@PAD@Util@@AAEXXZ 0042de70 f i foundation_win32.release:stringbuffer.obj
 0001:0002ced0       ?Grow@?$Array@PAD@Util@@AAEXXZ 0042ded0 f i foundation_win32.release:stringbuffer.obj
 0001:0002cf50       ?GrowTo@?$Array@PAD@Util@@AAEXH@Z 0042df50 f i foundation_win32.release:stringbuffer.obj
 0001:0002d000       ??2MemoryStream@IO@@SAPAXI@Z 0042e000 f i foundation_win32.release:memorystream.obj
 0001:0002d010       ??3MemoryStream@IO@@SAXPAX@Z 0042e010 f i foundation_win32.release:memorystream.obj
 0001:0002d030       ?GetRtti@MemoryStream@IO@@UBEPAVRtti@Core@@XZ 0042e030 f   foundation_win32.release:memorystream.obj
 0001:0002d040       ?FactoryCreator@MemoryStream@IO@@SAPAVRefCounted@Core@@XZ 0042e040 f   foundation_win32.release:memorystream.obj
 0001:0002d050       ?Create@MemoryStream@IO@@SAPAV12@XZ 0042e050 f   foundation_win32.release:memorystream.obj
 0001:0002d090       ?RegisterWithFactory@MemoryStream@IO@@SA_NXZ 0042e090 f   foundation_win32.release:memorystream.obj
 0001:0002d190       ??0MemoryStream@IO@@QAE@XZ 0042e190 f   foundation_win32.release:memorystream.obj
 0001:0002d1f0       ??_EMemoryStream@IO@@UAEPAXI@Z 0042e1f0 f i  CIL library: CIL module
 0001:0002d1f0       ??_GMemoryStream@IO@@UAEPAXI@Z 0042e1f0 f i foundation_win32.release:memorystream.obj
 0001:0002d220       ??1MemoryStream@IO@@UAE@XZ 0042e220 f   foundation_win32.release:memorystream.obj
 0001:0002d280       ?CanRead@MemoryStream@IO@@UBE_NXZ 0042e280 f   foundation_win32.release:memorystream.obj
 0001:0002d290       ?CanWrite@MemoryStream@IO@@UBE_NXZ 0042e290 f   foundation_win32.release:memorystream.obj
 0001:0002d2a0       ?CanSeek@MemoryStream@IO@@UBE_NXZ 0042e2a0 f   foundation_win32.release:memorystream.obj
 0001:0002d2b0       ?CanBeMapped@MemoryStream@IO@@UBE_NXZ 0042e2b0 f   foundation_win32.release:memorystream.obj
 0001:0002d2c0       ?SetSize@MemoryStream@IO@@UAEXH@Z 0042e2c0 f   foundation_win32.release:memorystream.obj
 0001:0002d300       ?GetSize@MemoryStream@IO@@UBEHXZ 0042e300 f   foundation_win32.release:memorystream.obj
 0001:0002d320       ?GetPosition@MemoryStream@IO@@UBEHXZ 0042e320 f   foundation_win32.release:memorystream.obj
 0001:0002d340       ?Open@MemoryStream@IO@@UAE_NXZ 0042e340 f   foundation_win32.release:memorystream.obj
 0001:0002d3e0       ?Close@MemoryStream@IO@@UAEXXZ 0042e3e0 f   foundation_win32.release:memorystream.obj
 0001:0002d440       ?Write@MemoryStream@IO@@UAEXPBXH@Z 0042e440 f   foundation_win32.release:memorystream.obj
 0001:0002d620       ?Read@MemoryStream@IO@@UAEHPAXH@Z 0042e620 f   foundation_win32.release:memorystream.obj
 0001:0002d7f0       ?Seek@MemoryStream@IO@@UAEXHW4SeekOrigin@Stream@2@@Z 0042e7f0 f   foundation_win32.release:memorystream.obj
 0001:0002d930       ?Eof@MemoryStream@IO@@UBE_NXZ 0042e930 f   foundation_win32.release:memorystream.obj
 0001:0002d9e0       ?HasRoom@MemoryStream@IO@@ABE_NH@Z 0042e9e0 f   foundation_win32.release:memorystream.obj
 0001:0002da10       ?Realloc@MemoryStream@IO@@AAEXH@Z 0042ea10 f   foundation_win32.release:memorystream.obj
 0001:0002db90       ?MakeRoom@MemoryStream@IO@@AAEXH@Z 0042eb90 f   foundation_win32.release:memorystream.obj
 0001:0002dc60       ?Map@MemoryStream@IO@@UAEPAXXZ 0042ec60 f   foundation_win32.release:memorystream.obj
 0001:0002dcd0       ?Unmap@MemoryStream@IO@@UAEXXZ 0042ecd0 f   foundation_win32.release:memorystream.obj
 0001:0002dd10       ?GetRawPointer@MemoryStream@IO@@QBEPAXXZ 0042ed10 f   foundation_win32.release:memorystream.obj
 0001:0002dd50       ??2HttpClientRegistry@Http@@SAPAXI@Z 0042ed50 f i foundation_win32.release:httpclientregistry.obj
 0001:0002dd60       ??3HttpClientRegistry@Http@@SAXPAX@Z 0042ed60 f i foundation_win32.release:httpclientregistry.obj
 0001:0002dd80       ?IsValid@HttpClientRegistry@Http@@QBE_NXZ 0042ed80 f i foundation_win32.release:httpclientregistry.obj
 0001:0002dda0       ?GetRtti@HttpClientRegistry@Http@@UBEPAVRtti@Core@@XZ 0042eda0 f   foundation_win32.release:httpclientregistry.obj
 0001:0002ddb0       ?FactoryCreator@HttpClientRegistry@Http@@SAPAVRefCounted@Core@@XZ 0042edb0 f   foundation_win32.release:httpclientregistry.obj
 0001:0002ddc0       ?Create@HttpClientRegistry@Http@@SAPAV12@XZ 0042edc0 f   foundation_win32.release:httpclientregistry.obj
 0001:0002de00       ?RegisterWithFactory@HttpClientRegistry@Http@@SA_NXZ 0042ee00 f   foundation_win32.release:httpclientregistry.obj
 0001:0002df00       ??0HttpClientRegistry@Http@@QAE@XZ 0042ef00 f   foundation_win32.release:httpclientregistry.obj
 0001:0002df70       ??_GHttpClientRegistry@Http@@UAEPAXI@Z 0042ef70 f i foundation_win32.release:httpclientregistry.obj
 0001:0002df70       ??_EHttpClientRegistry@Http@@UAEPAXI@Z 0042ef70 f i  CIL library: CIL module
 0001:0002dfa0       ??1?$Dictionary@VStringAtom@Util@@UConnection@HttpClientRegistry@Http@@@Util@@QAE@XZ 0042efa0 f i foundation_win32.release:httpclientregistry.obj
 0001:0002dfe0       ??1HttpClientRegistry@Http@@UAE@XZ 0042efe0 f   foundation_win32.release:httpclientregistry.obj
 0001:0002e060       ?Setup@HttpClientRegistry@Http@@QAEXXZ 0042f060 f   foundation_win32.release:httpclientregistry.obj
 0001:0002e0a0       ?Discard@HttpClientRegistry@Http@@QAEXXZ 0042f0a0 f   foundation_win32.release:httpclientregistry.obj
 0001:0002e130       ?DisconnectIdle@HttpClientRegistry@Http@@QAEXXZ 0042f130 f   foundation_win32.release:httpclientregistry.obj
 0001:0002e1b0       ?ObtainConnection@HttpClientRegistry@Http@@QAE?AV?$Ptr@VHttpClient@Http@@@@ABVURI@IO@@@Z 0042f1b0 f   foundation_win32.release:httpclientregistry.obj
 0001:0002e2c0       ??0Connection@HttpClientRegistry@Http@@QAE@XZ 0042f2c0 f i foundation_win32.release:httpclientregistry.obj
 0001:0002e2e0       ??1Connection@HttpClientRegistry@Http@@QAE@XZ 0042f2e0 f i foundation_win32.release:httpclientregistry.obj
 0001:0002e300       ?ReleaseConnection@HttpClientRegistry@Http@@QAEXABVURI@IO@@@Z 0042f300 f   foundation_win32.release:httpclientregistry.obj
 0001:0002e3a0       ?IsConnected@HttpClientRegistry@Http@@QBE_NABVURI@IO@@@Z 0042f3a0 f   foundation_win32.release:httpclientregistry.obj
 0001:0002e420       ??0?$Ptr@VHttpClient@Http@@@@QAE@ABV0@@Z 0042f420 f i foundation_win32.release:httpclientregistry.obj
 0001:0002e460       ??0?$Ptr@VHttpClient@Http@@@@QAE@XZ 0042f460 f i foundation_win32.release:httpclientregistry.obj
 0001:0002e480       ??4?$Ptr@VHttpClient@Http@@@@QAEXPAVHttpClient@Http@@@Z 0042f480 f i foundation_win32.release:httpclientregistry.obj
 0001:0002e4e0       ??1?$Array@V?$KeyValuePair@VStringAtom@Util@@UConnection@HttpClientRegistry@Http@@@Util@@@Util@@QAE@XZ 0042f4e0 f i foundation_win32.release:httpclientregistry.obj
 0001:0002e500       ??0?$Dictionary@VStringAtom@Util@@UConnection@HttpClientRegistry@Http@@@Util@@QAE@XZ 0042f500 f i foundation_win32.release:httpclientregistry.obj
 0001:0002e520       ??A?$Dictionary@VStringAtom@Util@@UConnection@HttpClientRegistry@Http@@@Util@@QBEABUConnection@HttpClientRegistry@Http@@ABVStringAtom@1@@Z 0042f520 f i foundation_win32.release:httpclientregistry.obj
 0001:0002e570       ??A?$Dictionary@VStringAtom@Util@@UConnection@HttpClientRegistry@Http@@@Util@@QAEAAUConnection@HttpClientRegistry@Http@@ABVStringAtom@1@@Z 0042f570 f i foundation_win32.release:httpclientregistry.obj
 0001:0002e5c0       ?Size@?$Dictionary@VStringAtom@Util@@UConnection@HttpClientRegistry@Http@@@Util@@QBEHXZ 0042f5c0 f i foundation_win32.release:httpclientregistry.obj
 0001:0002e5e0       ?Clear@?$Dictionary@VStringAtom@Util@@UConnection@HttpClientRegistry@Http@@@Util@@QAEXXZ 0042f5e0 f i foundation_win32.release:httpclientregistry.obj
 0001:0002e620       ?Add@?$Dictionary@VStringAtom@Util@@UConnection@HttpClientRegistry@Http@@@Util@@QAEXABVStringAtom@2@ABUConnection@HttpClientRegistry@Http@@@Z 0042f620 f i foundation_win32.release:httpclientregistry.obj
 0001:0002e670       ?EraseAtIndex@?$Dictionary@VStringAtom@Util@@UConnection@HttpClientRegistry@Http@@@Util@@QAEXH@Z 0042f670 f i foundation_win32.release:httpclientregistry.obj
 0001:0002e6b0       ?FindIndex@?$Dictionary@VStringAtom@Util@@UConnection@HttpClientRegistry@Http@@@Util@@QBEHABVStringAtom@2@@Z 0042f6b0 f i foundation_win32.release:httpclientregistry.obj
 0001:0002e710       ?Contains@?$Dictionary@VStringAtom@Util@@UConnection@HttpClientRegistry@Http@@@Util@@QBE_NABVStringAtom@2@@Z 0042f710 f i foundation_win32.release:httpclientregistry.obj
 0001:0002e770       ?ValueAtIndex@?$Dictionary@VStringAtom@Util@@UConnection@HttpClientRegistry@Http@@@Util@@QAEAAUConnection@HttpClientRegistry@Http@@H@Z 0042f770 f i foundation_win32.release:httpclientregistry.obj
 0001:0002e7c0       ??1?$KeyValuePair@VStringAtom@Util@@UConnection@HttpClientRegistry@Http@@@Util@@QAE@XZ 0042f7c0 f i foundation_win32.release:httpclientregistry.obj
 0001:0002e7e0       ??0?$Array@V?$KeyValuePair@VStringAtom@Util@@UConnection@HttpClientRegistry@Http@@@Util@@@Util@@QAE@XZ 0042f7e0 f i foundation_win32.release:httpclientregistry.obj
 0001:0002e820       ??A?$Array@V?$KeyValuePair@VStringAtom@Util@@UConnection@HttpClientRegistry@Http@@@Util@@@Util@@QBEAAV?$KeyValuePair@VStringAtom@Util@@UConnection@HttpClientRegistry@Http@@@1@H@Z 0042f820 f i foundation_win32.release:httpclientregistry.obj
 0001:0002e870       ?Append@?$Array@V?$KeyValuePair@VStringAtom@Util@@UConnection@HttpClientRegistry@Http@@@Util@@@Util@@QAEXABV?$KeyValuePair@VStringAtom@Util@@UConnection@HttpClientRegistry@Http@@@2@@Z 0042f870 f i foundation_win32.release:httpclientregistry.obj
 0001:0002e8f0       ?Size@?$Array@V?$KeyValuePair@VStringAtom@Util@@UConnection@HttpClientRegistry@Http@@@Util@@@Util@@QBEHXZ 0042f8f0 f i foundation_win32.release:httpclientregistry.obj
 0001:0002e910       ?EraseIndex@?$Array@V?$KeyValuePair@VStringAtom@Util@@UConnection@HttpClientRegistry@Http@@@Util@@@Util@@QAEXH@Z 0042f910 f i foundation_win32.release:httpclientregistry.obj
 0001:0002e990       ?InsertSorted@?$Array@V?$KeyValuePair@VStringAtom@Util@@UConnection@HttpClientRegistry@Http@@@Util@@@Util@@QAEHABV?$KeyValuePair@VStringAtom@Util@@UConnection@HttpClientRegistry@Http@@@2@@Z 0042f990 f i foundation_win32.release:httpclientregistry.obj
 0001:0002ec00       ?Clear@?$Array@V?$KeyValuePair@VStringAtom@Util@@UConnection@HttpClientRegistry@Http@@@Util@@@Util@@QAEXXZ 0042fc00 f i foundation_win32.release:httpclientregistry.obj
 0001:0002ec50       ?BinarySearchIndex@?$Array@V?$KeyValuePair@VStringAtom@Util@@UConnection@HttpClientRegistry@Http@@@Util@@@Util@@QBEHABV?$KeyValuePair@VStringAtom@Util@@UConnection@HttpClientRegistry@Http@@@2@@Z 0042fc50 f i foundation_win32.release:httpclientregistry.obj
 0001:0002ed80       ?Delete@?$Array@V?$KeyValuePair@VStringAtom@Util@@UConnection@HttpClientRegistry@Http@@@Util@@@Util@@AAEXXZ 0042fd80 f i foundation_win32.release:httpclientregistry.obj
 0001:0002edf0       ??0?$KeyValuePair@VStringAtom@Util@@UConnection@HttpClientRegistry@Http@@@Util@@QAE@ABVStringAtom@1@@Z 0042fdf0 f i foundation_win32.release:httpclientregistry.obj
 0001:0002ee20       ??0?$KeyValuePair@VStringAtom@Util@@UConnection@HttpClientRegistry@Http@@@Util@@QAE@ABVStringAtom@1@ABUConnection@HttpClientRegistry@Http@@@Z 0042fe20 f i foundation_win32.release:httpclientregistry.obj
 0001:0002ee60       ?Value@?$KeyValuePair@VStringAtom@Util@@UConnection@HttpClientRegistry@Http@@@Util@@QAEAAUConnection@HttpClientRegistry@Http@@XZ 0042fe60 f i foundation_win32.release:httpclientregistry.obj
 0001:0002ee80       ??_E?$KeyValuePair@VStringAtom@Util@@UConnection@HttpClientRegistry@Http@@@Util@@QAEPAXI@Z 0042fe80 f i foundation_win32.release:httpclientregistry.obj
 0001:0002ef20       ??0Connection@HttpClientRegistry@Http@@QAE@ABU012@@Z 0042ff20 f i foundation_win32.release:httpclientregistry.obj
 0001:0002ef50       ?Insert@?$Array@V?$KeyValuePair@VStringAtom@Util@@UConnection@HttpClientRegistry@Http@@@Util@@@Util@@QAEXHABV?$KeyValuePair@VStringAtom@Util@@UConnection@HttpClientRegistry@Http@@@2@@Z 0042ff50 f i foundation_win32.release:httpclientregistry.obj
 0001:0002efc0       ?InsertAtEndOfIdenticalRange@?$Array@V?$KeyValuePair@VStringAtom@Util@@UConnection@HttpClientRegistry@Http@@@Util@@@Util@@QAEHHABV?$KeyValuePair@VStringAtom@Util@@UConnection@HttpClientRegistry@Http@@@2@@Z 0042ffc0 f i foundation_win32.release:httpclientregistry.obj
 0001:0002f040       ?Destroy@?$Array@V?$KeyValuePair@VStringAtom@Util@@UConnection@HttpClientRegistry@Http@@@Util@@@Util@@AAEXPAV?$KeyValuePair@VStringAtom@Util@@UConnection@HttpClientRegistry@Http@@@2@@Z 00430040 f i foundation_win32.release:httpclientregistry.obj
 0001:0002f070       ?Grow@?$Array@V?$KeyValuePair@VStringAtom@Util@@UConnection@HttpClientRegistry@Http@@@Util@@@Util@@AAEXXZ 00430070 f i foundation_win32.release:httpclientregistry.obj
 0001:0002f0f0       ?Move@?$Array@V?$KeyValuePair@VStringAtom@Util@@UConnection@HttpClientRegistry@Http@@@Util@@@Util@@AAEXHH@Z 004300f0 f i foundation_win32.release:httpclientregistry.obj
 0001:0002f280       ??4?$KeyValuePair@VStringAtom@Util@@UConnection@HttpClientRegistry@Http@@@Util@@QAEXABV01@@Z 00430280 f i foundation_win32.release:httpclientregistry.obj
 0001:0002f2d0       ??9?$KeyValuePair@VStringAtom@Util@@UConnection@HttpClientRegistry@Http@@@Util@@QBE_NABV01@@Z 004302d0 f i foundation_win32.release:httpclientregistry.obj
 0001:0002f2f0       ??O?$KeyValuePair@VStringAtom@Util@@UConnection@HttpClientRegistry@Http@@@Util@@QBE_NABV01@@Z 004302f0 f i foundation_win32.release:httpclientregistry.obj
 0001:0002f310       ??M?$KeyValuePair@VStringAtom@Util@@UConnection@HttpClientRegistry@Http@@@Util@@QBE_NABV01@@Z 00430310 f i foundation_win32.release:httpclientregistry.obj
 0001:0002f330       ??_G?$KeyValuePair@VStringAtom@Util@@UConnection@HttpClientRegistry@Http@@@Util@@QAEPAXI@Z 00430330 f i foundation_win32.release:httpclientregistry.obj
 0001:0002f370       ??4Connection@HttpClientRegistry@Http@@QAEAAU012@ABU012@@Z 00430370 f i foundation_win32.release:httpclientregistry.obj
 0001:0002f3a0       ?GrowTo@?$Array@V?$KeyValuePair@VStringAtom@Util@@UConnection@HttpClientRegistry@Http@@@Util@@@Util@@AAEXH@Z 004303a0 f i foundation_win32.release:httpclientregistry.obj
 0001:0002f4c0       ??4?$Ptr@VHttpClient@Http@@@@QAEXABV0@@Z 004304c0 f i foundation_win32.release:httpclientregistry.obj
 0001:0002f520       ??0?$KeyValuePair@VStringAtom@Util@@UConnection@HttpClientRegistry@Http@@@Util@@QAE@XZ 00430520 f i foundation_win32.release:httpclientregistry.obj
 0001:0002f550       ?SetBlocking@StdTcpClient@Net@@QAEX_N@Z 00430550 f i foundation_win32.release:httpclient.obj
 0001:0002f590       ?IsBlocking@StdTcpClient@Net@@QBE_NXZ 00430590 f i foundation_win32.release:httpclient.obj
 0001:0002f5b0       ?SetServerAddress@StdTcpClient@Net@@QAEXABVWin360IpAddress@Win360@@@Z 004305b0 f i foundation_win32.release:httpclient.obj
 0001:0002f5d0       ??2HttpClient@Http@@SAPAXI@Z 004305d0 f i foundation_win32.release:httpclient.obj
 0001:0002f5e0       ??3HttpClient@Http@@SAXPAX@Z 004305e0 f i foundation_win32.release:httpclient.obj
 0001:0002f600       ?SetMethod@HttpRequestWriter@Http@@QAEXW4Code@HttpMethod@2@@Z 00430600 f i foundation_win32.release:httpclient.obj
 0001:0002f620       ?SetURI@HttpRequestWriter@Http@@QAEXABVURI@IO@@@Z 00430620 f i foundation_win32.release:httpclient.obj
 0001:0002f640       ?SetUserAgent@HttpRequestWriter@Http@@QAEXABVString@Util@@@Z 00430640 f i foundation_win32.release:httpclient.obj
 0001:0002f690       ?IsValidHttpResponse@HttpResponseReader@Http@@QBE_NXZ 00430690 f i foundation_win32.release:httpclient.obj
 0001:0002f6b0       ?GetStatusCode@HttpResponseReader@Http@@QBE?AW4Code@HttpStatus@2@XZ 004306b0 f i foundation_win32.release:httpclient.obj
 0001:0002f6d0       ?GetContentLength@HttpResponseReader@Http@@QBEHXZ 004306d0 f i foundation_win32.release:httpclient.obj
 0001:0002f6f0       ?GetRtti@HttpClient@Http@@UBEPAVRtti@Core@@XZ 004306f0 f   foundation_win32.release:httpclient.obj
 0001:0002f700       ?FactoryCreator@HttpClient@Http@@SAPAVRefCounted@Core@@XZ 00430700 f   foundation_win32.release:httpclient.obj
 0001:0002f710       ?Create@HttpClient@Http@@SAPAV12@XZ 00430710 f   foundation_win32.release:httpclient.obj
 0001:0002f750       ?RegisterWithFactory@HttpClient@Http@@SA_NXZ 00430750 f   foundation_win32.release:httpclient.obj
 0001:0002f850       ??0HttpClient@Http@@QAE@XZ 00430850 f   foundation_win32.release:httpclient.obj
 0001:0002f8f0       ??_EHttpClient@Http@@UAEPAXI@Z 004308f0 f i  CIL library: CIL module
 0001:0002f8f0       ??_GHttpClient@Http@@UAEPAXI@Z 004308f0 f i foundation_win32.release:httpclient.obj
 0001:0002f920       ??1HttpClient@Http@@UAE@XZ 00430920 f   foundation_win32.release:httpclient.obj
 0001:0002f9c0       ?Connect@HttpClient@Http@@QAE_NABVURI@IO@@@Z 004309c0 f   foundation_win32.release:httpclient.obj
 0001:0002fab0       ?Disconnect@HttpClient@Http@@QAEXXZ 00430ab0 f   foundation_win32.release:httpclient.obj
 0001:0002fae0       ?IsConnected@HttpClient@Http@@QBE_NXZ 00430ae0 f   foundation_win32.release:httpclient.obj
 0001:0002fb00       ?SendRequest@HttpClient@Http@@QAE?AW4Code@HttpStatus@2@W43HttpMethod@2@ABVURI@IO@@ABV?$Ptr@VStream@IO@@@@@Z 00430b00 f   foundation_win32.release:httpclient.obj
 0001:000300a0       ?isvalid@?$Ptr@VSocket@Net@@@@QBE_NXZ 004310a0 f i foundation_win32.release:httpclient.obj
 0001:000300c0       ??0?$Ptr@VTcpClient@Net@@@@QAE@XZ 004310c0 f i foundation_win32.release:httpclient.obj
 0001:000300e0       ??1?$Ptr@VTcpClient@Net@@@@QAE@XZ 004310e0 f i foundation_win32.release:httpclient.obj
 0001:00030110       ??4?$Ptr@VTcpClient@Net@@@@QAEXPAVTcpClient@Net@@@Z 00431110 f i foundation_win32.release:httpclient.obj
 0001:00030170       ??C?$Ptr@VTcpClient@Net@@@@QBEPAVTcpClient@Net@@XZ 00431170 f i foundation_win32.release:httpclient.obj
 0001:000301b0       ??0?$Ptr@VHttpRequestWriter@Http@@@@QAE@PAVHttpRequestWriter@Http@@@Z 004311b0 f i foundation_win32.release:httpclient.obj
 0001:000301f0       ??1?$Ptr@VHttpRequestWriter@Http@@@@QAE@XZ 004311f0 f i foundation_win32.release:httpclient.obj
 0001:00030220       ??C?$Ptr@VHttpRequestWriter@Http@@@@QBEPAVHttpRequestWriter@Http@@XZ 00431220 f i foundation_win32.release:httpclient.obj
 0001:00030260       ??0?$Ptr@VHttpResponseReader@Http@@@@QAE@PAVHttpResponseReader@Http@@@Z 00431260 f i foundation_win32.release:httpclient.obj
 0001:000302a0       ??1?$Ptr@VHttpResponseReader@Http@@@@QAE@XZ 004312a0 f i foundation_win32.release:httpclient.obj
 0001:000302d0       ??C?$Ptr@VHttpResponseReader@Http@@@@QBEPAVHttpResponseReader@Http@@XZ 004312d0 f i foundation_win32.release:httpclient.obj
 0001:00030310       ??2TcpClient@Net@@SAPAXI@Z 00431310 f i foundation_win32.release:tcpclient.obj
 0001:00030320       ??3TcpClient@Net@@SAXPAX@Z 00431320 f i foundation_win32.release:tcpclient.obj
 0001:00030340       ?GetRtti@TcpClient@Net@@UBEPAVRtti@Core@@XZ 00431340 f   foundation_win32.release:tcpclient.obj
 0001:00030350       ?FactoryCreator@TcpClient@Net@@SAPAVRefCounted@Core@@XZ 00431350 f   foundation_win32.release:tcpclient.obj
 0001:00030360       ?Create@TcpClient@Net@@SAPAV12@XZ 00431360 f   foundation_win32.release:tcpclient.obj
 0001:000303a0       ??0TcpClient@Net@@QAE@XZ   004313a0 f i foundation_win32.release:tcpclient.obj
 0001:000303c0       ??_ETcpClient@Net@@UAEPAXI@Z 004313c0 f i  CIL library: CIL module
 0001:000303c0       ??_GTcpClient@Net@@UAEPAXI@Z 004313c0 f i foundation_win32.release:tcpclient.obj
 0001:000303f0       ??1TcpClient@Net@@UAE@XZ   004313f0 f i foundation_win32.release:tcpclient.obj
 0001:00030410       ?RegisterWithFactory@TcpClient@Net@@SA_NXZ 00431410 f   foundation_win32.release:tcpclient.obj
 0001:00030510       ?SetReUseAddr@Win360Socket@Win360@@QAEX_N@Z 00431510 f i foundation_win32.release:stdtcpclient.obj
 0001:00030530       ?SetNoDelay@Win360Socket@Win360@@QAEX_N@Z 00431530 f i foundation_win32.release:stdtcpclient.obj
 0001:00030550       ?GetMaxMsgSize@Win360Socket@Win360@@QAEHXZ 00431550 f i foundation_win32.release:stdtcpclient.obj
 0001:00030560       ??2StdTcpClient@Net@@SAPAXI@Z 00431560 f i foundation_win32.release:stdtcpclient.obj
 0001:00030570       ??3StdTcpClient@Net@@SAXPAX@Z 00431570 f i foundation_win32.release:stdtcpclient.obj
 0001:00030590       ?GetRtti@StdTcpClient@Net@@UBEPAVRtti@Core@@XZ 00431590 f   foundation_win32.release:stdtcpclient.obj
 0001:000305a0       ?FactoryCreator@StdTcpClient@Net@@SAPAVRefCounted@Core@@XZ 004315a0 f   foundation_win32.release:stdtcpclient.obj
 0001:000305b0       ?Create@StdTcpClient@Net@@SAPAV12@XZ 004315b0 f   foundation_win32.release:stdtcpclient.obj
 0001:000305f0       ?RegisterWithFactory@StdTcpClient@Net@@SA_NXZ 004315f0 f   foundation_win32.release:stdtcpclient.obj
 0001:000306f0       ??0StdTcpClient@Net@@QAE@XZ 004316f0 f   foundation_win32.release:stdtcpclient.obj
 0001:00030780       ??_GStdTcpClient@Net@@UAEPAXI@Z 00431780 f i foundation_win32.release:stdtcpclient.obj
 0001:00030780       ??_EStdTcpClient@Net@@UAEPAXI@Z 00431780 f i  CIL library: CIL module
 0001:000307b0       ??1StdTcpClient@Net@@UAE@XZ 004317b0 f   foundation_win32.release:stdtcpclient.obj
 0001:00030830       ?Connect@StdTcpClient@Net@@QAE?AW4Result@12@XZ 00431830 f   foundation_win32.release:stdtcpclient.obj
 0001:00030a40       ?IsConnected@StdTcpClient@Net@@QAE_NXZ 00431a40 f   foundation_win32.release:stdtcpclient.obj
 0001:00030a90       ?Disconnect@StdTcpClient@Net@@QAEXXZ 00431a90 f   foundation_win32.release:stdtcpclient.obj
 0001:00030b00       ?Send@StdTcpClient@Net@@QAE_NXZ 00431b00 f   foundation_win32.release:stdtcpclient.obj
 0001:00030db0       ?Recv@StdTcpClient@Net@@QAE_NXZ 00431db0 f   foundation_win32.release:stdtcpclient.obj
 0001:00030f80       ?GetSendStream@StdTcpClient@Net@@QAEABV?$Ptr@VStream@IO@@@@XZ 00431f80 f   foundation_win32.release:stdtcpclient.obj
 0001:00030fa0       ?GetRecvStream@StdTcpClient@Net@@QAEABV?$Ptr@VStream@IO@@@@XZ 00431fa0 f   foundation_win32.release:stdtcpclient.obj
 0001:00030fc0       ??0?$Ptr@VSocket@Net@@@@QAE@XZ 00431fc0 f i foundation_win32.release:stdtcpclient.obj
 0001:00030fe0       ??1?$Ptr@VSocket@Net@@@@QAE@XZ 00431fe0 f i foundation_win32.release:stdtcpclient.obj
 0001:00031010       ?IsValid@URI@IO@@QBE_NXZ   00432010 f i foundation_win32.release:httprequestwriter.obj
 0001:00031030       ?ToString@HttpMethod@Http@@SA?AVString@Util@@W4Code@12@@Z 00432030 f i foundation_win32.release:httprequestwriter.obj
 0001:00031270       ??2HttpRequestWriter@Http@@SAPAXI@Z 00432270 f i foundation_win32.release:httprequestwriter.obj
 0001:00031280       ??3HttpRequestWriter@Http@@SAXPAX@Z 00432280 f i foundation_win32.release:httprequestwriter.obj
 0001:000312a0       ?GetRtti@HttpRequestWriter@Http@@UBEPAVRtti@Core@@XZ 004322a0 f   foundation_win32.release:httprequestwriter.obj
 0001:000312b0       ?FactoryCreator@HttpRequestWriter@Http@@SAPAVRefCounted@Core@@XZ 004322b0 f   foundation_win32.release:httprequestwriter.obj
 0001:000312c0       ?Create@HttpRequestWriter@Http@@SAPAV12@XZ 004322c0 f   foundation_win32.release:httprequestwriter.obj
 0001:00031300       ?RegisterWithFactory@HttpRequestWriter@Http@@SA_NXZ 00432300 f   foundation_win32.release:httprequestwriter.obj
 0001:00031400       ??0HttpRequestWriter@Http@@QAE@XZ 00432400 f   foundation_win32.release:httprequestwriter.obj
 0001:00031480       ??_EHttpRequestWriter@Http@@UAEPAXI@Z 00432480 f i  CIL library: CIL module
 0001:00031480       ??_GHttpRequestWriter@Http@@UAEPAXI@Z 00432480 f i foundation_win32.release:httprequestwriter.obj
 0001:000314b0       ??1HttpRequestWriter@Http@@UAE@XZ 004324b0 f i foundation_win32.release:httprequestwriter.obj
 0001:00031520       ?WriteRequestHeader@HttpRequestWriter@Http@@QAE_NXZ 00432520 f   foundation_win32.release:httprequestwriter.obj
 0001:00031900       ??0?$Ptr@VTextWriter@IO@@@@QAE@PAVTextWriter@IO@@@Z 00432900 f i foundation_win32.release:httprequestwriter.obj
 0001:00031940       ?Set@MediaType@IO@@QAEXABVString@Util@@@Z 00432940 f i foundation_win32.release:httpresponsereader.obj
 0001:00031a90       ?Clear@MediaType@IO@@QAEXXZ 00432a90 f i foundation_win32.release:httpresponsereader.obj
 0001:00031b20       ??2HttpResponseReader@Http@@SAPAXI@Z 00432b20 f i foundation_win32.release:httpresponsereader.obj
 0001:00031b30       ??3HttpResponseReader@Http@@SAXPAX@Z 00432b30 f i foundation_win32.release:httpresponsereader.obj
 0001:00031b50       ?GetRtti@HttpResponseReader@Http@@UBEPAVRtti@Core@@XZ 00432b50 f   foundation_win32.release:httpresponsereader.obj
 0001:00031b60       ?FactoryCreator@HttpResponseReader@Http@@SAPAVRefCounted@Core@@XZ 00432b60 f   foundation_win32.release:httpresponsereader.obj
 0001:00031b70       ?Create@HttpResponseReader@Http@@SAPAV12@XZ 00432b70 f   foundation_win32.release:httpresponsereader.obj
 0001:00031bb0       ?RegisterWithFactory@HttpResponseReader@Http@@SA_NXZ 00432bb0 f   foundation_win32.release:httpresponsereader.obj
 0001:00031cb0       ??0HttpResponseReader@Http@@QAE@XZ 00432cb0 f   foundation_win32.release:httpresponsereader.obj
 0001:00031d00       ??_EHttpResponseReader@Http@@UAEPAXI@Z 00432d00 f i  CIL library: CIL module
 0001:00031d00       ??_GHttpResponseReader@Http@@UAEPAXI@Z 00432d00 f i foundation_win32.release:httpresponsereader.obj
 0001:00031d40       ??1HttpResponseReader@Http@@UAE@XZ 00432d40 f i foundation_win32.release:httpresponsereader.obj
 0001:00031d60       ?ReadResponse@HttpResponseReader@Http@@QAE_NXZ 00432d60 f   foundation_win32.release:httpresponsereader.obj
 0001:00032400       ??0?$Ptr@VTextReader@IO@@@@QAE@PAVTextReader@IO@@@Z 00433400 f i foundation_win32.release:httpresponsereader.obj
 0001:00032440       ??1?$Ptr@VTextReader@IO@@@@QAE@XZ 00433440 f i foundation_win32.release:httpresponsereader.obj
 0001:00032470       ??C?$Ptr@VTextReader@IO@@@@QBEPAVTextReader@IO@@XZ 00433470 f i foundation_win32.release:httpresponsereader.obj
 0001:000324b0       ??2StreamReader@IO@@SAPAXI@Z 004334b0 f i foundation_win32.release:streamreader.obj
 0001:000324c0       ??3StreamReader@IO@@SAXPAX@Z 004334c0 f i foundation_win32.release:streamreader.obj
 0001:000324e0       ?IsOpen@StreamReader@IO@@QBE_NXZ 004334e0 f i foundation_win32.release:streamreader.obj
 0001:00032500       ?GetRtti@StreamReader@IO@@UBEPAVRtti@Core@@XZ 00433500 f   foundation_win32.release:streamreader.obj
 0001:00032510       ?FactoryCreator@StreamReader@IO@@SAPAVRefCounted@Core@@XZ 00433510 f   foundation_win32.release:streamreader.obj
 0001:00032520       ?Create@StreamReader@IO@@SAPAV12@XZ 00433520 f   foundation_win32.release:streamreader.obj
 0001:00032560       ?RegisterWithFactory@StreamReader@IO@@SA_NXZ 00433560 f   foundation_win32.release:streamreader.obj
 0001:00032660       ??0StreamReader@IO@@QAE@XZ 00433660 f   foundation_win32.release:streamreader.obj
 0001:000326b0       ??_GStreamReader@IO@@UAEPAXI@Z 004336b0 f i foundation_win32.release:streamreader.obj
 0001:000326b0       ??_EStreamReader@IO@@UAEPAXI@Z 004336b0 f i  CIL library: CIL module
 0001:000326e0       ??1StreamReader@IO@@UAE@XZ 004336e0 f   foundation_win32.release:streamreader.obj
 0001:00032730       ?SetStream@StreamReader@IO@@QAEXABV?$Ptr@VStream@IO@@@@@Z 00433730 f   foundation_win32.release:streamreader.obj
 0001:00032750       ?GetStream@StreamReader@IO@@QBEABV?$Ptr@VStream@IO@@@@XZ 00433750 f   foundation_win32.release:streamreader.obj
 0001:00032770       ?HasStream@StreamReader@IO@@QBE_NXZ 00433770 f   foundation_win32.release:streamreader.obj
 0001:00032790       ?Eof@StreamReader@IO@@QBE_NXZ 00433790 f   foundation_win32.release:streamreader.obj
 0001:000327e0       ?Open@StreamReader@IO@@UAE_NXZ 004337e0 f   foundation_win32.release:streamreader.obj
 0001:00032920       ?Close@StreamReader@IO@@UAEXXZ 00433920 f   foundation_win32.release:streamreader.obj
 0001:000329a0       ??2TextReader@IO@@SAPAXI@Z 004339a0 f i foundation_win32.release:textreader.obj
 0001:000329b0       ??3TextReader@IO@@SAXPAX@Z 004339b0 f i foundation_win32.release:textreader.obj
 0001:000329d0       ?GetRtti@TextReader@IO@@UBEPAVRtti@Core@@XZ 004339d0 f   foundation_win32.release:textreader.obj
 0001:000329e0       ?FactoryCreator@TextReader@IO@@SAPAVRefCounted@Core@@XZ 004339e0 f   foundation_win32.release:textreader.obj
 0001:000329f0       ?Create@TextReader@IO@@SAPAV12@XZ 004339f0 f   foundation_win32.release:textreader.obj
 0001:00032a30       ?RegisterWithFactory@TextReader@IO@@SA_NXZ 00433a30 f   foundation_win32.release:textreader.obj
 0001:00032b30       ??0TextReader@IO@@QAE@XZ   00433b30 f   foundation_win32.release:textreader.obj
 0001:00032b50       ??_GTextReader@IO@@UAEPAXI@Z 00433b50 f i foundation_win32.release:textreader.obj
 0001:00032b50       ??_ETextReader@IO@@UAEPAXI@Z 00433b50 f i  CIL library: CIL module
 0001:00032b80       ??1TextReader@IO@@UAE@XZ   00433b80 f   foundation_win32.release:textreader.obj
 0001:00032bc0       ?ReadChar@TextReader@IO@@QAEEXZ 00433bc0 f   foundation_win32.release:textreader.obj
 0001:00032c00       ?ReadLine@TextReader@IO@@QAE?AVString@Util@@XZ 00433c00 f   foundation_win32.release:textreader.obj
 0001:00032d20       ?ReadAll@TextReader@IO@@QAE?AVString@Util@@XZ 00433d20 f   foundation_win32.release:textreader.obj
 0001:00032e20       ?ReadAllLines@TextReader@IO@@QAE?AV?$Array@VString@Util@@@Util@@XZ 00433e20 f   foundation_win32.release:textreader.obj
 0001:00032ec0       ?FromString@HttpStatus@Http@@SA?AW4Code@12@ABVString@Util@@@Z 00433ec0 f   foundation_win32.release:httpstatus.obj
 0001:00033020       ?ToString@HttpStatus@Http@@SA?AVString@Util@@W4Code@12@@Z 00434020 f   foundation_win32.release:httpstatus.obj
 0001:000332b0       ?ToHumanReadableString@HttpStatus@Http@@SA?AVString@Util@@W4Code@12@@Z 004342b0 f   foundation_win32.release:httpstatus.obj
 0001:000338a0       _unzStringFileNameCompare  004348a0 f   zlib_win32.release:unzip.obj
 0001:00033af0       _unzOpen2                  00434af0 f   zlib_win32.release:unzip.obj
 0001:00033dc0       _unzOpen                   00434dc0 f   zlib_win32.release:unzip.obj
 0001:00033de0       _unzClose                  00434de0 f   zlib_win32.release:unzip.obj
 0001:00033e50       _unzGetGlobalInfo          00434e50 f   zlib_win32.release:unzip.obj
 0001:000343d0       _unzGetCurrentFileInfo     004353d0 f   zlib_win32.release:unzip.obj
 0001:00034400       _unzGoToFirstFile          00435400 f   zlib_win32.release:unzip.obj
 0001:00034480       _unzGoToNextFile           00435480 f   zlib_win32.release:unzip.obj
 0001:00034550       _unzLocateFile             00435550 f   zlib_win32.release:unzip.obj
 0001:000346c0       _unzGetFilePos             004356c0 f   zlib_win32.release:unzip.obj
 0001:00034710       _unzGoToFilePos            00435710 f   zlib_win32.release:unzip.obj
 0001:00034a60       _unzOpenCurrentFile3       00435a60 f   zlib_win32.release:unzip.obj
 0001:00034e50       _unzOpenCurrentFile        00435e50 f   zlib_win32.release:unzip.obj
 0001:00034e70       _unzOpenCurrentFilePassword 00435e70 f   zlib_win32.release:unzip.obj
 0001:00034e90       _unzOpenCurrentFile2       00435e90 f   zlib_win32.release:unzip.obj
 0001:00034eb0       _unzReadCurrentFile        00435eb0 f   zlib_win32.release:unzip.obj
 0001:000352e0       _unztell                   004362e0 f   zlib_win32.release:unzip.obj
 0001:00035320       _unzeof                    00436320 f   zlib_win32.release:unzip.obj
 0001:00035370       _unzGetLocalExtrafield     00436370 f   zlib_win32.release:unzip.obj
 0001:00035450       _unzCloseCurrentFile       00436450 f   zlib_win32.release:unzip.obj
 0001:00035530       _unzGetGlobalComment       00436530 f   zlib_win32.release:unzip.obj
 0001:00035600       _unzGetOffset              00436600 f   zlib_win32.release:unzip.obj
 0001:00035660       _unzSetOffset              00436660 f   zlib_win32.release:unzip.obj
 0001:000356d0       _uncompress                004366d0 f   zlib_win32.release:uncompr.obj
 0001:000357b0       _get_crc_table             004367b0 f   zlib_win32.release:crc32.obj
 0001:000357c0       _crc32                     004367c0 f   zlib_win32.release:crc32.obj
 0001:000362b0       _crc32_combine             004372b0 f   zlib_win32.release:crc32.obj
 0001:000363d0       _inflateReset              004373d0 f   zlib_win32.release:inflate.obj
 0001:000364c0       _inflatePrime              004374c0 f   zlib_win32.release:inflate.obj
 0001:00036540       _inflateInit2_             00437540 f   zlib_win32.release:inflate.obj
 0001:00036680       _inflateInit_              00437680 f   zlib_win32.release:inflate.obj
 0001:00036880       _inflate                   00437880 f   zlib_win32.release:inflate.obj
 0001:00038790       _inflateEnd                00439790 f   zlib_win32.release:inflate.obj
 0001:00038810       _inflateSetDictionary      00439810 f   zlib_win32.release:inflate.obj
 0001:00038940       _inflateGetHeader          00439940 f   zlib_win32.release:inflate.obj
 0001:00038a20       _inflateSync               00439a20 f   zlib_win32.release:inflate.obj
 0001:00038bb0       _inflateSyncPoint          00439bb0 f   zlib_win32.release:inflate.obj
 0001:00038c00       _inflateCopy               00439c00 f   zlib_win32.release:inflate.obj
 0001:00038dc0       ?nebula3_open_file_func@@YAPAXPAXPBDH@Z 00439dc0 f   zlib_win32.release:ionebula3.obj
 0001:00038ec0       ?nebula3_read_file_func@@YAKPAX00K@Z 00439ec0 f   zlib_win32.release:ionebula3.obj
 0001:00038f00       ?nebula3_write_file_func@@YAKPAX0PBXK@Z 00439f00 f   zlib_win32.release:ionebula3.obj
 0001:00038f20       ?nebula3_tell_file_func@@YAJPAX0@Z 00439f20 f   zlib_win32.release:ionebula3.obj
 0001:00038f50       ?nebula3_seek_file_func@@YAJPAX0KH@Z 00439f50 f   zlib_win32.release:ionebula3.obj
 0001:00038fd0       ?nebula3_close_file_func@@YAHPAX0@Z 00439fd0 f   zlib_win32.release:ionebula3.obj
 0001:00039020       ?nebula3_error_file_func@@YAHPAX0@Z 0043a020 f   zlib_win32.release:ionebula3.obj
 0001:00039030       _fill_nebula3_filefunc     0043a030 f   zlib_win32.release:ionebula3.obj
 0001:00039090       ??0?$Ptr@VFileStream@IO@@@@QAE@PAVFileStream@IO@@@Z 0043a090 f i zlib_win32.release:ionebula3.obj
 0001:000390d0       ??1?$Ptr@VFileStream@IO@@@@QAE@XZ 0043a0d0 f i zlib_win32.release:ionebula3.obj
 0001:00039100       ??C?$Ptr@VFileStream@IO@@@@QBEPAVFileStream@IO@@XZ 0043a100 f i zlib_win32.release:ionebula3.obj
 0001:00039140       ?get@?$Ptr@VFileStream@IO@@@@QBEPAVFileStream@IO@@XZ 0043a140 f i zlib_win32.release:ionebula3.obj
 0001:00039180       _adler32                   0043a180 f   zlib_win32.release:adler32.obj
 0001:00039610       _adler32_combine           0043a610 f   zlib_win32.release:adler32.obj
 0001:000396f0       _inflate_fast              0043a6f0 f   zlib_win32.release:inffast.obj
 0001:00039e50       _zlibVersion               0043ae50 f   zlib_win32.release:zutil.obj
 0001:00039e60       _zlibCompileFlags          0043ae60 f   zlib_win32.release:zutil.obj
 0001:00039f70       _zError                    0043af70 f   zlib_win32.release:zutil.obj
 0001:00039f90       _zcalloc                   0043af90 f   zlib_win32.release:zutil.obj
 0001:00039fc0       _zcfree                    0043afc0 f   zlib_win32.release:zutil.obj
 0001:00039fe0       _inflate_table             0043afe0 f   zlib_win32.release:inftrees.obj
 0001:0003a624       _HeapAlloc@12              0043b624 f   kernel32:KERNEL32.dll
 0001:0003a62a       _HeapReAlloc@16            0043b62a f   kernel32:KERNEL32.dll
 0001:0003a630       _HeapSize@12               0043b630 f   kernel32:KERNEL32.dll
 0001:0003a636       _HeapFree@12               0043b636 f   kernel32:KERNEL32.dll
 0001:0003a63c       _GlobalMemoryStatus@4      0043b63c f   kernel32:KERNEL32.dll
 0001:0003a642       _InterlockedCompareExchange@12 0043b642 f   kernel32:KERNEL32.dll
 0001:0003a648       _GetCurrentThreadId@0      0043b648 f   kernel32:KERNEL32.dll
 0001:0003a64e       _CreateSemaphoreA@16       0043b64e f   kernel32:KERNEL32.dll
 0001:0003a654       _CloseHandle@4             0043b654 f   kernel32:KERNEL32.dll
 0001:0003a65a       _WaitForSingleObject@8     0043b65a f   kernel32:KERNEL32.dll
 0001:0003a660       _ReleaseSemaphore@12       0043b660 f   kernel32:KERNEL32.dll
 0001:0003a666       _CreateEventA@16           0043b666 f   kernel32:KERNEL32.dll
 0001:0003a66c       _SetEvent@4                0043b66c f   kernel32:KERNEL32.dll
 0001:0003a672       _CreateThread@24           0043b672 f   kernel32:KERNEL32.dll
 0001:0003a678       _SetThreadPriority@8       0043b678 f   kernel32:KERNEL32.dll
 0001:0003a67e       _ResumeThread@4            0043b67e f   kernel32:KERNEL32.dll
 0001:0003a684       _GetExitCodeThread@8       0043b684 f   kernel32:KERNEL32.dll
 0001:0003a68a       _RaiseException@16         0043b68a f   kernel32:KERNEL32.dll
 0001:0003a690       _IsProcessorFeaturePresent@4 0043b690 f   kernel32:KERNEL32.dll
 0001:0003a696       _ExitProcess@4             0043b696 f   kernel32:KERNEL32.dll
 0001:0003a69c       _Sleep@4                   0043b69c f   kernel32:KERNEL32.dll
 0001:0003a6a2       _OutputDebugStringA@4      0043b6a2 f   kernel32:KERNEL32.dll
 0001:0003a6a8       _HeapCreate@12             0043b6a8 f   kernel32:KERNEL32.dll
 0001:0003a6ae       _HeapSetInformation@16     0043b6ae f   kernel32:KERNEL32.dll
 0001:0003a6b4       _CreateFileW@28            0043b6b4 f   kernel32:KERNEL32.dll
 0001:0003a6ba       _SetFilePointer@16         0043b6ba f   kernel32:KERNEL32.dll
 0001:0003a6c0       _WriteFile@20              0043b6c0 f   kernel32:KERNEL32.dll
 0001:0003a6c6       _ReadFile@20               0043b6c6 f   kernel32:KERNEL32.dll
 0001:0003a6cc       _FlushFileBuffers@4        0043b6cc f   kernel32:KERNEL32.dll
 0001:0003a6d2       _GetFileSize@8             0043b6d2 f   kernel32:KERNEL32.dll
 0001:0003a6d8       _GetFileAttributesW@4      0043b6d8 f   kernel32:KERNEL32.dll
 0001:0003a6de       _SetFileAttributesA@8      0043b6de f   kernel32:KERNEL32.dll
 0001:0003a6e4       _DeleteFileW@4             0043b6e4 f   kernel32:KERNEL32.dll
 0001:0003a6ea       _RemoveDirectoryW@4        0043b6ea f   kernel32:KERNEL32.dll
 0001:0003a6f0       _SetFileTime@16            0043b6f0 f   kernel32:KERNEL32.dll
 0001:0003a6f6       _GetFileTime@16            0043b6f6 f   kernel32:KERNEL32.dll
 0001:0003a6fc       _CreateDirectoryW@8        0043b6fc f   kernel32:KERNEL32.dll
 0001:0003a702       _FindFirstFileW@8          0043b702 f   kernel32:KERNEL32.dll
 0001:0003a708       _FindNextFileW@8           0043b708 f   kernel32:KERNEL32.dll
 0001:0003a70e       _FindClose@4               0043b70e f   kernel32:KERNEL32.dll
 0001:0003a714       _GetTempPathW@8            0043b714 f   kernel32:KERNEL32.dll
 0001:0003a71a       _GetModuleFileNameW@12     0043b71a f   kernel32:KERNEL32.dll
 0001:0003a720       _GetSystemInfo@4           0043b720 f   kernel32:KERNEL32.dll
 0001:0003a726       _HeapDestroy@4             0043b726 f   kernel32:KERNEL32.dll
 0001:0003a72c       _SetUnhandledExceptionFilter@4 0043b72c f   kernel32:KERNEL32.dll
 0001:0003a732       _CreateFileA@28            0043b732 f   kernel32:KERNEL32.dll
 0001:0003a738       _GetCurrentProcess@0       0043b738 f   kernel32:KERNEL32.dll
 0001:0003a73e       _GetCurrentProcessId@0     0043b73e f   kernel32:KERNEL32.dll
 0001:0003a744       _GetModuleFileNameA@12     0043b744 f   kernel32:KERNEL32.dll
 0001:0003a74a       _GetLocalTime@4            0043b74a f   kernel32:KERNEL32.dll
 0001:0003a750       _GetStdHandle@4            0043b750 f   kernel32:KERNEL32.dll
 0001:0003a756       _GetConsoleMode@8          0043b756 f   kernel32:KERNEL32.dll
 0001:0003a75c       _WriteConsoleA@20          0043b75c f   kernel32:KERNEL32.dll
 0001:0003a762       _PeekConsoleInputA@16      0043b762 f   kernel32:KERNEL32.dll
 0001:0003a768       _FlushConsoleInputBuffer@4 0043b768 f   kernel32:KERNEL32.dll
 0001:0003a76e       _ReadConsoleA@20           0043b76e f   kernel32:KERNEL32.dll
 0001:0003a774       _GetSystemTime@4           0043b774 f   kernel32:KERNEL32.dll
 0001:0003a77a       _SystemTimeToFileTime@8    0043b77a f   kernel32:KERNEL32.dll
 0001:0003a780       _FileTimeToSystemTime@8    0043b780 f   kernel32:KERNEL32.dll
 0001:0003a786       _LocalFileTimeToFileTime@8 0043b786 f   kernel32:KERNEL32.dll
 0001:0003a78c       _FileTimeToLocalFileTime@8 0043b78c f   kernel32:KERNEL32.dll
 0001:0003a792       _MultiByteToWideChar@24    0043b792 f   kernel32:KERNEL32.dll
 0001:0003a798       _GetLastError@0            0043b798 f   kernel32:KERNEL32.dll
 0001:0003a79e       _WideCharToMultiByte@32    0043b79e f   kernel32:KERNEL32.dll
 0001:0003a7a4       _MessageBoxA@16            0043b7a4 f   user32:USER32.dll
 0001:0003a7aa       _FindWindowA@8             0043b7aa f   user32:USER32.dll
 0001:0003a7b0       _ShowWindow@8              0043b7b0 f   user32:USER32.dll
 0001:0003a7b6       _SHGetFolderPathW@20       0043b7b6 f   shell32:SHELL32.dll
 0001:0003a7bc       __onexit                   0043b7bc f   MSVCRT:atonexit.obj
 0001:0003a861       _atexit                    0043b861 f   MSVCRT:atonexit.obj
 0001:0003a878       _NtCurrentTeb              0043b878 f i MSVCRT:crtexe.obj
 0001:0003ab80       _mainCRTStartup            0043bb80 f   MSVCRT:crtexe.obj
 0001:0003ab8a       __vsnprintf                0043bb8a f   MSVCRT:MSVCR90.dll
 0001:0003ab90       _strtok                    0043bb90 f   MSVCRT:MSVCR90.dll
 0001:0003ab96       _strchr                    0043bb96 f   MSVCRT:MSVCR90.dll
 0001:0003ab9c       _strpbrk                   0043bb9c f   MSVCRT:MSVCR90.dll
 0001:0003aba2       _strncmp                   0043bba2 f   MSVCRT:MSVCR90.dll
 0001:0003aba8       _strstr                    0043bba8 f   MSVCRT:MSVCR90.dll
 0001:0003abae       _strrchr                   0043bbae f   MSVCRT:MSVCR90.dll
 0001:0003abb4       _tolower                   0043bbb4 f   MSVCRT:MSVCR90.dll
 0001:0003abba       _toupper                   0043bbba f   MSVCRT:MSVCR90.dll
 0001:0003abc0       _atoi                      0043bbc0 f   MSVCRT:MSVCR90.dll
 0001:0003abc6       _atof                      0043bbc6 f   MSVCRT:MSVCR90.dll
 0001:0003abcc       _isdigit                   0043bbcc f   MSVCRT:MSVCR90.dll
 0001:0003abd2       _isalpha                   0043bbd2 f   MSVCRT:MSVCR90.dll
 0001:0003abd8       _isalnum                   0043bbd8 f   MSVCRT:MSVCR90.dll
 0001:0003abde       _islower                   0043bbde f   MSVCRT:MSVCR90.dll
 0001:0003abe4       _isupper                   0043bbe4 f   MSVCRT:MSVCR90.dll
 0001:0003abea       __cexit                    0043bbea f   MSVCRT:MSVCR90.dll
 0001:0003abf0       _abort                     0043bbf0 f   MSVCRT:MSVCR90.dll
 0001:0003abf6       _free                      0043bbf6 f   MSVCRT:MSVCR90.dll
 0001:0003abfc       _malloc                    0043bbfc f   MSVCRT:MSVCR90.dll
 0001:0003ac02       __unlock                   0043bc02 f   MSVCRT:MSVCR90.dll
 0001:0003ac08       ___dllonexit               0043bc08 f   MSVCRT:MSVCR90.dll
 0001:0003ac0e       __encode_pointer           0043bc0e f   MSVCRT:MSVCR90.dll
 0001:0003ac14       __lock                     0043bc14 f   MSVCRT:MSVCR90.dll
 0001:0003ac1a       __decode_pointer           0043bc1a f   MSVCRT:MSVCR90.dll
 0001:0003ac20       __SEH_prolog4              0043bc20 f   MSVCRT:sehprolg4.obj
 0001:0003ac65       __SEH_epilog4              0043bc65 f   MSVCRT:sehprolg4.obj
 0001:0003ac79       __except_handler4          0043bc79 f   MSVCRT:chandler4gs.obj
 0001:0003ac9e       ?__CxxUnhandledExceptionFilter@@YGJPAU_EXCEPTION_POINTERS@@@Z 0043bc9e f   MSVCRT:unhandld.obj
 0001:0003ace0       ___CxxSetUnhandledExceptionFilter 0043bce0 f   MSVCRT:unhandld.obj
 0001:0003acee       __amsg_exit                0043bcee f   MSVCRT:MSVCR90.dll
 0001:0003acf4       ___getmainargs             0043bcf4 f   MSVCRT:MSVCR90.dll
 0001:0003acfa       __RTC_Initialize           0043bcfa f   MSVCRT:_initsect_.obj
 0001:0003ad20       __RTC_Terminate            0043bd20 f   MSVCRT:_initsect_.obj
 0001:0003ad46       __exit                     0043bd46 f   MSVCRT:MSVCR90.dll
 0001:0003ad4c       __XcptFilter               0043bd4c f   MSVCRT:MSVCR90.dll
 0001:0003ad52       _exit                      0043bd52 f   MSVCRT:MSVCR90.dll
 0001:0003ad60       __ValidateImageBase        0043bd60 f   MSVCRT:pesect.obj
 0001:0003ada0       __FindPESection            0043bda0 f   MSVCRT:pesect.obj
 0001:0003adf0       __IsNonwritableInCurrentImage 0043bdf0 f   MSVCRT:pesect.obj
 0001:0003aeae       __initterm                 0043beae f   MSVCRT:MSVCR90.dll
 0001:0003aeb4       __initterm_e               0043beb4 f   MSVCRT:MSVCR90.dll
 0001:0003aeba       __configthreadlocale       0043beba f   MSVCRT:MSVCR90.dll
 0001:0003aec0       __invoke_watson_if_error   0043bec0 f i MSVCRT:fp8.obj
 0001:0003aee4       __setdefaultprecision      0043bee4 f   MSVCRT:fp8.obj
 0001:0003af10       ___setusermatherr          0043bf10 f   MSVCRT:MSVCR90.dll
 0001:0003af16       __matherr                  0043bf16 f   MSVCRT:merr.obj
 0001:0003af19       __setargv                  0043bf19 f   MSVCRT:dllargv.obj
 0001:0003af1c       ___p__commode              0043bf1c f   MSVCRT:MSVCR90.dll
 0001:0003af22       ___p__fmode                0043bf22 f   MSVCRT:MSVCR90.dll
 0001:0003af28       ___set_app_type            0043bf28 f   MSVCRT:MSVCR90.dll
 0001:0003af2e       ___security_init_cookie    0043bf2e f   MSVCRT:gs_support.obj
 0001:0003afc4       @__security_check_cookie@4 0043bfc4 f   MSVCRT:secchk.obj
 0001:0003afd4       __except_handler4_common   0043bfd4 f   MSVCRT:MSVCR90.dll
 0001:0003afda       ?terminate@@YAXXZ          0043bfda f   MSVCRT:MSVCR90.dll
 0001:0003afe0       __invoke_watson            0043bfe0 f   MSVCRT:MSVCR90.dll
 0001:0003afe6       __controlfp_s              0043bfe6 f   MSVCRT:MSVCR90.dll
 0001:0003afee       ___report_gsfailure        0043bfee f   MSVCRT:gs_report.obj
 0001:0003b0f4       __crt_debugger_hook        0043c0f4 f   MSVCRT:MSVCR90.dll
 0001:0003b0fa       _MiniDumpWriteDump@28      0043c0fa f   dbghelp:dbghelp.dll
 0001:0003b100       _WSAStartup@8              0043c100 f   wsock32:WSOCK32.dll
 0001:0003b106       _socket@12                 0043c106 f   wsock32:WSOCK32.dll
 0001:0003b10c       _shutdown@8                0043c10c f   wsock32:WSOCK32.dll
 0001:0003b112       _closesocket@4             0043c112 f   wsock32:WSOCK32.dll
 0001:0003b118       _setsockopt@20             0043c118 f   wsock32:WSOCK32.dll
 0001:0003b11e       _getsockopt@20             0043c11e f   wsock32:WSOCK32.dll
 0001:0003b124       _ioctlsocket@12            0043c124 f   wsock32:WSOCK32.dll
 0001:0003b12a       _bind@12                   0043c12a f   wsock32:WSOCK32.dll
 0001:0003b130       _listen@8                  0043c130 f   wsock32:WSOCK32.dll
 0001:0003b136       _accept@12                 0043c136 f   wsock32:WSOCK32.dll
 0001:0003b13c       _connect@12                0043c13c f   wsock32:WSOCK32.dll
 0001:0003b142       _WSAGetLastError@0         0043c142 f   wsock32:WSOCK32.dll
 0001:0003b148       _select@20                 0043c148 f   wsock32:WSOCK32.dll
 0001:0003b14e       _send@16                   0043c14e f   wsock32:WSOCK32.dll
 0001:0003b154       _recv@16                   0043c154 f   wsock32:WSOCK32.dll
 0001:0003b15a       _htons@4                   0043c15a f   wsock32:WSOCK32.dll
 0001:0003b160       _ntohs@4                   0043c160 f   wsock32:WSOCK32.dll
 0001:0003b166       _htonl@4                   0043c166 f   wsock32:WSOCK32.dll
 0001:0003b16c       _gethostname@8             0043c16c f   wsock32:WSOCK32.dll
 0001:0003b172       _gethostbyname@4           0043c172 f   wsock32:WSOCK32.dll
 0001:0003b178       _inet_addr@4               0043c178 f   wsock32:WSOCK32.dll
 0001:0003b17e       _InterlockedExchange@8     0043c17e f   kernel32:KERNEL32.dll
 0001:0003b184       _QueryPerformanceCounter@4 0043c184 f   kernel32:KERNEL32.dll
 0001:0003b18a       _GetTickCount@0            0043c18a f   kernel32:KERNEL32.dll
 0001:0003b190       _GetSystemTimeAsFileTime@4 0043c190 f   kernel32:KERNEL32.dll
 0001:0003b196       _TerminateProcess@8        0043c196 f   kernel32:KERNEL32.dll
 0001:0003b19c       _UnhandledExceptionFilter@4 0043c19c f   kernel32:KERNEL32.dll
 0001:0003b1a2       _IsDebuggerPresent@0       0043c1a2 f   kernel32:KERNEL32.dll
 0001:0003b1a8       __stricmp                  0043c1a8 f   MSVCRT:MSVCR90.dll
 0001:0003b1ae       _memcpy                    0043c1ae f   MSVCRT:MSVCR90.dll
 0001:0003b1c0       _memset                    0043c1c0 f   MSVCRT:MSVCR90.dll
 0001:0003b1d0       __ftol2_sse                0043c1d0 f   MSVCRT:ftol2.obj
 0001:0003b1d9       __ftol2_pentium4           0043c1d9 f   MSVCRT:ftol2.obj
 0001:0003b1ec       __ftol2_sse_excpt          0043c1ec f   MSVCRT:ftol2.obj
 0001:0003b206       __ftol2                    0043c206 f   MSVCRT:ftol2.obj
 0001:0003b27c       __except_handler3          0043c27c f   MSVCRT:MSVCR90.dll
 0001:0003b290       __alloca_probe             0043c290     MSVCRT:chkstk.obj
 0001:0003b290       __chkstk                   0043c290 f   MSVCRT:chkstk.obj
 0001:0003b30b       __get_sse2_info            0043c30b f   MSVCRT:cpu_disp.obj
 0001:0003b36d       ___sse2_available_init     0043c36d f   MSVCRT:cpu_disp.obj
 0002:00000000       __imp__HeapAlloc@12        0043e000     kernel32:KERNEL32.dll
 0002:00000004       __imp__HeapReAlloc@16      0043e004     kernel32:KERNEL32.dll
 0002:00000008       __imp__HeapSize@12         0043e008     kernel32:KERNEL32.dll
 0002:0000000c       __imp__HeapFree@12         0043e00c     kernel32:KERNEL32.dll
 0002:00000010       __imp__GlobalMemoryStatus@4 0043e010     kernel32:KERNEL32.dll
 0002:00000014       __imp__InterlockedCompareExchange@12 0043e014     kernel32:KERNEL32.dll
 0002:00000018       __imp__GetCurrentThreadId@0 0043e018     kernel32:KERNEL32.dll
 0002:0000001c       __imp__CreateSemaphoreA@16 0043e01c     kernel32:KERNEL32.dll
 0002:00000020       __imp__CloseHandle@4       0043e020     kernel32:KERNEL32.dll
 0002:00000024       __imp__WaitForSingleObject@8 0043e024     kernel32:KERNEL32.dll
 0002:00000028       __imp__ReleaseSemaphore@12 0043e028     kernel32:KERNEL32.dll
 0002:0000002c       __imp__CreateEventA@16     0043e02c     kernel32:KERNEL32.dll
 0002:00000030       __imp__SetEvent@4          0043e030     kernel32:KERNEL32.dll
 0002:00000034       __imp__CreateThread@24     0043e034     kernel32:KERNEL32.dll
 0002:00000038       __imp__SetThreadPriority@8 0043e038     kernel32:KERNEL32.dll
 0002:0000003c       __imp__ResumeThread@4      0043e03c     kernel32:KERNEL32.dll
 0002:00000040       __imp__GetExitCodeThread@8 0043e040     kernel32:KERNEL32.dll
 0002:00000044       __imp__RaiseException@16   0043e044     kernel32:KERNEL32.dll
 0002:00000048       __imp__IsProcessorFeaturePresent@4 0043e048     kernel32:KERNEL32.dll
 0002:0000004c       __imp__ExitProcess@4       0043e04c     kernel32:KERNEL32.dll
 0002:00000050       __imp__Sleep@4             0043e050     kernel32:KERNEL32.dll
 0002:00000054       __imp__OutputDebugStringA@4 0043e054     kernel32:KERNEL32.dll
 0002:00000058       __imp__HeapCreate@12       0043e058     kernel32:KERNEL32.dll
 0002:0000005c       __imp__HeapSetInformation@16 0043e05c     kernel32:KERNEL32.dll
 0002:00000060       __imp__CreateFileW@28      0043e060     kernel32:KERNEL32.dll
 0002:00000064       __imp__SetFilePointer@16   0043e064     kernel32:KERNEL32.dll
 0002:00000068       __imp__WriteFile@20        0043e068     kernel32:KERNEL32.dll
 0002:0000006c       __imp__ReadFile@20         0043e06c     kernel32:KERNEL32.dll
 0002:00000070       __imp__FlushFileBuffers@4  0043e070     kernel32:KERNEL32.dll
 0002:00000074       __imp__GetFileSize@8       0043e074     kernel32:KERNEL32.dll
 0002:00000078       __imp__GetFileAttributesW@4 0043e078     kernel32:KERNEL32.dll
 0002:0000007c       __imp__SetFileAttributesA@8 0043e07c     kernel32:KERNEL32.dll
 0002:00000080       __imp__DeleteFileW@4       0043e080     kernel32:KERNEL32.dll
 0002:00000084       __imp__RemoveDirectoryW@4  0043e084     kernel32:KERNEL32.dll
 0002:00000088       __imp__SetFileTime@16      0043e088     kernel32:KERNEL32.dll
 0002:0000008c       __imp__GetFileTime@16      0043e08c     kernel32:KERNEL32.dll
 0002:00000090       __imp__CreateDirectoryW@8  0043e090     kernel32:KERNEL32.dll
 0002:00000094       __imp__FindFirstFileW@8    0043e094     kernel32:KERNEL32.dll
 0002:00000098       __imp__FindNextFileW@8     0043e098     kernel32:KERNEL32.dll
 0002:0000009c       __imp__FindClose@4         0043e09c     kernel32:KERNEL32.dll
 0002:000000a0       __imp__GetTempPathW@8      0043e0a0     kernel32:KERNEL32.dll
 0002:000000a4       __imp__GetModuleFileNameW@12 0043e0a4     kernel32:KERNEL32.dll
 0002:000000a8       __imp__GetSystemInfo@4     0043e0a8     kernel32:KERNEL32.dll
 0002:000000ac       __imp__HeapDestroy@4       0043e0ac     kernel32:KERNEL32.dll
 0002:000000b0       __imp__SetUnhandledExceptionFilter@4 0043e0b0     kernel32:KERNEL32.dll
 0002:000000b4       __imp__CreateFileA@28      0043e0b4     kernel32:KERNEL32.dll
 0002:000000b8       __imp__GetCurrentProcess@0 0043e0b8     kernel32:KERNEL32.dll
 0002:000000bc       __imp__GetCurrentProcessId@0 0043e0bc     kernel32:KERNEL32.dll
 0002:000000c0       __imp__GetModuleFileNameA@12 0043e0c0     kernel32:KERNEL32.dll
 0002:000000c4       __imp__GetLocalTime@4      0043e0c4     kernel32:KERNEL32.dll
 0002:000000c8       __imp__GetStdHandle@4      0043e0c8     kernel32:KERNEL32.dll
 0002:000000cc       __imp__GetConsoleMode@8    0043e0cc     kernel32:KERNEL32.dll
 0002:000000d0       __imp__WriteConsoleA@20    0043e0d0     kernel32:KERNEL32.dll
 0002:000000d4       __imp__PeekConsoleInputA@16 0043e0d4     kernel32:KERNEL32.dll
 0002:000000d8       __imp__FlushConsoleInputBuffer@4 0043e0d8     kernel32:KERNEL32.dll
 0002:000000dc       __imp__ReadConsoleA@20     0043e0dc     kernel32:KERNEL32.dll
 0002:000000e0       __imp__GetSystemTime@4     0043e0e0     kernel32:KERNEL32.dll
 0002:000000e4       __imp__SystemTimeToFileTime@8 0043e0e4     kernel32:KERNEL32.dll
 0002:000000e8       __imp__FileTimeToSystemTime@8 0043e0e8     kernel32:KERNEL32.dll
 0002:000000ec       __imp__LocalFileTimeToFileTime@8 0043e0ec     kernel32:KERNEL32.dll
 0002:000000f0       __imp__FileTimeToLocalFileTime@8 0043e0f0     kernel32:KERNEL32.dll
 0002:000000f4       __imp__MultiByteToWideChar@24 0043e0f4     kernel32:KERNEL32.dll
 0002:000000f8       __imp__GetLastError@0      0043e0f8     kernel32:KERNEL32.dll
 0002:000000fc       __imp__WideCharToMultiByte@32 0043e0fc     kernel32:KERNEL32.dll
 0002:00000100       __imp__QueryPerformanceCounter@4 0043e100     kernel32:KERNEL32.dll
 0002:00000104       __imp__GetTickCount@0      0043e104     kernel32:KERNEL32.dll
 0002:00000108       __imp__GetSystemTimeAsFileTime@4 0043e108     kernel32:KERNEL32.dll
 0002:0000010c       __imp__IsDebuggerPresent@0 0043e10c     kernel32:KERNEL32.dll
 0002:00000110       __imp__UnhandledExceptionFilter@4 0043e110     kernel32:KERNEL32.dll
 0002:00000114       __imp__TerminateProcess@8  0043e114     kernel32:KERNEL32.dll
 0002:00000118       __imp__InterlockedExchange@8 0043e118     kernel32:KERNEL32.dll
 0002:0000011c       \177KERNEL32_NULL_THUNK_DATA 0043e11c     kernel32:KERNEL32.dll
 0002:00000120       __imp__strtok              0043e120     MSVCRT:MSVCR90.dll
 0002:00000124       __imp__strchr              0043e124     MSVCRT:MSVCR90.dll
 0002:00000128       __imp__strpbrk             0043e128     MSVCRT:MSVCR90.dll
 0002:0000012c       __imp__strncmp             0043e12c     MSVCRT:MSVCR90.dll
 0002:00000130       __imp__strstr              0043e130     MSVCRT:MSVCR90.dll
 0002:00000134       __imp__strrchr             0043e134     MSVCRT:MSVCR90.dll
 0002:00000138       __imp__tolower             0043e138     MSVCRT:MSVCR90.dll
 0002:0000013c       __imp__toupper             0043e13c     MSVCRT:MSVCR90.dll
 0002:00000140       __imp__atoi                0043e140     MSVCRT:MSVCR90.dll
 0002:00000144       __imp__atof                0043e144     MSVCRT:MSVCR90.dll
 0002:00000148       __imp__isdigit             0043e148     MSVCRT:MSVCR90.dll
 0002:0000014c       __imp__isalpha             0043e14c     MSVCRT:MSVCR90.dll
 0002:00000150       __imp__isalnum             0043e150     MSVCRT:MSVCR90.dll
 0002:00000154       __imp__islower             0043e154     MSVCRT:MSVCR90.dll
 0002:00000158       __imp__isupper             0043e158     MSVCRT:MSVCR90.dll
 0002:0000015c       __imp___cexit              0043e15c     MSVCRT:MSVCR90.dll
 0002:00000160       __imp__abort               0043e160     MSVCRT:MSVCR90.dll
 0002:00000164       __imp__free                0043e164     MSVCRT:MSVCR90.dll
 0002:00000168       __imp__malloc              0043e168     MSVCRT:MSVCR90.dll
 0002:0000016c       __imp___unlock             0043e16c     MSVCRT:MSVCR90.dll
 0002:00000170       __imp____dllonexit         0043e170     MSVCRT:MSVCR90.dll
 0002:00000174       __imp___encode_pointer     0043e174     MSVCRT:MSVCR90.dll
 0002:00000178       __imp___lock               0043e178     MSVCRT:MSVCR90.dll
 0002:0000017c       __imp___onexit             0043e17c     MSVCRT:MSVCR90.dll
 0002:00000180       __imp___decode_pointer     0043e180     MSVCRT:MSVCR90.dll
 0002:00000184       __imp___amsg_exit          0043e184     MSVCRT:MSVCR90.dll
 0002:00000188       __imp____getmainargs       0043e188     MSVCRT:MSVCR90.dll
 0002:0000018c       __imp___exit               0043e18c     MSVCRT:MSVCR90.dll
 0002:00000190       __imp___XcptFilter         0043e190     MSVCRT:MSVCR90.dll
 0002:00000194       __imp__exit                0043e194     MSVCRT:MSVCR90.dll
 0002:00000198       __imp____initenv           0043e198     MSVCRT:MSVCR90.dll
 0002:0000019c       __imp___initterm           0043e19c     MSVCRT:MSVCR90.dll
 0002:000001a0       __imp___initterm_e         0043e1a0     MSVCRT:MSVCR90.dll
 0002:000001a4       __imp___configthreadlocale 0043e1a4     MSVCRT:MSVCR90.dll
 0002:000001a8       __imp____setusermatherr    0043e1a8     MSVCRT:MSVCR90.dll
 0002:000001ac       __imp___adjust_fdiv        0043e1ac     MSVCRT:MSVCR90.dll
 0002:000001b0       __imp____p__commode        0043e1b0     MSVCRT:MSVCR90.dll
 0002:000001b4       __imp____p__fmode          0043e1b4     MSVCRT:MSVCR90.dll
 0002:000001b8       __imp____set_app_type      0043e1b8     MSVCRT:MSVCR90.dll
 0002:000001bc       __imp___except_handler4_common 0043e1bc     MSVCRT:MSVCR90.dll
 0002:000001c0       __imp_?terminate@@YAXXZ    0043e1c0     MSVCRT:MSVCR90.dll
 0002:000001c4       __imp___invoke_watson      0043e1c4     MSVCRT:MSVCR90.dll
 0002:000001c8       __imp___controlfp_s        0043e1c8     MSVCRT:MSVCR90.dll
 0002:000001cc       __imp___crt_debugger_hook  0043e1cc     MSVCRT:MSVCR90.dll
 0002:000001d0       __imp___stricmp            0043e1d0     MSVCRT:MSVCR90.dll
 0002:000001d0       __imp__stricmp             0043e1d0     MSVCRT:MSVCR90.dll
 0002:000001d4       __imp__memcpy              0043e1d4     MSVCRT:MSVCR90.dll
 0002:000001d8       __imp__memset              0043e1d8     MSVCRT:MSVCR90.dll
 0002:000001dc       __imp___vsnprintf          0043e1dc     MSVCRT:MSVCR90.dll
 0002:000001e0       __imp___except_handler3    0043e1e0     MSVCRT:MSVCR90.dll
 0002:000001e4       \177MSVCR90_NULL_THUNK_DATA 0043e1e4     MSVCRT:MSVCR90.dll
 0002:000001e8       __imp__SHGetFolderPathW@20 0043e1e8     shell32:SHELL32.dll
 0002:000001ec       \177SHELL32_NULL_THUNK_DATA 0043e1ec     shell32:SHELL32.dll
 0002:000001f0       __imp__FindWindowA@8       0043e1f0     user32:USER32.dll
 0002:000001f4       __imp__MessageBoxA@16      0043e1f4     user32:USER32.dll
 0002:000001f8       __imp__ShowWindow@8        0043e1f8     user32:USER32.dll
 0002:000001fc       \177USER32_NULL_THUNK_DATA 0043e1fc     user32:USER32.dll
 0002:00000200       __imp__accept@12           0043e200     wsock32:WSOCK32.dll
 0002:00000204       __imp__connect@12          0043e204     wsock32:WSOCK32.dll
 0002:00000208       __imp__WSAGetLastError@0   0043e208     wsock32:WSOCK32.dll
 0002:0000020c       __imp__select@20           0043e20c     wsock32:WSOCK32.dll
 0002:00000210       __imp__send@16             0043e210     wsock32:WSOCK32.dll
 0002:00000214       __imp__recv@16             0043e214     wsock32:WSOCK32.dll
 0002:00000218       __imp__htons@4             0043e218     wsock32:WSOCK32.dll
 0002:0000021c       __imp__listen@8            0043e21c     wsock32:WSOCK32.dll
 0002:00000220       __imp__htonl@4             0043e220     wsock32:WSOCK32.dll
 0002:00000224       __imp__gethostname@8       0043e224     wsock32:WSOCK32.dll
 0002:00000228       __imp__gethostbyname@4     0043e228     wsock32:WSOCK32.dll
 0002:0000022c       __imp__inet_addr@4         0043e22c     wsock32:WSOCK32.dll
 0002:00000230       __imp__socket@12           0043e230     wsock32:WSOCK32.dll
 0002:00000234       __imp__WSAStartup@8        0043e234     wsock32:WSOCK32.dll
 0002:00000238       __imp__bind@12             0043e238     wsock32:WSOCK32.dll
 0002:0000023c       __imp__ioctlsocket@12      0043e23c     wsock32:WSOCK32.dll
 0002:00000240       __imp__getsockopt@20       0043e240     wsock32:WSOCK32.dll
 0002:00000244       __imp__setsockopt@20       0043e244     wsock32:WSOCK32.dll
 0002:00000248       __imp__closesocket@4       0043e248     wsock32:WSOCK32.dll
 0002:0000024c       __imp__ntohs@4             0043e24c     wsock32:WSOCK32.dll
 0002:00000250       __imp__shutdown@8          0043e250     wsock32:WSOCK32.dll
 0002:00000254       \177WSOCK32_NULL_THUNK_DATA 0043e254     wsock32:WSOCK32.dll
 0002:00000258       __imp__MiniDumpWriteDump@28 0043e258     dbghelp:dbghelp.dll
 0002:0000025c       \177dbghelp_NULL_THUNK_DATA 0043e25c     dbghelp:dbghelp.dll
 0002:00000260       ___xc_a                    0043e260     MSVCRT:cinitexe.obj
 0002:00000308       ___xc_z                    0043e308     MSVCRT:cinitexe.obj
 0002:0000030c       ___xi_a                    0043e30c     MSVCRT:cinitexe.obj
 0002:0000031c       ___xi_z                    0043e31c     MSVCRT:cinitexe.obj
 0002:00000320       ___xl_a                    0043e320     MSVCRT:tlssup.obj
 0002:00000324       ___xl_z                    0043e324     MSVCRT:tlssup.obj
 0002:0000034c       ?ProcessDetach@NativeDll@<CrtImplementationDetails>@@0IB 0043e34c     MSVCRT:unhandld.obj
 0002:00000350       ?ProcessAttach@NativeDll@<CrtImplementationDetails>@@0IB 0043e350     MSVCRT:unhandld.obj
 0002:00000354       ?ThreadAttach@NativeDll@<CrtImplementationDetails>@@0IB 0043e354     MSVCRT:unhandld.obj
 0002:00000358       ?ThreadDetach@NativeDll@<CrtImplementationDetails>@@0IB 0043e358     MSVCRT:unhandld.obj
 0002:0000035c       ?ProcessVerifier@NativeDll@<CrtImplementationDetails>@@0IB 0043e35c     MSVCRT:unhandld.obj
 0002:00000368       ??_C@_0P@GHFPNOJB@bad?5allocation?$AA@ 0043e368     stdneb.obj
 0002:00000380       ?g_XMSinCoefficients0@@3UXMVECTORF32@@B 0043e380     stdneb.obj
 0002:00000390       ?g_XMSinCoefficients1@@3UXMVECTORF32@@B 0043e390     stdneb.obj
 0002:000003a0       ?g_XMSinCoefficients2@@3UXMVECTORF32@@B 0043e3a0     stdneb.obj
 0002:000003b0       ?g_XMCosCoefficients0@@3UXMVECTORF32@@B 0043e3b0     stdneb.obj
 0002:000003c0       ?g_XMCosCoefficients1@@3UXMVECTORF32@@B 0043e3c0     stdneb.obj
 0002:000003d0       ?g_XMCosCoefficients2@@3UXMVECTORF32@@B 0043e3d0     stdneb.obj
 0002:000003e0       ?g_XMTanCoefficients0@@3UXMVECTORF32@@B 0043e3e0     stdneb.obj
 0002:000003f0       ?g_XMTanCoefficients1@@3UXMVECTORF32@@B 0043e3f0     stdneb.obj
 0002:00000400       ?g_XMTanCoefficients2@@3UXMVECTORF32@@B 0043e400     stdneb.obj
 0002:00000410       ?g_XMASinCoefficients0@@3UXMVECTORF32@@B 0043e410     stdneb.obj
 0002:00000420       ?g_XMASinCoefficients1@@3UXMVECTORF32@@B 0043e420     stdneb.obj
 0002:00000430       ?g_XMASinCoefficients2@@3UXMVECTORF32@@B 0043e430     stdneb.obj
 0002:00000440       ?g_XMATanCoefficients0@@3UXMVECTORF32@@B 0043e440     stdneb.obj
 0002:00000450       ?g_XMATanCoefficients1@@3UXMVECTORF32@@B 0043e450     stdneb.obj
 0002:00000460       ?g_XMATanCoefficients2@@3UXMVECTORF32@@B 0043e460     stdneb.obj
 0002:00000470       ?g_XMSinEstCoefficients@@3UXMVECTORF32@@B 0043e470     stdneb.obj
 0002:00000480       ?g_XMCosEstCoefficients@@3UXMVECTORF32@@B 0043e480     stdneb.obj
 0002:00000490       ?g_XMTanEstCoefficients@@3UXMVECTORF32@@B 0043e490     stdneb.obj
 0002:000004a0       ?g_XMATanEstCoefficients@@3UXMVECTORF32@@B 0043e4a0     stdneb.obj
 0002:000004b0       ?g_XMASinEstCoefficients@@3UXMVECTORF32@@B 0043e4b0     stdneb.obj
 0002:000004c0       ?g_XMASinEstConstants@@3UXMVECTORF32@@B 0043e4c0     stdneb.obj
 0002:000004d0       ?g_XMPiConstants0@@3UXMVECTORF32@@B 0043e4d0     stdneb.obj
 0002:000004e0       ?g_XMIdentityR0@@3UXMVECTORF32@@B 0043e4e0     stdneb.obj
 0002:000004f0       ?g_XMIdentityR1@@3UXMVECTORF32@@B 0043e4f0     stdneb.obj
 0002:00000500       ?g_XMIdentityR2@@3UXMVECTORF32@@B 0043e500     stdneb.obj
 0002:00000510       ?g_XMIdentityR3@@3UXMVECTORF32@@B 0043e510     stdneb.obj
 0002:00000520       ?g_XMNegIdentityR0@@3UXMVECTORF32@@B 0043e520     stdneb.obj
 0002:00000530       ?g_XMNegIdentityR1@@3UXMVECTORF32@@B 0043e530     stdneb.obj
 0002:00000540       ?g_XMNegIdentityR2@@3UXMVECTORF32@@B 0043e540     stdneb.obj
 0002:00000550       ?g_XMNegIdentityR3@@3UXMVECTORF32@@B 0043e550     stdneb.obj
 0002:00000560       ?g_XMNegativeZero@@3UXMVECTORI32@@B 0043e560     stdneb.obj
 0002:00000570       ?g_XMNegate3@@3UXMVECTORI32@@B 0043e570     stdneb.obj
 0002:00000580       ?g_XMMask3@@3UXMVECTORI32@@B 0043e580     stdneb.obj
 0002:00000590       ?g_XMMaskX@@3UXMVECTORI32@@B 0043e590     stdneb.obj
 0002:000005a0       ?g_XMMaskY@@3UXMVECTORI32@@B 0043e5a0     stdneb.obj
 0002:000005b0       ?g_XMMaskZ@@3UXMVECTORI32@@B 0043e5b0     stdneb.obj
 0002:000005c0       ?g_XMMaskW@@3UXMVECTORI32@@B 0043e5c0     stdneb.obj
 0002:000005d0       ?g_XMOne@@3UXMVECTORF32@@B 0043e5d0     stdneb.obj
 0002:000005e0       ?g_XMOne3@@3UXMVECTORF32@@B 0043e5e0     stdneb.obj
 0002:000005f0       ?g_XMZero@@3UXMVECTORF32@@B 0043e5f0     stdneb.obj
 0002:00000600       ?g_XMNegativeOne@@3UXMVECTORF32@@B 0043e600     stdneb.obj
 0002:00000610       ?g_XMOneHalf@@3UXMVECTORF32@@B 0043e610     stdneb.obj
 0002:00000620       ?g_XMNegativeOneHalf@@3UXMVECTORF32@@B 0043e620     stdneb.obj
 0002:00000630       ?g_XMNegativeTwoPi@@3UXMVECTORF32@@B 0043e630     stdneb.obj
 0002:00000640       ?g_XMNegativePi@@3UXMVECTORF32@@B 0043e640     stdneb.obj
 0002:00000650       ?g_XMHalfPi@@3UXMVECTORF32@@B 0043e650     stdneb.obj
 0002:00000660       ?g_XMPi@@3UXMVECTORF32@@B  0043e660     stdneb.obj
 0002:00000670       ?g_XMReciprocalPi@@3UXMVECTORF32@@B 0043e670     stdneb.obj
 0002:00000680       ?g_XMTwoPi@@3UXMVECTORF32@@B 0043e680     stdneb.obj
 0002:00000690       ?g_XMReciprocalTwoPi@@3UXMVECTORF32@@B 0043e690     stdneb.obj
 0002:000006a0       ?g_XMEpsilon@@3UXMVECTORF32@@B 0043e6a0     stdneb.obj
 0002:000006b0       ?g_XMInfinity@@3UXMVECTORI32@@B 0043e6b0     stdneb.obj
 0002:000006c0       ?g_XMQNaN@@3UXMVECTORI32@@B 0043e6c0     stdneb.obj
 0002:000006d0       ?g_XMQNaNTest@@3UXMVECTORI32@@B 0043e6d0     stdneb.obj
 0002:000006e0       ?g_XMAbsMask@@3UXMVECTORI32@@B 0043e6e0     stdneb.obj
 0002:000006f0       ?g_XMFltMin@@3UXMVECTORI32@@B 0043e6f0     stdneb.obj
 0002:00000700       ?g_XMFltMax@@3UXMVECTORI32@@B 0043e700     stdneb.obj
 0002:00000710       ?g_XMNegOneMask@@3UXMVECTORI32@@B 0043e710     stdneb.obj
 0002:00000720       ?g_XMMaskA8R8G8B8@@3UXMVECTORI32@@B 0043e720     stdneb.obj
 0002:00000730       ?g_XMFlipA8R8G8B8@@3UXMVECTORI32@@B 0043e730     stdneb.obj
 0002:00000740       ?g_XMFixAA8R8G8B8@@3UXMVECTORF32@@B 0043e740     stdneb.obj
 0002:00000750       ?g_XMNormalizeA8R8G8B8@@3UXMVECTORF32@@B 0043e750     stdneb.obj
 0002:00000760       ?g_XMMaskA2B10G10R10@@3UXMVECTORI32@@B 0043e760     stdneb.obj
 0002:00000770       ?g_XMFlipA2B10G10R10@@3UXMVECTORI32@@B 0043e770     stdneb.obj
 0002:00000780       ?g_XMFixAA2B10G10R10@@3UXMVECTORF32@@B 0043e780     stdneb.obj
 0002:00000790       ?g_XMNormalizeA2B10G10R10@@3UXMVECTORF32@@B 0043e790     stdneb.obj
 0002:000007a0       ?g_XMMaskX16Y16@@3UXMVECTORI32@@B 0043e7a0     stdneb.obj
 0002:000007b0       ?g_XMFlipX16Y16@@3UXMVECTORI32@@B 0043e7b0     stdneb.obj
 0002:000007c0       ?g_XMFixX16Y16@@3UXMVECTORF32@@B 0043e7c0     stdneb.obj
 0002:000007d0       ?g_XMNormalizeX16Y16@@3UXMVECTORF32@@B 0043e7d0     stdneb.obj
 0002:000007e0       ?g_XMMaskX16Y16Z16W16@@3UXMVECTORI32@@B 0043e7e0     stdneb.obj
 0002:000007f0       ?g_XMFlipX16Y16Z16W16@@3UXMVECTORI32@@B 0043e7f0     stdneb.obj
 0002:00000800       ?g_XMFixX16Y16Z16W16@@3UXMVECTORF32@@B 0043e800     stdneb.obj
 0002:00000810       ?g_XMNormalizeX16Y16Z16W16@@3UXMVECTORF32@@B 0043e810     stdneb.obj
 0002:00000820       ?g_XMNoFraction@@3UXMVECTORF32@@B 0043e820     stdneb.obj
 0002:00000830       ?g_XMMaskByte@@3UXMVECTORI32@@B 0043e830     stdneb.obj
 0002:00000840       ?g_XMNegateX@@3UXMVECTORF32@@B 0043e840     stdneb.obj
 0002:00000850       ?g_XMNegateY@@3UXMVECTORF32@@B 0043e850     stdneb.obj
 0002:00000860       ?g_XMNegateZ@@3UXMVECTORF32@@B 0043e860     stdneb.obj
 0002:00000870       ?g_XMNegateW@@3UXMVECTORF32@@B 0043e870     stdneb.obj
 0002:00000880       ?g_XMSelect0101@@3UXMVECTORI32@@B 0043e880     stdneb.obj
 0002:00000890       ?g_XMSelect1010@@3UXMVECTORI32@@B 0043e890     stdneb.obj
 0002:000008a0       ?g_XMOneHalfMinusEpsilon@@3UXMVECTORI32@@B 0043e8a0     stdneb.obj
 0002:000008b0       ?g_XMSelect1000@@3UXMVECTORI32@@B 0043e8b0     stdneb.obj
 0002:000008c0       ?g_XMSelect1100@@3UXMVECTORI32@@B 0043e8c0     stdneb.obj
 0002:000008d0       ?g_XMSelect1110@@3UXMVECTORI32@@B 0043e8d0     stdneb.obj
 0002:000008e0       ?g_XMSwizzleXYXY@@3UXMVECTORI32@@B 0043e8e0     stdneb.obj
 0002:000008f0       ?g_XMSwizzleXYZX@@3UXMVECTORI32@@B 0043e8f0     stdneb.obj
 0002:00000900       ?g_XMSwizzleYXZW@@3UXMVECTORI32@@B 0043e900     stdneb.obj
 0002:00000910       ?g_XMSwizzleYZXW@@3UXMVECTORI32@@B 0043e910     stdneb.obj
 0002:00000920       ?g_XMSwizzleZXYW@@3UXMVECTORI32@@B 0043e920     stdneb.obj
 0002:00000930       ?g_XMPermute0X0Y1X1Y@@3UXMVECTORI32@@B 0043e930     stdneb.obj
 0002:00000940       ?g_XMPermute0Z0W1Z1W@@3UXMVECTORI32@@B 0043e940     stdneb.obj
 0002:00000950       ?g_XMFixupY16@@3UXMVECTORF32@@B 0043e950     stdneb.obj
 0002:00000960       ?g_XMFixupY16W16@@3UXMVECTORF32@@B 0043e960     stdneb.obj
 0002:00000970       ?g_XMFlipY@@3UXMVECTORI32@@B 0043e970     stdneb.obj
 0002:00000980       ?g_XMFlipZ@@3UXMVECTORI32@@B 0043e980     stdneb.obj
 0002:00000990       ?g_XMFlipW@@3UXMVECTORI32@@B 0043e990     stdneb.obj
 0002:000009a0       ?g_XMFlipYZ@@3UXMVECTORI32@@B 0043e9a0     stdneb.obj
 0002:000009b0       ?g_XMFlipZW@@3UXMVECTORI32@@B 0043e9b0     stdneb.obj
 0002:000009c0       ?g_XMFlipYW@@3UXMVECTORI32@@B 0043e9c0     stdneb.obj
 0002:000009d0       ?g_XMMaskHenD3@@3UXMVECTORI32@@B 0043e9d0     stdneb.obj
 0002:000009e0       ?g_XMMaskDHen3@@3UXMVECTORI32@@B 0043e9e0     stdneb.obj
 0002:000009f0       ?g_XMAddUHenD3@@3UXMVECTORF32@@B 0043e9f0     stdneb.obj
 0002:00000a00       ?g_XMAddHenD3@@3UXMVECTORF32@@B 0043ea00     stdneb.obj
 0002:00000a10       ?g_XMAddDHen3@@3UXMVECTORF32@@B 0043ea10     stdneb.obj
 0002:00000a20       ?g_XMMulHenD3@@3UXMVECTORF32@@B 0043ea20     stdneb.obj
 0002:00000a30       ?g_XMMulDHen3@@3UXMVECTORF32@@B 0043ea30     stdneb.obj
 0002:00000a40       ?g_XMXorHenD3@@3UXMVECTORI32@@B 0043ea40     stdneb.obj
 0002:00000a50       ?g_XMXorDHen3@@3UXMVECTORI32@@B 0043ea50     stdneb.obj
 0002:00000a60       ?g_XMMaskIco4@@3UXMVECTORI32@@B 0043ea60     stdneb.obj
 0002:00000a70       ?g_XMXorXIco4@@3UXMVECTORI32@@B 0043ea70     stdneb.obj
 0002:00000a80       ?g_XMXorIco4@@3UXMVECTORI32@@B 0043ea80     stdneb.obj
 0002:00000a90       ?g_XMAddXIco4@@3UXMVECTORF32@@B 0043ea90     stdneb.obj
 0002:00000aa0       ?g_XMAddUIco4@@3UXMVECTORF32@@B 0043eaa0     stdneb.obj
 0002:00000ab0       ?g_XMAddIco4@@3UXMVECTORF32@@B 0043eab0     stdneb.obj
 0002:00000ac0       ?g_XMMulIco4@@3UXMVECTORF32@@B 0043eac0     stdneb.obj
 0002:00000ad0       ?g_XMMaskDec4@@3UXMVECTORI32@@B 0043ead0     stdneb.obj
 0002:00000ae0       ?g_XMXorDec4@@3UXMVECTORI32@@B 0043eae0     stdneb.obj
 0002:00000af0       ?g_XMAddUDec4@@3UXMVECTORF32@@B 0043eaf0     stdneb.obj
 0002:00000b00       ?g_XMAddDec4@@3UXMVECTORF32@@B 0043eb00     stdneb.obj
 0002:00000b10       ?g_XMMulDec4@@3UXMVECTORF32@@B 0043eb10     stdneb.obj
 0002:00000b20       ?g_XMMaskByte4@@3UXMVECTORI32@@B 0043eb20     stdneb.obj
 0002:00000b30       ?g_XMXorByte4@@3UXMVECTORI32@@B 0043eb30     stdneb.obj
 0002:00000b40       ?g_XMAddByte4@@3UXMVECTORF32@@B 0043eb40     stdneb.obj
 0002:00000b50       _inflate_copyright         0043eb50     zlib_win32.release:inftrees.obj
 0002:00000c80       _z_errmsg                  0043ec80     zlib_win32.release:zutil.obj
 0002:00003638       _unz_copyright             00441638     zlib_win32.release:unzip.obj
 0002:00003934       ?FreeBlockPattern@Win360MemoryPool@Win360@@0IB 00441934     zipstresstest.obj
 0002:00003938       ?NewBlockPattern@Win360MemoryPool@Win360@@0IB 00441938     zipstresstest.obj
 0002:0000393c       ?BlockAlign@Win360MemoryPool@Win360@@0HB 0044193c     zipstresstest.obj
 0002:00003940       ?NumPools@PoolArrayAllocator@Memory@@2HB 00441940     zipstresstest.obj
 0002:00003944       ?MinGrowSize@?$Array@VString@Util@@@Util@@0HB 00441944     zipstresstest.obj
 0002:00003948       ?MaxGrowSize@?$Array@VString@Util@@@Util@@0HB 00441948     zipstresstest.obj
 0002:0000394c       ?MinGrowSize@?$Array@V?$KeyValuePair@VFourCC@Util@@PBVRtti@Core@@@Util@@@Util@@0HB 0044194c     zipstresstest.obj
 0002:00003950       ?MaxGrowSize@?$Array@V?$KeyValuePair@VFourCC@Util@@PBVRtti@Core@@@Util@@@Util@@0HB 00441950     zipstresstest.obj
 0002:00003954       ?MinGrowSize@?$Array@V?$Ptr@VConsoleHandler@IO@@@@@Util@@0HB 00441954     zipstresstest.obj
 0002:00003958       ?MaxGrowSize@?$Array@V?$Ptr@VConsoleHandler@IO@@@@@Util@@0HB 00441958     zipstresstest.obj
 0002:0000395c       ?MinGrowSize@?$Array@V?$KeyValuePair@VString@Util@@PBVRtti@Core@@@Util@@@Util@@0HB 0044195c     zipstresstest.obj
 0002:00003960       ?MaxGrowSize@?$Array@V?$KeyValuePair@VString@Util@@PBVRtti@Core@@@Util@@@Util@@0HB 00441960     zipstresstest.obj
 0002:00003964       ??_C@_0BA@ILGFJDHF@Radon?5Labs?5GmbH?$AA@ 00441964     zipstresstest.obj
 0002:00003974       ??_C@_0O@KCENKMCP@ZipStressTest?$AA@ 00441974     zipstresstest.obj
 0002:00003984       ??_7ZipStressTestApplication@App@@6B@ 00441984     zipstresstest.obj
 0002:00003998       ??_C@_0P@BAMCAPOJ@0?5?$CB?$DN?5Singleton?$AA@ 00441998     zipstresstestapplication.obj
 0002:000039a8       ??_C@_0CE@KMAJEGHH@c?3?2nebula3?2code?2foundation?2io?1ur@ 004419a8     zipstresstestapplication.obj
 0002:000039cc       ??_C@_08JGMIMLOF@validUri?$AA@ 004419cc     zipstresstestapplication.obj
 0002:000039d8       ??_C@_0CJ@NCINIOGH@c?3?2nebula3?2code?2foundation?2io?1io@ 004419d8     zipstresstestapplication.obj
 0002:00003a04       ?InvalidCoreId@Win32Cpu@Win32@@2KB 00441a04     zipstresstestapplication.obj
 0002:00003a08       ?MainThreadCore@Win32Cpu@Win32@@2KB 00441a08     zipstresstestapplication.obj
 0002:00003a0c       ?IoThreadCore@Win32Cpu@Win32@@2KB 00441a0c     zipstresstestapplication.obj
 0002:00003a10       ?RenderThreadCore@Win32Cpu@Win32@@2KB 00441a10     zipstresstestapplication.obj
 0002:00003a14       ?AudioThreadCore@Win32Cpu@Win32@@2KB 00441a14     zipstresstestapplication.obj
 0002:00003a18       ?MiscThreadCore@Win32Cpu@Win32@@2KB 00441a18     zipstresstestapplication.obj
 0002:00003a1c       ?NetworkThreadCore@Win32Cpu@Win32@@2KB 00441a1c     zipstresstestapplication.obj
 0002:00003a20       ?JobThreadFirstCore@Win32Cpu@Win32@@2KB 00441a20     zipstresstestapplication.obj
 0002:00003a24       ?MinGrowSize@?$Array@UStaticString@StringAtomTableBase@Util@@@Util@@0HB 00441a24     zipstresstestapplication.obj
 0002:00003a28       ?MaxGrowSize@?$Array@UStaticString@StringAtomTableBase@Util@@@Util@@0HB 00441a28     zipstresstestapplication.obj
 0002:00003a2c       ??_C@_0DL@LHDDGCA@c?3?2nebula3?2code?2foundation?2threa@ 00441a2c     zipstresstestapplication.obj
 0002:00003a68       ??_C@_0M@KJOCHOMH@n?4IsValid?$CI?$CJ?$AA@ 00441a68     zipstresstestapplication.obj
 0002:00003a74       ??_C@_01KMDKNFGN@?1?$AA@   00441a74     zipstresstestapplication.obj
 0002:00003a78       ??_C@_0BC@DIADBENO@App?3?3ReaderThread?$AA@ 00441a78     zipstresstestapplication.obj
 0002:00003a8c       ??_C@_07KJFPOMFC@?$CFs?3?5?$CFs?6?$AA@ 00441a8c     zipstresstestapplication.obj
 0002:00003a94       ??_C@_0DD@LLEAPPDK@?4?4?2tests?2zipstresstest?2zipstress@ 00441a94     zipstresstestapplication.obj
 0002:00003ac8       ??_C@_03COAJHJPB@buf?$AA@  00441ac8     zipstresstestapplication.obj
 0002:00003acc       ??_C@_0BF@KLDDPLLC@readSize?5?$DN?$DN?5fileSize?$AA@ 00441acc     zipstresstestapplication.obj
 0002:00003ae4       ?MinGrowSize@?$Array@V?$Ptr@VReaderThread@App@@@@@Util@@0HB 00441ae4     zipstresstestapplication.obj
 0002:00003ae8       ?MaxGrowSize@?$Array@V?$Ptr@VReaderThread@App@@@@@Util@@0HB 00441ae8     zipstresstestapplication.obj
 0002:00003aec       ??_C@_0P@NDMJDBC@ReaderThread?$CFd?$AA@ 00441aec     zipstresstestapplication.obj
 0002:00003afc       ??_C@_05GJHDMAPE@?$CK?4dds?$AA@ 00441afc     zipstresstestapplication.obj
 0002:00003b04       ??_C@_0P@OMJMIJDI@tex?3characters?$AA@ 00441b04     zipstresstestapplication.obj
 0002:00003b14       ??_C@_0N@DDMBILKB@tex?3examples?$AA@ 00441b14     zipstresstestapplication.obj
 0002:00003b24       ??_C@_0L@LOJLKIDE@tex?3ground?$AA@ 00441b24     zipstresstestapplication.obj
 0002:00003b30       ??_C@_0M@IFKFKPKP@tex?3layered?$AA@ 00441b30     zipstresstestapplication.obj
 0002:00003b3c       ??_C@_0N@PMMLMGIA@tex?3lighting?$AA@ 00441b3c     zipstresstestapplication.obj
 0002:00003b4c       ??_C@_0O@KMMAOAFH@tex?3materials?$AA@ 00441b4c     zipstresstestapplication.obj
 0002:00003b5c       ??_C@_0BA@OKJNENEA@tex?3mlpaintmaps?$AA@ 00441b5c     zipstresstestapplication.obj
 0002:00003b6c       ??_C@_0L@IHPGKJGE@tex?3system?$AA@ 00441b6c     zipstresstestapplication.obj
 0002:00003b78       ??_C@_06KPOMAEBF@DONE?4?6?$AA@ 00441b78     zipstresstestapplication.obj
 0002:00003b80       ??_C@_0CI@BHODGIE@c?3?2nebula3?2code?2foundation?2util?1@ 00441b80     zipstresstestapplication.obj
 0002:00003ba8       ??_C@_0CH@BDOPOIPB@this?9?$DOelements?5?$CG?$CG?5?$CIindex?5?$DM?5this?9@ 00441ba8     zipstresstestapplication.obj
 0002:00003bd0       ??_C@_0CG@FGODFJOD@c?3?2nebula3?2code?2foundation?2core?1@ 00441bd0     zipstresstestapplication.obj
 0002:00003bf8       ??_C@_0CK@GLFJIEFE@NULL?5pointer?5access?5in?5Ptr?3?3oper@ 00441bf8     zipstresstestapplication.obj
 0002:00003c24       ??_C@_09JGKFILJK@this?9?$DOptr?$AA@ 00441c24     zipstresstestapplication.obj
 0002:00003c30       ??_C@_0P@NLJNLNEM@this?9?$DOelements?$AA@ 00441c30     zipstresstestapplication.obj
 0002:00003c40       ??_C@_0P@HBJIIKFB@this?9?$DOgrow?5?$DO?50?$AA@ 00441c40     zipstresstestapplication.obj
 0002:00003c50       ??_7Thread@Threading@@6B@  00441c50     zipstresstestapplication.obj
 0002:00003c60       ??_7ReaderThread@App@@6B@  00441c60     zipstresstestapplication.obj
 0002:00003c70       ??_C@_0DG@OFBDDPFF@c?3?2nebula3?2code?2foundation?2memor@ 00441c70     foundation_win32.release:win360memory.obj
 0002:00003ca8       ??_C@_09EJCPEHHD@0?5?$CB?$DN?5from?$AA@ 00441ca8     foundation_win32.release:win360memory.obj
 0002:00003cb4       ??_C@_07FEEDPIAJ@0?5?$CB?$DN?5to?$AA@ 00441cb4     foundation_win32.release:win360memory.obj
 0002:00003cbc       ??_C@_0L@FNMCDHDA@from?5?$CB?$DN?5to?$AA@ 00441cbc     foundation_win32.release:win360memory.obj
 0002:00003cc8       ??_C@_0CM@ODKKPOME@?4?4?2foundation?2memory?2win360?2win3@ 00441cc8     foundation_win32.release:win360memory.obj
 0002:00003cf4       ??_C@_0BI@NOOHAMNH@heapType?5?$DM?5NumHeapTypes?$AA@ 00441cf4     foundation_win32.release:win360memory.obj
 0002:00003d0c       ??_C@_0BF@MFBPIJCM@0?5?$CB?$DN?5Heaps?$FLheapType?$FN?$AA@ 00441d0c     foundation_win32.release:win360memory.obj
 0002:00003d24       ??_C@_0BL@KDHBNLEK@?$CI?$CIuint?$CJallocPtr?5?$CG?515?$CJ?5?$DN?$DN?50?$AA@ 00441d24     foundation_win32.release:win360memory.obj
 0002:00003d40       ??_C@_0EF@JMMPNDAL@Alloc?3?5Out?5of?5memory?0?5allocating@ 00441d40     foundation_win32.release:win360memory.obj
 0002:00003d88       ??_C@_0EE@LFKDAEPB@?$CIheapType?5?$CB?$DN?5Xbox360GraphicsHeap@ 00441d88     foundation_win32.release:win360memory.obj
 0002:00003dcc       ??_C@_0DE@KJDCBOMA@?$CIheapType?5?$DM?5NumHeapTypes?$CJ?5?$CG?$CG?5?$CI0?5@ 00441dcc     foundation_win32.release:win360memory.obj
 0002:00003e00       ??_C@_0EH@FIPHFLEB@Realloc?3?5Out?5of?5memory?0?5allocati@ 00441e00     foundation_win32.release:win360memory.obj
 0002:00003e48       ??_C@_0DE@NFMLABPA@DumpTotalMemoryStatus?$CI?$CJ?5not?5impl@ 00441e48     foundation_win32.release:win360memory.obj
 0002:00003e7c       ??_C@_02LIELOMNJ@on?$AA@   00441e7c     foundation_win32.release:string.obj
 0002:00003e80       ??_C@_03MCADLMAF@off?$AA@  00441e80     foundation_win32.release:string.obj
 0002:00003e84       ??_C@_03ICICOMAL@yes?$AA@  00441e84     foundation_win32.release:string.obj
 0002:00003e88       ??_C@_02KAJCLHKP@no?$AA@   00441e88     foundation_win32.release:string.obj
 0002:00003e8c       ??_C@_0CJ@KPDBJEOK@c?3?2nebula3?2code?2foundation?2util?1@ 00441e8c     foundation_win32.release:string.obj
 0002:00003eb8       ??_C@_0BN@POFINLGO@newSize?5?$DO?5?$CIthis?9?$DOstrLen?5?$CL?51?$CJ?$AA@ 00441eb8     foundation_win32.release:string.obj
 0002:00003ed8       ??_C@_0BP@EEBDEGPD@newSize?5?$DO?5this?9?$DOheapBufferSize?$AA@ 00441ed8     foundation_win32.release:string.obj
 0002:00003ef8       ??_C@_04LOAJBDKD@true?$AA@ 00441ef8     foundation_win32.release:string.obj
 0002:00003f00       ??_C@_05LAPONLG@false?$AA@ 00441f00     foundation_win32.release:string.obj
 0002:00003f08       ??_C@_0BC@CJPEMPAL@i?5?$DM?$DN?5this?9?$DOstrLen?$AA@ 00441f08     foundation_win32.release:string.obj
 0002:00003f1c       ??_C@_03NNNAMNMM@?0?5?7?$AA@ 00441f1c     foundation_win32.release:string.obj
 0002:00003f20       ??_C@_0BN@NDBMPMCD@?4?4?2foundation?2util?2string?4cc?$AA@ 00441f20     foundation_win32.release:string.obj
 0002:00003f40       ??_C@_08COOMBJJI@0?5?$CB?$DN?5buf?$AA@ 00441f40     foundation_win32.release:string.obj
 0002:00003f4c       ??_C@_0M@KILAHHOK@bufSize?5?$DO?51?$AA@ 00441f4c     foundation_win32.release:string.obj
 0002:00003f58       ??_C@_06PCICMFGG@append?$AA@ 00441f58     foundation_win32.release:string.obj
 0002:00003f60       ??_C@_0BF@LMEIFOGC@from?5?$DM?$DN?5this?9?$DOstrLen?$AA@ 00441f60     foundation_win32.release:string.obj
 0002:00003f78       ??_C@_0CC@ICCFPDP@?$CIfrom?5?$CL?5numChars?$CJ?5?$DM?$DN?5this?9?$DOstrLe@ 00441f78     foundation_win32.release:string.obj
 0002:00003f9c       ??_C@_0BK@ONBCDJGI@startIndex?5?$DM?5this?9?$DOstrLen?$AA@ 00441f9c     foundation_win32.release:string.obj
 0002:00003fb8       ??_C@_0M@DLFFJCNF@s?4IsValid?$CI?$CJ?$AA@ 00441fb8     foundation_win32.release:string.obj
 0002:00003fc4       ??_C@_0BC@LKPOIPPK@charSet?4IsValid?$CI?$CJ?$AA@ 00441fc4     foundation_win32.release:string.obj
 0002:00003fd8       ??_C@_0BD@POLGAEPB@matchStr?4IsValid?$CI?$CJ?$AA@ 00441fd8     foundation_win32.release:string.obj
 0002:00003fec       ??_C@_0BE@BLNLEPGL@tokens?4Size?$CI?$CJ?5?$DN?$DN?516?$AA@ 00441fec     foundation_win32.release:string.obj
 0002:00004000       ??_C@_08OJCFJEAA@0?5?$CB?$DN?5str?$AA@ 00442000     foundation_win32.release:string.obj
 0002:0000400c       ??_C@_0BF@CKPCPHAL@index?5?$DM?5this?9?$DOstrLen?$AA@ 0044200c     foundation_win32.release:string.obj
 0002:00004024       ??_C@_09EEGIECFH@0?5?$CB?$DN?5cStr?$AA@ 00442024     foundation_win32.release:string.obj
 0002:00004030       ??_C@_0BP@MKHLMGDH@Invalid?5string?5value?5for?5bool?$CB?$AA@ 00442030     foundation_win32.release:string.obj
 0002:00004050       ??_C@_0N@MDGKIMAM@str0?5?$CG?$CG?5str1?$AA@ 00442050     foundation_win32.release:string.obj
 0002:00004060       ??_C@_03OJMAPEGJ@str?$AA@  00442060     foundation_win32.release:string.obj
 0002:00004064       ?MinGrowSize@?$Array@V?$KeyValuePair@VString@Util@@V12@@Util@@@Util@@0HB 00442064     foundation_win32.release:string.obj
 0002:00004068       ?MaxGrowSize@?$Array@V?$KeyValuePair@VString@Util@@V12@@Util@@@Util@@0HB 00442068     foundation_win32.release:string.obj
 0002:0000406c       ??_C@_04OCGLKFAE@?5?7?6?$DN?$AA@ 0044206c     foundation_win32.release:string.obj
 0002:00004074       ??_C@_0BJ@EBIIIFLN@0?5?$DN?$DN?5?$CItokens?4Size?$CI?$CJ?5?$CG?51?$CJ?$AA@ 00442074     foundation_win32.release:string.obj
 0002:00004090       ??_C@_01LFCBOECM@?4?$AA@   00442090     foundation_win32.release:string.obj
 0002:00004094       ??_C@_0CN@PLFFNBEJ@c?3?2nebula3?2code?2foundation?2util?1@ 00442094     foundation_win32.release:string.obj
 0002:000040c4       ??_C@_0BC@GNKCGDPP@?$CBrhs?4inBulkInsert?$AA@ 004420c4     foundation_win32.release:string.obj
 0002:000040d8       ??_C@_0BE@GDBIPADH@0?5?$DN?$DN?5this?9?$DOelements?$AA@ 004420d8     foundation_win32.release:string.obj
 0002:000040ec       ??_C@_07DCGCMICB@0?5?$DN?$DN?5lo?$AA@ 004420ec     foundation_win32.release:string.obj
 0002:000040f4       ??_C@_0CD@BKAJLKAE@Array?3?3InsertSorted?3?5Can?8t?5happe@ 004420f4     foundation_win32.release:string.obj
 0002:00004118       ??_C@_0BE@DJMCGKBH@index?5?$DM?$DN?5this?9?$DOsize?$AA@ 00442118     foundation_win32.release:string.obj
 0002:0000412c       ??_C@_0BH@MMMAFPLC@fromIndex?5?$DM?5this?9?$DOsize?$AA@ 0044212c     foundation_win32.release:string.obj
 0002:00004143       ??_C@_00CNPNBAHC@?$AA@     00442143     foundation_win32.release:string.obj
 0002:00004144       ??_C@_0CI@GBGNMPLK@c?3?2nebula3?2code?2foundation?2io?1co@ 00442144     foundation_win32.release:consoleapplication.obj
 0002:0000416c       ??_C@_0CI@GIFHIMPL@?4?4?2foundation?2app?2consoleapplica@ 0044216c     foundation_win32.release:consoleapplication.obj
 0002:00004194       ??_C@_0BA@GJILFILP@?$CBthis?9?$DOIsOpen?$CI?$CJ?$AA@ 00442194     foundation_win32.release:consoleapplication.obj
 0002:000041a4       ??_C@_0P@OLLEPKOB@this?9?$DOIsOpen?$CI?$CJ?$AA@ 004421a4     foundation_win32.release:consoleapplication.obj
 0002:000041b4       ??_7ConsoleApplication@App@@6B@ 004421b4     foundation_win32.release:consoleapplication.obj
 0002:000041c8       ??_C@_0BE@KHGHKIJG@Nebula3?5Application?$AA@ 004421c8     foundation_win32.release:application.obj
 0002:000041dc       ??_C@_09NEEFJHJB@RLTITLEID?$AA@ 004421dc     foundation_win32.release:application.obj
 0002:000041e8       ??_C@_04BOFMJCLK@1?400?$AA@ 004421e8     foundation_win32.release:application.obj
 0002:000041f0       ??_C@_0CB@BLMPJBLF@?4?4?2foundation?2app?2application?4cc@ 004421f0     foundation_win32.release:application.obj
 0002:00004214       ??_C@_0P@DOHPBAMI@0?5?$DN?$DN?5Singleton?$AA@ 00442214     foundation_win32.release:application.obj
 0002:00004224       ??_C@_0O@GIEEPHFA@?$CBthis?9?$DOisOpen?$AA@ 00442224     foundation_win32.release:application.obj
 0002:00004234       ??_C@_0N@OGOAFBLL@this?9?$DOisOpen?$AA@ 00442234     foundation_win32.release:application.obj
 0002:00004244       ??_7Application@App@@6B@   00442244     foundation_win32.release:application.obj
 0002:00004258       ??_C@_0DL@PJMICFCM@?$CK?$CK?$CK?5NEBULA?5ASSERTION?5?$CK?$CK?$CK?6express@ 00442258     foundation_win32.release:debug.obj
 0002:00004298       ??_C@_0EP@ECJDIGOP@?$CK?$CK?$CK?5NEBULA?5ASSERTION?5?$CK?$CK?$CK?6program@ 00442298     foundation_win32.release:debug.obj
 0002:000042e8       ??_C@_0BL@LNDCKHOK@?4?4?2foundation?2core?2rtti?4cc?$AA@ 004422e8     foundation_win32.release:rtti.obj
 0002:00004304       ??_C@_0P@LLDBGGLM@0?5?$CB?$DN?5className?$AA@ 00442304     foundation_win32.release:rtti.obj
 0002:00004314       ??_C@_0BE@PFKLFMLD@parentClass?5?$CB?$DN?5this?$AA@ 00442314     foundation_win32.release:rtti.obj
 0002:00004328       ??_C@_0EC@GFCMFCKH@Rtti?3?3Create?$CI?$CJ?3?5Trying?5to?5create@ 00442328     foundation_win32.release:rtti.obj
 0002:0000436c       ??_C@_0CP@BPAAKOAB@c?3?2nebula3?2code?2foundation?2io?1as@ 0044236c     foundation_win32.release:uri.obj
 0002:0000439c       ??_C@_0BI@PAIGFHEM@?4?4?2foundation?2io?2uri?4cc?$AA@ 0044239c     foundation_win32.release:uri.obj
 0002:000043b4       ??_C@_04DAMGJPCA@file?$AA@ 004423b4     foundation_win32.release:uri.obj
 0002:000043bc       ??_C@_0BE@FBICPNAD@portIndex?5?$DO?5atIndex?$AA@ 004423bc     foundation_win32.release:uri.obj
 0002:000043d0       ??_C@_0BL@IABNPJLE@queryIndex?5?$DO?5fragmentIndex?$AA@ 004423d0     foundation_win32.release:uri.obj
 0002:000043ec       ??_C@_0BB@IDAAEFJD@?$CBthis?9?$DOIsEmpty?$CI?$CJ?$AA@ 004423ec     foundation_win32.release:uri.obj
 0002:00004400       ??_C@_03GACAABJG@?3?1?1?$AA@ 00442400     foundation_win32.release:uri.obj
 0002:00004404       ??_C@_01EOFPKCAF@?$EA?$AA@ 00442404     foundation_win32.release:uri.obj
 0002:00004408       ??_C@_01JLIPDDHJ@?3?$AA@   00442408     foundation_win32.release:uri.obj
 0002:0000440c       ??_C@_01IPJKGB@?$CD?$AA@   0044240c     foundation_win32.release:uri.obj
 0002:00004410       ??_C@_01OGPIMHDM@?$DP?$AA@ 00442410     foundation_win32.release:uri.obj
 0002:00004414       ??_C@_02CBLDBPFN@?1?1?$AA@ 00442414     foundation_win32.release:uri.obj
 0002:00004418       ??_C@_0BI@HLKDFCOG@pathComponent?4IsValid?$CI?$CJ?$AA@ 00442418     foundation_win32.release:uri.obj
 0002:00004430       ??_C@_01HNPIGOCE@?$CG?$AA@ 00442430     foundation_win32.release:uri.obj
 0002:00004434       ??_C@_01NEMOKFLO@?$DN?$AA@ 00442434     foundation_win32.release:uri.obj
 0002:00004438       ??_C@_0EE@FMNLPNPG@c?3?2nebula3?2code?2foundation?2threa@ 00442438     foundation_win32.release:ioserver.obj
 0002:0000447c       ??_C@_0P@OKJJAII@NULL?5?$CB?$DN?5handle?$AA@ 0044247c     foundation_win32.release:ioserver.obj
 0002:0000448c       ??_C@_0BA@KPOMOFPA@this?9?$DOsemaphore?$AA@ 0044248c     foundation_win32.release:ioserver.obj
 0002:0000449c       ??_C@_0P@IHBKLMEO@path?4IsValid?$CI?$CJ?$AA@ 0044249c     foundation_win32.release:ioserver.obj
 0002:000044ac       ??_C@_0CP@MBOEPDJB@c?3?2nebula3?2code?2foundation?2io?1sc@ 004424ac     foundation_win32.release:ioserver.obj
 0002:000044dc       ?Key@Crc@Util@@0IB         004424dc     foundation_win32.release:ioserver.obj
 0002:000044e0       ?NumByteValues@Crc@Util@@0IB 004424e0     foundation_win32.release:ioserver.obj
 0002:000044e4       ?MinGrowSize@?$Array@VZipFileEntry@IO@@@Util@@0HB 004424e4     foundation_win32.release:ioserver.obj
 0002:000044e8       ?MaxGrowSize@?$Array@VZipFileEntry@IO@@@Util@@0HB 004424e8     foundation_win32.release:ioserver.obj
 0002:000044ec       ?MinGrowSize@?$Array@VZipDirEntry@IO@@@Util@@0HB 004424ec     foundation_win32.release:ioserver.obj
 0002:000044f0       ?MaxGrowSize@?$Array@VZipDirEntry@IO@@@Util@@0HB 004424f0     foundation_win32.release:ioserver.obj
 0002:000044f4       ?MinGrowSize@?$Array@V?$KeyValuePair@VStringAtom@Util@@H@Util@@@Util@@0HB 004424f4     foundation_win32.release:ioserver.obj
 0002:000044f8       ?MaxGrowSize@?$Array@V?$KeyValuePair@VStringAtom@Util@@H@Util@@@Util@@0HB 004424f8     foundation_win32.release:ioserver.obj
 0002:000044fc       ?MinGrowSize@?$Array@V?$KeyValuePair@VString@Util@@V?$Ptr@VArchive@IO@@@@@Util@@@Util@@0HB 004424fc     foundation_win32.release:ioserver.obj
 0002:00004500       ?MaxGrowSize@?$Array@V?$KeyValuePair@VString@Util@@V?$Ptr@VArchive@IO@@@@@Util@@@Util@@0HB 00442500     foundation_win32.release:ioserver.obj
 0002:00004504       ??_C@_0DJ@GAOKFDEI@c?3?2nebula3?2code?2foundation?2io?1ar@ 00442504     foundation_win32.release:ioserver.obj
 0002:00004540       ??_C@_0N@JCNNDPAO@IO?3?3IoServer?$AA@ 00442540     foundation_win32.release:ioserver.obj
 0002:00004550       ??_C@_0BN@CAJGJLBM@?4?4?2foundation?2io?2ioserver?4cc?$AA@ 00442550     foundation_win32.release:ioserver.obj
 0002:00004570       ??_C@_0BJ@DOKDHBFF@?$CBStandardArchivesMounted?$AA@ 00442570     foundation_win32.release:ioserver.obj
 0002:0000458c       ??_C@_09EHKKJHDM@Singleton?$AA@ 0044258c     foundation_win32.release:ioserver.obj
 0002:00004598       ??_C@_0P@IPKFOBHM@?$CBuri?4IsEmpty?$CI?$CJ?$AA@ 00442598     foundation_win32.release:ioserver.obj
 0002:000045a8       ??_C@_0EA@FEMGEELB@SchemeRegistry?3?3Instance?$CI?$CJ?9?$DOIsUr@ 004425a8     foundation_win32.release:ioserver.obj
 0002:000045e8       ??_C@_0P@NGOMFCOI@root?3export_?$CFs?$AA@ 004425e8     foundation_win32.release:ioserver.obj
 0002:000045f8       ??_C@_0BI@GBAIGLCI@StandardArchivesMounted?$AA@ 004425f8     foundation_win32.release:ioserver.obj
 0002:00004610       ??_C@_0BH@EECDHOIA@uri?4Scheme?$CI?$CJ?5?$DN?$DN?5?$CCfile?$CC?$AA@ 00442610     foundation_win32.release:ioserver.obj
 0002:00004628       ??_C@_03GGOFJGCG@?1?2?3?$AA@ 00442628     foundation_win32.release:ioserver.obj
 0002:0000462c       ??_C@_0DK@BNFLEOAO@IO?3?3IoServer?3?3CopyFile?$CI?$CJ?3?5could?5@ 0044262c     foundation_win32.release:ioserver.obj
 0002:00004668       ??_C@_0DK@FDADOHLL@IO?3?3IoServer?3?3CopyFile?$CI?$CJ?3?5could?5@ 00442668     foundation_win32.release:ioserver.obj
 0002:000046a4       ??_C@_0DK@PLKFPCKG@IO?3?3IoServer?3?3ComputeFileCrc?$CI?$CJ?3?5@ 004426a4     foundation_win32.release:ioserver.obj
 0002:000046e0       ??_C@_0BC@NNKGBHDK@pattern?4IsValid?$CI?$CJ?$AA@ 004426e0     foundation_win32.release:ioserver.obj
 0002:000046f4       ??_C@_0BE@FBECNFCF@0?5?$CB?$DN?5this?9?$DOelements?$AA@ 004426f4     foundation_win32.release:ioserver.obj
 0002:00004708       ??_C@_07GDLIKBJC@num?5?$DO?50?$AA@ 00442708     foundation_win32.release:ioserver.obj
 0002:00004710       ??_C@_0CD@OACPADOP@this?9?$DOelements?5?$CG?$CG?5?$CIthis?9?$DOsize?5?$DO?5@ 00442710     foundation_win32.release:ioserver.obj
 0002:00004734       ??_7RefCounted@Core@@6B@   00442734     foundation_win32.release:ioserver.obj
 0002:0000473c       ??_7IoServer@IO@@6B@       0044273c     foundation_win32.release:ioserver.obj
 0002:00004744       ??_C@_0BC@LLFDGKDH@Threading?3?3Thread?$AA@ 00442744     foundation_win32.release:thread.obj
 0002:00004758       ??_C@_0DK@LJJKHKIJ@c?3?2nebula3?2code?2foundation?2threa@ 00442758     foundation_win32.release:win360thread.obj
 0002:00004794       ??_C@_0BB@BOFACGGP@0?5?$CB?$DN?5this?9?$DOevent?$AA@ 00442794     foundation_win32.release:win360thread.obj
 0002:000047a8       ??_C@_0BF@IHFKCJF@Win360?3?3Win360Thread?$AA@ 004427a8     foundation_win32.release:win360thread.obj
 0002:000047c0       ??_C@_0CP@PMHDAPCP@?4?4?2foundation?2threading?2win360?2w@ 004427c0     foundation_win32.release:win360thread.obj
 0002:000047f0       ??_C@_0BD@PJJJHNGI@?$CBthis?9?$DOIsRunning?$CI?$CJ?$AA@ 004427f0     foundation_win32.release:win360thread.obj
 0002:00004804       ??_C@_0BI@FGOFOLED@0?5?$DN?$DN?5this?9?$DOthreadHandle?$AA@ 00442804     foundation_win32.release:win360thread.obj
 0002:0000481c       ??_C@_0BL@KMMDDLHN@NULL?5?$CB?$DN?5this?9?$DOthreadHandle?$AA@ 0044281c     foundation_win32.release:win360thread.obj
 0002:00004838       ??_C@_0BC@LFOMINAG@this?9?$DOIsRunning?$CI?$CJ?$AA@ 00442838     foundation_win32.release:win360thread.obj
 0002:0000484c       ??_C@_0BI@BKPABEAC@0?5?$CB?$DN?5this?9?$DOthreadHandle?$AA@ 0044284c     foundation_win32.release:win360thread.obj
 0002:00004864       ??_C@_09MNFDFHDF@0?5?$CB?$DN?5self?$AA@ 00442864     foundation_win32.release:win360thread.obj
 0002:00004870       ??_7Win360Thread@Win360@@6B@ 00442870     foundation_win32.release:win360thread.obj
 0002:00004880       ??_C@_0CH@KLAPDODG@c?3?2nebula3?2code?2foundation?2util?1@ 00442880     foundation_win32.release:win32sysfunc.obj
 0002:000048a8       ??_C@_0O@FGCIKNOJ@0?5?$DN?$DN?5DataHeap?$AA@ 004428a8     foundation_win32.release:win32sysfunc.obj
 0002:000048b8       ??_C@_0BD@BPOECNJK@Util?4Blob?4DataHeap?$AA@ 004428b8     foundation_win32.release:win32sysfunc.obj
 0002:000048cc       ??_C@_0O@FPDKANJE@0?5?$CB?$DN?5DataHeap?$AA@ 004428cc     foundation_win32.release:win32sysfunc.obj
 0002:000048dc       ?MinGrowSize@?$Array@PAD@Util@@0HB 004428dc     foundation_win32.release:win32sysfunc.obj
 0002:000048e0       ?MaxGrowSize@?$Array@PAD@Util@@0HB 004428e0     foundation_win32.release:win32sysfunc.obj
 0002:000048e4       ?MinGrowSize@?$Array@PBD@Util@@0HB 004428e4     foundation_win32.release:win32sysfunc.obj
 0002:000048e8       ?MaxGrowSize@?$Array@PBD@Util@@0HB 004428e8     foundation_win32.release:win32sysfunc.obj
 0002:000048ec       ??_C@_0L@HGHDALHK@MainThread?$AA@ 004428ec     foundation_win32.release:win32sysfunc.obj
 0002:000048f8       ??_C@_0EO@EGNOHIDC@no?5SSE?1SSE2?5support?5on?5this?5CPU?4@ 004428f8     foundation_win32.release:win32sysfunc.obj
 0002:00004948       ??_C@_0BF@LECBEOGP@NEBULA3?5SYSTEM?5ERROR?$AA@ 00442948     foundation_win32.release:win32sysfunc.obj
 0002:00004960       ??_C@_0BE@OEGCBAMB@Nebula3?3?3MainWindow?$AA@ 00442960     foundation_win32.release:win32sysfunc.obj
 0002:00004974       ??_C@_0BA@PJFNBMAI@NEBULA3?5MESSAGE?$AA@ 00442974     foundation_win32.release:win32sysfunc.obj
 0002:00004984       ??_C@_0CJ@LDPDCBJJ@c?3?2nebula3?2code?2foundation?2util?1@ 00442984     foundation_win32.release:factory.obj
 0002:000049b0       ??_C@_0M@KPOOAIDJ@f?4IsValid?$CI?$CJ?$AA@ 004429b0     foundation_win32.release:factory.obj
 0002:000049bc       ??_C@_04MPKDFPPK@xzyw?$AA@ 004429bc     foundation_win32.release:factory.obj
 0002:000049c4       ??_C@_0BO@DJFJGNAC@?4?4?2foundation?2core?2factory?4cc?$AA@ 004429c4     foundation_win32.release:factory.obj
 0002:000049e4       ??_C@_09INDLKAHI@0?5?$CB?$DN?5rtti?$AA@ 004429e4     foundation_win32.release:factory.obj
 0002:000049f0       ??_C@_0CN@FJFLAEHH@Class?5name?5?8?$CFs?8?5has?5already?5been@ 004429f0     foundation_win32.release:factory.obj
 0002:00004a20       ??_C@_0DK@DFNCFKJA@Class?5fourcc?5?8?$CFs?8?5?$CIname?3?5?$CFs?$CJ?5has@ 00442a20     foundation_win32.release:factory.obj
 0002:00004a5c       ??_C@_0BE@BBAEOLHN@className?4IsValid?$CI?$CJ?$AA@ 00442a5c     foundation_win32.release:factory.obj
 0002:00004a70       ??_C@_0BB@MAKBHHBC@fourCC?4IsValid?$CI?$CJ?$AA@ 00442a70     foundation_win32.release:factory.obj
 0002:00004a84       ??_C@_0BN@OBELMPBF@this?9?$DOClassExists?$CIclassName?$CJ?$AA@ 00442a84     foundation_win32.release:factory.obj
 0002:00004aa4       ??_C@_0BG@BCFKNJPL@classFourCC?4IsValid?$CI?$CJ?$AA@ 00442aa4     foundation_win32.release:factory.obj
 0002:00004abc       ??_C@_0BP@OAPAMIOH@this?9?$DOClassExists?$CIclassFourCC?$CJ?$AA@ 00442abc     foundation_win32.release:factory.obj
 0002:00004adc       ??_C@_0CL@BNBMBDPD@Factory?3?3Create?$CI?8?$CFs?8?$CJ?3?5unknown?5c@ 00442adc     foundation_win32.release:factory.obj
 0002:00004b08       ??_C@_0DC@PPEDOFIN@Factory?3?3Create?$CI?8?$CFs?8?$CJ?3?5unknown?5c@ 00442b08     foundation_win32.release:factory.obj
 0002:00004b3c       ??_C@_0CM@CKKKLNIB@c?3?2nebula3?2code?2foundation?2util?1@ 00442b3c     foundation_win32.release:factory.obj
 0002:00004b68       ??_C@_0BF@GCHCFOFO@0?5?$CB?$DN?5numHashElements?$AA@ 00442b68     foundation_win32.release:factory.obj
 0002:00004b80       ??_C@_0CB@JHMLCKOJ@InvalidIndex?5?$CB?$DN?5hashElementIndex@ 00442b80     foundation_win32.release:factory.obj
 0002:00004ba4       ??_C@_0CC@PALPEJMB@InvalidIndex?5?$CB?$DN?5keyValuePairInde@ 00442ba4     foundation_win32.release:factory.obj
 0002:00004bc8       ??_C@_0BE@LCKAMAEE@?$CBthis?9?$DOinBulkInsert?$AA@ 00442bc8     foundation_win32.release:factory.obj
 0002:00004bdc       ??_C@_0CN@DIALFDOD@c?3?2nebula3?2code?2foundation?2util?1@ 00442bdc     foundation_win32.release:factory.obj
 0002:00004c0c       ??_C@_0BL@JLGDMHKO@?$CBthis?9?$DOContains?$CIkvp?4Key?$CI?$CJ?$CJ?$AA@ 00442c0c     foundation_win32.release:factory.obj
 0002:00004c28       ??_C@_0DC@EKFJFGND@?4?4?2foundation?2memory?2win360?2win3@ 00442c28     foundation_win32.release:win360memoryconfig.obj
 0002:00004c5c       ??_C@_0O@CBAGDPAC@0?5?$DN?$DN?5Heaps?$FLi?$FN?$AA@ 00442c5c     foundation_win32.release:win360memoryconfig.obj
 0002:00004c70       ??_C@_0ED@GGCEJJJE@Invalid?5heap?5type?5in?5Memory?3?3Set@ 00442c70     foundation_win32.release:win360memoryconfig.obj
 0002:00004cb4       ??_C@_0N@JLKAGEFF@Default?5Heap?$AA@ 00442cb4     foundation_win32.release:win360memoryconfig.obj
 0002:00004cc4       ??_C@_0M@FNOKPELE@Object?5Heap?$AA@ 00442cc4     foundation_win32.release:win360memoryconfig.obj
 0002:00004cd0       ??_C@_0BC@GCHAMMC@Object?5Array?5Heap?$AA@ 00442cd0     foundation_win32.release:win360memoryconfig.obj
 0002:00004ce4       ??_C@_0O@CHCHHJEE@Resource?5Heap?$AA@ 00442ce4     foundation_win32.release:win360memoryconfig.obj
 0002:00004cf4       ??_C@_0N@MNODCGCL@Scratch?5Heap?$AA@ 00442cf4     foundation_win32.release:win360memoryconfig.obj
 0002:00004d04       ??_C@_0BB@FKLHLCFD@String?5Data?5Heap?$AA@ 00442d04     foundation_win32.release:win360memoryconfig.obj
 0002:00004d18       ??_C@_0BB@LNAFBOCK@Stream?5Data?5Heap?$AA@ 00442d18     foundation_win32.release:win360memoryconfig.obj
 0002:00004d2c       ??_C@_0N@DJJHFFGI@Physics?5Heap?$AA@ 00442d2c     foundation_win32.release:win360memoryconfig.obj
 0002:00004d3c       ??_C@_08JFNKHEMA@App?5Heap?$AA@ 00442d3c     foundation_win32.release:win360memoryconfig.obj
 0002:00004d48       ??_C@_0N@LMJMIJAH@Network?5Heap?$AA@ 00442d48     foundation_win32.release:win360memoryconfig.obj
 0002:00004d58       ??_C@_0BG@FBKNDLGL@Xbox360?5Graphics?5Heap?$AA@ 00442d58     foundation_win32.release:win360memoryconfig.obj
 0002:00004d70       ??_C@_0BD@KJBJPDLN@Xbox360?5Audio?5Heap?$AA@ 00442d70     foundation_win32.release:win360memoryconfig.obj
 0002:00004d84       ??_C@_0P@MGAAIIGN@Scaleform?5Heap?$AA@ 00442d84     foundation_win32.release:win360memoryconfig.obj
 0002:00004d98       ??_C@_0EL@MAAJOHHH@Invalid?5HeapType?5arg?5in?5Memory?3?3@ 00442d98     foundation_win32.release:win360memoryconfig.obj
 0002:00004de4       ??_C@_0M@MEPMEGKB@IO?3?3Console?$AA@ 00442de4     foundation_win32.release:console.obj
 0002:00004df0       ??_C@_0BM@HFIMCIOD@?4?4?2foundation?2io?2console?4cc?$AA@ 00442df0     foundation_win32.release:console.obj
 0002:00004e0c       ??_C@_0DB@FMDPFOIJ@Thread?3?3GetMyThreadId?$CI?$CJ?5?$DN?$DN?5this?9@ 00442e0c     foundation_win32.release:console.obj
 0002:00004e40       ??_C@_0M@PAPELKKB@h?4isvalid?$CI?$CJ?$AA@ 00442e40     foundation_win32.release:console.obj
 0002:00004e4c       ??_C@_0BG@KOPLHNID@InvalidIndex?5?$CB?$DN?5index?$AA@ 00442e4c     foundation_win32.release:console.obj
 0002:00004e64       ??_7Console@IO@@6B@        00442e64     foundation_win32.release:console.obj
 0002:00004e6c       ??_C@_0DH@DHGDJLAP@c?3?2nebula3?2code?2foundation?2util?1@ 00442e6c     foundation_win32.release:stringatom.obj
 0002:00004ea4       ??_C@_0DI@MBCPNNKF@c?3?2nebula3?2code?2foundation?2util?1@ 00442ea4     foundation_win32.release:stringatom.obj
 0002:00004edc       ??_C@_0BB@BHLEFDJG@Core?3?3CoreServer?$AA@ 00442edc     foundation_win32.release:coreserver.obj
 0002:00004ef0       ??_C@_07MHMENOHJ@Nebula3?$AA@ 00442ef0     foundation_win32.release:coreserver.obj
 0002:00004ef8       ??_C@_05BDABMLJL@home?3?$AA@ 00442ef8     foundation_win32.release:coreserver.obj
 0002:00004f00       ??_C@_0CB@DAPGMNMP@?4?4?2foundation?2core?2coreserver?4cc@ 00442f00     foundation_win32.release:coreserver.obj
 0002:00004f24       ??_7CoreServer@Core@@6B@   00442f24     foundation_win32.release:coreserver.obj
 0002:00004f2c       ??_C@_0CN@JFMHDALH@c?3?2nebula3?2code?2foundation?2core?1@ 00442f2c     foundation_win32.release:logfileconsolehandler.obj
 0002:00004f5c       ??_C@_0BK@KMIMNLLI@IO?3?3LogFileConsoleHandler?$AA@ 00442f5c     foundation_win32.release:logfileconsolehandler.obj
 0002:00004f78       ??_C@_0N@NKFAAPMM@bin?3logfiles?$AA@ 00442f78     foundation_win32.release:logfileconsolehandler.obj
 0002:00004f88       ??_C@_0CO@DNJEELLC@?$HLYEAR?$HN_?$HLMONTH?$HN_?$HLDAY?$HN_?$HLHOUR?$HN_?$HLMIN@ 00442f88     foundation_win32.release:logfileconsolehandler.obj
 0002:00004fb8       ??_C@_0BH@IFLJGJCM@bin?3logfiles?1?$CFs_?$CFs?4txt?$AA@ 00442fb8     foundation_win32.release:logfileconsolehandler.obj
 0002:00004fd0       ??_C@_0CK@OGNPGLEF@?4?4?2foundation?2io?2logfileconsoleh@ 00442fd0     foundation_win32.release:logfileconsolehandler.obj
 0002:00004ffc       ??_C@_08DHMHDIOB@?$FLERROR?$FN?5?$AA@ 00442ffc     foundation_win32.release:logfileconsolehandler.obj
 0002:00005008       ??_C@_0L@GGEGCANA@?$FLWARNING?$FN?5?$AA@ 00443008     foundation_win32.release:logfileconsolehandler.obj
 0002:00005014       ??_C@_0M@LNAFHJ@?$FLDEBUGOUT?$FN?5?$AA@ 00443014     foundation_win32.release:logfileconsolehandler.obj
 0002:00005020       ??_7LogFileConsoleHandler@IO@@6B@ 00443020     foundation_win32.release:logfileconsolehandler.obj
 0002:00005050       ??_C@_0BD@GICHHBIJ@tokens?4Size?$CI?$CJ?5?$DN?$DN?54?$AA@ 00443050     foundation_win32.release:commandlineargs.obj
 0002:00005064       ??_C@_0BN@GKJAADI@CmdLine?3?5arg?5?8?$CFs?8?5not?5found?$CB?$AA@ 00443064     foundation_win32.release:commandlineargs.obj
 0002:00005084       ??_C@_0CG@FOMMHIEM@?4?4?2foundation?2util?2commandlinear@ 00443084     foundation_win32.release:commandlineargs.obj
 0002:000050ac       ??_C@_0BG@IBKLJDFM@this?9?$DOargs?4Size?$CI?$CJ?5?$DO?50?$AA@ 004430ac     foundation_win32.release:commandlineargs.obj
 0002:000050c4       ??_C@_0P@IDDGJGKI@name?4IsValid?$CI?$CJ?$AA@ 004430c4     foundation_win32.release:commandlineargs.obj
 0002:000050d4       ??_C@_0CH@KEGKFJEN@c?3?2nebula3?2code?2foundation?2io?1as@ 004430d4     foundation_win32.release:assignregistry.obj
 0002:000050fc       ??_C@_0BI@MMLOIDDO@this?9?$DOkeyData?4IsValid?$CI?$CJ?$AA@ 004430fc     foundation_win32.release:assignregistry.obj
 0002:00005114       ??_C@_0BD@EDNDOHFP@IO?3?3AssignRegistry?$AA@ 00443114     foundation_win32.release:assignregistry.obj
 0002:00005128       ??_C@_0CD@DEIIPALD@?4?4?2foundation?2io?2assignregistry?4@ 00443128     foundation_win32.release:assignregistry.obj
 0002:0000514c       ??_C@_0BB@PIIDAHLO@?$CBthis?9?$DOIsValid?$CI?$CJ?$AA@ 0044314c     foundation_win32.release:assignregistry.obj
 0002:00005160       ??_C@_0BA@HENCEEOP@this?9?$DOIsValid?$CI?$CJ?$AA@ 00443160     foundation_win32.release:assignregistry.obj
 0002:00005170       ??_C@_04KLFPBEKK@home?$AA@ 00443170     foundation_win32.release:assignregistry.obj
 0002:00005178       ??_C@_03PDOMKJON@bin?$AA@  00443178     foundation_win32.release:assignregistry.obj
 0002:0000517c       ??_C@_04FGEHGIFJ@temp?$AA@ 0044317c     foundation_win32.release:assignregistry.obj
 0002:00005184       ??_C@_04CCHAHKJA@user?$AA@ 00443184     foundation_win32.release:assignregistry.obj
 0002:0000518c       ??_C@_07KBOAIGNI@appdata?$AA@ 0044318c     foundation_win32.release:assignregistry.obj
 0002:00005194       ??_C@_08CLLKOMAI@programs?$AA@ 00443194     foundation_win32.release:assignregistry.obj
 0002:000051a0       ??_C@_04NBFCGMPH@root?$AA@ 004431a0     foundation_win32.release:assignregistry.obj
 0002:000051a8       ??_C@_0BC@PNHCLJBM@root?3export_win32?$AA@ 004431a8     foundation_win32.release:assignregistry.obj
 0002:000051bc       ??_C@_06NKNNMLDJ@export?$AA@ 004431bc     foundation_win32.release:assignregistry.obj
 0002:000051c4       ??_C@_0O@NCODHGJH@export?3meshes?$AA@ 004431c4     foundation_win32.release:assignregistry.obj
 0002:000051d4       ??_C@_03OMGEDIJL@msh?$AA@  004431d4     foundation_win32.release:assignregistry.obj
 0002:000051d8       ??_C@_0N@CBKHLAN@export?3anims?$AA@ 004431d8     foundation_win32.release:assignregistry.obj
 0002:000051e8       ??_C@_03KLFHIGEB@ani?$AA@  004431e8     foundation_win32.release:assignregistry.obj
 0002:000051ec       ??_C@_0M@JGCMMHEM@export?3data?$AA@ 004431ec     foundation_win32.release:assignregistry.obj
 0002:000051f8       ??_C@_04PJOLNDGD@data?$AA@ 004431f8     foundation_win32.release:assignregistry.obj
 0002:00005200       ??_C@_0N@LEOHEBAG@export?3video?$AA@ 00443200     foundation_win32.release:assignregistry.obj
 0002:00005210       ??_C@_05BPFJLLEL@video?$AA@ 00443210     foundation_win32.release:assignregistry.obj
 0002:00005218       ??_C@_0BB@DOJMKABN@export?3sequences?$AA@ 00443218     foundation_win32.release:assignregistry.obj
 0002:0000522c       ??_C@_03NPAJGOON@seq?$AA@  0044322c     foundation_win32.release:assignregistry.obj
 0002:00005230       ??_C@_0N@GDOPAMC@export?3audio?$AA@ 00443230     foundation_win32.release:assignregistry.obj
 0002:00005240       ??_C@_06DJAMKFID@stream?$AA@ 00443240     foundation_win32.release:assignregistry.obj
 0002:00005248       ??_C@_0P@OIGBKJNL@export?3shaders?$AA@ 00443248     foundation_win32.release:assignregistry.obj
 0002:00005258       ??_C@_03OAGEBLKK@shd?$AA@  00443258     foundation_win32.release:assignregistry.obj
 0002:0000525c       ??_C@_0BA@GDEEKLBO@export?3textures?$AA@ 0044325c     foundation_win32.release:assignregistry.obj
 0002:0000526c       ??_C@_03JDBMONBN@tex?$AA@  0044326c     foundation_win32.release:assignregistry.obj
 0002:00005270       ??_C@_0N@GDCDKMAO@export?3frame?$AA@ 00443270     foundation_win32.release:assignregistry.obj
 0002:00005280       ??_C@_05MIJNFGED@frame?$AA@ 00443280     foundation_win32.release:assignregistry.obj
 0002:00005288       ??_C@_0O@FMADPNDB@export?3models?$AA@ 00443288     foundation_win32.release:assignregistry.obj
 0002:00005298       ??_C@_03JBGBEIGK@mdl?$AA@  00443298     foundation_win32.release:assignregistry.obj
 0002:0000529c       ??_C@_05KNIAAKIP@audio?$AA@ 0044329c     foundation_win32.release:assignregistry.obj
 0002:000052a4       ??_C@_0L@DGFHJLBC@export?3sui?$AA@ 004432a4     foundation_win32.release:assignregistry.obj
 0002:000052b0       ??_C@_03EBDEFFME@sui?$AA@  004432b0     foundation_win32.release:assignregistry.obj
 0002:000052b4       ??_C@_0P@NFBELFMO@export?3wiidata?$AA@ 004432b4     foundation_win32.release:assignregistry.obj
 0002:000052c4       ??_C@_07MNKLDEDK@wiidata?$AA@ 004432c4     foundation_win32.release:assignregistry.obj
 0002:000052cc       ??_C@_06BPJDDEFJ@sysmsh?$AA@ 004432cc     foundation_win32.release:assignregistry.obj
 0002:000052d4       ??_C@_06GAOLOBNP@systex?$AA@ 004432d4     foundation_win32.release:assignregistry.obj
 0002:000052dc       ??_C@_07KELKGHPK@sysanim?$AA@ 004432dc     foundation_win32.release:assignregistry.obj
 0002:000052e4       ??_C@_06NKCFPFEA@meshes?$AA@ 004432e4     foundation_win32.release:assignregistry.obj
 0002:000052ec       ??_C@_05KJKEIBEA@anims?$AA@ 004432ec     foundation_win32.release:assignregistry.obj
 0002:000052f4       ??_C@_08NJIMCCJK@textures?$AA@ 004432f4     foundation_win32.release:assignregistry.obj
 0002:00005300       ??_C@_0BF@IPFIDEFE@assignName?4IsValid?$CI?$CJ?$AA@ 00443300     foundation_win32.release:assignregistry.obj
 0002:00005318       ??_C@_0BM@MIGIDELI@this?9?$DOHasAssign?$CIassignName?$CJ?$AA@ 00443318     foundation_win32.release:assignregistry.obj
 0002:00005334       ?MinGrowSize@?$Array@VAssign@IO@@@Util@@0HB 00443334     foundation_win32.release:assignregistry.obj
 0002:00005338       ?MaxGrowSize@?$Array@VAssign@IO@@@Util@@0HB 00443338     foundation_win32.release:assignregistry.obj
 0002:0000533c       ??_C@_0P@NKJNKEKI@this?9?$DOsize?5?$DO?50?$AA@ 0044333c     foundation_win32.release:assignregistry.obj
 0002:0000534c       ??_7AssignRegistry@IO@@6B@ 0044334c     foundation_win32.release:assignregistry.obj
 0002:00005354       ??_C@_0CL@JNOEMAAH@?4?4?2foundation?2io?2win360?2win360fs@ 00443354     foundation_win32.release:win360fswrapper.obj
 0002:00005380       ??_C@_0M@CAPIHHNN@0?5?$CB?$DN?5handle?$AA@ 00443380     foundation_win32.release:win360fswrapper.obj
 0002:0000538c       ??_C@_08HJPCPHLF@buf?5?$CB?$DN?50?$AA@ 0044338c     foundation_win32.release:win360fswrapper.obj
 0002:00005398       ??_C@_0N@KPGELDJJ@numBytes?5?$DO?50?$AA@ 00443398     foundation_win32.release:win360fswrapper.obj
 0002:000053a8       ??_C@_0CF@CEKCBDHP@Win360FSWrapper?3?5WriteFile?$CI?$CJ?5fai@ 004433a8     foundation_win32.release:win360fswrapper.obj
 0002:000053d0       ??_C@_0CE@IILIJNKJ@Win360FSWrapper?3?5ReadFile?$CI?$CJ?5fail@ 004433d0     foundation_win32.release:win360fswrapper.obj
 0002:000053f4       ??_C@_0DP@NHLKLCEK@Win360FSWrapper?3?3SetFileWriteTim@ 004433f4     foundation_win32.release:win360fswrapper.obj
 0002:00005434       ??_C@_0BC@BJOBBEIF@dirPath?4IsValid?$CI?$CJ?$AA@ 00443434     foundation_win32.release:win360fswrapper.obj
 0002:00005448       ??_C@_02DJGKEECL@?4?4?$AA@ 00443448     foundation_win32.release:win360fswrapper.obj
 0002:0000544c       ??_C@_0O@LGHHDKBB@SUCCEEDED?$CIhr?$CJ?$AA@ 0044344c     foundation_win32.release:win360fswrapper.obj
 0002:0000545c       ??_C@_08NPMJDGGI@file?3?1?1?1?$AA@ 0044345c     foundation_win32.release:win360fswrapper.obj
 0002:00005468       ??_C@_08FFGGALGD@0?5?$CB?$DN?5res?$AA@ 00443468     foundation_win32.release:win360fswrapper.obj
 0002:00005474       ??_C@_05NMJMPJJB@win32?$AA@ 00443474     foundation_win32.release:win360fswrapper.obj
 0002:0000547c       ??_C@_0BB@NOEPGKJK@Core?3?3RefCounted?$AA@ 0044347c     foundation_win32.release:refcounted.obj
 0002:00005490       ??_C@_0CB@NEMGBOEL@?4?4?2foundation?2core?2refcounted?4cc@ 00443490     foundation_win32.release:refcounted.obj
 0002:000054b4       ??_C@_0BE@CLOAMCCB@0?5?$DN?$DN?5this?9?$DOrefCount?$AA@ 004434b4     foundation_win32.release:refcounted.obj
 0002:000054c8       ?InitialSize@MemoryStream@IO@@0HB 004434c8     foundation_win32.release:schemeregistry.obj
 0002:000054cc       ??_C@_0BD@IFAOACGG@IO?3?3SchemeRegistry?$AA@ 004434cc     foundation_win32.release:schemeregistry.obj
 0002:000054e0       ??_C@_0CD@MEFJIHKK@?4?4?2foundation?2io?2schemeregistry?4@ 004434e0     foundation_win32.release:schemeregistry.obj
 0002:00005504       ??_C@_0CG@KNMLCGCF@classRtti?4IsDerivedFrom?$CIStream?3?3@ 00443504     foundation_win32.release:schemeregistry.obj
 0002:0000552c       ??_C@_0BE@JOJIDHAO@uriScheme?4IsValid?$CI?$CJ?$AA@ 0044352c     foundation_win32.release:schemeregistry.obj
 0002:00005540       ??_C@_0CJ@FFJMGBD@this?9?$DOschemeRegistry?4Contains?$CIur@ 00443540     foundation_win32.release:schemeregistry.obj
 0002:0000556c       ??_C@_04IAFLKNP@http?$AA@  0044356c     foundation_win32.release:schemeregistry.obj
 0002:00005574       ??_C@_06LKINPMBB@httpnz?$AA@ 00443574     foundation_win32.release:schemeregistry.obj
 0002:0000557c       ??_C@_0BL@DECPMEPA@InvalidIndex?5?$CB?$DN?5eraseIndex?$AA@ 0044357c     foundation_win32.release:schemeregistry.obj
 0002:00005598       ??_7SchemeRegistry@IO@@6B@ 00443598     foundation_win32.release:schemeregistry.obj
 0002:000055a0       ??_C@_0BG@FFNKDOBO@IO?3?3ArchiveFileSystem?$AA@ 004435a0     foundation_win32.release:archivefilesystem.obj
 0002:000055b8       ??_C@_0CN@KMPIIJIB@?4?4?2foundation?2io?2archfs?2archivef@ 004435b8     foundation_win32.release:archivefilesystem.obj
 0002:000055e8       ??_7ArchiveFileSystem@IO@@6B@ 004435e8     foundation_win32.release:archivefilesystem.obj
 0002:00005604       ??_C@_0BC@HMJOFDPN@IO?3?3ZipFileSystem?$AA@ 00443604     foundation_win32.release:zipfilesystem.obj
 0002:00005618       ??_C@_0CI@COPNGKOA@?4?4?2foundation?2io?2zipfs?2zipfilesy@ 00443618     foundation_win32.release:zipfilesystem.obj
 0002:00005640       ??_C@_03LCAAOJEC@zip?$AA@  00443640     foundation_win32.release:zipfilesystem.obj
 0002:00005644       ??_C@_0BE@GEJFAMIO@localPath?4IsValid?$CI?$CJ?$AA@ 00443644     foundation_win32.release:zipfilesystem.obj
 0002:00005658       ??_7ZipFileSystem@IO@@6B@  00443658     foundation_win32.release:zipfilesystem.obj
 0002:00005674       ??_C@_0BK@BBHBLCHM@IO?3?3ArchiveFileSystemBase?$AA@ 00443674     foundation_win32.release:archivefilesystembase.obj
 0002:00005690       ??_C@_0DB@EHABNMBK@?4?4?2foundation?2io?2archfs?2archivef@ 00443690     foundation_win32.release:archivefilesystembase.obj
 0002:000056c4       ??_C@_0BG@KDJBAFLD@?$CBthis?9?$DOIsMounted?$CIuri?$CJ?$AA@ 004436c4     foundation_win32.release:archivefilesystembase.obj
 0002:000056dc       ??_C@_0CD@IJPAFMBH@this?9?$DOIsMounted?$CIarchive?9?$DOGetURI?$CI@ 004436dc     foundation_win32.release:archivefilesystembase.obj
 0002:00005700       ??_C@_0BF@NFALIHNL@this?9?$DOIsMounted?$CIuri?$CJ?$AA@ 00443700     foundation_win32.release:archivefilesystembase.obj
 0002:00005718       ?MinGrowSize@?$Array@V?$Ptr@VArchive@IO@@@@@Util@@0HB 00443718     foundation_win32.release:archivefilesystembase.obj
 0002:0000571c       ?MaxGrowSize@?$Array@V?$Ptr@VArchive@IO@@@@@Util@@0HB 0044371c     foundation_win32.release:archivefilesystembase.obj
 0002:00005720       ??_7ArchiveFileSystemBase@IO@@6B@ 00443720     foundation_win32.release:archivefilesystembase.obj
 0002:0000573c       ??_C@_0L@GNPMIMDD@IO?3?3Stream?$AA@ 0044373c     foundation_win32.release:stream.obj
 0002:00005748       ??_C@_0BL@CHCMBGJL@?4?4?2foundation?2io?2stream?4cc?$AA@ 00443748     foundation_win32.release:stream.obj
 0002:00005764       ??_C@_0BC@CPDFFPCA@?$CBthis?9?$DOIsMapped?$CI?$CJ?$AA@ 00443764     foundation_win32.release:stream.obj
 0002:00005778       ??_C@_0BA@JBDMANIO@?$CBthis?9?$DOisMapped?$AA@ 00443778     foundation_win32.release:stream.obj
 0002:00005788       ??_C@_0BE@NBADBONI@this?9?$DOCanBeMapped?$CI?$CJ?$AA@ 00443788     foundation_win32.release:stream.obj
 0002:0000579c       ??_C@_0P@BDADKPNA@this?9?$DOisMapped?$AA@ 0044379c     foundation_win32.release:stream.obj
 0002:000057b0       ??_7Stream@IO@@6B@         004437b0     foundation_win32.release:stream.obj
 0002:000057f8       ??_C@_07NEHPBJGA@xbox360?$AA@ 004437f8     foundation_win32.release:systeminfobase.obj
 0002:00005800       ??_C@_03NLGKJIIH@wii?$AA@  00443800     foundation_win32.release:systeminfobase.obj
 0002:00005804       ??_C@_03BHFIDDEG@ps3?$AA@  00443804     foundation_win32.release:systeminfobase.obj
 0002:00005808       ??_C@_0BA@FELDNHBI@unknownplatform?$AA@ 00443808     foundation_win32.release:systeminfobase.obj
 0002:00005818       ??_C@_06CDGPGGGH@x86_32?$AA@ 00443818     foundation_win32.release:systeminfobase.obj
 0002:00005820       ??_C@_06HDPOADAK@x86_64?$AA@ 00443820     foundation_win32.release:systeminfobase.obj
 0002:00005828       ??_C@_0BA@KJCALELP@powerpc_xbox360?$AA@ 00443828     foundation_win32.release:systeminfobase.obj
 0002:00005838       ??_C@_0M@JOPAPABN@powerpc_ps3?$AA@ 00443838     foundation_win32.release:systeminfobase.obj
 0002:00005844       ??_C@_0M@FCMCFLNM@powerpc_wii?$AA@ 00443844     foundation_win32.release:systeminfobase.obj
 0002:00005850       ??_C@_0P@IOANILPO@unknowncputype?$AA@ 00443850     foundation_win32.release:systeminfobase.obj
 0002:00005860       ??_C@_0BK@PNEAEACH@?4?4?2foundation?2util?2crc?4cc?$AA@ 00443860     foundation_win32.release:crc.obj
 0002:0000587c       ??_C@_0P@CNKMHLAG@?$CBthis?9?$DOinBegin?$AA@ 0044387c     foundation_win32.release:crc.obj
 0002:0000588c       ??_C@_0O@BKPKOEFA@this?9?$DOinBegin?$AA@ 0044388c     foundation_win32.release:crc.obj
 0002:0000589c       ??_C@_0BC@CDPCMOIA@this?9?$DOresultValid?$AA@ 0044389c     foundation_win32.release:crc.obj
 0002:000058b0       ??_C@_0P@LAMKJOCO@IO?3?3ZipArchive?$AA@ 004438b0     foundation_win32.release:ziparchive.obj
 0002:000058c0       ??_C@_0CF@HAEBKCLF@?4?4?2foundation?2io?2zipfs?2ziparchiv@ 004438c0     foundation_win32.release:ziparchive.obj
 0002:000058e8       ??_C@_0BJ@PDJLMBFP@0?5?$DN?$DN?5this?9?$DOzipFileHandle?$AA@ 004438e8     foundation_win32.release:ziparchive.obj
 0002:00005904       ??_C@_04CLJHFACG@?4zip?$AA@ 00443904     foundation_win32.release:ziparchive.obj
 0002:0000590c       ??_C@_0BG@NJILEOJH@UNZ_OK?5?$DN?$DN?5fileInfoRes?$AA@ 0044390c     foundation_win32.release:ziparchive.obj
 0002:00005924       ??_C@_0CN@EDPKMDN@ZipArchive?3?5error?5in?5parsing?5zip@ 00443924     foundation_win32.release:ziparchive.obj
 0002:00005954       ??_C@_02CFKBDFGI@?1?2?$AA@ 00443954     foundation_win32.release:ziparchive.obj
 0002:00005958       ??_C@_0BO@EAJPGOAM@fileURI?4LocalPath?$CI?$CJ?4IsValid?$CI?$CJ?$AA@ 00443958     foundation_win32.release:ziparchive.obj
 0002:00005978       ??_C@_0FE@NMOILJOP@ZipArchive?3?3ConvertToZipURI?$CI?$CJ?3?5f@ 00443978     foundation_win32.release:ziparchive.obj
 0002:000059cc       ??_C@_05FBLGKOOJ@file?$DN?$AA@ 004439cc     foundation_win32.release:ziparchive.obj
 0002:000059d4       ??_7ZipArchive@IO@@6B@     004439d4     foundation_win32.release:ziparchive.obj
 0002:000059dc       ??_C@_0CL@JONGJMFE@?4?4?2foundation?2util?2localstringat@ 004439dc     foundation_win32.release:localstringatomtable.obj
 0002:00005a08       ??_C@_0BL@JDNDNPJB@?4?4?2foundation?2util?2blob?4cc?$AA@ 00443a08     foundation_win32.release:blob.obj
 0002:00005a24       ??_C@_0P@MBMNBDEP@0?5?$CB?$DN?5this?9?$DOptr?$AA@ 00443a24     foundation_win32.release:blob.obj
 0002:00005a34       ??_C@_0N@DHIIFFJH@0?5?$CB?$DN?5rhs?4ptr?$AA@ 00443a34     foundation_win32.release:blob.obj
 0002:00005a44       ??_C@_0N@CFANLGAN@0?5?$CB?$DN?5success?$AA@ 00443a44     foundation_win32.release:win360heap.obj
 0002:00005a54       ??_C@_0CK@CFGCFHEK@?4?4?2foundation?2memory?2win360?2win3@ 00443a54     foundation_win32.release:win360heap.obj
 0002:00005a80       ??_C@_0O@HMFEGNAJ@0?5?$CB?$DN?5heapName?$AA@ 00443a80     foundation_win32.release:win360heap.obj
 0002:00005a90       ??_C@_0BA@GPMIBJHE@0?5?$CB?$DN?5this?9?$DOheap?$AA@ 00443a90     foundation_win32.release:win360heap.obj
 0002:00005aa0       ??_C@_0BF@CAEDNPCP@Win360?3?3Win360Socket?$AA@ 00443aa0     foundation_win32.release:win360socket.obj
 0002:00005ab8       ??_C@_0CJ@EMMGCAGF@?4?4?2foundation?2net?2win360?2win360s@ 00443ab8     foundation_win32.release:win360socket.obj
 0002:00005ae4       ??_C@_0BD@FDLGBPFC@NetworkInitialized?$AA@ 00443ae4     foundation_win32.release:win360socket.obj
 0002:00005af8       ??_C@_0BE@PJPACGPN@?$CBNetworkInitialized?$AA@ 00443af8     foundation_win32.release:win360socket.obj
 0002:00005b0c       ??_C@_0BP@PCLJPGDC@WSAStartup?$CI?$CJ?5failed?5with?5?8?$CFs?8?$CB?$AA@ 00443b0c     foundation_win32.release:win360socket.obj
 0002:00005b2c       ??_C@_0BF@KNPDIJJA@Invalid?5socket?5type?$CB?$AA@ 00443b2c     foundation_win32.release:win360socket.obj
 0002:00005b44       ??_C@_0BE@LDHIDEEA@INVALID_SOCKET?5?$CB?$DN?5s?$AA@ 00443b44     foundation_win32.release:win360socket.obj
 0002:00005b58       ??_C@_0DF@HHCFPGCN@Win360Socket?3?3Close?$CI?$CJ?3?5shutdown?$CI@ 00443b58     foundation_win32.release:win360socket.obj
 0002:00005b90       ??_C@_0DI@LMMENDCA@Win360Socket?3?3Close?$CI?$CJ?3?5closesock@ 00443b90     foundation_win32.release:win360socket.obj
 0002:00005bc8       ??_C@_0DP@IBFAEMLI@Win360Socket?3?3SetBoolOption?$CI?$CJ?3?5s@ 00443bc8     foundation_win32.release:win360socket.obj
 0002:00005c08       ??_C@_0DP@CFMPFCIJ@Win360Socket?3?3GetBoolOption?$CI?$CJ?3?5g@ 00443c08     foundation_win32.release:win360socket.obj
 0002:00005c48       ??_C@_0BN@EHIGFCCH@sizeof?$CIoptVal?$CJ?5?$DN?$DN?5optValSize?$AA@ 00443c48     foundation_win32.release:win360socket.obj
 0002:00005c68       ??_C@_0DO@CMJHKPOO@Win360Socket?3?3SetIntOption?$CI?$CJ?3?5se@ 00443c68     foundation_win32.release:win360socket.obj
 0002:00005ca8       ??_C@_0DO@NLHPKJBP@Win360Socket?3?3GetIntOption?$CI?$CJ?3?5ge@ 00443ca8     foundation_win32.release:win360socket.obj
 0002:00005ce8       ??_C@_0DO@BMLJDOIJ@Win360Socket?3?3SetBlocking?$CI?$CJ?3?5ioc@ 00443ce8     foundation_win32.release:win360socket.obj
 0002:00005d28       ??_C@_0BB@MGLEMMHB@?$CBthis?9?$DOIsBound?$CI?$CJ?$AA@ 00443d28     foundation_win32.release:win360socket.obj
 0002:00005d3c       ??_C@_0DA@DNNFPCKA@Win360Socket?3?3Bind?$CI?$CJ?3?5bind?$CI?$CJ?5fai@ 00443d3c     foundation_win32.release:win360socket.obj
 0002:00005d6c       ??_C@_0BA@EKOFIPCA@this?9?$DOIsBound?$CI?$CJ?$AA@ 00443d6c     foundation_win32.release:win360socket.obj
 0002:00005d7c       ??_C@_0DE@HPKGIFAM@Win360Socket?3?3Listen?$CI?$CJ?3?5listen?$CI?$CJ@ 00443d7c     foundation_win32.release:win360socket.obj
 0002:00005db0       ??_C@_0DE@LJHBLHK@Win360Socket?3?3Accept?$CI?$CJ?3?5accept?$CI?$CJ@ 00443db0     foundation_win32.release:win360socket.obj
 0002:00005de4       ??_C@_0DG@PFJLNDLD@Win360Socket?3?3Connect?$CI?$CJ?3?5connect@ 00443de4     foundation_win32.release:win360socket.obj
 0002:00005e1c       ??_C@_0DJ@IHALGLPL@Win360Socket?3?3IsConnected?$CI?$CJ?3?5sel@ 00443e1c     foundation_win32.release:win360socket.obj
 0002:00005e58       ??_C@_0CP@KAPCMLKM@Win360Socket?3?3Send?$CI?$CJ?3?5send?$CI?$CJ?5fai@ 00443e58     foundation_win32.release:win360socket.obj
 0002:00005e88       ??_C@_0DJ@FECEEJHG@Win360Socket?3?3HasRecvData?$CI?$CJ?3?5sel@ 00443e88     foundation_win32.release:win360socket.obj
 0002:00005ec4       ??_C@_0CP@GFNALHPO@Win360Socket?3?3Recv?$CI?$CJ?3?5recv?$CI?$CJ?5fai@ 00443ec4     foundation_win32.release:win360socket.obj
 0002:00005ef4       ??_C@_0CG@JIJPEHJN@Win360Socket?3?3SendTo?$CI?$CJ?3?5IMPLEMEN@ 00443ef4     foundation_win32.release:win360socket.obj
 0002:00005f1c       ??_C@_0CI@OHPGCLCM@Win360Socket?3?3RecvFrom?$CI?$CJ?3?5IMPLEM@ 00443f1c     foundation_win32.release:win360socket.obj
 0002:00005f44       ??_C@_09MFOLKCNJ@No?5error?4?$AA@ 00443f44     foundation_win32.release:win360socket.obj
 0002:00005f50       ??_C@_0DC@LIBAAKPF@Unknown?5error?5?$CInot?5mapped?5by?5Win@ 00443f50     foundation_win32.release:win360socket.obj
 0002:00005f84       ??_C@_0BL@MNFCMOJL@Interrupted?5function?5call?4?$AA@ 00443f84     foundation_win32.release:win360socket.obj
 0002:00005fa0       ??_C@_0BD@FKJFEME@Permission?5denied?4?$AA@ 00443fa0     foundation_win32.release:win360socket.obj
 0002:00005fb4       ??_C@_0N@GCLPIMGA@Bad?5address?4?$AA@ 00443fb4     foundation_win32.release:win360socket.obj
 0002:00005fc4       ??_C@_0BC@PPKPNKFJ@Invalid?5argument?4?$AA@ 00443fc4     foundation_win32.release:win360socket.obj
 0002:00005fd8       ??_C@_0BP@GDMEHPCG@Too?5many?5open?5files?5?$CIsockets?$CJ?4?$AA@ 00443fd8     foundation_win32.release:win360socket.obj
 0002:00005ff8       ??_C@_0BH@HILHEDJB@Operation?5would?5block?4?$AA@ 00443ff8     foundation_win32.release:win360socket.obj
 0002:00006010       ??_C@_0BL@NJLLEBOH@Operation?5now?5in?5progress?4?$AA@ 00444010     foundation_win32.release:win360socket.obj
 0002:0000602c       ??_C@_0BP@MBKBMKHO@Operation?5already?5in?5progress?4?$AA@ 0044402c     foundation_win32.release:win360socket.obj
 0002:0000604c       ??_C@_0CA@CIBMEFJP@Socket?5operation?5on?5non?9socket?4?$AA@ 0044404c     foundation_win32.release:win360socket.obj
 0002:0000606c       ??_C@_0BN@HFCIEIME@Destination?5address?5required?$AA@ 0044406c     foundation_win32.release:win360socket.obj
 0002:0000608c       ??_C@_0BC@KAAFDOAL@Message?5too?5long?4?$AA@ 0044408c     foundation_win32.release:win360socket.obj
 0002:000060a0       ??_C@_0CA@MJJGEIL@Protocol?5wrong?5type?5for?5socket?4?$AA@ 004440a0     foundation_win32.release:win360socket.obj
 0002:000060c0       ??_C@_0BF@IHBONONG@Bad?5protocal?5option?4?$AA@ 004440c0     foundation_win32.release:win360socket.obj
 0002:000060d8       ??_C@_0BI@HCEGKLDD@Protocol?5not?5supported?4?$AA@ 004440d8     foundation_win32.release:win360socket.obj
 0002:000060f0       ??_C@_0BL@IBGJAAEH@Socket?5type?5not?5supported?4?$AA@ 004440f0     foundation_win32.release:win360socket.obj
 0002:0000610c       ??_C@_0BJ@OEEMOEE@Operation?5not?5supported?4?$AA@ 0044410c     foundation_win32.release:win360socket.obj
 0002:00006128       ??_C@_0BP@EJPELDFL@Protocol?5family?5not?5supported?4?$AA@ 00444128     foundation_win32.release:win360socket.obj
 0002:00006148       ??_C@_0DB@BMBDNMEG@Address?5family?5not?5supported?5by?5@ 00444148     foundation_win32.release:win360socket.obj
 0002:0000617c       ??_C@_0BI@LBNMNFCL@Address?5already?5in?5use?4?$AA@ 0044417c     foundation_win32.release:win360socket.obj
 0002:00006194       ??_C@_0CB@BKNHHCEP@Cannot?5assign?5requested?5address?4@ 00444194     foundation_win32.release:win360socket.obj
 0002:000061b8       ??_C@_0BB@JNLBCFLE@Network?5is?5down?4?$AA@ 004441b8     foundation_win32.release:win360socket.obj
 0002:000061cc       ??_C@_0BI@GJPCFKOM@Network?5is?5unreachable?4?$AA@ 004441cc     foundation_win32.release:win360socket.obj
 0002:000061e4       ??_C@_0CF@EAAKKOEF@Network?5dropped?5connection?5on?5re@ 004441e4     foundation_win32.release:win360socket.obj
 0002:0000620c       ??_C@_0CC@FDGMNFNN@Software?5caused?5connection?5abort@ 0044420c     foundation_win32.release:win360socket.obj
 0002:00006230       ??_C@_0BK@NKOFGCPK@Connection?5reset?5by?5peer?4?$AA@ 00444230     foundation_win32.release:win360socket.obj
 0002:0000624c       ??_C@_0BL@HNDJEPNA@No?5buffer?5space?5available?4?$AA@ 0044424c     foundation_win32.release:win360socket.obj
 0002:00006268       ??_C@_0BN@NKJOIDAP@Socket?5is?5already?5connected?4?$AA@ 00444268     foundation_win32.release:win360socket.obj
 0002:00006288       ??_C@_0BJ@ICFPCMKN@Socket?5is?5not?5connected?4?$AA@ 00444288     foundation_win32.release:win360socket.obj
 0002:000062a4       ??_C@_0CD@DDOPECAA@Cannot?5send?5after?5socket?5shutdow@ 004442a4     foundation_win32.release:win360socket.obj
 0002:000062c8       ??_C@_0BG@FJOOPMBM@Connection?5timed?5out?4?$AA@ 004442c8     foundation_win32.release:win360socket.obj
 0002:000062e0       ??_C@_0BE@PAAMHJLG@Connection?5refused?4?$AA@ 004442e0     foundation_win32.release:win360socket.obj
 0002:000062f4       ??_C@_0O@NFGFDNC@Host?5is?5down?4?$AA@ 004442f4     foundation_win32.release:win360socket.obj
 0002:00006304       ??_C@_0BC@LGEPODIC@No?5route?5to?5host?4?$AA@ 00444304     foundation_win32.release:win360socket.obj
 0002:00006318       ??_C@_0BE@LPAHEAJN@Too?5many?5processes?4?$AA@ 00444318     foundation_win32.release:win360socket.obj
 0002:0000632c       ??_C@_0CC@LAPHNDHH@Network?5subsystem?5is?5unavailable@ 0044432c     foundation_win32.release:win360socket.obj
 0002:00006350       ??_C@_0CC@PPLEHHBE@Winsock?4dll?5version?5out?5of?5range@ 00444350     foundation_win32.release:win360socket.obj
 0002:00006374       ??_C@_0CJ@IDCKMOHB@Successful?5WSAStartup?5not?5yet?5pe@ 00444374     foundation_win32.release:win360socket.obj
 0002:000063a0       ??_C@_0BP@LJDBFHGM@Graceful?5shutdown?5in?5progress?4?$AA@ 004443a0     foundation_win32.release:win360socket.obj
 0002:000063c0       ??_C@_0BG@DPCOFCIG@Class?5type?5not?5found?4?$AA@ 004443c0     foundation_win32.release:win360socket.obj
 0002:000063d8       ??_C@_0BA@GFEMFDFG@Host?5not?5found?4?$AA@ 004443d8     foundation_win32.release:win360socket.obj
 0002:000063e8       ??_C@_0CB@BHFFMGGM@Nonauthoritative?5host?5not?5found?4@ 004443e8     foundation_win32.release:win360socket.obj
 0002:0000640c       ??_C@_0CA@MAHIFNBD@This?5is?5a?5nonrecoverable?5error?4?$AA@ 0044440c     foundation_win32.release:win360socket.obj
 0002:0000642c       ??_C@_0CO@JIKLALMA@Valid?5name?0?5no?5data?5record?5of?5re@ 0044442c     foundation_win32.release:win360socket.obj
 0002:0000645c       ??_C@_0DF@LFBAJAON@Win360Socket?3?3ErrorAsString?$CI?$CJ?3?5u@ 0044445c     foundation_win32.release:win360socket.obj
 0002:00006494       ??_7Win360Socket@Win360@@6B@ 00444494     foundation_win32.release:win360socket.obj
 0002:0000649c       ??_C@_0BO@BOEMEOMC@?$CF04d?9?$CF02d?9?$CF02d_?$CF02d?9?$CF02d?9?$CF02d?$AA@ 0044449c     foundation_win32.release:win32minidump.obj
 0002:000064bc       ??_C@_0M@DKJCMOIE@?$CFs?$CFs_?$CFs?4dmp?$AA@ 004444bc     foundation_win32.release:win32minidump.obj
 0002:000064c8       ??_C@_0CM@PFLFHPFG@?4?4?2foundation?2util?2globalstringa@ 004444c8     foundation_win32.release:globalstringatomtable.obj
 0002:000064f4       ??_7ExitHandler@Core@@6B@  004444f4     foundation_win32.release:exithandler.obj
 0002:000064fc       ??_C@_0BL@JCDCJCAD@Win32?3?3Win32ConsoleHandler?$AA@ 004444fc     foundation_win32.release:win32consolehandler.obj
 0002:00006518       ??_C@_0CO@FFJPCLLL@?4?4?2foundation?2io?2win32?2win32cons@ 00444518     foundation_win32.release:win32consolehandler.obj
 0002:00006548       ??_C@_0CL@BNEANLIA@INVALID_HANDLE_VALUE?5?$CB?$DN?5this?9?$DOst@ 00444548     foundation_win32.release:win32consolehandler.obj
 0002:00006574       ??_C@_0CK@OFIECDKM@INVALID_HANDLE_VALUE?5?$CB?$DN?5this?9?$DOst@ 00444574     foundation_win32.release:win32consolehandler.obj
 0002:000065a0       ??_C@_0CL@KIGMCPAH@INVALID_HANDLE_VALUE?5?$CB?$DN?5this?9?$DOst@ 004445a0     foundation_win32.release:win32consolehandler.obj
 0002:000065cc       ??_C@_03BBKEAIF@?$DP?$DP?$DP?$AA@ 004445cc     foundation_win32.release:win32consolehandler.obj
 0002:000065d0       ??_C@_04KGFMLCPK@Main?$AA@ 004445d0     foundation_win32.release:win32consolehandler.obj
 0002:000065d8       ??_C@_0DD@LGGPGMPP@?$CK?$CK?$CK?5ERROR?5?$CK?$CK?$CK?6Application?3?5?$CFs?6Th@ 004445d8     foundation_win32.release:win32consolehandler.obj
 0002:0000660c       ??_C@_02LIIHNNHG@?6?$AN?$AA@ 0044460c     foundation_win32.release:win32consolehandler.obj
 0002:00006610       ??_7Win32ConsoleHandler@Win32@@6B@ 00444610     foundation_win32.release:win32consolehandler.obj
 0002:00006640       ??_C@_0BD@OHCGIOAM@IO?3?3ConsoleHandler?$AA@ 00444640     foundation_win32.release:consolehandler.obj
 0002:00006654       ??_C@_0CD@LNDHOCKM@?4?4?2foundation?2io?2consolehandler?4@ 00444654     foundation_win32.release:consolehandler.obj
 0002:00006678       ??_7ConsoleHandler@IO@@6B@ 00444678     foundation_win32.release:consolehandler.obj
 0002:000066a8       ??_C@_02DPKJAMEF@?$CFd?$AA@ 004446a8     foundation_win32.release:calendartimebase.obj
 0002:000066ac       ??_C@_01GBGANLPD@0?$AA@    004446ac     foundation_win32.release:calendartimebase.obj
 0002:000066b0       ??_C@_02PLJDPFIO@00?$AA@   004446b0     foundation_win32.release:calendartimebase.obj
 0002:000066b4       ??_C@_06OBGPOIGL@?$HLYEAR?$HN?$AA@ 004446b4     foundation_win32.release:calendartimebase.obj
 0002:000066bc       ??_C@_07PHIBKEEO@?$HLMONTH?$HN?$AA@ 004446bc     foundation_win32.release:calendartimebase.obj
 0002:000066c4       ??_C@_09GBBJHKPE@?$HLWEEKDAY?$HN?$AA@ 004446c4     foundation_win32.release:calendartimebase.obj
 0002:000066d0       ??_C@_05FIPPHAAL@?$HLDAY?$HN?$AA@ 004446d0     foundation_win32.release:calendartimebase.obj
 0002:000066d8       ??_C@_06LMCOOBDM@?$HLHOUR?$HN?$AA@ 004446d8     foundation_win32.release:calendartimebase.obj
 0002:000066e0       ??_C@_08GFAFKKAN@?$HLMINUTE?$HN?$AA@ 004446e0     foundation_win32.release:calendartimebase.obj
 0002:000066ec       ??_C@_08GDDMKCFB@?$HLSECOND?$HN?$AA@ 004446ec     foundation_win32.release:calendartimebase.obj
 0002:000066f8       ??_C@_0O@POKBLPHG@?$HLMILLISECOND?$HN?$AA@ 004446f8     foundation_win32.release:calendartimebase.obj
 0002:00006708       ??_C@_07CGJPFGJA@January?$AA@ 00444708     foundation_win32.release:calendartimebase.obj
 0002:00006710       ??_C@_08GNJGEPFN@February?$AA@ 00444710     foundation_win32.release:calendartimebase.obj
 0002:0000671c       ??_C@_05HPCKOFNC@March?$AA@ 0044471c     foundation_win32.release:calendartimebase.obj
 0002:00006724       ??_C@_05DMJDNLEJ@April?$AA@ 00444724     foundation_win32.release:calendartimebase.obj
 0002:0000672c       ??_C@_03CNMDKL@May?$AA@    0044472c     foundation_win32.release:calendartimebase.obj
 0002:00006730       ??_C@_04CNLMGBGM@June?$AA@ 00444730     foundation_win32.release:calendartimebase.obj
 0002:00006738       ??_C@_04MIEPOIFP@July?$AA@ 00444738     foundation_win32.release:calendartimebase.obj
 0002:00006740       ??_C@_06LBBHFDDG@August?$AA@ 00444740     foundation_win32.release:calendartimebase.obj
 0002:00006748       ??_C@_09BHHEALKD@September?$AA@ 00444748     foundation_win32.release:calendartimebase.obj
 0002:00006754       ??_C@_07JJNFCEND@October?$AA@ 00444754     foundation_win32.release:calendartimebase.obj
 0002:0000675c       ??_C@_08HCHEGEOA@November?$AA@ 0044475c     foundation_win32.release:calendartimebase.obj
 0002:00006768       ??_C@_08EDHMEBNP@December?$AA@ 00444768     foundation_win32.release:calendartimebase.obj
 0002:00006774       ??_C@_0DK@DIEACBAA@CalendarTime?3?3StringToMonth?$CI?$CJ?3?5i@ 00444774     foundation_win32.release:calendartimebase.obj
 0002:000067b0       ??_C@_06OOPIFAJ@Sunday?$AA@ 004447b0     foundation_win32.release:calendartimebase.obj
 0002:000067b8       ??_C@_06JLEDEDGH@Monday?$AA@ 004447b8     foundation_win32.release:calendartimebase.obj
 0002:000067c0       ??_C@_07BAAGCFCM@Tuesday?$AA@ 004447c0     foundation_win32.release:calendartimebase.obj
 0002:000067c8       ??_C@_09DLIGFAKA@Wednesday?$AA@ 004447c8     foundation_win32.release:calendartimebase.obj
 0002:000067d4       ??_C@_08HACCIKIA@Thursday?$AA@ 004447d4     foundation_win32.release:calendartimebase.obj
 0002:000067e0       ??_C@_06JECMNKMI@Friday?$AA@ 004447e0     foundation_win32.release:calendartimebase.obj
 0002:000067e8       ??_C@_08INBOOONO@Saturday?$AA@ 004447e8     foundation_win32.release:calendartimebase.obj
 0002:000067f4       ??_C@_0DO@CKEMMBLM@CalendarTime?3?3StringToWeekday?$CI?$CJ?3@ 004447f4     foundation_win32.release:calendartimebase.obj
 0002:00006834       ??_C@_0P@FPIKFCOP@IO?3?3TextWriter?$AA@ 00444834     foundation_win32.release:textwriter.obj
 0002:00006844       ??_7TextWriter@IO@@6B@     00444844     foundation_win32.release:textwriter.obj
 0002:00006854       ??_C@_0BB@PJLFJCEH@IO?3?3StreamWriter?$AA@ 00444854     foundation_win32.release:streamwriter.obj
 0002:00006868       ??_C@_0CB@KHDNGPFH@?4?4?2foundation?2io?2streamwriter?4cc@ 00444868     foundation_win32.release:streamwriter.obj
 0002:0000688c       ??_C@_0BH@BHAEINJL@this?9?$DOstream?4isvalid?$CI?$CJ?$AA@ 0044488c     foundation_win32.release:streamwriter.obj
 0002:000068a4       ??_C@_0BJ@JJONKDGE@this?9?$DOstream?9?$DOCanWrite?$CI?$CJ?$AA@ 004448a4     foundation_win32.release:streamwriter.obj
 0002:000068c0       ??_C@_0LA@BLFADKGD@?$CIthis?9?$DOstream?9?$DOGetAccessMode?$CI?$CJ?5?$DN@ 004448c0     foundation_win32.release:streamwriter.obj
 0002:00006970       ??_7StreamWriter@IO@@6B@   00444970     foundation_win32.release:streamwriter.obj
 0002:00006980       ??_C@_0DB@DOEGNDGG@?4?4?2foundation?2util?2win32?2win32st@ 00444980     foundation_win32.release:win32stringconverter.obj
 0002:000069b8       ??_C@_0EK@JMANJBCL@?$CI0?5?$CB?$DN?5src?$CJ?5?$CG?$CG?5?$CI0?5?$CB?$DN?5dst?$CJ?5?$CG?$CG?5?$CIdst@ 004449b8     foundation_win32.release:win32stringconverter.obj
 0002:00006a04       ??_C@_0CK@HILIHMDC@ERROR_INSUFFICIENT_BUFFER?5dstMax@ 00444a04     foundation_win32.release:win32stringconverter.obj
 0002:00006a30       ??_C@_0BE@DKGAEDDL@ERROR_INVALID_FLAGS?$AA@ 00444a30     foundation_win32.release:win32stringconverter.obj
 0002:00006a48       ??_C@_0EI@LJHCDKNN@ERROR_INVALID_PARAMETER?3?5May?5occ@ 00444a48     foundation_win32.release:win32stringconverter.obj
 0002:00006a90       ??_C@_0DF@HALMAAOA@ERROR_NO_UNICODE_TRANSLATION?4?4?4?5@ 00444a90     foundation_win32.release:win32stringconverter.obj
 0002:00006ac8       ??_C@_0O@NPFKCNOE@Unknown?5Error?$AA@ 00444ac8     foundation_win32.release:win32stringconverter.obj
 0002:00006ad8       ??_C@_0FK@ELBBCAE@Win32StringConverter?3?3UTF8ToWide@ 00444ad8     foundation_win32.release:win32stringconverter.obj
 0002:00006b34       ??_C@_08LOHBMLKC@0?5?$CB?$DN?5src?$AA@ 00444b34     foundation_win32.release:win32stringconverter.obj
 0002:00006b40       ??_C@_0CB@KCDAOLNO@numBytesWritten?5?$DM?5sizeof?$CIdstBuf?$CJ@ 00444b40     foundation_win32.release:win32stringconverter.obj
 0002:00006b64       ??_C@_0DO@NMOLBHGD@Win32StringConverter?3?3WideToUTF8@ 00444b64     foundation_win32.release:win32stringconverter.obj
 0002:00006ba4       ??_C@_08PLJADLOO@0?5?$CB?$DN?5ptr?$AA@ 00444ba4     foundation_win32.release:filestream.obj
 0002:00006bb0       ??_C@_0P@OFMBBKIG@IO?3?3FileStream?$AA@ 00444bb0     foundation_win32.release:filestream.obj
 0002:00006bc0       ??_C@_0BP@DAGFDMEO@?4?4?2foundation?2io?2filestream?4cc?$AA@ 00444bc0     foundation_win32.release:filestream.obj
 0002:00006be0       ??_C@_0BC@LAMFMDFD@0?5?$CB?$DN?5this?9?$DOhandle?$AA@ 00444be0     foundation_win32.release:filestream.obj
 0002:00006bf4       ??_C@_0BC@PBMACOAF@0?5?$DN?$DN?5this?9?$DOhandle?$AA@ 00444bf4     foundation_win32.release:filestream.obj
 0002:00006c08       ??_C@_0BN@JKJPOHPD@this?9?$DOuri?4Scheme?$CI?$CJ?5?$DN?$DN?5?$CCfile?$CC?$AA@ 00444c08     foundation_win32.release:filestream.obj
 0002:00006c28       ??_C@_0CA@EGFHHJBP@this?9?$DOuri?4LocalPath?$CI?$CJ?4IsValid?$CI?$CJ?$AA@ 00444c28     foundation_win32.release:filestream.obj
 0002:00006c48       ??_C@_0BJ@MNDIIGHJ@0?5?$DN?$DN?5this?9?$DOmappedContent?$AA@ 00444c48     foundation_win32.release:filestream.obj
 0002:00006c64       ??_C@_08DJGDGONI@size?5?$DO?50?$AA@ 00444c64     foundation_win32.release:filestream.obj
 0002:00006c70       ??_C@_0BB@GKFNADGC@readSize?5?$DN?$DN?5size?$AA@ 00444c70     foundation_win32.release:filestream.obj
 0002:00006c84       ??_C@_0BJ@MMKPOCIA@0?5?$CB?$DN?5this?9?$DOmappedContent?$AA@ 00444c84     foundation_win32.release:filestream.obj
 0002:00006ca0       ??_7FileStream@IO@@6B@     00444ca0     foundation_win32.release:filestream.obj
 0002:00006ce8       ?MinGrowSize@?$Array@V?$KeyValuePair@VStringAtom@Util@@UConnection@HttpClientRegistry@Http@@@Util@@@Util@@0HB 00444ce8     foundation_win32.release:httpstream.obj
 0002:00006cec       ?MaxGrowSize@?$Array@V?$KeyValuePair@VStringAtom@Util@@UConnection@HttpClientRegistry@Http@@@Util@@@Util@@0HB 00444cec     foundation_win32.release:httpstream.obj
 0002:00006cf0       ??_C@_0DF@DOPEBOE@c?3?2nebula3?2code?2foundation?2http?1@ 00444cf0     foundation_win32.release:httpstream.obj
 0002:00006d28       ??_C@_0BB@CFHCOAMP@Http?3?3HttpStream?$AA@ 00444d28     foundation_win32.release:httpstream.obj
 0002:00006d3c       ??_C@_0CB@MKPJFAMM@?4?4?2foundation?2http?2httpstream?4cc@ 00444d3c     foundation_win32.release:httpstream.obj
 0002:00006d60       ??_C@_0BM@GGEGKCHK@HttpStream?3?5Opening?5?8?$CFs?8?4?4?4?$AA@ 00444d60     foundation_win32.release:httpstream.obj
 0002:00006d7c       ??_C@_04NPIFMCB@ok?$CB?6?$AA@ 00444d7c     foundation_win32.release:httpstream.obj
 0002:00006d84       ??_C@_08GNCACJHJ@failed?$CB?6?$AA@ 00444d84     foundation_win32.release:httpstream.obj
 0002:00006d90       ??_7HttpStream@Http@@6B@   00444d90     foundation_win32.release:httpstream.obj
 0002:00006dd8       ??_C@_0BD@HOJPCJMJ@Http?3?3HttpNzStream?$AA@ 00444dd8     foundation_win32.release:httpnzstream.obj
 0002:00006dec       ??_C@_0CD@HFEGEKNN@?4?4?2foundation?2http?2httpnzstream?4@ 00444dec     foundation_win32.release:httpnzstream.obj
 0002:00006e10       ??_C@_03JMPIPLI@?4nz?$AA@  00444e10     foundation_win32.release:httpnzstream.obj
 0002:00006e14       ??_C@_0BO@CJCCPDHP@HttpNzStream?3?5Opening?5?8?$CFs?8?4?4?4?$AA@ 00444e14     foundation_win32.release:httpnzstream.obj
 0002:00006e34       ??_C@_0DB@BHGANHFG@HttpNzStream?3?5stream?5?8?$CFs?8?5is?5not@ 00444e34     foundation_win32.release:httpnzstream.obj
 0002:00006e68       ??_C@_0M@EIIJLFLC@Z_OK?5?$DN?$DN?5res?$AA@ 00444e68     foundation_win32.release:httpnzstream.obj
 0002:00006e78       ??_7HttpNzStream@Http@@6B@ 00444e78     foundation_win32.release:httpnzstream.obj
 0002:00006ec0       ??_C@_0DE@PAACAJOH@c?3?2nebula3?2code?2foundation?2io?1zi@ 00444ec0     foundation_win32.release:zipfilestream.obj
 0002:00006ef4       ??_C@_0BC@BCMMPBLF@IO?3?3ZipFileStream?$AA@ 00444ef4     foundation_win32.release:zipfilestream.obj
 0002:00006f08       ??_C@_0CI@EJCAFIEF@?4?4?2foundation?2io?2zipfs?2zipfilest@ 00444f08     foundation_win32.release:zipfilestream.obj
 0002:00006f30       ??_C@_0BB@NAMCBADG@?$CBthis?9?$DOmapBuffer?$AA@ 00444f30     foundation_win32.release:zipfilestream.obj
 0002:00006f44       ??_C@_03OFKLFAAJ@pwd?$AA@  00444f44     foundation_win32.release:zipfilestream.obj
 0002:00006f48       ??_C@_0BD@HGCOOGFJ@this?9?$DOzipFileEntry?$AA@ 00444f48     foundation_win32.release:zipfilestream.obj
 0002:00006f5c       ??_C@_03PLHFFLIH@ptr?$AA@  00444f5c     foundation_win32.release:zipfilestream.obj
 0002:00006f60       ??_C@_0BP@PJHHEMLH@ReadAccess?5?$DN?$DN?5this?9?$DOaccessMode?$AA@ 00444f60     foundation_win32.release:zipfilestream.obj
 0002:00006f80       ??_C@_0DI@FCEFMAFJ@?$CIthis?9?$DOposition?5?$DO?$DN?50?$CJ?5?$CG?$CG?5?$CIthis?9?$DO@ 00444f80     foundation_win32.release:zipfilestream.obj
 0002:00006fb8       ??_C@_0CL@GMDPHHKP@?$CIthis?9?$DOposition?5?$CL?5readBytes?$CJ?5?$DM?$DN?5@ 00444fb8     foundation_win32.release:zipfilestream.obj
 0002:00006fe4       ??_C@_0BM@FDNCBCCM@this?9?$DOposition?5?$DO?$DN?5posBefore?$AA@ 00444fe4     foundation_win32.release:zipfilestream.obj
 0002:00007000       ??_C@_0O@OJDAKMJB@readBytes?5?$DO?50?$AA@ 00445000     foundation_win32.release:zipfilestream.obj
 0002:00007010       ??_C@_0M@MJHADDHB@dummyBuffer?$AA@ 00445010     foundation_win32.release:zipfilestream.obj
 0002:0000701c       ??_C@_0BE@MPGMJIBM@this?9?$DOGetSize?$CI?$CJ?5?$DO?50?$AA@ 0044501c     foundation_win32.release:zipfilestream.obj
 0002:00007030       ??_C@_0BF@GIHHFFPD@0?5?$CB?$DN?5this?9?$DOmapBuffer?$AA@ 00445030     foundation_win32.release:zipfilestream.obj
 0002:00007048       ??_C@_07IPNMCAN@success?$AA@ 00445048     foundation_win32.release:zipfilestream.obj
 0002:00007050       ??_C@_0BA@FMJDFDGH@this?9?$DOmapBuffer?$AA@ 00445050     foundation_win32.release:zipfilestream.obj
 0002:00007060       ??_7ZipFileStream@IO@@6B@  00445060     foundation_win32.release:zipfilestream.obj
 0002:000070a8       ??_C@_0M@BPKEHAOF@IO?3?3Archive?$AA@ 004450a8     foundation_win32.release:archive.obj
 0002:000070b4       ??_7Archive@IO@@6B@        004450b4     foundation_win32.release:archive.obj
 0002:000070bc       ??_C@_0BA@BNKHHPOG@IO?3?3ArchiveBase?$AA@ 004450bc     foundation_win32.release:archivebase.obj
 0002:000070cc       ??_C@_0CH@OLNDPELB@?4?4?2foundation?2io?2archfs?2archiveb@ 004450cc     foundation_win32.release:archivebase.obj
 0002:000070f4       ??_7ArchiveBase@IO@@6B@    004450f4     foundation_win32.release:archivebase.obj
 0002:000070fc       ??_C@_0CG@LJDILOPD@?4?4?2foundation?2io?2zipfs?2zipdirent@ 004450fc     foundation_win32.release:zipdirentry.obj
 0002:00007124       ??_C@_0CH@HDHFBMAG@?4?4?2foundation?2io?2zipfs?2zipfileen@ 00445124     foundation_win32.release:zipfileentry.obj
 0002:0000714c       ??_C@_06KGNFABGC@0?5?$CB?$DN?5h?$AA@ 0044514c     foundation_win32.release:zipfileentry.obj
 0002:00007154       ??_C@_0O@GOFEANOJ@0?5?$CB?$DN?5critSect?$AA@ 00445154     foundation_win32.release:zipfileentry.obj
 0002:00007164       ??_C@_0O@GCEDCPB@UNZ_OK?5?$DN?$DN?5res?$AA@ 00445164     foundation_win32.release:zipfileentry.obj
 0002:00007174       ??_C@_0BJ@PCAMKFKG@0?5?$CB?$DN?5this?9?$DOzipFileHandle?$AA@ 00445174     foundation_win32.release:zipfileentry.obj
 0002:00007190       ??_C@_0BL@PDDKCCPH@0?5?$CB?$DN?5this?9?$DOarchiveCritSect?$AA@ 00445190     foundation_win32.release:zipfileentry.obj
 0002:000071ac       ??_C@_0M@PCENNPGA@?$CFd?4?$CFd?4?$CFd?4?$CFd?$AA@ 004451ac     foundation_win32.release:win360ipaddress.obj
 0002:000071b8       ??_C@_09IPAEKDAI@localhost?$AA@ 004451b8     foundation_win32.release:win360ipaddress.obj
 0002:000071c4       ??_C@_0CM@EAKOCGND@?4?4?2foundation?2net?2win360?2win360i@ 004451c4     foundation_win32.release:win360ipaddress.obj
 0002:000071f0       ??_C@_0BD@EJMIODFG@hostName?4IsValid?$CI?$CJ?$AA@ 004451f0     foundation_win32.release:win360ipaddress.obj
 0002:00007204       ??_C@_03OBJFJEBA@any?$AA@  00445204     foundation_win32.release:win360ipaddress.obj
 0002:00007208       ??_C@_09OALBOHJN@broadcast?$AA@ 00445208     foundation_win32.release:win360ipaddress.obj
 0002:00007214       ??_C@_04PJDNGLKJ@self?$AA@ 00445214     foundation_win32.release:win360ipaddress.obj
 0002:0000721c       ??_C@_08KFIKCBPJ@inetself?$AA@ 0044521c     foundation_win32.release:win360ipaddress.obj
 0002:00007228       ??_C@_0M@LOAOIMFF@?40123456789?$AA@ 00445228     foundation_win32.release:win360ipaddress.obj
 0002:00007234       ??_C@_0M@PACOMBBM@Net?3?3Socket?$AA@ 00445234     foundation_win32.release:socket.obj
 0002:00007240       ??_7Socket@Net@@6B@        00445240     foundation_win32.release:socket.obj
 0002:00007248       ??_C@_0CD@PNKBLKLC@?4?4?2foundation?2util?2stringbuffer?4@ 00445248     foundation_win32.release:stringbuffer.obj
 0002:0000726c       ??_C@_0BM@DBFHMPLN@strLength?5?$DM?5this?9?$DOchunkSize?$AA@ 0044526c     foundation_win32.release:stringbuffer.obj
 0002:00007288       ??_C@_0BB@HAKJIPDK@IO?3?3MemoryStream?$AA@ 00445288     foundation_win32.release:memorystream.obj
 0002:0000729c       ??_C@_0CB@BAHJKEIO@?4?4?2foundation?2io?2memorystream?4cc@ 0044529c     foundation_win32.release:memorystream.obj
 0002:000072c0       ??_C@_0HB@CPCFBEIF@?$CIWriteAccess?5?$DN?$DN?5this?9?$DOaccessMode@ 004452c0     foundation_win32.release:memorystream.obj
 0002:00007334       ??_C@_0CO@KMBFGOII@?$CIthis?9?$DOposition?5?$CL?5numBytes?$CJ?5?$DM?$DN?5t@ 00445334     foundation_win32.release:memorystream.obj
 0002:00007368       ??_C@_0EK@MCLGCDEM@?$CIReadAccess?5?$DN?$DN?5this?9?$DOaccessMode?$CJ@ 00445368     foundation_win32.release:memorystream.obj
 0002:000073b4       ??_C@_0P@OHADKHFC@0?5?$CB?$DN?5newBuffer?$AA@ 004453b4     foundation_win32.release:memorystream.obj
 0002:000073c4       ??_C@_0CH@NODHPJLB@?$CInewBuffer?5?$CL?5newSize?$CJ?5?$DM?5endOfNew@ 004453c4     foundation_win32.release:memorystream.obj
 0002:000073ec       ??_C@_0CJ@JLOBFDAB@?$CIthis?9?$DOsize?5?$CL?5numBytes?$CJ?5?$DO?5this?9?$DO@ 004453ec     foundation_win32.release:memorystream.obj
 0002:00007418       ??_C@_0BN@GBCCDI@newCapacity?5?$DO?5this?9?$DOcapacity?$AA@ 00445418     foundation_win32.release:memorystream.obj
 0002:00007438       ??_C@_0BC@BMNJOAMD@0?5?$CB?$DN?5this?9?$DObuffer?$AA@ 00445438     foundation_win32.release:memorystream.obj
 0002:00007450       ??_7MemoryStream@IO@@6B@   00445450     foundation_win32.release:memorystream.obj
 0002:00007498       ??_C@_0BJ@LDALDNDJ@Http?3?3HttpClientRegistry?$AA@ 00445498     foundation_win32.release:httpclientregistry.obj
 0002:000074b4       ??_C@_0CJ@HNGPBHBM@?4?4?2foundation?2http?2httpclientreg@ 004454b4     foundation_win32.release:httpclientregistry.obj
 0002:000074e0       ??_C@_0P@GLIMAPMO@?$CBthis?9?$DOisValid?$AA@ 004454e0     foundation_win32.release:httpclientregistry.obj
 0002:000074f0       ??_C@_0BB@LCBJPLJK@con?4useCount?5?$DO?50?$AA@ 004454f0     foundation_win32.release:httpclientregistry.obj
 0002:00007504       ??_7HttpClientRegistry@Http@@6B@ 00445504     foundation_win32.release:httpclientregistry.obj
 0002:0000750c       ??_C@_0BB@CKEFLEEB@Http?3?3HttpClient?$AA@ 0044550c     foundation_win32.release:httpclient.obj
 0002:00007520       ??_C@_07CHPLNACE@Mozilla?$AA@ 00445520     foundation_win32.release:httpclient.obj
 0002:00007528       ??_C@_0CB@EHDIFLBG@?4?4?2foundation?2http?2httpclient?4cc@ 00445528     foundation_win32.release:httpclient.obj
 0002:0000754c       ??_C@_0BF@FAELLIHK@?$CBthis?9?$DOIsConnected?$CI?$CJ?$AA@ 0044554c     foundation_win32.release:httpclient.obj
 0002:00007564       ??_C@_0BO@IMGIJHLN@this?9?$DOtcpClient?9?$DOIsBlocking?$CI?$CJ?$AA@ 00445564     foundation_win32.release:httpclient.obj
 0002:00007584       ??_C@_0CA@EEKKLGOD@result?5?$CB?$DN?5TcpClient?3?3Connecting?$AA@ 00445584     foundation_win32.release:httpclient.obj
 0002:000075a4       ??_C@_0BE@BGIIEADK@this?9?$DOIsConnected?$CI?$CJ?$AA@ 004455a4     foundation_win32.release:httpclient.obj
 0002:000075b8       ??_C@_0CN@NMLPFANB@HttpClient?3?5Failed?5to?5open?5?8?$CFs?8?5@ 004455b8     foundation_win32.release:httpclient.obj
 0002:000075e8       ??_7HttpClient@Http@@6B@   004455e8     foundation_win32.release:httpclient.obj
 0002:000075f0       ??_C@_0P@KLBIEHGI@Net?3?3TcpClient?$AA@ 004455f0     foundation_win32.release:tcpclient.obj
 0002:00007600       ??_7TcpClient@Net@@6B@     00445600     foundation_win32.release:tcpclient.obj
 0002:00007608       ??_C@_0BC@PEEELCPC@Net?3?3StdTcpClient?$AA@ 00445608     foundation_win32.release:stdtcpclient.obj
 0002:0000761c       ??_C@_0CG@JKLKLFIO@?4?4?2foundation?2net?2tcp?2stdtcpclie@ 0044561c     foundation_win32.release:stdtcpclient.obj
 0002:00007644       ??_C@_0BI@GCGAEBFN@?$CBthis?9?$DOsocket?4isvalid?$CI?$CJ?$AA@ 00445644     foundation_win32.release:stdtcpclient.obj
 0002:0000765c       ??_C@_0BL@BLCAKALI@this?9?$DOsendStream?4isvalid?$CI?$CJ?$AA@ 0044565c     foundation_win32.release:stdtcpclient.obj
 0002:00007678       ??_C@_0BL@JIKGIEIC@this?9?$DOrecvStream?4isvalid?$CI?$CJ?$AA@ 00445678     foundation_win32.release:stdtcpclient.obj
 0002:00007694       ??_C@_0DO@GMMOEAEJ@StdTcpClient?3?5failed?5to?5connect?5@ 00445694     foundation_win32.release:stdtcpclient.obj
 0002:000076d4       ??_C@_0CG@CEDJEKIP@StdTcpClient?3?5failed?5to?5open?5soc@ 004456d4     foundation_win32.release:stdtcpclient.obj
 0002:000076fc       ??_C@_0BH@MMPCDEGE@this?9?$DOsocket?4isvalid?$CI?$CJ?$AA@ 004456fc     foundation_win32.release:stdtcpclient.obj
 0002:00007714       ??_C@_0BM@PBNPMHM@StdTcpClient?5re?9connected?$CB?6?$AA@ 00445714     foundation_win32.release:stdtcpclient.obj
 0002:00007730       ??_C@_0EB@GLCGDJCN@StdTcpClient?5re?9connect?5failed?5w@ 00445730     foundation_win32.release:stdtcpclient.obj
 0002:00007774       ??_C@_0CN@GAPNPFAB@StdTcpClient?5re?9connect?5failed?5w@ 00445774     foundation_win32.release:stdtcpclient.obj
 0002:000077a4       ??_7StdTcpClient@Net@@6B@  004457a4     foundation_win32.release:stdtcpclient.obj
 0002:000077ac       ??_C@_07KDKMIPIP@OPTIONS?$AA@ 004457ac     foundation_win32.release:httprequestwriter.obj
 0002:000077b4       ??_C@_03HAPOJHBM@GET?$AA@  004457b4     foundation_win32.release:httprequestwriter.obj
 0002:000077b8       ??_C@_04BINJNOJD@HEAD?$AA@ 004457b8     foundation_win32.release:httprequestwriter.obj
 0002:000077c0       ??_C@_04HCJEIHPL@POST?$AA@ 004457c0     foundation_win32.release:httprequestwriter.obj
 0002:000077c8       ??_C@_03KBBGFLEK@PUT?$AA@  004457c8     foundation_win32.release:httprequestwriter.obj
 0002:000077cc       ??_C@_06FKDAMKFP@DELETE?$AA@ 004457cc     foundation_win32.release:httprequestwriter.obj
 0002:000077d4       ??_C@_05EHILDPJH@TRACE?$AA@ 004457d4     foundation_win32.release:httprequestwriter.obj
 0002:000077dc       ??_C@_07FNNMGOPK@CONNECT?$AA@ 004457dc     foundation_win32.release:httprequestwriter.obj
 0002:000077e4       ??_C@_0BC@MEIKMFJI@InvalidHttpMethod?$AA@ 004457e4     foundation_win32.release:httprequestwriter.obj
 0002:000077f8       ??_C@_0BI@NDBIHNBJ@Http?3?3HttpRequestWriter?$AA@ 004457f8     foundation_win32.release:httprequestwriter.obj
 0002:00007810       ??_C@_0CI@IBLKKCJF@?4?4?2foundation?2http?2httprequestwr@ 00445810     foundation_win32.release:httprequestwriter.obj
 0002:00007838       ??_C@_0BE@OJFLCMFP@this?9?$DOuri?4IsValid?$CI?$CJ?$AA@ 00445838     foundation_win32.release:httprequestwriter.obj
 0002:0000784c       ??_C@_0BC@BPKCPCMK@?$CFs?5?1?$CFs?5HTTP?11?41?$AN?6?$AA@ 0044584c     foundation_win32.release:httprequestwriter.obj
 0002:00007860       ??_C@_0L@LAAIKCML@Host?3?5?$CFs?$AN?6?$AA@ 00445860     foundation_win32.release:httprequestwriter.obj
 0002:0000786c       ??_C@_0BB@CAJCOHBO@User?9Agent?3?5?$CFs?$AN?6?$AA@ 0044586c     foundation_win32.release:httprequestwriter.obj
 0002:00007880       ??_C@_0BC@BGDFMCHK@Keep?9Alive?3?5300?$AN?6?$AA@ 00445880     foundation_win32.release:httprequestwriter.obj
 0002:00007894       ??_C@_0BJ@OADPLKKE@Connection?3?5keep?9alive?$AN?6?$AA@ 00445894     foundation_win32.release:httprequestwriter.obj
 0002:000078b0       ??_7HttpRequestWriter@Http@@6B@ 004458b0     foundation_win32.release:httprequestwriter.obj
 0002:000078c0       ??_C@_02PCIJFNDE@?$AN?6?$AA@ 004458c0     foundation_win32.release:httprequestwriter.obj
 0002:000078c4       ??_C@_0BD@DOHNNGAP@tokens?4Size?$CI?$CJ?5?$DN?$DN?52?$AA@ 004458c4     foundation_win32.release:httpresponsereader.obj
 0002:000078d8       ??_C@_0CK@OPLCAKIL@c?3?2nebula3?2code?2foundation?2io?1me@ 004458d8     foundation_win32.release:httpresponsereader.obj
 0002:00007904       ??_C@_0O@OGNNOBJO@str?4IsValid?$CI?$CJ?$AA@ 00445904     foundation_win32.release:httpresponsereader.obj
 0002:00007914       ??_C@_0BJ@KDJCDBAC@Http?3?3HttpResponseReader?$AA@ 00445914     foundation_win32.release:httpresponsereader.obj
 0002:00007930       ??_C@_01CLKCMJKC@?5?$AA@   00445930     foundation_win32.release:httpresponsereader.obj
 0002:00007934       ??_C@_06NIIMPKCC@HTTP?1?$CK?$AA@ 00445934     foundation_win32.release:httpresponsereader.obj
 0002:0000793c       ??_C@_01LIIJDEN@?$AN?$AA@  0044593c     foundation_win32.release:httpresponsereader.obj
 0002:00007940       ??_C@_0BC@JGAHHAAI@Content?9Length?3?5?$CK?$AA@ 00445940     foundation_win32.release:httpresponsereader.obj
 0002:00007954       ??_C@_02BNFKLOHE@?5?3?$AA@ 00445954     foundation_win32.release:httpresponsereader.obj
 0002:00007958       ??_C@_0CJ@CHFLKBLJ@?4?4?2foundation?2http?2httpresponser@ 00445958     foundation_win32.release:httpresponsereader.obj
 0002:00007984       ??_C@_0BA@DLNMFFGC@Content?9Type?3?5?$CK?$AA@ 00445984     foundation_win32.release:httpresponsereader.obj
 0002:00007994       ??_7HttpResponseReader@Http@@6B@ 00445994     foundation_win32.release:httpresponsereader.obj
 0002:000079a4       ??_C@_0BB@NFDHJDJN@IO?3?3StreamReader?$AA@ 004459a4     foundation_win32.release:streamreader.obj
 0002:000079b8       ??_C@_0CB@DNIOAMNA@?4?4?2foundation?2io?2streamreader?4cc@ 004459b8     foundation_win32.release:streamreader.obj
 0002:000079dc       ??_C@_0BI@OLJLGIGH@this?9?$DOstream?9?$DOCanRead?$CI?$CJ?$AA@ 004459dc     foundation_win32.release:streamreader.obj
 0002:000079f8       ??_C@_0HE@IFGMJGON@?$CIthis?9?$DOstream?9?$DOGetAccessMode?$CI?$CJ?5?$DN@ 004459f8     foundation_win32.release:streamreader.obj
 0002:00007a6c       ??_7StreamReader@IO@@6B@   00445a6c     foundation_win32.release:streamreader.obj
 0002:00007a7c       ??_C@_0P@HDAIFDDF@IO?3?3TextReader?$AA@ 00445a7c     foundation_win32.release:textreader.obj
 0002:00007a8c       ??_7TextReader@IO@@6B@     00445a8c     foundation_win32.release:textreader.obj
 0002:00007a9c       ??_C@_03GNABGMEE@100?$AA@  00445a9c     foundation_win32.release:httpstatus.obj
 0002:00007aa0       ??_C@_03HPLEMDKK@200?$AA@  00445aa0     foundation_win32.release:httpstatus.obj
 0002:00007aa4       ??_C@_03FKNPJMHG@400?$AA@  00445aa4     foundation_win32.release:httpstatus.obj
 0002:00007aa8       ??_C@_03HBPCMPLF@403?$AA@  00445aa8     foundation_win32.release:httpstatus.obj
 0002:00007aac       ??_C@_03DOLDFJHC@404?$AA@  00445aac     foundation_win32.release:httpstatus.obj
 0002:00007ab0       ??_C@_03CHKIGIDD@405?$AA@  00445ab0     foundation_win32.release:httpstatus.obj
 0002:00007ab4       ??_C@_03MIFDLPA@406?$AA@   00445ab4     foundation_win32.release:httpstatus.obj
 0002:00007ab8       ??_C@_03OCGDPLBD@500?$AA@  00445ab8     foundation_win32.release:httpstatus.obj
 0002:00007abc       ??_C@_03MJEOKINA@503?$AA@  00445abc     foundation_win32.release:httpstatus.obj
 0002:00007ac0       ??_C@_03PLHIMKFC@501?$AA@  00445ac0     foundation_win32.release:httpstatus.obj
 0002:00007ac4       ??_C@_0BK@OJDOMJCD@Invalid?5HTTP?5status?5code?$CB?$AA@ 00445ac4     foundation_win32.release:httpstatus.obj
 0002:00007ae0       ??_C@_08LJHDLOLO@Continue?$AA@ 00445ae0     foundation_win32.release:httpstatus.obj
 0002:00007aec       ??_C@_02GIPFHKNO@OK?$AA@   00445aec     foundation_win32.release:httpstatus.obj
 0002:00007af0       ??_C@_0M@LNAIDEEG@Bad?5Request?$AA@ 00445af0     foundation_win32.release:httpstatus.obj
 0002:00007afc       ??_C@_09LMDIMFJD@Forbidden?$AA@ 00445afc     foundation_win32.release:httpstatus.obj
 0002:00007b08       ??_C@_09CFCBFJND@Not?5Found?$AA@ 00445b08     foundation_win32.release:httpstatus.obj
 0002:00007b14       ??_C@_0BG@NJGANGCC@Internal?5Server?5Error?$AA@ 00445b14     foundation_win32.release:httpstatus.obj
 0002:00007b2c       ??_C@_0BA@JGKGKAME@Not?5Implemented?$AA@ 00445b2c     foundation_win32.release:httpstatus.obj
 0002:00007b3c       ??_C@_0BE@NGHLFKBN@Service?5Unavailable?$AA@ 00445b3c     foundation_win32.release:httpstatus.obj
 0002:00007b50       ??_C@_0BE@POECGLAC@Invalid?5Status?5Code?$AA@ 00445b50     foundation_win32.release:httpstatus.obj
 0002:00007b64       ??_C@_05GDHACFMB@1?42?43?$AA@ 00445b64     zlib_win32.release:unzip.obj
 0002:00007b6c       ??_C@_0BH@LIBMMIGA@incorrect?5header?5check?$AA@ 00445b6c     zlib_win32.release:inflate.obj
 0002:00007b84       ??_C@_0BL@IHKGDAEE@unknown?5compression?5method?$AA@ 00445b84     zlib_win32.release:inflate.obj
 0002:00007ba0       ??_C@_0BE@EMOGCLGO@invalid?5window?5size?$AA@ 00445ba0     zlib_win32.release:inflate.obj
 0002:00007bb4       ??_C@_0BJ@BLBBCOMO@unknown?5header?5flags?5set?$AA@ 00445bb4     zlib_win32.release:inflate.obj
 0002:00007bd0       ??_C@_0BE@GONKLEPM@header?5crc?5mismatch?$AA@ 00445bd0     zlib_win32.release:inflate.obj
 0002:00007be4       ??_C@_0BD@PJCBIDD@invalid?5block?5type?$AA@ 00445be4     zlib_win32.release:inflate.obj
 0002:00007bf8       ??_C@_0BN@LGAADGOK@invalid?5stored?5block?5lengths?$AA@ 00445bf8     zlib_win32.release:inflate.obj
 0002:00007c18       ??_C@_0CE@GMIGFPBB@too?5many?5length?5or?5distance?5symb@ 00445c18     zlib_win32.release:inflate.obj
 0002:00007c3c       ??_C@_0BJ@HDEPPGOH@invalid?5code?5lengths?5set?$AA@ 00445c3c     zlib_win32.release:inflate.obj
 0002:00007c58       ??_C@_0BK@BMMPFBBH@invalid?5bit?5length?5repeat?$AA@ 00445c58     zlib_win32.release:inflate.obj
 0002:00007c74       ??_C@_0BM@IIMGAINC@invalid?5literal?1lengths?5set?$AA@ 00445c74     zlib_win32.release:inflate.obj
 0002:00007c90       ??_C@_0BG@GMDFCBGP@invalid?5distances?5set?$AA@ 00445c90     zlib_win32.release:inflate.obj
 0002:00007ca8       ??_C@_0BM@FFFLPBBC@invalid?5literal?1length?5code?$AA@ 00445ca8     zlib_win32.release:inflate.obj
 0002:00007cc4       ??_C@_0BG@LBKINIKP@invalid?5distance?5code?$AA@ 00445cc4     zlib_win32.release:inflate.obj
 0002:00007cdc       ??_C@_0BO@ECPMAOGG@invalid?5distance?5too?5far?5back?$AA@ 00445cdc     zlib_win32.release:inflate.obj
 0002:00007cfc       ??_C@_0BF@MEIGEHBE@incorrect?5data?5check?$AA@ 00445cfc     zlib_win32.release:inflate.obj
 0002:00007d14       ??_C@_0BH@FGKKJGOC@incorrect?5length?5check?$AA@ 00445d14     zlib_win32.release:inflate.obj
 0002:00007d2c       ??_C@_0BN@JKNDJNKI@?4?4?2extlibs?2zlib?2ionebula3?4cc?$AA@ 00445d2c     zlib_win32.release:ionebula3.obj
 0002:00007d50       ??_C@_0EA@FCAAOAMJ@mode?5?$DN?$DN?5?$CIZLIB_FILEFUNC_MODE_READ@ 00445d50     zlib_win32.release:ionebula3.obj
 0002:00007d90       ??_C@_0EC@BCGEONEM@nebula3_write_file_func?$CI?$CJ?3?5Writi@ 00445d90     zlib_win32.release:ionebula3.obj
 0002:00007dd4       ??_C@_0CD@IHFHKNIC@NULL?5pointer?5access?5in?5Ptr?3?3get?$CI@ 00445dd4     zlib_win32.release:ionebula3.obj
 0002:00007df8       ??_C@_0BF@CJFPCCEG@incompatible?5version?$AA@ 00445df8     zlib_win32.release:zutil.obj
 0002:00007e10       ??_C@_0N@DFPGLBGC@buffer?5error?$AA@ 00445e10     zlib_win32.release:zutil.obj
 0002:00007e20       ??_C@_0BE@OGGJBMCE@insufficient?5memory?$AA@ 00445e20     zlib_win32.release:zutil.obj
 0002:00007e34       ??_C@_0L@HAHMBNLP@data?5error?$AA@ 00445e34     zlib_win32.release:zutil.obj
 0002:00007e40       ??_C@_0N@MKKNPMJD@stream?5error?$AA@ 00445e40     zlib_win32.release:zutil.obj
 0002:00007e50       ??_C@_0L@KIJFAKBJ@file?5error?$AA@ 00445e50     zlib_win32.release:zutil.obj
 0002:00007e5c       ??_C@_0L@FNAOCBOG@stream?5end?$AA@ 00445e5c     zlib_win32.release:zutil.obj
 0002:00007e68       ??_C@_0BA@MOKMMFOD@need?5dictionary?$AA@ 00445e68     zlib_win32.release:zutil.obj
 0002:00007e78       __real@408f400000000000    00445e78      CIL library: CIL module
 0002:00007e80       __real@3f847ae147ae147b    00445e80      CIL library: CIL module
 0002:00007e88       __load_config_used         00445e88     MSVCRT:loadcfg.obj
 0002:00007ed0       __tls_used                 00445ed0     MSVCRT:tlssup.obj
 0002:00007f30       ___safe_se_handler_table   00445f30     <linker-defined>
 0002:00007f38       ___rtc_iaa                 00445f38     MSVCRT:_initsect_.obj
 0002:00007f3c       ___rtc_izz                 00445f3c     MSVCRT:_initsect_.obj
 0002:00007f40       ___rtc_taa                 00445f40     MSVCRT:_initsect_.obj
 0002:00007f44       ___rtc_tzz                 00445f44     MSVCRT:_initsect_.obj
 0002:00007fd4       __IMPORT_DESCRIPTOR_KERNEL32 00445fd4     kernel32:KERNEL32.dll
 0002:00007fe8       __IMPORT_DESCRIPTOR_USER32 00445fe8     user32:USER32.dll
 0002:00007ffc       __IMPORT_DESCRIPTOR_SHELL32 00445ffc     shell32:SHELL32.dll
 0002:00008010       __IMPORT_DESCRIPTOR_MSVCR90 00446010     MSVCRT:MSVCR90.dll
 0002:00008024       __IMPORT_DESCRIPTOR_dbghelp 00446024     dbghelp:dbghelp.dll
 0002:00008038       __IMPORT_DESCRIPTOR_WSOCK32 00446038     wsock32:WSOCK32.dll
 0002:0000804c       __NULL_IMPORT_DESCRIPTOR   0044604c     kernel32:KERNEL32.dll
 0003:00000000       ___native_dllmain_reason   00447000     MSVCRT:natstart.obj
 0003:00000004       ___native_vcclrit_reason   00447004     MSVCRT:natstart.obj
 0003:00000008       ___globallocalestatus      00447008     MSVCRT:xthdloc.obj
 0003:0000000c       ___defaultmatherr          0044700c     MSVCRT:merr.obj
 0003:00000010       ___security_cookie         00447010     MSVCRT:gs_cookie.obj
 0003:00000014       ___security_cookie_complement 00447014     MSVCRT:gs_cookie.obj
 0003:00000020       ?MemoryLoggingHeapType@Memory@@3W4HeapType@1@C 00447020     foundation_win32.release:win360memory.obj
 0003:00000080       __dowildcard               00447080     MSVCRT:wildcard.obj
 0003:00000084       __newmode                  00447084     MSVCRT:_newmode.obj
 0003:00000088       __commode                  00447088     MSVCRT:xncommod.obj
 0003:0000008c       __fmode                    0044708c     MSVCRT:xtxtmode.obj
 0003:000003b8       ___@@_PchSym_@00@UmvyfozDUxlwvUehJOAUdrmDCUivovzhvUarkhgivhhgvhgPdrmDCUhgwmvyOlyq@ 004473b8     stdneb.obj
 0003:000003bc       ___@@_PchSym_@00@UmvyfozDUxlwvUehJOAUdrmDCUivovzhvUulfmwzgrlmPdrmDCUhgwmvyOlyq@ 004473bc     foundation_win32.release:stdneb.obj
 0003:000003c0       ?Win32ProcessHeap@Memory@@3RAXA 004473c0     foundation_win32.release:win360memory.obj
 0003:000003c4       ?TotalAllocCount@Memory@@3HC 004473c4     foundation_win32.release:win360memory.obj
 0003:000003c8       ?TotalAllocSize@Memory@@3HC 004473c8     foundation_win32.release:win360memory.obj
 0003:000003cc       ?HeapTypeAllocCount@Memory@@3RCHC 004473cc     foundation_win32.release:win360memory.obj
 0003:00000400       ?HeapTypeAllocSize@Memory@@3RCHC 00447400     foundation_win32.release:win360memory.obj
 0003:00000434       ?MemoryLoggingEnabled@Memory@@3_NC 00447434     foundation_win32.release:win360memory.obj
 0003:00000435       ?StandardArchivesMounted@IoServer@IO@@0_NA 00447435     foundation_win32.release:ioserver.obj
 0003:00000436       ?SetupCalled@SysFunc@Win32@@0_NC 00447436     foundation_win32.release:win32sysfunc.obj
 0003:00000437       ?TableInitialized@Crc@Util@@0_NA 00447437     foundation_win32.release:crc.obj
 0003:00000438       ?MemoryLoggingThreshold@Memory@@3IC 00447438     foundation_win32.release:win360memory.obj
 0003:0000043c       ?ExitHandlers@SysFunc@Win32@@0PBVExitHandler@Core@@B 0044743c     foundation_win32.release:win32sysfunc.obj
 0003:00000440       ?globalStringAtomTable@Win32@@3PAVGlobalStringAtomTable@Util@@A 00447440     foundation_win32.release:win32sysfunc.obj
 0003:00000444       ?localStringAtomTable@Win32@@3PAVLocalStringAtomTable@Util@@A 00447444     foundation_win32.release:win32sysfunc.obj
 0003:00000448       ?Singleton@Factory@Core@@0PAV12@A 00447448     foundation_win32.release:factory.obj
 0003:0000044c       ?Heaps@Memory@@3RCRAXC     0044744c     foundation_win32.release:win360memoryconfig.obj
 0003:00000480       ?Singleton@Console@IO@@2PAV12@A 00447480     foundation_win32.release:console.obj
 0003:00000484       ?Singleton@AssignRegistry@IO@@2PAV12@A 00447484     foundation_win32.release:assignregistry.obj
 0003:00000488       ?Singleton@SchemeRegistry@IO@@2PAV12@A 00447488     foundation_win32.release:schemeregistry.obj
 0003:0000048c       ?Singleton@ArchiveFileSystem@IO@@2PAV12@A 0044748c     foundation_win32.release:archivefilesystem.obj
 0003:00000490       ?Singleton@ZipFileSystem@IO@@2PAV12@A 00447490     foundation_win32.release:zipfilesystem.obj
 0003:00000494       ?Singleton@ArchiveFileSystemBase@IO@@2PAV12@A 00447494     foundation_win32.release:archivefilesystembase.obj
 0003:00000498       ?Table@Crc@Util@@0PAIA     00447498     foundation_win32.release:crc.obj
 0003:00000898       ?DataHeap@Blob@Util@@0PAVWin360Heap@Win360@@A 00447898     foundation_win32.release:blob.obj
 0003:0000089c       ?NetworkInitialized@Win360Socket@Win360@@0_NA 0044789c     foundation_win32.release:win360socket.obj
 0003:000008a0       ?Singleton@GlobalStringAtomTable@Util@@2PAV12@A 004478a0     foundation_win32.release:globalstringatomtable.obj
 0003:000008a4       ?RTTI@ReaderThread@App@@2VRtti@Core@@A 004478a4     zipstresstestapplication.obj
 0003:000008d4       ?RTTI@IoServer@IO@@2VRtti@Core@@A 004478d4     foundation_win32.release:ioserver.obj
 0003:00000904       ?AssignCriticalSection@IoServer@IO@@0VCriticalSection@Threading@@A 00447904     foundation_win32.release:ioserver.obj
 0003:00000918       ?SchemeCriticalSection@IoServer@IO@@0VCriticalSection@Threading@@A 00447918     foundation_win32.release:ioserver.obj
 0003:0000092c       ?ArchiveCriticalSection@IoServer@IO@@0VCriticalSection@Threading@@A 0044792c     foundation_win32.release:ioserver.obj
 0003:00000940       ?RTTI@Thread@Threading@@2VRtti@Core@@A 00447940     foundation_win32.release:thread.obj
 0003:00000970       ?RTTI@Win360Thread@Win360@@2VRtti@Core@@A 00447970     foundation_win32.release:win360thread.obj
 0003:000009a0       ?systemInfo@SysFunc@Win32@@0VSystemInfo@System@@A 004479a0     foundation_win32.release:win32sysfunc.obj
 0003:000009b0       ?RTTI@Console@IO@@2VRtti@Core@@A 004479b0     foundation_win32.release:console.obj
 0003:000009e0       ?RTTI@CoreServer@Core@@2VRtti@2@A 004479e0     foundation_win32.release:coreserver.obj
 0003:00000a10       ?RTTI@LogFileConsoleHandler@IO@@2VRtti@Core@@A 00447a10     foundation_win32.release:logfileconsolehandler.obj
 0003:00000a40       ?RTTI@AssignRegistry@IO@@2VRtti@Core@@A 00447a40     foundation_win32.release:assignregistry.obj
 0003:00000a70       ?RTTI@RefCounted@Core@@2VRtti@2@A 00447a70     foundation_win32.release:refcounted.obj
 0003:00000aa0       ?RTTI@SchemeRegistry@IO@@2VRtti@Core@@A 00447aa0     foundation_win32.release:schemeregistry.obj
 0003:00000ad0       ?RTTI@ArchiveFileSystem@IO@@2VRtti@Core@@A 00447ad0     foundation_win32.release:archivefilesystem.obj
 0003:00000b00       ?RTTI@ZipFileSystem@IO@@2VRtti@Core@@A 00447b00     foundation_win32.release:zipfilesystem.obj
 0003:00000b30       ?RTTI@ArchiveFileSystemBase@IO@@2VRtti@Core@@A 00447b30     foundation_win32.release:archivefilesystembase.obj
 0003:00000b60       ?RTTI@Stream@IO@@2VRtti@Core@@A 00447b60     foundation_win32.release:stream.obj
 0003:00000b90       ?RTTI@ZipArchive@IO@@2VRtti@Core@@A 00447b90     foundation_win32.release:ziparchive.obj
 0003:00000bc0       ?RTTI@Win360Socket@Win360@@2VRtti@Core@@A 00447bc0     foundation_win32.release:win360socket.obj
 0003:00000bf0       ?RTTI@Win32ConsoleHandler@Win32@@2VRtti@Core@@A 00447bf0     foundation_win32.release:win32consolehandler.obj
 0003:00000c20       ?RTTI@ConsoleHandler@IO@@2VRtti@Core@@A 00447c20     foundation_win32.release:consolehandler.obj
 0003:00000c50       ?RTTI@TextWriter@IO@@2VRtti@Core@@A 00447c50     foundation_win32.release:textwriter.obj
 0003:00000c80       ?RTTI@StreamWriter@IO@@2VRtti@Core@@A 00447c80     foundation_win32.release:streamwriter.obj
 0003:00000cb0       ?RTTI@FileStream@IO@@2VRtti@Core@@A 00447cb0     foundation_win32.release:filestream.obj
 0003:00000ce0       ?RTTI@HttpStream@Http@@2VRtti@Core@@A 00447ce0     foundation_win32.release:httpstream.obj
 0003:00000d10       ?RTTI@HttpNzStream@Http@@2VRtti@Core@@A 00447d10     foundation_win32.release:httpnzstream.obj
 0003:00000d40       ?RTTI@ZipFileStream@IO@@2VRtti@Core@@A 00447d40     foundation_win32.release:zipfilestream.obj
 0003:00000d70       ?RTTI@Archive@IO@@2VRtti@Core@@A 00447d70     foundation_win32.release:archive.obj
 0003:00000da0       ?RTTI@ArchiveBase@IO@@2VRtti@Core@@A 00447da0     foundation_win32.release:archivebase.obj
 0003:00000dd0       ?RTTI@Socket@Net@@2VRtti@Core@@A 00447dd0     foundation_win32.release:socket.obj
 0003:00000e00       ?RTTI@MemoryStream@IO@@2VRtti@Core@@A 00447e00     foundation_win32.release:memorystream.obj
 0003:00000e30       ?RTTI@HttpClientRegistry@Http@@2VRtti@Core@@A 00447e30     foundation_win32.release:httpclientregistry.obj
 0003:00000e60       ?RTTI@HttpClient@Http@@2VRtti@Core@@A 00447e60     foundation_win32.release:httpclient.obj
 0003:00000e90       ?RTTI@TcpClient@Net@@2VRtti@Core@@A 00447e90     foundation_win32.release:tcpclient.obj
 0003:00000ec0       ?RTTI@StdTcpClient@Net@@2VRtti@Core@@A 00447ec0     foundation_win32.release:stdtcpclient.obj
 0003:00000ef0       ?RTTI@HttpRequestWriter@Http@@2VRtti@Core@@A 00447ef0     foundation_win32.release:httprequestwriter.obj
 0003:00000f20       ?RTTI@HttpResponseReader@Http@@2VRtti@Core@@A 00447f20     foundation_win32.release:httpresponsereader.obj
 0003:00000f50       ?RTTI@StreamReader@IO@@2VRtti@Core@@A 00447f50     foundation_win32.release:streamreader.obj
 0003:00000f80       ?RTTI@TextReader@IO@@2VRtti@Core@@A 00447f80     foundation_win32.release:textreader.obj
 0003:00000fb0       __tls_index                00447fb0     MSVCRT:tlssup.obj
 0003:00000fb4       ___sse2_available          00447fb4     <common>
 0003:00000fb8       __adjust_fdiv              00447fb8     <common>
 0003:00000fbc       ___native_startup_state    00447fbc     <common>
 0003:00000fc0       ___native_startup_lock     00447fc0     <common>
 0003:00000fc4       ___dyn_tls_init_callback   00447fc4     <common>
 0003:00000fc8       ___onexitend               00447fc8     <common>
 0003:00000fcc       ___onexitbegin             00447fcc     <common>
 0004:00000000       __tls_start                00448000     MSVCRT:tlssup.obj
 0004:00000004       ?Singleton@CoreServer@Core@@2PAV12@A 00448004     foundation_win32.release:coreserver.obj
 0004:00000008       ?Singleton@IoServer@IO@@2PAV12@A 00448008     foundation_win32.release:ioserver.obj
 0004:0000000c       ?Singleton@HttpClientRegistry@Http@@2PAV12@A 0044800c     foundation_win32.release:httpclientregistry.obj
 0004:00000010       ?Singleton@LocalStringAtomTable@Util@@2PAV12@A 00448010     foundation_win32.release:localstringatomtable.obj
 0004:00000014       ?Singleton@Application@App@@2PAV12@A 00448014     foundation_win32.release:application.obj
 0004:00000018       ?ThreadName@Win360Thread@Win360@@0PBDB 00448018     foundation_win32.release:win360thread.obj
 0004:0000001c       __tls_end                  0044801c     MSVCRT:tlssup.obj

 entry point at        0001:0003ab80

 Static symbols

 0001:000011c0       ??HUtil@@YA?AVString@0@ABV10@0@Z 004021c0 f    CIL library: CIL module
 0001:000038e0       ??HUtil@@YA?AVString@0@ABV10@0@Z 004048e0 f    CIL library: CIL module
 0001:00007ce0       ?StringVPrintfWorkerA@@YGJPADIPAIPBD0@Z 00408ce0 f    CIL library: CIL module
 0001:00007de0       ?StringLengthWorkerA@@YGJPBDIPAI@Z 00408de0 f    CIL library: CIL module
 0001:00007e50       ?StringValidateDestA@@YGJPADIPAII@Z 00408e50 f    CIL library: CIL module
 0001:00007f10       ?StringCopyWorkerA@@YGJPADIPAIPBDI@Z 00408f10 f    CIL library: CIL module
 0001:00017b10       ??HUtil@@YA?AVString@0@ABV10@0@Z 00418b10 f    CIL library: CIL module
 0001:00033540       _decrypt_byte              00434540 f    CIL library: CIL module
 0001:00033570       _update_keys               00434570 f    CIL library: CIL module
 0001:00033600       _init_keys                 00434600 f    CIL library: CIL module
 0001:00033650       _unzlocal_getByte          00434650 f    CIL library: CIL module
 0001:000336c0       _unzlocal_getShort         004346c0 f    CIL library: CIL module
 0001:00033730       _unzlocal_getLong          00434730 f    CIL library: CIL module
 0001:000337f0       _strcmpcasenosensitive_internal 004347f0 f    CIL library: CIL module
 0001:00033930       _unzlocal_SearchCentralDir 00434930 f    CIL library: CIL module
 0001:00033e80       _unzlocal_DosDateToTmuDate 00434e80 f    CIL library: CIL module
 0001:00033f00       _unzlocal_GetCurrentFileInfoInternal 00434f00 f    CIL library: CIL module
 0001:00034790       _unzlocal_CheckCurrentFileCoherencyHeader 00435790 f    CIL library: CIL module
 0001:000359c0       _crc32_little              004369c0 f    CIL library: CIL module
 0001:00035dc0       _crc32_big                 00436dc0 f    CIL library: CIL module
 0001:00036220       _gf2_matrix_times          00437220 f    CIL library: CIL module
 0001:00036260       _gf2_matrix_square         00437260 f    CIL library: CIL module
 0001:000366a0       _fixedtables               004376a0 f    CIL library: CIL module
 0001:000366d0       _updatewindow              004376d0 f    CIL library: CIL module
 0001:00038990       _syncsearch                00439990 f    CIL library: CIL module
 0001:0003a87f       _pre_cpp_init              0043b87f f   MSVCRT:crtexe.obj
 0001:0003a8ca       ___tmainCRTStartup         0043b8ca f   MSVCRT:crtexe.obj
 0001:0003aa40       _check_managed_app         0043ba40 f   MSVCRT:crtexe.obj
 0001:0003aa9f       _pre_c_init                0043ba9f f   MSVCRT:crtexe.obj
 0001:0003b2bb       _has_osfxsr_set            0043c2bb f   MSVCRT:cpu_disp.obj
 0001:0003b380       ??__E?RTTI@ReaderThread@App@@2VRtti@Core@@A@@YAXXZ 0043c380 f    CIL library: CIL module
 0001:0003b3d0       ??__E?RTTI@IoServer@IO@@2VRtti@Core@@A@@YAXXZ 0043c3d0 f    CIL library: CIL module
 0001:0003b410       ??__E?AssignCriticalSection@IoServer@IO@@0VCriticalSection@Threading@@A@@YAXXZ 0043c410 f    CIL library: CIL module
 0001:0003b430       ??__E?SchemeCriticalSection@IoServer@IO@@0VCriticalSection@Threading@@A@@YAXXZ 0043c430 f    CIL library: CIL module
 0001:0003b450       ??__E?ArchiveCriticalSection@IoServer@IO@@0VCriticalSection@Threading@@A@@YAXXZ 0043c450 f    CIL library: CIL module
 0001:0003b470       ??__E?RTTI@Thread@Threading@@2VRtti@Core@@A@@YAXXZ 0043c470 f    CIL library: CIL module
 0001:0003b4b0       ??__E?RTTI@Win360Thread@Win360@@2VRtti@Core@@A@@YAXXZ 0043c4b0 f    CIL library: CIL module
 0001:0003b4f0       ??__E?systemInfo@SysFunc@Win32@@0VSystemInfo@System@@A@@YAXXZ 0043c4f0 f    CIL library: CIL module
 0001:0003b500       ??__E?RTTI@Console@IO@@2VRtti@Core@@A@@YAXXZ 0043c500 f    CIL library: CIL module
 0001:0003b540       ??__E?RTTI@CoreServer@Core@@2VRtti@2@A@@YAXXZ 0043c540 f    CIL library: CIL module
 0001:0003b580       ??__E?RTTI@LogFileConsoleHandler@IO@@2VRtti@Core@@A@@YAXXZ 0043c580 f    CIL library: CIL module
 0001:0003b5c0       ??__E?RTTI@AssignRegistry@IO@@2VRtti@Core@@A@@YAXXZ 0043c5c0 f    CIL library: CIL module
 0001:0003b600       ??__E?RTTI@RefCounted@Core@@2VRtti@2@A@@YAXXZ 0043c600 f    CIL library: CIL module
 0001:0003b640       ??__E?RTTI@SchemeRegistry@IO@@2VRtti@Core@@A@@YAXXZ 0043c640 f    CIL library: CIL module
 0001:0003b680       ??__E?RTTI@ArchiveFileSystem@IO@@2VRtti@Core@@A@@YAXXZ 0043c680 f    CIL library: CIL module
 0001:0003b6c0       ??__E?RTTI@ZipFileSystem@IO@@2VRtti@Core@@A@@YAXXZ 0043c6c0 f    CIL library: CIL module
 0001:0003b700       ??__E?RTTI@ArchiveFileSystemBase@IO@@2VRtti@Core@@A@@YAXXZ 0043c700 f    CIL library: CIL module
 0001:0003b740       ??__E?RTTI@Stream@IO@@2VRtti@Core@@A@@YAXXZ 0043c740 f    CIL library: CIL module
 0001:0003b790       ??__E?RTTI@ZipArchive@IO@@2VRtti@Core@@A@@YAXXZ 0043c790 f    CIL library: CIL module
 0001:0003b7e0       ??__E?RTTI@Win360Socket@Win360@@2VRtti@Core@@A@@YAXXZ 0043c7e0 f    CIL library: CIL module
 0001:0003b820       ??__E?RTTI@Win32ConsoleHandler@Win32@@2VRtti@Core@@A@@YAXXZ 0043c820 f    CIL library: CIL module
 0001:0003b860       ??__E?RTTI@ConsoleHandler@IO@@2VRtti@Core@@A@@YAXXZ 0043c860 f    CIL library: CIL module
 0001:0003b8a0       ??__E?RTTI@TextWriter@IO@@2VRtti@Core@@A@@YAXXZ 0043c8a0 f    CIL library: CIL module
 0001:0003b8e0       ??__E?RTTI@StreamWriter@IO@@2VRtti@Core@@A@@YAXXZ 0043c8e0 f    CIL library: CIL module
 0001:0003b920       ??__E?RTTI@FileStream@IO@@2VRtti@Core@@A@@YAXXZ 0043c920 f    CIL library: CIL module
 0001:0003b970       ??__E?RTTI@HttpStream@Http@@2VRtti@Core@@A@@YAXXZ 0043c970 f    CIL library: CIL module
 0001:0003b9c0       ??__E?RTTI@HttpNzStream@Http@@2VRtti@Core@@A@@YAXXZ 0043c9c0 f    CIL library: CIL module
 0001:0003ba10       ??__E?RTTI@ZipFileStream@IO@@2VRtti@Core@@A@@YAXXZ 0043ca10 f    CIL library: CIL module
 0001:0003ba60       ??__E?RTTI@Archive@IO@@2VRtti@Core@@A@@YAXXZ 0043ca60 f    CIL library: CIL module
 0001:0003bab0       ??__E?RTTI@ArchiveBase@IO@@2VRtti@Core@@A@@YAXXZ 0043cab0 f    CIL library: CIL module
 0001:0003bb00       ??__E?RTTI@Socket@Net@@2VRtti@Core@@A@@YAXXZ 0043cb00 f    CIL library: CIL module
 0001:0003bb40       ??__E?RTTI@MemoryStream@IO@@2VRtti@Core@@A@@YAXXZ 0043cb40 f    CIL library: CIL module
 0001:0003bb90       ??__E?RTTI@HttpClientRegistry@Http@@2VRtti@Core@@A@@YAXXZ 0043cb90 f    CIL library: CIL module
 0001:0003bbd0       ??__E?RTTI@HttpClient@Http@@2VRtti@Core@@A@@YAXXZ 0043cbd0 f    CIL library: CIL module
 0001:0003bc10       ??__E?RTTI@TcpClient@Net@@2VRtti@Core@@A@@YAXXZ 0043cc10 f    CIL library: CIL module
 0001:0003bc50       ??__E?RTTI@StdTcpClient@Net@@2VRtti@Core@@A@@YAXXZ 0043cc50 f    CIL library: CIL module
 0001:0003bc90       ??__E?RTTI@HttpRequestWriter@Http@@2VRtti@Core@@A@@YAXXZ 0043cc90 f    CIL library: CIL module
 0001:0003bce0       ??__E?RTTI@HttpResponseReader@Http@@2VRtti@Core@@A@@YAXXZ 0043cce0 f    CIL library: CIL module
 0001:0003bd20       ??__E?RTTI@StreamReader@IO@@2VRtti@Core@@A@@YAXXZ 0043cd20 f    CIL library: CIL module
 0001:0003bd60       ??__E?RTTI@TextReader@IO@@2VRtti@Core@@A@@YAXXZ 0043cd60 f    CIL library: CIL module
 0001:0003bda0       ??__F?RTTI@ReaderThread@App@@2VRtti@Core@@A@@YAXXZ 0043cda0 f    CIL library: CIL module
 0001:0003bdf0       ??__F?RTTI@IoServer@IO@@2VRtti@Core@@A@@YAXXZ 0043cdf0 f    CIL library: CIL module
 0001:0003be40       ??__F?AssignCriticalSection@IoServer@IO@@0VCriticalSection@Threading@@A@@YAXXZ 0043ce40 f    CIL library: CIL module
 0001:0003be50       ??__F?SchemeCriticalSection@IoServer@IO@@0VCriticalSection@Threading@@A@@YAXXZ 0043ce50 f    CIL library: CIL module
 0001:0003be60       ??__F?ArchiveCriticalSection@IoServer@IO@@0VCriticalSection@Threading@@A@@YAXXZ 0043ce60 f    CIL library: CIL module
 0001:0003be70       ??__F?RTTI@Thread@Threading@@2VRtti@Core@@A@@YAXXZ 0043ce70 f    CIL library: CIL module
 0001:0003bec0       ??__F?RTTI@Win360Thread@Win360@@2VRtti@Core@@A@@YAXXZ 0043cec0 f    CIL library: CIL module
 0001:0003bf10       ??__F?RTTI@Console@IO@@2VRtti@Core@@A@@YAXXZ 0043cf10 f    CIL library: CIL module
 0001:0003bf60       ??__F?RTTI@CoreServer@Core@@2VRtti@2@A@@YAXXZ 0043cf60 f    CIL library: CIL module
 0001:0003bfb0       ??__F?RTTI@LogFileConsoleHandler@IO@@2VRtti@Core@@A@@YAXXZ 0043cfb0 f    CIL library: CIL module
 0001:0003c000       ??__F?RTTI@AssignRegistry@IO@@2VRtti@Core@@A@@YAXXZ 0043d000 f    CIL library: CIL module
 0001:0003c050       ??__F?RTTI@RefCounted@Core@@2VRtti@2@A@@YAXXZ 0043d050 f    CIL library: CIL module
 0001:0003c0a0       ??__F?RTTI@SchemeRegistry@IO@@2VRtti@Core@@A@@YAXXZ 0043d0a0 f    CIL library: CIL module
 0001:0003c0f0       ??__F?RTTI@ArchiveFileSystem@IO@@2VRtti@Core@@A@@YAXXZ 0043d0f0 f    CIL library: CIL module
 0001:0003c140       ??__F?RTTI@ZipFileSystem@IO@@2VRtti@Core@@A@@YAXXZ 0043d140 f    CIL library: CIL module
 0001:0003c190       ??__F?RTTI@ArchiveFileSystemBase@IO@@2VRtti@Core@@A@@YAXXZ 0043d190 f    CIL library: CIL module
 0001:0003c1e0       ??__F?RTTI@Stream@IO@@2VRtti@Core@@A@@YAXXZ 0043d1e0 f    CIL library: CIL module
 0001:0003c230       ??__F?RTTI@ZipArchive@IO@@2VRtti@Core@@A@@YAXXZ 0043d230 f    CIL library: CIL module
 0001:0003c280       ??__F?RTTI@Win360Socket@Win360@@2VRtti@Core@@A@@YAXXZ 0043d280 f    CIL library: CIL module
 0001:0003c2d0       ??__F?RTTI@Win32ConsoleHandler@Win32@@2VRtti@Core@@A@@YAXXZ 0043d2d0 f    CIL library: CIL module
 0001:0003c320       ??__F?RTTI@ConsoleHandler@IO@@2VRtti@Core@@A@@YAXXZ 0043d320 f    CIL library: CIL module
 0001:0003c370       ??__F?RTTI@TextWriter@IO@@2VRtti@Core@@A@@YAXXZ 0043d370 f    CIL library: CIL module
 0001:0003c3c0       ??__F?RTTI@StreamWriter@IO@@2VRtti@Core@@A@@YAXXZ 0043d3c0 f    CIL library: CIL module
 0001:0003c410       ??__F?RTTI@FileStream@IO@@2VRtti@Core@@A@@YAXXZ 0043d410 f    CIL library: CIL module
 0001:0003c460       ??__F?RTTI@HttpStream@Http@@2VRtti@Core@@A@@YAXXZ 0043d460 f    CIL library: CIL module
 0001:0003c4b0       ??__F?RTTI@HttpNzStream@Http@@2VRtti@Core@@A@@YAXXZ 0043d4b0 f    CIL library: CIL module
 0001:0003c500       ??__F?RTTI@ZipFileStream@IO@@2VRtti@Core@@A@@YAXXZ 0043d500 f    CIL library: CIL module
 0001:0003c550       ??__F?RTTI@Archive@IO@@2VRtti@Core@@A@@YAXXZ 0043d550 f    CIL library: CIL module
 0001:0003c5a0       ??__F?RTTI@ArchiveBase@IO@@2VRtti@Core@@A@@YAXXZ 0043d5a0 f    CIL library: CIL module
 0001:0003c5f0       ??__F?RTTI@Socket@Net@@2VRtti@Core@@A@@YAXXZ 0043d5f0 f    CIL library: CIL module
 0001:0003c640       ??__F?RTTI@MemoryStream@IO@@2VRtti@Core@@A@@YAXXZ 0043d640 f    CIL library: CIL module
 0001:0003c690       ??__F?RTTI@HttpClientRegistry@Http@@2VRtti@Core@@A@@YAXXZ 0043d690 f    CIL library: CIL module
 0001:0003c6e0       ??__F?RTTI@HttpClient@Http@@2VRtti@Core@@A@@YAXXZ 0043d6e0 f    CIL library: CIL module
 0001:0003c730       ??__F?RTTI@TcpClient@Net@@2VRtti@Core@@A@@YAXXZ 0043d730 f    CIL library: CIL module
 0001:0003c780       ??__F?RTTI@StdTcpClient@Net@@2VRtti@Core@@A@@YAXXZ 0043d780 f    CIL library: CIL module
 0001:0003c7d0       ??__F?RTTI@HttpRequestWriter@Http@@2VRtti@Core@@A@@YAXXZ 0043d7d0 f    CIL library: CIL module
 0001:0003c820       ??__F?RTTI@HttpResponseReader@Http@@2VRtti@Core@@A@@YAXXZ 0043d820 f    CIL library: CIL module
 0001:0003c870       ??__F?RTTI@StreamReader@IO@@2VRtti@Core@@A@@YAXXZ 0043d870 f    CIL library: CIL module
 0001:0003c8c0       ??__F?RTTI@TextReader@IO@@2VRtti@Core@@A@@YAXXZ 0043d8c0 f    CIL library: CIL module
